
g031k8.elf:     file format elf32-littlearm

Sections:
Idx Name          Size      VMA       LMA       File off  Algn
  0 .isr_vector   000000bc  08000000  08000000  00001000  2**0
                  CONTENTS, ALLOC, LOAD, READONLY, DATA
  1 .text         00006c68  080000bc  080000bc  000010bc  2**2
                  CONTENTS, ALLOC, LOAD, READONLY, CODE
  2 .rodata       00000b50  08006d24  08006d24  00007d24  2**2
                  CONTENTS, ALLOC, LOAD, READONLY, DATA
  3 .ARM.extab    00000000  08007874  08007874  00009014  2**0
                  CONTENTS
  4 .ARM          00000008  08007874  08007874  00008874  2**2
                  CONTENTS, ALLOC, LOAD, READONLY, DATA
  5 .preinit_array 00000000  0800787c  0800787c  00009014  2**0
                  CONTENTS, ALLOC, LOAD, DATA
  6 .init_array   00000004  0800787c  0800787c  0000887c  2**2
                  CONTENTS, ALLOC, LOAD, READONLY, DATA
  7 .fini_array   00000004  08007880  08007880  00008880  2**2
                  CONTENTS, ALLOC, LOAD, READONLY, DATA
  8 .data         00000014  20000000  08007884  00009000  2**2
                  CONTENTS, ALLOC, LOAD, DATA
  9 .bss          00000ae8  20000018  08007898  00009018  2**3
                  ALLOC
 10 ._user_heap_stack 00000600  20000b00  08007898  00009b00  2**0
                  ALLOC
 11 .ARM.attributes 00000028  00000000  00000000  00009014  2**0
                  CONTENTS, READONLY
 12 .debug_info   00025855  00000000  00000000  0000903c  2**0
                  CONTENTS, READONLY, DEBUGGING, OCTETS
 13 .debug_abbrev 00004164  00000000  00000000  0002e891  2**0
                  CONTENTS, READONLY, DEBUGGING, OCTETS
 14 .debug_aranges 00001260  00000000  00000000  000329f8  2**3
                  CONTENTS, READONLY, DEBUGGING, OCTETS
 15 .debug_rnglists 00001ad9  00000000  00000000  00033c58  2**0
                  CONTENTS, READONLY, DEBUGGING, OCTETS
 16 .debug_macro  00002e40  00000000  00000000  00035731  2**0
                  CONTENTS, READONLY, DEBUGGING, OCTETS
 17 .debug_line   00024ef9  00000000  00000000  00038571  2**0
                  CONTENTS, READONLY, DEBUGGING, OCTETS
 18 .debug_str    0009ea82  00000000  00000000  0005d46a  2**0
                  CONTENTS, READONLY, DEBUGGING, OCTETS
 19 .comment      00000043  00000000  00000000  000fbeec  2**0
                  CONTENTS, READONLY
 20 .debug_frame  00003290  00000000  00000000  000fbf30  2**2
                  CONTENTS, READONLY, DEBUGGING, OCTETS
 21 .debug_loclists 0000f6b7  00000000  00000000  000ff1c0  2**0
                  CONTENTS, READONLY, DEBUGGING, OCTETS
 22 .debug_line_str 00000057  00000000  00000000  0010e877  2**0
                  CONTENTS, READONLY, DEBUGGING, OCTETS

Disassembly of section .text:

080000bc <__do_global_dtors_aux>:
 80000bc:	b510      	push	{r4, lr}
 80000be:	4c06      	ldr	r4, [pc, #24]	@ (80000d8 <__do_global_dtors_aux+0x1c>)
 80000c0:	7823      	ldrb	r3, [r4, #0]
 80000c2:	2b00      	cmp	r3, #0
 80000c4:	d107      	bne.n	80000d6 <__do_global_dtors_aux+0x1a>
 80000c6:	4b05      	ldr	r3, [pc, #20]	@ (80000dc <__do_global_dtors_aux+0x20>)
 80000c8:	2b00      	cmp	r3, #0
 80000ca:	d002      	beq.n	80000d2 <__do_global_dtors_aux+0x16>
 80000cc:	4804      	ldr	r0, [pc, #16]	@ (80000e0 <__do_global_dtors_aux+0x24>)
 80000ce:	e000      	b.n	80000d2 <__do_global_dtors_aux+0x16>
 80000d0:	bf00      	nop
 80000d2:	2301      	movs	r3, #1
 80000d4:	7023      	strb	r3, [r4, #0]
 80000d6:	bd10      	pop	{r4, pc}
 80000d8:	20000018 	.word	0x20000018
 80000dc:	00000000 	.word	0x00000000
 80000e0:	08006d0c 	.word	0x08006d0c

080000e4 <frame_dummy>:
 80000e4:	4b04      	ldr	r3, [pc, #16]	@ (80000f8 <frame_dummy+0x14>)
 80000e6:	b510      	push	{r4, lr}
 80000e8:	2b00      	cmp	r3, #0
 80000ea:	d003      	beq.n	80000f4 <frame_dummy+0x10>
 80000ec:	4903      	ldr	r1, [pc, #12]	@ (80000fc <frame_dummy+0x18>)
 80000ee:	4804      	ldr	r0, [pc, #16]	@ (8000100 <frame_dummy+0x1c>)
 80000f0:	e000      	b.n	80000f4 <frame_dummy+0x10>
 80000f2:	bf00      	nop
 80000f4:	bd10      	pop	{r4, pc}
 80000f6:	46c0      	nop			@ (mov r8, r8)
 80000f8:	00000000 	.word	0x00000000
 80000fc:	2000001c 	.word	0x2000001c
 8000100:	08006d0c 	.word	0x08006d0c

08000104 <__udivsi3>:
 8000104:	2200      	movs	r2, #0
 8000106:	0843      	lsrs	r3, r0, #1
 8000108:	428b      	cmp	r3, r1
 800010a:	d374      	bcc.n	80001f6 <__udivsi3+0xf2>
 800010c:	0903      	lsrs	r3, r0, #4
 800010e:	428b      	cmp	r3, r1
 8000110:	d35f      	bcc.n	80001d2 <__udivsi3+0xce>
 8000112:	0a03      	lsrs	r3, r0, #8
 8000114:	428b      	cmp	r3, r1
 8000116:	d344      	bcc.n	80001a2 <__udivsi3+0x9e>
 8000118:	0b03      	lsrs	r3, r0, #12
 800011a:	428b      	cmp	r3, r1
 800011c:	d328      	bcc.n	8000170 <__udivsi3+0x6c>
 800011e:	0c03      	lsrs	r3, r0, #16
 8000120:	428b      	cmp	r3, r1
 8000122:	d30d      	bcc.n	8000140 <__udivsi3+0x3c>
 8000124:	22ff      	movs	r2, #255	@ 0xff
 8000126:	0209      	lsls	r1, r1, #8
 8000128:	ba12      	rev	r2, r2
 800012a:	0c03      	lsrs	r3, r0, #16
 800012c:	428b      	cmp	r3, r1
 800012e:	d302      	bcc.n	8000136 <__udivsi3+0x32>
 8000130:	1212      	asrs	r2, r2, #8
 8000132:	0209      	lsls	r1, r1, #8
 8000134:	d065      	beq.n	8000202 <__udivsi3+0xfe>
 8000136:	0b03      	lsrs	r3, r0, #12
 8000138:	428b      	cmp	r3, r1
 800013a:	d319      	bcc.n	8000170 <__udivsi3+0x6c>
 800013c:	e000      	b.n	8000140 <__udivsi3+0x3c>
 800013e:	0a09      	lsrs	r1, r1, #8
 8000140:	0bc3      	lsrs	r3, r0, #15
 8000142:	428b      	cmp	r3, r1
 8000144:	d301      	bcc.n	800014a <__udivsi3+0x46>
 8000146:	03cb      	lsls	r3, r1, #15
 8000148:	1ac0      	subs	r0, r0, r3
 800014a:	4152      	adcs	r2, r2
 800014c:	0b83      	lsrs	r3, r0, #14
 800014e:	428b      	cmp	r3, r1
 8000150:	d301      	bcc.n	8000156 <__udivsi3+0x52>
 8000152:	038b      	lsls	r3, r1, #14
 8000154:	1ac0      	subs	r0, r0, r3
 8000156:	4152      	adcs	r2, r2
 8000158:	0b43      	lsrs	r3, r0, #13
 800015a:	428b      	cmp	r3, r1
 800015c:	d301      	bcc.n	8000162 <__udivsi3+0x5e>
 800015e:	034b      	lsls	r3, r1, #13
 8000160:	1ac0      	subs	r0, r0, r3
 8000162:	4152      	adcs	r2, r2
 8000164:	0b03      	lsrs	r3, r0, #12
 8000166:	428b      	cmp	r3, r1
 8000168:	d301      	bcc.n	800016e <__udivsi3+0x6a>
 800016a:	030b      	lsls	r3, r1, #12
 800016c:	1ac0      	subs	r0, r0, r3
 800016e:	4152      	adcs	r2, r2
 8000170:	0ac3      	lsrs	r3, r0, #11
 8000172:	428b      	cmp	r3, r1
 8000174:	d301      	bcc.n	800017a <__udivsi3+0x76>
 8000176:	02cb      	lsls	r3, r1, #11
 8000178:	1ac0      	subs	r0, r0, r3
 800017a:	4152      	adcs	r2, r2
 800017c:	0a83      	lsrs	r3, r0, #10
 800017e:	428b      	cmp	r3, r1
 8000180:	d301      	bcc.n	8000186 <__udivsi3+0x82>
 8000182:	028b      	lsls	r3, r1, #10
 8000184:	1ac0      	subs	r0, r0, r3
 8000186:	4152      	adcs	r2, r2
 8000188:	0a43      	lsrs	r3, r0, #9
 800018a:	428b      	cmp	r3, r1
 800018c:	d301      	bcc.n	8000192 <__udivsi3+0x8e>
 800018e:	024b      	lsls	r3, r1, #9
 8000190:	1ac0      	subs	r0, r0, r3
 8000192:	4152      	adcs	r2, r2
 8000194:	0a03      	lsrs	r3, r0, #8
 8000196:	428b      	cmp	r3, r1
 8000198:	d301      	bcc.n	800019e <__udivsi3+0x9a>
 800019a:	020b      	lsls	r3, r1, #8
 800019c:	1ac0      	subs	r0, r0, r3
 800019e:	4152      	adcs	r2, r2
 80001a0:	d2cd      	bcs.n	800013e <__udivsi3+0x3a>
 80001a2:	09c3      	lsrs	r3, r0, #7
 80001a4:	428b      	cmp	r3, r1
 80001a6:	d301      	bcc.n	80001ac <__udivsi3+0xa8>
 80001a8:	01cb      	lsls	r3, r1, #7
 80001aa:	1ac0      	subs	r0, r0, r3
 80001ac:	4152      	adcs	r2, r2
 80001ae:	0983      	lsrs	r3, r0, #6
 80001b0:	428b      	cmp	r3, r1
 80001b2:	d301      	bcc.n	80001b8 <__udivsi3+0xb4>
 80001b4:	018b      	lsls	r3, r1, #6
 80001b6:	1ac0      	subs	r0, r0, r3
 80001b8:	4152      	adcs	r2, r2
 80001ba:	0943      	lsrs	r3, r0, #5
 80001bc:	428b      	cmp	r3, r1
 80001be:	d301      	bcc.n	80001c4 <__udivsi3+0xc0>
 80001c0:	014b      	lsls	r3, r1, #5
 80001c2:	1ac0      	subs	r0, r0, r3
 80001c4:	4152      	adcs	r2, r2
 80001c6:	0903      	lsrs	r3, r0, #4
 80001c8:	428b      	cmp	r3, r1
 80001ca:	d301      	bcc.n	80001d0 <__udivsi3+0xcc>
 80001cc:	010b      	lsls	r3, r1, #4
 80001ce:	1ac0      	subs	r0, r0, r3
 80001d0:	4152      	adcs	r2, r2
 80001d2:	08c3      	lsrs	r3, r0, #3
 80001d4:	428b      	cmp	r3, r1
 80001d6:	d301      	bcc.n	80001dc <__udivsi3+0xd8>
 80001d8:	00cb      	lsls	r3, r1, #3
 80001da:	1ac0      	subs	r0, r0, r3
 80001dc:	4152      	adcs	r2, r2
 80001de:	0883      	lsrs	r3, r0, #2
 80001e0:	428b      	cmp	r3, r1
 80001e2:	d301      	bcc.n	80001e8 <__udivsi3+0xe4>
 80001e4:	008b      	lsls	r3, r1, #2
 80001e6:	1ac0      	subs	r0, r0, r3
 80001e8:	4152      	adcs	r2, r2
 80001ea:	0843      	lsrs	r3, r0, #1
 80001ec:	428b      	cmp	r3, r1
 80001ee:	d301      	bcc.n	80001f4 <__udivsi3+0xf0>
 80001f0:	004b      	lsls	r3, r1, #1
 80001f2:	1ac0      	subs	r0, r0, r3
 80001f4:	4152      	adcs	r2, r2
 80001f6:	1a41      	subs	r1, r0, r1
 80001f8:	d200      	bcs.n	80001fc <__udivsi3+0xf8>
 80001fa:	4601      	mov	r1, r0
 80001fc:	4152      	adcs	r2, r2
 80001fe:	4610      	mov	r0, r2
 8000200:	4770      	bx	lr
 8000202:	e7ff      	b.n	8000204 <__udivsi3+0x100>
 8000204:	b501      	push	{r0, lr}
 8000206:	2000      	movs	r0, #0
 8000208:	f000 f8f0 	bl	80003ec <__aeabi_idiv0>
 800020c:	bd02      	pop	{r1, pc}
 800020e:	46c0      	nop			@ (mov r8, r8)

08000210 <__aeabi_uidivmod>:
 8000210:	2900      	cmp	r1, #0
 8000212:	d0f7      	beq.n	8000204 <__udivsi3+0x100>
 8000214:	e776      	b.n	8000104 <__udivsi3>
 8000216:	4770      	bx	lr

08000218 <__divsi3>:
 8000218:	4603      	mov	r3, r0
 800021a:	430b      	orrs	r3, r1
 800021c:	d47f      	bmi.n	800031e <__divsi3+0x106>
 800021e:	2200      	movs	r2, #0
 8000220:	0843      	lsrs	r3, r0, #1
 8000222:	428b      	cmp	r3, r1
 8000224:	d374      	bcc.n	8000310 <__divsi3+0xf8>
 8000226:	0903      	lsrs	r3, r0, #4
 8000228:	428b      	cmp	r3, r1
 800022a:	d35f      	bcc.n	80002ec <__divsi3+0xd4>
 800022c:	0a03      	lsrs	r3, r0, #8
 800022e:	428b      	cmp	r3, r1
 8000230:	d344      	bcc.n	80002bc <__divsi3+0xa4>
 8000232:	0b03      	lsrs	r3, r0, #12
 8000234:	428b      	cmp	r3, r1
 8000236:	d328      	bcc.n	800028a <__divsi3+0x72>
 8000238:	0c03      	lsrs	r3, r0, #16
 800023a:	428b      	cmp	r3, r1
 800023c:	d30d      	bcc.n	800025a <__divsi3+0x42>
 800023e:	22ff      	movs	r2, #255	@ 0xff
 8000240:	0209      	lsls	r1, r1, #8
 8000242:	ba12      	rev	r2, r2
 8000244:	0c03      	lsrs	r3, r0, #16
 8000246:	428b      	cmp	r3, r1
 8000248:	d302      	bcc.n	8000250 <__divsi3+0x38>
 800024a:	1212      	asrs	r2, r2, #8
 800024c:	0209      	lsls	r1, r1, #8
 800024e:	d065      	beq.n	800031c <__divsi3+0x104>
 8000250:	0b03      	lsrs	r3, r0, #12
 8000252:	428b      	cmp	r3, r1
 8000254:	d319      	bcc.n	800028a <__divsi3+0x72>
 8000256:	e000      	b.n	800025a <__divsi3+0x42>
 8000258:	0a09      	lsrs	r1, r1, #8
 800025a:	0bc3      	lsrs	r3, r0, #15
 800025c:	428b      	cmp	r3, r1
 800025e:	d301      	bcc.n	8000264 <__divsi3+0x4c>
 8000260:	03cb      	lsls	r3, r1, #15
 8000262:	1ac0      	subs	r0, r0, r3
 8000264:	4152      	adcs	r2, r2
 8000266:	0b83      	lsrs	r3, r0, #14
 8000268:	428b      	cmp	r3, r1
 800026a:	d301      	bcc.n	8000270 <__divsi3+0x58>
 800026c:	038b      	lsls	r3, r1, #14
 800026e:	1ac0      	subs	r0, r0, r3
 8000270:	4152      	adcs	r2, r2
 8000272:	0b43      	lsrs	r3, r0, #13
 8000274:	428b      	cmp	r3, r1
 8000276:	d301      	bcc.n	800027c <__divsi3+0x64>
 8000278:	034b      	lsls	r3, r1, #13
 800027a:	1ac0      	subs	r0, r0, r3
 800027c:	4152      	adcs	r2, r2
 800027e:	0b03      	lsrs	r3, r0, #12
 8000280:	428b      	cmp	r3, r1
 8000282:	d301      	bcc.n	8000288 <__divsi3+0x70>
 8000284:	030b      	lsls	r3, r1, #12
 8000286:	1ac0      	subs	r0, r0, r3
 8000288:	4152      	adcs	r2, r2
 800028a:	0ac3      	lsrs	r3, r0, #11
 800028c:	428b      	cmp	r3, r1
 800028e:	d301      	bcc.n	8000294 <__divsi3+0x7c>
 8000290:	02cb      	lsls	r3, r1, #11
 8000292:	1ac0      	subs	r0, r0, r3
 8000294:	4152      	adcs	r2, r2
 8000296:	0a83      	lsrs	r3, r0, #10
 8000298:	428b      	cmp	r3, r1
 800029a:	d301      	bcc.n	80002a0 <__divsi3+0x88>
 800029c:	028b      	lsls	r3, r1, #10
 800029e:	1ac0      	subs	r0, r0, r3
 80002a0:	4152      	adcs	r2, r2
 80002a2:	0a43      	lsrs	r3, r0, #9
 80002a4:	428b      	cmp	r3, r1
 80002a6:	d301      	bcc.n	80002ac <__divsi3+0x94>
 80002a8:	024b      	lsls	r3, r1, #9
 80002aa:	1ac0      	subs	r0, r0, r3
 80002ac:	4152      	adcs	r2, r2
 80002ae:	0a03      	lsrs	r3, r0, #8
 80002b0:	428b      	cmp	r3, r1
 80002b2:	d301      	bcc.n	80002b8 <__divsi3+0xa0>
 80002b4:	020b      	lsls	r3, r1, #8
 80002b6:	1ac0      	subs	r0, r0, r3
 80002b8:	4152      	adcs	r2, r2
 80002ba:	d2cd      	bcs.n	8000258 <__divsi3+0x40>
 80002bc:	09c3      	lsrs	r3, r0, #7
 80002be:	428b      	cmp	r3, r1
 80002c0:	d301      	bcc.n	80002c6 <__divsi3+0xae>
 80002c2:	01cb      	lsls	r3, r1, #7
 80002c4:	1ac0      	subs	r0, r0, r3
 80002c6:	4152      	adcs	r2, r2
 80002c8:	0983      	lsrs	r3, r0, #6
 80002ca:	428b      	cmp	r3, r1
 80002cc:	d301      	bcc.n	80002d2 <__divsi3+0xba>
 80002ce:	018b      	lsls	r3, r1, #6
 80002d0:	1ac0      	subs	r0, r0, r3
 80002d2:	4152      	adcs	r2, r2
 80002d4:	0943      	lsrs	r3, r0, #5
 80002d6:	428b      	cmp	r3, r1
 80002d8:	d301      	bcc.n	80002de <__divsi3+0xc6>
 80002da:	014b      	lsls	r3, r1, #5
 80002dc:	1ac0      	subs	r0, r0, r3
 80002de:	4152      	adcs	r2, r2
 80002e0:	0903      	lsrs	r3, r0, #4
 80002e2:	428b      	cmp	r3, r1
 80002e4:	d301      	bcc.n	80002ea <__divsi3+0xd2>
 80002e6:	010b      	lsls	r3, r1, #4
 80002e8:	1ac0      	subs	r0, r0, r3
 80002ea:	4152      	adcs	r2, r2
 80002ec:	08c3      	lsrs	r3, r0, #3
 80002ee:	428b      	cmp	r3, r1
 80002f0:	d301      	bcc.n	80002f6 <__divsi3+0xde>
 80002f2:	00cb      	lsls	r3, r1, #3
 80002f4:	1ac0      	subs	r0, r0, r3
 80002f6:	4152      	adcs	r2, r2
 80002f8:	0883      	lsrs	r3, r0, #2
 80002fa:	428b      	cmp	r3, r1
 80002fc:	d301      	bcc.n	8000302 <__divsi3+0xea>
 80002fe:	008b      	lsls	r3, r1, #2
 8000300:	1ac0      	subs	r0, r0, r3
 8000302:	4152      	adcs	r2, r2
 8000304:	0843      	lsrs	r3, r0, #1
 8000306:	428b      	cmp	r3, r1
 8000308:	d301      	bcc.n	800030e <__divsi3+0xf6>
 800030a:	004b      	lsls	r3, r1, #1
 800030c:	1ac0      	subs	r0, r0, r3
 800030e:	4152      	adcs	r2, r2
 8000310:	1a41      	subs	r1, r0, r1
 8000312:	d200      	bcs.n	8000316 <__divsi3+0xfe>
 8000314:	4601      	mov	r1, r0
 8000316:	4152      	adcs	r2, r2
 8000318:	4610      	mov	r0, r2
 800031a:	4770      	bx	lr
 800031c:	e05d      	b.n	80003da <__divsi3+0x1c2>
 800031e:	0fca      	lsrs	r2, r1, #31
 8000320:	d000      	beq.n	8000324 <__divsi3+0x10c>
 8000322:	4249      	negs	r1, r1
 8000324:	1003      	asrs	r3, r0, #32
 8000326:	d300      	bcc.n	800032a <__divsi3+0x112>
 8000328:	4240      	negs	r0, r0
 800032a:	4053      	eors	r3, r2
 800032c:	2200      	movs	r2, #0
 800032e:	469c      	mov	ip, r3
 8000330:	0903      	lsrs	r3, r0, #4
 8000332:	428b      	cmp	r3, r1
 8000334:	d32d      	bcc.n	8000392 <__divsi3+0x17a>
 8000336:	0a03      	lsrs	r3, r0, #8
 8000338:	428b      	cmp	r3, r1
 800033a:	d312      	bcc.n	8000362 <__divsi3+0x14a>
 800033c:	22fc      	movs	r2, #252	@ 0xfc
 800033e:	0189      	lsls	r1, r1, #6
 8000340:	ba12      	rev	r2, r2
 8000342:	0a03      	lsrs	r3, r0, #8
 8000344:	428b      	cmp	r3, r1
 8000346:	d30c      	bcc.n	8000362 <__divsi3+0x14a>
 8000348:	0189      	lsls	r1, r1, #6
 800034a:	1192      	asrs	r2, r2, #6
 800034c:	428b      	cmp	r3, r1
 800034e:	d308      	bcc.n	8000362 <__divsi3+0x14a>
 8000350:	0189      	lsls	r1, r1, #6
 8000352:	1192      	asrs	r2, r2, #6
 8000354:	428b      	cmp	r3, r1
 8000356:	d304      	bcc.n	8000362 <__divsi3+0x14a>
 8000358:	0189      	lsls	r1, r1, #6
 800035a:	d03a      	beq.n	80003d2 <__divsi3+0x1ba>
 800035c:	1192      	asrs	r2, r2, #6
 800035e:	e000      	b.n	8000362 <__divsi3+0x14a>
 8000360:	0989      	lsrs	r1, r1, #6
 8000362:	09c3      	lsrs	r3, r0, #7
 8000364:	428b      	cmp	r3, r1
 8000366:	d301      	bcc.n	800036c <__divsi3+0x154>
 8000368:	01cb      	lsls	r3, r1, #7
 800036a:	1ac0      	subs	r0, r0, r3
 800036c:	4152      	adcs	r2, r2
 800036e:	0983      	lsrs	r3, r0, #6
 8000370:	428b      	cmp	r3, r1
 8000372:	d301      	bcc.n	8000378 <__divsi3+0x160>
 8000374:	018b      	lsls	r3, r1, #6
 8000376:	1ac0      	subs	r0, r0, r3
 8000378:	4152      	adcs	r2, r2
 800037a:	0943      	lsrs	r3, r0, #5
 800037c:	428b      	cmp	r3, r1
 800037e:	d301      	bcc.n	8000384 <__divsi3+0x16c>
 8000380:	014b      	lsls	r3, r1, #5
 8000382:	1ac0      	subs	r0, r0, r3
 8000384:	4152      	adcs	r2, r2
 8000386:	0903      	lsrs	r3, r0, #4
 8000388:	428b      	cmp	r3, r1
 800038a:	d301      	bcc.n	8000390 <__divsi3+0x178>
 800038c:	010b      	lsls	r3, r1, #4
 800038e:	1ac0      	subs	r0, r0, r3
 8000390:	4152      	adcs	r2, r2
 8000392:	08c3      	lsrs	r3, r0, #3
 8000394:	428b      	cmp	r3, r1
 8000396:	d301      	bcc.n	800039c <__divsi3+0x184>
 8000398:	00cb      	lsls	r3, r1, #3
 800039a:	1ac0      	subs	r0, r0, r3
 800039c:	4152      	adcs	r2, r2
 800039e:	0883      	lsrs	r3, r0, #2
 80003a0:	428b      	cmp	r3, r1
 80003a2:	d301      	bcc.n	80003a8 <__divsi3+0x190>
 80003a4:	008b      	lsls	r3, r1, #2
 80003a6:	1ac0      	subs	r0, r0, r3
 80003a8:	4152      	adcs	r2, r2
 80003aa:	d2d9      	bcs.n	8000360 <__divsi3+0x148>
 80003ac:	0843      	lsrs	r3, r0, #1
 80003ae:	428b      	cmp	r3, r1
 80003b0:	d301      	bcc.n	80003b6 <__divsi3+0x19e>
 80003b2:	004b      	lsls	r3, r1, #1
 80003b4:	1ac0      	subs	r0, r0, r3
 80003b6:	4152      	adcs	r2, r2
 80003b8:	1a41      	subs	r1, r0, r1
 80003ba:	d200      	bcs.n	80003be <__divsi3+0x1a6>
 80003bc:	4601      	mov	r1, r0
 80003be:	4663      	mov	r3, ip
 80003c0:	4152      	adcs	r2, r2
 80003c2:	105b      	asrs	r3, r3, #1
 80003c4:	4610      	mov	r0, r2
 80003c6:	d301      	bcc.n	80003cc <__divsi3+0x1b4>
 80003c8:	4240      	negs	r0, r0
 80003ca:	2b00      	cmp	r3, #0
 80003cc:	d500      	bpl.n	80003d0 <__divsi3+0x1b8>
 80003ce:	4249      	negs	r1, r1
 80003d0:	4770      	bx	lr
 80003d2:	4663      	mov	r3, ip
 80003d4:	105b      	asrs	r3, r3, #1
 80003d6:	d300      	bcc.n	80003da <__divsi3+0x1c2>
 80003d8:	4240      	negs	r0, r0
 80003da:	b501      	push	{r0, lr}
 80003dc:	2000      	movs	r0, #0
 80003de:	f000 f805 	bl	80003ec <__aeabi_idiv0>
 80003e2:	bd02      	pop	{r1, pc}

080003e4 <__aeabi_idivmod>:
 80003e4:	2900      	cmp	r1, #0
 80003e6:	d0f8      	beq.n	80003da <__divsi3+0x1c2>
 80003e8:	e716      	b.n	8000218 <__divsi3>
 80003ea:	4770      	bx	lr

080003ec <__aeabi_idiv0>:
 80003ec:	4770      	bx	lr
 80003ee:	46c0      	nop			@ (mov r8, r8)

080003f0 <__aeabi_uldivmod>:
 80003f0:	2b00      	cmp	r3, #0
 80003f2:	d111      	bne.n	8000418 <__aeabi_uldivmod+0x28>
 80003f4:	2a00      	cmp	r2, #0
 80003f6:	d10f      	bne.n	8000418 <__aeabi_uldivmod+0x28>
 80003f8:	2900      	cmp	r1, #0
 80003fa:	d100      	bne.n	80003fe <__aeabi_uldivmod+0xe>
 80003fc:	2800      	cmp	r0, #0
 80003fe:	d002      	beq.n	8000406 <__aeabi_uldivmod+0x16>
 8000400:	2100      	movs	r1, #0
 8000402:	43c9      	mvns	r1, r1
 8000404:	0008      	movs	r0, r1
 8000406:	b407      	push	{r0, r1, r2}
 8000408:	4802      	ldr	r0, [pc, #8]	@ (8000414 <__aeabi_uldivmod+0x24>)
 800040a:	a102      	add	r1, pc, #8	@ (adr r1, 8000414 <__aeabi_uldivmod+0x24>)
 800040c:	1840      	adds	r0, r0, r1
 800040e:	9002      	str	r0, [sp, #8]
 8000410:	bd03      	pop	{r0, r1, pc}
 8000412:	46c0      	nop			@ (mov r8, r8)
 8000414:	ffffffd9 	.word	0xffffffd9
 8000418:	b403      	push	{r0, r1}
 800041a:	4668      	mov	r0, sp
 800041c:	b501      	push	{r0, lr}
 800041e:	9802      	ldr	r0, [sp, #8]
 8000420:	f000 f806 	bl	8000430 <__udivmoddi4>
 8000424:	9b01      	ldr	r3, [sp, #4]
 8000426:	469e      	mov	lr, r3
 8000428:	b002      	add	sp, #8
 800042a:	bc0c      	pop	{r2, r3}
 800042c:	4770      	bx	lr
 800042e:	46c0      	nop			@ (mov r8, r8)

08000430 <__udivmoddi4>:
 8000430:	b5f0      	push	{r4, r5, r6, r7, lr}
 8000432:	4657      	mov	r7, sl
 8000434:	464e      	mov	r6, r9
 8000436:	4645      	mov	r5, r8
 8000438:	46de      	mov	lr, fp
 800043a:	b5e0      	push	{r5, r6, r7, lr}
 800043c:	0004      	movs	r4, r0
 800043e:	000d      	movs	r5, r1
 8000440:	4692      	mov	sl, r2
 8000442:	4699      	mov	r9, r3
 8000444:	b083      	sub	sp, #12
 8000446:	428b      	cmp	r3, r1
 8000448:	d830      	bhi.n	80004ac <__udivmoddi4+0x7c>
 800044a:	d02d      	beq.n	80004a8 <__udivmoddi4+0x78>
 800044c:	4649      	mov	r1, r9
 800044e:	4650      	mov	r0, sl
 8000450:	f000 f8ba 	bl	80005c8 <__clzdi2>
 8000454:	0029      	movs	r1, r5
 8000456:	0006      	movs	r6, r0
 8000458:	0020      	movs	r0, r4
 800045a:	f000 f8b5 	bl	80005c8 <__clzdi2>
 800045e:	1a33      	subs	r3, r6, r0
 8000460:	4698      	mov	r8, r3
 8000462:	3b20      	subs	r3, #32
 8000464:	d434      	bmi.n	80004d0 <__udivmoddi4+0xa0>
 8000466:	469b      	mov	fp, r3
 8000468:	4653      	mov	r3, sl
 800046a:	465a      	mov	r2, fp
 800046c:	4093      	lsls	r3, r2
 800046e:	4642      	mov	r2, r8
 8000470:	001f      	movs	r7, r3
 8000472:	4653      	mov	r3, sl
 8000474:	4093      	lsls	r3, r2
 8000476:	001e      	movs	r6, r3
 8000478:	42af      	cmp	r7, r5
 800047a:	d83b      	bhi.n	80004f4 <__udivmoddi4+0xc4>
 800047c:	42af      	cmp	r7, r5
 800047e:	d100      	bne.n	8000482 <__udivmoddi4+0x52>
 8000480:	e079      	b.n	8000576 <__udivmoddi4+0x146>
 8000482:	465b      	mov	r3, fp
 8000484:	1ba4      	subs	r4, r4, r6
 8000486:	41bd      	sbcs	r5, r7
 8000488:	2b00      	cmp	r3, #0
 800048a:	da00      	bge.n	800048e <__udivmoddi4+0x5e>
 800048c:	e076      	b.n	800057c <__udivmoddi4+0x14c>
 800048e:	2200      	movs	r2, #0
 8000490:	2300      	movs	r3, #0
 8000492:	9200      	str	r2, [sp, #0]
 8000494:	9301      	str	r3, [sp, #4]
 8000496:	2301      	movs	r3, #1
 8000498:	465a      	mov	r2, fp
 800049a:	4093      	lsls	r3, r2
 800049c:	9301      	str	r3, [sp, #4]
 800049e:	2301      	movs	r3, #1
 80004a0:	4642      	mov	r2, r8
 80004a2:	4093      	lsls	r3, r2
 80004a4:	9300      	str	r3, [sp, #0]
 80004a6:	e029      	b.n	80004fc <__udivmoddi4+0xcc>
 80004a8:	4282      	cmp	r2, r0
 80004aa:	d9cf      	bls.n	800044c <__udivmoddi4+0x1c>
 80004ac:	2200      	movs	r2, #0
 80004ae:	2300      	movs	r3, #0
 80004b0:	9200      	str	r2, [sp, #0]
 80004b2:	9301      	str	r3, [sp, #4]
 80004b4:	9b0c      	ldr	r3, [sp, #48]	@ 0x30
 80004b6:	2b00      	cmp	r3, #0
 80004b8:	d001      	beq.n	80004be <__udivmoddi4+0x8e>
 80004ba:	601c      	str	r4, [r3, #0]
 80004bc:	605d      	str	r5, [r3, #4]
 80004be:	9800      	ldr	r0, [sp, #0]
 80004c0:	9901      	ldr	r1, [sp, #4]
 80004c2:	b003      	add	sp, #12
 80004c4:	bcf0      	pop	{r4, r5, r6, r7}
 80004c6:	46bb      	mov	fp, r7
 80004c8:	46b2      	mov	sl, r6
 80004ca:	46a9      	mov	r9, r5
 80004cc:	46a0      	mov	r8, r4
 80004ce:	bdf0      	pop	{r4, r5, r6, r7, pc}
 80004d0:	4642      	mov	r2, r8
 80004d2:	469b      	mov	fp, r3
 80004d4:	2320      	movs	r3, #32
 80004d6:	1a9b      	subs	r3, r3, r2
 80004d8:	4652      	mov	r2, sl
 80004da:	40da      	lsrs	r2, r3
 80004dc:	4641      	mov	r1, r8
 80004de:	0013      	movs	r3, r2
 80004e0:	464a      	mov	r2, r9
 80004e2:	408a      	lsls	r2, r1
 80004e4:	0017      	movs	r7, r2
 80004e6:	4642      	mov	r2, r8
 80004e8:	431f      	orrs	r7, r3
 80004ea:	4653      	mov	r3, sl
 80004ec:	4093      	lsls	r3, r2
 80004ee:	001e      	movs	r6, r3
 80004f0:	42af      	cmp	r7, r5
 80004f2:	d9c3      	bls.n	800047c <__udivmoddi4+0x4c>
 80004f4:	2200      	movs	r2, #0
 80004f6:	2300      	movs	r3, #0
 80004f8:	9200      	str	r2, [sp, #0]
 80004fa:	9301      	str	r3, [sp, #4]
 80004fc:	4643      	mov	r3, r8
 80004fe:	2b00      	cmp	r3, #0
 8000500:	d0d8      	beq.n	80004b4 <__udivmoddi4+0x84>
 8000502:	07fb      	lsls	r3, r7, #31
 8000504:	0872      	lsrs	r2, r6, #1
 8000506:	431a      	orrs	r2, r3
 8000508:	4646      	mov	r6, r8
 800050a:	087b      	lsrs	r3, r7, #1
 800050c:	e00e      	b.n	800052c <__udivmoddi4+0xfc>
 800050e:	42ab      	cmp	r3, r5
 8000510:	d101      	bne.n	8000516 <__udivmoddi4+0xe6>
 8000512:	42a2      	cmp	r2, r4
 8000514:	d80c      	bhi.n	8000530 <__udivmoddi4+0x100>
 8000516:	1aa4      	subs	r4, r4, r2
 8000518:	419d      	sbcs	r5, r3
 800051a:	2001      	movs	r0, #1
 800051c:	1924      	adds	r4, r4, r4
 800051e:	416d      	adcs	r5, r5
 8000520:	2100      	movs	r1, #0
 8000522:	3e01      	subs	r6, #1
 8000524:	1824      	adds	r4, r4, r0
 8000526:	414d      	adcs	r5, r1
 8000528:	2e00      	cmp	r6, #0
 800052a:	d006      	beq.n	800053a <__udivmoddi4+0x10a>
 800052c:	42ab      	cmp	r3, r5
 800052e:	d9ee      	bls.n	800050e <__udivmoddi4+0xde>
 8000530:	3e01      	subs	r6, #1
 8000532:	1924      	adds	r4, r4, r4
 8000534:	416d      	adcs	r5, r5
 8000536:	2e00      	cmp	r6, #0
 8000538:	d1f8      	bne.n	800052c <__udivmoddi4+0xfc>
 800053a:	9800      	ldr	r0, [sp, #0]
 800053c:	9901      	ldr	r1, [sp, #4]
 800053e:	465b      	mov	r3, fp
 8000540:	1900      	adds	r0, r0, r4
 8000542:	4169      	adcs	r1, r5
 8000544:	2b00      	cmp	r3, #0
 8000546:	db24      	blt.n	8000592 <__udivmoddi4+0x162>
 8000548:	002b      	movs	r3, r5
 800054a:	465a      	mov	r2, fp
 800054c:	4644      	mov	r4, r8
 800054e:	40d3      	lsrs	r3, r2
 8000550:	002a      	movs	r2, r5
 8000552:	40e2      	lsrs	r2, r4
 8000554:	001c      	movs	r4, r3
 8000556:	465b      	mov	r3, fp
 8000558:	0015      	movs	r5, r2
 800055a:	2b00      	cmp	r3, #0
 800055c:	db2a      	blt.n	80005b4 <__udivmoddi4+0x184>
 800055e:	0026      	movs	r6, r4
 8000560:	409e      	lsls	r6, r3
 8000562:	0033      	movs	r3, r6
 8000564:	0026      	movs	r6, r4
 8000566:	4647      	mov	r7, r8
 8000568:	40be      	lsls	r6, r7
 800056a:	0032      	movs	r2, r6
 800056c:	1a80      	subs	r0, r0, r2
 800056e:	4199      	sbcs	r1, r3
 8000570:	9000      	str	r0, [sp, #0]
 8000572:	9101      	str	r1, [sp, #4]
 8000574:	e79e      	b.n	80004b4 <__udivmoddi4+0x84>
 8000576:	42a3      	cmp	r3, r4
 8000578:	d8bc      	bhi.n	80004f4 <__udivmoddi4+0xc4>
 800057a:	e782      	b.n	8000482 <__udivmoddi4+0x52>
 800057c:	4642      	mov	r2, r8
 800057e:	2320      	movs	r3, #32
 8000580:	2100      	movs	r1, #0
 8000582:	1a9b      	subs	r3, r3, r2
 8000584:	2200      	movs	r2, #0
 8000586:	9100      	str	r1, [sp, #0]
 8000588:	9201      	str	r2, [sp, #4]
 800058a:	2201      	movs	r2, #1
 800058c:	40da      	lsrs	r2, r3
 800058e:	9201      	str	r2, [sp, #4]
 8000590:	e785      	b.n	800049e <__udivmoddi4+0x6e>
 8000592:	4642      	mov	r2, r8
 8000594:	2320      	movs	r3, #32
 8000596:	1a9b      	subs	r3, r3, r2
 8000598:	002a      	movs	r2, r5
 800059a:	4646      	mov	r6, r8
 800059c:	409a      	lsls	r2, r3
 800059e:	0023      	movs	r3, r4
 80005a0:	40f3      	lsrs	r3, r6
 80005a2:	4644      	mov	r4, r8
 80005a4:	4313      	orrs	r3, r2
 80005a6:	002a      	movs	r2, r5
 80005a8:	40e2      	lsrs	r2, r4
 80005aa:	001c      	movs	r4, r3
 80005ac:	465b      	mov	r3, fp
 80005ae:	0015      	movs	r5, r2
 80005b0:	2b00      	cmp	r3, #0
 80005b2:	dad4      	bge.n	800055e <__udivmoddi4+0x12e>
 80005b4:	4642      	mov	r2, r8
 80005b6:	002f      	movs	r7, r5
 80005b8:	2320      	movs	r3, #32
 80005ba:	0026      	movs	r6, r4
 80005bc:	4097      	lsls	r7, r2
 80005be:	1a9b      	subs	r3, r3, r2
 80005c0:	40de      	lsrs	r6, r3
 80005c2:	003b      	movs	r3, r7
 80005c4:	4333      	orrs	r3, r6
 80005c6:	e7cd      	b.n	8000564 <__udivmoddi4+0x134>

080005c8 <__clzdi2>:
 80005c8:	b510      	push	{r4, lr}
 80005ca:	2900      	cmp	r1, #0
 80005cc:	d103      	bne.n	80005d6 <__clzdi2+0xe>
 80005ce:	f000 f807 	bl	80005e0 <__clzsi2>
 80005d2:	3020      	adds	r0, #32
 80005d4:	e002      	b.n	80005dc <__clzdi2+0x14>
 80005d6:	0008      	movs	r0, r1
 80005d8:	f000 f802 	bl	80005e0 <__clzsi2>
 80005dc:	bd10      	pop	{r4, pc}
 80005de:	46c0      	nop			@ (mov r8, r8)

080005e0 <__clzsi2>:
 80005e0:	211c      	movs	r1, #28
 80005e2:	2301      	movs	r3, #1
 80005e4:	041b      	lsls	r3, r3, #16
 80005e6:	4298      	cmp	r0, r3
 80005e8:	d301      	bcc.n	80005ee <__clzsi2+0xe>
 80005ea:	0c00      	lsrs	r0, r0, #16
 80005ec:	3910      	subs	r1, #16
 80005ee:	0a1b      	lsrs	r3, r3, #8
 80005f0:	4298      	cmp	r0, r3
 80005f2:	d301      	bcc.n	80005f8 <__clzsi2+0x18>
 80005f4:	0a00      	lsrs	r0, r0, #8
 80005f6:	3908      	subs	r1, #8
 80005f8:	091b      	lsrs	r3, r3, #4
 80005fa:	4298      	cmp	r0, r3
 80005fc:	d301      	bcc.n	8000602 <__clzsi2+0x22>
 80005fe:	0900      	lsrs	r0, r0, #4
 8000600:	3904      	subs	r1, #4
 8000602:	a202      	add	r2, pc, #8	@ (adr r2, 800060c <__clzsi2+0x2c>)
 8000604:	5c10      	ldrb	r0, [r2, r0]
 8000606:	1840      	adds	r0, r0, r1
 8000608:	4770      	bx	lr
 800060a:	46c0      	nop			@ (mov r8, r8)
 800060c:	02020304 	.word	0x02020304
 8000610:	01010101 	.word	0x01010101
	...

0800061c <SystemClock_Config>:

LPTIM_HandleTypeDef hlptim1;

//FUNCTIONS
void SystemClock_Config(void)
{
 800061c:	b500      	push	{lr}
 800061e:	b093      	sub	sp, #76	@ 0x4c
  RCC_OscInitTypeDef RCC_OscInitStruct = {0};
 8000620:	2238      	movs	r2, #56	@ 0x38
 8000622:	2100      	movs	r1, #0
 8000624:	a804      	add	r0, sp, #16
 8000626:	f006 fb45 	bl	8006cb4 <memset>
  RCC_ClkInitTypeDef RCC_ClkInitStruct = {0};
 800062a:	2210      	movs	r2, #16
 800062c:	2100      	movs	r1, #0
 800062e:	4668      	mov	r0, sp
 8000630:	f006 fb40 	bl	8006cb4 <memset>

  /** Configure the main internal regulator output voltage
  */
  HAL_PWREx_ControlVoltageScaling(PWR_REGULATOR_VOLTAGE_SCALE1);
 8000634:	2080      	movs	r0, #128	@ 0x80
 8000636:	0080      	lsls	r0, r0, #2
 8000638:	f003 fb2e 	bl	8003c98 <HAL_PWREx_ControlVoltageScaling>

  /** Initializes the RCC Oscillators according to the specified parameters
  * in the RCC_OscInitTypeDef structure.
  */
  RCC_OscInitStruct.OscillatorType = RCC_OSCILLATORTYPE_HSI;
 800063c:	2302      	movs	r3, #2
 800063e:	9304      	str	r3, [sp, #16]
  RCC_OscInitStruct.HSIState = RCC_HSI_ON;
  RCC_OscInitStruct.HSIDiv = RCC_HSI_DIV1;
  RCC_OscInitStruct.HSICalibrationValue = RCC_HSICALIBRATION_DEFAULT;
  RCC_OscInitStruct.PLL.PLLState = RCC_PLL_ON;
 8000640:	930b      	str	r3, [sp, #44]	@ 0x2c
  RCC_OscInitStruct.PLL.PLLSource = RCC_PLLSOURCE_HSI;
 8000642:	930c      	str	r3, [sp, #48]	@ 0x30
  RCC_OscInitStruct.PLL.PLLM = RCC_PLLM_DIV1;
  RCC_OscInitStruct.PLL.PLLN = 8;
 8000644:	3306      	adds	r3, #6
 8000646:	930e      	str	r3, [sp, #56]	@ 0x38
  RCC_OscInitStruct.PLL.PLLP = RCC_PLLP_DIV2;
 8000648:	2380      	movs	r3, #128	@ 0x80
 800064a:	029b      	lsls	r3, r3, #10
 800064c:	930f      	str	r3, [sp, #60]	@ 0x3c
  RCC_OscInitStruct.PLL.PLLQ = RCC_PLLQ_DIV4;
 800064e:	23c0      	movs	r3, #192	@ 0xc0
  RCC_OscInitStruct.HSIState = RCC_HSI_ON;
 8000650:	2280      	movs	r2, #128	@ 0x80
  RCC_OscInitStruct.PLL.PLLQ = RCC_PLLQ_DIV4;
 8000652:	04db      	lsls	r3, r3, #19
  RCC_OscInitStruct.HSIState = RCC_HSI_ON;
 8000654:	0052      	lsls	r2, r2, #1
  RCC_OscInitStruct.PLL.PLLQ = RCC_PLLQ_DIV4;
 8000656:	9310      	str	r3, [sp, #64]	@ 0x40
  RCC_OscInitStruct.PLL.PLLR = RCC_PLLR_DIV2;
 8000658:	2380      	movs	r3, #128	@ 0x80
  RCC_OscInitStruct.HSICalibrationValue = RCC_HSICALIBRATION_DEFAULT;
 800065a:	2140      	movs	r1, #64	@ 0x40
  RCC_OscInitStruct.HSIState = RCC_HSI_ON;
 800065c:	9207      	str	r2, [sp, #28]
  RCC_OscInitStruct.HSIDiv = RCC_HSI_DIV1;
 800065e:	2200      	movs	r2, #0
  RCC_OscInitStruct.PLL.PLLR = RCC_PLLR_DIV2;
 8000660:	059b      	lsls	r3, r3, #22
  if (HAL_RCC_OscConfig(&RCC_OscInitStruct) != HAL_OK)
 8000662:	a804      	add	r0, sp, #16
  RCC_OscInitStruct.HSIDiv = RCC_HSI_DIV1;
 8000664:	9208      	str	r2, [sp, #32]
  RCC_OscInitStruct.HSICalibrationValue = RCC_HSICALIBRATION_DEFAULT;
 8000666:	9109      	str	r1, [sp, #36]	@ 0x24
  RCC_OscInitStruct.PLL.PLLM = RCC_PLLM_DIV1;
 8000668:	920d      	str	r2, [sp, #52]	@ 0x34
  RCC_OscInitStruct.PLL.PLLR = RCC_PLLR_DIV2;
 800066a:	9311      	str	r3, [sp, #68]	@ 0x44
  if (HAL_RCC_OscConfig(&RCC_OscInitStruct) != HAL_OK)
 800066c:	f003 fb44 	bl	8003cf8 <HAL_RCC_OscConfig>
 8000670:	2800      	cmp	r0, #0
 8000672:	d001      	beq.n	8000678 <SystemClock_Config+0x5c>
  \details Disables IRQ interrupts by setting the I-bit in the CPSR.
           Can only be executed in Privileged modes.
 */
__STATIC_FORCEINLINE void __disable_irq(void)
{
  __ASM volatile ("cpsid i" : : : "memory");
 8000674:	b672      	cpsid	i

void Error_Handler(void)
{
  /* User can add his own implementation to report the HAL error return state */
  __disable_irq();
  while (1)
 8000676:	e7fe      	b.n	8000676 <SystemClock_Config+0x5a>
  RCC_ClkInitStruct.ClockType = RCC_CLOCKTYPE_HCLK|RCC_CLOCKTYPE_SYSCLK
 8000678:	2207      	movs	r2, #7
 800067a:	2302      	movs	r3, #2
 800067c:	9200      	str	r2, [sp, #0]
 800067e:	9301      	str	r3, [sp, #4]
 8000680:	2200      	movs	r2, #0
 8000682:	2300      	movs	r3, #0
  if (HAL_RCC_ClockConfig(&RCC_ClkInitStruct, FLASH_LATENCY_2) != HAL_OK)
 8000684:	2102      	movs	r1, #2
 8000686:	4668      	mov	r0, sp
  RCC_ClkInitStruct.ClockType = RCC_CLOCKTYPE_HCLK|RCC_CLOCKTYPE_SYSCLK
 8000688:	9202      	str	r2, [sp, #8]
 800068a:	9303      	str	r3, [sp, #12]
  if (HAL_RCC_ClockConfig(&RCC_ClkInitStruct, FLASH_LATENCY_2) != HAL_OK)
 800068c:	f003 fdea 	bl	8004264 <HAL_RCC_ClockConfig>
 8000690:	2800      	cmp	r0, #0
 8000692:	d001      	beq.n	8000698 <SystemClock_Config+0x7c>
 8000694:	b672      	cpsid	i
  while (1)
 8000696:	e7fe      	b.n	8000696 <SystemClock_Config+0x7a>
}
 8000698:	b013      	add	sp, #76	@ 0x4c
 800069a:	bd00      	pop	{pc}

0800069c <MX_ADC1_Init>:
{
 800069c:	b570      	push	{r4, r5, r6, lr}
 800069e:	b084      	sub	sp, #16
  ADC_ChannelConfTypeDef sConfig = {0};
 80006a0:	220c      	movs	r2, #12
 80006a2:	2100      	movs	r1, #0
 80006a4:	a801      	add	r0, sp, #4
 80006a6:	f006 fb05 	bl	8006cb4 <memset>
  hadc1.Instance = ADC1;
 80006aa:	4c2c      	ldr	r4, [pc, #176]	@ (800075c <MX_ADC1_Init+0xc0>)
 80006ac:	4b2c      	ldr	r3, [pc, #176]	@ (8000760 <MX_ADC1_Init+0xc4>)
  hadc1.Init.ScanConvMode = ADC_SCAN_ENABLE;
 80006ae:	2280      	movs	r2, #128	@ 0x80
  hadc1.Instance = ADC1;
 80006b0:	6023      	str	r3, [r4, #0]
  hadc1.Init.ClockPrescaler = ADC_CLOCK_SYNC_PCLK_DIV2;
 80006b2:	2380      	movs	r3, #128	@ 0x80
  hadc1.Init.ScanConvMode = ADC_SCAN_ENABLE;
 80006b4:	0392      	lsls	r2, r2, #14
  hadc1.Init.DiscontinuousConvMode = DISABLE;
 80006b6:	2120      	movs	r1, #32
  hadc1.Init.ScanConvMode = ADC_SCAN_ENABLE;
 80006b8:	6122      	str	r2, [r4, #16]
  hadc1.Init.LowPowerAutoWait = DISABLE;
 80006ba:	2200      	movs	r2, #0
  hadc1.Init.ClockPrescaler = ADC_CLOCK_SYNC_PCLK_DIV2;
 80006bc:	05db      	lsls	r3, r3, #23
  hadc1.Init.EOCSelection = ADC_EOC_SEQ_CONV;
 80006be:	2508      	movs	r5, #8
  hadc1.Init.NbrOfConversion = 4;
 80006c0:	2604      	movs	r6, #4
  hadc1.Init.ClockPrescaler = ADC_CLOCK_SYNC_PCLK_DIV2;
 80006c2:	6063      	str	r3, [r4, #4]
  hadc1.Init.Resolution = ADC_RESOLUTION_12B;
 80006c4:	2300      	movs	r3, #0
  hadc1.Init.DiscontinuousConvMode = DISABLE;
 80006c6:	5462      	strb	r2, [r4, r1]
  hadc1.Init.DMAContinuousRequests = DISABLE;
 80006c8:	310c      	adds	r1, #12
 80006ca:	5462      	strb	r2, [r4, r1]
  if (HAL_ADC_Init(&hadc1) != HAL_OK)
 80006cc:	0020      	movs	r0, r4
  hadc1.Init.OversamplingMode = DISABLE;
 80006ce:	3110      	adds	r1, #16
  hadc1.Init.Resolution = ADC_RESOLUTION_12B;
 80006d0:	60a3      	str	r3, [r4, #8]
  hadc1.Init.DataAlign = ADC_DATAALIGN_RIGHT;
 80006d2:	60e3      	str	r3, [r4, #12]
  hadc1.Init.EOCSelection = ADC_EOC_SEQ_CONV;
 80006d4:	6165      	str	r5, [r4, #20]
  hadc1.Init.LowPowerAutoWait = DISABLE;
 80006d6:	8323      	strh	r3, [r4, #24]
  hadc1.Init.ContinuousConvMode = DISABLE;
 80006d8:	76a2      	strb	r2, [r4, #26]
  hadc1.Init.NbrOfConversion = 4;
 80006da:	61e6      	str	r6, [r4, #28]
  hadc1.Init.ExternalTrigConv = ADC_SOFTWARE_START;
 80006dc:	6263      	str	r3, [r4, #36]	@ 0x24
  hadc1.Init.ExternalTrigConvEdge = ADC_EXTERNALTRIGCONVEDGE_NONE;
 80006de:	62a3      	str	r3, [r4, #40]	@ 0x28
  hadc1.Init.Overrun = ADC_OVR_DATA_PRESERVED;
 80006e0:	6323      	str	r3, [r4, #48]	@ 0x30
  hadc1.Init.SamplingTimeCommon1 = ADC_SAMPLETIME_1CYCLE_5;
 80006e2:	6363      	str	r3, [r4, #52]	@ 0x34
  hadc1.Init.SamplingTimeCommon2 = ADC_SAMPLETIME_1CYCLE_5;
 80006e4:	63a3      	str	r3, [r4, #56]	@ 0x38
  hadc1.Init.OversamplingMode = DISABLE;
 80006e6:	5462      	strb	r2, [r4, r1]
  hadc1.Init.TriggerFrequencyMode = ADC_TRIGGER_FREQ_HIGH;
 80006e8:	64e3      	str	r3, [r4, #76]	@ 0x4c
  if (HAL_ADC_Init(&hadc1) != HAL_OK)
 80006ea:	f001 ffff 	bl	80026ec <HAL_ADC_Init>
 80006ee:	2800      	cmp	r0, #0
 80006f0:	d001      	beq.n	80006f6 <MX_ADC1_Init+0x5a>
 80006f2:	b672      	cpsid	i
  while (1)
 80006f4:	e7fe      	b.n	80006f4 <MX_ADC1_Init+0x58>
  sConfig.Channel = ADC_CHANNEL_0;
 80006f6:	2301      	movs	r3, #1
  sConfig.Rank = ADC_REGULAR_RANK_1;
 80006f8:	9002      	str	r0, [sp, #8]
  sConfig.SamplingTime = ADC_SAMPLINGTIME_COMMON_1;
 80006fa:	9003      	str	r0, [sp, #12]
  if (HAL_ADC_ConfigChannel(&hadc1, &sConfig) != HAL_OK)
 80006fc:	a901      	add	r1, sp, #4
 80006fe:	0020      	movs	r0, r4
  sConfig.Channel = ADC_CHANNEL_0;
 8000700:	9301      	str	r3, [sp, #4]
  if (HAL_ADC_ConfigChannel(&hadc1, &sConfig) != HAL_OK)
 8000702:	f002 f96d 	bl	80029e0 <HAL_ADC_ConfigChannel>
 8000706:	2800      	cmp	r0, #0
 8000708:	d001      	beq.n	800070e <MX_ADC1_Init+0x72>
 800070a:	b672      	cpsid	i
  while (1)
 800070c:	e7fe      	b.n	800070c <MX_ADC1_Init+0x70>
  sConfig.Channel = ADC_CHANNEL_1;
 800070e:	4b15      	ldr	r3, [pc, #84]	@ (8000764 <MX_ADC1_Init+0xc8>)
  sConfig.SamplingTime = ADC_SAMPLINGTIME_COMMON_1;
 8000710:	9003      	str	r0, [sp, #12]
  if (HAL_ADC_ConfigChannel(&hadc1, &sConfig) != HAL_OK)
 8000712:	a901      	add	r1, sp, #4
 8000714:	0020      	movs	r0, r4
  sConfig.Channel = ADC_CHANNEL_1;
 8000716:	9301      	str	r3, [sp, #4]
  sConfig.Rank = ADC_REGULAR_RANK_2;
 8000718:	9602      	str	r6, [sp, #8]
  if (HAL_ADC_ConfigChannel(&hadc1, &sConfig) != HAL_OK)
 800071a:	f002 f961 	bl	80029e0 <HAL_ADC_ConfigChannel>
 800071e:	2800      	cmp	r0, #0
 8000720:	d001      	beq.n	8000726 <MX_ADC1_Init+0x8a>
 8000722:	b672      	cpsid	i
  while (1)
 8000724:	e7fe      	b.n	8000724 <MX_ADC1_Init+0x88>
  sConfig.Channel = ADC_CHANNEL_4;
 8000726:	4b10      	ldr	r3, [pc, #64]	@ (8000768 <MX_ADC1_Init+0xcc>)
  sConfig.SamplingTime = ADC_SAMPLINGTIME_COMMON_1;
 8000728:	9003      	str	r0, [sp, #12]
  if (HAL_ADC_ConfigChannel(&hadc1, &sConfig) != HAL_OK)
 800072a:	a901      	add	r1, sp, #4
 800072c:	0020      	movs	r0, r4
  sConfig.Channel = ADC_CHANNEL_4;
 800072e:	9301      	str	r3, [sp, #4]
  sConfig.Rank = ADC_REGULAR_RANK_3;
 8000730:	9502      	str	r5, [sp, #8]
  if (HAL_ADC_ConfigChannel(&hadc1, &sConfig) != HAL_OK)
 8000732:	f002 f955 	bl	80029e0 <HAL_ADC_ConfigChannel>
 8000736:	2800      	cmp	r0, #0
 8000738:	d001      	beq.n	800073e <MX_ADC1_Init+0xa2>
 800073a:	b672      	cpsid	i
  while (1)
 800073c:	e7fe      	b.n	800073c <MX_ADC1_Init+0xa0>
  sConfig.Channel = ADC_CHANNEL_5;
 800073e:	4b0b      	ldr	r3, [pc, #44]	@ (800076c <MX_ADC1_Init+0xd0>)
  sConfig.SamplingTime = ADC_SAMPLINGTIME_COMMON_1;
 8000740:	9003      	str	r0, [sp, #12]
  sConfig.Channel = ADC_CHANNEL_5;
 8000742:	9301      	str	r3, [sp, #4]
  sConfig.Rank = ADC_REGULAR_RANK_4;
 8000744:	230c      	movs	r3, #12
  if (HAL_ADC_ConfigChannel(&hadc1, &sConfig) != HAL_OK)
 8000746:	0020      	movs	r0, r4
 8000748:	a901      	add	r1, sp, #4
  sConfig.Rank = ADC_REGULAR_RANK_4;
 800074a:	9302      	str	r3, [sp, #8]
  if (HAL_ADC_ConfigChannel(&hadc1, &sConfig) != HAL_OK)
 800074c:	f002 f948 	bl	80029e0 <HAL_ADC_ConfigChannel>
 8000750:	2800      	cmp	r0, #0
 8000752:	d001      	beq.n	8000758 <MX_ADC1_Init+0xbc>
 8000754:	b672      	cpsid	i
  while (1)
 8000756:	e7fe      	b.n	8000756 <MX_ADC1_Init+0xba>
}
 8000758:	b004      	add	sp, #16
 800075a:	bd70      	pop	{r4, r5, r6, pc}
 800075c:	20000620 	.word	0x20000620
 8000760:	40012400 	.word	0x40012400
 8000764:	04000002 	.word	0x04000002
 8000768:	10000010 	.word	0x10000010
 800076c:	14000020 	.word	0x14000020

08000770 <MX_TIM16_Init>:
{
 8000770:	b530      	push	{r4, r5, lr}
 8000772:	b097      	sub	sp, #92	@ 0x5c
  TIM_OC_InitTypeDef sConfigOC = {0};
 8000774:	221c      	movs	r2, #28
 8000776:	2100      	movs	r1, #0
 8000778:	4668      	mov	r0, sp
 800077a:	f006 fa9b 	bl	8006cb4 <memset>
  TIM_BreakDeadTimeConfigTypeDef sBreakDeadTimeConfig = {0};
 800077e:	2234      	movs	r2, #52	@ 0x34
 8000780:	2100      	movs	r1, #0
 8000782:	a808      	add	r0, sp, #32
 8000784:	f006 fa96 	bl	8006cb4 <memset>
  htim16.Instance = TIM16;
 8000788:	4c27      	ldr	r4, [pc, #156]	@ (8000828 <MX_TIM16_Init+0xb8>)
 800078a:	4b28      	ldr	r3, [pc, #160]	@ (800082c <MX_TIM16_Init+0xbc>)
  htim16.Init.ClockDivision = TIM_CLOCKDIVISION_DIV4;
 800078c:	2280      	movs	r2, #128	@ 0x80
  htim16.Instance = TIM16;
 800078e:	6023      	str	r3, [r4, #0]
  htim16.Init.Prescaler = 0;
 8000790:	2300      	movs	r3, #0
  htim16.Init.Period = 255;
 8000792:	25ff      	movs	r5, #255	@ 0xff
  htim16.Init.Prescaler = 0;
 8000794:	6063      	str	r3, [r4, #4]
  htim16.Init.CounterMode = TIM_COUNTERMODE_UP;
 8000796:	60a3      	str	r3, [r4, #8]
  htim16.Init.ClockDivision = TIM_CLOCKDIVISION_DIV4;
 8000798:	0092      	lsls	r2, r2, #2
  htim16.Init.RepetitionCounter = 0;
 800079a:	6163      	str	r3, [r4, #20]
  if (HAL_TIM_Base_Init(&htim16) != HAL_OK)
 800079c:	0020      	movs	r0, r4
  htim16.Init.AutoReloadPreload = TIM_AUTORELOAD_PRELOAD_ENABLE;
 800079e:	3380      	adds	r3, #128	@ 0x80
  htim16.Init.Period = 255;
 80007a0:	60e5      	str	r5, [r4, #12]
  htim16.Init.ClockDivision = TIM_CLOCKDIVISION_DIV4;
 80007a2:	6122      	str	r2, [r4, #16]
  htim16.Init.AutoReloadPreload = TIM_AUTORELOAD_PRELOAD_ENABLE;
 80007a4:	61a3      	str	r3, [r4, #24]
  if (HAL_TIM_Base_Init(&htim16) != HAL_OK)
 80007a6:	f003 ff4b 	bl	8004640 <HAL_TIM_Base_Init>
 80007aa:	2800      	cmp	r0, #0
 80007ac:	d001      	beq.n	80007b2 <MX_TIM16_Init+0x42>
 80007ae:	b672      	cpsid	i
  while (1)
 80007b0:	e7fe      	b.n	80007b0 <MX_TIM16_Init+0x40>
  if (HAL_TIM_OC_Init(&htim16) != HAL_OK)
 80007b2:	0020      	movs	r0, r4
 80007b4:	f004 f86c 	bl	8004890 <HAL_TIM_OC_Init>
 80007b8:	2800      	cmp	r0, #0
 80007ba:	d001      	beq.n	80007c0 <MX_TIM16_Init+0x50>
 80007bc:	b672      	cpsid	i
  while (1)
 80007be:	e7fe      	b.n	80007be <MX_TIM16_Init+0x4e>
  sConfigOC.OCFastMode = TIM_OCFAST_DISABLE;
 80007c0:	2200      	movs	r2, #0
 80007c2:	2300      	movs	r3, #0
  sConfigOC.OCMode = TIM_OCMODE_TIMING;
 80007c4:	9000      	str	r0, [sp, #0]
  sConfigOC.OCPolarity = TIM_OCPOLARITY_HIGH;
 80007c6:	9002      	str	r0, [sp, #8]
  sConfigOC.OCNPolarity = TIM_OCNPOLARITY_HIGH;
 80007c8:	9003      	str	r0, [sp, #12]
  sConfigOC.OCNIdleState = TIM_OCNIDLESTATE_RESET;
 80007ca:	9006      	str	r0, [sp, #24]
  if (HAL_TIM_OC_ConfigChannel(&htim16, &sConfigOC, TIM_CHANNEL_1) != HAL_OK)
 80007cc:	4669      	mov	r1, sp
 80007ce:	0020      	movs	r0, r4
  sConfigOC.OCFastMode = TIM_OCFAST_DISABLE;
 80007d0:	9204      	str	r2, [sp, #16]
 80007d2:	9305      	str	r3, [sp, #20]
  sConfigOC.Pulse = 255;
 80007d4:	9501      	str	r5, [sp, #4]
  if (HAL_TIM_OC_ConfigChannel(&htim16, &sConfigOC, TIM_CHANNEL_1) != HAL_OK)
 80007d6:	f004 fdab 	bl	8005330 <HAL_TIM_OC_ConfigChannel>
 80007da:	2800      	cmp	r0, #0
 80007dc:	d001      	beq.n	80007e2 <MX_TIM16_Init+0x72>
 80007de:	b672      	cpsid	i
  while (1)
 80007e0:	e7fe      	b.n	80007e0 <MX_TIM16_Init+0x70>
  __HAL_TIM_ENABLE_OCxPRELOAD(&htim16, TIM_CHANNEL_1);
 80007e2:	2108      	movs	r1, #8
 80007e4:	6822      	ldr	r2, [r4, #0]
  sBreakDeadTimeConfig.OffStateRunMode = TIM_OSSR_DISABLE;
 80007e6:	9008      	str	r0, [sp, #32]
  __HAL_TIM_ENABLE_OCxPRELOAD(&htim16, TIM_CHANNEL_1);
 80007e8:	6993      	ldr	r3, [r2, #24]
  sBreakDeadTimeConfig.OffStateIDLEMode = TIM_OSSI_DISABLE;
 80007ea:	9009      	str	r0, [sp, #36]	@ 0x24
  __HAL_TIM_ENABLE_OCxPRELOAD(&htim16, TIM_CHANNEL_1);
 80007ec:	430b      	orrs	r3, r1
 80007ee:	6193      	str	r3, [r2, #24]
  sBreakDeadTimeConfig.BreakState = TIM_BREAK_DISABLE;
 80007f0:	2380      	movs	r3, #128	@ 0x80
 80007f2:	2200      	movs	r2, #0
  sBreakDeadTimeConfig.LockLevel = TIM_LOCKLEVEL_OFF;
 80007f4:	900a      	str	r0, [sp, #40]	@ 0x28
  sBreakDeadTimeConfig.DeadTime = 0;
 80007f6:	900b      	str	r0, [sp, #44]	@ 0x2c
  sBreakDeadTimeConfig.BreakState = TIM_BREAK_DISABLE;
 80007f8:	019b      	lsls	r3, r3, #6
  sBreakDeadTimeConfig.BreakFilter = 0;
 80007fa:	900e      	str	r0, [sp, #56]	@ 0x38
  sBreakDeadTimeConfig.AutomaticOutput = TIM_AUTOMATICOUTPUT_DISABLE;
 80007fc:	9014      	str	r0, [sp, #80]	@ 0x50
  if (HAL_TIMEx_ConfigBreakDeadTime(&htim16, &sBreakDeadTimeConfig) != HAL_OK)
 80007fe:	a908      	add	r1, sp, #32
 8000800:	0020      	movs	r0, r4
  sBreakDeadTimeConfig.BreakState = TIM_BREAK_DISABLE;
 8000802:	920c      	str	r2, [sp, #48]	@ 0x30
 8000804:	930d      	str	r3, [sp, #52]	@ 0x34
  if (HAL_TIMEx_ConfigBreakDeadTime(&htim16, &sBreakDeadTimeConfig) != HAL_OK)
 8000806:	f005 faf1 	bl	8005dec <HAL_TIMEx_ConfigBreakDeadTime>
 800080a:	2800      	cmp	r0, #0
 800080c:	d001      	beq.n	8000812 <MX_TIM16_Init+0xa2>
 800080e:	b672      	cpsid	i
  while (1)
 8000810:	e7fe      	b.n	8000810 <MX_TIM16_Init+0xa0>
  HAL_NVIC_SetPriority(TIM16_IRQn, 0, 0);
 8000812:	2200      	movs	r2, #0
 8000814:	2100      	movs	r1, #0
 8000816:	2015      	movs	r0, #21
 8000818:	f002 fc7c 	bl	8003114 <HAL_NVIC_SetPriority>
  HAL_NVIC_EnableIRQ(TIM16_IRQn);
 800081c:	2015      	movs	r0, #21
 800081e:	f002 fca3 	bl	8003168 <HAL_NVIC_EnableIRQ>
}
 8000822:	b017      	add	sp, #92	@ 0x5c
 8000824:	bd30      	pop	{r4, r5, pc}
 8000826:	46c0      	nop			@ (mov r8, r8)
 8000828:	20000508 	.word	0x20000508
 800082c:	40014400 	.word	0x40014400

08000830 <MX_TIM2_Init>:
{
 8000830:	b510      	push	{r4, lr}
 8000832:	b08c      	sub	sp, #48	@ 0x30
  TIM_ClockConfigTypeDef sClockSourceConfig = {0};
 8000834:	2210      	movs	r2, #16
 8000836:	2100      	movs	r1, #0
 8000838:	a808      	add	r0, sp, #32
 800083a:	f006 fa3b 	bl	8006cb4 <memset>
  TIM_MasterConfigTypeDef sMasterConfig = {0};
 800083e:	220c      	movs	r2, #12
 8000840:	2100      	movs	r1, #0
 8000842:	a801      	add	r0, sp, #4
 8000844:	f006 fa36 	bl	8006cb4 <memset>
  TIM_IC_InitTypeDef sConfigIC = {0};
 8000848:	2210      	movs	r2, #16
 800084a:	2100      	movs	r1, #0
 800084c:	a804      	add	r0, sp, #16
 800084e:	f006 fa31 	bl	8006cb4 <memset>
  htim2.Instance = TIM2;
 8000852:	2380      	movs	r3, #128	@ 0x80
 8000854:	4c22      	ldr	r4, [pc, #136]	@ (80008e0 <MX_TIM2_Init+0xb0>)
 8000856:	05db      	lsls	r3, r3, #23
 8000858:	6023      	str	r3, [r4, #0]
  htim2.Init.Prescaler = 64 - 1;
 800085a:	233f      	movs	r3, #63	@ 0x3f
 800085c:	6063      	str	r3, [r4, #4]
  htim2.Init.CounterMode = TIM_COUNTERMODE_UP;
 800085e:	2300      	movs	r3, #0
 8000860:	60a3      	str	r3, [r4, #8]
  htim2.Init.Period = 2097152 - 1;
 8000862:	4b20      	ldr	r3, [pc, #128]	@ (80008e4 <MX_TIM2_Init+0xb4>)
  if (HAL_TIM_Base_Init(&htim2) != HAL_OK)
 8000864:	0020      	movs	r0, r4
  htim2.Init.Period = 2097152 - 1;
 8000866:	60e3      	str	r3, [r4, #12]
  htim2.Init.ClockDivision = TIM_CLOCKDIVISION_DIV4;
 8000868:	2380      	movs	r3, #128	@ 0x80
 800086a:	009b      	lsls	r3, r3, #2
 800086c:	6123      	str	r3, [r4, #16]
  htim2.Init.AutoReloadPreload = TIM_AUTORELOAD_PRELOAD_ENABLE;
 800086e:	3b81      	subs	r3, #129	@ 0x81
 8000870:	3bff      	subs	r3, #255	@ 0xff
 8000872:	61a3      	str	r3, [r4, #24]
  if (HAL_TIM_Base_Init(&htim2) != HAL_OK)
 8000874:	f003 fee4 	bl	8004640 <HAL_TIM_Base_Init>
 8000878:	2800      	cmp	r0, #0
 800087a:	d001      	beq.n	8000880 <MX_TIM2_Init+0x50>
 800087c:	b672      	cpsid	i
  while (1)
 800087e:	e7fe      	b.n	800087e <MX_TIM2_Init+0x4e>
  sClockSourceConfig.ClockSource = TIM_CLOCKSOURCE_INTERNAL;
 8000880:	2380      	movs	r3, #128	@ 0x80
  if (HAL_TIM_ConfigClockSource(&htim2, &sClockSourceConfig) != HAL_OK)
 8000882:	0020      	movs	r0, r4
  sClockSourceConfig.ClockSource = TIM_CLOCKSOURCE_INTERNAL;
 8000884:	015b      	lsls	r3, r3, #5
  if (HAL_TIM_ConfigClockSource(&htim2, &sClockSourceConfig) != HAL_OK)
 8000886:	a908      	add	r1, sp, #32
  sClockSourceConfig.ClockSource = TIM_CLOCKSOURCE_INTERNAL;
 8000888:	9308      	str	r3, [sp, #32]
  if (HAL_TIM_ConfigClockSource(&htim2, &sClockSourceConfig) != HAL_OK)
 800088a:	f005 f925 	bl	8005ad8 <HAL_TIM_ConfigClockSource>
 800088e:	2800      	cmp	r0, #0
 8000890:	d001      	beq.n	8000896 <MX_TIM2_Init+0x66>
 8000892:	b672      	cpsid	i
  while (1)
 8000894:	e7fe      	b.n	8000894 <MX_TIM2_Init+0x64>
  if (HAL_TIM_IC_Init(&htim2) != HAL_OK)
 8000896:	0020      	movs	r0, r4
 8000898:	f004 faf4 	bl	8004e84 <HAL_TIM_IC_Init>
 800089c:	2800      	cmp	r0, #0
 800089e:	d001      	beq.n	80008a4 <MX_TIM2_Init+0x74>
 80008a0:	b672      	cpsid	i
  while (1)
 80008a2:	e7fe      	b.n	80008a2 <MX_TIM2_Init+0x72>
  sMasterConfig.MasterOutputTrigger = TIM_TRGO_RESET;
 80008a4:	9001      	str	r0, [sp, #4]
  sMasterConfig.MasterSlaveMode = TIM_MASTERSLAVEMODE_DISABLE;
 80008a6:	9003      	str	r0, [sp, #12]
  if (HAL_TIMEx_MasterConfigSynchronization(&htim2, &sMasterConfig) != HAL_OK)
 80008a8:	a901      	add	r1, sp, #4
 80008aa:	0020      	movs	r0, r4
 80008ac:	f005 fa66 	bl	8005d7c <HAL_TIMEx_MasterConfigSynchronization>
 80008b0:	2800      	cmp	r0, #0
 80008b2:	d001      	beq.n	80008b8 <MX_TIM2_Init+0x88>
 80008b4:	b672      	cpsid	i
  while (1)
 80008b6:	e7fe      	b.n	80008b6 <MX_TIM2_Init+0x86>
  sConfigIC.ICPolarity = TIM_INPUTCHANNELPOLARITY_FALLING;
 80008b8:	2202      	movs	r2, #2
 80008ba:	2301      	movs	r3, #1
 80008bc:	9204      	str	r2, [sp, #16]
 80008be:	9305      	str	r3, [sp, #20]
 80008c0:	2200      	movs	r2, #0
 80008c2:	230f      	movs	r3, #15
  if (HAL_TIM_IC_ConfigChannel(&htim2, &sConfigIC, TIM_CHANNEL_1) != HAL_OK)
 80008c4:	0020      	movs	r0, r4
  sConfigIC.ICPolarity = TIM_INPUTCHANNELPOLARITY_FALLING;
 80008c6:	9206      	str	r2, [sp, #24]
 80008c8:	9307      	str	r3, [sp, #28]
  if (HAL_TIM_IC_ConfigChannel(&htim2, &sConfigIC, TIM_CHANNEL_1) != HAL_OK)
 80008ca:	a904      	add	r1, sp, #16
 80008cc:	2200      	movs	r2, #0
 80008ce:	f004 fe81 	bl	80055d4 <HAL_TIM_IC_ConfigChannel>
 80008d2:	2800      	cmp	r0, #0
 80008d4:	d001      	beq.n	80008da <MX_TIM2_Init+0xaa>
 80008d6:	b672      	cpsid	i
  while (1)
 80008d8:	e7fe      	b.n	80008d8 <MX_TIM2_Init+0xa8>
}
 80008da:	b00c      	add	sp, #48	@ 0x30
 80008dc:	bd10      	pop	{r4, pc}
 80008de:	46c0      	nop			@ (mov r8, r8)
 80008e0:	2000044c 	.word	0x2000044c
 80008e4:	001fffff 	.word	0x001fffff

080008e8 <MX_TIM3_Init>:
{
 80008e8:	b510      	push	{r4, lr}
 80008ea:	b090      	sub	sp, #64	@ 0x40
  TIM_ClockConfigTypeDef sClockSourceConfig = {0};
 80008ec:	2210      	movs	r2, #16
 80008ee:	2100      	movs	r1, #0
 80008f0:	a804      	add	r0, sp, #16
 80008f2:	f006 f9df 	bl	8006cb4 <memset>
  TIM_MasterConfigTypeDef sMasterConfig = {0};
 80008f6:	220c      	movs	r2, #12
 80008f8:	2100      	movs	r1, #0
 80008fa:	a801      	add	r0, sp, #4
 80008fc:	f006 f9da 	bl	8006cb4 <memset>
  TIM_OC_InitTypeDef sConfigOC = {0};
 8000900:	221c      	movs	r2, #28
 8000902:	2100      	movs	r1, #0
 8000904:	a808      	add	r0, sp, #32
 8000906:	f006 f9d5 	bl	8006cb4 <memset>
  htim3.Instance = TIM3;
 800090a:	4c23      	ldr	r4, [pc, #140]	@ (8000998 <MX_TIM3_Init+0xb0>)
 800090c:	4b23      	ldr	r3, [pc, #140]	@ (800099c <MX_TIM3_Init+0xb4>)
  if (HAL_TIM_Base_Init(&htim3) != HAL_OK)
 800090e:	0020      	movs	r0, r4
  htim3.Instance = TIM3;
 8000910:	6023      	str	r3, [r4, #0]
  htim3.Init.Prescaler = (64 * 512) - 1;
 8000912:	4b23      	ldr	r3, [pc, #140]	@ (80009a0 <MX_TIM3_Init+0xb8>)
 8000914:	6063      	str	r3, [r4, #4]
  htim3.Init.CounterMode = TIM_COUNTERMODE_UP;
 8000916:	2300      	movs	r3, #0
 8000918:	60a3      	str	r3, [r4, #8]
  htim3.Init.Period = 4096 - 1;
 800091a:	4b22      	ldr	r3, [pc, #136]	@ (80009a4 <MX_TIM3_Init+0xbc>)
 800091c:	60e3      	str	r3, [r4, #12]
  htim3.Init.ClockDivision = TIM_CLOCKDIVISION_DIV4;
 800091e:	2380      	movs	r3, #128	@ 0x80
 8000920:	009b      	lsls	r3, r3, #2
 8000922:	6123      	str	r3, [r4, #16]
  htim3.Init.AutoReloadPreload = TIM_AUTORELOAD_PRELOAD_ENABLE;
 8000924:	3b81      	subs	r3, #129	@ 0x81
 8000926:	3bff      	subs	r3, #255	@ 0xff
 8000928:	61a3      	str	r3, [r4, #24]
  if (HAL_TIM_Base_Init(&htim3) != HAL_OK)
 800092a:	f003 fe89 	bl	8004640 <HAL_TIM_Base_Init>
 800092e:	2800      	cmp	r0, #0
 8000930:	d001      	beq.n	8000936 <MX_TIM3_Init+0x4e>
 8000932:	b672      	cpsid	i
  while (1)
 8000934:	e7fe      	b.n	8000934 <MX_TIM3_Init+0x4c>
  sClockSourceConfig.ClockSource = TIM_CLOCKSOURCE_INTERNAL;
 8000936:	2380      	movs	r3, #128	@ 0x80
  if (HAL_TIM_ConfigClockSource(&htim3, &sClockSourceConfig) != HAL_OK)
 8000938:	0020      	movs	r0, r4
  sClockSourceConfig.ClockSource = TIM_CLOCKSOURCE_INTERNAL;
 800093a:	015b      	lsls	r3, r3, #5
  if (HAL_TIM_ConfigClockSource(&htim3, &sClockSourceConfig) != HAL_OK)
 800093c:	a904      	add	r1, sp, #16
  sClockSourceConfig.ClockSource = TIM_CLOCKSOURCE_INTERNAL;
 800093e:	9304      	str	r3, [sp, #16]
  if (HAL_TIM_ConfigClockSource(&htim3, &sClockSourceConfig) != HAL_OK)
 8000940:	f005 f8ca 	bl	8005ad8 <HAL_TIM_ConfigClockSource>
 8000944:	2800      	cmp	r0, #0
 8000946:	d001      	beq.n	800094c <MX_TIM3_Init+0x64>
 8000948:	b672      	cpsid	i
  while (1)
 800094a:	e7fe      	b.n	800094a <MX_TIM3_Init+0x62>
  if (HAL_TIM_OC_Init(&htim3) != HAL_OK)
 800094c:	0020      	movs	r0, r4
 800094e:	f003 ff9f 	bl	8004890 <HAL_TIM_OC_Init>
 8000952:	2800      	cmp	r0, #0
 8000954:	d001      	beq.n	800095a <MX_TIM3_Init+0x72>
 8000956:	b672      	cpsid	i
  while (1)
 8000958:	e7fe      	b.n	8000958 <MX_TIM3_Init+0x70>
  sMasterConfig.MasterOutputTrigger = TIM_TRGO_RESET;
 800095a:	9001      	str	r0, [sp, #4]
  sMasterConfig.MasterSlaveMode = TIM_MASTERSLAVEMODE_DISABLE;
 800095c:	9003      	str	r0, [sp, #12]
  if (HAL_TIMEx_MasterConfigSynchronization(&htim3, &sMasterConfig) != HAL_OK)
 800095e:	a901      	add	r1, sp, #4
 8000960:	0020      	movs	r0, r4
 8000962:	f005 fa0b 	bl	8005d7c <HAL_TIMEx_MasterConfigSynchronization>
 8000966:	2800      	cmp	r0, #0
 8000968:	d001      	beq.n	800096e <MX_TIM3_Init+0x86>
 800096a:	b672      	cpsid	i
  while (1)
 800096c:	e7fe      	b.n	800096c <MX_TIM3_Init+0x84>
  sConfigOC.OCMode = TIM_OCMODE_TIMING;
 800096e:	2200      	movs	r2, #0
 8000970:	2300      	movs	r3, #0
  sConfigOC.OCPolarity = TIM_OCPOLARITY_HIGH;
 8000972:	900a      	str	r0, [sp, #40]	@ 0x28
  sConfigOC.OCFastMode = TIM_OCFAST_DISABLE;
 8000974:	900c      	str	r0, [sp, #48]	@ 0x30
  if (HAL_TIM_OC_ConfigChannel(&htim3, &sConfigOC, TIM_CHANNEL_1) != HAL_OK)
 8000976:	a908      	add	r1, sp, #32
 8000978:	0020      	movs	r0, r4
  sConfigOC.OCMode = TIM_OCMODE_TIMING;
 800097a:	9208      	str	r2, [sp, #32]
 800097c:	9309      	str	r3, [sp, #36]	@ 0x24
  if (HAL_TIM_OC_ConfigChannel(&htim3, &sConfigOC, TIM_CHANNEL_1) != HAL_OK)
 800097e:	f004 fcd7 	bl	8005330 <HAL_TIM_OC_ConfigChannel>
 8000982:	2800      	cmp	r0, #0
 8000984:	d001      	beq.n	800098a <MX_TIM3_Init+0xa2>
 8000986:	b672      	cpsid	i
  while (1)
 8000988:	e7fe      	b.n	8000988 <MX_TIM3_Init+0xa0>
  __HAL_TIM_DISABLE_OCxPRELOAD(&htim3, TIM_CHANNEL_1);
 800098a:	2108      	movs	r1, #8
 800098c:	6822      	ldr	r2, [r4, #0]
 800098e:	6993      	ldr	r3, [r2, #24]
 8000990:	438b      	bics	r3, r1
 8000992:	6193      	str	r3, [r2, #24]
}
 8000994:	b010      	add	sp, #64	@ 0x40
 8000996:	bd10      	pop	{r4, pc}
 8000998:	20000390 	.word	0x20000390
 800099c:	40000400 	.word	0x40000400
 80009a0:	00007fff 	.word	0x00007fff
 80009a4:	00000fff 	.word	0x00000fff

080009a8 <MX_TIM1_Init>:
{
 80009a8:	b5d0      	push	{r4, r6, r7, lr}
 80009aa:	b09c      	sub	sp, #112	@ 0x70
  TIM_ClockConfigTypeDef sClockSourceConfig = {0};
 80009ac:	2210      	movs	r2, #16
 80009ae:	2100      	movs	r1, #0
 80009b0:	a804      	add	r0, sp, #16
 80009b2:	f006 f97f 	bl	8006cb4 <memset>
  TIM_MasterConfigTypeDef sMasterConfig = {0};
 80009b6:	220c      	movs	r2, #12
 80009b8:	2100      	movs	r1, #0
 80009ba:	4668      	mov	r0, sp
 80009bc:	f006 f97a 	bl	8006cb4 <memset>
  TIM_OC_InitTypeDef sConfigOC = {0};
 80009c0:	221c      	movs	r2, #28
 80009c2:	2100      	movs	r1, #0
 80009c4:	a808      	add	r0, sp, #32
 80009c6:	f006 f975 	bl	8006cb4 <memset>
  TIM_BreakDeadTimeConfigTypeDef sBreakDeadTimeConfig = {0};
 80009ca:	2234      	movs	r2, #52	@ 0x34
 80009cc:	2100      	movs	r1, #0
 80009ce:	a80f      	add	r0, sp, #60	@ 0x3c
 80009d0:	f006 f970 	bl	8006cb4 <memset>
  htim1.Instance = TIM1;
 80009d4:	4c36      	ldr	r4, [pc, #216]	@ (8000ab0 <MX_TIM1_Init+0x108>)
 80009d6:	4b37      	ldr	r3, [pc, #220]	@ (8000ab4 <MX_TIM1_Init+0x10c>)
  htim1.Init.Period = 1024 - 1;
 80009d8:	4a37      	ldr	r2, [pc, #220]	@ (8000ab8 <MX_TIM1_Init+0x110>)
  htim1.Instance = TIM1;
 80009da:	6023      	str	r3, [r4, #0]
  htim1.Init.Period = 1024 - 1;
 80009dc:	60e2      	str	r2, [r4, #12]
  htim1.Init.Prescaler = 0;
 80009de:	2300      	movs	r3, #0
  htim1.Init.ClockDivision = TIM_CLOCKDIVISION_DIV2;
 80009e0:	2280      	movs	r2, #128	@ 0x80
  htim1.Init.Prescaler = 0;
 80009e2:	6063      	str	r3, [r4, #4]
  htim1.Init.CounterMode = TIM_COUNTERMODE_UP;
 80009e4:	60a3      	str	r3, [r4, #8]
  htim1.Init.ClockDivision = TIM_CLOCKDIVISION_DIV2;
 80009e6:	0052      	lsls	r2, r2, #1
  htim1.Init.RepetitionCounter = 0;
 80009e8:	6163      	str	r3, [r4, #20]
  if (HAL_TIM_Base_Init(&htim1) != HAL_OK)
 80009ea:	0020      	movs	r0, r4
  htim1.Init.AutoReloadPreload = TIM_AUTORELOAD_PRELOAD_ENABLE;
 80009ec:	3380      	adds	r3, #128	@ 0x80
  htim1.Init.ClockDivision = TIM_CLOCKDIVISION_DIV2;
 80009ee:	6122      	str	r2, [r4, #16]
  htim1.Init.AutoReloadPreload = TIM_AUTORELOAD_PRELOAD_ENABLE;
 80009f0:	61a3      	str	r3, [r4, #24]
  if (HAL_TIM_Base_Init(&htim1) != HAL_OK)
 80009f2:	f003 fe25 	bl	8004640 <HAL_TIM_Base_Init>
 80009f6:	2800      	cmp	r0, #0
 80009f8:	d001      	beq.n	80009fe <MX_TIM1_Init+0x56>
 80009fa:	b672      	cpsid	i
  while (1)
 80009fc:	e7fe      	b.n	80009fc <MX_TIM1_Init+0x54>
  sClockSourceConfig.ClockSource = TIM_CLOCKSOURCE_INTERNAL;
 80009fe:	2380      	movs	r3, #128	@ 0x80
  if (HAL_TIM_ConfigClockSource(&htim1, &sClockSourceConfig) != HAL_OK)
 8000a00:	0020      	movs	r0, r4
  sClockSourceConfig.ClockSource = TIM_CLOCKSOURCE_INTERNAL;
 8000a02:	015b      	lsls	r3, r3, #5
  if (HAL_TIM_ConfigClockSource(&htim1, &sClockSourceConfig) != HAL_OK)
 8000a04:	a904      	add	r1, sp, #16
  sClockSourceConfig.ClockSource = TIM_CLOCKSOURCE_INTERNAL;
 8000a06:	9304      	str	r3, [sp, #16]
  if (HAL_TIM_ConfigClockSource(&htim1, &sClockSourceConfig) != HAL_OK)
 8000a08:	f005 f866 	bl	8005ad8 <HAL_TIM_ConfigClockSource>
 8000a0c:	2800      	cmp	r0, #0
 8000a0e:	d001      	beq.n	8000a14 <MX_TIM1_Init+0x6c>
 8000a10:	b672      	cpsid	i
  while (1)
 8000a12:	e7fe      	b.n	8000a12 <MX_TIM1_Init+0x6a>
  if (HAL_TIM_PWM_Init(&htim1) != HAL_OK)
 8000a14:	0020      	movs	r0, r4
 8000a16:	f004 f905 	bl	8004c24 <HAL_TIM_PWM_Init>
 8000a1a:	2800      	cmp	r0, #0
 8000a1c:	d001      	beq.n	8000a22 <MX_TIM1_Init+0x7a>
 8000a1e:	b672      	cpsid	i
  while (1)
 8000a20:	e7fe      	b.n	8000a20 <MX_TIM1_Init+0x78>
  sMasterConfig.MasterOutputTrigger = TIM_TRGO_RESET;
 8000a22:	2600      	movs	r6, #0
 8000a24:	2700      	movs	r7, #0
  sMasterConfig.MasterSlaveMode = TIM_MASTERSLAVEMODE_DISABLE;
 8000a26:	9002      	str	r0, [sp, #8]
  if (HAL_TIMEx_MasterConfigSynchronization(&htim1, &sMasterConfig) != HAL_OK)
 8000a28:	4669      	mov	r1, sp
 8000a2a:	0020      	movs	r0, r4
  sMasterConfig.MasterOutputTrigger = TIM_TRGO_RESET;
 8000a2c:	9600      	str	r6, [sp, #0]
 8000a2e:	9701      	str	r7, [sp, #4]
  if (HAL_TIMEx_MasterConfigSynchronization(&htim1, &sMasterConfig) != HAL_OK)
 8000a30:	f005 f9a4 	bl	8005d7c <HAL_TIMEx_MasterConfigSynchronization>
 8000a34:	2800      	cmp	r0, #0
 8000a36:	d001      	beq.n	8000a3c <MX_TIM1_Init+0x94>
 8000a38:	b672      	cpsid	i
  while (1)
 8000a3a:	e7fe      	b.n	8000a3a <MX_TIM1_Init+0x92>
  sConfigOC.OCMode = TIM_OCMODE_PWM1;
 8000a3c:	2360      	movs	r3, #96	@ 0x60
 8000a3e:	9308      	str	r3, [sp, #32]
  sConfigOC.Pulse = INITIAL_PWM_VALUE;
 8000a40:	33a1      	adds	r3, #161	@ 0xa1
 8000a42:	33ff      	adds	r3, #255	@ 0xff
  sConfigOC.OCPolarity = TIM_OCPOLARITY_HIGH;
 8000a44:	900a      	str	r0, [sp, #40]	@ 0x28
  sConfigOC.OCNPolarity = TIM_OCNPOLARITY_HIGH;
 8000a46:	900b      	str	r0, [sp, #44]	@ 0x2c
  sConfigOC.OCNIdleState = TIM_OCNIDLESTATE_RESET;
 8000a48:	900e      	str	r0, [sp, #56]	@ 0x38
  if (HAL_TIM_PWM_ConfigChannel(&htim1, &sConfigOC, TIM_CHANNEL_2) != HAL_OK)
 8000a4a:	2204      	movs	r2, #4
 8000a4c:	0020      	movs	r0, r4
 8000a4e:	a908      	add	r1, sp, #32
  sConfigOC.OCFastMode = TIM_OCFAST_DISABLE;
 8000a50:	960c      	str	r6, [sp, #48]	@ 0x30
 8000a52:	970d      	str	r7, [sp, #52]	@ 0x34
  sConfigOC.Pulse = INITIAL_PWM_VALUE;
 8000a54:	9309      	str	r3, [sp, #36]	@ 0x24
  if (HAL_TIM_PWM_ConfigChannel(&htim1, &sConfigOC, TIM_CHANNEL_2) != HAL_OK)
 8000a56:	f004 fe9b 	bl	8005790 <HAL_TIM_PWM_ConfigChannel>
 8000a5a:	2800      	cmp	r0, #0
 8000a5c:	d001      	beq.n	8000a62 <MX_TIM1_Init+0xba>
 8000a5e:	b672      	cpsid	i
  while (1)
 8000a60:	e7fe      	b.n	8000a60 <MX_TIM1_Init+0xb8>
  if (HAL_TIM_PWM_ConfigChannel(&htim1, &sConfigOC, TIM_CHANNEL_4) != HAL_OK)
 8000a62:	220c      	movs	r2, #12
 8000a64:	0020      	movs	r0, r4
 8000a66:	a908      	add	r1, sp, #32
 8000a68:	f004 fe92 	bl	8005790 <HAL_TIM_PWM_ConfigChannel>
 8000a6c:	2800      	cmp	r0, #0
 8000a6e:	d001      	beq.n	8000a74 <MX_TIM1_Init+0xcc>
 8000a70:	b672      	cpsid	i
  while (1)
 8000a72:	e7fe      	b.n	8000a72 <MX_TIM1_Init+0xca>
  sBreakDeadTimeConfig.BreakPolarity = TIM_BREAKPOLARITY_HIGH;
 8000a74:	2380      	movs	r3, #128	@ 0x80
 8000a76:	019b      	lsls	r3, r3, #6
 8000a78:	9314      	str	r3, [sp, #80]	@ 0x50
  sBreakDeadTimeConfig.Break2Polarity = TIM_BREAK2POLARITY_HIGH;
 8000a7a:	2380      	movs	r3, #128	@ 0x80
  sBreakDeadTimeConfig.OffStateRunMode = TIM_OSSR_DISABLE;
 8000a7c:	900f      	str	r0, [sp, #60]	@ 0x3c
  sBreakDeadTimeConfig.OffStateIDLEMode = TIM_OSSI_DISABLE;
 8000a7e:	9010      	str	r0, [sp, #64]	@ 0x40
  sBreakDeadTimeConfig.LockLevel = TIM_LOCKLEVEL_OFF;
 8000a80:	9011      	str	r0, [sp, #68]	@ 0x44
  sBreakDeadTimeConfig.DeadTime = 0;
 8000a82:	9012      	str	r0, [sp, #72]	@ 0x48
  sBreakDeadTimeConfig.BreakState = TIM_BREAK_DISABLE;
 8000a84:	9013      	str	r0, [sp, #76]	@ 0x4c
  sBreakDeadTimeConfig.BreakFilter = 0;
 8000a86:	9015      	str	r0, [sp, #84]	@ 0x54
  sBreakDeadTimeConfig.BreakAFMode = TIM_BREAK_AFMODE_INPUT;
 8000a88:	9016      	str	r0, [sp, #88]	@ 0x58
  sBreakDeadTimeConfig.Break2State = TIM_BREAK2_DISABLE;
 8000a8a:	9017      	str	r0, [sp, #92]	@ 0x5c
  sBreakDeadTimeConfig.Break2Polarity = TIM_BREAK2POLARITY_HIGH;
 8000a8c:	049b      	lsls	r3, r3, #18
  sBreakDeadTimeConfig.Break2Filter = 0;
 8000a8e:	9019      	str	r0, [sp, #100]	@ 0x64
  sBreakDeadTimeConfig.Break2AFMode = TIM_BREAK_AFMODE_INPUT;
 8000a90:	901a      	str	r0, [sp, #104]	@ 0x68
  sBreakDeadTimeConfig.AutomaticOutput = TIM_AUTOMATICOUTPUT_DISABLE;
 8000a92:	901b      	str	r0, [sp, #108]	@ 0x6c
  if (HAL_TIMEx_ConfigBreakDeadTime(&htim1, &sBreakDeadTimeConfig) != HAL_OK)
 8000a94:	a90f      	add	r1, sp, #60	@ 0x3c
 8000a96:	0020      	movs	r0, r4
  sBreakDeadTimeConfig.Break2Polarity = TIM_BREAK2POLARITY_HIGH;
 8000a98:	9318      	str	r3, [sp, #96]	@ 0x60
  if (HAL_TIMEx_ConfigBreakDeadTime(&htim1, &sBreakDeadTimeConfig) != HAL_OK)
 8000a9a:	f005 f9a7 	bl	8005dec <HAL_TIMEx_ConfigBreakDeadTime>
 8000a9e:	2800      	cmp	r0, #0
 8000aa0:	d001      	beq.n	8000aa6 <MX_TIM1_Init+0xfe>
 8000aa2:	b672      	cpsid	i
  while (1)
 8000aa4:	e7fe      	b.n	8000aa4 <MX_TIM1_Init+0xfc>
  HAL_TIM_MspPostInit(&htim1);
 8000aa6:	0020      	movs	r0, r4
 8000aa8:	f000 fe74 	bl	8001794 <HAL_TIM_MspPostInit>
}
 8000aac:	b01c      	add	sp, #112	@ 0x70
 8000aae:	bdd0      	pop	{r4, r6, r7, pc}
 8000ab0:	200002d4 	.word	0x200002d4
 8000ab4:	40012c00 	.word	0x40012c00
 8000ab8:	000003ff 	.word	0x000003ff

08000abc <MX_TIM17_Init>:
{
 8000abc:	b530      	push	{r4, r5, lr}
 8000abe:	b097      	sub	sp, #92	@ 0x5c
  TIM_OC_InitTypeDef sConfigOC = {0};
 8000ac0:	221c      	movs	r2, #28
 8000ac2:	2100      	movs	r1, #0
 8000ac4:	4668      	mov	r0, sp
 8000ac6:	f006 f8f5 	bl	8006cb4 <memset>
  TIM_BreakDeadTimeConfigTypeDef sBreakDeadTimeConfig = {0};
 8000aca:	2234      	movs	r2, #52	@ 0x34
 8000acc:	2100      	movs	r1, #0
 8000ace:	a808      	add	r0, sp, #32
 8000ad0:	f006 f8f0 	bl	8006cb4 <memset>
  htim17.Instance = TIM17;
 8000ad4:	4c23      	ldr	r4, [pc, #140]	@ (8000b64 <MX_TIM17_Init+0xa8>)
 8000ad6:	4b24      	ldr	r3, [pc, #144]	@ (8000b68 <MX_TIM17_Init+0xac>)
  htim17.Init.ClockDivision = TIM_CLOCKDIVISION_DIV4;
 8000ad8:	2280      	movs	r2, #128	@ 0x80
  htim17.Instance = TIM17;
 8000ada:	6023      	str	r3, [r4, #0]
  htim17.Init.Prescaler = (512*64)- 1; //Still good for speed pot check
 8000adc:	4b23      	ldr	r3, [pc, #140]	@ (8000b6c <MX_TIM17_Init+0xb0>)
  htim17.Init.Period = SPEED_POT_CHECK_LENGTH - 1;
 8000ade:	2518      	movs	r5, #24
  htim17.Init.Prescaler = (512*64)- 1; //Still good for speed pot check
 8000ae0:	6063      	str	r3, [r4, #4]
  htim17.Init.CounterMode = TIM_COUNTERMODE_UP;
 8000ae2:	2300      	movs	r3, #0
  htim17.Init.ClockDivision = TIM_CLOCKDIVISION_DIV4;
 8000ae4:	0092      	lsls	r2, r2, #2
  htim17.Init.CounterMode = TIM_COUNTERMODE_UP;
 8000ae6:	60a3      	str	r3, [r4, #8]
  htim17.Init.RepetitionCounter = 0;
 8000ae8:	6163      	str	r3, [r4, #20]
  if (HAL_TIM_Base_Init(&htim17) != HAL_OK)
 8000aea:	0020      	movs	r0, r4
  htim17.Init.AutoReloadPreload = TIM_AUTORELOAD_PRELOAD_ENABLE;
 8000aec:	3380      	adds	r3, #128	@ 0x80
  htim17.Init.Period = SPEED_POT_CHECK_LENGTH - 1;
 8000aee:	60e5      	str	r5, [r4, #12]
  htim17.Init.ClockDivision = TIM_CLOCKDIVISION_DIV4;
 8000af0:	6122      	str	r2, [r4, #16]
  htim17.Init.AutoReloadPreload = TIM_AUTORELOAD_PRELOAD_ENABLE;
 8000af2:	61a3      	str	r3, [r4, #24]
  if (HAL_TIM_Base_Init(&htim17) != HAL_OK)
 8000af4:	f003 fda4 	bl	8004640 <HAL_TIM_Base_Init>
 8000af8:	2800      	cmp	r0, #0
 8000afa:	d001      	beq.n	8000b00 <MX_TIM17_Init+0x44>
 8000afc:	b672      	cpsid	i
  while (1)
 8000afe:	e7fe      	b.n	8000afe <MX_TIM17_Init+0x42>
  if (HAL_TIM_OC_Init(&htim17) != HAL_OK)
 8000b00:	0020      	movs	r0, r4
 8000b02:	f003 fec5 	bl	8004890 <HAL_TIM_OC_Init>
 8000b06:	2800      	cmp	r0, #0
 8000b08:	d001      	beq.n	8000b0e <MX_TIM17_Init+0x52>
 8000b0a:	b672      	cpsid	i
  while (1)
 8000b0c:	e7fe      	b.n	8000b0c <MX_TIM17_Init+0x50>
  sConfigOC.OCFastMode = TIM_OCFAST_DISABLE;
 8000b0e:	2200      	movs	r2, #0
 8000b10:	2300      	movs	r3, #0
  sConfigOC.OCMode = TIM_OCMODE_TIMING;
 8000b12:	9000      	str	r0, [sp, #0]
  sConfigOC.OCPolarity = TIM_OCPOLARITY_HIGH;
 8000b14:	9002      	str	r0, [sp, #8]
  sConfigOC.OCNPolarity = TIM_OCNPOLARITY_HIGH;
 8000b16:	9003      	str	r0, [sp, #12]
  sConfigOC.OCNIdleState = TIM_OCNIDLESTATE_RESET;
 8000b18:	9006      	str	r0, [sp, #24]
  if (HAL_TIM_OC_ConfigChannel(&htim17, &sConfigOC, TIM_CHANNEL_1) != HAL_OK)
 8000b1a:	4669      	mov	r1, sp
 8000b1c:	0020      	movs	r0, r4
  sConfigOC.OCFastMode = TIM_OCFAST_DISABLE;
 8000b1e:	9204      	str	r2, [sp, #16]
 8000b20:	9305      	str	r3, [sp, #20]
  sConfigOC.Pulse = SPEED_POT_CHECK_LENGTH - 1;
 8000b22:	9501      	str	r5, [sp, #4]
  if (HAL_TIM_OC_ConfigChannel(&htim17, &sConfigOC, TIM_CHANNEL_1) != HAL_OK)
 8000b24:	f004 fc04 	bl	8005330 <HAL_TIM_OC_ConfigChannel>
 8000b28:	2800      	cmp	r0, #0
 8000b2a:	d001      	beq.n	8000b30 <MX_TIM17_Init+0x74>
 8000b2c:	b672      	cpsid	i
  while (1)
 8000b2e:	e7fe      	b.n	8000b2e <MX_TIM17_Init+0x72>
  __HAL_TIM_ENABLE_OCxPRELOAD(&htim17, TIM_CHANNEL_1);
 8000b30:	2108      	movs	r1, #8
 8000b32:	6822      	ldr	r2, [r4, #0]
  sBreakDeadTimeConfig.OffStateRunMode = TIM_OSSR_DISABLE;
 8000b34:	9008      	str	r0, [sp, #32]
  __HAL_TIM_ENABLE_OCxPRELOAD(&htim17, TIM_CHANNEL_1);
 8000b36:	6993      	ldr	r3, [r2, #24]
  sBreakDeadTimeConfig.OffStateIDLEMode = TIM_OSSI_DISABLE;
 8000b38:	9009      	str	r0, [sp, #36]	@ 0x24
  __HAL_TIM_ENABLE_OCxPRELOAD(&htim17, TIM_CHANNEL_1);
 8000b3a:	430b      	orrs	r3, r1
 8000b3c:	6193      	str	r3, [r2, #24]
  sBreakDeadTimeConfig.BreakState = TIM_BREAK_DISABLE;
 8000b3e:	2380      	movs	r3, #128	@ 0x80
 8000b40:	2200      	movs	r2, #0
  sBreakDeadTimeConfig.LockLevel = TIM_LOCKLEVEL_OFF;
 8000b42:	900a      	str	r0, [sp, #40]	@ 0x28
  sBreakDeadTimeConfig.DeadTime = 0;
 8000b44:	900b      	str	r0, [sp, #44]	@ 0x2c
  sBreakDeadTimeConfig.BreakState = TIM_BREAK_DISABLE;
 8000b46:	019b      	lsls	r3, r3, #6
  sBreakDeadTimeConfig.BreakFilter = 0;
 8000b48:	900e      	str	r0, [sp, #56]	@ 0x38
  sBreakDeadTimeConfig.AutomaticOutput = TIM_AUTOMATICOUTPUT_DISABLE;
 8000b4a:	9014      	str	r0, [sp, #80]	@ 0x50
  if (HAL_TIMEx_ConfigBreakDeadTime(&htim17, &sBreakDeadTimeConfig) != HAL_OK)
 8000b4c:	a908      	add	r1, sp, #32
 8000b4e:	0020      	movs	r0, r4
  sBreakDeadTimeConfig.BreakState = TIM_BREAK_DISABLE;
 8000b50:	920c      	str	r2, [sp, #48]	@ 0x30
 8000b52:	930d      	str	r3, [sp, #52]	@ 0x34
  if (HAL_TIMEx_ConfigBreakDeadTime(&htim17, &sBreakDeadTimeConfig) != HAL_OK)
 8000b54:	f005 f94a 	bl	8005dec <HAL_TIMEx_ConfigBreakDeadTime>
 8000b58:	2800      	cmp	r0, #0
 8000b5a:	d001      	beq.n	8000b60 <MX_TIM17_Init+0xa4>
 8000b5c:	b672      	cpsid	i
  while (1)
 8000b5e:	e7fe      	b.n	8000b5e <MX_TIM17_Init+0xa2>
}
 8000b60:	b017      	add	sp, #92	@ 0x5c
 8000b62:	bd30      	pop	{r4, r5, pc}
 8000b64:	20000218 	.word	0x20000218
 8000b68:	40014800 	.word	0x40014800
 8000b6c:	00007fff 	.word	0x00007fff

08000b70 <MX_GPIO_Init>:
{
 8000b70:	b5f0      	push	{r4, r5, r6, r7, lr}
 8000b72:	46c6      	mov	lr, r8
 8000b74:	b500      	push	{lr}
 8000b76:	b08a      	sub	sp, #40	@ 0x28
  GPIO_InitTypeDef GPIO_InitStruct = {0};
 8000b78:	2214      	movs	r2, #20
 8000b7a:	2100      	movs	r1, #0
 8000b7c:	a804      	add	r0, sp, #16
 8000b7e:	f006 f899 	bl	8006cb4 <memset>
  __HAL_RCC_GPIOC_CLK_ENABLE();
 8000b82:	2204      	movs	r2, #4
 8000b84:	4b38      	ldr	r3, [pc, #224]	@ (8000c68 <MX_GPIO_Init+0xf8>)
  __HAL_RCC_GPIOA_CLK_ENABLE();
 8000b86:	2501      	movs	r5, #1
  __HAL_RCC_GPIOC_CLK_ENABLE();
 8000b88:	6b59      	ldr	r1, [r3, #52]	@ 0x34
  GPIO_InitStruct.Pull = GPIO_NOPULL;
 8000b8a:	2400      	movs	r4, #0
  __HAL_RCC_GPIOC_CLK_ENABLE();
 8000b8c:	4311      	orrs	r1, r2
 8000b8e:	6359      	str	r1, [r3, #52]	@ 0x34
 8000b90:	6b59      	ldr	r1, [r3, #52]	@ 0x34
  HAL_GPIO_Init(SW_OUT_GPIO_Port, &GPIO_InitStruct);
 8000b92:	27a0      	movs	r7, #160	@ 0xa0
  __HAL_RCC_GPIOC_CLK_ENABLE();
 8000b94:	400a      	ands	r2, r1
 8000b96:	9200      	str	r2, [sp, #0]
 8000b98:	9a00      	ldr	r2, [sp, #0]
  __HAL_RCC_GPIOF_CLK_ENABLE();
 8000b9a:	2220      	movs	r2, #32
 8000b9c:	6b59      	ldr	r1, [r3, #52]	@ 0x34
  GPIO_InitStruct.Pin = LD3_Pin;
 8000b9e:	2640      	movs	r6, #64	@ 0x40
  __HAL_RCC_GPIOF_CLK_ENABLE();
 8000ba0:	4311      	orrs	r1, r2
 8000ba2:	6359      	str	r1, [r3, #52]	@ 0x34
 8000ba4:	6b59      	ldr	r1, [r3, #52]	@ 0x34
  HAL_GPIO_Init(SW_OUT_GPIO_Port, &GPIO_InitStruct);
 8000ba6:	05ff      	lsls	r7, r7, #23
  __HAL_RCC_GPIOF_CLK_ENABLE();
 8000ba8:	400a      	ands	r2, r1
 8000baa:	9201      	str	r2, [sp, #4]
 8000bac:	9a01      	ldr	r2, [sp, #4]
  __HAL_RCC_GPIOA_CLK_ENABLE();
 8000bae:	6b5a      	ldr	r2, [r3, #52]	@ 0x34
 8000bb0:	432a      	orrs	r2, r5
 8000bb2:	635a      	str	r2, [r3, #52]	@ 0x34
 8000bb4:	6b5a      	ldr	r2, [r3, #52]	@ 0x34
 8000bb6:	402a      	ands	r2, r5
 8000bb8:	9202      	str	r2, [sp, #8]
 8000bba:	9a02      	ldr	r2, [sp, #8]
  __HAL_RCC_GPIOB_CLK_ENABLE();
 8000bbc:	2202      	movs	r2, #2
 8000bbe:	6b59      	ldr	r1, [r3, #52]	@ 0x34
 8000bc0:	4311      	orrs	r1, r2
 8000bc2:	6359      	str	r1, [r3, #52]	@ 0x34
 8000bc4:	6b5b      	ldr	r3, [r3, #52]	@ 0x34
  HAL_GPIO_WritePin(LD3_GPIO_Port, LD3_Pin, GPIO_PIN_RESET);
 8000bc6:	2140      	movs	r1, #64	@ 0x40
  __HAL_RCC_GPIOB_CLK_ENABLE();
 8000bc8:	401a      	ands	r2, r3
 8000bca:	9203      	str	r2, [sp, #12]
 8000bcc:	9b03      	ldr	r3, [sp, #12]
  HAL_GPIO_WritePin(LD3_GPIO_Port, LD3_Pin, GPIO_PIN_RESET);
 8000bce:	4b27      	ldr	r3, [pc, #156]	@ (8000c6c <MX_GPIO_Init+0xfc>)
 8000bd0:	2200      	movs	r2, #0
 8000bd2:	0018      	movs	r0, r3
 8000bd4:	4698      	mov	r8, r3
 8000bd6:	f002 fda7 	bl	8003728 <HAL_GPIO_WritePin>
  GPIO_InitStruct.Pin = T_NRST_Pin;
 8000bda:	2388      	movs	r3, #136	@ 0x88
 8000bdc:	2204      	movs	r2, #4
 8000bde:	035b      	lsls	r3, r3, #13
  HAL_GPIO_Init(T_NRST_GPIO_Port, &GPIO_InitStruct);
 8000be0:	a904      	add	r1, sp, #16
 8000be2:	4823      	ldr	r0, [pc, #140]	@ (8000c70 <MX_GPIO_Init+0x100>)
  GPIO_InitStruct.Pin = T_NRST_Pin;
 8000be4:	9204      	str	r2, [sp, #16]
 8000be6:	9305      	str	r3, [sp, #20]
  GPIO_InitStruct.Pull = GPIO_NOPULL;
 8000be8:	9406      	str	r4, [sp, #24]
  HAL_GPIO_Init(T_NRST_GPIO_Port, &GPIO_InitStruct);
 8000bea:	f002 fca5 	bl	8003538 <HAL_GPIO_Init>
  GPIO_InitStruct.Pin = SW_OUT_Pin;
 8000bee:	2380      	movs	r3, #128	@ 0x80
  HAL_GPIO_Init(SW_OUT_GPIO_Port, &GPIO_InitStruct);
 8000bf0:	0038      	movs	r0, r7
  GPIO_InitStruct.Pin = SW_OUT_Pin;
 8000bf2:	009b      	lsls	r3, r3, #2
  HAL_GPIO_Init(SW_OUT_GPIO_Port, &GPIO_InitStruct);
 8000bf4:	a904      	add	r1, sp, #16
  GPIO_InitStruct.Pin = SW_OUT_Pin;
 8000bf6:	9304      	str	r3, [sp, #16]
  GPIO_InitStruct.Mode = GPIO_MODE_OUTPUT_PP;
 8000bf8:	9505      	str	r5, [sp, #20]
  GPIO_InitStruct.Pull = GPIO_NOPULL;
 8000bfa:	9406      	str	r4, [sp, #24]
  GPIO_InitStruct.Speed = GPIO_SPEED_FREQ_LOW;
 8000bfc:	9407      	str	r4, [sp, #28]
  HAL_GPIO_Init(SW_OUT_GPIO_Port, &GPIO_InitStruct);
 8000bfe:	f002 fc9b 	bl	8003538 <HAL_GPIO_Init>
  HAL_GPIO_Init(LD3_GPIO_Port, &GPIO_InitStruct);
 8000c02:	4640      	mov	r0, r8
 8000c04:	a904      	add	r1, sp, #16
  GPIO_InitStruct.Pin = LD3_Pin;
 8000c06:	9604      	str	r6, [sp, #16]
  GPIO_InitStruct.Mode = GPIO_MODE_OUTPUT_PP;
 8000c08:	9505      	str	r5, [sp, #20]
  GPIO_InitStruct.Pull = GPIO_NOPULL;
 8000c0a:	9406      	str	r4, [sp, #24]
  GPIO_InitStruct.Speed = GPIO_SPEED_FREQ_LOW;
 8000c0c:	9407      	str	r4, [sp, #28]
  HAL_GPIO_Init(LD3_GPIO_Port, &GPIO_InitStruct);
 8000c0e:	f002 fc93 	bl	8003538 <HAL_GPIO_Init>
  GPIO_InitStruct.Pin = SW_IN_Pin;
 8000c12:	2280      	movs	r2, #128	@ 0x80
 8000c14:	2384      	movs	r3, #132	@ 0x84
 8000c16:	00d2      	lsls	r2, r2, #3
 8000c18:	039b      	lsls	r3, r3, #14
  HAL_GPIO_Init(SW_IN_GPIO_Port, &GPIO_InitStruct);
 8000c1a:	0038      	movs	r0, r7
 8000c1c:	a904      	add	r1, sp, #16
  GPIO_InitStruct.Pin = SW_IN_Pin;
 8000c1e:	9204      	str	r2, [sp, #16]
 8000c20:	9305      	str	r3, [sp, #20]
  GPIO_InitStruct.Pull = GPIO_PULLUP;
 8000c22:	9506      	str	r5, [sp, #24]
  HAL_GPIO_Init(SW_IN_GPIO_Port, &GPIO_InitStruct);
 8000c24:	f002 fc88 	bl	8003538 <HAL_GPIO_Init>
  GPIO_InitStruct.Pin = MONITOR_Pin;
 8000c28:	9604      	str	r6, [sp, #16]
  HAL_GPIO_Init(MONITOR_GPIO_Port, &GPIO_InitStruct);
 8000c2a:	4e12      	ldr	r6, [pc, #72]	@ (8000c74 <MX_GPIO_Init+0x104>)
 8000c2c:	a904      	add	r1, sp, #16
 8000c2e:	0030      	movs	r0, r6
  GPIO_InitStruct.Mode = GPIO_MODE_OUTPUT_PP;
 8000c30:	9505      	str	r5, [sp, #20]
  GPIO_InitStruct.Pull = GPIO_NOPULL;
 8000c32:	9406      	str	r4, [sp, #24]
  GPIO_InitStruct.Speed = GPIO_SPEED_FREQ_LOW;
 8000c34:	9407      	str	r4, [sp, #28]
  HAL_GPIO_Init(MONITOR_GPIO_Port, &GPIO_InitStruct);
 8000c36:	f002 fc7f 	bl	8003538 <HAL_GPIO_Init>
  GPIO_InitStruct.Pin = CLK_IN_Pin;
 8000c3a:	2380      	movs	r3, #128	@ 0x80
 8000c3c:	9304      	str	r3, [sp, #16]
  GPIO_InitStruct.Mode = GPIO_MODE_IT_RISING_FALLING;
 8000c3e:	23c4      	movs	r3, #196	@ 0xc4
  HAL_GPIO_Init(MONITOR_GPIO_Port, &GPIO_InitStruct);
 8000c40:	0030      	movs	r0, r6
  GPIO_InitStruct.Mode = GPIO_MODE_IT_RISING_FALLING;
 8000c42:	039b      	lsls	r3, r3, #14
  HAL_GPIO_Init(MONITOR_GPIO_Port, &GPIO_InitStruct);
 8000c44:	a904      	add	r1, sp, #16
  GPIO_InitStruct.Mode = GPIO_MODE_IT_RISING_FALLING;
 8000c46:	9305      	str	r3, [sp, #20]
  GPIO_InitStruct.Pull = GPIO_PULLUP;
 8000c48:	9506      	str	r5, [sp, #24]
  GPIO_InitStruct.Speed = GPIO_SPEED_FREQ_LOW;
 8000c4a:	9407      	str	r4, [sp, #28]
  HAL_GPIO_Init(MONITOR_GPIO_Port, &GPIO_InitStruct);
 8000c4c:	f002 fc74 	bl	8003538 <HAL_GPIO_Init>
  HAL_NVIC_SetPriority(EXTI4_15_IRQn, 0, 0);
 8000c50:	2200      	movs	r2, #0
 8000c52:	2100      	movs	r1, #0
 8000c54:	2007      	movs	r0, #7
 8000c56:	f002 fa5d 	bl	8003114 <HAL_NVIC_SetPriority>
  HAL_NVIC_EnableIRQ(EXTI4_15_IRQn);
 8000c5a:	2007      	movs	r0, #7
 8000c5c:	f002 fa84 	bl	8003168 <HAL_NVIC_EnableIRQ>
}
 8000c60:	b00a      	add	sp, #40	@ 0x28
 8000c62:	bc80      	pop	{r7}
 8000c64:	46b8      	mov	r8, r7
 8000c66:	bdf0      	pop	{r4, r5, r6, r7, pc}
 8000c68:	40021000 	.word	0x40021000
 8000c6c:	50000800 	.word	0x50000800
 8000c70:	50001400 	.word	0x50001400
 8000c74:	50000400 	.word	0x50000400

08000c78 <Error_Handler>:
 8000c78:	b672      	cpsid	i
  while (1)
 8000c7a:	e7fe      	b.n	8000c7a <Error_Handler+0x2>

08000c7c <System_Init>:
  {

  }
}

void System_Init(void){
 8000c7c:	b570      	push	{r4, r5, r6, lr}
 8000c7e:	b082      	sub	sp, #8
	/* MCU Configuration--------------------------------------------------------*/

	/* Reset of all peripherals, Initializes the Flash interface and the Systick. */
	HAL_Init();
 8000c80:	f001 fcb2 	bl	80025e8 <HAL_Init>

	/* Configure the system clock */
	SystemClock_Config();
 8000c84:	f7ff fcca 	bl	800061c <SystemClock_Config>

	/* Initialize all configured peripherals */
	MX_GPIO_Init();
 8000c88:	f7ff ff72 	bl	8000b70 <MX_GPIO_Init>
  __HAL_RCC_DMA1_CLK_ENABLE();
 8000c8c:	2301      	movs	r3, #1
 8000c8e:	4a49      	ldr	r2, [pc, #292]	@ (8000db4 <System_Init+0x138>)
  HAL_NVIC_SetPriority(DMA1_Channel1_IRQn, 1, 1);
 8000c90:	2009      	movs	r0, #9
  __HAL_RCC_DMA1_CLK_ENABLE();
 8000c92:	6b91      	ldr	r1, [r2, #56]	@ 0x38
 8000c94:	4319      	orrs	r1, r3
 8000c96:	6391      	str	r1, [r2, #56]	@ 0x38
 8000c98:	6b92      	ldr	r2, [r2, #56]	@ 0x38
  HAL_NVIC_SetPriority(DMA1_Channel1_IRQn, 1, 1);
 8000c9a:	2101      	movs	r1, #1
  __HAL_RCC_DMA1_CLK_ENABLE();
 8000c9c:	4013      	ands	r3, r2
 8000c9e:	9301      	str	r3, [sp, #4]
  HAL_NVIC_SetPriority(DMA1_Channel1_IRQn, 1, 1);
 8000ca0:	2201      	movs	r2, #1
  __HAL_RCC_DMA1_CLK_ENABLE();
 8000ca2:	9b01      	ldr	r3, [sp, #4]
  HAL_NVIC_SetPriority(DMA1_Channel1_IRQn, 1, 1);
 8000ca4:	f002 fa36 	bl	8003114 <HAL_NVIC_SetPriority>
  HAL_NVIC_EnableIRQ(DMA1_Channel1_IRQn);
 8000ca8:	2009      	movs	r0, #9
 8000caa:	f002 fa5d 	bl	8003168 <HAL_NVIC_EnableIRQ>
  HAL_NVIC_SetPriority(DMA1_Channel2_3_IRQn, 1, 1);
 8000cae:	2201      	movs	r2, #1
 8000cb0:	2101      	movs	r1, #1
 8000cb2:	200a      	movs	r0, #10
 8000cb4:	f002 fa2e 	bl	8003114 <HAL_NVIC_SetPriority>
  HAL_NVIC_EnableIRQ(DMA1_Channel2_3_IRQn);
 8000cb8:	200a      	movs	r0, #10
 8000cba:	f002 fa55 	bl	8003168 <HAL_NVIC_EnableIRQ>
  huart2.Instance = USART2;
 8000cbe:	4c3e      	ldr	r4, [pc, #248]	@ (8000db8 <System_Init+0x13c>)
 8000cc0:	4b3e      	ldr	r3, [pc, #248]	@ (8000dbc <System_Init+0x140>)
  huart2.Init.Mode = UART_MODE_TX_RX;
 8000cc2:	220c      	movs	r2, #12
  huart2.Instance = USART2;
 8000cc4:	6023      	str	r3, [r4, #0]
  huart2.Init.BaudRate = 9600;
 8000cc6:	2396      	movs	r3, #150	@ 0x96
 8000cc8:	019b      	lsls	r3, r3, #6
 8000cca:	6063      	str	r3, [r4, #4]
  huart2.Init.WordLength = UART_WORDLENGTH_8B;
 8000ccc:	2300      	movs	r3, #0
  if (HAL_UART_Init(&huart2) != HAL_OK)
 8000cce:	0020      	movs	r0, r4
  huart2.Init.WordLength = UART_WORDLENGTH_8B;
 8000cd0:	60a3      	str	r3, [r4, #8]
  huart2.Init.StopBits = UART_STOPBITS_1;
 8000cd2:	60e3      	str	r3, [r4, #12]
  huart2.Init.Parity = UART_PARITY_NONE;
 8000cd4:	6123      	str	r3, [r4, #16]
  huart2.Init.Mode = UART_MODE_TX_RX;
 8000cd6:	6162      	str	r2, [r4, #20]
  huart2.Init.HwFlowCtl = UART_HWCONTROL_NONE;
 8000cd8:	61a3      	str	r3, [r4, #24]
  huart2.Init.OverSampling = UART_OVERSAMPLING_16;
 8000cda:	61e3      	str	r3, [r4, #28]
  huart2.Init.OneBitSampling = UART_ONE_BIT_SAMPLE_DISABLE;
 8000cdc:	6223      	str	r3, [r4, #32]
  huart2.Init.ClockPrescaler = UART_PRESCALER_DIV1;
 8000cde:	6263      	str	r3, [r4, #36]	@ 0x24
  huart2.AdvancedInit.AdvFeatureInit = UART_ADVFEATURE_NO_INIT;
 8000ce0:	62a3      	str	r3, [r4, #40]	@ 0x28
  if (HAL_UART_Init(&huart2) != HAL_OK)
 8000ce2:	f005 fe4f 	bl	8006984 <HAL_UART_Init>
 8000ce6:	1e05      	subs	r5, r0, #0
 8000ce8:	d001      	beq.n	8000cee <System_Init+0x72>
 8000cea:	b672      	cpsid	i
  while (1)
 8000cec:	e7fe      	b.n	8000cec <System_Init+0x70>
	MX_DMA_Init();
	MX_USART2_UART_Init();
	MX_ADC1_Init();
 8000cee:	f7ff fcd5 	bl	800069c <MX_ADC1_Init>
	MX_TIM16_Init(); //Frequency Gen.
 8000cf2:	f7ff fd3d 	bl	8000770 <MX_TIM16_Init>
	MX_TIM2_Init(); //I/P Capture Measurement is TIM2_ch1
 8000cf6:	f7ff fd9b 	bl	8000830 <MX_TIM2_Init>
	MX_TIM3_Init(); //I/P Capture Measurement Re-Elapse is TIM3_ch1
 8000cfa:	f7ff fdf5 	bl	80008e8 <MX_TIM3_Init>
	MX_TIM1_Init(); //PWM Gen. Main/Secondary Oscillator on ch2/ch4
 8000cfe:	f7ff fe53 	bl	80009a8 <MX_TIM1_Init>
	MX_TIM17_Init(); //Speed Pot checking timer
 8000d02:	f7ff fedb 	bl	8000abc <MX_TIM17_Init>
  hlptim1.Instance = LPTIM1;
 8000d06:	4e2e      	ldr	r6, [pc, #184]	@ (8000dc0 <System_Init+0x144>)
 8000d08:	4b2e      	ldr	r3, [pc, #184]	@ (8000dc4 <System_Init+0x148>)
  hlptim1.Init.OutputPolarity = LPTIM_OUTPUTPOLARITY_HIGH;
 8000d0a:	2200      	movs	r2, #0
  hlptim1.Instance = LPTIM1;
 8000d0c:	6033      	str	r3, [r6, #0]
  hlptim1.Init.Clock.Prescaler = LPTIM_PRESCALER_DIV128;
 8000d0e:	23e0      	movs	r3, #224	@ 0xe0
 8000d10:	011b      	lsls	r3, r3, #4
 8000d12:	60b3      	str	r3, [r6, #8]
  hlptim1.Init.Trigger.Source = LPTIM_TRIGSOURCE_SOFTWARE;
 8000d14:	4b2c      	ldr	r3, [pc, #176]	@ (8000dc8 <System_Init+0x14c>)
  if (HAL_LPTIM_Init(&hlptim1) != HAL_OK)
 8000d16:	0030      	movs	r0, r6
  hlptim1.Init.Trigger.Source = LPTIM_TRIGSOURCE_SOFTWARE;
 8000d18:	6173      	str	r3, [r6, #20]
  hlptim1.Init.OutputPolarity = LPTIM_OUTPUTPOLARITY_HIGH;
 8000d1a:	2380      	movs	r3, #128	@ 0x80
 8000d1c:	03db      	lsls	r3, r3, #15
 8000d1e:	6232      	str	r2, [r6, #32]
 8000d20:	6273      	str	r3, [r6, #36]	@ 0x24
 8000d22:	2200      	movs	r2, #0
 8000d24:	2300      	movs	r3, #0
  hlptim1.Init.Clock.Source = LPTIM_CLOCKSOURCE_APBCLOCK_LPOSC;
 8000d26:	6075      	str	r5, [r6, #4]
  hlptim1.Init.OutputPolarity = LPTIM_OUTPUTPOLARITY_HIGH;
 8000d28:	62b2      	str	r2, [r6, #40]	@ 0x28
 8000d2a:	62f3      	str	r3, [r6, #44]	@ 0x2c
  hlptim1.Init.Input2Source = LPTIM_INPUT2SOURCE_GPIO;
 8000d2c:	6335      	str	r5, [r6, #48]	@ 0x30
  if (HAL_LPTIM_Init(&hlptim1) != HAL_OK)
 8000d2e:	f002 fd29 	bl	8003784 <HAL_LPTIM_Init>
 8000d32:	2800      	cmp	r0, #0
 8000d34:	d001      	beq.n	8000d3a <System_Init+0xbe>
 8000d36:	b672      	cpsid	i
  while (1)
 8000d38:	e7fe      	b.n	8000d38 <System_Init+0xbc>
  HAL_NVIC_SetPriority(LPTIM1_IRQn, 3, 3);
 8000d3a:	2203      	movs	r2, #3
 8000d3c:	2103      	movs	r1, #3
 8000d3e:	2011      	movs	r0, #17
 8000d40:	f002 f9e8 	bl	8003114 <HAL_NVIC_SetPriority>
  HAL_NVIC_EnableIRQ(LPTIM1_IRQn);
 8000d44:	2011      	movs	r0, #17
 8000d46:	f002 fa0f 	bl	8003168 <HAL_NVIC_EnableIRQ>
	//MX_IWDG_Init(); fucks up stuff - to be config'd
	MX_LPTIM1_Init(); //Tap Tempo checking/debouncing timer

	//Calibrate ADC - DO NOT MOVE TO BEFORE OTHER CONFIG ABOVE
	HAL_ADCEx_Calibration_Start(&hadc1);
 8000d4a:	4d20      	ldr	r5, [pc, #128]	@ (8000dcc <System_Init+0x150>)
 8000d4c:	0028      	movs	r0, r5
 8000d4e:	f002 f90d 	bl	8002f6c <HAL_ADCEx_Calibration_Start>

	//Set custom callback function for TIM16 (freq. gen.) to the callback function in TIMx_callback.c for TIM16.
	//I believe the correct CallbackID is HAL_TIM_OC_DELAY_ELAPSED_CB_ID, but if this doesn't work maybe
	//HAL_TIM_PERIOD_ELAPSED_CB_ID will work. This should be basically the same because we've set up TIM16
	//in Output Compare mode, where the ARR and CRR are the same.
	HAL_TIM_RegisterCallback(&htim16, HAL_TIM_OC_DELAY_ELAPSED_CB_ID, &TIM16_callback);
 8000d52:	2114      	movs	r1, #20
 8000d54:	4a1e      	ldr	r2, [pc, #120]	@ (8000dd0 <System_Init+0x154>)
 8000d56:	481f      	ldr	r0, [pc, #124]	@ (8000dd4 <System_Init+0x158>)
 8000d58:	f004 ff8e 	bl	8005c78 <HAL_TIM_RegisterCallback>

	//Set custom callback function for ADC (DMA) conversion complete.
	HAL_ADC_RegisterCallback(&hadc1, HAL_ADC_CONVERSION_COMPLETE_CB_ID, &ADC_DMA_conversion_complete_callback);
 8000d5c:	2100      	movs	r1, #0
 8000d5e:	0028      	movs	r0, r5
 8000d60:	4a1d      	ldr	r2, [pc, #116]	@ (8000dd8 <System_Init+0x15c>)
 8000d62:	f001 fe05 	bl	8002970 <HAL_ADC_RegisterCallback>

	//Set custom callback function for I/P capture input falling edge event
	HAL_TIM_RegisterCallback(&htim2, HAL_TIM_IC_CAPTURE_CB_ID, &TIM2_ch1_IP_capture_callback);
 8000d66:	4d1d      	ldr	r5, [pc, #116]	@ (8000ddc <System_Init+0x160>)
 8000d68:	2112      	movs	r1, #18
 8000d6a:	0028      	movs	r0, r5
 8000d6c:	4a1c      	ldr	r2, [pc, #112]	@ (8000de0 <System_Init+0x164>)
 8000d6e:	f004 ff83 	bl	8005c78 <HAL_TIM_RegisterCallback>

	//Set custom callback function for I/P capture timer overflow (Update event/overflow)
	HAL_TIM_RegisterCallback(&htim2, HAL_TIM_PERIOD_ELAPSED_CB_ID, &TIM2_ch1_overflow_callback);
 8000d72:	210e      	movs	r1, #14
 8000d74:	0028      	movs	r0, r5
 8000d76:	4a1b      	ldr	r2, [pc, #108]	@ (8000de4 <System_Init+0x168>)
 8000d78:	f004 ff7e 	bl	8005c78 <HAL_TIM_RegisterCallback>

	//Set custom callback function for TIM3_ch1 (Measurement Re-Elapse) (CCR match)
	HAL_TIM_RegisterCallback(&htim3, HAL_TIM_OC_DELAY_ELAPSED_CB_ID, &TIM3_ch1_IP_capture_measurement_reelapse_callback);
 8000d7c:	2114      	movs	r1, #20
 8000d7e:	4a1a      	ldr	r2, [pc, #104]	@ (8000de8 <System_Init+0x16c>)
 8000d80:	481a      	ldr	r0, [pc, #104]	@ (8000dec <System_Init+0x170>)
 8000d82:	f004 ff79 	bl	8005c78 <HAL_TIM_RegisterCallback>

	//Set custom callback function for TIM17 debounce (CCR match)
	//HAL_TIM_RegisterCallback(&htim17, HAL_TIM_OC_DELAY_ELAPSED_CB_ID, &TIM17_callback_debounce);

	//Set custom callback function for TIM17 Speed Pot Check (CCR match)
	HAL_TIM_RegisterCallback(&htim17, HAL_TIM_OC_DELAY_ELAPSED_CB_ID, &TIM17_callback_speed_pot_check);
 8000d86:	2114      	movs	r1, #20
 8000d88:	4a19      	ldr	r2, [pc, #100]	@ (8000df0 <System_Init+0x174>)
 8000d8a:	481a      	ldr	r0, [pc, #104]	@ (8000df4 <System_Init+0x178>)
 8000d8c:	f004 ff74 	bl	8005c78 <HAL_TIM_RegisterCallback>

	//CANNOT SET CUSTOM CALLBACK FOR EXTI, however redefinition of 'weak' predefined EXTI callback is in custom_callbacks.c

	//Set custom callback function for DMA TX Transfer Complete
	HAL_UART_RegisterCallback(&huart2, HAL_UART_TX_COMPLETE_CB_ID, &UART2_TX_transfer_complete_callback);
 8000d90:	2101      	movs	r1, #1
 8000d92:	0020      	movs	r0, r4
 8000d94:	4a18      	ldr	r2, [pc, #96]	@ (8000df8 <System_Init+0x17c>)
 8000d96:	f005 f97f 	bl	8006098 <HAL_UART_RegisterCallback>

	//Set custom callback function for DMA RX Transfer Complete
	HAL_UART_RegisterCallback(&huart2, HAL_UART_RX_COMPLETE_CB_ID, &UART2_RX_transfer_complete_callback);
 8000d9a:	2103      	movs	r1, #3
 8000d9c:	0020      	movs	r0, r4
 8000d9e:	4a17      	ldr	r2, [pc, #92]	@ (8000dfc <System_Init+0x180>)
 8000da0:	f005 f97a 	bl	8006098 <HAL_UART_RegisterCallback>

	//Set custom callback for LPTIM1 (Tap Tempo SW state check)
	 HAL_LPTIM_RegisterCallback(&hlptim1, HAL_LPTIM_COMPARE_MATCH_CB_ID, &LPTIM1_callback);
 8000da4:	2102      	movs	r1, #2
 8000da6:	0030      	movs	r0, r6
 8000da8:	4a15      	ldr	r2, [pc, #84]	@ (8000e00 <System_Init+0x184>)
 8000daa:	f002 fdcb 	bl	8003944 <HAL_LPTIM_RegisterCallback>
}
 8000dae:	b002      	add	sp, #8
 8000db0:	bd70      	pop	{r4, r5, r6, pc}
 8000db2:	46c0      	nop			@ (mov r8, r8)
 8000db4:	40021000 	.word	0x40021000
 8000db8:	2000014c 	.word	0x2000014c
 8000dbc:	40004400 	.word	0x40004400
 8000dc0:	20000038 	.word	0x20000038
 8000dc4:	40007c00 	.word	0x40007c00
 8000dc8:	0000ffff 	.word	0x0000ffff
 8000dcc:	20000620 	.word	0x20000620
 8000dd0:	08000e05 	.word	0x08000e05
 8000dd4:	20000508 	.word	0x20000508
 8000dd8:	08001069 	.word	0x08001069
 8000ddc:	2000044c 	.word	0x2000044c
 8000de0:	08001181 	.word	0x08001181
 8000de4:	08001255 	.word	0x08001255
 8000de8:	08001279 	.word	0x08001279
 8000dec:	20000390 	.word	0x20000390
 8000df0:	08001495 	.word	0x08001495
 8000df4:	20000218 	.word	0x20000218
 8000df8:	080013f1 	.word	0x080013f1
 8000dfc:	080013fd 	.word	0x080013fd
 8000e00:	08001431 	.word	0x08001431

08000e04 <TIM16_callback>:

void TIM16_callback(TIM_HandleTypeDef *htim)
{
	//TIM16 interrupt flag is already cleared by stm32g0xx_it.c

	TIM16_callback_active = YES;
 8000e04:	2201      	movs	r2, #1
 8000e06:	497e      	ldr	r1, [pc, #504]	@ (8001000 <TIM16_callback+0x1fc>)
	}*/

	////////////////////////////////////////////////////////
	//SET THE CURRENT(prev) VALUES FOR THE MAIN OSCILLATOR//
	////////////////////////////////////////////////////////
	TIM16->EGR |= TIM_EGR_UG; //DO NOT DELETE THIS LINE, IT LITERALLY MAKES OR BREAKS THE BASTARD - It triggers an 'update' event
 8000e08:	487e      	ldr	r0, [pc, #504]	@ (8001004 <TIM16_callback+0x200>)
{
 8000e0a:	b570      	push	{r4, r5, r6, lr}
	TIM16_callback_active = YES;
 8000e0c:	700a      	strb	r2, [r1, #0]
	TIM16->EGR |= TIM_EGR_UG; //DO NOT DELETE THIS LINE, IT LITERALLY MAKES OR BREAKS THE BASTARD - It triggers an 'update' event
 8000e0e:	6943      	ldr	r3, [r0, #20]
	__HAL_TIM_SET_COUNTER(&htim16, TIM16_final_start_value); //this line must go here, or at least very near the beginning!
	__HAL_TIM_SET_PRESCALER(&htim16, (TIM16_final_prescaler - 1)); //have to take one off the divisor
	TIM1->EGR |= TIM_EGR_UG; //not sure if we really need this line but gonna keep it here because it worked wonders for TIM16
	__HAL_TIM_SET_COMPARE(&htim1, TIM_CHANNEL_2, prev_duty); //updates the CCR register of TIM14, which sets duty, i.e. the ON time relative to the total period which is set by the ARR.
 8000e10:	4c7d      	ldr	r4, [pc, #500]	@ (8001008 <TIM16_callback+0x204>)
	TIM16->EGR |= TIM_EGR_UG; //DO NOT DELETE THIS LINE, IT LITERALLY MAKES OR BREAKS THE BASTARD - It triggers an 'update' event
 8000e12:	4313      	orrs	r3, r2
 8000e14:	6143      	str	r3, [r0, #20]
	__HAL_TIM_SET_COUNTER(&htim16, TIM16_final_start_value); //this line must go here, or at least very near the beginning!
 8000e16:	4b7d      	ldr	r3, [pc, #500]	@ (800100c <TIM16_callback+0x208>)
 8000e18:	487d      	ldr	r0, [pc, #500]	@ (8001010 <TIM16_callback+0x20c>)
 8000e1a:	881b      	ldrh	r3, [r3, #0]
 8000e1c:	6800      	ldr	r0, [r0, #0]
 8000e1e:	b29b      	uxth	r3, r3
 8000e20:	6243      	str	r3, [r0, #36]	@ 0x24
	__HAL_TIM_SET_PRESCALER(&htim16, (TIM16_final_prescaler - 1)); //have to take one off the divisor
 8000e22:	4b7c      	ldr	r3, [pc, #496]	@ (8001014 <TIM16_callback+0x210>)
{
 8000e24:	b082      	sub	sp, #8
	__HAL_TIM_SET_PRESCALER(&htim16, (TIM16_final_prescaler - 1)); //have to take one off the divisor
 8000e26:	881b      	ldrh	r3, [r3, #0]
 8000e28:	3b01      	subs	r3, #1
 8000e2a:	6283      	str	r3, [r0, #40]	@ 0x28
	TIM1->EGR |= TIM_EGR_UG; //not sure if we really need this line but gonna keep it here because it worked wonders for TIM16
 8000e2c:	487a      	ldr	r0, [pc, #488]	@ (8001018 <TIM16_callback+0x214>)
 8000e2e:	6943      	ldr	r3, [r0, #20]
 8000e30:	4313      	orrs	r3, r2
 8000e32:	6143      	str	r3, [r0, #20]
	__HAL_TIM_SET_COMPARE(&htim1, TIM_CHANNEL_2, prev_duty); //updates the CCR register of TIM14, which sets duty, i.e. the ON time relative to the total period which is set by the ARR.
 8000e34:	4a79      	ldr	r2, [pc, #484]	@ (800101c <TIM16_callback+0x218>)
 8000e36:	8823      	ldrh	r3, [r4, #0]
 8000e38:	6812      	ldr	r2, [r2, #0]
 8000e3a:	b29b      	uxth	r3, r3

	/////////////////////////////////////////////////////////////
	//SET THE CURRENT(prev) VALUES FOR THE SECONDARY OSCILLATOR//
	/////////////////////////////////////////////////////////////
	__HAL_TIM_SET_COMPARE(&htim1, TIM_CHANNEL_4, duty_delayed); //updates the CCR register of TIM14, which sets duty, i.e. the ON time relative to the total period which is set by the ARR.
 8000e3c:	4878      	ldr	r0, [pc, #480]	@ (8001020 <TIM16_callback+0x21c>)
	__HAL_TIM_SET_COMPARE(&htim1, TIM_CHANNEL_2, prev_duty); //updates the CCR register of TIM14, which sets duty, i.e. the ON time relative to the total period which is set by the ARR.
 8000e3e:	6393      	str	r3, [r2, #56]	@ 0x38
	__HAL_TIM_SET_COMPARE(&htim1, TIM_CHANNEL_4, duty_delayed); //updates the CCR register of TIM14, which sets duty, i.e. the ON time relative to the total period which is set by the ARR.
 8000e40:	8803      	ldrh	r3, [r0, #0]
 8000e42:	b29b      	uxth	r3, r3
 8000e44:	6413      	str	r3, [r2, #64]	@ 0x40

	/////////////////////////////
	//CALCULATE THE NEXT VALUES//
	/////////////////////////////

	current_index++;
 8000e46:	4b77      	ldr	r3, [pc, #476]	@ (8001024 <TIM16_callback+0x220>)
 8000e48:	881a      	ldrh	r2, [r3, #0]
 8000e4a:	3201      	adds	r2, #1
 8000e4c:	b292      	uxth	r2, r2
 8000e4e:	801a      	strh	r2, [r3, #0]

	if(current_index == FINAL_INDEX + 1){
 8000e50:	2280      	movs	r2, #128	@ 0x80
 8000e52:	881d      	ldrh	r5, [r3, #0]
 8000e54:	0092      	lsls	r2, r2, #2
 8000e56:	4295      	cmp	r5, r2
 8000e58:	d105      	bne.n	8000e66 <TIM16_callback+0x62>
		current_quadrant = FIRST_QUADRANT;
 8000e5a:	2200      	movs	r2, #0
 8000e5c:	4d72      	ldr	r5, [pc, #456]	@ (8001028 <TIM16_callback+0x224>)
 8000e5e:	702a      	strb	r2, [r5, #0]
		current_halfcycle = FIRST_HALFCYCLE;
 8000e60:	4d72      	ldr	r5, [pc, #456]	@ (800102c <TIM16_callback+0x228>)
 8000e62:	702a      	strb	r2, [r5, #0]
		current_index = 0;
 8000e64:	801a      	strh	r2, [r3, #0]
	}

	if(current_waveshape == TRIANGLE_MODE){
 8000e66:	4a72      	ldr	r2, [pc, #456]	@ (8001030 <TIM16_callback+0x22c>)
 8000e68:	7815      	ldrb	r5, [r2, #0]
 8000e6a:	2d00      	cmp	r5, #0
 8000e6c:	d000      	beq.n	8000e70 <TIM16_callback+0x6c>
 8000e6e:	e06e      	b.n	8000f4e <TIM16_callback+0x14a>
		duty = tri_wavetable[current_index];
 8000e70:	881d      	ldrh	r5, [r3, #0]
 8000e72:	4a70      	ldr	r2, [pc, #448]	@ (8001034 <TIM16_callback+0x230>)
 8000e74:	006d      	lsls	r5, r5, #1
 8000e76:	5aad      	ldrh	r5, [r5, r2]
 8000e78:	4a6f      	ldr	r2, [pc, #444]	@ (8001038 <TIM16_callback+0x234>)
 8000e7a:	8015      	strh	r5, [r2, #0]
	}
	else if((current_waveshape == SQUARE_MODE) && (current_index >= THIRD_QUADRANT_START_INDEX)){
			duty = 0;
	}

	if(current_index == FIRST_QUADRANT_START_INDEX){
 8000e7c:	881d      	ldrh	r5, [r3, #0]
 8000e7e:	b2ae      	uxth	r6, r5
 8000e80:	2d00      	cmp	r5, #0
 8000e82:	d144      	bne.n	8000f0e <TIM16_callback+0x10a>
		current_quadrant = FIRST_QUADRANT;
 8000e84:	4b68      	ldr	r3, [pc, #416]	@ (8001028 <TIM16_callback+0x224>)
 8000e86:	701e      	strb	r6, [r3, #0]
		current_halfcycle = FIRST_HALFCYCLE;
 8000e88:	4b68      	ldr	r3, [pc, #416]	@ (800102c <TIM16_callback+0x228>)
 8000e8a:	701e      	strb	r6, [r3, #0]

	//APPLY DEPTH
	#if DEPTH_ON_OR_OFF == 1

		//Apply Depth
		if(current_depth == 255){
 8000e8c:	4b6b      	ldr	r3, [pc, #428]	@ (800103c <TIM16_callback+0x238>)
 8000e8e:	881d      	ldrh	r5, [r3, #0]
 8000e90:	2dff      	cmp	r5, #255	@ 0xff
 8000e92:	d100      	bne.n	8000e96 <TIM16_callback+0x92>
 8000e94:	e081      	b.n	8000f9a <TIM16_callback+0x196>
			duty = 1023 - duty;
		}
		else if(current_depth != 0){
 8000e96:	881d      	ldrh	r5, [r3, #0]
 8000e98:	2d00      	cmp	r5, #0
 8000e9a:	d14b      	bne.n	8000f34 <TIM16_callback+0x130>
			//duty = 1023 - duty*(current_depth >> 8);
			Multiply_Duty_By_Current_Depth_and_Divide_By_256();
		}
		else{
			duty = 1023; //if depth is 0, just output 1023
 8000e9c:	4b68      	ldr	r3, [pc, #416]	@ (8001040 <TIM16_callback+0x23c>)
 8000e9e:	8013      	strh	r3, [r2, #0]
		}

	#endif

	//SET THE NEXT VALUE FOR THE MAIN OSCILLATOR
	prev_duty = duty;
 8000ea0:	8813      	ldrh	r3, [r2, #0]
 8000ea2:	b29b      	uxth	r3, r3
 8000ea4:	8023      	strh	r3, [r4, #0]

	//STORE THE VALUES IN THE APPROPRIATE '0TH - 1' INDEX RELATIVE TO THE START POINTER
	if(duty_delay_line_start_offset != 0){
 8000ea6:	4b67      	ldr	r3, [pc, #412]	@ (8001044 <TIM16_callback+0x240>)
 8000ea8:	881c      	ldrh	r4, [r3, #0]
 8000eaa:	2c00      	cmp	r4, #0
 8000eac:	d100      	bne.n	8000eb0 <TIM16_callback+0xac>
 8000eae:	e06d      	b.n	8000f8c <TIM16_callback+0x188>
		duty_delay_line_storage_array[duty_delay_line_start_offset - 1] = duty;
 8000eb0:	881c      	ldrh	r4, [r3, #0]
 8000eb2:	8815      	ldrh	r5, [r2, #0]
 8000eb4:	3c01      	subs	r4, #1
 8000eb6:	4a64      	ldr	r2, [pc, #400]	@ (8001048 <TIM16_callback+0x244>)
 8000eb8:	b2ad      	uxth	r5, r5
 8000eba:	0064      	lsls	r4, r4, #1
 8000ebc:	5315      	strh	r5, [r2, r4]
	else{
		duty_delay_line_storage_array[FINAL_INDEX + 1] = duty;
	}

	//DECREMENT THE START AND FINISH POINTERS
	if(duty_delay_line_start_offset == 0){
 8000ebe:	881c      	ldrh	r4, [r3, #0]
 8000ec0:	2c00      	cmp	r4, #0
 8000ec2:	d157      	bne.n	8000f74 <TIM16_callback+0x170>
		duty_delay_line_start_offset = FINAL_INDEX + 1;
 8000ec4:	2480      	movs	r4, #128	@ 0x80
		duty_delay_line_finish_offset = duty_delay_line_finish_offset - 1;
 8000ec6:	4d61      	ldr	r5, [pc, #388]	@ (800104c <TIM16_callback+0x248>)
		duty_delay_line_start_offset = FINAL_INDEX + 1;
 8000ec8:	00a4      	lsls	r4, r4, #2
 8000eca:	801c      	strh	r4, [r3, #0]
		duty_delay_line_finish_offset = duty_delay_line_finish_offset - 1;
 8000ecc:	882c      	ldrh	r4, [r5, #0]
 8000ece:	3c01      	subs	r4, #1
 8000ed0:	b2a4      	uxth	r4, r4
 8000ed2:	802c      	strh	r4, [r5, #0]
		duty_delay_line_start_offset = duty_delay_line_start_offset - 1;
		duty_delay_line_finish_offset = duty_delay_line_finish_offset - 1;
	}

	//DETERMINE THE DELAYED WAVE'S VALUES
	if(duty_delay_line_start_offset + duty_delay_line_read_pointer_offset > FINAL_INDEX + 1){ //if the desired starting index falls off the end of the array
 8000ed4:	4d5e      	ldr	r5, [pc, #376]	@ (8001050 <TIM16_callback+0x24c>)
 8000ed6:	881c      	ldrh	r4, [r3, #0]
 8000ed8:	882e      	ldrh	r6, [r5, #0]
		duty_delayed = *(duty_delay_line_storage_array + (duty_delay_line_start_offset + duty_delay_line_read_pointer_offset - (FINAL_INDEX + 1)));
 8000eda:	881b      	ldrh	r3, [r3, #0]
	if(duty_delay_line_start_offset + duty_delay_line_read_pointer_offset > FINAL_INDEX + 1){ //if the desired starting index falls off the end of the array
 8000edc:	19a4      	adds	r4, r4, r6
 8000ede:	2680      	movs	r6, #128	@ 0x80
 8000ee0:	00b6      	lsls	r6, r6, #2
 8000ee2:	42b4      	cmp	r4, r6
 8000ee4:	dd3e      	ble.n	8000f64 <TIM16_callback+0x160>
		duty_delayed = *(duty_delay_line_storage_array + (duty_delay_line_start_offset + duty_delay_line_read_pointer_offset - (FINAL_INDEX + 1)));
 8000ee6:	882c      	ldrh	r4, [r5, #0]
 8000ee8:	191b      	adds	r3, r3, r4
 8000eea:	4c5a      	ldr	r4, [pc, #360]	@ (8001054 <TIM16_callback+0x250>)
 8000eec:	46a4      	mov	ip, r4
 8000eee:	4463      	add	r3, ip
 8000ef0:	005b      	lsls	r3, r3, #1
 8000ef2:	18d3      	adds	r3, r2, r3
 8000ef4:	881b      	ldrh	r3, [r3, #0]
 8000ef6:	b29b      	uxth	r3, r3
 8000ef8:	8003      	strh	r3, [r0, #0]
	}
	else{
		duty_delayed = *(duty_delay_line_storage_array + duty_delay_line_start_offset + duty_delay_line_read_pointer_offset);
	}

	TIM16_callback_active = NO;
 8000efa:	2300      	movs	r3, #0
 8000efc:	700b      	strb	r3, [r1, #0]

	HAL_ADC_Start_DMA(&hadc1, (uint32_t*)ADCResultsDMA, (uint32_t)num_ADC_conversions); //this function takes ages to execute!
 8000efe:	4b56      	ldr	r3, [pc, #344]	@ (8001058 <TIM16_callback+0x254>)
 8000f00:	4956      	ldr	r1, [pc, #344]	@ (800105c <TIM16_callback+0x258>)
 8000f02:	781a      	ldrb	r2, [r3, #0]
 8000f04:	4856      	ldr	r0, [pc, #344]	@ (8001060 <TIM16_callback+0x25c>)
 8000f06:	f001 ff4d 	bl	8002da4 <HAL_ADC_Start_DMA>
}
 8000f0a:	b002      	add	sp, #8
 8000f0c:	bd70      	pop	{r4, r5, r6, pc}
	else if(current_index == SECOND_QUADRANT_START_INDEX){
 8000f0e:	881d      	ldrh	r5, [r3, #0]
 8000f10:	2d80      	cmp	r5, #128	@ 0x80
 8000f12:	d051      	beq.n	8000fb8 <TIM16_callback+0x1b4>
	else if(current_index == THIRD_QUADRANT_START_INDEX){
 8000f14:	2580      	movs	r5, #128	@ 0x80
 8000f16:	881e      	ldrh	r6, [r3, #0]
 8000f18:	006d      	lsls	r5, r5, #1
 8000f1a:	42ae      	cmp	r6, r5
 8000f1c:	d061      	beq.n	8000fe2 <TIM16_callback+0x1de>
	else if(current_index == FOURTH_QUADRANT_START_INDEX){
 8000f1e:	881d      	ldrh	r5, [r3, #0]
 8000f20:	23c0      	movs	r3, #192	@ 0xc0
 8000f22:	005b      	lsls	r3, r3, #1
 8000f24:	429d      	cmp	r5, r3
 8000f26:	d1b1      	bne.n	8000e8c <TIM16_callback+0x88>
		current_quadrant = SECOND_QUADRANT;
 8000f28:	2501      	movs	r5, #1
 8000f2a:	4b3f      	ldr	r3, [pc, #252]	@ (8001028 <TIM16_callback+0x224>)
 8000f2c:	701d      	strb	r5, [r3, #0]
		current_halfcycle = SECOND_HALFCYCLE;
 8000f2e:	4b3f      	ldr	r3, [pc, #252]	@ (800102c <TIM16_callback+0x228>)
 8000f30:	701d      	strb	r5, [r3, #0]
 8000f32:	e7ab      	b.n	8000e8c <TIM16_callback+0x88>

uint8_t Multiply_Duty_By_Current_Depth_and_Divide_By_256(void)
{
	volatile uint32_t multiply_product = 0;
 8000f34:	2500      	movs	r5, #0
 8000f36:	9501      	str	r5, [sp, #4]

	//Perform: (duty*current_depth) / 256
	multiply_product = duty * current_depth; //compiler should compile this as a hardware multiplication, but need to check
 8000f38:	8815      	ldrh	r5, [r2, #0]
 8000f3a:	881b      	ldrh	r3, [r3, #0]
 8000f3c:	436b      	muls	r3, r5
 8000f3e:	9301      	str	r3, [sp, #4]
    duty = 1023 - (uint16_t)(multiply_product >> 8);
 8000f40:	9d01      	ldr	r5, [sp, #4]
 8000f42:	4b3f      	ldr	r3, [pc, #252]	@ (8001040 <TIM16_callback+0x23c>)
 8000f44:	0a2d      	lsrs	r5, r5, #8
 8000f46:	1b5b      	subs	r3, r3, r5
 8000f48:	b29b      	uxth	r3, r3
 8000f4a:	8013      	strh	r3, [r2, #0]

    return 1;
 8000f4c:	e7a8      	b.n	8000ea0 <TIM16_callback+0x9c>
	else if(current_waveshape == SINE_MODE){
 8000f4e:	7815      	ldrb	r5, [r2, #0]
 8000f50:	2d01      	cmp	r5, #1
 8000f52:	d03f      	beq.n	8000fd4 <TIM16_callback+0x1d0>
	else if((current_waveshape == SQUARE_MODE) && (current_index < THIRD_QUADRANT_START_INDEX)){
 8000f54:	7815      	ldrb	r5, [r2, #0]
 8000f56:	2d02      	cmp	r5, #2
 8000f58:	d04a      	beq.n	8000ff0 <TIM16_callback+0x1ec>
	else if((current_waveshape == SQUARE_MODE) && (current_index >= THIRD_QUADRANT_START_INDEX)){
 8000f5a:	7812      	ldrb	r2, [r2, #0]
 8000f5c:	2a02      	cmp	r2, #2
 8000f5e:	d032      	beq.n	8000fc6 <TIM16_callback+0x1c2>
 8000f60:	4a35      	ldr	r2, [pc, #212]	@ (8001038 <TIM16_callback+0x234>)
 8000f62:	e78b      	b.n	8000e7c <TIM16_callback+0x78>
		duty_delayed = *(duty_delay_line_storage_array + duty_delay_line_start_offset + duty_delay_line_read_pointer_offset);
 8000f64:	882c      	ldrh	r4, [r5, #0]
 8000f66:	191b      	adds	r3, r3, r4
 8000f68:	005b      	lsls	r3, r3, #1
 8000f6a:	18d2      	adds	r2, r2, r3
 8000f6c:	8813      	ldrh	r3, [r2, #0]
 8000f6e:	b29b      	uxth	r3, r3
 8000f70:	8003      	strh	r3, [r0, #0]
 8000f72:	e7c2      	b.n	8000efa <TIM16_callback+0xf6>
	else if(duty_delay_line_finish_offset == 0){
 8000f74:	4c35      	ldr	r4, [pc, #212]	@ (800104c <TIM16_callback+0x248>)
 8000f76:	8825      	ldrh	r5, [r4, #0]
 8000f78:	2d00      	cmp	r5, #0
 8000f7a:	d114      	bne.n	8000fa6 <TIM16_callback+0x1a2>
		duty_delay_line_finish_offset = FINAL_INDEX + 1;
 8000f7c:	2580      	movs	r5, #128	@ 0x80
 8000f7e:	00ad      	lsls	r5, r5, #2
 8000f80:	8025      	strh	r5, [r4, #0]
		duty_delay_line_start_offset = duty_delay_line_start_offset - 1;
 8000f82:	881c      	ldrh	r4, [r3, #0]
 8000f84:	3c01      	subs	r4, #1
 8000f86:	b2a4      	uxth	r4, r4
 8000f88:	801c      	strh	r4, [r3, #0]
 8000f8a:	e7a3      	b.n	8000ed4 <TIM16_callback+0xd0>
		duty_delay_line_storage_array[FINAL_INDEX + 1] = duty;
 8000f8c:	2580      	movs	r5, #128	@ 0x80
 8000f8e:	8814      	ldrh	r4, [r2, #0]
 8000f90:	4a2d      	ldr	r2, [pc, #180]	@ (8001048 <TIM16_callback+0x244>)
 8000f92:	b2a4      	uxth	r4, r4
 8000f94:	00ed      	lsls	r5, r5, #3
 8000f96:	5354      	strh	r4, [r2, r5]
 8000f98:	e791      	b.n	8000ebe <TIM16_callback+0xba>
			duty = 1023 - duty;
 8000f9a:	8815      	ldrh	r5, [r2, #0]
 8000f9c:	4b28      	ldr	r3, [pc, #160]	@ (8001040 <TIM16_callback+0x23c>)
 8000f9e:	1b5b      	subs	r3, r3, r5
 8000fa0:	b29b      	uxth	r3, r3
 8000fa2:	8013      	strh	r3, [r2, #0]
 8000fa4:	e77c      	b.n	8000ea0 <TIM16_callback+0x9c>
		duty_delay_line_start_offset = duty_delay_line_start_offset - 1;
 8000fa6:	881d      	ldrh	r5, [r3, #0]
 8000fa8:	3d01      	subs	r5, #1
 8000faa:	b2ad      	uxth	r5, r5
 8000fac:	801d      	strh	r5, [r3, #0]
		duty_delay_line_finish_offset = duty_delay_line_finish_offset - 1;
 8000fae:	8825      	ldrh	r5, [r4, #0]
 8000fb0:	3d01      	subs	r5, #1
 8000fb2:	b2ad      	uxth	r5, r5
 8000fb4:	8025      	strh	r5, [r4, #0]
 8000fb6:	e78d      	b.n	8000ed4 <TIM16_callback+0xd0>
		current_quadrant = SECOND_QUADRANT;
 8000fb8:	4b1b      	ldr	r3, [pc, #108]	@ (8001028 <TIM16_callback+0x224>)
 8000fba:	3d7f      	subs	r5, #127	@ 0x7f
 8000fbc:	701d      	strb	r5, [r3, #0]
		current_halfcycle = FIRST_HALFCYCLE;
 8000fbe:	2500      	movs	r5, #0
 8000fc0:	4b1a      	ldr	r3, [pc, #104]	@ (800102c <TIM16_callback+0x228>)
 8000fc2:	701d      	strb	r5, [r3, #0]
 8000fc4:	e762      	b.n	8000e8c <TIM16_callback+0x88>
	else if((current_waveshape == SQUARE_MODE) && (current_index >= THIRD_QUADRANT_START_INDEX)){
 8000fc6:	881a      	ldrh	r2, [r3, #0]
 8000fc8:	2aff      	cmp	r2, #255	@ 0xff
 8000fca:	d9c9      	bls.n	8000f60 <TIM16_callback+0x15c>
			duty = 0;
 8000fcc:	2500      	movs	r5, #0
 8000fce:	4a1a      	ldr	r2, [pc, #104]	@ (8001038 <TIM16_callback+0x234>)
 8000fd0:	8015      	strh	r5, [r2, #0]
 8000fd2:	e753      	b.n	8000e7c <TIM16_callback+0x78>
		duty = sine_wavetable[current_index];
 8000fd4:	881d      	ldrh	r5, [r3, #0]
 8000fd6:	4a23      	ldr	r2, [pc, #140]	@ (8001064 <TIM16_callback+0x260>)
 8000fd8:	006d      	lsls	r5, r5, #1
 8000fda:	5aad      	ldrh	r5, [r5, r2]
 8000fdc:	4a16      	ldr	r2, [pc, #88]	@ (8001038 <TIM16_callback+0x234>)
 8000fde:	8015      	strh	r5, [r2, #0]
 8000fe0:	e74c      	b.n	8000e7c <TIM16_callback+0x78>
		current_quadrant = FIRST_QUADRANT;
 8000fe2:	2500      	movs	r5, #0
 8000fe4:	4b10      	ldr	r3, [pc, #64]	@ (8001028 <TIM16_callback+0x224>)
 8000fe6:	701d      	strb	r5, [r3, #0]
		current_halfcycle = SECOND_HALFCYCLE;
 8000fe8:	4b10      	ldr	r3, [pc, #64]	@ (800102c <TIM16_callback+0x228>)
 8000fea:	3501      	adds	r5, #1
 8000fec:	701d      	strb	r5, [r3, #0]
 8000fee:	e74d      	b.n	8000e8c <TIM16_callback+0x88>
	else if((current_waveshape == SQUARE_MODE) && (current_index < THIRD_QUADRANT_START_INDEX)){
 8000ff0:	881d      	ldrh	r5, [r3, #0]
 8000ff2:	2dff      	cmp	r5, #255	@ 0xff
 8000ff4:	d8b1      	bhi.n	8000f5a <TIM16_callback+0x156>
		duty = 1023;
 8000ff6:	4a10      	ldr	r2, [pc, #64]	@ (8001038 <TIM16_callback+0x234>)
 8000ff8:	4d11      	ldr	r5, [pc, #68]	@ (8001040 <TIM16_callback+0x23c>)
 8000ffa:	8015      	strh	r5, [r2, #0]
 8000ffc:	e73e      	b.n	8000e7c <TIM16_callback+0x78>
 8000ffe:	46c0      	nop			@ (mov r8, r8)
 8001000:	20000ad8 	.word	0x20000ad8
 8001004:	40014400 	.word	0x40014400
 8001008:	20000ad6 	.word	0x20000ad6
 800100c:	20000aee 	.word	0x20000aee
 8001010:	20000508 	.word	0x20000508
 8001014:	20000ae4 	.word	0x20000ae4
 8001018:	40012c00 	.word	0x40012c00
 800101c:	200002d4 	.word	0x200002d4
 8001020:	200006b4 	.word	0x200006b4
 8001024:	20000af2 	.word	0x20000af2
 8001028:	20000af0 	.word	0x20000af0
 800102c:	20000af1 	.word	0x20000af1
 8001030:	20000afa 	.word	0x20000afa
 8001034:	08006d28 	.word	0x08006d28
 8001038:	20000ae6 	.word	0x20000ae6
 800103c:	20000af6 	.word	0x20000af6
 8001040:	000003ff 	.word	0x000003ff
 8001044:	20000004 	.word	0x20000004
 8001048:	200006b8 	.word	0x200006b8
 800104c:	20000002 	.word	0x20000002
 8001050:	200006b6 	.word	0x200006b6
 8001054:	7ffffe00 	.word	0x7ffffe00
 8001058:	08006d24 	.word	0x08006d24
 800105c:	20000adc 	.word	0x20000adc
 8001060:	20000620 	.word	0x20000620
 8001064:	08007128 	.word	0x08007128

08001068 <ADC_DMA_conversion_complete_callback>:
}

void ADC_DMA_conversion_complete_callback(ADC_HandleTypeDef *hadc)
{
 8001068:	b5f0      	push	{r4, r5, r6, r7, lr}
 800106a:	b089      	sub	sp, #36	@ 0x24
	HAL_ADC_Stop_DMA(hadc); //disable ADC DMA
 800106c:	f001 ff38 	bl	8002ee0 <HAL_ADC_Stop_DMA>

	//GET WAVESHAPE
	uint16_t ADC_result = ADCResultsDMA[0]; //set ADC_Result to waveshape index value
 8001070:	4b30      	ldr	r3, [pc, #192]	@ (8001134 <ADC_DMA_conversion_complete_callback+0xcc>)

	if(ADC_result <= TRIANGLE_MODE_ADC_THRESHOLD){
 8001072:	4931      	ldr	r1, [pc, #196]	@ (8001138 <ADC_DMA_conversion_complete_callback+0xd0>)
	uint16_t ADC_result = ADCResultsDMA[0]; //set ADC_Result to waveshape index value
 8001074:	881a      	ldrh	r2, [r3, #0]
 8001076:	b290      	uxth	r0, r2
	if(ADC_result <= TRIANGLE_MODE_ADC_THRESHOLD){
 8001078:	428a      	cmp	r2, r1
 800107a:	d848      	bhi.n	800110e <ADC_DMA_conversion_complete_callback+0xa6>
		current_waveshape = TRIANGLE_MODE; //triangle wave
 800107c:	2200      	movs	r2, #0
 800107e:	4c2f      	ldr	r4, [pc, #188]	@ (800113c <ADC_DMA_conversion_complete_callback+0xd4>)
 8001080:	7022      	strb	r2, [r4, #0]
	else{
		current_waveshape = SINE_MODE; //if error, return sine
	}

	//GET SPEED
	current_speed = ADCResultsDMA[1] >> 2; //convert to 10-bit
 8001082:	885a      	ldrh	r2, [r3, #2]
 8001084:	492e      	ldr	r1, [pc, #184]	@ (8001140 <ADC_DMA_conversion_complete_callback+0xd8>)
 8001086:	0892      	lsrs	r2, r2, #2
 8001088:	800a      	strh	r2, [r1, #0]

	//GET DEPTH
	#if DEPTH_ON_OR_OFF == ON
		//current_depth = ADCResultsDMA[2] >> 4; //convert to 8-bit
		duty_delay_line_read_pointer_offset = ADCResultsDMA[2] >> 3;
 800108a:	889a      	ldrh	r2, [r3, #4]
 800108c:	482d      	ldr	r0, [pc, #180]	@ (8001144 <ADC_DMA_conversion_complete_callback+0xdc>)
 800108e:	08d2      	lsrs	r2, r2, #3
 8001090:	8002      	strh	r2, [r0, #0]
			current_symmetry = ADCResultsDMA[3] >> 2;

		#endif

		#if SYMMETRY_ADC_RESOLUTION == 8
			current_symmetry = ADCResultsDMA[3] >> 4;
 8001092:	88db      	ldrh	r3, [r3, #6]
 8001094:	4e2c      	ldr	r6, [pc, #176]	@ (8001148 <ADC_DMA_conversion_complete_callback+0xe0>)
 8001096:	091b      	lsrs	r3, r3, #4
 8001098:	8033      	strh	r3, [r6, #0]
		#endif

	#endif

	//after initial conversion is complete, set the conversion complete flag
	if(initial_ADC_conversion_complete == NO){
 800109a:	4b2c      	ldr	r3, [pc, #176]	@ (800114c <ADC_DMA_conversion_complete_callback+0xe4>)
 800109c:	781a      	ldrb	r2, [r3, #0]
 800109e:	2a00      	cmp	r2, #0
 80010a0:	d101      	bne.n	80010a6 <ADC_DMA_conversion_complete_callback+0x3e>
		initial_ADC_conversion_complete = YES;
 80010a2:	3201      	adds	r2, #1
 80010a4:	701a      	strb	r2, [r3, #0]
	}

	if((tap_tempo_mode_is_active == NO) || (external_clock_mode_is_active == NO)){
 80010a6:	4b2a      	ldr	r3, [pc, #168]	@ (8001150 <ADC_DMA_conversion_complete_callback+0xe8>)
 80010a8:	781b      	ldrb	r3, [r3, #0]
 80010aa:	2b00      	cmp	r3, #0
 80010ac:	d003      	beq.n	80010b6 <ADC_DMA_conversion_complete_callback+0x4e>
 80010ae:	4b29      	ldr	r3, [pc, #164]	@ (8001154 <ADC_DMA_conversion_complete_callback+0xec>)
 80010b0:	781b      	ldrb	r3, [r3, #0]
 80010b2:	2b00      	cmp	r3, #0
 80010b4:	d125      	bne.n	8001102 <ADC_DMA_conversion_complete_callback+0x9a>

		Process_TIM16_Raw_Start_Value_and_Raw_Prescaler(current_speed, SPEED_ADC_RESOLUTION, NUMBER_OF_FREQUENCY_STEPS, &TIM16_raw_start_value, &TIM16_raw_prescaler);
 80010b6:	22a5      	movs	r2, #165	@ 0xa5
 80010b8:	8808      	ldrh	r0, [r1, #0]
 80010ba:	4d27      	ldr	r5, [pc, #156]	@ (8001158 <ADC_DMA_conversion_complete_callback+0xf0>)
 80010bc:	4f27      	ldr	r7, [pc, #156]	@ (800115c <ADC_DMA_conversion_complete_callback+0xf4>)
 80010be:	0092      	lsls	r2, r2, #2
 80010c0:	002b      	movs	r3, r5
 80010c2:	210a      	movs	r1, #10
 80010c4:	b280      	uxth	r0, r0
 80010c6:	9700      	str	r7, [sp, #0]
 80010c8:	f000 fcfe 	bl	8001ac8 <Process_TIM16_Raw_Start_Value_and_Raw_Prescaler>
		Process_TIM16_Final_Start_Value_and_Final_Prescaler(TIM16_raw_start_value, &TIM16_final_start_value, TIM16_raw_prescaler, &TIM16_final_prescaler, current_symmetry, current_waveshape, current_halfcycle, current_quadrant, current_index);
 80010cc:	8828      	ldrh	r0, [r5, #0]
 80010ce:	883a      	ldrh	r2, [r7, #0]
 80010d0:	b280      	uxth	r0, r0
	}
	else{ //tap tempo mode or ext. clock mode active - use raw 'to_be_loaded' values to calculate final values

		Process_TIM16_Final_Start_Value_and_Final_Prescaler(TIM16_raw_start_value_to_be_loaded, &TIM16_final_start_value, TIM16_raw_prescaler_to_be_loaded, &TIM16_final_prescaler, current_symmetry, current_waveshape, current_halfcycle, current_quadrant, current_index);
 80010d2:	4b23      	ldr	r3, [pc, #140]	@ (8001160 <ADC_DMA_conversion_complete_callback+0xf8>)
 80010d4:	8835      	ldrh	r5, [r6, #0]
 80010d6:	7824      	ldrb	r4, [r4, #0]
 80010d8:	781e      	ldrb	r6, [r3, #0]
 80010da:	4b22      	ldr	r3, [pc, #136]	@ (8001164 <ADC_DMA_conversion_complete_callback+0xfc>)
 80010dc:	4922      	ldr	r1, [pc, #136]	@ (8001168 <ADC_DMA_conversion_complete_callback+0x100>)
 80010de:	781f      	ldrb	r7, [r3, #0]
 80010e0:	4b22      	ldr	r3, [pc, #136]	@ (800116c <ADC_DMA_conversion_complete_callback+0x104>)
 80010e2:	b292      	uxth	r2, r2
 80010e4:	881b      	ldrh	r3, [r3, #0]
 80010e6:	9703      	str	r7, [sp, #12]
 80010e8:	469c      	mov	ip, r3
 80010ea:	4b21      	ldr	r3, [pc, #132]	@ (8001170 <ADC_DMA_conversion_complete_callback+0x108>)
 80010ec:	9602      	str	r6, [sp, #8]
 80010ee:	9307      	str	r3, [sp, #28]
 80010f0:	4663      	mov	r3, ip
 80010f2:	9401      	str	r4, [sp, #4]
 80010f4:	9304      	str	r3, [sp, #16]
 80010f6:	9500      	str	r5, [sp, #0]
 80010f8:	9b07      	ldr	r3, [sp, #28]
 80010fa:	f000 fcfd 	bl	8001af8 <Process_TIM16_Final_Start_Value_and_Final_Prescaler>
	}
}
 80010fe:	b009      	add	sp, #36	@ 0x24
 8001100:	bdf0      	pop	{r4, r5, r6, r7, pc}
		Process_TIM16_Final_Start_Value_and_Final_Prescaler(TIM16_raw_start_value_to_be_loaded, &TIM16_final_start_value, TIM16_raw_prescaler_to_be_loaded, &TIM16_final_prescaler, current_symmetry, current_waveshape, current_halfcycle, current_quadrant, current_index);
 8001102:	4b1c      	ldr	r3, [pc, #112]	@ (8001174 <ADC_DMA_conversion_complete_callback+0x10c>)
 8001104:	8818      	ldrh	r0, [r3, #0]
 8001106:	4b1c      	ldr	r3, [pc, #112]	@ (8001178 <ADC_DMA_conversion_complete_callback+0x110>)
 8001108:	b280      	uxth	r0, r0
 800110a:	881a      	ldrh	r2, [r3, #0]
 800110c:	e7e1      	b.n	80010d2 <ADC_DMA_conversion_complete_callback+0x6a>
	else if (ADC_result <= SINE_MODE_ADC_THRESHOLD){
 800110e:	4a1b      	ldr	r2, [pc, #108]	@ (800117c <ADC_DMA_conversion_complete_callback+0x114>)
 8001110:	4290      	cmp	r0, r2
 8001112:	d803      	bhi.n	800111c <ADC_DMA_conversion_complete_callback+0xb4>
		current_waveshape = SINE_MODE; //sine wave
 8001114:	2201      	movs	r2, #1
 8001116:	4c09      	ldr	r4, [pc, #36]	@ (800113c <ADC_DMA_conversion_complete_callback+0xd4>)
 8001118:	7022      	strb	r2, [r4, #0]
 800111a:	e7b2      	b.n	8001082 <ADC_DMA_conversion_complete_callback+0x1a>
	else if (ADC_result <= SQUARE_MODE_ADC_THRESHOLD){
 800111c:	2280      	movs	r2, #128	@ 0x80
		current_waveshape = SQUARE_MODE; //square wave
 800111e:	4c07      	ldr	r4, [pc, #28]	@ (800113c <ADC_DMA_conversion_complete_callback+0xd4>)
	else if (ADC_result <= SQUARE_MODE_ADC_THRESHOLD){
 8001120:	0152      	lsls	r2, r2, #5
 8001122:	4290      	cmp	r0, r2
 8001124:	d202      	bcs.n	800112c <ADC_DMA_conversion_complete_callback+0xc4>
		current_waveshape = SQUARE_MODE; //square wave
 8001126:	2202      	movs	r2, #2
 8001128:	7022      	strb	r2, [r4, #0]
 800112a:	e7aa      	b.n	8001082 <ADC_DMA_conversion_complete_callback+0x1a>
		current_waveshape = SINE_MODE; //if error, return sine
 800112c:	2201      	movs	r2, #1
 800112e:	7022      	strb	r2, [r4, #0]
 8001130:	e7a7      	b.n	8001082 <ADC_DMA_conversion_complete_callback+0x1a>
 8001132:	46c0      	nop			@ (mov r8, r8)
 8001134:	20000adc 	.word	0x20000adc
 8001138:	00000555 	.word	0x00000555
 800113c:	20000afa 	.word	0x20000afa
 8001140:	20000af8 	.word	0x20000af8
 8001144:	200006b6 	.word	0x200006b6
 8001148:	20000af4 	.word	0x20000af4
 800114c:	20000ad9 	.word	0x20000ad9
 8001150:	200006b2 	.word	0x200006b2
 8001154:	200006ae 	.word	0x200006ae
 8001158:	20000aea 	.word	0x20000aea
 800115c:	20000ae8 	.word	0x20000ae8
 8001160:	20000af1 	.word	0x20000af1
 8001164:	20000af0 	.word	0x20000af0
 8001168:	20000aee 	.word	0x20000aee
 800116c:	20000af2 	.word	0x20000af2
 8001170:	20000ae4 	.word	0x20000ae4
 8001174:	20000ac8 	.word	0x20000ac8
 8001178:	20000ac4 	.word	0x20000ac4
 800117c:	00000aaa 	.word	0x00000aaa

08001180 <TIM2_ch1_IP_capture_callback>:

void TIM2_ch1_IP_capture_callback(TIM_HandleTypeDef *htim){

	TIM2_ch1_input_capture_value = HAL_TIM_ReadCapturedValue(htim, TIM_CHANNEL_1);
 8001180:	2100      	movs	r1, #0
void TIM2_ch1_IP_capture_callback(TIM_HandleTypeDef *htim){
 8001182:	b570      	push	{r4, r5, r6, lr}
	TIM2_ch1_input_capture_value = HAL_TIM_ReadCapturedValue(htim, TIM_CHANNEL_1);
 8001184:	f004 fd60 	bl	8005c48 <HAL_TIM_ReadCapturedValue>
 8001188:	4b28      	ldr	r3, [pc, #160]	@ (800122c <TIM2_ch1_IP_capture_callback+0xac>)

	interrupt_period = TIM2_ch1_input_capture_value >> 9; //divided by 512
 800118a:	4c29      	ldr	r4, [pc, #164]	@ (8001230 <TIM2_ch1_IP_capture_callback+0xb0>)
	TIM2_ch1_input_capture_value = HAL_TIM_ReadCapturedValue(htim, TIM_CHANNEL_1);
 800118c:	6018      	str	r0, [r3, #0]
	interrupt_period = TIM2_ch1_input_capture_value >> 9; //divided by 512
 800118e:	681b      	ldr	r3, [r3, #0]
 8001190:	0a5b      	lsrs	r3, r3, #9
 8001192:	b29b      	uxth	r3, r3
 8001194:	8023      	strh	r3, [r4, #0]

	//since the input capture measurement is z, and this is 512x the interrupt period, we just use the interrupt
	//period = z/512 as the 'elapse period value' if we also set the elapse timer prescaler to 512x less than the
	//input capture measurement timer

	if(input_capture_event == FIRST){ //edge detected is the first
 8001196:	4b27      	ldr	r3, [pc, #156]	@ (8001234 <TIM2_ch1_IP_capture_callback+0xb4>)
 8001198:	781a      	ldrb	r2, [r3, #0]
 800119a:	b2d1      	uxtb	r1, r2
 800119c:	2a00      	cmp	r2, #0
 800119e:	d107      	bne.n	80011b0 <TIM2_ch1_IP_capture_callback+0x30>

		__HAL_TIM_SET_COUNTER(&htim2, 0); //begin measurement
 80011a0:	4a25      	ldr	r2, [pc, #148]	@ (8001238 <TIM2_ch1_IP_capture_callback+0xb8>)
 80011a2:	6812      	ldr	r2, [r2, #0]
 80011a4:	6251      	str	r1, [r2, #36]	@ 0x24
		input_capture_measurement_is_ongoing = YES;
 80011a6:	2101      	movs	r1, #1
 80011a8:	4a24      	ldr	r2, [pc, #144]	@ (800123c <TIM2_ch1_IP_capture_callback+0xbc>)
 80011aa:	7011      	strb	r1, [r2, #0]
		input_capture_event = SECOND;
 80011ac:	7019      	strb	r1, [r3, #0]
			HAL_GPIO_WritePin(MONITOR_GPIO_Port, MONITOR_Pin, 0);

			input_capture_processing_can_be_started = YES;
		}
	}
}
 80011ae:	bd70      	pop	{r4, r5, r6, pc}
		input_capture_event = FIRST; //reset event name
 80011b0:	2500      	movs	r5, #0
 80011b2:	701d      	strb	r5, [r3, #0]
		input_capture_measurement_is_ongoing = NO;
 80011b4:	4b21      	ldr	r3, [pc, #132]	@ (800123c <TIM2_ch1_IP_capture_callback+0xbc>)
		if(input_capture_measurement_reelapse_is_ongoing == YES){
 80011b6:	4e22      	ldr	r6, [pc, #136]	@ (8001240 <TIM2_ch1_IP_capture_callback+0xc0>)
		input_capture_measurement_is_ongoing = NO;
 80011b8:	701d      	strb	r5, [r3, #0]
		if(input_capture_measurement_reelapse_is_ongoing == YES){
 80011ba:	7833      	ldrb	r3, [r6, #0]
 80011bc:	2b01      	cmp	r3, #1
 80011be:	d02a      	beq.n	8001216 <TIM2_ch1_IP_capture_callback+0x96>
			if(interrupt_period < HIGHEST_PRESCALER_TOP_SPEED_PERIOD){ //if the captured value/512 is less than 129, then the desired speed is not reproducable, so just set the absolute top speed (i.e. highest prescaler and shortest period)
 80011c0:	8823      	ldrh	r3, [r4, #0]
 80011c2:	2b80      	cmp	r3, #128	@ 0x80
 80011c4:	d918      	bls.n	80011f8 <TIM2_ch1_IP_capture_callback+0x78>
				HAL_GPIO_WritePin(MONITOR_GPIO_Port, MONITOR_Pin, 1);
 80011c6:	2201      	movs	r2, #1
 80011c8:	2140      	movs	r1, #64	@ 0x40
 80011ca:	481e      	ldr	r0, [pc, #120]	@ (8001244 <TIM2_ch1_IP_capture_callback+0xc4>)
 80011cc:	f002 faac 	bl	8003728 <HAL_GPIO_WritePin>
				__HAL_TIM_SET_COUNTER(&htim3, 0);
 80011d0:	481d      	ldr	r0, [pc, #116]	@ (8001248 <TIM2_ch1_IP_capture_callback+0xc8>)
				Start_OC_TIM(&htim3, TIM_CHANNEL_1);
 80011d2:	2100      	movs	r1, #0
				__HAL_TIM_SET_COUNTER(&htim3, 0);
 80011d4:	6802      	ldr	r2, [r0, #0]
 80011d6:	6255      	str	r5, [r2, #36]	@ 0x24
				__HAL_TIM_SET_COMPARE(&htim3, TIM_CHANNEL_1, interrupt_period); //measured value divided by 512
 80011d8:	8823      	ldrh	r3, [r4, #0]
 80011da:	b29b      	uxth	r3, r3
 80011dc:	6353      	str	r3, [r2, #52]	@ 0x34
				Start_OC_TIM(&htim3, TIM_CHANNEL_1);
 80011de:	f000 fc47 	bl	8001a70 <Start_OC_TIM>
				input_capture_measurement_reelapse_is_ongoing = YES;
 80011e2:	2301      	movs	r3, #1
 80011e4:	7033      	strb	r3, [r6, #0]
			HAL_GPIO_WritePin(MONITOR_GPIO_Port, MONITOR_Pin, 0);
 80011e6:	2200      	movs	r2, #0
 80011e8:	2140      	movs	r1, #64	@ 0x40
 80011ea:	4816      	ldr	r0, [pc, #88]	@ (8001244 <TIM2_ch1_IP_capture_callback+0xc4>)
 80011ec:	f002 fa9c 	bl	8003728 <HAL_GPIO_WritePin>
			input_capture_processing_can_be_started = YES;
 80011f0:	2201      	movs	r2, #1
 80011f2:	4b16      	ldr	r3, [pc, #88]	@ (800124c <TIM2_ch1_IP_capture_callback+0xcc>)
 80011f4:	701a      	strb	r2, [r3, #0]
}
 80011f6:	e7da      	b.n	80011ae <TIM2_ch1_IP_capture_callback+0x2e>
				interrupt_period = HIGHEST_PRESCALER_TOP_SPEED_PERIOD;
 80011f8:	2281      	movs	r2, #129	@ 0x81
				TIM16_raw_prescaler_to_be_loaded = 64;
 80011fa:	2140      	movs	r1, #64	@ 0x40
 80011fc:	4b14      	ldr	r3, [pc, #80]	@ (8001250 <TIM2_ch1_IP_capture_callback+0xd0>)
				__HAL_TIM_SET_COUNTER(&htim3, 0);
 80011fe:	4812      	ldr	r0, [pc, #72]	@ (8001248 <TIM2_ch1_IP_capture_callback+0xc8>)
				interrupt_period = HIGHEST_PRESCALER_TOP_SPEED_PERIOD;
 8001200:	8022      	strh	r2, [r4, #0]
				TIM16_raw_prescaler_to_be_loaded = 64;
 8001202:	8019      	strh	r1, [r3, #0]
				__HAL_TIM_SET_COUNTER(&htim3, 0);
 8001204:	6803      	ldr	r3, [r0, #0]
				Start_OC_TIM(&htim3, TIM_CHANNEL_1);
 8001206:	2100      	movs	r1, #0
				__HAL_TIM_SET_COUNTER(&htim3, 0);
 8001208:	625d      	str	r5, [r3, #36]	@ 0x24
				__HAL_TIM_SET_COMPARE(&htim3, TIM_CHANNEL_1, HIGHEST_PRESCALER_TOP_SPEED_PERIOD);
 800120a:	635a      	str	r2, [r3, #52]	@ 0x34
				Start_OC_TIM(&htim3, TIM_CHANNEL_1);
 800120c:	f000 fc30 	bl	8001a70 <Start_OC_TIM>
				input_capture_measurement_reelapse_is_ongoing = YES;
 8001210:	2301      	movs	r3, #1
 8001212:	7033      	strb	r3, [r6, #0]
 8001214:	e7e7      	b.n	80011e6 <TIM2_ch1_IP_capture_callback+0x66>
			__HAL_TIM_SET_COUNTER(&htim3, 0);
 8001216:	480c      	ldr	r0, [pc, #48]	@ (8001248 <TIM2_ch1_IP_capture_callback+0xc8>)
			Start_OC_TIM(&htim3, TIM_CHANNEL_1);
 8001218:	2100      	movs	r1, #0
			__HAL_TIM_SET_COUNTER(&htim3, 0);
 800121a:	6802      	ldr	r2, [r0, #0]
 800121c:	6255      	str	r5, [r2, #36]	@ 0x24
			__HAL_TIM_SET_COMPARE(&htim3, TIM_CHANNEL_1, interrupt_period);
 800121e:	8823      	ldrh	r3, [r4, #0]
 8001220:	b29b      	uxth	r3, r3
 8001222:	6353      	str	r3, [r2, #52]	@ 0x34
			Start_OC_TIM(&htim3, TIM_CHANNEL_1);
 8001224:	f000 fc24 	bl	8001a70 <Start_OC_TIM>
 8001228:	e7c1      	b.n	80011ae <TIM2_ch1_IP_capture_callback+0x2e>
 800122a:	46c0      	nop			@ (mov r8, r8)
 800122c:	20000ad0 	.word	0x20000ad0
 8001230:	20000acc 	.word	0x20000acc
 8001234:	20000ad4 	.word	0x20000ad4
 8001238:	2000044c 	.word	0x2000044c
 800123c:	20000acf 	.word	0x20000acf
 8001240:	20000ace 	.word	0x20000ace
 8001244:	50000400 	.word	0x50000400
 8001248:	20000390 	.word	0x20000390
 800124c:	200006af 	.word	0x200006af
 8001250:	20000ac4 	.word	0x20000ac4

08001254 <TIM2_ch1_overflow_callback>:

void TIM2_ch1_overflow_callback(TIM_HandleTypeDef *htim){

	if(input_capture_measurement_is_ongoing == YES && input_capture_event == SECOND){
 8001254:	4b06      	ldr	r3, [pc, #24]	@ (8001270 <TIM2_ch1_overflow_callback+0x1c>)
 8001256:	781a      	ldrb	r2, [r3, #0]
 8001258:	2a01      	cmp	r2, #1
 800125a:	d000      	beq.n	800125e <TIM2_ch1_overflow_callback+0xa>
		//Thus, reset everything requiring the user to press the switch again to start another capture

		input_capture_measurement_is_ongoing = NO;
		input_capture_event = FIRST;
	}
}
 800125c:	4770      	bx	lr
	if(input_capture_measurement_is_ongoing == YES && input_capture_event == SECOND){
 800125e:	4a05      	ldr	r2, [pc, #20]	@ (8001274 <TIM2_ch1_overflow_callback+0x20>)
 8001260:	7811      	ldrb	r1, [r2, #0]
 8001262:	2901      	cmp	r1, #1
 8001264:	d1fa      	bne.n	800125c <TIM2_ch1_overflow_callback+0x8>
		input_capture_measurement_is_ongoing = NO;
 8001266:	2100      	movs	r1, #0
 8001268:	7019      	strb	r1, [r3, #0]
		input_capture_event = FIRST;
 800126a:	7011      	strb	r1, [r2, #0]
}
 800126c:	e7f6      	b.n	800125c <TIM2_ch1_overflow_callback+0x8>
 800126e:	46c0      	nop			@ (mov r8, r8)
 8001270:	20000acf 	.word	0x20000acf
 8001274:	20000ad4 	.word	0x20000ad4

08001278 <TIM3_ch1_IP_capture_measurement_reelapse_callback>:

void TIM3_ch1_IP_capture_measurement_reelapse_callback(TIM_HandleTypeDef *htim){
 8001278:	b570      	push	{r4, r5, r6, lr}

	//force update of timers to sync the wave to the TIM3 reelapse interrupt

	HAL_GPIO_WritePin(MONITOR_GPIO_Port, MONITOR_Pin, 1);
 800127a:	4c21      	ldr	r4, [pc, #132]	@ (8001300 <TIM3_ch1_IP_capture_measurement_reelapse_callback+0x88>)
 800127c:	2201      	movs	r2, #1
 800127e:	0020      	movs	r0, r4
 8001280:	2140      	movs	r1, #64	@ 0x40
 8001282:	f002 fa51 	bl	8003728 <HAL_GPIO_WritePin>

	TIM16->EGR |= TIM_EGR_UG; //DO NOT DELETE THIS LINE, IT LITERALLY MAKES OR BREAKS THE BASTARD - It triggers an 'update' event
 8001286:	2101      	movs	r1, #1
 8001288:	4a1e      	ldr	r2, [pc, #120]	@ (8001304 <TIM3_ch1_IP_capture_measurement_reelapse_callback+0x8c>)
	__HAL_TIM_SET_COUNTER(&htim16, TIM16_final_start_value_to_be_loaded); //this line must go here, or at least very near the beginning!
 800128a:	4e1f      	ldr	r6, [pc, #124]	@ (8001308 <TIM3_ch1_IP_capture_measurement_reelapse_callback+0x90>)
	TIM16->EGR |= TIM_EGR_UG; //DO NOT DELETE THIS LINE, IT LITERALLY MAKES OR BREAKS THE BASTARD - It triggers an 'update' event
 800128c:	6953      	ldr	r3, [r2, #20]
	__HAL_TIM_SET_PRESCALER(&htim16, TIM16_final_prescaler_to_be_loaded - 1); //have to take one off the divisor
 800128e:	4d1f      	ldr	r5, [pc, #124]	@ (800130c <TIM3_ch1_IP_capture_measurement_reelapse_callback+0x94>)
	TIM16->EGR |= TIM_EGR_UG; //DO NOT DELETE THIS LINE, IT LITERALLY MAKES OR BREAKS THE BASTARD - It triggers an 'update' event
 8001290:	430b      	orrs	r3, r1
 8001292:	6153      	str	r3, [r2, #20]
	__HAL_TIM_SET_COUNTER(&htim16, TIM16_final_start_value_to_be_loaded); //this line must go here, or at least very near the beginning!
 8001294:	4a1e      	ldr	r2, [pc, #120]	@ (8001310 <TIM3_ch1_IP_capture_measurement_reelapse_callback+0x98>)
 8001296:	8833      	ldrh	r3, [r6, #0]
 8001298:	6812      	ldr	r2, [r2, #0]
 800129a:	b29b      	uxth	r3, r3
 800129c:	6253      	str	r3, [r2, #36]	@ 0x24
	__HAL_TIM_SET_PRESCALER(&htim16, TIM16_final_prescaler_to_be_loaded - 1); //have to take one off the divisor
 800129e:	882b      	ldrh	r3, [r5, #0]
	TIM1->EGR |= TIM_EGR_UG; //not sure if we really need this line but gonna keep it here because it worked wonders for TIM16
	__HAL_TIM_SET_COMPARE(&htim1, TIM_CHANNEL_2, duty_to_be_loaded); //updates the CCR register of TIM14, which sets duty, i.e. the ON time relative to the total period which is set by the ARR.

	//ADD CODE TO WORK OUT THE SECONDARY OSCILLATOR DELAYED VALUE SO BOTH CAN UPDATE SIMULTANEOUSLY, IT WILL BE MUCH BETTER THAT WAY

	Stop_OC_TIM(&htim3, TIM_CHANNEL_1);
 80012a0:	481c      	ldr	r0, [pc, #112]	@ (8001314 <TIM3_ch1_IP_capture_measurement_reelapse_callback+0x9c>)
	__HAL_TIM_SET_PRESCALER(&htim16, TIM16_final_prescaler_to_be_loaded - 1); //have to take one off the divisor
 80012a2:	3b01      	subs	r3, #1
 80012a4:	6293      	str	r3, [r2, #40]	@ 0x28
	TIM1->EGR |= TIM_EGR_UG; //not sure if we really need this line but gonna keep it here because it worked wonders for TIM16
 80012a6:	4a1c      	ldr	r2, [pc, #112]	@ (8001318 <TIM3_ch1_IP_capture_measurement_reelapse_callback+0xa0>)
 80012a8:	6953      	ldr	r3, [r2, #20]
 80012aa:	430b      	orrs	r3, r1
 80012ac:	6153      	str	r3, [r2, #20]
	__HAL_TIM_SET_COMPARE(&htim1, TIM_CHANNEL_2, duty_to_be_loaded); //updates the CCR register of TIM14, which sets duty, i.e. the ON time relative to the total period which is set by the ARR.
 80012ae:	4b1b      	ldr	r3, [pc, #108]	@ (800131c <TIM3_ch1_IP_capture_measurement_reelapse_callback+0xa4>)
 80012b0:	4a1b      	ldr	r2, [pc, #108]	@ (8001320 <TIM3_ch1_IP_capture_measurement_reelapse_callback+0xa8>)
 80012b2:	881b      	ldrh	r3, [r3, #0]
 80012b4:	6812      	ldr	r2, [r2, #0]
 80012b6:	b29b      	uxth	r3, r3
 80012b8:	6393      	str	r3, [r2, #56]	@ 0x38
	Stop_OC_TIM(&htim3, TIM_CHANNEL_1);
 80012ba:	2100      	movs	r1, #0
 80012bc:	f000 fbe2 	bl	8001a84 <Stop_OC_TIM>

	input_capture_measurement_reelapse_is_ongoing = NO;
 80012c0:	2200      	movs	r2, #0
 80012c2:	4b18      	ldr	r3, [pc, #96]	@ (8001324 <TIM3_ch1_IP_capture_measurement_reelapse_callback+0xac>)

	//set the values to the 'to be loaded' values such that the TIM16 continually loads these if the speed pot is disabled
	TIM16_final_start_value = TIM16_final_start_value_to_be_loaded;
	TIM16_final_prescaler = TIM16_final_prescaler_to_be_loaded;

	HAL_GPIO_WritePin(MONITOR_GPIO_Port, MONITOR_Pin, 0);
 80012c4:	2140      	movs	r1, #64	@ 0x40
	input_capture_measurement_reelapse_is_ongoing = NO;
 80012c6:	701a      	strb	r2, [r3, #0]
	current_index = current_index_to_be_loaded;
 80012c8:	4b17      	ldr	r3, [pc, #92]	@ (8001328 <TIM3_ch1_IP_capture_measurement_reelapse_callback+0xb0>)
 80012ca:	4a18      	ldr	r2, [pc, #96]	@ (800132c <TIM3_ch1_IP_capture_measurement_reelapse_callback+0xb4>)
 80012cc:	881b      	ldrh	r3, [r3, #0]
	HAL_GPIO_WritePin(MONITOR_GPIO_Port, MONITOR_Pin, 0);
 80012ce:	0020      	movs	r0, r4
	current_index = current_index_to_be_loaded;
 80012d0:	b29b      	uxth	r3, r3
 80012d2:	8013      	strh	r3, [r2, #0]
	current_halfcycle = current_halfcycle_to_be_loaded;
 80012d4:	4b16      	ldr	r3, [pc, #88]	@ (8001330 <TIM3_ch1_IP_capture_measurement_reelapse_callback+0xb8>)
 80012d6:	4a17      	ldr	r2, [pc, #92]	@ (8001334 <TIM3_ch1_IP_capture_measurement_reelapse_callback+0xbc>)
 80012d8:	781b      	ldrb	r3, [r3, #0]
 80012da:	b2db      	uxtb	r3, r3
 80012dc:	7013      	strb	r3, [r2, #0]
	current_quadrant = current_quadrant_to_be_loaded;
 80012de:	4b16      	ldr	r3, [pc, #88]	@ (8001338 <TIM3_ch1_IP_capture_measurement_reelapse_callback+0xc0>)
 80012e0:	4a16      	ldr	r2, [pc, #88]	@ (800133c <TIM3_ch1_IP_capture_measurement_reelapse_callback+0xc4>)
 80012e2:	781b      	ldrb	r3, [r3, #0]
 80012e4:	b2db      	uxtb	r3, r3
 80012e6:	7013      	strb	r3, [r2, #0]
	TIM16_final_start_value = TIM16_final_start_value_to_be_loaded;
 80012e8:	8833      	ldrh	r3, [r6, #0]
 80012ea:	4a15      	ldr	r2, [pc, #84]	@ (8001340 <TIM3_ch1_IP_capture_measurement_reelapse_callback+0xc8>)
 80012ec:	b29b      	uxth	r3, r3
 80012ee:	8013      	strh	r3, [r2, #0]
	TIM16_final_prescaler = TIM16_final_prescaler_to_be_loaded;
 80012f0:	882b      	ldrh	r3, [r5, #0]
 80012f2:	4a14      	ldr	r2, [pc, #80]	@ (8001344 <TIM3_ch1_IP_capture_measurement_reelapse_callback+0xcc>)
 80012f4:	b29b      	uxth	r3, r3
 80012f6:	8013      	strh	r3, [r2, #0]
	HAL_GPIO_WritePin(MONITOR_GPIO_Port, MONITOR_Pin, 0);
 80012f8:	2200      	movs	r2, #0
 80012fa:	f002 fa15 	bl	8003728 <HAL_GPIO_WritePin>
}
 80012fe:	bd70      	pop	{r4, r5, r6, pc}
 8001300:	50000400 	.word	0x50000400
 8001304:	40014400 	.word	0x40014400
 8001308:	20000ac6 	.word	0x20000ac6
 800130c:	20000ac0 	.word	0x20000ac0
 8001310:	20000508 	.word	0x20000508
 8001314:	20000390 	.word	0x20000390
 8001318:	40012c00 	.word	0x40012c00
 800131c:	20000ac2 	.word	0x20000ac2
 8001320:	200002d4 	.word	0x200002d4
 8001324:	20000ace 	.word	0x20000ace
 8001328:	20000abc 	.word	0x20000abc
 800132c:	20000af2 	.word	0x20000af2
 8001330:	20000abf 	.word	0x20000abf
 8001334:	20000af1 	.word	0x20000af1
 8001338:	20000abe 	.word	0x20000abe
 800133c:	20000af0 	.word	0x20000af0
 8001340:	20000aee 	.word	0x20000aee
 8001344:	20000ae4 	.word	0x20000ae4

08001348 <HAL_GPIO_EXTI_Falling_Callback>:

void HAL_GPIO_EXTI_Falling_Callback(uint16_t GPIO_Pin){
 8001348:	b510      	push	{r4, lr}

	if((GPIO_Pin == CLK_IN_Pin) && (HAL_GPIO_ReadPin(CLK_IN_GPIO_Port, CLK_IN_Pin) == 0)){ //if specifically CLK IN pin with falling interrupt
 800134a:	2880      	cmp	r0, #128	@ 0x80
 800134c:	d004      	beq.n	8001358 <HAL_GPIO_EXTI_Falling_Callback+0x10>
		external_clock_mode_is_active = YES;
		tap_tempo_mode_is_active = NO;
		HAL_NVIC_DisableIRQ(LPTIM1_IRQn);
		HAL_LPTIM_SetOnce_Stop_IT(&hlptim1);
	}
	else if((GPIO_Pin == SW_IN_Pin) && HAL_GPIO_ReadPin(SW_IN_GPIO_Port, SW_IN_Pin) == 0){
 800134e:	2380      	movs	r3, #128	@ 0x80
 8001350:	00db      	lsls	r3, r3, #3
 8001352:	4298      	cmp	r0, r3
 8001354:	d019      	beq.n	800138a <HAL_GPIO_EXTI_Falling_Callback+0x42>
		tap_tempo_mode_is_active = YES;
		external_clock_mode_is_active = NO;
		HAL_NVIC_EnableIRQ(LPTIM1_IRQn);
		HAL_LPTIM_SetOnce_Start_IT(&hlptim1, LPTIM1_CCR_TAP_TEMPO_SW_IN_CHECK, LPTIM1_CCR_TAP_TEMPO_SW_IN_CHECK);
	}
}
 8001356:	bd10      	pop	{r4, pc}
	if((GPIO_Pin == CLK_IN_Pin) && (HAL_GPIO_ReadPin(CLK_IN_GPIO_Port, CLK_IN_Pin) == 0)){ //if specifically CLK IN pin with falling interrupt
 8001358:	2180      	movs	r1, #128	@ 0x80
 800135a:	4817      	ldr	r0, [pc, #92]	@ (80013b8 <HAL_GPIO_EXTI_Falling_Callback+0x70>)
 800135c:	f002 f9de 	bl	800371c <HAL_GPIO_ReadPin>
 8001360:	1e04      	subs	r4, r0, #0
 8001362:	d1f8      	bne.n	8001356 <HAL_GPIO_EXTI_Falling_Callback+0xe>
		HAL_GPIO_WritePin(SW_OUT_GPIO_Port, SW_OUT_Pin, 0);
 8001364:	2180      	movs	r1, #128	@ 0x80
 8001366:	20a0      	movs	r0, #160	@ 0xa0
 8001368:	0089      	lsls	r1, r1, #2
 800136a:	2200      	movs	r2, #0
 800136c:	05c0      	lsls	r0, r0, #23
 800136e:	f002 f9db 	bl	8003728 <HAL_GPIO_WritePin>
		external_clock_mode_is_active = YES;
 8001372:	2201      	movs	r2, #1
 8001374:	4b11      	ldr	r3, [pc, #68]	@ (80013bc <HAL_GPIO_EXTI_Falling_Callback+0x74>)
		HAL_NVIC_DisableIRQ(LPTIM1_IRQn);
 8001376:	2011      	movs	r0, #17
		external_clock_mode_is_active = YES;
 8001378:	701a      	strb	r2, [r3, #0]
		tap_tempo_mode_is_active = NO;
 800137a:	4b11      	ldr	r3, [pc, #68]	@ (80013c0 <HAL_GPIO_EXTI_Falling_Callback+0x78>)
 800137c:	701c      	strb	r4, [r3, #0]
		HAL_NVIC_DisableIRQ(LPTIM1_IRQn);
 800137e:	f001 feff 	bl	8003180 <HAL_NVIC_DisableIRQ>
		HAL_LPTIM_SetOnce_Stop_IT(&hlptim1);
 8001382:	4810      	ldr	r0, [pc, #64]	@ (80013c4 <HAL_GPIO_EXTI_Falling_Callback+0x7c>)
 8001384:	f002 fc5e 	bl	8003c44 <HAL_LPTIM_SetOnce_Stop_IT>
 8001388:	e7e5      	b.n	8001356 <HAL_GPIO_EXTI_Falling_Callback+0xe>
	else if((GPIO_Pin == SW_IN_Pin) && HAL_GPIO_ReadPin(SW_IN_GPIO_Port, SW_IN_Pin) == 0){
 800138a:	0001      	movs	r1, r0
 800138c:	20a0      	movs	r0, #160	@ 0xa0
 800138e:	05c0      	lsls	r0, r0, #23
 8001390:	f002 f9c4 	bl	800371c <HAL_GPIO_ReadPin>
 8001394:	2800      	cmp	r0, #0
 8001396:	d1de      	bne.n	8001356 <HAL_GPIO_EXTI_Falling_Callback+0xe>
		tap_tempo_mode_is_active = YES;
 8001398:	2201      	movs	r2, #1
 800139a:	4b09      	ldr	r3, [pc, #36]	@ (80013c0 <HAL_GPIO_EXTI_Falling_Callback+0x78>)
 800139c:	701a      	strb	r2, [r3, #0]
		external_clock_mode_is_active = NO;
 800139e:	4b07      	ldr	r3, [pc, #28]	@ (80013bc <HAL_GPIO_EXTI_Falling_Callback+0x74>)
 80013a0:	7018      	strb	r0, [r3, #0]
		HAL_NVIC_EnableIRQ(LPTIM1_IRQn);
 80013a2:	3011      	adds	r0, #17
 80013a4:	f001 fee0 	bl	8003168 <HAL_NVIC_EnableIRQ>
		HAL_LPTIM_SetOnce_Start_IT(&hlptim1, LPTIM1_CCR_TAP_TEMPO_SW_IN_CHECK, LPTIM1_CCR_TAP_TEMPO_SW_IN_CHECK);
 80013a8:	22fa      	movs	r2, #250	@ 0xfa
 80013aa:	0092      	lsls	r2, r2, #2
 80013ac:	0011      	movs	r1, r2
 80013ae:	4805      	ldr	r0, [pc, #20]	@ (80013c4 <HAL_GPIO_EXTI_Falling_Callback+0x7c>)
 80013b0:	f002 fbe4 	bl	8003b7c <HAL_LPTIM_SetOnce_Start_IT>
}
 80013b4:	e7cf      	b.n	8001356 <HAL_GPIO_EXTI_Falling_Callback+0xe>
 80013b6:	46c0      	nop			@ (mov r8, r8)
 80013b8:	50000400 	.word	0x50000400
 80013bc:	200006ae 	.word	0x200006ae
 80013c0:	200006b2 	.word	0x200006b2
 80013c4:	20000038 	.word	0x20000038

080013c8 <HAL_GPIO_EXTI_Rising_Callback>:

void HAL_GPIO_EXTI_Rising_Callback(uint16_t GPIO_Pin){
 80013c8:	b510      	push	{r4, lr}

	if((GPIO_Pin == CLK_IN_Pin) && HAL_GPIO_ReadPin(CLK_IN_GPIO_Port, CLK_IN_Pin) == 1){ //if specifically CLK IN pin with rising interrupt
 80013ca:	2880      	cmp	r0, #128	@ 0x80
 80013cc:	d000      	beq.n	80013d0 <HAL_GPIO_EXTI_Rising_Callback+0x8>

		HAL_GPIO_WritePin(SW_OUT_GPIO_Port, SW_OUT_Pin, 1);
	}
}
 80013ce:	bd10      	pop	{r4, pc}
	if((GPIO_Pin == CLK_IN_Pin) && HAL_GPIO_ReadPin(CLK_IN_GPIO_Port, CLK_IN_Pin) == 1){ //if specifically CLK IN pin with rising interrupt
 80013d0:	2180      	movs	r1, #128	@ 0x80
 80013d2:	4806      	ldr	r0, [pc, #24]	@ (80013ec <HAL_GPIO_EXTI_Rising_Callback+0x24>)
 80013d4:	f002 f9a2 	bl	800371c <HAL_GPIO_ReadPin>
 80013d8:	2801      	cmp	r0, #1
 80013da:	d1f8      	bne.n	80013ce <HAL_GPIO_EXTI_Rising_Callback+0x6>
		HAL_GPIO_WritePin(SW_OUT_GPIO_Port, SW_OUT_Pin, 1);
 80013dc:	2180      	movs	r1, #128	@ 0x80
 80013de:	20a0      	movs	r0, #160	@ 0xa0
 80013e0:	2201      	movs	r2, #1
 80013e2:	0089      	lsls	r1, r1, #2
 80013e4:	05c0      	lsls	r0, r0, #23
 80013e6:	f002 f99f 	bl	8003728 <HAL_GPIO_WritePin>
}
 80013ea:	e7f0      	b.n	80013ce <HAL_GPIO_EXTI_Rising_Callback+0x6>
 80013ec:	50000400 	.word	0x50000400

080013f0 <UART2_TX_transfer_complete_callback>:

void UART2_TX_transfer_complete_callback(UART_HandleTypeDef *huart){

	UART_DMA_TX_is_complete = YES;
 80013f0:	2201      	movs	r2, #1
 80013f2:	4b01      	ldr	r3, [pc, #4]	@ (80013f8 <UART2_TX_transfer_complete_callback+0x8>)
 80013f4:	701a      	strb	r2, [r3, #0]
}
 80013f6:	4770      	bx	lr
 80013f8:	20000001 	.word	0x20000001

080013fc <UART2_RX_transfer_complete_callback>:

void UART2_RX_transfer_complete_callback(UART_HandleTypeDef *huart){
 80013fc:	b510      	push	{r4, lr}

	if(rx_buffer[0] == 'y'){
 80013fe:	4908      	ldr	r1, [pc, #32]	@ (8001420 <UART2_RX_transfer_complete_callback+0x24>)
 8001400:	780b      	ldrb	r3, [r1, #0]
 8001402:	2b79      	cmp	r3, #121	@ 0x79
 8001404:	d107      	bne.n	8001416 <UART2_RX_transfer_complete_callback+0x1a>

		TIM16_final_prescaler = 64;
 8001406:	2240      	movs	r2, #64	@ 0x40
 8001408:	4b06      	ldr	r3, [pc, #24]	@ (8001424 <UART2_RX_transfer_complete_callback+0x28>)
 800140a:	801a      	strh	r2, [r3, #0]
		TIM16_final_start_value = 127;
 800140c:	4b06      	ldr	r3, [pc, #24]	@ (8001428 <UART2_RX_transfer_complete_callback+0x2c>)
 800140e:	323f      	adds	r2, #63	@ 0x3f
 8001410:	801a      	strh	r2, [r3, #0]
		rx_buffer[0] = 0;
 8001412:	2300      	movs	r3, #0
 8001414:	700b      	strb	r3, [r1, #0]
	}
	HAL_UART_Receive_DMA(&huart2, (uint8_t*)rx_buffer, sizeof(rx_buffer));
 8001416:	2201      	movs	r2, #1
 8001418:	4804      	ldr	r0, [pc, #16]	@ (800142c <UART2_RX_transfer_complete_callback+0x30>)
 800141a:	f004 fe8f 	bl	800613c <HAL_UART_Receive_DMA>
}
 800141e:	bd10      	pop	{r4, pc}
 8001420:	200006a8 	.word	0x200006a8
 8001424:	20000ae4 	.word	0x20000ae4
 8001428:	20000aee 	.word	0x20000aee
 800142c:	2000014c 	.word	0x2000014c

08001430 <LPTIM1_callback>:

void LPTIM1_callback(LPTIM_HandleTypeDef *hlptim){
 8001430:	b510      	push	{r4, lr}

	Check_Tap_Tempo_Switch_State(&tap_tempo_switch_state);
 8001432:	4c14      	ldr	r4, [pc, #80]	@ (8001484 <LPTIM1_callback+0x54>)
 8001434:	0020      	movs	r0, r4
 8001436:	f000 fdbb 	bl	8001fb0 <Check_Tap_Tempo_Switch_State>

	if(tap_tempo_switch_state == DEPRESSED){
 800143a:	7824      	ldrb	r4, [r4, #0]
 800143c:	2c01      	cmp	r4, #1
 800143e:	d012      	beq.n	8001466 <LPTIM1_callback+0x36>
		tap_tempo_mode_is_active = YES;

	}
	else{
		//HAL_GPIO_WritePin(MONITOR_GPIO_Port, MONITOR_Pin, 1);
		HAL_GPIO_WritePin(SW_OUT_GPIO_Port, SW_OUT_Pin, 1); //reset
 8001440:	2180      	movs	r1, #128	@ 0x80
 8001442:	20a0      	movs	r0, #160	@ 0xa0
 8001444:	2201      	movs	r2, #1
 8001446:	0089      	lsls	r1, r1, #2
 8001448:	05c0      	lsls	r0, r0, #23
 800144a:	f002 f96d 	bl	8003728 <HAL_GPIO_WritePin>
		HAL_GPIO_WritePin(LD3_GPIO_Port, LD3_Pin, 0);
 800144e:	2200      	movs	r2, #0
 8001450:	2140      	movs	r1, #64	@ 0x40
 8001452:	480d      	ldr	r0, [pc, #52]	@ (8001488 <LPTIM1_callback+0x58>)
 8001454:	f002 f968 	bl	8003728 <HAL_GPIO_WritePin>
	}

	HAL_LPTIM_SetOnce_Start_IT(&hlptim1, LPTIM1_CCR_TAP_TEMPO_SW_IN_CHECK, LPTIM1_CCR_TAP_TEMPO_SW_IN_CHECK);
 8001458:	22fa      	movs	r2, #250	@ 0xfa
 800145a:	0092      	lsls	r2, r2, #2
 800145c:	0011      	movs	r1, r2
 800145e:	480b      	ldr	r0, [pc, #44]	@ (800148c <LPTIM1_callback+0x5c>)
 8001460:	f002 fb8c 	bl	8003b7c <HAL_LPTIM_SetOnce_Start_IT>
}
 8001464:	bd10      	pop	{r4, pc}
		HAL_GPIO_WritePin(SW_OUT_GPIO_Port, SW_OUT_Pin, 0);
 8001466:	2180      	movs	r1, #128	@ 0x80
 8001468:	20a0      	movs	r0, #160	@ 0xa0
 800146a:	2200      	movs	r2, #0
 800146c:	0089      	lsls	r1, r1, #2
 800146e:	05c0      	lsls	r0, r0, #23
 8001470:	f002 f95a 	bl	8003728 <HAL_GPIO_WritePin>
		HAL_GPIO_WritePin(LD3_GPIO_Port, LD3_Pin, 1);
 8001474:	2201      	movs	r2, #1
 8001476:	2140      	movs	r1, #64	@ 0x40
 8001478:	4803      	ldr	r0, [pc, #12]	@ (8001488 <LPTIM1_callback+0x58>)
 800147a:	f002 f955 	bl	8003728 <HAL_GPIO_WritePin>
		tap_tempo_mode_is_active = YES;
 800147e:	4b04      	ldr	r3, [pc, #16]	@ (8001490 <LPTIM1_callback+0x60>)
 8001480:	701c      	strb	r4, [r3, #0]
 8001482:	e7e9      	b.n	8001458 <LPTIM1_callback+0x28>
 8001484:	200006b0 	.word	0x200006b0
 8001488:	50000800 	.word	0x50000800
 800148c:	20000038 	.word	0x20000038
 8001490:	200006b2 	.word	0x200006b2

08001494 <TIM17_callback_speed_pot_check>:

void TIM17_callback_speed_pot_check(TIM_HandleTypeDef *htim){
 8001494:	b510      	push	{r4, lr}

	Stop_OC_TIM(&htim17, TIM_CHANNEL_1);
 8001496:	4c07      	ldr	r4, [pc, #28]	@ (80014b4 <TIM17_callback_speed_pot_check+0x20>)
 8001498:	2100      	movs	r1, #0
 800149a:	0020      	movs	r0, r4
 800149c:	f000 faf2 	bl	8001a84 <Stop_OC_TIM>

	Speed_Pot_Check();
 80014a0:	f000 fd44 	bl	8001f2c <Speed_Pot_Check>

	__HAL_TIM_SET_COUNTER(&htim17, 0);
 80014a4:	2200      	movs	r2, #0
 80014a6:	6823      	ldr	r3, [r4, #0]
	Start_OC_TIM(&htim17, TIM_CHANNEL_1);
 80014a8:	2100      	movs	r1, #0
 80014aa:	0020      	movs	r0, r4
	__HAL_TIM_SET_COUNTER(&htim17, 0);
 80014ac:	625a      	str	r2, [r3, #36]	@ 0x24
	Start_OC_TIM(&htim17, TIM_CHANNEL_1);
 80014ae:	f000 fadf 	bl	8001a70 <Start_OC_TIM>
}
 80014b2:	bd10      	pop	{r4, pc}
 80014b4:	20000218 	.word	0x20000218

080014b8 <main>:

volatile char rx_buffer[1] = {0};
const char one_byte_data = 'j';

int main(void)
{
 80014b8:	b570      	push	{r4, r5, r6, lr}
	//SYSTEM INIT
	System_Init();
 80014ba:	f7ff fbdf 	bl	8000c7c <System_Init>

	//STARTUP BITS AND BOBS
	Startup();
 80014be:	f000 fa75 	bl	80019ac <Startup>

	//START FREQ. GEN and PWM GEN TIMERS and ENABLE PWM OUTPUT
	Start_PWM_Gen_Timer_Main_and_Secondary_Oscillators(&htim1, TIM_CHANNEL_2, TIM_CHANNEL_4);
 80014c2:	220c      	movs	r2, #12
 80014c4:	2104      	movs	r1, #4
 80014c6:	480a      	ldr	r0, [pc, #40]	@ (80014f0 <main+0x38>)
 80014c8:	f000 faa6 	bl	8001a18 <Start_PWM_Gen_Timer_Main_and_Secondary_Oscillators>
	Start_Freq_Gen_Timer();
 80014cc:	f000 fac0 	bl	8001a50 <Start_Freq_Gen_Timer>
	Start_Input_Capture_Timer();
 80014d0:	f000 fae2 	bl	8001a98 <Start_Input_Capture_Timer>

	//ENABLE INTERRUPTS
	Global_Interrupt_Enable();
 80014d4:	f000 fa66 	bl	80019a4 <Global_Interrupt_Enable>

	//START TAP TEMPO SWITCH MONITORING AND UART RECEIVE
	Start_Tap_Tempo_Monitoring_Timers_and_UART_Receive();
 80014d8:	f000 fd9c 	bl	8002014 <Start_Tap_Tempo_Monitoring_Timers_and_UART_Receive>
 80014dc:	4c05      	ldr	r4, [pc, #20]	@ (80014f4 <main+0x3c>)
 80014de:	4d06      	ldr	r5, [pc, #24]	@ (80014f8 <main+0x40>)

			UART_DMA_TX_is_complete = NO;
			HAL_UART_Transmit_DMA(&huart2, (const uint8_t*)&one_byte_data, sizeof(one_byte_data));
		}*/

		if(input_capture_processing_can_be_started == YES){
 80014e0:	7823      	ldrb	r3, [r4, #0]
 80014e2:	2b01      	cmp	r3, #1
 80014e4:	d1fc      	bne.n	80014e0 <main+0x28>

			Input_Capture_Processing(interrupt_period);
 80014e6:	8828      	ldrh	r0, [r5, #0]
 80014e8:	b280      	uxth	r0, r0
 80014ea:	f000 fdad 	bl	8002048 <Input_Capture_Processing>
 80014ee:	e7f7      	b.n	80014e0 <main+0x28>
 80014f0:	200002d4 	.word	0x200002d4
 80014f4:	200006af 	.word	0x200006af
 80014f8:	20000acc 	.word	0x20000acc

080014fc <HAL_MspInit>:

  /* USER CODE BEGIN MspInit 0 */

  /* USER CODE END MspInit 0 */

  __HAL_RCC_SYSCFG_CLK_ENABLE();
 80014fc:	2201      	movs	r2, #1
 80014fe:	4b0a      	ldr	r3, [pc, #40]	@ (8001528 <HAL_MspInit+0x2c>)
{
 8001500:	b082      	sub	sp, #8
  __HAL_RCC_SYSCFG_CLK_ENABLE();
 8001502:	6c19      	ldr	r1, [r3, #64]	@ 0x40
 8001504:	4311      	orrs	r1, r2
 8001506:	6419      	str	r1, [r3, #64]	@ 0x40
 8001508:	6c19      	ldr	r1, [r3, #64]	@ 0x40
 800150a:	400a      	ands	r2, r1
  __HAL_RCC_PWR_CLK_ENABLE();
 800150c:	2180      	movs	r1, #128	@ 0x80
  __HAL_RCC_SYSCFG_CLK_ENABLE();
 800150e:	9200      	str	r2, [sp, #0]
 8001510:	9a00      	ldr	r2, [sp, #0]
  __HAL_RCC_PWR_CLK_ENABLE();
 8001512:	6bda      	ldr	r2, [r3, #60]	@ 0x3c
 8001514:	0549      	lsls	r1, r1, #21
 8001516:	430a      	orrs	r2, r1
 8001518:	63da      	str	r2, [r3, #60]	@ 0x3c
 800151a:	6bdb      	ldr	r3, [r3, #60]	@ 0x3c
 800151c:	400b      	ands	r3, r1
 800151e:	9301      	str	r3, [sp, #4]
 8001520:	9b01      	ldr	r3, [sp, #4]
  /* System interrupt init*/

  /* USER CODE BEGIN MspInit 1 */

  /* USER CODE END MspInit 1 */
}
 8001522:	b002      	add	sp, #8
 8001524:	4770      	bx	lr
 8001526:	46c0      	nop			@ (mov r8, r8)
 8001528:	40021000 	.word	0x40021000

0800152c <HAL_ADC_MspInit>:
* This function configures the hardware resources used in this example
* @param hadc: ADC handle pointer
* @retval None
*/
void HAL_ADC_MspInit(ADC_HandleTypeDef* hadc)
{
 800152c:	b530      	push	{r4, r5, lr}
 800152e:	0004      	movs	r4, r0
 8001530:	b089      	sub	sp, #36	@ 0x24
  GPIO_InitTypeDef GPIO_InitStruct = {0};
 8001532:	2214      	movs	r2, #20
 8001534:	2100      	movs	r1, #0
 8001536:	a802      	add	r0, sp, #8
 8001538:	f005 fbbc 	bl	8006cb4 <memset>
  if(hadc->Instance==ADC1)
 800153c:	4b1f      	ldr	r3, [pc, #124]	@ (80015bc <HAL_ADC_MspInit+0x90>)
 800153e:	6822      	ldr	r2, [r4, #0]
 8001540:	429a      	cmp	r2, r3
 8001542:	d001      	beq.n	8001548 <HAL_ADC_MspInit+0x1c>

  /* USER CODE END ADC1_MspInit 1 */

  }

}
 8001544:	b009      	add	sp, #36	@ 0x24
 8001546:	bd30      	pop	{r4, r5, pc}
    __HAL_RCC_ADC_CLK_ENABLE();
 8001548:	2180      	movs	r1, #128	@ 0x80
 800154a:	4b1d      	ldr	r3, [pc, #116]	@ (80015c0 <HAL_ADC_MspInit+0x94>)
 800154c:	0349      	lsls	r1, r1, #13
 800154e:	6c1a      	ldr	r2, [r3, #64]	@ 0x40
    HAL_GPIO_Init(GPIOA, &GPIO_InitStruct);
 8001550:	20a0      	movs	r0, #160	@ 0xa0
    __HAL_RCC_ADC_CLK_ENABLE();
 8001552:	430a      	orrs	r2, r1
 8001554:	641a      	str	r2, [r3, #64]	@ 0x40
 8001556:	6c1a      	ldr	r2, [r3, #64]	@ 0x40
    HAL_GPIO_Init(GPIOA, &GPIO_InitStruct);
 8001558:	05c0      	lsls	r0, r0, #23
    __HAL_RCC_ADC_CLK_ENABLE();
 800155a:	400a      	ands	r2, r1
 800155c:	9200      	str	r2, [sp, #0]
 800155e:	9a00      	ldr	r2, [sp, #0]
    __HAL_RCC_GPIOA_CLK_ENABLE();
 8001560:	2201      	movs	r2, #1
 8001562:	6b59      	ldr	r1, [r3, #52]	@ 0x34
 8001564:	4311      	orrs	r1, r2
 8001566:	6359      	str	r1, [r3, #52]	@ 0x34
 8001568:	6b5b      	ldr	r3, [r3, #52]	@ 0x34
    HAL_GPIO_Init(GPIOA, &GPIO_InitStruct);
 800156a:	a902      	add	r1, sp, #8
    __HAL_RCC_GPIOA_CLK_ENABLE();
 800156c:	401a      	ands	r2, r3
 800156e:	9201      	str	r2, [sp, #4]
 8001570:	9b01      	ldr	r3, [sp, #4]
    GPIO_InitStruct.Pin = GPIO_PIN_0|GPIO_PIN_1|GPIO_PIN_4|GPIO_PIN_5;
 8001572:	2233      	movs	r2, #51	@ 0x33
 8001574:	2303      	movs	r3, #3
 8001576:	9202      	str	r2, [sp, #8]
 8001578:	9303      	str	r3, [sp, #12]
    HAL_GPIO_Init(GPIOA, &GPIO_InitStruct);
 800157a:	f001 ffdd 	bl	8003538 <HAL_GPIO_Init>
    hdma_adc1.Instance = DMA1_Channel1;
 800157e:	4d11      	ldr	r5, [pc, #68]	@ (80015c4 <HAL_ADC_MspInit+0x98>)
 8001580:	4b11      	ldr	r3, [pc, #68]	@ (80015c8 <HAL_ADC_MspInit+0x9c>)
    hdma_adc1.Init.MemInc = DMA_MINC_ENABLE;
 8001582:	2280      	movs	r2, #128	@ 0x80
    hdma_adc1.Instance = DMA1_Channel1;
 8001584:	602b      	str	r3, [r5, #0]
    hdma_adc1.Init.Request = DMA_REQUEST_ADC1;
 8001586:	2305      	movs	r3, #5
 8001588:	606b      	str	r3, [r5, #4]
    hdma_adc1.Init.Direction = DMA_PERIPH_TO_MEMORY;
 800158a:	2300      	movs	r3, #0
    hdma_adc1.Init.MemInc = DMA_MINC_ENABLE;
 800158c:	612a      	str	r2, [r5, #16]
    hdma_adc1.Init.PeriphDataAlignment = DMA_PDATAALIGN_HALFWORD;
 800158e:	3280      	adds	r2, #128	@ 0x80
    hdma_adc1.Init.Direction = DMA_PERIPH_TO_MEMORY;
 8001590:	60ab      	str	r3, [r5, #8]
    hdma_adc1.Init.PeriphInc = DMA_PINC_DISABLE;
 8001592:	60eb      	str	r3, [r5, #12]
    hdma_adc1.Init.PeriphDataAlignment = DMA_PDATAALIGN_HALFWORD;
 8001594:	616a      	str	r2, [r5, #20]
    hdma_adc1.Init.Mode = DMA_NORMAL;
 8001596:	61eb      	str	r3, [r5, #28]
    hdma_adc1.Init.MemDataAlignment = DMA_MDATAALIGN_HALFWORD;
 8001598:	2280      	movs	r2, #128	@ 0x80
    hdma_adc1.Init.Priority = DMA_PRIORITY_HIGH;
 800159a:	2380      	movs	r3, #128	@ 0x80
    hdma_adc1.Init.MemDataAlignment = DMA_MDATAALIGN_HALFWORD;
 800159c:	00d2      	lsls	r2, r2, #3
    hdma_adc1.Init.Priority = DMA_PRIORITY_HIGH;
 800159e:	019b      	lsls	r3, r3, #6
    if (HAL_DMA_Init(&hdma_adc1) != HAL_OK)
 80015a0:	0028      	movs	r0, r5
    hdma_adc1.Init.MemDataAlignment = DMA_MDATAALIGN_HALFWORD;
 80015a2:	61aa      	str	r2, [r5, #24]
    hdma_adc1.Init.Priority = DMA_PRIORITY_HIGH;
 80015a4:	622b      	str	r3, [r5, #32]
    if (HAL_DMA_Init(&hdma_adc1) != HAL_OK)
 80015a6:	f001 fe15 	bl	80031d4 <HAL_DMA_Init>
 80015aa:	2800      	cmp	r0, #0
 80015ac:	d102      	bne.n	80015b4 <HAL_ADC_MspInit+0x88>
    __HAL_LINKDMA(hadc,DMA_Handle,hdma_adc1);
 80015ae:	6525      	str	r5, [r4, #80]	@ 0x50
 80015b0:	62ac      	str	r4, [r5, #40]	@ 0x28
}
 80015b2:	e7c7      	b.n	8001544 <HAL_ADC_MspInit+0x18>
      Error_Handler();
 80015b4:	f7ff fb60 	bl	8000c78 <Error_Handler>
 80015b8:	e7f9      	b.n	80015ae <HAL_ADC_MspInit+0x82>
 80015ba:	46c0      	nop			@ (mov r8, r8)
 80015bc:	40012400 	.word	0x40012400
 80015c0:	40021000 	.word	0x40021000
 80015c4:	200005c4 	.word	0x200005c4
 80015c8:	40020008 	.word	0x40020008

080015cc <HAL_LPTIM_MspInit>:
* This function configures the hardware resources used in this example
* @param hlptim: LPTIM handle pointer
* @retval None
*/
void HAL_LPTIM_MspInit(LPTIM_HandleTypeDef* hlptim)
{
 80015cc:	b510      	push	{r4, lr}
 80015ce:	0004      	movs	r4, r0
 80015d0:	b092      	sub	sp, #72	@ 0x48
  GPIO_InitTypeDef GPIO_InitStruct = {0};
 80015d2:	2214      	movs	r2, #20
 80015d4:	2100      	movs	r1, #0
 80015d6:	a802      	add	r0, sp, #8
 80015d8:	f005 fb6c 	bl	8006cb4 <memset>
  RCC_PeriphCLKInitTypeDef PeriphClkInit = {0};
 80015dc:	2228      	movs	r2, #40	@ 0x28
 80015de:	2100      	movs	r1, #0
 80015e0:	a808      	add	r0, sp, #32
 80015e2:	f005 fb67 	bl	8006cb4 <memset>
  if(hlptim->Instance==LPTIM1)
 80015e6:	4b19      	ldr	r3, [pc, #100]	@ (800164c <HAL_LPTIM_MspInit+0x80>)
 80015e8:	6822      	ldr	r2, [r4, #0]
 80015ea:	429a      	cmp	r2, r3
 80015ec:	d001      	beq.n	80015f2 <HAL_LPTIM_MspInit+0x26>

  /* USER CODE END LPTIM1_MspInit 1 */

  }

}
 80015ee:	b012      	add	sp, #72	@ 0x48
 80015f0:	bd10      	pop	{r4, pc}
    PeriphClkInit.PeriphClockSelection = RCC_PERIPHCLK_LPTIM1;
 80015f2:	2380      	movs	r3, #128	@ 0x80
    if (HAL_RCCEx_PeriphCLKConfig(&PeriphClkInit) != HAL_OK)
 80015f4:	a808      	add	r0, sp, #32
    PeriphClkInit.PeriphClockSelection = RCC_PERIPHCLK_LPTIM1;
 80015f6:	009b      	lsls	r3, r3, #2
 80015f8:	9308      	str	r3, [sp, #32]
    if (HAL_RCCEx_PeriphCLKConfig(&PeriphClkInit) != HAL_OK)
 80015fa:	f002 ff0f 	bl	800441c <HAL_RCCEx_PeriphCLKConfig>
 80015fe:	2800      	cmp	r0, #0
 8001600:	d121      	bne.n	8001646 <HAL_LPTIM_MspInit+0x7a>
    __HAL_RCC_LPTIM1_CLK_ENABLE();
 8001602:	2280      	movs	r2, #128	@ 0x80
 8001604:	4b12      	ldr	r3, [pc, #72]	@ (8001650 <HAL_LPTIM_MspInit+0x84>)
 8001606:	0612      	lsls	r2, r2, #24
 8001608:	6bd9      	ldr	r1, [r3, #60]	@ 0x3c
    HAL_GPIO_Init(GPIOB, &GPIO_InitStruct);
 800160a:	4812      	ldr	r0, [pc, #72]	@ (8001654 <HAL_LPTIM_MspInit+0x88>)
    __HAL_RCC_LPTIM1_CLK_ENABLE();
 800160c:	430a      	orrs	r2, r1
 800160e:	63da      	str	r2, [r3, #60]	@ 0x3c
 8001610:	6bda      	ldr	r2, [r3, #60]	@ 0x3c
 8001612:	0fd2      	lsrs	r2, r2, #31
 8001614:	07d2      	lsls	r2, r2, #31
 8001616:	9200      	str	r2, [sp, #0]
 8001618:	9a00      	ldr	r2, [sp, #0]
    __HAL_RCC_GPIOB_CLK_ENABLE();
 800161a:	2202      	movs	r2, #2
 800161c:	6b59      	ldr	r1, [r3, #52]	@ 0x34
 800161e:	4311      	orrs	r1, r2
 8001620:	6359      	str	r1, [r3, #52]	@ 0x34
 8001622:	6b5b      	ldr	r3, [r3, #52]	@ 0x34
    HAL_GPIO_Init(GPIOB, &GPIO_InitStruct);
 8001624:	a902      	add	r1, sp, #8
    __HAL_RCC_GPIOB_CLK_ENABLE();
 8001626:	401a      	ands	r2, r3
 8001628:	9201      	str	r2, [sp, #4]
 800162a:	9b01      	ldr	r3, [sp, #4]
    GPIO_InitStruct.Pin = GPIO_PIN_0;
 800162c:	2201      	movs	r2, #1
 800162e:	2302      	movs	r3, #2
 8001630:	9202      	str	r2, [sp, #8]
 8001632:	9303      	str	r3, [sp, #12]
 8001634:	2200      	movs	r2, #0
 8001636:	2300      	movs	r3, #0
 8001638:	9204      	str	r2, [sp, #16]
 800163a:	9305      	str	r3, [sp, #20]
    GPIO_InitStruct.Alternate = GPIO_AF5_LPTIM1;
 800163c:	2305      	movs	r3, #5
 800163e:	9306      	str	r3, [sp, #24]
    HAL_GPIO_Init(GPIOB, &GPIO_InitStruct);
 8001640:	f001 ff7a 	bl	8003538 <HAL_GPIO_Init>
}
 8001644:	e7d3      	b.n	80015ee <HAL_LPTIM_MspInit+0x22>
      Error_Handler();
 8001646:	f7ff fb17 	bl	8000c78 <Error_Handler>
 800164a:	e7da      	b.n	8001602 <HAL_LPTIM_MspInit+0x36>
 800164c:	40007c00 	.word	0x40007c00
 8001650:	40021000 	.word	0x40021000
 8001654:	50000400 	.word	0x50000400

08001658 <HAL_TIM_Base_MspInit>:
* @param htim_base: TIM_Base handle pointer
* @retval None
*/

void HAL_TIM_Base_MspInit(TIM_HandleTypeDef* htim_base)
{
 8001658:	b510      	push	{r4, lr}
 800165a:	0004      	movs	r4, r0
 800165c:	b096      	sub	sp, #88	@ 0x58
  GPIO_InitTypeDef GPIO_InitStruct = {0};
 800165e:	2214      	movs	r2, #20
 8001660:	2100      	movs	r1, #0
 8001662:	a806      	add	r0, sp, #24
 8001664:	f005 fb26 	bl	8006cb4 <memset>
  RCC_PeriphCLKInitTypeDef PeriphClkInit = {0};
 8001668:	2228      	movs	r2, #40	@ 0x28
 800166a:	2100      	movs	r1, #0
 800166c:	a80c      	add	r0, sp, #48	@ 0x30
 800166e:	f005 fb21 	bl	8006cb4 <memset>
  if(htim_base->Instance==TIM1)
 8001672:	6823      	ldr	r3, [r4, #0]
 8001674:	4a42      	ldr	r2, [pc, #264]	@ (8001780 <HAL_TIM_Base_MspInit+0x128>)
 8001676:	4293      	cmp	r3, r2
 8001678:	d021      	beq.n	80016be <HAL_TIM_Base_MspInit+0x66>
    __HAL_RCC_TIM1_CLK_ENABLE();
  /* USER CODE BEGIN TIM1_MspInit 1 */

  /* USER CODE END TIM1_MspInit 1 */
  }
  else if(htim_base->Instance==TIM2)
 800167a:	2280      	movs	r2, #128	@ 0x80
 800167c:	05d2      	lsls	r2, r2, #23
 800167e:	4293      	cmp	r3, r2
 8001680:	d030      	beq.n	80016e4 <HAL_TIM_Base_MspInit+0x8c>
    HAL_NVIC_EnableIRQ(TIM2_IRQn);
    /* USER CODE BEGIN TIM2_MspInit 1 */

    /* USER CODE END TIM2_MspInit 1 */
    }
  else if(htim_base->Instance==TIM3)
 8001682:	4a40      	ldr	r2, [pc, #256]	@ (8001784 <HAL_TIM_Base_MspInit+0x12c>)
 8001684:	4293      	cmp	r3, r2
 8001686:	d053      	beq.n	8001730 <HAL_TIM_Base_MspInit+0xd8>
    HAL_NVIC_EnableIRQ(TIM3_IRQn);
  /* USER CODE BEGIN TIM3_MspInit 1 */

  /* USER CODE END TIM3_MspInit 1 */
  }
  else if(htim_base->Instance==TIM16)
 8001688:	4a3f      	ldr	r2, [pc, #252]	@ (8001788 <HAL_TIM_Base_MspInit+0x130>)
 800168a:	4293      	cmp	r3, r2
 800168c:	d004      	beq.n	8001698 <HAL_TIM_Base_MspInit+0x40>
    HAL_NVIC_EnableIRQ(TIM16_IRQn);
  /* USER CODE BEGIN TIM16_MspInit 1 */

  /* USER CODE END TIM16_MspInit 1 */
  }
  else if(htim_base->Instance==TIM17)
 800168e:	4a3f      	ldr	r2, [pc, #252]	@ (800178c <HAL_TIM_Base_MspInit+0x134>)
 8001690:	4293      	cmp	r3, r2
 8001692:	d05f      	beq.n	8001754 <HAL_TIM_Base_MspInit+0xfc>
  /* USER CODE BEGIN TIM17_MspInit 1 */

  /* USER CODE END TIM17_MspInit 1 */
  }

}
 8001694:	b016      	add	sp, #88	@ 0x58
 8001696:	bd10      	pop	{r4, pc}
    __HAL_RCC_TIM16_CLK_ENABLE();
 8001698:	2180      	movs	r1, #128	@ 0x80
 800169a:	4b3d      	ldr	r3, [pc, #244]	@ (8001790 <HAL_TIM_Base_MspInit+0x138>)
 800169c:	0289      	lsls	r1, r1, #10
 800169e:	6c1a      	ldr	r2, [r3, #64]	@ 0x40
    HAL_NVIC_SetPriority(TIM16_IRQn, 0, 0);
 80016a0:	2015      	movs	r0, #21
    __HAL_RCC_TIM16_CLK_ENABLE();
 80016a2:	430a      	orrs	r2, r1
 80016a4:	641a      	str	r2, [r3, #64]	@ 0x40
 80016a6:	6c1b      	ldr	r3, [r3, #64]	@ 0x40
    HAL_NVIC_SetPriority(TIM16_IRQn, 0, 0);
 80016a8:	2200      	movs	r2, #0
    __HAL_RCC_TIM16_CLK_ENABLE();
 80016aa:	400b      	ands	r3, r1
 80016ac:	9304      	str	r3, [sp, #16]
    HAL_NVIC_SetPriority(TIM16_IRQn, 0, 0);
 80016ae:	2100      	movs	r1, #0
    __HAL_RCC_TIM16_CLK_ENABLE();
 80016b0:	9b04      	ldr	r3, [sp, #16]
    HAL_NVIC_SetPriority(TIM16_IRQn, 0, 0);
 80016b2:	f001 fd2f 	bl	8003114 <HAL_NVIC_SetPriority>
    HAL_NVIC_EnableIRQ(TIM16_IRQn);
 80016b6:	2015      	movs	r0, #21
 80016b8:	f001 fd56 	bl	8003168 <HAL_NVIC_EnableIRQ>
 80016bc:	e7ea      	b.n	8001694 <HAL_TIM_Base_MspInit+0x3c>
    PeriphClkInit.PeriphClockSelection = RCC_PERIPHCLK_TIM1;
 80016be:	2380      	movs	r3, #128	@ 0x80
    if (HAL_RCCEx_PeriphCLKConfig(&PeriphClkInit) != HAL_OK)
 80016c0:	a80c      	add	r0, sp, #48	@ 0x30
    PeriphClkInit.PeriphClockSelection = RCC_PERIPHCLK_TIM1;
 80016c2:	039b      	lsls	r3, r3, #14
 80016c4:	930c      	str	r3, [sp, #48]	@ 0x30
    if (HAL_RCCEx_PeriphCLKConfig(&PeriphClkInit) != HAL_OK)
 80016c6:	f002 fea9 	bl	800441c <HAL_RCCEx_PeriphCLKConfig>
 80016ca:	2800      	cmp	r0, #0
 80016cc:	d155      	bne.n	800177a <HAL_TIM_Base_MspInit+0x122>
    __HAL_RCC_TIM1_CLK_ENABLE();
 80016ce:	2180      	movs	r1, #128	@ 0x80
 80016d0:	4b2f      	ldr	r3, [pc, #188]	@ (8001790 <HAL_TIM_Base_MspInit+0x138>)
 80016d2:	0109      	lsls	r1, r1, #4
 80016d4:	6c1a      	ldr	r2, [r3, #64]	@ 0x40
 80016d6:	430a      	orrs	r2, r1
 80016d8:	641a      	str	r2, [r3, #64]	@ 0x40
 80016da:	6c1b      	ldr	r3, [r3, #64]	@ 0x40
 80016dc:	400b      	ands	r3, r1
 80016de:	9300      	str	r3, [sp, #0]
 80016e0:	9b00      	ldr	r3, [sp, #0]
 80016e2:	e7d7      	b.n	8001694 <HAL_TIM_Base_MspInit+0x3c>
    __HAL_RCC_TIM2_CLK_ENABLE();
 80016e4:	2201      	movs	r2, #1
 80016e6:	4b2a      	ldr	r3, [pc, #168]	@ (8001790 <HAL_TIM_Base_MspInit+0x138>)
    GPIO_InitStruct.Pin = IP_CAP_Pin;
 80016e8:	2080      	movs	r0, #128	@ 0x80
    __HAL_RCC_TIM2_CLK_ENABLE();
 80016ea:	6bd9      	ldr	r1, [r3, #60]	@ 0x3c
    GPIO_InitStruct.Pin = IP_CAP_Pin;
 80016ec:	0200      	lsls	r0, r0, #8
    __HAL_RCC_TIM2_CLK_ENABLE();
 80016ee:	4311      	orrs	r1, r2
 80016f0:	63d9      	str	r1, [r3, #60]	@ 0x3c
 80016f2:	6bd9      	ldr	r1, [r3, #60]	@ 0x3c
 80016f4:	4011      	ands	r1, r2
 80016f6:	9101      	str	r1, [sp, #4]
 80016f8:	9901      	ldr	r1, [sp, #4]
    __HAL_RCC_GPIOA_CLK_ENABLE();
 80016fa:	6b59      	ldr	r1, [r3, #52]	@ 0x34
 80016fc:	4311      	orrs	r1, r2
 80016fe:	6359      	str	r1, [r3, #52]	@ 0x34
    GPIO_InitStruct.Pin = IP_CAP_Pin;
 8001700:	2102      	movs	r1, #2
    __HAL_RCC_GPIOA_CLK_ENABLE();
 8001702:	6b5b      	ldr	r3, [r3, #52]	@ 0x34
    GPIO_InitStruct.Pin = IP_CAP_Pin;
 8001704:	9006      	str	r0, [sp, #24]
 8001706:	9107      	str	r1, [sp, #28]
    __HAL_RCC_GPIOA_CLK_ENABLE();
 8001708:	4013      	ands	r3, r2
 800170a:	9302      	str	r3, [sp, #8]
    HAL_GPIO_Init(IP_CAP_GPIO_Port, &GPIO_InitStruct);
 800170c:	20a0      	movs	r0, #160	@ 0xa0
    __HAL_RCC_GPIOA_CLK_ENABLE();
 800170e:	9b02      	ldr	r3, [sp, #8]
    GPIO_InitStruct.Alternate = GPIO_AF2_TIM2;
 8001710:	2302      	movs	r3, #2
    HAL_GPIO_Init(IP_CAP_GPIO_Port, &GPIO_InitStruct);
 8001712:	a906      	add	r1, sp, #24
 8001714:	05c0      	lsls	r0, r0, #23
    GPIO_InitStruct.Pull = GPIO_PULLUP; //even though we do not 'technically' need a pullup as a push-pull O/P will be driving the I/P cap pin, I think it is better to ensure the I/P cap input properly idles
 8001716:	9208      	str	r2, [sp, #32]
    GPIO_InitStruct.Alternate = GPIO_AF2_TIM2;
 8001718:	930a      	str	r3, [sp, #40]	@ 0x28
    HAL_GPIO_Init(IP_CAP_GPIO_Port, &GPIO_InitStruct);
 800171a:	f001 ff0d 	bl	8003538 <HAL_GPIO_Init>
    HAL_NVIC_SetPriority(TIM2_IRQn, 0, 0);
 800171e:	2200      	movs	r2, #0
 8001720:	2100      	movs	r1, #0
 8001722:	200f      	movs	r0, #15
 8001724:	f001 fcf6 	bl	8003114 <HAL_NVIC_SetPriority>
    HAL_NVIC_EnableIRQ(TIM2_IRQn);
 8001728:	200f      	movs	r0, #15
 800172a:	f001 fd1d 	bl	8003168 <HAL_NVIC_EnableIRQ>
 800172e:	e7b1      	b.n	8001694 <HAL_TIM_Base_MspInit+0x3c>
    __HAL_RCC_TIM3_CLK_ENABLE();
 8001730:	2302      	movs	r3, #2
 8001732:	4a17      	ldr	r2, [pc, #92]	@ (8001790 <HAL_TIM_Base_MspInit+0x138>)
    HAL_NVIC_SetPriority(TIM3_IRQn, 0, 0);
 8001734:	2010      	movs	r0, #16
    __HAL_RCC_TIM3_CLK_ENABLE();
 8001736:	6bd1      	ldr	r1, [r2, #60]	@ 0x3c
 8001738:	4319      	orrs	r1, r3
 800173a:	63d1      	str	r1, [r2, #60]	@ 0x3c
 800173c:	6bd2      	ldr	r2, [r2, #60]	@ 0x3c
    HAL_NVIC_SetPriority(TIM3_IRQn, 0, 0);
 800173e:	2100      	movs	r1, #0
    __HAL_RCC_TIM3_CLK_ENABLE();
 8001740:	4013      	ands	r3, r2
 8001742:	9303      	str	r3, [sp, #12]
    HAL_NVIC_SetPriority(TIM3_IRQn, 0, 0);
 8001744:	2200      	movs	r2, #0
    __HAL_RCC_TIM3_CLK_ENABLE();
 8001746:	9b03      	ldr	r3, [sp, #12]
    HAL_NVIC_SetPriority(TIM3_IRQn, 0, 0);
 8001748:	f001 fce4 	bl	8003114 <HAL_NVIC_SetPriority>
    HAL_NVIC_EnableIRQ(TIM3_IRQn);
 800174c:	2010      	movs	r0, #16
 800174e:	f001 fd0b 	bl	8003168 <HAL_NVIC_EnableIRQ>
 8001752:	e79f      	b.n	8001694 <HAL_TIM_Base_MspInit+0x3c>
    __HAL_RCC_TIM17_CLK_ENABLE();
 8001754:	2180      	movs	r1, #128	@ 0x80
 8001756:	4b0e      	ldr	r3, [pc, #56]	@ (8001790 <HAL_TIM_Base_MspInit+0x138>)
 8001758:	02c9      	lsls	r1, r1, #11
 800175a:	6c1a      	ldr	r2, [r3, #64]	@ 0x40
    HAL_NVIC_SetPriority(TIM17_IRQn, 3, 3);
 800175c:	2016      	movs	r0, #22
    __HAL_RCC_TIM17_CLK_ENABLE();
 800175e:	430a      	orrs	r2, r1
 8001760:	641a      	str	r2, [r3, #64]	@ 0x40
 8001762:	6c1b      	ldr	r3, [r3, #64]	@ 0x40
    HAL_NVIC_SetPriority(TIM17_IRQn, 3, 3);
 8001764:	2203      	movs	r2, #3
    __HAL_RCC_TIM17_CLK_ENABLE();
 8001766:	400b      	ands	r3, r1
 8001768:	9305      	str	r3, [sp, #20]
    HAL_NVIC_SetPriority(TIM17_IRQn, 3, 3);
 800176a:	2103      	movs	r1, #3
    __HAL_RCC_TIM17_CLK_ENABLE();
 800176c:	9b05      	ldr	r3, [sp, #20]
    HAL_NVIC_SetPriority(TIM17_IRQn, 3, 3);
 800176e:	f001 fcd1 	bl	8003114 <HAL_NVIC_SetPriority>
    HAL_NVIC_EnableIRQ(TIM17_IRQn);
 8001772:	2016      	movs	r0, #22
 8001774:	f001 fcf8 	bl	8003168 <HAL_NVIC_EnableIRQ>
}
 8001778:	e78c      	b.n	8001694 <HAL_TIM_Base_MspInit+0x3c>
      Error_Handler();
 800177a:	f7ff fa7d 	bl	8000c78 <Error_Handler>
 800177e:	e7a6      	b.n	80016ce <HAL_TIM_Base_MspInit+0x76>
 8001780:	40012c00 	.word	0x40012c00
 8001784:	40000400 	.word	0x40000400
 8001788:	40014400 	.word	0x40014400
 800178c:	40014800 	.word	0x40014800
 8001790:	40021000 	.word	0x40021000

08001794 <HAL_TIM_MspPostInit>:

void HAL_TIM_MspPostInit(TIM_HandleTypeDef* htim)
{
 8001794:	b530      	push	{r4, r5, lr}
 8001796:	0004      	movs	r4, r0
 8001798:	b089      	sub	sp, #36	@ 0x24
  GPIO_InitTypeDef GPIO_InitStruct = {0};
 800179a:	2214      	movs	r2, #20
 800179c:	2100      	movs	r1, #0
 800179e:	a802      	add	r0, sp, #8
 80017a0:	f005 fa88 	bl	8006cb4 <memset>
  if(htim->Instance==TIM1)
 80017a4:	4b16      	ldr	r3, [pc, #88]	@ (8001800 <HAL_TIM_MspPostInit+0x6c>)
 80017a6:	6822      	ldr	r2, [r4, #0]
 80017a8:	429a      	cmp	r2, r3
 80017aa:	d001      	beq.n	80017b0 <HAL_TIM_MspPostInit+0x1c>
  /* USER CODE BEGIN TIM1_MspPostInit 1 */

  /* USER CODE END TIM1_MspPostInit 1 */
  }

}
 80017ac:	b009      	add	sp, #36	@ 0x24
 80017ae:	bd30      	pop	{r4, r5, pc}
    __HAL_RCC_GPIOA_CLK_ENABLE();
 80017b0:	2501      	movs	r5, #1
    __HAL_RCC_GPIOB_CLK_ENABLE();
 80017b2:	2402      	movs	r4, #2
    __HAL_RCC_GPIOA_CLK_ENABLE();
 80017b4:	4b13      	ldr	r3, [pc, #76]	@ (8001804 <HAL_TIM_MspPostInit+0x70>)
    HAL_GPIO_Init(SECONDARY_OSCILLATOR_GPIO_Port, &GPIO_InitStruct);
 80017b6:	20a0      	movs	r0, #160	@ 0xa0
    __HAL_RCC_GPIOA_CLK_ENABLE();
 80017b8:	6b5a      	ldr	r2, [r3, #52]	@ 0x34
    HAL_GPIO_Init(SECONDARY_OSCILLATOR_GPIO_Port, &GPIO_InitStruct);
 80017ba:	a902      	add	r1, sp, #8
    __HAL_RCC_GPIOA_CLK_ENABLE();
 80017bc:	432a      	orrs	r2, r5
 80017be:	635a      	str	r2, [r3, #52]	@ 0x34
 80017c0:	6b5a      	ldr	r2, [r3, #52]	@ 0x34
    HAL_GPIO_Init(SECONDARY_OSCILLATOR_GPIO_Port, &GPIO_InitStruct);
 80017c2:	05c0      	lsls	r0, r0, #23
    __HAL_RCC_GPIOA_CLK_ENABLE();
 80017c4:	402a      	ands	r2, r5
 80017c6:	9200      	str	r2, [sp, #0]
 80017c8:	9a00      	ldr	r2, [sp, #0]
    __HAL_RCC_GPIOB_CLK_ENABLE();
 80017ca:	6b5a      	ldr	r2, [r3, #52]	@ 0x34
 80017cc:	4322      	orrs	r2, r4
 80017ce:	635a      	str	r2, [r3, #52]	@ 0x34
 80017d0:	6b5b      	ldr	r3, [r3, #52]	@ 0x34
    GPIO_InitStruct.Pin = SECONDARY_OSCILLATOR_Pin;
 80017d2:	2280      	movs	r2, #128	@ 0x80
    __HAL_RCC_GPIOB_CLK_ENABLE();
 80017d4:	4023      	ands	r3, r4
 80017d6:	9301      	str	r3, [sp, #4]
 80017d8:	9b01      	ldr	r3, [sp, #4]
    GPIO_InitStruct.Pin = SECONDARY_OSCILLATOR_Pin;
 80017da:	2302      	movs	r3, #2
 80017dc:	0112      	lsls	r2, r2, #4
 80017de:	9202      	str	r2, [sp, #8]
 80017e0:	9303      	str	r3, [sp, #12]
    GPIO_InitStruct.Alternate = GPIO_AF2_TIM1;
 80017e2:	9406      	str	r4, [sp, #24]
    HAL_GPIO_Init(SECONDARY_OSCILLATOR_GPIO_Port, &GPIO_InitStruct);
 80017e4:	f001 fea8 	bl	8003538 <HAL_GPIO_Init>
    GPIO_InitStruct.Pin = MAIN_OSCILLATOR_Pin;
 80017e8:	2308      	movs	r3, #8
 80017ea:	9302      	str	r3, [sp, #8]
    GPIO_InitStruct.Pull = GPIO_NOPULL;
 80017ec:	2300      	movs	r3, #0
    HAL_GPIO_Init(MAIN_OSCILLATOR_GPIO_Port, &GPIO_InitStruct);
 80017ee:	4806      	ldr	r0, [pc, #24]	@ (8001808 <HAL_TIM_MspPostInit+0x74>)
 80017f0:	a902      	add	r1, sp, #8
    GPIO_InitStruct.Mode = GPIO_MODE_AF_PP;
 80017f2:	9403      	str	r4, [sp, #12]
    GPIO_InitStruct.Pull = GPIO_NOPULL;
 80017f4:	9304      	str	r3, [sp, #16]
    GPIO_InitStruct.Speed = GPIO_SPEED_FREQ_LOW;
 80017f6:	9305      	str	r3, [sp, #20]
    GPIO_InitStruct.Alternate = GPIO_AF1_TIM1;
 80017f8:	9506      	str	r5, [sp, #24]
    HAL_GPIO_Init(MAIN_OSCILLATOR_GPIO_Port, &GPIO_InitStruct);
 80017fa:	f001 fe9d 	bl	8003538 <HAL_GPIO_Init>
}
 80017fe:	e7d5      	b.n	80017ac <HAL_TIM_MspPostInit+0x18>
 8001800:	40012c00 	.word	0x40012c00
 8001804:	40021000 	.word	0x40021000
 8001808:	50000400 	.word	0x50000400

0800180c <HAL_UART_MspInit>:
* This function configures the hardware resources used in this example
* @param huart: UART handle pointer
* @retval None
*/
void HAL_UART_MspInit(UART_HandleTypeDef* huart)
{
 800180c:	b530      	push	{r4, r5, lr}
 800180e:	0004      	movs	r4, r0
 8001810:	b089      	sub	sp, #36	@ 0x24
  GPIO_InitTypeDef GPIO_InitStruct = {0};
 8001812:	2214      	movs	r2, #20
 8001814:	2100      	movs	r1, #0
 8001816:	a802      	add	r0, sp, #8
 8001818:	f005 fa4c 	bl	8006cb4 <memset>
  if(huart->Instance==USART2)
 800181c:	4b30      	ldr	r3, [pc, #192]	@ (80018e0 <HAL_UART_MspInit+0xd4>)
 800181e:	6822      	ldr	r2, [r4, #0]
 8001820:	429a      	cmp	r2, r3
 8001822:	d001      	beq.n	8001828 <HAL_UART_MspInit+0x1c>

  /* USER CODE END USART2_MspInit 1 */

  }

}
 8001824:	b009      	add	sp, #36	@ 0x24
 8001826:	bd30      	pop	{r4, r5, pc}
    __HAL_RCC_USART2_CLK_ENABLE();
 8001828:	2180      	movs	r1, #128	@ 0x80
 800182a:	4b2e      	ldr	r3, [pc, #184]	@ (80018e4 <HAL_UART_MspInit+0xd8>)
 800182c:	0289      	lsls	r1, r1, #10
 800182e:	6bda      	ldr	r2, [r3, #60]	@ 0x3c
    GPIO_InitStruct.Pin = T_VCP_TX_Pin|T_VCP_RX_Pin;
 8001830:	200c      	movs	r0, #12
    __HAL_RCC_USART2_CLK_ENABLE();
 8001832:	430a      	orrs	r2, r1
 8001834:	63da      	str	r2, [r3, #60]	@ 0x3c
 8001836:	6bda      	ldr	r2, [r3, #60]	@ 0x3c
 8001838:	400a      	ands	r2, r1
 800183a:	9200      	str	r2, [sp, #0]
 800183c:	9a00      	ldr	r2, [sp, #0]
    __HAL_RCC_GPIOA_CLK_ENABLE();
 800183e:	2201      	movs	r2, #1
 8001840:	6b59      	ldr	r1, [r3, #52]	@ 0x34
 8001842:	4311      	orrs	r1, r2
 8001844:	6359      	str	r1, [r3, #52]	@ 0x34
    GPIO_InitStruct.Pin = T_VCP_TX_Pin|T_VCP_RX_Pin;
 8001846:	2102      	movs	r1, #2
    __HAL_RCC_GPIOA_CLK_ENABLE();
 8001848:	6b5b      	ldr	r3, [r3, #52]	@ 0x34
    GPIO_InitStruct.Pin = T_VCP_TX_Pin|T_VCP_RX_Pin;
 800184a:	9002      	str	r0, [sp, #8]
 800184c:	9103      	str	r1, [sp, #12]
    HAL_GPIO_Init(GPIOA, &GPIO_InitStruct);
 800184e:	20a0      	movs	r0, #160	@ 0xa0
    __HAL_RCC_GPIOA_CLK_ENABLE();
 8001850:	4013      	ands	r3, r2
 8001852:	9301      	str	r3, [sp, #4]
    HAL_GPIO_Init(GPIOA, &GPIO_InitStruct);
 8001854:	05c0      	lsls	r0, r0, #23
 8001856:	a902      	add	r1, sp, #8
    __HAL_RCC_GPIOA_CLK_ENABLE();
 8001858:	9b01      	ldr	r3, [sp, #4]
    GPIO_InitStruct.Pull = GPIO_PULLUP;
 800185a:	9204      	str	r2, [sp, #16]
    GPIO_InitStruct.Alternate = GPIO_AF1_USART2;
 800185c:	9206      	str	r2, [sp, #24]
    HAL_GPIO_Init(GPIOA, &GPIO_InitStruct);
 800185e:	f001 fe6b 	bl	8003538 <HAL_GPIO_Init>
    hdma_usart2_rx.Instance = DMA1_Channel2;
 8001862:	4d21      	ldr	r5, [pc, #132]	@ (80018e8 <HAL_UART_MspInit+0xdc>)
 8001864:	4b21      	ldr	r3, [pc, #132]	@ (80018ec <HAL_UART_MspInit+0xe0>)
    hdma_usart2_rx.Init.MemInc = DMA_MINC_ENABLE;
 8001866:	2280      	movs	r2, #128	@ 0x80
    hdma_usart2_rx.Instance = DMA1_Channel2;
 8001868:	602b      	str	r3, [r5, #0]
    hdma_usart2_rx.Init.Request = DMA_REQUEST_USART2_RX;
 800186a:	2334      	movs	r3, #52	@ 0x34
 800186c:	606b      	str	r3, [r5, #4]
    hdma_usart2_rx.Init.Direction = DMA_PERIPH_TO_MEMORY;
 800186e:	2300      	movs	r3, #0
 8001870:	60ab      	str	r3, [r5, #8]
    hdma_usart2_rx.Init.PeriphInc = DMA_PINC_DISABLE;
 8001872:	60eb      	str	r3, [r5, #12]
    hdma_usart2_rx.Init.PeriphDataAlignment = DMA_PDATAALIGN_BYTE;
 8001874:	616b      	str	r3, [r5, #20]
    hdma_usart2_rx.Init.MemDataAlignment = DMA_MDATAALIGN_BYTE;
 8001876:	61ab      	str	r3, [r5, #24]
    hdma_usart2_rx.Init.Mode = DMA_NORMAL;
 8001878:	61eb      	str	r3, [r5, #28]
    hdma_usart2_rx.Init.Priority = DMA_PRIORITY_MEDIUM;
 800187a:	2380      	movs	r3, #128	@ 0x80
    if (HAL_DMA_Init(&hdma_usart2_rx) != HAL_OK)
 800187c:	0028      	movs	r0, r5
    hdma_usart2_rx.Init.Priority = DMA_PRIORITY_MEDIUM;
 800187e:	015b      	lsls	r3, r3, #5
    hdma_usart2_rx.Init.MemInc = DMA_MINC_ENABLE;
 8001880:	612a      	str	r2, [r5, #16]
    hdma_usart2_rx.Init.Priority = DMA_PRIORITY_MEDIUM;
 8001882:	622b      	str	r3, [r5, #32]
    if (HAL_DMA_Init(&hdma_usart2_rx) != HAL_OK)
 8001884:	f001 fca6 	bl	80031d4 <HAL_DMA_Init>
 8001888:	2800      	cmp	r0, #0
 800188a:	d122      	bne.n	80018d2 <HAL_UART_MspInit+0xc6>
    __HAL_LINKDMA(huart,hdmarx,hdma_usart2_rx);
 800188c:	2280      	movs	r2, #128	@ 0x80
    hdma_usart2_tx.Instance = DMA1_Channel3;
 800188e:	4b18      	ldr	r3, [pc, #96]	@ (80018f0 <HAL_UART_MspInit+0xe4>)
    __HAL_LINKDMA(huart,hdmarx,hdma_usart2_rx);
 8001890:	50a5      	str	r5, [r4, r2]
 8001892:	62ac      	str	r4, [r5, #40]	@ 0x28
    hdma_usart2_tx.Instance = DMA1_Channel3;
 8001894:	4d17      	ldr	r5, [pc, #92]	@ (80018f4 <HAL_UART_MspInit+0xe8>)
 8001896:	602b      	str	r3, [r5, #0]
    hdma_usart2_tx.Init.Request = DMA_REQUEST_USART2_TX;
 8001898:	2335      	movs	r3, #53	@ 0x35
 800189a:	606b      	str	r3, [r5, #4]
    hdma_usart2_tx.Init.Direction = DMA_MEMORY_TO_PERIPH;
 800189c:	3b25      	subs	r3, #37	@ 0x25
 800189e:	60ab      	str	r3, [r5, #8]
    hdma_usart2_tx.Init.PeriphInc = DMA_PINC_DISABLE;
 80018a0:	2300      	movs	r3, #0
 80018a2:	60eb      	str	r3, [r5, #12]
    hdma_usart2_tx.Init.PeriphDataAlignment = DMA_PDATAALIGN_BYTE;
 80018a4:	616b      	str	r3, [r5, #20]
    hdma_usart2_tx.Init.MemDataAlignment = DMA_MDATAALIGN_BYTE;
 80018a6:	61ab      	str	r3, [r5, #24]
    hdma_usart2_tx.Init.Mode = DMA_NORMAL;
 80018a8:	61eb      	str	r3, [r5, #28]
    hdma_usart2_tx.Init.Priority = DMA_PRIORITY_MEDIUM;
 80018aa:	2380      	movs	r3, #128	@ 0x80
    if (HAL_DMA_Init(&hdma_usart2_tx) != HAL_OK)
 80018ac:	0028      	movs	r0, r5
    hdma_usart2_tx.Init.Priority = DMA_PRIORITY_MEDIUM;
 80018ae:	015b      	lsls	r3, r3, #5
    hdma_usart2_tx.Init.MemInc = DMA_MINC_ENABLE;
 80018b0:	612a      	str	r2, [r5, #16]
    hdma_usart2_tx.Init.Priority = DMA_PRIORITY_MEDIUM;
 80018b2:	622b      	str	r3, [r5, #32]
    if (HAL_DMA_Init(&hdma_usart2_tx) != HAL_OK)
 80018b4:	f001 fc8e 	bl	80031d4 <HAL_DMA_Init>
 80018b8:	2800      	cmp	r0, #0
 80018ba:	d10d      	bne.n	80018d8 <HAL_UART_MspInit+0xcc>
    HAL_NVIC_SetPriority(USART2_IRQn, 1, 1);
 80018bc:	2201      	movs	r2, #1
 80018be:	2101      	movs	r1, #1
 80018c0:	201c      	movs	r0, #28
    __HAL_LINKDMA(huart,hdmatx,hdma_usart2_tx);
 80018c2:	67e5      	str	r5, [r4, #124]	@ 0x7c
 80018c4:	62ac      	str	r4, [r5, #40]	@ 0x28
    HAL_NVIC_SetPriority(USART2_IRQn, 1, 1);
 80018c6:	f001 fc25 	bl	8003114 <HAL_NVIC_SetPriority>
    HAL_NVIC_EnableIRQ(USART2_IRQn);
 80018ca:	201c      	movs	r0, #28
 80018cc:	f001 fc4c 	bl	8003168 <HAL_NVIC_EnableIRQ>
}
 80018d0:	e7a8      	b.n	8001824 <HAL_UART_MspInit+0x18>
      Error_Handler();
 80018d2:	f7ff f9d1 	bl	8000c78 <Error_Handler>
 80018d6:	e7d9      	b.n	800188c <HAL_UART_MspInit+0x80>
      Error_Handler();
 80018d8:	f7ff f9ce 	bl	8000c78 <Error_Handler>
 80018dc:	e7ee      	b.n	80018bc <HAL_UART_MspInit+0xb0>
 80018de:	46c0      	nop			@ (mov r8, r8)
 80018e0:	40004400 	.word	0x40004400
 80018e4:	40021000 	.word	0x40021000
 80018e8:	200000f0 	.word	0x200000f0
 80018ec:	4002001c 	.word	0x4002001c
 80018f0:	40020030 	.word	0x40020030
 80018f4:	20000094 	.word	0x20000094

080018f8 <NMI_Handler>:
{
  /* USER CODE BEGIN NonMaskableInt_IRQn 0 */

  /* USER CODE END NonMaskableInt_IRQn 0 */
  /* USER CODE BEGIN NonMaskableInt_IRQn 1 */
   while (1)
 80018f8:	e7fe      	b.n	80018f8 <NMI_Handler>
 80018fa:	46c0      	nop			@ (mov r8, r8)

080018fc <HardFault_Handler>:
void HardFault_Handler(void)
{
  /* USER CODE BEGIN HardFault_IRQn 0 */

  /* USER CODE END HardFault_IRQn 0 */
  while (1)
 80018fc:	e7fe      	b.n	80018fc <HardFault_Handler>
 80018fe:	46c0      	nop			@ (mov r8, r8)

08001900 <SVC_Handler>:

  /* USER CODE END SVC_IRQn 0 */
  /* USER CODE BEGIN SVC_IRQn 1 */

  /* USER CODE END SVC_IRQn 1 */
}
 8001900:	4770      	bx	lr
 8001902:	46c0      	nop			@ (mov r8, r8)

08001904 <PendSV_Handler>:

/**
  * @brief This function handles Pendable request for system service.
  */
void PendSV_Handler(void)
 8001904:	4770      	bx	lr
 8001906:	46c0      	nop			@ (mov r8, r8)

08001908 <SysTick_Handler>:

/**
  * @brief This function handles System tick timer.
  */
void SysTick_Handler(void)
{
 8001908:	b510      	push	{r4, lr}
  /* USER CODE BEGIN SysTick_IRQn 0 */

  /* USER CODE END SysTick_IRQn 0 */
  HAL_IncTick();
 800190a:	f000 fe81 	bl	8002610 <HAL_IncTick>
  /* USER CODE BEGIN SysTick_IRQn 1 */

  /* USER CODE END SysTick_IRQn 1 */
}
 800190e:	bd10      	pop	{r4, pc}

08001910 <EXTI4_15_IRQHandler>:

/**
  * @brief This function handles EXTI line 4 to 15 interrupts.
  */
void EXTI4_15_IRQHandler(void)
{
 8001910:	b510      	push	{r4, lr}
  /* USER CODE BEGIN EXTI4_15_IRQn 0 */

  /* USER CODE END EXTI4_15_IRQn 0 */

	HAL_GPIO_EXTI_IRQHandler(CLK_IN_Pin);
 8001912:	2080      	movs	r0, #128	@ 0x80
 8001914:	f001 ff0e 	bl	8003734 <HAL_GPIO_EXTI_IRQHandler>

  /* USER CODE BEGIN EXTI4_15_IRQn 1 */

  /* USER CODE END EXTI4_15_IRQn 1 */
}
 8001918:	bd10      	pop	{r4, pc}
 800191a:	46c0      	nop			@ (mov r8, r8)

0800191c <DMA1_Channel1_IRQHandler>:

/**
  * @brief This function handles DMA1 channel 1 interrupt.
  */
void DMA1_Channel1_IRQHandler(void)
{
 800191c:	b510      	push	{r4, lr}
  /* USER CODE BEGIN DMA1_Channel1_IRQn 0 */

  /* USER CODE END DMA1_Channel1_IRQn 0 */
  HAL_DMA_IRQHandler(&hdma_adc1);
 800191e:	4802      	ldr	r0, [pc, #8]	@ (8001928 <DMA1_Channel1_IRQHandler+0xc>)
 8001920:	f001 fdae 	bl	8003480 <HAL_DMA_IRQHandler>
  /* USER CODE BEGIN DMA1_Channel1_IRQn 1 */

  /* USER CODE END DMA1_Channel1_IRQn 1 */
}
 8001924:	bd10      	pop	{r4, pc}
 8001926:	46c0      	nop			@ (mov r8, r8)
 8001928:	200005c4 	.word	0x200005c4

0800192c <DMA1_Channel2_3_IRQHandler>:

/**
  * @brief This function handles DMA1 channel 2 and channel 3 interrupts.
  */
void DMA1_Channel2_3_IRQHandler(void)
{
 800192c:	b510      	push	{r4, lr}
  /* USER CODE BEGIN DMA1_Channel2_3_IRQn 0 */

  /* USER CODE END DMA1_Channel2_3_IRQn 0 */
  HAL_DMA_IRQHandler(&hdma_usart2_rx);
 800192e:	4803      	ldr	r0, [pc, #12]	@ (800193c <DMA1_Channel2_3_IRQHandler+0x10>)
 8001930:	f001 fda6 	bl	8003480 <HAL_DMA_IRQHandler>
  HAL_DMA_IRQHandler(&hdma_usart2_tx);
 8001934:	4802      	ldr	r0, [pc, #8]	@ (8001940 <DMA1_Channel2_3_IRQHandler+0x14>)
 8001936:	f001 fda3 	bl	8003480 <HAL_DMA_IRQHandler>
  /* USER CODE BEGIN DMA1_Channel2_3_IRQn 1 */

  /* USER CODE END DMA1_Channel2_3_IRQn 1 */
}
 800193a:	bd10      	pop	{r4, pc}
 800193c:	200000f0 	.word	0x200000f0
 8001940:	20000094 	.word	0x20000094

08001944 <TIM2_IRQHandler>:

/**
  * @brief This function handles TIM2 global interrupt.
  */
void TIM2_IRQHandler(void)
{
 8001944:	b510      	push	{r4, lr}
  /* USER CODE BEGIN TIM2_IRQn 0 */

  /* USER CODE END TIM2_IRQn 0 */
  HAL_TIM_IRQHandler(&htim2);
 8001946:	4802      	ldr	r0, [pc, #8]	@ (8001950 <TIM2_IRQHandler+0xc>)
 8001948:	f003 fc18 	bl	800517c <HAL_TIM_IRQHandler>
  /* USER CODE BEGIN TIM2_IRQn 1 */

  /* USER CODE END TIM2_IRQn 1 */
}
 800194c:	bd10      	pop	{r4, pc}
 800194e:	46c0      	nop			@ (mov r8, r8)
 8001950:	2000044c 	.word	0x2000044c

08001954 <TIM3_IRQHandler>:

/**
  * @brief This function handles TIM3 global interrupt.
  */
void TIM3_IRQHandler(void)
{
 8001954:	b510      	push	{r4, lr}
  /* USER CODE BEGIN TIM3_IRQn 0 */

  /* USER CODE END TIM3_IRQn 0 */
  HAL_TIM_IRQHandler(&htim3);
 8001956:	4802      	ldr	r0, [pc, #8]	@ (8001960 <TIM3_IRQHandler+0xc>)
 8001958:	f003 fc10 	bl	800517c <HAL_TIM_IRQHandler>
  /* USER CODE BEGIN TIM3_IRQn 1 */

  /* USER CODE END TIM3_IRQn 1 */
}
 800195c:	bd10      	pop	{r4, pc}
 800195e:	46c0      	nop			@ (mov r8, r8)
 8001960:	20000390 	.word	0x20000390

08001964 <TIM16_IRQHandler>:

/**
  * @brief This function handles TIM16 global interrupt.
  */
void TIM16_IRQHandler(void)
{
 8001964:	b510      	push	{r4, lr}
  /* USER CODE BEGIN TIM16_IRQn 0 */

  /* USER CODE END TIM16_IRQn 0 */
  HAL_TIM_IRQHandler(&htim16);
 8001966:	4802      	ldr	r0, [pc, #8]	@ (8001970 <TIM16_IRQHandler+0xc>)
 8001968:	f003 fc08 	bl	800517c <HAL_TIM_IRQHandler>
  /* USER CODE BEGIN TIM16_IRQn 1 */

  /* USER CODE END TIM16_IRQn 1 */
}
 800196c:	bd10      	pop	{r4, pc}
 800196e:	46c0      	nop			@ (mov r8, r8)
 8001970:	20000508 	.word	0x20000508

08001974 <TIM17_IRQHandler>:

/**
  * @brief This function handles TIM17 global interrupt.
  */
void TIM17_IRQHandler(void)
{
 8001974:	b510      	push	{r4, lr}
  /* USER CODE BEGIN TIM17_IRQn 0 */

  /* USER CODE END TIM17_IRQn 0 */
  HAL_TIM_IRQHandler(&htim17);
 8001976:	4802      	ldr	r0, [pc, #8]	@ (8001980 <TIM17_IRQHandler+0xc>)
 8001978:	f003 fc00 	bl	800517c <HAL_TIM_IRQHandler>
  /* USER CODE BEGIN TIM17_IRQn 1 */

  /* USER CODE END TIM17_IRQn 1 */
}
 800197c:	bd10      	pop	{r4, pc}
 800197e:	46c0      	nop			@ (mov r8, r8)
 8001980:	20000218 	.word	0x20000218

08001984 <USART2_IRQHandler>:

/**
  * @brief This function handles USART2 global interrupt / USART2 wake-up interrupt through EXTI line 26.
  */
void USART2_IRQHandler(void)
{
 8001984:	b510      	push	{r4, lr}
  /* USER CODE BEGIN USART2_IRQn 0 */

  /* USER CODE END USART2_IRQn 0 */
  HAL_UART_IRQHandler(&huart2);
 8001986:	4802      	ldr	r0, [pc, #8]	@ (8001990 <USART2_IRQHandler+0xc>)
 8001988:	f004 fc58 	bl	800623c <HAL_UART_IRQHandler>
  /* USER CODE BEGIN USART2_IRQn 1 */

  /* USER CODE END USART2_IRQn 1 */
}
 800198c:	bd10      	pop	{r4, pc}
 800198e:	46c0      	nop			@ (mov r8, r8)
 8001990:	2000014c 	.word	0x2000014c

08001994 <LPTIM1_IRQHandler>:
/* USER CODE BEGIN 1 */

/* USER CODE END 1 */

void LPTIM1_IRQHandler(void)
{
 8001994:	b510      	push	{r4, lr}
  HAL_LPTIM_IRQHandler(&hlptim1);
 8001996:	4802      	ldr	r0, [pc, #8]	@ (80019a0 <LPTIM1_IRQHandler+0xc>)
 8001998:	f001 ff78 	bl	800388c <HAL_LPTIM_IRQHandler>
}
 800199c:	bd10      	pop	{r4, pc}
 800199e:	46c0      	nop			@ (mov r8, r8)
 80019a0:	20000038 	.word	0x20000038

080019a4 <Global_Interrupt_Enable>:
  __ASM volatile ("cpsie i" : : : "memory");
 80019a4:	b662      	cpsie	i
//FUNCTION DEFINITIONS
uint8_t Global_Interrupt_Enable(void){

	__enable_irq();
	return 1;
}
 80019a6:	2001      	movs	r0, #1
 80019a8:	4770      	bx	lr
 80019aa:	46c0      	nop			@ (mov r8, r8)

080019ac <Startup>:

uint8_t Startup(void){

	//duty_delay_line_read_pointer_offset = 255; //phase difference between the two waves

	current_depth = 255; //whilst depth pot is being used as delay adjust
 80019ac:	22ff      	movs	r2, #255	@ 0xff
 80019ae:	4b14      	ldr	r3, [pc, #80]	@ (8001a00 <Startup+0x54>)
uint8_t Startup(void){
 80019b0:	b510      	push	{r4, lr}
	current_depth = 255; //whilst depth pot is being used as delay adjust
 80019b2:	801a      	strh	r2, [r3, #0]
 80019b4:	2300      	movs	r3, #0

	// re-initialise all values in delay line storage array to 512 (mid scale) as they are initialised to 0 on startup
	for(uint16_t i = 0; i < FINAL_INDEX + 1; i++){

		duty_delay_line_storage_array[i] = INITIAL_PWM_VALUE;
 80019b6:	3202      	adds	r2, #2
 80019b8:	4812      	ldr	r0, [pc, #72]	@ (8001a04 <Startup+0x58>)
 80019ba:	32ff      	adds	r2, #255	@ 0xff
 80019bc:	0059      	lsls	r1, r3, #1
	for(uint16_t i = 0; i < FINAL_INDEX + 1; i++){
 80019be:	3301      	adds	r3, #1
		duty_delay_line_storage_array[i] = INITIAL_PWM_VALUE;
 80019c0:	5242      	strh	r2, [r0, r1]
	for(uint16_t i = 0; i < FINAL_INDEX + 1; i++){
 80019c2:	4293      	cmp	r3, r2
 80019c4:	d1fa      	bne.n	80019bc <Startup+0x10>
	}

	__HAL_TIM_ENABLE_IT(&htim2, TIM_IT_UPDATE); //make sure the overflow (update) interrupt is enabled for TIM2
 80019c6:	2101      	movs	r1, #1
 80019c8:	4b0f      	ldr	r3, [pc, #60]	@ (8001a08 <Startup+0x5c>)

	HAL_ADC_Start_DMA(&hadc1, (uint32_t*)ADCResultsDMA, (uint32_t)num_ADC_conversions);
 80019ca:	4c10      	ldr	r4, [pc, #64]	@ (8001a0c <Startup+0x60>)
	__HAL_TIM_ENABLE_IT(&htim2, TIM_IT_UPDATE); //make sure the overflow (update) interrupt is enabled for TIM2
 80019cc:	681a      	ldr	r2, [r3, #0]
	HAL_ADC_Start_DMA(&hadc1, (uint32_t*)ADCResultsDMA, (uint32_t)num_ADC_conversions);
 80019ce:	0020      	movs	r0, r4
	__HAL_TIM_ENABLE_IT(&htim2, TIM_IT_UPDATE); //make sure the overflow (update) interrupt is enabled for TIM2
 80019d0:	68d3      	ldr	r3, [r2, #12]
 80019d2:	430b      	orrs	r3, r1
 80019d4:	60d3      	str	r3, [r2, #12]
	HAL_ADC_Start_DMA(&hadc1, (uint32_t*)ADCResultsDMA, (uint32_t)num_ADC_conversions);
 80019d6:	490e      	ldr	r1, [pc, #56]	@ (8001a10 <Startup+0x64>)
 80019d8:	2204      	movs	r2, #4
 80019da:	f001 f9e3 	bl	8002da4 <HAL_ADC_Start_DMA>

	//WAIT
	while(initial_ADC_conversion_complete == NO){}; //wait while first ADC conversion is ongoing
 80019de:	4a0d      	ldr	r2, [pc, #52]	@ (8001a14 <Startup+0x68>)
 80019e0:	7813      	ldrb	r3, [r2, #0]
 80019e2:	2b00      	cmp	r3, #0
 80019e4:	d0fc      	beq.n	80019e0 <Startup+0x34>

	HAL_ADC_Stop_DMA(&hadc1);
 80019e6:	0020      	movs	r0, r4
 80019e8:	f001 fa7a 	bl	8002ee0 <HAL_ADC_Stop_DMA>

	HAL_GPIO_WritePin(SW_OUT_GPIO_Port, SW_OUT_Pin, 1); //latch high the debounced o/p
 80019ec:	2180      	movs	r1, #128	@ 0x80
 80019ee:	20a0      	movs	r0, #160	@ 0xa0
 80019f0:	2201      	movs	r2, #1
 80019f2:	0089      	lsls	r1, r1, #2
 80019f4:	05c0      	lsls	r0, r0, #23
 80019f6:	f001 fe97 	bl	8003728 <HAL_GPIO_WritePin>

	//HAL_GPIO_WritePin(MONITOR_GPIO_Port, MONITOR_Pin, 1);

	return 1;
}
 80019fa:	2001      	movs	r0, #1
 80019fc:	bd10      	pop	{r4, pc}
 80019fe:	46c0      	nop			@ (mov r8, r8)
 8001a00:	20000af6 	.word	0x20000af6
 8001a04:	200006b8 	.word	0x200006b8
 8001a08:	2000044c 	.word	0x2000044c
 8001a0c:	20000620 	.word	0x20000620
 8001a10:	20000adc 	.word	0x20000adc
 8001a14:	20000ad9 	.word	0x20000ad9

08001a18 <Start_PWM_Gen_Timer_Main_and_Secondary_Oscillators>:

uint8_t Start_PWM_Gen_Timer_Main_and_Secondary_Oscillators(TIM_HandleTypeDef *TIM, uint32_t PWM_TIM_channel_1, uint32_t PWM_TIM_channel_2)
{
 8001a18:	b5f8      	push	{r3, r4, r5, r6, r7, lr}
 8001a1a:	0004      	movs	r4, r0
 8001a1c:	0017      	movs	r7, r2
 8001a1e:	000d      	movs	r5, r1
	uint8_t ok_AND = 1;
	ok_AND &= HAL_TIM_Base_Start(TIM);
 8001a20:	f002 fed6 	bl	80047d0 <HAL_TIM_Base_Start>
	ok_AND &= HAL_TIM_PWM_Start(TIM, PWM_TIM_channel_1); //start PWM
 8001a24:	0029      	movs	r1, r5
	ok_AND &= HAL_TIM_Base_Start(TIM);
 8001a26:	0006      	movs	r6, r0
	ok_AND &= HAL_TIM_PWM_Start(TIM, PWM_TIM_channel_1); //start PWM
 8001a28:	0020      	movs	r0, r4
 8001a2a:	f003 f9c3 	bl	8004db4 <HAL_TIM_PWM_Start>
	ok_AND &= HAL_TIM_PWM_Start(TIM, PWM_TIM_channel_2); //start PWM
 8001a2e:	0039      	movs	r1, r7
	ok_AND &= HAL_TIM_PWM_Start(TIM, PWM_TIM_channel_1); //start PWM
 8001a30:	0005      	movs	r5, r0
	ok_AND &= HAL_TIM_PWM_Start(TIM, PWM_TIM_channel_2); //start PWM
 8001a32:	0020      	movs	r0, r4
 8001a34:	f003 f9be 	bl	8004db4 <HAL_TIM_PWM_Start>
 8001a38:	2301      	movs	r3, #1
 8001a3a:	001c      	movs	r4, r3
 8001a3c:	4030      	ands	r0, r6
 8001a3e:	4028      	ands	r0, r5
 8001a40:	4004      	ands	r4, r0

	if(ok_AND != HAL_OK){
 8001a42:	4203      	tst	r3, r0
 8001a44:	d101      	bne.n	8001a4a <Start_PWM_Gen_Timer_Main_and_Secondary_Oscillators+0x32>

		Error_Handler();
	}

	return ok_AND;
}
 8001a46:	0020      	movs	r0, r4
 8001a48:	bdf8      	pop	{r3, r4, r5, r6, r7, pc}
		Error_Handler();
 8001a4a:	f7ff f915 	bl	8000c78 <Error_Handler>
 8001a4e:	e7fa      	b.n	8001a46 <Start_PWM_Gen_Timer_Main_and_Secondary_Oscillators+0x2e>

08001a50 <Start_Freq_Gen_Timer>:

uint8_t Start_Freq_Gen_Timer(void)
{
 8001a50:	b510      	push	{r4, lr}
	return ok;
}

uint8_t Start_OC_TIM(TIM_HandleTypeDef *TIM, uint32_t OC_TIM_channel){

	uint8_t ok = HAL_TIM_OC_Start_IT(TIM, OC_TIM_channel); //_IT variant of function
 8001a52:	2100      	movs	r1, #0
 8001a54:	4805      	ldr	r0, [pc, #20]	@ (8001a6c <Start_Freq_Gen_Timer+0x1c>)
 8001a56:	f002 ffe3 	bl	8004a20 <HAL_TIM_OC_Start_IT>
 8001a5a:	1e04      	subs	r4, r0, #0
	//means the timer will generate an interrupt on delay_elapsed (CNT = CCR) condition

	if(ok != HAL_OK){
 8001a5c:	d101      	bne.n	8001a62 <Start_Freq_Gen_Timer+0x12>
}
 8001a5e:	0020      	movs	r0, r4
 8001a60:	bd10      	pop	{r4, pc}

		Error_Handler();
 8001a62:	f7ff f909 	bl	8000c78 <Error_Handler>
		Error_Handler();
 8001a66:	f7ff f907 	bl	8000c78 <Error_Handler>
 8001a6a:	e7f8      	b.n	8001a5e <Start_Freq_Gen_Timer+0xe>
 8001a6c:	20000508 	.word	0x20000508

08001a70 <Start_OC_TIM>:
uint8_t Start_OC_TIM(TIM_HandleTypeDef *TIM, uint32_t OC_TIM_channel){
 8001a70:	b510      	push	{r4, lr}
	uint8_t ok = HAL_TIM_OC_Start_IT(TIM, OC_TIM_channel); //_IT variant of function
 8001a72:	f002 ffd5 	bl	8004a20 <HAL_TIM_OC_Start_IT>
 8001a76:	1e04      	subs	r4, r0, #0
	if(ok != HAL_OK){
 8001a78:	d101      	bne.n	8001a7e <Start_OC_TIM+0xe>
	}

	return ok;
}
 8001a7a:	0020      	movs	r0, r4
 8001a7c:	bd10      	pop	{r4, pc}
		Error_Handler();
 8001a7e:	f7ff f8fb 	bl	8000c78 <Error_Handler>
 8001a82:	e7fa      	b.n	8001a7a <Start_OC_TIM+0xa>

08001a84 <Stop_OC_TIM>:

uint8_t Stop_OC_TIM(TIM_HandleTypeDef *TIM, uint32_t OC_TIM_channel){
 8001a84:	b510      	push	{r4, lr}

	uint8_t ok = HAL_TIM_OC_Stop_IT(TIM, OC_TIM_channel);
 8001a86:	f003 f84d 	bl	8004b24 <HAL_TIM_OC_Stop_IT>
 8001a8a:	1e04      	subs	r4, r0, #0

	if(ok != HAL_OK){
 8001a8c:	d101      	bne.n	8001a92 <Stop_OC_TIM+0xe>

		Error_Handler();
	}

	return ok;
}
 8001a8e:	0020      	movs	r0, r4
 8001a90:	bd10      	pop	{r4, pc}
		Error_Handler();
 8001a92:	f7ff f8f1 	bl	8000c78 <Error_Handler>
 8001a96:	e7fa      	b.n	8001a8e <Stop_OC_TIM+0xa>

08001a98 <Start_Input_Capture_Timer>:
	}

	return ok_AND;
}

uint8_t Start_Input_Capture_Timer(void){
 8001a98:	b570      	push	{r4, r5, r6, lr}
	uint8_t ok_AND = HAL_TIM_Base_Start_IT(&htim2);
 8001a9a:	4d0a      	ldr	r5, [pc, #40]	@ (8001ac4 <Start_Input_Capture_Timer+0x2c>)
 8001a9c:	0028      	movs	r0, r5
 8001a9e:	f002 fec5 	bl	800482c <HAL_TIM_Base_Start_IT>
	ok_AND &= HAL_TIM_IC_Start_IT(&htim2, IC_TIM_channel);
 8001aa2:	2100      	movs	r1, #0
	uint8_t ok_AND = HAL_TIM_Base_Start_IT(&htim2);
 8001aa4:	0004      	movs	r4, r0
	ok_AND &= HAL_TIM_IC_Start_IT(&htim2, IC_TIM_channel);
 8001aa6:	0028      	movs	r0, r5
 8001aa8:	f003 fab4 	bl	8005014 <HAL_TIM_IC_Start_IT>
 8001aac:	4004      	ands	r4, r0
 8001aae:	b2e4      	uxtb	r4, r4
	if(ok_AND != HAL_OK){
 8001ab0:	2c00      	cmp	r4, #0
 8001ab2:	d101      	bne.n	8001ab8 <Start_Input_Capture_Timer+0x20>

		Error_Handler();
	}

	return ok;
}
 8001ab4:	0020      	movs	r0, r4
 8001ab6:	bd70      	pop	{r4, r5, r6, pc}
		Error_Handler();
 8001ab8:	f7ff f8de 	bl	8000c78 <Error_Handler>
		Error_Handler();
 8001abc:	f7ff f8dc 	bl	8000c78 <Error_Handler>
 8001ac0:	e7f8      	b.n	8001ab4 <Start_Input_Capture_Timer+0x1c>
 8001ac2:	46c0      	nop			@ (mov r8, r8)
 8001ac4:	2000044c 	.word	0x2000044c

08001ac8 <Process_TIM16_Raw_Start_Value_and_Raw_Prescaler>:

uint8_t Process_TIM16_Raw_Start_Value_and_Raw_Prescaler(volatile uint16_t speed_adc_value, uint8_t adc_resolution_bits, uint16_t speed_range, volatile uint16_t *TIM16_raw_start_value_ptr, volatile uint16_t *TIM16_raw_prescaler_ptr){
 8001ac8:	b510      	push	{r4, lr}
 8001aca:	b082      	sub	sp, #8
 8001acc:	466c      	mov	r4, sp
 8001ace:	80e0      	strh	r0, [r4, #6]

	uint32_t speed_control = 0;
	uint8_t how_many_128 = 0;

    //speed_control = (speed_adc_10_bit/1024)*'range macro'
    speed_control = speed_adc_value * speed_range;
 8001ad0:	88e0      	ldrh	r0, [r4, #6]
 8001ad2:	4342      	muls	r2, r0
    speed_control = speed_control >> adc_resolution_bits;
 8001ad4:	40ca      	lsrs	r2, r1

    how_many_128 = (uint8_t)(speed_control >> 7); //divide by 128, i.e. return how many 128s go into the speed_control
 8001ad6:	09d0      	lsrs	r0, r2, #7
    *TIM16_raw_start_value_ptr = (uint16_t)(speed_control - (uint16_t)(how_many_128 << 7)); //how_many_128*128
 8001ad8:	b2c1      	uxtb	r1, r0
 8001ada:	01c9      	lsls	r1, r1, #7
 8001adc:	1a52      	subs	r2, r2, r1
 8001ade:	b292      	uxth	r2, r2
 8001ae0:	801a      	strh	r2, [r3, #0]
    *TIM16_raw_prescaler_ptr = SLOWEST_SPEED_PRESCALER >> how_many_128;
 8001ae2:	22ff      	movs	r2, #255	@ 0xff
 8001ae4:	2380      	movs	r3, #128	@ 0x80
 8001ae6:	4002      	ands	r2, r0
 8001ae8:	00db      	lsls	r3, r3, #3
 8001aea:	4113      	asrs	r3, r2

    return 1;
}
 8001aec:	2001      	movs	r0, #1
    *TIM16_raw_prescaler_ptr = SLOWEST_SPEED_PRESCALER >> how_many_128;
 8001aee:	9a04      	ldr	r2, [sp, #16]
 8001af0:	b29b      	uxth	r3, r3
 8001af2:	8013      	strh	r3, [r2, #0]
}
 8001af4:	b002      	add	sp, #8
 8001af6:	bd10      	pop	{r4, pc}

08001af8 <Process_TIM16_Final_Start_Value_and_Final_Prescaler>:
    }
    return 1;
}

uint8_t Process_TIM16_Final_Start_Value_and_Final_Prescaler(volatile uint16_t TIM16_raw_start_value_value, volatile uint16_t *TIM16_final_start_value_ptr, volatile uint16_t TIM16_raw_prescaler_value, volatile uint16_t *TIM16_final_prescaler_ptr,
																volatile uint16_t current_symmetry_value, volatile uint16_t current_waveshape_value, volatile uint8_t current_halfcycle_value, volatile uint8_t current_quadrant_value, volatile uint16_t current_index_value){
 8001af8:	b5f0      	push	{r4, r5, r6, r7, lr}
 8001afa:	4657      	mov	r7, sl
 8001afc:	46de      	mov	lr, fp
 8001afe:	464e      	mov	r6, r9
 8001b00:	4645      	mov	r5, r8
 8001b02:	b5e0      	push	{r5, r6, r7, lr}
 8001b04:	b085      	sub	sp, #20
 8001b06:	466c      	mov	r4, sp
 8001b08:	ad01      	add	r5, sp, #4
 8001b0a:	80e0      	strh	r0, [r4, #6]
 8001b0c:	1da7      	adds	r7, r4, #6
	volatile enum Adjust_Prescaler_Action TIM16_prescaler_adjustment;

    #if SYMMETRY_ON_OR_OFF == ON

		volatile enum TIM16_final_start_value_Oscillation_Mode TIM16_final_start_value_oscillation_mode = DO_NOT_OSCILLATE;
		volatile enum Symmetry_Type symmetry_type_for_halfcycle = SHORTEN;
 8001b0e:	200f      	movs	r0, #15
		volatile enum TIM16_final_start_value_Oscillation_Mode TIM16_final_start_value_oscillation_mode = DO_NOT_OSCILLATE;
 8001b10:	240e      	movs	r4, #14
																volatile uint16_t current_symmetry_value, volatile uint16_t current_waveshape_value, volatile uint8_t current_halfcycle_value, volatile uint8_t current_quadrant_value, volatile uint16_t current_index_value){
 8001b12:	802a      	strh	r2, [r5, #0]
		volatile enum TIM16_final_start_value_Oscillation_Mode TIM16_final_start_value_oscillation_mode = DO_NOT_OSCILLATE;
 8001b14:	2200      	movs	r2, #0
 8001b16:	446c      	add	r4, sp
		volatile enum Symmetry_Type symmetry_type_for_halfcycle = SHORTEN;
 8001b18:	4468      	add	r0, sp
		volatile enum TIM16_final_start_value_Oscillation_Mode TIM16_final_start_value_oscillation_mode = DO_NOT_OSCILLATE;
 8001b1a:	7022      	strb	r2, [r4, #0]


		uint8_t pot_rotation_corrected = 0;
		enum Symmetry_Status symmetry_status = CW;

		if(current_symmetry_value < SYMMETRY_ADC_HALF_SCALE){ //adc = 0-127
 8001b1c:	ae0e      	add	r6, sp, #56	@ 0x38
		volatile enum Symmetry_Type symmetry_type_for_halfcycle = SHORTEN;
 8001b1e:	7002      	strb	r2, [r0, #0]
		if(current_symmetry_value < SYMMETRY_ADC_HALF_SCALE){ //adc = 0-127
 8001b20:	8836      	ldrh	r6, [r6, #0]
																volatile uint16_t current_symmetry_value, volatile uint16_t current_waveshape_value, volatile uint8_t current_halfcycle_value, volatile uint8_t current_quadrant_value, volatile uint16_t current_index_value){
 8001b22:	468b      	mov	fp, r1
		if(current_symmetry_value < SYMMETRY_ADC_HALF_SCALE){ //adc = 0-127
 8001b24:	b2b6      	uxth	r6, r6
 8001b26:	46b4      	mov	ip, r6
		}
		else{ //adc is 128-255
			symmetry_status = CCW;
		}

		if((current_waveshape_value == SINE_MODE) || (current_waveshape_value == TRIANGLE_MODE)){
 8001b28:	ae02      	add	r6, sp, #8
 8001b2a:	8eb6      	ldrh	r6, [r6, #52]	@ 0x34
 8001b2c:	2e01      	cmp	r6, #1
 8001b2e:	d04a      	beq.n	8001bc6 <Process_TIM16_Final_Start_Value_and_Final_Prescaler+0xce>
 8001b30:	a902      	add	r1, sp, #8
 8001b32:	8e8e      	ldrh	r6, [r1, #52]	@ 0x34
 8001b34:	2e00      	cmp	r6, #0
 8001b36:	d046      	beq.n	8001bc6 <Process_TIM16_Final_Start_Value_and_Final_Prescaler+0xce>

					symmetry_type_for_halfcycle = LENGTHEN;
				}
			}
		}
		else if(current_waveshape_value == SQUARE_MODE){
 8001b38:	a902      	add	r1, sp, #8
 8001b3a:	8e8e      	ldrh	r6, [r1, #52]	@ 0x34
 8001b3c:	2e02      	cmp	r6, #2
 8001b3e:	d100      	bne.n	8001b42 <Process_TIM16_Final_Start_Value_and_Final_Prescaler+0x4a>
 8001b40:	e13d      	b.n	8001dbe <Process_TIM16_Final_Start_Value_and_Final_Prescaler+0x2c6>
					symmetry_type_for_halfcycle = LENGTHEN;
				}
			}
		}

		if(symmetry_status == CW){
 8001b42:	4662      	mov	r2, ip
 8001b44:	2a7f      	cmp	r2, #127	@ 0x7f
 8001b46:	d900      	bls.n	8001b4a <Process_TIM16_Final_Start_Value_and_Final_Prescaler+0x52>
 8001b48:	e0c3      	b.n	8001cd2 <Process_TIM16_Final_Start_Value_and_Final_Prescaler+0x1da>

			pot_rotation_corrected = SYMMETRY_ADC_HALF_SCALE - 1 - current_symmetry;
 8001b4a:	267f      	movs	r6, #127	@ 0x7f
 8001b4c:	4ab8      	ldr	r2, [pc, #736]	@ (8001e30 <Process_TIM16_Final_Start_Value_and_Final_Prescaler+0x338>)
 8001b4e:	8812      	ldrh	r2, [r2, #0]
 8001b50:	1ab6      	subs	r6, r6, r2
 8001b52:	b2f6      	uxtb	r6, r6

			pot_rotation_corrected = SYMMETRY_ADC_HALF_SCALE - 1 - (SYMMETRY_ADC_FULL_SCALE - current_symmetry);
		}

		//HAVE TO BE uin16_t FOR 1ST AND 3RD VARIABLES HERE BECAUSE A uint8_t IS LIMITED TO 255!
		uint16_t two_fifty_six_minus_TIM16_raw_start_value = 256 - TIM16_raw_start_value_value;
 8001b54:	883a      	ldrh	r2, [r7, #0]
 8001b56:	2780      	movs	r7, #128	@ 0x80
 8001b58:	007f      	lsls	r7, r7, #1
 8001b5a:	1aba      	subs	r2, r7, r2
 8001b5c:	b292      	uxth	r2, r2

		uint16_t two_fifty_six_minus_TIM16_raw_start_value_multiplied_by_PRC = two_fifty_six_minus_TIM16_raw_start_value * pot_rotation_corrected;
 8001b5e:	4356      	muls	r6, r2
 8001b60:	b2b6      	uxth	r6, r6

		uint16_t two_fifty_six_minus_TIM16_raw_start_value_multiplied_by_PRC_and_shifted_by_ADC_bits = (uint16_t)(two_fifty_six_minus_TIM16_raw_start_value_multiplied_by_PRC >> SYMMETRY_ADC_NUM_BITS);
 8001b62:	0a31      	lsrs	r1, r6, #8
 8001b64:	4688      	mov	r8, r1


		//HAVE TO BE uin16_t HERE BECAUSE A uint8_t IS LIMITED TO 255!
		uint16_t manipulated_period_shorten = two_fifty_six_minus_TIM16_raw_start_value - two_fifty_six_minus_TIM16_raw_start_value_multiplied_by_PRC_and_shifted_by_ADC_bits; //manipulated shorten will always be less than 256
 8001b66:	1a51      	subs	r1, r2, r1

		uint16_t manipulated_period_lengthen = two_fifty_six_minus_TIM16_raw_start_value + two_fifty_six_minus_TIM16_raw_start_value_multiplied_by_PRC_and_shifted_by_ADC_bits; //manipulated lengthen can be greater than 256 up to 381
 8001b68:	4442      	add	r2, r8
		uint16_t manipulated_period_shorten = two_fifty_six_minus_TIM16_raw_start_value - two_fifty_six_minus_TIM16_raw_start_value_multiplied_by_PRC_and_shifted_by_ADC_bits; //manipulated shorten will always be less than 256
 8001b6a:	b289      	uxth	r1, r1
		uint16_t manipulated_period_lengthen = two_fifty_six_minus_TIM16_raw_start_value + two_fifty_six_minus_TIM16_raw_start_value_multiplied_by_PRC_and_shifted_by_ADC_bits; //manipulated lengthen can be greater than 256 up to 381
 8001b6c:	b292      	uxth	r2, r2
		uint16_t manipulated_period_shorten = two_fifty_six_minus_TIM16_raw_start_value - two_fifty_six_minus_TIM16_raw_start_value_multiplied_by_PRC_and_shifted_by_ADC_bits; //manipulated shorten will always be less than 256
 8001b6e:	468c      	mov	ip, r1


		if((manipulated_period_lengthen < 256) || ((manipulated_period_lengthen == 256) && (unsigned_bitwise_modulo(two_fifty_six_minus_TIM16_raw_start_value_multiplied_by_PRC, 8) == 0))){
 8001b70:	2aff      	cmp	r2, #255	@ 0xff
 8001b72:	d950      	bls.n	8001c16 <Process_TIM16_Final_Start_Value_and_Final_Prescaler+0x11e>
 8001b74:	21ff      	movs	r1, #255	@ 0xff
 8001b76:	4031      	ands	r1, r6
 8001b78:	4688      	mov	r8, r1
 8001b7a:	42ba      	cmp	r2, r7
 8001b7c:	d100      	bne.n	8001b80 <Process_TIM16_Final_Start_Value_and_Final_Prescaler+0x88>
 8001b7e:	e0fd      	b.n	8001d7c <Process_TIM16_Final_Start_Value_and_Final_Prescaler+0x284>
			}
		}

		else if((manipulated_period_lengthen > 256) || ((manipulated_period_lengthen == 256) && (unsigned_bitwise_modulo(two_fifty_six_minus_TIM16_raw_start_value_multiplied_by_PRC, 8) > 0))){

			if(unsigned_bitwise_modulo(two_fifty_six_minus_TIM16_raw_start_value_multiplied_by_PRC, 8) == 128){
 8001b80:	2980      	cmp	r1, #128	@ 0x80
 8001b82:	d100      	bne.n	8001b86 <Process_TIM16_Final_Start_Value_and_Final_Prescaler+0x8e>
 8001b84:	e0c3      	b.n	8001d0e <Process_TIM16_Final_Start_Value_and_Final_Prescaler+0x216>
						TIM16_final_start_value_oscillation_mode = OSCILLATE_UPWARDS;
						TIM16_prescaler_adjustment = MULTIPLY_BY_TWO;
					}
				}
			}
			else if(unsigned_bitwise_modulo(two_fifty_six_minus_TIM16_raw_start_value_multiplied_by_PRC, 8) == 0){
 8001b86:	2900      	cmp	r1, #0
 8001b88:	d100      	bne.n	8001b8c <Process_TIM16_Final_Start_Value_and_Final_Prescaler+0x94>
 8001b8a:	e12f      	b.n	8001dec <Process_TIM16_Final_Start_Value_and_Final_Prescaler+0x2f4>
						TIM16_final_start_value_oscillation_mode = OSCILLATE_UPWARDS;
						TIM16_prescaler_adjustment = MULTIPLY_BY_TWO;
					}
				}
			}
			else if(unsigned_bitwise_modulo(two_fifty_six_minus_TIM16_raw_start_value_multiplied_by_PRC, 8) < 128){
 8001b8c:	0636      	lsls	r6, r6, #24
 8001b8e:	d500      	bpl.n	8001b92 <Process_TIM16_Final_Start_Value_and_Final_Prescaler+0x9a>
 8001b90:	e1ac      	b.n	8001eec <Process_TIM16_Final_Start_Value_and_Final_Prescaler+0x3f4>

				manipulated_period_shorten = manipulated_period_shorten; //do nothing// //DONE
				//NO NEED TO CHECK IF MANIPULATED_PERIOD_SHORTEN ENDS IN 0.5 AS IN THIS SPECIFIC CONDITION, WE HAVE ELIMINATED THAT POSSIBILITY
				manipulated_period_lengthen = manipulated_period_lengthen; //do nothing //DONE

				if(unsigned_bitwise_modulo(manipulated_period_lengthen, 1) == 0){
 8001b92:	2601      	movs	r6, #1
 8001b94:	2101      	movs	r1, #1
 8001b96:	4016      	ands	r6, r2
					manipulated_period_lengthen = manipulated_period_lengthen >> 1; //DONE
 8001b98:	0852      	lsrs	r2, r2, #1
 8001b9a:	4688      	mov	r8, r1
 8001b9c:	b292      	uxth	r2, r2
				if(unsigned_bitwise_modulo(manipulated_period_lengthen, 1) == 0){
 8001b9e:	2e00      	cmp	r6, #0
 8001ba0:	d100      	bne.n	8001ba4 <Process_TIM16_Final_Start_Value_and_Final_Prescaler+0xac>
 8001ba2:	e18c      	b.n	8001ebe <Process_TIM16_Final_Start_Value_and_Final_Prescaler+0x3c6>

					manipulated_period_lengthen = manipulated_period_lengthen >> 1; //DONE
					//prescaler during lengthened halfperiod should be set to half //DONE
					//manipulated period_lengthened should oscillate over the halfperiod between manipulated_period_lengthen and manipulated_period_lengthen + 1. //DONE

					if(symmetry_type_for_halfcycle == SHORTEN){
 8001ba4:	7806      	ldrb	r6, [r0, #0]
 8001ba6:	b2f7      	uxtb	r7, r6
 8001ba8:	2e00      	cmp	r6, #0
 8001baa:	d100      	bne.n	8001bae <Process_TIM16_Final_Start_Value_and_Final_Prescaler+0xb6>
 8001bac:	e101      	b.n	8001db2 <Process_TIM16_Final_Start_Value_and_Final_Prescaler+0x2ba>
						TIM16_final_start_value_oscillation_mode = DO_NOT_OSCILLATE;
						TIM16_prescaler_adjustment = DO_NOTHING;
					}
					else if(symmetry_type_for_halfcycle == LENGTHEN){
 8001bae:	210d      	movs	r1, #13
 8001bb0:	7806      	ldrb	r6, [r0, #0]
 8001bb2:	4469      	add	r1, sp
 8001bb4:	4689      	mov	r9, r1
 8001bb6:	2e01      	cmp	r6, #1
 8001bb8:	d146      	bne.n	8001c48 <Process_TIM16_Final_Start_Value_and_Final_Prescaler+0x150>
						TIM16_final_start_value_oscillation_mode = OSCILLATE_UPWARDS;
 8001bba:	4641      	mov	r1, r8
						TIM16_prescaler_adjustment = MULTIPLY_BY_TWO;
 8001bbc:	4646      	mov	r6, r8
						TIM16_final_start_value_oscillation_mode = OSCILLATE_UPWARDS;
 8001bbe:	7021      	strb	r1, [r4, #0]
						TIM16_prescaler_adjustment = MULTIPLY_BY_TWO;
 8001bc0:	4649      	mov	r1, r9
 8001bc2:	700e      	strb	r6, [r1, #0]
 8001bc4:	e040      	b.n	8001c48 <Process_TIM16_Final_Start_Value_and_Final_Prescaler+0x150>
			if((current_halfcycle_value == FIRST_HALFCYCLE && current_quadrant_value == FIRST_QUADRANT) || (current_halfcycle_value == SECOND_HALFCYCLE && current_quadrant_value == SECOND_QUADRANT)){
 8001bc6:	aa10      	add	r2, sp, #64	@ 0x40
 8001bc8:	7816      	ldrb	r6, [r2, #0]
 8001bca:	2e00      	cmp	r6, #0
 8001bcc:	d10a      	bne.n	8001be4 <Process_TIM16_Final_Start_Value_and_Final_Prescaler+0xec>
 8001bce:	ae11      	add	r6, sp, #68	@ 0x44
 8001bd0:	7836      	ldrb	r6, [r6, #0]
 8001bd2:	2e00      	cmp	r6, #0
 8001bd4:	d106      	bne.n	8001be4 <Process_TIM16_Final_Start_Value_and_Final_Prescaler+0xec>
				if(symmetry_status == CW){
 8001bd6:	4662      	mov	r2, ip
 8001bd8:	2a7f      	cmp	r2, #127	@ 0x7f
 8001bda:	d900      	bls.n	8001bde <Process_TIM16_Final_Start_Value_and_Final_Prescaler+0xe6>
 8001bdc:	e077      	b.n	8001cce <Process_TIM16_Final_Start_Value_and_Final_Prescaler+0x1d6>
					symmetry_type_for_halfcycle = LENGTHEN;
 8001bde:	2201      	movs	r2, #1
 8001be0:	7002      	strb	r2, [r0, #0]
		if(symmetry_status == CW){
 8001be2:	e7b2      	b.n	8001b4a <Process_TIM16_Final_Start_Value_and_Final_Prescaler+0x52>
			if((current_halfcycle_value == FIRST_HALFCYCLE && current_quadrant_value == FIRST_QUADRANT) || (current_halfcycle_value == SECOND_HALFCYCLE && current_quadrant_value == SECOND_QUADRANT)){
 8001be4:	7816      	ldrb	r6, [r2, #0]
 8001be6:	2e01      	cmp	r6, #1
 8001be8:	d100      	bne.n	8001bec <Process_TIM16_Final_Start_Value_and_Final_Prescaler+0xf4>
 8001bea:	e08a      	b.n	8001d02 <Process_TIM16_Final_Start_Value_and_Final_Prescaler+0x20a>
			else if((current_halfcycle_value == FIRST_HALFCYCLE && current_quadrant_value == SECOND_QUADRANT) || (current_halfcycle_value == SECOND_HALFCYCLE && current_quadrant_value == FIRST_QUADRANT)){
 8001bec:	7816      	ldrb	r6, [r2, #0]
 8001bee:	2e00      	cmp	r6, #0
 8001bf0:	d103      	bne.n	8001bfa <Process_TIM16_Final_Start_Value_and_Final_Prescaler+0x102>
 8001bf2:	ae11      	add	r6, sp, #68	@ 0x44
 8001bf4:	7836      	ldrb	r6, [r6, #0]
 8001bf6:	2e01      	cmp	r6, #1
 8001bf8:	d006      	beq.n	8001c08 <Process_TIM16_Final_Start_Value_and_Final_Prescaler+0x110>
 8001bfa:	7812      	ldrb	r2, [r2, #0]
 8001bfc:	2a01      	cmp	r2, #1
 8001bfe:	d1a0      	bne.n	8001b42 <Process_TIM16_Final_Start_Value_and_Final_Prescaler+0x4a>
 8001c00:	aa11      	add	r2, sp, #68	@ 0x44
 8001c02:	7812      	ldrb	r2, [r2, #0]
 8001c04:	2a00      	cmp	r2, #0
 8001c06:	d19c      	bne.n	8001b42 <Process_TIM16_Final_Start_Value_and_Final_Prescaler+0x4a>
				if(symmetry_status == CW){
 8001c08:	4662      	mov	r2, ip
 8001c0a:	2a7f      	cmp	r2, #127	@ 0x7f
 8001c0c:	d900      	bls.n	8001c10 <Process_TIM16_Final_Start_Value_and_Final_Prescaler+0x118>
 8001c0e:	e0ea      	b.n	8001de6 <Process_TIM16_Final_Start_Value_and_Final_Prescaler+0x2ee>
					symmetry_type_for_halfcycle = SHORTEN;
 8001c10:	2200      	movs	r2, #0
 8001c12:	7002      	strb	r2, [r0, #0]
		if(symmetry_status == CW){
 8001c14:	e799      	b.n	8001b4a <Process_TIM16_Final_Start_Value_and_Final_Prescaler+0x52>
			if(unsigned_bitwise_modulo(two_fifty_six_minus_TIM16_raw_start_value_multiplied_by_PRC, 8) == 128){
 8001c16:	27ff      	movs	r7, #255	@ 0xff
 8001c18:	4037      	ands	r7, r6
 8001c1a:	2f80      	cmp	r7, #128	@ 0x80
 8001c1c:	d100      	bne.n	8001c20 <Process_TIM16_Final_Start_Value_and_Final_Prescaler+0x128>
 8001c1e:	e0a7      	b.n	8001d70 <Process_TIM16_Final_Start_Value_and_Final_Prescaler+0x278>
			else if(unsigned_bitwise_modulo(two_fifty_six_minus_TIM16_raw_start_value_multiplied_by_PRC, 8) == 0){
 8001c20:	2f00      	cmp	r7, #0
 8001c22:	d03b      	beq.n	8001c9c <Process_TIM16_Final_Start_Value_and_Final_Prescaler+0x1a4>
			else if(unsigned_bitwise_modulo(two_fifty_six_minus_TIM16_raw_start_value_multiplied_by_PRC, 8) < 128){
 8001c24:	2180      	movs	r1, #128	@ 0x80
 8001c26:	4688      	mov	r8, r1
 8001c28:	4031      	ands	r1, r6
 8001c2a:	4689      	mov	r9, r1
 8001c2c:	4641      	mov	r1, r8
 8001c2e:	4231      	tst	r1, r6
 8001c30:	d129      	bne.n	8001c86 <Process_TIM16_Final_Start_Value_and_Final_Prescaler+0x18e>
				if(symmetry_type_for_halfcycle == SHORTEN){
 8001c32:	7806      	ldrb	r6, [r0, #0]
 8001c34:	b2f7      	uxtb	r7, r6
 8001c36:	2e00      	cmp	r6, #0
 8001c38:	d000      	beq.n	8001c3c <Process_TIM16_Final_Start_Value_and_Final_Prescaler+0x144>
 8001c3a:	e10f      	b.n	8001e5c <Process_TIM16_Final_Start_Value_and_Final_Prescaler+0x364>
					TIM16_final_start_value_oscillation_mode = DO_NOT_OSCILLATE;
 8001c3c:	7027      	strb	r7, [r4, #0]
				TIM16_prescaler_adjustment = DO_NOTHING;
 8001c3e:	210d      	movs	r1, #13
 8001c40:	2600      	movs	r6, #0
 8001c42:	4469      	add	r1, sp
 8001c44:	4689      	mov	r9, r1
 8001c46:	700e      	strb	r6, [r1, #0]
		}

	//DETERMINE THE TIM16_FINAL_START_VALUE FROM MANIPULATED_PERIOD_LENGTHEN/SHORTEN CALCULATED
	//NOTE INVERSE RELATIONSHIP BETWEEN TIM16_FINAL_START_VALUE AND MANIPULATED_PERIOD_LENGTHEN/SHORTEN BECAUSE 256-TIM16_FINAL_START_VALUE = MANIPULATED_PERIOD_LENGTHEN/SHORTEN
	//ODD VALUES OF CURRENT_INDEX WILL FEATURE THE ADJUSTED(OSCILLATED) VALUE
	if(symmetry_type_for_halfcycle == SHORTEN){
 8001c48:	7806      	ldrb	r6, [r0, #0]
 8001c4a:	2e00      	cmp	r6, #0
 8001c4c:	d130      	bne.n	8001cb0 <Process_TIM16_Final_Start_Value_and_Final_Prescaler+0x1b8>

		if(TIM16_final_start_value_oscillation_mode == DO_NOT_OSCILLATE){
 8001c4e:	7822      	ldrb	r2, [r4, #0]
 8001c50:	2a00      	cmp	r2, #0
 8001c52:	d147      	bne.n	8001ce4 <Process_TIM16_Final_Start_Value_and_Final_Prescaler+0x1ec>

			*TIM16_final_start_value_ptr = 256 - manipulated_period_shorten;
 8001c54:	3201      	adds	r2, #1

				*TIM16_final_start_value_ptr = 256 - manipulated_period_shorten;
			}
			else{ //if current index is odd

				*TIM16_final_start_value_ptr = 256 - manipulated_period_shorten + 1;
 8001c56:	32ff      	adds	r2, #255	@ 0xff
 8001c58:	4661      	mov	r1, ip
 8001c5a:	1a52      	subs	r2, r2, r1
 8001c5c:	4659      	mov	r1, fp
 8001c5e:	b292      	uxth	r2, r2
 8001c60:	800a      	strh	r2, [r1, #0]
				*TIM16_final_start_value_ptr = 256 - manipulated_period_lengthen + 1;
			}
		}
	}

	Adjust_TIM16_Prescaler(TIM16_prescaler_adjustment, TIM16_final_prescaler_ptr, TIM16_raw_prescaler_value);
 8001c62:	464a      	mov	r2, r9
 8001c64:	7811      	ldrb	r1, [r2, #0]
 8001c66:	882a      	ldrh	r2, [r5, #0]
 8001c68:	b2c8      	uxtb	r0, r1
 8001c6a:	b292      	uxth	r2, r2
    if(TIM16_prescaler_adjustment_value == MULTIPLY_BY_TWO){
 8001c6c:	2901      	cmp	r1, #1
 8001c6e:	d035      	beq.n	8001cdc <Process_TIM16_Final_Start_Value_and_Final_Prescaler+0x1e4>
    else if(TIM16_prescaler_adjustment_value == DO_NOTHING){
 8001c70:	2800      	cmp	r0, #0
 8001c72:	d100      	bne.n	8001c76 <Process_TIM16_Final_Start_Value_and_Final_Prescaler+0x17e>
    	*TIM16_final_prescaler_ptr = TIM16_raw_prescaler_value;
 8001c74:	801a      	strh	r2, [r3, #0]
        TIM16_prescaler_adjustment = DO_NOTHING;
        Adjust_TIM16_Prescaler(TIM16_prescaler_adjustment, TIM16_final_prescaler_ptr, TIM16_raw_prescaler_value);
    #endif

    return 1;
}
 8001c76:	2001      	movs	r0, #1
 8001c78:	b005      	add	sp, #20
 8001c7a:	bcf0      	pop	{r4, r5, r6, r7}
 8001c7c:	46bb      	mov	fp, r7
 8001c7e:	46b2      	mov	sl, r6
 8001c80:	46a9      	mov	r9, r5
 8001c82:	46a0      	mov	r8, r4
 8001c84:	bdf0      	pop	{r4, r5, r6, r7, pc}
			else if(unsigned_bitwise_modulo(two_fifty_six_minus_TIM16_raw_start_value_multiplied_by_PRC, 8) > 128){
 8001c86:	210d      	movs	r1, #13
 8001c88:	4469      	add	r1, sp
 8001c8a:	4689      	mov	r9, r1
 8001c8c:	2f80      	cmp	r7, #128	@ 0x80
 8001c8e:	d9db      	bls.n	8001c48 <Process_TIM16_Final_Start_Value_and_Final_Prescaler+0x150>
				manipulated_period_shorten = manipulated_period_shorten - 1; //DONE
 8001c90:	4666      	mov	r6, ip
 8001c92:	3e01      	subs	r6, #1
 8001c94:	b2b1      	uxth	r1, r6
 8001c96:	468c      	mov	ip, r1
				manipulated_period_lengthen = manipulated_period_lengthen + 1; //DONE
 8001c98:	3201      	adds	r2, #1
 8001c9a:	b292      	uxth	r2, r2
				if(symmetry_type_for_halfcycle == SHORTEN){
 8001c9c:	7806      	ldrb	r6, [r0, #0]
 8001c9e:	b2f7      	uxtb	r7, r6
 8001ca0:	2e00      	cmp	r6, #0
 8001ca2:	d0cb      	beq.n	8001c3c <Process_TIM16_Final_Start_Value_and_Final_Prescaler+0x144>
				else if(symmetry_type_for_halfcycle == LENGTHEN){
 8001ca4:	7806      	ldrb	r6, [r0, #0]
 8001ca6:	2e01      	cmp	r6, #1
 8001ca8:	d1c9      	bne.n	8001c3e <Process_TIM16_Final_Start_Value_and_Final_Prescaler+0x146>
					TIM16_final_start_value_oscillation_mode = DO_NOT_OSCILLATE;
 8001caa:	2600      	movs	r6, #0
 8001cac:	7026      	strb	r6, [r4, #0]
 8001cae:	e7c6      	b.n	8001c3e <Process_TIM16_Final_Start_Value_and_Final_Prescaler+0x146>
	else if(symmetry_type_for_halfcycle == LENGTHEN){
 8001cb0:	7800      	ldrb	r0, [r0, #0]
 8001cb2:	b2c6      	uxtb	r6, r0
 8001cb4:	2801      	cmp	r0, #1
 8001cb6:	d1d4      	bne.n	8001c62 <Process_TIM16_Final_Start_Value_and_Final_Prescaler+0x16a>
		if(TIM16_final_start_value_oscillation_mode == DO_NOT_OSCILLATE){
 8001cb8:	7820      	ldrb	r0, [r4, #0]
 8001cba:	2800      	cmp	r0, #0
 8001cbc:	d000      	beq.n	8001cc0 <Process_TIM16_Final_Start_Value_and_Final_Prescaler+0x1c8>
 8001cbe:	e0a8      	b.n	8001e12 <Process_TIM16_Final_Start_Value_and_Final_Prescaler+0x31a>
			*TIM16_final_start_value_ptr = 256 - manipulated_period_lengthen;
 8001cc0:	3001      	adds	r0, #1
				*TIM16_final_start_value_ptr = 256 - manipulated_period_lengthen + 1;
 8001cc2:	4659      	mov	r1, fp
 8001cc4:	30ff      	adds	r0, #255	@ 0xff
 8001cc6:	1a82      	subs	r2, r0, r2
 8001cc8:	b292      	uxth	r2, r2
 8001cca:	800a      	strh	r2, [r1, #0]
 8001ccc:	e7c9      	b.n	8001c62 <Process_TIM16_Final_Start_Value_and_Final_Prescaler+0x16a>
					symmetry_type_for_halfcycle = SHORTEN;
 8001cce:	2200      	movs	r2, #0
 8001cd0:	7002      	strb	r2, [r0, #0]
			pot_rotation_corrected = SYMMETRY_ADC_HALF_SCALE - 1 - (SYMMETRY_ADC_FULL_SCALE - current_symmetry);
 8001cd2:	4a57      	ldr	r2, [pc, #348]	@ (8001e30 <Process_TIM16_Final_Start_Value_and_Final_Prescaler+0x338>)
 8001cd4:	8816      	ldrh	r6, [r2, #0]
 8001cd6:	3e80      	subs	r6, #128	@ 0x80
 8001cd8:	b2f6      	uxtb	r6, r6
 8001cda:	e73b      	b.n	8001b54 <Process_TIM16_Final_Start_Value_and_Final_Prescaler+0x5c>
    	*TIM16_final_prescaler_ptr = TIM16_raw_prescaler_value << 1;
 8001cdc:	0052      	lsls	r2, r2, #1
 8001cde:	b292      	uxth	r2, r2
 8001ce0:	801a      	strh	r2, [r3, #0]
 8001ce2:	e7c8      	b.n	8001c76 <Process_TIM16_Final_Start_Value_and_Final_Prescaler+0x17e>
		else if(TIM16_final_start_value_oscillation_mode == OSCILLATE_UPWARDS){
 8001ce4:	7822      	ldrb	r2, [r4, #0]
 8001ce6:	b2d0      	uxtb	r0, r2
 8001ce8:	2a01      	cmp	r2, #1
 8001cea:	d02b      	beq.n	8001d44 <Process_TIM16_Final_Start_Value_and_Final_Prescaler+0x24c>
		else if(TIM16_final_start_value_oscillation_mode == OSCILLATE_DOWNWARDS){
 8001cec:	7822      	ldrb	r2, [r4, #0]
 8001cee:	2a02      	cmp	r2, #2
 8001cf0:	d1b7      	bne.n	8001c62 <Process_TIM16_Final_Start_Value_and_Final_Prescaler+0x16a>
			if(unsigned_bitwise_modulo(current_index_value, 1) == 0){ //if current index is even
 8001cf2:	aa12      	add	r2, sp, #72	@ 0x48
 8001cf4:	8812      	ldrh	r2, [r2, #0]
 8001cf6:	07d2      	lsls	r2, r2, #31
 8001cf8:	d500      	bpl.n	8001cfc <Process_TIM16_Final_Start_Value_and_Final_Prescaler+0x204>
 8001cfa:	e0d3      	b.n	8001ea4 <Process_TIM16_Final_Start_Value_and_Final_Prescaler+0x3ac>
				*TIM16_final_start_value_ptr = 256 - manipulated_period_shorten;
 8001cfc:	2280      	movs	r2, #128	@ 0x80
 8001cfe:	0052      	lsls	r2, r2, #1
 8001d00:	e7aa      	b.n	8001c58 <Process_TIM16_Final_Start_Value_and_Final_Prescaler+0x160>
			if((current_halfcycle_value == FIRST_HALFCYCLE && current_quadrant_value == FIRST_QUADRANT) || (current_halfcycle_value == SECOND_HALFCYCLE && current_quadrant_value == SECOND_QUADRANT)){
 8001d02:	ae11      	add	r6, sp, #68	@ 0x44
 8001d04:	7836      	ldrb	r6, [r6, #0]
 8001d06:	2e01      	cmp	r6, #1
 8001d08:	d000      	beq.n	8001d0c <Process_TIM16_Final_Start_Value_and_Final_Prescaler+0x214>
 8001d0a:	e76f      	b.n	8001bec <Process_TIM16_Final_Start_Value_and_Final_Prescaler+0xf4>
 8001d0c:	e763      	b.n	8001bd6 <Process_TIM16_Final_Start_Value_and_Final_Prescaler+0xde>
				manipulated_period_shorten = manipulated_period_shorten - 1; //DONE
 8001d0e:	4666      	mov	r6, ip
 8001d10:	3e01      	subs	r6, #1
 8001d12:	b2b1      	uxth	r1, r6
				if(unsigned_bitwise_modulo(manipulated_period_lengthen, 1) == 0){
 8001d14:	2601      	movs	r6, #1
 8001d16:	0037      	movs	r7, r6
				manipulated_period_lengthen = manipulated_period_lengthen + 1; //DONE
 8001d18:	3201      	adds	r2, #1
 8001d1a:	b292      	uxth	r2, r2
				manipulated_period_shorten = manipulated_period_shorten - 1; //DONE
 8001d1c:	468c      	mov	ip, r1
					manipulated_period_lengthen = manipulated_period_lengthen >> 1; //DONE
 8001d1e:	0851      	lsrs	r1, r2, #1
 8001d20:	4688      	mov	r8, r1
				if(unsigned_bitwise_modulo(manipulated_period_lengthen, 1) == 0){
 8001d22:	4017      	ands	r7, r2
 8001d24:	4216      	tst	r6, r2
 8001d26:	d117      	bne.n	8001d58 <Process_TIM16_Final_Start_Value_and_Final_Prescaler+0x260>
					if(symmetry_type_for_halfcycle == SHORTEN){
 8001d28:	7802      	ldrb	r2, [r0, #0]
 8001d2a:	b2d6      	uxtb	r6, r2
 8001d2c:	2a00      	cmp	r2, #0
 8001d2e:	d018      	beq.n	8001d62 <Process_TIM16_Final_Start_Value_and_Final_Prescaler+0x26a>
					else if(symmetry_type_for_halfcycle == LENGTHEN){
 8001d30:	210d      	movs	r1, #13
 8001d32:	7802      	ldrb	r2, [r0, #0]
 8001d34:	4469      	add	r1, sp
 8001d36:	4689      	mov	r9, r1
 8001d38:	2a01      	cmp	r2, #1
 8001d3a:	d101      	bne.n	8001d40 <Process_TIM16_Final_Start_Value_and_Final_Prescaler+0x248>
						TIM16_final_start_value_oscillation_mode = DO_NOT_OSCILLATE;
 8001d3c:	7027      	strb	r7, [r4, #0]
						TIM16_prescaler_adjustment = MULTIPLY_BY_TWO;
 8001d3e:	700a      	strb	r2, [r1, #0]
					manipulated_period_lengthen = manipulated_period_lengthen >> 1; //DONE
 8001d40:	4642      	mov	r2, r8
 8001d42:	e781      	b.n	8001c48 <Process_TIM16_Final_Start_Value_and_Final_Prescaler+0x150>
			if(unsigned_bitwise_modulo(current_index_value, 1) == 0){ //if current index is even
 8001d44:	aa12      	add	r2, sp, #72	@ 0x48
 8001d46:	8812      	ldrh	r2, [r2, #0]
 8001d48:	4210      	tst	r0, r2
 8001d4a:	d0d7      	beq.n	8001cfc <Process_TIM16_Final_Start_Value_and_Final_Prescaler+0x204>
				*TIM16_final_start_value_ptr = 256 - manipulated_period_shorten - 1;
 8001d4c:	22ff      	movs	r2, #255	@ 0xff
 8001d4e:	e783      	b.n	8001c58 <Process_TIM16_Final_Start_Value_and_Final_Prescaler+0x160>
				manipulated_period_shorten = manipulated_period_shorten - 1; //DONE
 8001d50:	4662      	mov	r2, ip
 8001d52:	3a01      	subs	r2, #1
 8001d54:	b292      	uxth	r2, r2
 8001d56:	4694      	mov	ip, r2
					if(symmetry_type_for_halfcycle == SHORTEN){
 8001d58:	7802      	ldrb	r2, [r0, #0]
 8001d5a:	b2d6      	uxtb	r6, r2
 8001d5c:	2a00      	cmp	r2, #0
 8001d5e:	d000      	beq.n	8001d62 <Process_TIM16_Final_Start_Value_and_Final_Prescaler+0x26a>
 8001d60:	e083      	b.n	8001e6a <Process_TIM16_Final_Start_Value_and_Final_Prescaler+0x372>
						TIM16_prescaler_adjustment = DO_NOTHING;
 8001d62:	320d      	adds	r2, #13
 8001d64:	446a      	add	r2, sp
 8001d66:	4691      	mov	r9, r2
						TIM16_final_start_value_oscillation_mode = DO_NOT_OSCILLATE;
 8001d68:	7026      	strb	r6, [r4, #0]
						TIM16_prescaler_adjustment = DO_NOTHING;
 8001d6a:	7016      	strb	r6, [r2, #0]
					manipulated_period_lengthen = manipulated_period_lengthen >> 1; //DONE
 8001d6c:	4642      	mov	r2, r8
 8001d6e:	e76b      	b.n	8001c48 <Process_TIM16_Final_Start_Value_and_Final_Prescaler+0x150>
				if(symmetry_type_for_halfcycle == SHORTEN){
 8001d70:	7806      	ldrb	r6, [r0, #0]
 8001d72:	2e00      	cmp	r6, #0
 8001d74:	d12e      	bne.n	8001dd4 <Process_TIM16_Final_Start_Value_and_Final_Prescaler+0x2dc>
					TIM16_final_start_value_oscillation_mode = OSCILLATE_DOWNWARDS;
 8001d76:	3602      	adds	r6, #2
 8001d78:	7026      	strb	r6, [r4, #0]
 8001d7a:	e760      	b.n	8001c3e <Process_TIM16_Final_Start_Value_and_Final_Prescaler+0x146>
		if((manipulated_period_lengthen < 256) || ((manipulated_period_lengthen == 256) && (unsigned_bitwise_modulo(two_fifty_six_minus_TIM16_raw_start_value_multiplied_by_PRC, 8) == 0))){
 8001d7c:	2900      	cmp	r1, #0
 8001d7e:	d08d      	beq.n	8001c9c <Process_TIM16_Final_Start_Value_and_Final_Prescaler+0x1a4>
			if(unsigned_bitwise_modulo(two_fifty_six_minus_TIM16_raw_start_value_multiplied_by_PRC, 8) == 128){
 8001d80:	2980      	cmp	r1, #128	@ 0x80
 8001d82:	d0e5      	beq.n	8001d50 <Process_TIM16_Final_Start_Value_and_Final_Prescaler+0x258>
			else if(unsigned_bitwise_modulo(two_fifty_six_minus_TIM16_raw_start_value_multiplied_by_PRC, 8) < 128){
 8001d84:	0636      	lsls	r6, r6, #24
 8001d86:	d400      	bmi.n	8001d8a <Process_TIM16_Final_Start_Value_and_Final_Prescaler+0x292>
 8001d88:	e098      	b.n	8001ebc <Process_TIM16_Final_Start_Value_and_Final_Prescaler+0x3c4>
			else if(unsigned_bitwise_modulo(two_fifty_six_minus_TIM16_raw_start_value_multiplied_by_PRC, 8) > 128){
 8001d8a:	210d      	movs	r1, #13
 8001d8c:	4469      	add	r1, sp
 8001d8e:	4689      	mov	r9, r1
 8001d90:	4641      	mov	r1, r8
 8001d92:	2980      	cmp	r1, #128	@ 0x80
 8001d94:	d800      	bhi.n	8001d98 <Process_TIM16_Final_Start_Value_and_Final_Prescaler+0x2a0>
 8001d96:	e757      	b.n	8001c48 <Process_TIM16_Final_Start_Value_and_Final_Prescaler+0x150>
				manipulated_period_shorten = manipulated_period_shorten - 1; //DONE
 8001d98:	4662      	mov	r2, ip
 8001d9a:	3a01      	subs	r2, #1
 8001d9c:	b292      	uxth	r2, r2
 8001d9e:	4694      	mov	ip, r2
					manipulated_period_lengthen = manipulated_period_lengthen >> 1; //DONE
 8001da0:	2280      	movs	r2, #128	@ 0x80
					if(symmetry_type_for_halfcycle == SHORTEN){
 8001da2:	7806      	ldrb	r6, [r0, #0]
 8001da4:	b2f7      	uxtb	r7, r6
 8001da6:	2e00      	cmp	r6, #0
 8001da8:	d003      	beq.n	8001db2 <Process_TIM16_Final_Start_Value_and_Final_Prescaler+0x2ba>
					else if(symmetry_type_for_halfcycle == LENGTHEN){
 8001daa:	7806      	ldrb	r6, [r0, #0]
 8001dac:	b2f7      	uxtb	r7, r6
 8001dae:	2e01      	cmp	r6, #1
 8001db0:	d12b      	bne.n	8001e0a <Process_TIM16_Final_Start_Value_and_Final_Prescaler+0x312>
						TIM16_prescaler_adjustment = MULTIPLY_BY_TWO;
 8001db2:	210d      	movs	r1, #13
 8001db4:	4469      	add	r1, sp
						TIM16_final_start_value_oscillation_mode = OSCILLATE_UPWARDS;
 8001db6:	7027      	strb	r7, [r4, #0]
						TIM16_prescaler_adjustment = MULTIPLY_BY_TWO;
 8001db8:	4689      	mov	r9, r1
 8001dba:	700f      	strb	r7, [r1, #0]
 8001dbc:	e744      	b.n	8001c48 <Process_TIM16_Final_Start_Value_and_Final_Prescaler+0x150>
			if(current_halfcycle_value == FIRST_HALFCYCLE){
 8001dbe:	ae10      	add	r6, sp, #64	@ 0x40
 8001dc0:	7836      	ldrb	r6, [r6, #0]
 8001dc2:	b2f1      	uxtb	r1, r6
 8001dc4:	2e00      	cmp	r6, #0
 8001dc6:	d10b      	bne.n	8001de0 <Process_TIM16_Final_Start_Value_and_Final_Prescaler+0x2e8>
				if(symmetry_status == CW){
 8001dc8:	4662      	mov	r2, ip
 8001dca:	2a7f      	cmp	r2, #127	@ 0x7f
 8001dcc:	d800      	bhi.n	8001dd0 <Process_TIM16_Final_Start_Value_and_Final_Prescaler+0x2d8>
 8001dce:	e706      	b.n	8001bde <Process_TIM16_Final_Start_Value_and_Final_Prescaler+0xe6>
					symmetry_type_for_halfcycle = SHORTEN;
 8001dd0:	7001      	strb	r1, [r0, #0]
		if(symmetry_status == CW){
 8001dd2:	e77e      	b.n	8001cd2 <Process_TIM16_Final_Start_Value_and_Final_Prescaler+0x1da>
				else if(symmetry_type_for_halfcycle == LENGTHEN){
 8001dd4:	7806      	ldrb	r6, [r0, #0]
 8001dd6:	b2f7      	uxtb	r7, r6
 8001dd8:	2e01      	cmp	r6, #1
 8001dda:	d000      	beq.n	8001dde <Process_TIM16_Final_Start_Value_and_Final_Prescaler+0x2e6>
 8001ddc:	e72f      	b.n	8001c3e <Process_TIM16_Final_Start_Value_and_Final_Prescaler+0x146>
 8001dde:	e72d      	b.n	8001c3c <Process_TIM16_Final_Start_Value_and_Final_Prescaler+0x144>
				if(symmetry_status == CW){
 8001de0:	4661      	mov	r1, ip
 8001de2:	297f      	cmp	r1, #127	@ 0x7f
 8001de4:	d95c      	bls.n	8001ea0 <Process_TIM16_Final_Start_Value_and_Final_Prescaler+0x3a8>
					symmetry_type_for_halfcycle = LENGTHEN;
 8001de6:	2201      	movs	r2, #1
 8001de8:	7002      	strb	r2, [r0, #0]
		if(symmetry_status == CW){
 8001dea:	e772      	b.n	8001cd2 <Process_TIM16_Final_Start_Value_and_Final_Prescaler+0x1da>
				if(unsigned_bitwise_modulo(manipulated_period_lengthen, 1) == 0){
 8001dec:	2601      	movs	r6, #1
 8001dee:	4016      	ands	r6, r2
					manipulated_period_lengthen = manipulated_period_lengthen >> 1; //DONE
 8001df0:	0852      	lsrs	r2, r2, #1
 8001df2:	2701      	movs	r7, #1
 8001df4:	b292      	uxth	r2, r2
				if(unsigned_bitwise_modulo(manipulated_period_lengthen, 1) == 0){
 8001df6:	2e00      	cmp	r6, #0
 8001df8:	d01c      	beq.n	8001e34 <Process_TIM16_Final_Start_Value_and_Final_Prescaler+0x33c>
					if(symmetry_type_for_halfcycle == SHORTEN){
 8001dfa:	7806      	ldrb	r6, [r0, #0]
 8001dfc:	b2f1      	uxtb	r1, r6
 8001dfe:	4688      	mov	r8, r1
 8001e00:	2e00      	cmp	r6, #0
 8001e02:	d046      	beq.n	8001e92 <Process_TIM16_Final_Start_Value_and_Final_Prescaler+0x39a>
					else if(symmetry_type_for_halfcycle == LENGTHEN){
 8001e04:	7806      	ldrb	r6, [r0, #0]
 8001e06:	2e01      	cmp	r6, #1
 8001e08:	d0d3      	beq.n	8001db2 <Process_TIM16_Final_Start_Value_and_Final_Prescaler+0x2ba>
 8001e0a:	210d      	movs	r1, #13
 8001e0c:	4469      	add	r1, sp
 8001e0e:	4689      	mov	r9, r1
 8001e10:	e71a      	b.n	8001c48 <Process_TIM16_Final_Start_Value_and_Final_Prescaler+0x150>
		else if(TIM16_final_start_value_oscillation_mode == OSCILLATE_UPWARDS){
 8001e12:	7820      	ldrb	r0, [r4, #0]
 8001e14:	b2c7      	uxtb	r7, r0
 8001e16:	2801      	cmp	r0, #1
 8001e18:	d046      	beq.n	8001ea8 <Process_TIM16_Final_Start_Value_and_Final_Prescaler+0x3b0>
		else if(TIM16_final_start_value_oscillation_mode == OSCILLATE_DOWNWARDS){
 8001e1a:	7820      	ldrb	r0, [r4, #0]
 8001e1c:	2802      	cmp	r0, #2
 8001e1e:	d000      	beq.n	8001e22 <Process_TIM16_Final_Start_Value_and_Final_Prescaler+0x32a>
 8001e20:	e71f      	b.n	8001c62 <Process_TIM16_Final_Start_Value_and_Final_Prescaler+0x16a>
			if(unsigned_bitwise_modulo(current_index_value, 1) == 0){ //if current index is even
 8001e22:	a812      	add	r0, sp, #72	@ 0x48
 8001e24:	8800      	ldrh	r0, [r0, #0]
 8001e26:	4206      	tst	r6, r0
 8001e28:	d059      	beq.n	8001ede <Process_TIM16_Final_Start_Value_and_Final_Prescaler+0x3e6>
				*TIM16_final_start_value_ptr = 256 - manipulated_period_lengthen + 1;
 8001e2a:	2002      	movs	r0, #2
 8001e2c:	e749      	b.n	8001cc2 <Process_TIM16_Final_Start_Value_and_Final_Prescaler+0x1ca>
 8001e2e:	46c0      	nop			@ (mov r8, r8)
 8001e30:	20000af4 	.word	0x20000af4
					if(symmetry_type_for_halfcycle == SHORTEN){
 8001e34:	7801      	ldrb	r1, [r0, #0]
 8001e36:	4688      	mov	r8, r1
 8001e38:	b2c9      	uxtb	r1, r1
 8001e3a:	468a      	mov	sl, r1
 8001e3c:	4641      	mov	r1, r8
 8001e3e:	2900      	cmp	r1, #0
 8001e40:	d01f      	beq.n	8001e82 <Process_TIM16_Final_Start_Value_and_Final_Prescaler+0x38a>
					else if(symmetry_type_for_halfcycle == LENGTHEN){
 8001e42:	7801      	ldrb	r1, [r0, #0]
 8001e44:	4688      	mov	r8, r1
 8001e46:	210d      	movs	r1, #13
 8001e48:	4469      	add	r1, sp
 8001e4a:	4689      	mov	r9, r1
 8001e4c:	4641      	mov	r1, r8
 8001e4e:	2901      	cmp	r1, #1
 8001e50:	d000      	beq.n	8001e54 <Process_TIM16_Final_Start_Value_and_Final_Prescaler+0x35c>
 8001e52:	e6f9      	b.n	8001c48 <Process_TIM16_Final_Start_Value_and_Final_Prescaler+0x150>
						TIM16_prescaler_adjustment = MULTIPLY_BY_TWO;
 8001e54:	4649      	mov	r1, r9
						TIM16_final_start_value_oscillation_mode = DO_NOT_OSCILLATE;
 8001e56:	7026      	strb	r6, [r4, #0]
						TIM16_prescaler_adjustment = MULTIPLY_BY_TWO;
 8001e58:	700f      	strb	r7, [r1, #0]
 8001e5a:	e6f5      	b.n	8001c48 <Process_TIM16_Final_Start_Value_and_Final_Prescaler+0x150>
				else if(symmetry_type_for_halfcycle == LENGTHEN){
 8001e5c:	7806      	ldrb	r6, [r0, #0]
 8001e5e:	2e01      	cmp	r6, #1
 8001e60:	d000      	beq.n	8001e64 <Process_TIM16_Final_Start_Value_and_Final_Prescaler+0x36c>
 8001e62:	e6ec      	b.n	8001c3e <Process_TIM16_Final_Start_Value_and_Final_Prescaler+0x146>
					TIM16_final_start_value_oscillation_mode = DO_NOT_OSCILLATE;
 8001e64:	4649      	mov	r1, r9
 8001e66:	7021      	strb	r1, [r4, #0]
				TIM16_prescaler_adjustment = DO_NOTHING;
 8001e68:	e6e9      	b.n	8001c3e <Process_TIM16_Final_Start_Value_and_Final_Prescaler+0x146>
					else if(symmetry_type_for_halfcycle == LENGTHEN){
 8001e6a:	210d      	movs	r1, #13
 8001e6c:	7802      	ldrb	r2, [r0, #0]
 8001e6e:	4469      	add	r1, sp
 8001e70:	4689      	mov	r9, r1
 8001e72:	b2d6      	uxtb	r6, r2
 8001e74:	2a01      	cmp	r2, #1
 8001e76:	d000      	beq.n	8001e7a <Process_TIM16_Final_Start_Value_and_Final_Prescaler+0x382>
 8001e78:	e762      	b.n	8001d40 <Process_TIM16_Final_Start_Value_and_Final_Prescaler+0x248>
						TIM16_final_start_value_oscillation_mode = OSCILLATE_UPWARDS;
 8001e7a:	7026      	strb	r6, [r4, #0]
					manipulated_period_lengthen = manipulated_period_lengthen >> 1; //DONE
 8001e7c:	4642      	mov	r2, r8
						TIM16_prescaler_adjustment = MULTIPLY_BY_TWO;
 8001e7e:	700e      	strb	r6, [r1, #0]
 8001e80:	e6e2      	b.n	8001c48 <Process_TIM16_Final_Start_Value_and_Final_Prescaler+0x150>
						TIM16_final_start_value_oscillation_mode = DO_NOT_OSCILLATE;
 8001e82:	4651      	mov	r1, sl
 8001e84:	7021      	strb	r1, [r4, #0]
						TIM16_prescaler_adjustment = DO_NOTHING;
 8001e86:	210d      	movs	r1, #13
 8001e88:	4656      	mov	r6, sl
 8001e8a:	4469      	add	r1, sp
 8001e8c:	4689      	mov	r9, r1
 8001e8e:	700e      	strb	r6, [r1, #0]
 8001e90:	e6da      	b.n	8001c48 <Process_TIM16_Final_Start_Value_and_Final_Prescaler+0x150>
						TIM16_final_start_value_oscillation_mode = DO_NOT_OSCILLATE;
 8001e92:	7021      	strb	r1, [r4, #0]
						TIM16_prescaler_adjustment = DO_NOTHING;
 8001e94:	210d      	movs	r1, #13
 8001e96:	4646      	mov	r6, r8
 8001e98:	4469      	add	r1, sp
 8001e9a:	4689      	mov	r9, r1
 8001e9c:	700e      	strb	r6, [r1, #0]
 8001e9e:	e6d3      	b.n	8001c48 <Process_TIM16_Final_Start_Value_and_Final_Prescaler+0x150>
					symmetry_type_for_halfcycle = SHORTEN;
 8001ea0:	7002      	strb	r2, [r0, #0]
		if(symmetry_status == CW){
 8001ea2:	e652      	b.n	8001b4a <Process_TIM16_Final_Start_Value_and_Final_Prescaler+0x52>
				*TIM16_final_start_value_ptr = 256 - manipulated_period_shorten + 1;
 8001ea4:	2202      	movs	r2, #2
 8001ea6:	e6d6      	b.n	8001c56 <Process_TIM16_Final_Start_Value_and_Final_Prescaler+0x15e>
			if(unsigned_bitwise_modulo(current_index_value, 1) == 0){ //if current index is even
 8001ea8:	a812      	add	r0, sp, #72	@ 0x48
 8001eaa:	8800      	ldrh	r0, [r0, #0]
 8001eac:	4207      	tst	r7, r0
 8001eae:	d016      	beq.n	8001ede <Process_TIM16_Final_Start_Value_and_Final_Prescaler+0x3e6>
				*TIM16_final_start_value_ptr = 256 - manipulated_period_lengthen - 1;
 8001eb0:	20ff      	movs	r0, #255	@ 0xff
 8001eb2:	4659      	mov	r1, fp
 8001eb4:	1a82      	subs	r2, r0, r2
 8001eb6:	b292      	uxth	r2, r2
 8001eb8:	800a      	strh	r2, [r1, #0]
 8001eba:	e6d2      	b.n	8001c62 <Process_TIM16_Final_Start_Value_and_Final_Prescaler+0x16a>
					manipulated_period_lengthen = manipulated_period_lengthen >> 1; //DONE
 8001ebc:	2280      	movs	r2, #128	@ 0x80
					if(symmetry_type_for_halfcycle == SHORTEN){
 8001ebe:	7806      	ldrb	r6, [r0, #0]
 8001ec0:	b2f7      	uxtb	r7, r6
 8001ec2:	2e00      	cmp	r6, #0
 8001ec4:	d100      	bne.n	8001ec8 <Process_TIM16_Final_Start_Value_and_Final_Prescaler+0x3d0>
 8001ec6:	e774      	b.n	8001db2 <Process_TIM16_Final_Start_Value_and_Final_Prescaler+0x2ba>
					else if(symmetry_type_for_halfcycle == LENGTHEN){
 8001ec8:	7806      	ldrb	r6, [r0, #0]
 8001eca:	b2f7      	uxtb	r7, r6
 8001ecc:	2e01      	cmp	r6, #1
 8001ece:	d19c      	bne.n	8001e0a <Process_TIM16_Final_Start_Value_and_Final_Prescaler+0x312>
						TIM16_prescaler_adjustment = MULTIPLY_BY_TWO;
 8001ed0:	210d      	movs	r1, #13
						TIM16_final_start_value_oscillation_mode = DO_NOT_OSCILLATE;
 8001ed2:	2600      	movs	r6, #0
						TIM16_prescaler_adjustment = MULTIPLY_BY_TWO;
 8001ed4:	4469      	add	r1, sp
						TIM16_final_start_value_oscillation_mode = DO_NOT_OSCILLATE;
 8001ed6:	7026      	strb	r6, [r4, #0]
						TIM16_prescaler_adjustment = MULTIPLY_BY_TWO;
 8001ed8:	4689      	mov	r9, r1
 8001eda:	700f      	strb	r7, [r1, #0]
 8001edc:	e6b4      	b.n	8001c48 <Process_TIM16_Final_Start_Value_and_Final_Prescaler+0x150>
				*TIM16_final_start_value_ptr = 256 - manipulated_period_lengthen;
 8001ede:	2080      	movs	r0, #128	@ 0x80
 8001ee0:	4659      	mov	r1, fp
 8001ee2:	0040      	lsls	r0, r0, #1
 8001ee4:	1a82      	subs	r2, r0, r2
 8001ee6:	b292      	uxth	r2, r2
 8001ee8:	800a      	strh	r2, [r1, #0]
 8001eea:	e6ba      	b.n	8001c62 <Process_TIM16_Final_Start_Value_and_Final_Prescaler+0x16a>
			else if(unsigned_bitwise_modulo(two_fifty_six_minus_TIM16_raw_start_value_multiplied_by_PRC, 8) > 128){
 8001eec:	2980      	cmp	r1, #128	@ 0x80
 8001eee:	d98c      	bls.n	8001e0a <Process_TIM16_Final_Start_Value_and_Final_Prescaler+0x312>
				manipulated_period_shorten = manipulated_period_shorten - 1; //DONE
 8001ef0:	4666      	mov	r6, ip
 8001ef2:	3e01      	subs	r6, #1
 8001ef4:	b2b1      	uxth	r1, r6
				manipulated_period_lengthen = manipulated_period_lengthen + 1; //DONE
 8001ef6:	1c56      	adds	r6, r2, #1
 8001ef8:	b2b6      	uxth	r6, r6
				manipulated_period_shorten = manipulated_period_shorten - 1; //DONE
 8001efa:	468c      	mov	ip, r1
				if(unsigned_bitwise_modulo(manipulated_period_lengthen, 1) == 0){
 8001efc:	2701      	movs	r7, #1
 8001efe:	0031      	movs	r1, r6
					manipulated_period_lengthen = manipulated_period_lengthen >> 1; //DONE
 8001f00:	0872      	lsrs	r2, r6, #1
				if(unsigned_bitwise_modulo(manipulated_period_lengthen, 1) == 0){
 8001f02:	4039      	ands	r1, r7
 8001f04:	423e      	tst	r6, r7
 8001f06:	d000      	beq.n	8001f0a <Process_TIM16_Final_Start_Value_and_Final_Prescaler+0x412>
 8001f08:	e74b      	b.n	8001da2 <Process_TIM16_Final_Start_Value_and_Final_Prescaler+0x2aa>
					if(symmetry_type_for_halfcycle == SHORTEN){
 8001f0a:	7806      	ldrb	r6, [r0, #0]
 8001f0c:	b2f7      	uxtb	r7, r6
 8001f0e:	2e00      	cmp	r6, #0
 8001f10:	d100      	bne.n	8001f14 <Process_TIM16_Final_Start_Value_and_Final_Prescaler+0x41c>
 8001f12:	e74e      	b.n	8001db2 <Process_TIM16_Final_Start_Value_and_Final_Prescaler+0x2ba>
					else if(symmetry_type_for_halfcycle == LENGTHEN){
 8001f14:	7806      	ldrb	r6, [r0, #0]
 8001f16:	b2f7      	uxtb	r7, r6
 8001f18:	2e01      	cmp	r6, #1
 8001f1a:	d000      	beq.n	8001f1e <Process_TIM16_Final_Start_Value_and_Final_Prescaler+0x426>
 8001f1c:	e775      	b.n	8001e0a <Process_TIM16_Final_Start_Value_and_Final_Prescaler+0x312>
						TIM16_final_start_value_oscillation_mode = DO_NOT_OSCILLATE;
 8001f1e:	7021      	strb	r1, [r4, #0]
						TIM16_prescaler_adjustment = MULTIPLY_BY_TWO;
 8001f20:	210d      	movs	r1, #13
 8001f22:	4469      	add	r1, sp
 8001f24:	4689      	mov	r9, r1
 8001f26:	700f      	strb	r7, [r1, #0]
 8001f28:	e68e      	b.n	8001c48 <Process_TIM16_Final_Start_Value_and_Final_Prescaler+0x150>
 8001f2a:	46c0      	nop			@ (mov r8, r8)

08001f2c <Speed_Pot_Check>:
    return dividend & ((1 << base_2_exponent) - 1);
}

uint8_t Speed_Pot_Check(void){

	if((tap_tempo_mode_is_active == YES) || (external_clock_mode_is_active == YES)){
 8001f2c:	4a1a      	ldr	r2, [pc, #104]	@ (8001f98 <Speed_Pot_Check+0x6c>)
 8001f2e:	7813      	ldrb	r3, [r2, #0]
 8001f30:	2b01      	cmp	r3, #1
 8001f32:	d005      	beq.n	8001f40 <Speed_Pot_Check+0x14>
 8001f34:	4b19      	ldr	r3, [pc, #100]	@ (8001f9c <Speed_Pot_Check+0x70>)
 8001f36:	781b      	ldrb	r3, [r3, #0]
 8001f38:	2b01      	cmp	r3, #1
 8001f3a:	d001      	beq.n	8001f40 <Speed_Pot_Check+0x14>
				}
			}
		}
	}
	return 1;
}
 8001f3c:	2001      	movs	r0, #1
 8001f3e:	4770      	bx	lr
		if(speed_pot_adc_measurement_num == 0){
 8001f40:	4b17      	ldr	r3, [pc, #92]	@ (8001fa0 <Speed_Pot_Check+0x74>)
 8001f42:	7819      	ldrb	r1, [r3, #0]
 8001f44:	2900      	cmp	r1, #0
 8001f46:	d106      	bne.n	8001f56 <Speed_Pot_Check+0x2a>
			first_speed_measurement = current_speed;
 8001f48:	4a16      	ldr	r2, [pc, #88]	@ (8001fa4 <Speed_Pot_Check+0x78>)
 8001f4a:	8811      	ldrh	r1, [r2, #0]
 8001f4c:	4a16      	ldr	r2, [pc, #88]	@ (8001fa8 <Speed_Pot_Check+0x7c>)
 8001f4e:	8011      	strh	r1, [r2, #0]
			speed_pot_adc_measurement_num = 1;
 8001f50:	2201      	movs	r2, #1
 8001f52:	701a      	strb	r2, [r3, #0]
 8001f54:	e7f2      	b.n	8001f3c <Speed_Pot_Check+0x10>
		else if(speed_pot_adc_measurement_num == 1){
 8001f56:	7819      	ldrb	r1, [r3, #0]
 8001f58:	2901      	cmp	r1, #1
 8001f5a:	d012      	beq.n	8001f82 <Speed_Pot_Check+0x56>
		else if(speed_pot_adc_measurement_num == 2){
 8001f5c:	7819      	ldrb	r1, [r3, #0]
 8001f5e:	2902      	cmp	r1, #2
 8001f60:	d1ec      	bne.n	8001f3c <Speed_Pot_Check+0x10>
			speed_pot_adc_measurement_num = 0;
 8001f62:	2000      	movs	r0, #0
			if(first_speed_measurement > second_speed_measurement){
 8001f64:	4911      	ldr	r1, [pc, #68]	@ (8001fac <Speed_Pot_Check+0x80>)
			speed_pot_adc_measurement_num = 0;
 8001f66:	7018      	strb	r0, [r3, #0]
			if(first_speed_measurement > second_speed_measurement){
 8001f68:	4b0f      	ldr	r3, [pc, #60]	@ (8001fa8 <Speed_Pot_Check+0x7c>)
 8001f6a:	8809      	ldrh	r1, [r1, #0]
 8001f6c:	881b      	ldrh	r3, [r3, #0]
 8001f6e:	428b      	cmp	r3, r1
 8001f70:	d80e      	bhi.n	8001f90 <Speed_Pot_Check+0x64>
			else if(second_speed_measurement > first_speed_measurement){
 8001f72:	d2e3      	bcs.n	8001f3c <Speed_Pot_Check+0x10>
				if(second_speed_measurement - first_speed_measurement > SPEED_TOLERANCE){
 8001f74:	1ac9      	subs	r1, r1, r3
 8001f76:	2903      	cmp	r1, #3
 8001f78:	dde0      	ble.n	8001f3c <Speed_Pot_Check+0x10>
					external_clock_mode_is_active = NO;
 8001f7a:	4b08      	ldr	r3, [pc, #32]	@ (8001f9c <Speed_Pot_Check+0x70>)
					tap_tempo_mode_is_active = NO;
 8001f7c:	7010      	strb	r0, [r2, #0]
					external_clock_mode_is_active = NO;
 8001f7e:	7018      	strb	r0, [r3, #0]
 8001f80:	e7dc      	b.n	8001f3c <Speed_Pot_Check+0x10>
			second_speed_measurement = current_speed;
 8001f82:	4a08      	ldr	r2, [pc, #32]	@ (8001fa4 <Speed_Pot_Check+0x78>)
 8001f84:	8811      	ldrh	r1, [r2, #0]
 8001f86:	4a09      	ldr	r2, [pc, #36]	@ (8001fac <Speed_Pot_Check+0x80>)
 8001f88:	8011      	strh	r1, [r2, #0]
			speed_pot_adc_measurement_num = 2;
 8001f8a:	2202      	movs	r2, #2
 8001f8c:	701a      	strb	r2, [r3, #0]
 8001f8e:	e7d5      	b.n	8001f3c <Speed_Pot_Check+0x10>
				if(first_speed_measurement - second_speed_measurement > SPEED_TOLERANCE){
 8001f90:	1a5b      	subs	r3, r3, r1
 8001f92:	2b03      	cmp	r3, #3
 8001f94:	ddd2      	ble.n	8001f3c <Speed_Pot_Check+0x10>
 8001f96:	e7f0      	b.n	8001f7a <Speed_Pot_Check+0x4e>
 8001f98:	200006b2 	.word	0x200006b2
 8001f9c:	200006ae 	.word	0x200006ae
 8001fa0:	200006b1 	.word	0x200006b1
 8001fa4:	20000af8 	.word	0x20000af8
 8001fa8:	200006ac 	.word	0x200006ac
 8001fac:	200006aa 	.word	0x200006aa

08001fb0 <Check_Tap_Tempo_Switch_State>:

uint8_t Check_Tap_Tempo_Switch_State(enum Tap_Tempo_Switch_State *tap_tempo_switch_state_ptr){
 8001fb0:	b510      	push	{r4, lr}

	static uint8_t extend_rising_edge = 0;

	uint8_t switch_state = (uint8_t)HAL_GPIO_ReadPin(SW_IN_GPIO_Port, SW_IN_Pin);
 8001fb2:	2180      	movs	r1, #128	@ 0x80
uint8_t Check_Tap_Tempo_Switch_State(enum Tap_Tempo_Switch_State *tap_tempo_switch_state_ptr){
 8001fb4:	0004      	movs	r4, r0
	uint8_t switch_state = (uint8_t)HAL_GPIO_ReadPin(SW_IN_GPIO_Port, SW_IN_Pin);
 8001fb6:	20a0      	movs	r0, #160	@ 0xa0
 8001fb8:	00c9      	lsls	r1, r1, #3
 8001fba:	05c0      	lsls	r0, r0, #23
 8001fbc:	f001 fbae 	bl	800371c <HAL_GPIO_ReadPin>

	if(switch_state == 0){
 8001fc0:	2800      	cmp	r0, #0
 8001fc2:	d10d      	bne.n	8001fe0 <Check_Tap_Tempo_Switch_State+0x30>

		if(tap_tempo_switch_state_counter != 0){
 8001fc4:	4a11      	ldr	r2, [pc, #68]	@ (800200c <Check_Tap_Tempo_Switch_State+0x5c>)
 8001fc6:	7813      	ldrb	r3, [r2, #0]
 8001fc8:	2b00      	cmp	r3, #0
 8001fca:	d015      	beq.n	8001ff8 <Check_Tap_Tempo_Switch_State+0x48>

			tap_tempo_switch_state_counter--;
 8001fcc:	3b01      	subs	r3, #1
 8001fce:	b2db      	uxtb	r3, r3
 8001fd0:	7013      	strb	r3, [r2, #0]
				extend_rising_edge++;
			}
		}
	}

	if(tap_tempo_switch_state_counter == 0){
 8001fd2:	2b00      	cmp	r3, #0
 8001fd4:	d010      	beq.n	8001ff8 <Check_Tap_Tempo_Switch_State+0x48>

		*tap_tempo_switch_state_ptr = DEPRESSED;
	}
	else if(tap_tempo_switch_state_counter == TAP_TEMPO_SWITCH_CONFIDENCE_COUNT){
 8001fd6:	2b05      	cmp	r3, #5
 8001fd8:	d110      	bne.n	8001ffc <Check_Tap_Tempo_Switch_State+0x4c>

		*tap_tempo_switch_state_ptr = NOT_DEPRESSED;
 8001fda:	2300      	movs	r3, #0
 8001fdc:	7023      	strb	r3, [r4, #0]
 8001fde:	e00d      	b.n	8001ffc <Check_Tap_Tempo_Switch_State+0x4c>
		if(tap_tempo_switch_state_counter != TAP_TEMPO_SWITCH_CONFIDENCE_COUNT){
 8001fe0:	490a      	ldr	r1, [pc, #40]	@ (800200c <Check_Tap_Tempo_Switch_State+0x5c>)
 8001fe2:	780b      	ldrb	r3, [r1, #0]
 8001fe4:	2b05      	cmp	r3, #5
 8001fe6:	d0f8      	beq.n	8001fda <Check_Tap_Tempo_Switch_State+0x2a>
			if(extend_rising_edge == COUNT_TO_DELAY_RISING_TAP_TEMPO_EDGE){
 8001fe8:	4809      	ldr	r0, [pc, #36]	@ (8002010 <Check_Tap_Tempo_Switch_State+0x60>)
 8001fea:	7802      	ldrb	r2, [r0, #0]
 8001fec:	2a01      	cmp	r2, #1
 8001fee:	d007      	beq.n	8002000 <Check_Tap_Tempo_Switch_State+0x50>
				extend_rising_edge++;
 8001ff0:	3201      	adds	r2, #1
 8001ff2:	7002      	strb	r2, [r0, #0]
	if(tap_tempo_switch_state_counter == 0){
 8001ff4:	2b00      	cmp	r3, #0
 8001ff6:	d101      	bne.n	8001ffc <Check_Tap_Tempo_Switch_State+0x4c>
		*tap_tempo_switch_state_ptr = DEPRESSED;
 8001ff8:	2301      	movs	r3, #1
 8001ffa:	7023      	strb	r3, [r4, #0]
	}

	return 1;
}
 8001ffc:	2001      	movs	r0, #1
 8001ffe:	bd10      	pop	{r4, pc}
				extend_rising_edge = 0;
 8002000:	2200      	movs	r2, #0
				tap_tempo_switch_state_counter++;
 8002002:	3301      	adds	r3, #1
 8002004:	b2db      	uxtb	r3, r3
 8002006:	700b      	strb	r3, [r1, #0]
				extend_rising_edge = 0;
 8002008:	7002      	strb	r2, [r0, #0]
 800200a:	e7e2      	b.n	8001fd2 <Check_Tap_Tempo_Switch_State+0x22>
 800200c:	20000000 	.word	0x20000000
 8002010:	200006a9 	.word	0x200006a9

08002014 <Start_Tap_Tempo_Monitoring_Timers_and_UART_Receive>:

uint8_t Start_Tap_Tempo_Monitoring_Timers_and_UART_Receive(void){

	//START UART RECEIVE
	HAL_UART_Receive_DMA(&huart2, (uint8_t*)rx_buffer, sizeof(rx_buffer));
 8002014:	2201      	movs	r2, #1
uint8_t Start_Tap_Tempo_Monitoring_Timers_and_UART_Receive(void){
 8002016:	b510      	push	{r4, lr}
	HAL_UART_Receive_DMA(&huart2, (uint8_t*)rx_buffer, sizeof(rx_buffer));
 8002018:	4908      	ldr	r1, [pc, #32]	@ (800203c <Start_Tap_Tempo_Monitoring_Timers_and_UART_Receive+0x28>)
 800201a:	4809      	ldr	r0, [pc, #36]	@ (8002040 <Start_Tap_Tempo_Monitoring_Timers_and_UART_Receive+0x2c>)
 800201c:	f004 f88e 	bl	800613c <HAL_UART_Receive_DMA>
	//START TAP TEMPO SWITCH CHECKING
	//No need to do this as EXTI now starts LPTIM
	//HAL_LPTIM_SetOnce_Start_IT(&hlptim1, LPTIM1_CCR_TAP_TEMPO_SW_IN_CHECK, LPTIM1_CCR_TAP_TEMPO_SW_IN_CHECK);

	//START SPEED POT CHECKING (once tap tempo gets enabled)
	__HAL_TIM_SET_COUNTER(&htim17, 0);
 8002020:	2200      	movs	r2, #0
 8002022:	4808      	ldr	r0, [pc, #32]	@ (8002044 <Start_Tap_Tempo_Monitoring_Timers_and_UART_Receive+0x30>)
	uint8_t ok = HAL_TIM_OC_Start_IT(TIM, OC_TIM_channel); //_IT variant of function
 8002024:	2100      	movs	r1, #0
	__HAL_TIM_SET_COUNTER(&htim17, 0);
 8002026:	6803      	ldr	r3, [r0, #0]
 8002028:	625a      	str	r2, [r3, #36]	@ 0x24
	uint8_t ok = HAL_TIM_OC_Start_IT(TIM, OC_TIM_channel); //_IT variant of function
 800202a:	f002 fcf9 	bl	8004a20 <HAL_TIM_OC_Start_IT>
	if(ok != HAL_OK){
 800202e:	2800      	cmp	r0, #0
 8002030:	d101      	bne.n	8002036 <Start_Tap_Tempo_Monitoring_Timers_and_UART_Receive+0x22>
	Start_OC_TIM(&htim17, TIM_CHANNEL_1);

	return 1;
}
 8002032:	2001      	movs	r0, #1
 8002034:	bd10      	pop	{r4, pc}
		Error_Handler();
 8002036:	f7fe fe1f 	bl	8000c78 <Error_Handler>
 800203a:	e7fa      	b.n	8002032 <Start_Tap_Tempo_Monitoring_Timers_and_UART_Receive+0x1e>
 800203c:	200006a8 	.word	0x200006a8
 8002040:	2000014c 	.word	0x2000014c
 8002044:	20000218 	.word	0x20000218

08002048 <Input_Capture_Processing>:

uint8_t Input_Capture_Processing(volatile uint16_t interrupt_period_value){
 8002048:	b5f0      	push	{r4, r5, r6, r7, lr}
 800204a:	4645      	mov	r5, r8
 800204c:	46de      	mov	lr, fp
 800204e:	4657      	mov	r7, sl
 8002050:	464e      	mov	r6, r9
 8002052:	b5e0      	push	{r5, r6, r7, lr}
 8002054:	b083      	sub	sp, #12
 8002056:	466b      	mov	r3, sp

	HAL_GPIO_WritePin(MONITOR_GPIO_Port, MONITOR_Pin, 1);
 8002058:	2201      	movs	r2, #1
uint8_t Input_Capture_Processing(volatile uint16_t interrupt_period_value){
 800205a:	80d8      	strh	r0, [r3, #6]
	HAL_GPIO_WritePin(MONITOR_GPIO_Port, MONITOR_Pin, 1);
 800205c:	2140      	movs	r1, #64	@ 0x40
 800205e:	48bb      	ldr	r0, [pc, #748]	@ (800234c <Input_Capture_Processing+0x304>)
uint8_t Input_Capture_Processing(volatile uint16_t interrupt_period_value){
 8002060:	1d9d      	adds	r5, r3, #6
	HAL_GPIO_WritePin(MONITOR_GPIO_Port, MONITOR_Pin, 1);
 8002062:	f001 fb61 	bl	8003728 <HAL_GPIO_WritePin>

	input_capture_processing_can_be_started = NO; //reset flag
 8002066:	2200      	movs	r2, #0
 8002068:	4bb9      	ldr	r3, [pc, #740]	@ (8002350 <Input_Capture_Processing+0x308>)
 800206a:	701a      	strb	r2, [r3, #0]

	uint8_t current_waveshape_to_be_loaded = current_waveshape;
 800206c:	4bb9      	ldr	r3, [pc, #740]	@ (8002354 <Input_Capture_Processing+0x30c>)
	uint8_t current_symmetry_to_be_loaded = current_symmetry;
	current_depth_to_be_loaded = current_depth;
 800206e:	4aba      	ldr	r2, [pc, #744]	@ (8002358 <Input_Capture_Processing+0x310>)
	uint8_t current_waveshape_to_be_loaded = current_waveshape;
 8002070:	469a      	mov	sl, r3
 8002072:	781b      	ldrb	r3, [r3, #0]
	current_depth_to_be_loaded = current_depth;
 8002074:	4691      	mov	r9, r2
	uint8_t current_waveshape_to_be_loaded = current_waveshape;
 8002076:	b2db      	uxtb	r3, r3
 8002078:	4698      	mov	r8, r3
	uint8_t current_symmetry_to_be_loaded = current_symmetry;
 800207a:	4bb8      	ldr	r3, [pc, #736]	@ (800235c <Input_Capture_Processing+0x314>)
 800207c:	881f      	ldrh	r7, [r3, #0]
 800207e:	b2bb      	uxth	r3, r7
 8002080:	469b      	mov	fp, r3
	current_depth_to_be_loaded = current_depth;
 8002082:	4bb7      	ldr	r3, [pc, #732]	@ (8002360 <Input_Capture_Processing+0x318>)
	uint8_t current_symmetry_to_be_loaded = current_symmetry;
 8002084:	b2ff      	uxtb	r7, r7
	current_depth_to_be_loaded = current_depth;
 8002086:	881b      	ldrh	r3, [r3, #0]
 8002088:	b29b      	uxth	r3, r3
 800208a:	8013      	strh	r3, [r2, #0]

	//DETERMINE WHAT TO SET THE RAW_START_VALUE AND BASE_PRESCALER TO BASED ON THE I/P CAPTURE VALUE
	//CHECK FOR PRIMALITY
	if(isPrime(interrupt_period_value) == YES){
 800208c:	882b      	ldrh	r3, [r5, #0]
 800208e:	b29e      	uxth	r6, r3

	return 1;
}

enum Validate isPrime(uint16_t x){
    for (int d = 2; d * d <= x; d++) {
 8002090:	2b03      	cmp	r3, #3
 8002092:	dd10      	ble.n	80020b6 <Input_Capture_Processing+0x6e>
        if (x % d == 0)
 8002094:	07f3      	lsls	r3, r6, #31
 8002096:	d400      	bmi.n	800209a <Input_Capture_Processing+0x52>
 8002098:	e0d9      	b.n	800224e <Input_Capture_Processing+0x206>
    for (int d = 2; d * d <= x; d++) {
 800209a:	2402      	movs	r4, #2
 800209c:	e006      	b.n	80020ac <Input_Capture_Processing+0x64>
        if (x % d == 0)
 800209e:	0021      	movs	r1, r4
 80020a0:	0030      	movs	r0, r6
 80020a2:	f7fe f99f 	bl	80003e4 <__aeabi_idivmod>
 80020a6:	2900      	cmp	r1, #0
 80020a8:	d100      	bne.n	80020ac <Input_Capture_Processing+0x64>
 80020aa:	e0d0      	b.n	800224e <Input_Capture_Processing+0x206>
    for (int d = 2; d * d <= x; d++) {
 80020ac:	3401      	adds	r4, #1
 80020ae:	0023      	movs	r3, r4
 80020b0:	4363      	muls	r3, r4
 80020b2:	42b3      	cmp	r3, r6
 80020b4:	ddf3      	ble.n	800209e <Input_Capture_Processing+0x56>
	uint32_t N = interrupt_period_value << 6; //calculate the N-value which is prescaler_meas * interrupt_period_meas. The measurement prescaler is used which is 64. (TIM2 has a prescaler of 64*512, but since we divide this value by 512, the prescaler is then just 64).
 80020b6:	2480      	movs	r4, #128	@ 0x80
 80020b8:	882e      	ldrh	r6, [r5, #0]
 80020ba:	0064      	lsls	r4, r4, #1
 80020bc:	01b6      	lsls	r6, r6, #6
	for(uint8_t i = 0; i < 129; i++){ //check from period = 264 to 128 - there will be a prescaler for every non-prime value of N
 80020be:	e003      	b.n	80020c8 <Input_Capture_Processing+0x80>
 80020c0:	3c01      	subs	r4, #1
 80020c2:	b2a4      	uxth	r4, r4
 80020c4:	2c7f      	cmp	r4, #127	@ 0x7f
 80020c6:	d00f      	beq.n	80020e8 <Input_Capture_Processing+0xa0>
		interrupt_period_value = 256 - i;
 80020c8:	802c      	strh	r4, [r5, #0]
		uint16_t remainder = N % interrupt_period_value;
 80020ca:	8829      	ldrh	r1, [r5, #0]
 80020cc:	0030      	movs	r0, r6
 80020ce:	b289      	uxth	r1, r1
 80020d0:	f7fe f89e 	bl	8000210 <__aeabi_uidivmod>
		if(remainder == 0){ //check if no remainder -> integer
 80020d4:	2900      	cmp	r1, #0
 80020d6:	d1f3      	bne.n	80020c0 <Input_Capture_Processing+0x78>
			TIM16_raw_prescaler_to_be_loaded = N / interrupt_period_value;
 80020d8:	8829      	ldrh	r1, [r5, #0]
 80020da:	0030      	movs	r0, r6
 80020dc:	b289      	uxth	r1, r1
 80020de:	f7fe f811 	bl	8000104 <__udivsi3>
 80020e2:	4ba0      	ldr	r3, [pc, #640]	@ (8002364 <Input_Capture_Processing+0x31c>)
 80020e4:	b280      	uxth	r0, r0
 80020e6:	8018      	strh	r0, [r3, #0]
	TIM16_raw_start_value_to_be_loaded = 256 - interrupt_period_value;
 80020e8:	2280      	movs	r2, #128	@ 0x80
 80020ea:	882b      	ldrh	r3, [r5, #0]
 80020ec:	0052      	lsls	r2, r2, #1
 80020ee:	499e      	ldr	r1, [pc, #632]	@ (8002368 <Input_Capture_Processing+0x320>)
 80020f0:	1ad3      	subs	r3, r2, r3
 80020f2:	b29b      	uxth	r3, r3
 80020f4:	800b      	strh	r3, [r1, #0]
	if(current_waveshape == SINE_MODE || current_waveshape == TRIANGLE_MODE){
 80020f6:	4653      	mov	r3, sl
 80020f8:	781b      	ldrb	r3, [r3, #0]
 80020fa:	2b01      	cmp	r3, #1
 80020fc:	d004      	beq.n	8002108 <Input_Capture_Processing+0xc0>
 80020fe:	4653      	mov	r3, sl
 8002100:	781b      	ldrb	r3, [r3, #0]
 8002102:	2b00      	cmp	r3, #0
 8002104:	d000      	beq.n	8002108 <Input_Capture_Processing+0xc0>
 8002106:	e07f      	b.n	8002208 <Input_Capture_Processing+0x1c0>
		current_index_to_be_loaded = SINE_OR_TRIANGLE_WAVE_TEMPO_PERCEIVED_APEX_INDEX;
 8002108:	22a7      	movs	r2, #167	@ 0xa7
 800210a:	4b98      	ldr	r3, [pc, #608]	@ (800236c <Input_Capture_Processing+0x324>)
 800210c:	0052      	lsls	r2, r2, #1
		current_index_to_be_loaded = SQUARE_WAVE_TEMPO_APEX_INDEX;
 800210e:	801a      	strh	r2, [r3, #0]
		current_quadrant_to_be_loaded = CURRENT_QUADRANT_SQUARE_SYNCED;
 8002110:	2200      	movs	r2, #0
		current_halfcycle_to_be_loaded = CURRENT_HALFCYCLE_SQUARE_SYNCED;
 8002112:	2001      	movs	r0, #1
		current_quadrant_to_be_loaded = CURRENT_QUADRANT_SQUARE_SYNCED;
 8002114:	4c96      	ldr	r4, [pc, #600]	@ (8002370 <Input_Capture_Processing+0x328>)
 8002116:	7022      	strb	r2, [r4, #0]
		current_halfcycle_to_be_loaded = CURRENT_HALFCYCLE_SQUARE_SYNCED;
 8002118:	4a96      	ldr	r2, [pc, #600]	@ (8002374 <Input_Capture_Processing+0x32c>)
 800211a:	7010      	strb	r0, [r2, #0]
	if(current_waveshape_to_be_loaded == TRIANGLE_MODE){
 800211c:	4640      	mov	r0, r8
 800211e:	2800      	cmp	r0, #0
 8002120:	d14a      	bne.n	80021b8 <Input_Capture_Processing+0x170>
		duty_to_be_loaded = tri_wavetable[current_index_to_be_loaded];
 8002122:	8818      	ldrh	r0, [r3, #0]
 8002124:	4b94      	ldr	r3, [pc, #592]	@ (8002378 <Input_Capture_Processing+0x330>)
 8002126:	0040      	lsls	r0, r0, #1
 8002128:	5ac0      	ldrh	r0, [r0, r3]
 800212a:	4b94      	ldr	r3, [pc, #592]	@ (800237c <Input_Capture_Processing+0x334>)
 800212c:	8018      	strh	r0, [r3, #0]
		if(current_depth_to_be_loaded == 255){
 800212e:	4648      	mov	r0, r9
 8002130:	8800      	ldrh	r0, [r0, #0]
 8002132:	28ff      	cmp	r0, #255	@ 0xff
 8002134:	d04a      	beq.n	80021cc <Input_Capture_Processing+0x184>
		else if(current_depth_to_be_loaded != 0){
 8002136:	4648      	mov	r0, r9
 8002138:	8800      	ldrh	r0, [r0, #0]
 800213a:	2800      	cmp	r0, #0
 800213c:	d159      	bne.n	80021f2 <Input_Capture_Processing+0x1aa>
			duty_to_be_loaded = 1023; //if depth is 0, just output 1023
 800213e:	4890      	ldr	r0, [pc, #576]	@ (8002380 <Input_Capture_Processing+0x338>)
 8002140:	8018      	strh	r0, [r3, #0]
		if(current_symmetry_to_be_loaded < SYMMETRY_ADC_HALF_SCALE){ //adc = 0-127
 8002142:	465b      	mov	r3, fp
 8002144:	061b      	lsls	r3, r3, #24
 8002146:	d449      	bmi.n	80021dc <Input_Capture_Processing+0x194>
		if((current_waveshape_to_be_loaded == SINE_MODE) || (current_waveshape_to_be_loaded == TRIANGLE_MODE)){
 8002148:	4643      	mov	r3, r8
 800214a:	2b01      	cmp	r3, #1
 800214c:	d800      	bhi.n	8002150 <Input_Capture_Processing+0x108>
 800214e:	e083      	b.n	8002258 <Input_Capture_Processing+0x210>
		else if(current_waveshape_to_be_loaded == SQUARE_MODE){
 8002150:	2000      	movs	r0, #0
 8002152:	2b02      	cmp	r3, #2
 8002154:	d103      	bne.n	800215e <Input_Capture_Processing+0x116>
			if(current_halfcycle_to_be_loaded == FIRST_HALFCYCLE){
 8002156:	7810      	ldrb	r0, [r2, #0]
 8002158:	4243      	negs	r3, r0
 800215a:	4158      	adcs	r0, r3
 800215c:	b2c0      	uxtb	r0, r0
			pot_rotation_corrected = SYMMETRY_ADC_HALF_SCALE - 1 - current_symmetry_to_be_loaded;
 800215e:	237f      	movs	r3, #127	@ 0x7f
 8002160:	1bdb      	subs	r3, r3, r7
 8002162:	b2da      	uxtb	r2, r3
		uint16_t two_fifty_six_minus_TIM16_raw_start_value = 256 - TIM16_raw_start_value_to_be_loaded;
 8002164:	2680      	movs	r6, #128	@ 0x80
 8002166:	880b      	ldrh	r3, [r1, #0]
 8002168:	0076      	lsls	r6, r6, #1
 800216a:	b29d      	uxth	r5, r3
 800216c:	1af3      	subs	r3, r6, r3
 800216e:	b29b      	uxth	r3, r3
		uint16_t two_fifty_six_minus_TIM16_raw_start_value_multiplied_by_PRC = two_fifty_six_minus_TIM16_raw_start_value * pot_rotation_corrected;
 8002170:	435a      	muls	r2, r3
 8002172:	b292      	uxth	r2, r2
		uint16_t two_fifty_six_minus_TIM16_raw_start_value_multiplied_by_PRC_and_shifted_by_ADC_bits = (uint16_t)(two_fifty_six_minus_TIM16_raw_start_value_multiplied_by_PRC >> SYMMETRY_ADC_NUM_BITS);
 8002174:	0a11      	lsrs	r1, r2, #8
		uint16_t manipulated_period_shorten = two_fifty_six_minus_TIM16_raw_start_value - two_fifty_six_minus_TIM16_raw_start_value_multiplied_by_PRC_and_shifted_by_ADC_bits; //manipulated shorten will always be less than 256
 8002176:	1a5c      	subs	r4, r3, r1
		uint16_t manipulated_period_lengthen = two_fifty_six_minus_TIM16_raw_start_value + two_fifty_six_minus_TIM16_raw_start_value_multiplied_by_PRC_and_shifted_by_ADC_bits; //manipulated lengthen can be greater than 256 up to 381
 8002178:	185b      	adds	r3, r3, r1
 800217a:	b29b      	uxth	r3, r3
		uint16_t manipulated_period_shorten = two_fifty_six_minus_TIM16_raw_start_value - two_fifty_six_minus_TIM16_raw_start_value_multiplied_by_PRC_and_shifted_by_ADC_bits; //manipulated shorten will always be less than 256
 800217c:	b2a4      	uxth	r4, r4
		if((manipulated_period_lengthen < 256) || ((manipulated_period_lengthen == 256) && (unsigned_bitwise_modulo(two_fifty_six_minus_TIM16_raw_start_value_multiplied_by_PRC, 8) == 0))){
 800217e:	2bff      	cmp	r3, #255	@ 0xff
 8002180:	d944      	bls.n	800220c <Input_Capture_Processing+0x1c4>
 8002182:	21ff      	movs	r1, #255	@ 0xff
 8002184:	4011      	ands	r1, r2
 8002186:	42b3      	cmp	r3, r6
 8002188:	d100      	bne.n	800218c <Input_Capture_Processing+0x144>
 800218a:	e119      	b.n	80023c0 <Input_Capture_Processing+0x378>
			if(unsigned_bitwise_modulo(two_fifty_six_minus_TIM16_raw_start_value_multiplied_by_PRC, 8) == 128){
 800218c:	2980      	cmp	r1, #128	@ 0x80
 800218e:	d100      	bne.n	8002192 <Input_Capture_Processing+0x14a>
 8002190:	e0c9      	b.n	8002326 <Input_Capture_Processing+0x2de>
			else if(unsigned_bitwise_modulo(two_fifty_six_minus_TIM16_raw_start_value_multiplied_by_PRC, 8) == 0){
 8002192:	2900      	cmp	r1, #0
 8002194:	d100      	bne.n	8002198 <Input_Capture_Processing+0x150>
 8002196:	e163      	b.n	8002460 <Input_Capture_Processing+0x418>
			else if(unsigned_bitwise_modulo(two_fifty_six_minus_TIM16_raw_start_value_multiplied_by_PRC, 8) < 128){
 8002198:	0612      	lsls	r2, r2, #24
 800219a:	d500      	bpl.n	800219e <Input_Capture_Processing+0x156>
 800219c:	e1b2      	b.n	8002504 <Input_Capture_Processing+0x4bc>
				if(unsigned_bitwise_modulo(manipulated_period_lengthen, 1) == 0){
 800219e:	2201      	movs	r2, #1
 80021a0:	401a      	ands	r2, r3
					manipulated_period_lengthen = manipulated_period_lengthen >> 1; //DONE
 80021a2:	085b      	lsrs	r3, r3, #1
				if(unsigned_bitwise_modulo(manipulated_period_lengthen, 1) == 0){
 80021a4:	2a00      	cmp	r2, #0
 80021a6:	d100      	bne.n	80021aa <Input_Capture_Processing+0x162>
 80021a8:	e1a2      	b.n	80024f0 <Input_Capture_Processing+0x4a8>
						TIM16_prescaler_adjust_to_be_loaded = DO_NOTHING;
 80021aa:	4a76      	ldr	r2, [pc, #472]	@ (8002384 <Input_Capture_Processing+0x33c>)
					if(symmetry_type_for_halfcycle == SHORTEN){
 80021ac:	2800      	cmp	r0, #0
 80021ae:	d100      	bne.n	80021b2 <Input_Capture_Processing+0x16a>
 80021b0:	e0c4      	b.n	800233c <Input_Capture_Processing+0x2f4>
						TIM16_prescaler_adjust_to_be_loaded = MULTIPLY_BY_TWO;
 80021b2:	2101      	movs	r1, #1
 80021b4:	7011      	strb	r1, [r2, #0]
		if(symmetry_type_for_halfcycle == SHORTEN){
 80021b6:	e0f8      	b.n	80023aa <Input_Capture_Processing+0x362>
	else if(current_waveshape_to_be_loaded == SINE_MODE){
 80021b8:	2801      	cmp	r0, #1
 80021ba:	d066      	beq.n	800228a <Input_Capture_Processing+0x242>
	else if((current_waveshape_to_be_loaded == SQUARE_MODE) && (current_index_to_be_loaded < THIRD_QUADRANT_START_INDEX)){
 80021bc:	2802      	cmp	r0, #2
 80021be:	d100      	bne.n	80021c2 <Input_Capture_Processing+0x17a>
 80021c0:	e086      	b.n	80022d0 <Input_Capture_Processing+0x288>
		if(current_depth_to_be_loaded == 255){
 80021c2:	4648      	mov	r0, r9
 80021c4:	8800      	ldrh	r0, [r0, #0]
 80021c6:	4b6d      	ldr	r3, [pc, #436]	@ (800237c <Input_Capture_Processing+0x334>)
 80021c8:	28ff      	cmp	r0, #255	@ 0xff
 80021ca:	d1b4      	bne.n	8002136 <Input_Capture_Processing+0xee>
			duty_to_be_loaded = 1023 - duty_to_be_loaded;
 80021cc:	881d      	ldrh	r5, [r3, #0]
 80021ce:	486c      	ldr	r0, [pc, #432]	@ (8002380 <Input_Capture_Processing+0x338>)
 80021d0:	1b40      	subs	r0, r0, r5
 80021d2:	b280      	uxth	r0, r0
 80021d4:	8018      	strh	r0, [r3, #0]
		if(current_symmetry_to_be_loaded < SYMMETRY_ADC_HALF_SCALE){ //adc = 0-127
 80021d6:	465b      	mov	r3, fp
 80021d8:	061b      	lsls	r3, r3, #24
 80021da:	d5b5      	bpl.n	8002148 <Input_Capture_Processing+0x100>
		if((current_waveshape_to_be_loaded == SINE_MODE) || (current_waveshape_to_be_loaded == TRIANGLE_MODE)){
 80021dc:	4643      	mov	r3, r8
 80021de:	2b01      	cmp	r3, #1
 80021e0:	d800      	bhi.n	80021e4 <Input_Capture_Processing+0x19c>
 80021e2:	e100      	b.n	80023e6 <Input_Capture_Processing+0x39e>
		else if(current_waveshape_to_be_loaded == SQUARE_MODE){
 80021e4:	2000      	movs	r0, #0
 80021e6:	2b02      	cmp	r3, #2
 80021e8:	d100      	bne.n	80021ec <Input_Capture_Processing+0x1a4>
 80021ea:	e0a9      	b.n	8002340 <Input_Capture_Processing+0x2f8>
			pot_rotation_corrected = SYMMETRY_ADC_HALF_SCALE - 1 - (SYMMETRY_ADC_FULL_SCALE - current_symmetry_to_be_loaded);
 80021ec:	3f80      	subs	r7, #128	@ 0x80
 80021ee:	b2fa      	uxtb	r2, r7
 80021f0:	e7b8      	b.n	8002164 <Input_Capture_Processing+0x11c>
			multiply_product = duty * current_depth_to_be_loaded; //compiler should compile this as a hardware multiplication, but need to check
 80021f2:	464d      	mov	r5, r9
 80021f4:	4864      	ldr	r0, [pc, #400]	@ (8002388 <Input_Capture_Processing+0x340>)
 80021f6:	8800      	ldrh	r0, [r0, #0]
 80021f8:	882d      	ldrh	r5, [r5, #0]
 80021fa:	4345      	muls	r5, r0
			duty_to_be_loaded = 1023 - (uint16_t)(multiply_product >> 8);
 80021fc:	4860      	ldr	r0, [pc, #384]	@ (8002380 <Input_Capture_Processing+0x338>)
 80021fe:	0a2d      	lsrs	r5, r5, #8
 8002200:	1b40      	subs	r0, r0, r5
 8002202:	b280      	uxth	r0, r0
 8002204:	8018      	strh	r0, [r3, #0]
 8002206:	e79c      	b.n	8002142 <Input_Capture_Processing+0xfa>
		current_index_to_be_loaded = SQUARE_WAVE_TEMPO_APEX_INDEX;
 8002208:	4b58      	ldr	r3, [pc, #352]	@ (800236c <Input_Capture_Processing+0x324>)
 800220a:	e780      	b.n	800210e <Input_Capture_Processing+0xc6>
			if(unsigned_bitwise_modulo(two_fifty_six_minus_TIM16_raw_start_value_multiplied_by_PRC, 8) == 128){
 800220c:	26ff      	movs	r6, #255	@ 0xff
 800220e:	4016      	ands	r6, r2
 8002210:	2e80      	cmp	r6, #128	@ 0x80
 8002212:	d100      	bne.n	8002216 <Input_Capture_Processing+0x1ce>
 8002214:	e0c4      	b.n	80023a0 <Input_Capture_Processing+0x358>
			else if(unsigned_bitwise_modulo(two_fifty_six_minus_TIM16_raw_start_value_multiplied_by_PRC, 8) == 0){
 8002216:	2e00      	cmp	r6, #0
 8002218:	d062      	beq.n	80022e0 <Input_Capture_Processing+0x298>
			else if(unsigned_bitwise_modulo(two_fifty_six_minus_TIM16_raw_start_value_multiplied_by_PRC, 8) < 128){
 800221a:	2180      	movs	r1, #128	@ 0x80
 800221c:	000d      	movs	r5, r1
 800221e:	4015      	ands	r5, r2
 8002220:	4211      	tst	r1, r2
 8002222:	d000      	beq.n	8002226 <Input_Capture_Processing+0x1de>
 8002224:	e10d      	b.n	8002442 <Input_Capture_Processing+0x3fa>
				TIM16_prescaler_adjust_to_be_loaded = DO_NOTHING;
 8002226:	4a57      	ldr	r2, [pc, #348]	@ (8002384 <Input_Capture_Processing+0x33c>)
 8002228:	7015      	strb	r5, [r2, #0]
		if(symmetry_type_for_halfcycle == SHORTEN){
 800222a:	2800      	cmp	r0, #0
 800222c:	d05d      	beq.n	80022ea <Input_Capture_Processing+0x2a2>
					TIM16_final_start_value_to_be_loaded = 256 - manipulated_period_lengthen;
 800222e:	2180      	movs	r1, #128	@ 0x80
 8002230:	0049      	lsls	r1, r1, #1
 8002232:	1acb      	subs	r3, r1, r3
 8002234:	4955      	ldr	r1, [pc, #340]	@ (800238c <Input_Capture_Processing+0x344>)
 8002236:	b29b      	uxth	r3, r3
 8002238:	800b      	strh	r3, [r1, #0]
		if(TIM16_prescaler_adjust_to_be_loaded == MULTIPLY_BY_TWO){
 800223a:	7813      	ldrb	r3, [r2, #0]
 800223c:	2b01      	cmp	r3, #1
 800223e:	d15d      	bne.n	80022fc <Input_Capture_Processing+0x2b4>
			TIM16_final_prescaler_to_be_loaded = TIM16_raw_prescaler_to_be_loaded << 1; //multiply by 2
 8002240:	4b48      	ldr	r3, [pc, #288]	@ (8002364 <Input_Capture_Processing+0x31c>)
 8002242:	4a53      	ldr	r2, [pc, #332]	@ (8002390 <Input_Capture_Processing+0x348>)
 8002244:	881b      	ldrh	r3, [r3, #0]
 8002246:	005b      	lsls	r3, r3, #1
 8002248:	b29b      	uxth	r3, r3
 800224a:	8013      	strh	r3, [r2, #0]
 800224c:	e05e      	b.n	800230c <Input_Capture_Processing+0x2c4>
		interrupt_period_value += 1;
 800224e:	882b      	ldrh	r3, [r5, #0]
 8002250:	3301      	adds	r3, #1
 8002252:	b29b      	uxth	r3, r3
 8002254:	802b      	strh	r3, [r5, #0]
 8002256:	e72e      	b.n	80020b6 <Input_Capture_Processing+0x6e>
			if((current_halfcycle_to_be_loaded == FIRST_HALFCYCLE && current_quadrant_to_be_loaded == FIRST_QUADRANT) || (current_halfcycle_to_be_loaded == SECOND_HALFCYCLE && current_quadrant_to_be_loaded == SECOND_QUADRANT)){
 8002258:	7813      	ldrb	r3, [r2, #0]
 800225a:	b2d8      	uxtb	r0, r3
 800225c:	2b00      	cmp	r3, #0
 800225e:	d01b      	beq.n	8002298 <Input_Capture_Processing+0x250>
 8002260:	7813      	ldrb	r3, [r2, #0]
 8002262:	2b01      	cmp	r3, #1
 8002264:	d100      	bne.n	8002268 <Input_Capture_Processing+0x220>
 8002266:	e13c      	b.n	80024e2 <Input_Capture_Processing+0x49a>
			else if((current_halfcycle == FIRST_HALFCYCLE && current_quadrant == SECOND_QUADRANT) || (current_halfcycle == SECOND_HALFCYCLE && current_quadrant == FIRST_QUADRANT)){
 8002268:	4b4a      	ldr	r3, [pc, #296]	@ (8002394 <Input_Capture_Processing+0x34c>)
 800226a:	781a      	ldrb	r2, [r3, #0]
 800226c:	b2d0      	uxtb	r0, r2
 800226e:	2a00      	cmp	r2, #0
 8002270:	d01f      	beq.n	80022b2 <Input_Capture_Processing+0x26a>
 8002272:	781b      	ldrb	r3, [r3, #0]
			symmetry_status = CW;
 8002274:	2000      	movs	r0, #0
			else if((current_halfcycle == FIRST_HALFCYCLE && current_quadrant == SECOND_QUADRANT) || (current_halfcycle == SECOND_HALFCYCLE && current_quadrant == FIRST_QUADRANT)){
 8002276:	2b01      	cmp	r3, #1
 8002278:	d000      	beq.n	800227c <Input_Capture_Processing+0x234>
 800227a:	e770      	b.n	800215e <Input_Capture_Processing+0x116>
 800227c:	4a46      	ldr	r2, [pc, #280]	@ (8002398 <Input_Capture_Processing+0x350>)
 800227e:	7813      	ldrb	r3, [r2, #0]
 8002280:	2b00      	cmp	r3, #0
 8002282:	d11e      	bne.n	80022c2 <Input_Capture_Processing+0x27a>
				if(symmetry_status == CW){
 8002284:	2800      	cmp	r0, #0
 8002286:	d1b1      	bne.n	80021ec <Input_Capture_Processing+0x1a4>
 8002288:	e769      	b.n	800215e <Input_Capture_Processing+0x116>
		duty_to_be_loaded = sine_wavetable[current_index_to_be_loaded];
 800228a:	8818      	ldrh	r0, [r3, #0]
 800228c:	4b43      	ldr	r3, [pc, #268]	@ (800239c <Input_Capture_Processing+0x354>)
 800228e:	0040      	lsls	r0, r0, #1
 8002290:	5ac0      	ldrh	r0, [r0, r3]
 8002292:	4b3a      	ldr	r3, [pc, #232]	@ (800237c <Input_Capture_Processing+0x334>)
 8002294:	8018      	strh	r0, [r3, #0]
 8002296:	e74a      	b.n	800212e <Input_Capture_Processing+0xe6>
			if((current_halfcycle_to_be_loaded == FIRST_HALFCYCLE && current_quadrant_to_be_loaded == FIRST_QUADRANT) || (current_halfcycle_to_be_loaded == SECOND_HALFCYCLE && current_quadrant_to_be_loaded == SECOND_QUADRANT)){
 8002298:	7823      	ldrb	r3, [r4, #0]
 800229a:	2b00      	cmp	r3, #0
 800229c:	d100      	bne.n	80022a0 <Input_Capture_Processing+0x258>
 800229e:	e0f5      	b.n	800248c <Input_Capture_Processing+0x444>
 80022a0:	7813      	ldrb	r3, [r2, #0]
 80022a2:	2b01      	cmp	r3, #1
 80022a4:	d100      	bne.n	80022a8 <Input_Capture_Processing+0x260>
 80022a6:	e0ed      	b.n	8002484 <Input_Capture_Processing+0x43c>
			else if((current_halfcycle == FIRST_HALFCYCLE && current_quadrant == SECOND_QUADRANT) || (current_halfcycle == SECOND_HALFCYCLE && current_quadrant == FIRST_QUADRANT)){
 80022a8:	4b3a      	ldr	r3, [pc, #232]	@ (8002394 <Input_Capture_Processing+0x34c>)
 80022aa:	781a      	ldrb	r2, [r3, #0]
 80022ac:	2a00      	cmp	r2, #0
 80022ae:	d000      	beq.n	80022b2 <Input_Capture_Processing+0x26a>
 80022b0:	e103      	b.n	80024ba <Input_Capture_Processing+0x472>
 80022b2:	4a39      	ldr	r2, [pc, #228]	@ (8002398 <Input_Capture_Processing+0x350>)
 80022b4:	7814      	ldrb	r4, [r2, #0]
 80022b6:	2c01      	cmp	r4, #1
 80022b8:	d100      	bne.n	80022bc <Input_Capture_Processing+0x274>
 80022ba:	e750      	b.n	800215e <Input_Capture_Processing+0x116>
 80022bc:	781b      	ldrb	r3, [r3, #0]
 80022be:	2b01      	cmp	r3, #1
 80022c0:	d0dd      	beq.n	800227e <Input_Capture_Processing+0x236>
		if(symmetry_status == CW){
 80022c2:	2800      	cmp	r0, #0
 80022c4:	d100      	bne.n	80022c8 <Input_Capture_Processing+0x280>
 80022c6:	e74a      	b.n	800215e <Input_Capture_Processing+0x116>
 80022c8:	2000      	movs	r0, #0
			pot_rotation_corrected = SYMMETRY_ADC_HALF_SCALE - 1 - (SYMMETRY_ADC_FULL_SCALE - current_symmetry_to_be_loaded);
 80022ca:	3f80      	subs	r7, #128	@ 0x80
 80022cc:	b2fa      	uxtb	r2, r7
 80022ce:	e749      	b.n	8002164 <Input_Capture_Processing+0x11c>
	else if((current_waveshape_to_be_loaded == SQUARE_MODE) && (current_index_to_be_loaded < THIRD_QUADRANT_START_INDEX)){
 80022d0:	8818      	ldrh	r0, [r3, #0]
 80022d2:	28ff      	cmp	r0, #255	@ 0xff
 80022d4:	d900      	bls.n	80022d8 <Input_Capture_Processing+0x290>
 80022d6:	e0e1      	b.n	800249c <Input_Capture_Processing+0x454>
		duty_to_be_loaded = 1023;
 80022d8:	4b28      	ldr	r3, [pc, #160]	@ (800237c <Input_Capture_Processing+0x334>)
 80022da:	4829      	ldr	r0, [pc, #164]	@ (8002380 <Input_Capture_Processing+0x338>)
 80022dc:	8018      	strh	r0, [r3, #0]
 80022de:	e726      	b.n	800212e <Input_Capture_Processing+0xe6>
				TIM16_prescaler_adjust_to_be_loaded = DO_NOTHING;
 80022e0:	2100      	movs	r1, #0
 80022e2:	4a28      	ldr	r2, [pc, #160]	@ (8002384 <Input_Capture_Processing+0x33c>)
 80022e4:	7011      	strb	r1, [r2, #0]
		if(symmetry_type_for_halfcycle == SHORTEN){
 80022e6:	2800      	cmp	r0, #0
 80022e8:	d1a1      	bne.n	800222e <Input_Capture_Processing+0x1e6>
				TIM16_final_start_value_to_be_loaded = 256 - manipulated_period_shorten;
 80022ea:	2380      	movs	r3, #128	@ 0x80
 80022ec:	005b      	lsls	r3, r3, #1
 80022ee:	4927      	ldr	r1, [pc, #156]	@ (800238c <Input_Capture_Processing+0x344>)
 80022f0:	1b1b      	subs	r3, r3, r4
 80022f2:	b29b      	uxth	r3, r3
 80022f4:	800b      	strh	r3, [r1, #0]
		if(TIM16_prescaler_adjust_to_be_loaded == MULTIPLY_BY_TWO){
 80022f6:	7813      	ldrb	r3, [r2, #0]
 80022f8:	2b01      	cmp	r3, #1
 80022fa:	d0a1      	beq.n	8002240 <Input_Capture_Processing+0x1f8>
		else if(TIM16_prescaler_adjust_to_be_loaded == DO_NOTHING){
 80022fc:	7813      	ldrb	r3, [r2, #0]
 80022fe:	2b00      	cmp	r3, #0
 8002300:	d104      	bne.n	800230c <Input_Capture_Processing+0x2c4>
				TIM16_final_prescaler_to_be_loaded = TIM16_raw_prescaler_to_be_loaded;
 8002302:	4b18      	ldr	r3, [pc, #96]	@ (8002364 <Input_Capture_Processing+0x31c>)
 8002304:	4a22      	ldr	r2, [pc, #136]	@ (8002390 <Input_Capture_Processing+0x348>)
 8002306:	881b      	ldrh	r3, [r3, #0]
 8002308:	b29b      	uxth	r3, r3
 800230a:	8013      	strh	r3, [r2, #0]
	HAL_GPIO_WritePin(MONITOR_GPIO_Port, MONITOR_Pin, 0);
 800230c:	2200      	movs	r2, #0
 800230e:	2140      	movs	r1, #64	@ 0x40
 8002310:	480e      	ldr	r0, [pc, #56]	@ (800234c <Input_Capture_Processing+0x304>)
 8002312:	f001 fa09 	bl	8003728 <HAL_GPIO_WritePin>
}
 8002316:	2001      	movs	r0, #1
 8002318:	b003      	add	sp, #12
 800231a:	bcf0      	pop	{r4, r5, r6, r7}
 800231c:	46bb      	mov	fp, r7
 800231e:	46b2      	mov	sl, r6
 8002320:	46a9      	mov	r9, r5
 8002322:	46a0      	mov	r8, r4
 8002324:	bdf0      	pop	{r4, r5, r6, r7, pc}
				manipulated_period_lengthen = manipulated_period_lengthen + 1; //DONE
 8002326:	3301      	adds	r3, #1
				manipulated_period_shorten = manipulated_period_shorten - 1; //DONE
 8002328:	3c01      	subs	r4, #1
				manipulated_period_lengthen = manipulated_period_lengthen + 1; //DONE
 800232a:	b29a      	uxth	r2, r3
				manipulated_period_shorten = manipulated_period_shorten - 1; //DONE
 800232c:	b2a4      	uxth	r4, r4
					manipulated_period_lengthen = manipulated_period_lengthen >> 1; //DONE
 800232e:	0853      	lsrs	r3, r2, #1
				if(unsigned_bitwise_modulo(manipulated_period_lengthen, 1) == 0){
 8002330:	07d2      	lsls	r2, r2, #31
 8002332:	d452      	bmi.n	80023da <Input_Capture_Processing+0x392>
						TIM16_prescaler_adjust_to_be_loaded = DO_NOTHING;
 8002334:	4a13      	ldr	r2, [pc, #76]	@ (8002384 <Input_Capture_Processing+0x33c>)
					if(symmetry_type_for_halfcycle == SHORTEN){
 8002336:	2800      	cmp	r0, #0
 8002338:	d000      	beq.n	800233c <Input_Capture_Processing+0x2f4>
 800233a:	e0b7      	b.n	80024ac <Input_Capture_Processing+0x464>
						TIM16_prescaler_adjust_to_be_loaded = DO_NOTHING;
 800233c:	7010      	strb	r0, [r2, #0]
		if(symmetry_type_for_halfcycle == SHORTEN){
 800233e:	e7d4      	b.n	80022ea <Input_Capture_Processing+0x2a2>
			if(current_halfcycle_to_be_loaded == FIRST_HALFCYCLE){
 8002340:	7810      	ldrb	r0, [r2, #0]
 8002342:	1e43      	subs	r3, r0, #1
 8002344:	4198      	sbcs	r0, r3
 8002346:	b2c0      	uxtb	r0, r0
 8002348:	e750      	b.n	80021ec <Input_Capture_Processing+0x1a4>
 800234a:	46c0      	nop			@ (mov r8, r8)
 800234c:	50000400 	.word	0x50000400
 8002350:	200006af 	.word	0x200006af
 8002354:	20000afa 	.word	0x20000afa
 8002358:	20000aba 	.word	0x20000aba
 800235c:	20000af4 	.word	0x20000af4
 8002360:	20000af6 	.word	0x20000af6
 8002364:	20000ac4 	.word	0x20000ac4
 8002368:	20000ac8 	.word	0x20000ac8
 800236c:	20000abc 	.word	0x20000abc
 8002370:	20000abe 	.word	0x20000abe
 8002374:	20000abf 	.word	0x20000abf
 8002378:	08006d28 	.word	0x08006d28
 800237c:	20000ac2 	.word	0x20000ac2
 8002380:	000003ff 	.word	0x000003ff
 8002384:	20000aca 	.word	0x20000aca
 8002388:	20000ae6 	.word	0x20000ae6
 800238c:	20000ac6 	.word	0x20000ac6
 8002390:	20000ac0 	.word	0x20000ac0
 8002394:	20000af1 	.word	0x20000af1
 8002398:	20000af0 	.word	0x20000af0
 800239c:	08007128 	.word	0x08007128
				TIM16_prescaler_adjust_to_be_loaded = DO_NOTHING;
 80023a0:	4a61      	ldr	r2, [pc, #388]	@ (8002528 <Input_Capture_Processing+0x4e0>)
				if(symmetry_type_for_halfcycle == SHORTEN){
 80023a2:	2800      	cmp	r0, #0
 80023a4:	d03e      	beq.n	8002424 <Input_Capture_Processing+0x3dc>
				TIM16_prescaler_adjust_to_be_loaded = DO_NOTHING;
 80023a6:	2100      	movs	r1, #0
 80023a8:	7011      	strb	r1, [r2, #0]
				if(unsigned_bitwise_modulo(current_index, 1) == 0){ //if current index is even
 80023aa:	4960      	ldr	r1, [pc, #384]	@ (800252c <Input_Capture_Processing+0x4e4>)
 80023ac:	8809      	ldrh	r1, [r1, #0]
 80023ae:	07c9      	lsls	r1, r1, #31
 80023b0:	d400      	bmi.n	80023b4 <Input_Capture_Processing+0x36c>
 80023b2:	e73c      	b.n	800222e <Input_Capture_Processing+0x1e6>
					TIM16_final_start_value_to_be_loaded = 256 - manipulated_period_lengthen - 1;
 80023b4:	21ff      	movs	r1, #255	@ 0xff
 80023b6:	1acb      	subs	r3, r1, r3
 80023b8:	495d      	ldr	r1, [pc, #372]	@ (8002530 <Input_Capture_Processing+0x4e8>)
 80023ba:	b29b      	uxth	r3, r3
 80023bc:	800b      	strh	r3, [r1, #0]
 80023be:	e79a      	b.n	80022f6 <Input_Capture_Processing+0x2ae>
		if((manipulated_period_lengthen < 256) || ((manipulated_period_lengthen == 256) && (unsigned_bitwise_modulo(two_fifty_six_minus_TIM16_raw_start_value_multiplied_by_PRC, 8) == 0))){
 80023c0:	2900      	cmp	r1, #0
 80023c2:	d100      	bne.n	80023c6 <Input_Capture_Processing+0x37e>
 80023c4:	e78c      	b.n	80022e0 <Input_Capture_Processing+0x298>
			if(unsigned_bitwise_modulo(two_fifty_six_minus_TIM16_raw_start_value_multiplied_by_PRC, 8) == 128){
 80023c6:	2980      	cmp	r1, #128	@ 0x80
 80023c8:	d004      	beq.n	80023d4 <Input_Capture_Processing+0x38c>
			else if(unsigned_bitwise_modulo(two_fifty_six_minus_TIM16_raw_start_value_multiplied_by_PRC, 8) < 128){
 80023ca:	0612      	lsls	r2, r2, #24
 80023cc:	d400      	bmi.n	80023d0 <Input_Capture_Processing+0x388>
 80023ce:	e08e      	b.n	80024ee <Input_Capture_Processing+0x4a6>
			else if(unsigned_bitwise_modulo(two_fifty_six_minus_TIM16_raw_start_value_multiplied_by_PRC, 8) > 128){
 80023d0:	2980      	cmp	r1, #128	@ 0x80
 80023d2:	d940      	bls.n	8002456 <Input_Capture_Processing+0x40e>
					manipulated_period_lengthen = manipulated_period_lengthen >> 1; //DONE
 80023d4:	2380      	movs	r3, #128	@ 0x80
				manipulated_period_shorten = manipulated_period_shorten - 1; //DONE
 80023d6:	3c01      	subs	r4, #1
 80023d8:	b2a4      	uxth	r4, r4
						TIM16_prescaler_adjust_to_be_loaded = DO_NOTHING;
 80023da:	4a53      	ldr	r2, [pc, #332]	@ (8002528 <Input_Capture_Processing+0x4e0>)
					if(symmetry_type_for_halfcycle == SHORTEN){
 80023dc:	2800      	cmp	r0, #0
 80023de:	d0ad      	beq.n	800233c <Input_Capture_Processing+0x2f4>
						TIM16_prescaler_adjust_to_be_loaded = MULTIPLY_BY_TWO;
 80023e0:	2101      	movs	r1, #1
 80023e2:	7011      	strb	r1, [r2, #0]
		if(symmetry_type_for_halfcycle == SHORTEN){
 80023e4:	e7e1      	b.n	80023aa <Input_Capture_Processing+0x362>
			if((current_halfcycle_to_be_loaded == FIRST_HALFCYCLE && current_quadrant_to_be_loaded == FIRST_QUADRANT) || (current_halfcycle_to_be_loaded == SECOND_HALFCYCLE && current_quadrant_to_be_loaded == SECOND_QUADRANT)){
 80023e6:	7813      	ldrb	r3, [r2, #0]
 80023e8:	2b00      	cmp	r3, #0
 80023ea:	d104      	bne.n	80023f6 <Input_Capture_Processing+0x3ae>
 80023ec:	7823      	ldrb	r3, [r4, #0]
 80023ee:	b2d8      	uxtb	r0, r3
 80023f0:	2b00      	cmp	r3, #0
 80023f2:	d100      	bne.n	80023f6 <Input_Capture_Processing+0x3ae>
 80023f4:	e6fa      	b.n	80021ec <Input_Capture_Processing+0x1a4>
 80023f6:	7813      	ldrb	r3, [r2, #0]
 80023f8:	b2d8      	uxtb	r0, r3
 80023fa:	2b01      	cmp	r3, #1
 80023fc:	d063      	beq.n	80024c6 <Input_Capture_Processing+0x47e>
			else if((current_halfcycle == FIRST_HALFCYCLE && current_quadrant == SECOND_QUADRANT) || (current_halfcycle == SECOND_HALFCYCLE && current_quadrant == FIRST_QUADRANT)){
 80023fe:	4b4d      	ldr	r3, [pc, #308]	@ (8002534 <Input_Capture_Processing+0x4ec>)
 8002400:	781a      	ldrb	r2, [r3, #0]
 8002402:	2a00      	cmp	r2, #0
 8002404:	d107      	bne.n	8002416 <Input_Capture_Processing+0x3ce>
 8002406:	4a4c      	ldr	r2, [pc, #304]	@ (8002538 <Input_Capture_Processing+0x4f0>)
 8002408:	7814      	ldrb	r4, [r2, #0]
 800240a:	b2e0      	uxtb	r0, r4
 800240c:	2c01      	cmp	r4, #1
 800240e:	d100      	bne.n	8002412 <Input_Capture_Processing+0x3ca>
 8002410:	e6ec      	b.n	80021ec <Input_Capture_Processing+0x1a4>
			symmetry_status = CCW;
 8002412:	2001      	movs	r0, #1
 8002414:	e752      	b.n	80022bc <Input_Capture_Processing+0x274>
			else if((current_halfcycle == FIRST_HALFCYCLE && current_quadrant == SECOND_QUADRANT) || (current_halfcycle == SECOND_HALFCYCLE && current_quadrant == FIRST_QUADRANT)){
 8002416:	781b      	ldrb	r3, [r3, #0]
 8002418:	b2d8      	uxtb	r0, r3
 800241a:	2b01      	cmp	r3, #1
 800241c:	d100      	bne.n	8002420 <Input_Capture_Processing+0x3d8>
 800241e:	e72d      	b.n	800227c <Input_Capture_Processing+0x234>
 8002420:	2000      	movs	r0, #0
 8002422:	e752      	b.n	80022ca <Input_Capture_Processing+0x282>
				if(unsigned_bitwise_modulo(current_index, 1) == 0){ //if current index is even
 8002424:	4b41      	ldr	r3, [pc, #260]	@ (800252c <Input_Capture_Processing+0x4e4>)
				TIM16_prescaler_adjust_to_be_loaded = DO_NOTHING;
 8002426:	7010      	strb	r0, [r2, #0]
				if(unsigned_bitwise_modulo(current_index, 1) == 0){ //if current index is even
 8002428:	3d01      	subs	r5, #1
 800242a:	3dff      	subs	r5, #255	@ 0xff
 800242c:	881b      	ldrh	r3, [r3, #0]
 800242e:	1949      	adds	r1, r1, r5
 8002430:	b289      	uxth	r1, r1
 8002432:	07db      	lsls	r3, r3, #31
 8002434:	d420      	bmi.n	8002478 <Input_Capture_Processing+0x430>
					TIM16_final_start_value_to_be_loaded = 256 - manipulated_period_shorten;
 8002436:	3101      	adds	r1, #1
 8002438:	4b3d      	ldr	r3, [pc, #244]	@ (8002530 <Input_Capture_Processing+0x4e8>)
 800243a:	31ff      	adds	r1, #255	@ 0xff
 800243c:	b289      	uxth	r1, r1
 800243e:	8019      	strh	r1, [r3, #0]
 8002440:	e759      	b.n	80022f6 <Input_Capture_Processing+0x2ae>
				TIM16_prescaler_adjust_to_be_loaded = DO_NOTHING;
 8002442:	4a39      	ldr	r2, [pc, #228]	@ (8002528 <Input_Capture_Processing+0x4e0>)
			else if(unsigned_bitwise_modulo(two_fifty_six_minus_TIM16_raw_start_value_multiplied_by_PRC, 8) > 128){
 8002444:	2e80      	cmp	r6, #128	@ 0x80
 8002446:	d907      	bls.n	8002458 <Input_Capture_Processing+0x410>
				TIM16_prescaler_adjust_to_be_loaded = DO_NOTHING;
 8002448:	2100      	movs	r1, #0
 800244a:	7011      	strb	r1, [r2, #0]
		if(symmetry_type_for_halfcycle == SHORTEN){
 800244c:	2800      	cmp	r0, #0
 800244e:	d056      	beq.n	80024fe <Input_Capture_Processing+0x4b6>
				manipulated_period_lengthen = manipulated_period_lengthen + 1; //DONE
 8002450:	3301      	adds	r3, #1
 8002452:	b29b      	uxth	r3, r3
 8002454:	e6eb      	b.n	800222e <Input_Capture_Processing+0x1e6>
		if(symmetry_type_for_halfcycle == SHORTEN){
 8002456:	4a34      	ldr	r2, [pc, #208]	@ (8002528 <Input_Capture_Processing+0x4e0>)
 8002458:	2800      	cmp	r0, #0
 800245a:	d100      	bne.n	800245e <Input_Capture_Processing+0x416>
 800245c:	e745      	b.n	80022ea <Input_Capture_Processing+0x2a2>
 800245e:	e6e6      	b.n	800222e <Input_Capture_Processing+0x1e6>
				if(unsigned_bitwise_modulo(manipulated_period_lengthen, 1) == 0){
 8002460:	2201      	movs	r2, #1
 8002462:	2101      	movs	r1, #1
 8002464:	401a      	ands	r2, r3
					manipulated_period_lengthen = manipulated_period_lengthen >> 1; //DONE
 8002466:	085b      	lsrs	r3, r3, #1
				if(unsigned_bitwise_modulo(manipulated_period_lengthen, 1) == 0){
 8002468:	2a00      	cmp	r2, #0
 800246a:	d011      	beq.n	8002490 <Input_Capture_Processing+0x448>
					if(symmetry_type_for_halfcycle == SHORTEN){
 800246c:	2800      	cmp	r0, #0
 800246e:	d120      	bne.n	80024b2 <Input_Capture_Processing+0x46a>
						TIM16_prescaler_adjust = DO_NOTHING;
 8002470:	4b32      	ldr	r3, [pc, #200]	@ (800253c <Input_Capture_Processing+0x4f4>)
 8002472:	4a2d      	ldr	r2, [pc, #180]	@ (8002528 <Input_Capture_Processing+0x4e0>)
 8002474:	7018      	strb	r0, [r3, #0]
		if(symmetry_type_for_halfcycle == SHORTEN){
 8002476:	e738      	b.n	80022ea <Input_Capture_Processing+0x2a2>
					TIM16_final_start_value_to_be_loaded = 256 - manipulated_period_shorten + 1;
 8002478:	3102      	adds	r1, #2
 800247a:	4b2d      	ldr	r3, [pc, #180]	@ (8002530 <Input_Capture_Processing+0x4e8>)
 800247c:	31ff      	adds	r1, #255	@ 0xff
 800247e:	b289      	uxth	r1, r1
 8002480:	8019      	strh	r1, [r3, #0]
 8002482:	e738      	b.n	80022f6 <Input_Capture_Processing+0x2ae>
			if((current_halfcycle_to_be_loaded == FIRST_HALFCYCLE && current_quadrant_to_be_loaded == FIRST_QUADRANT) || (current_halfcycle_to_be_loaded == SECOND_HALFCYCLE && current_quadrant_to_be_loaded == SECOND_QUADRANT)){
 8002484:	7823      	ldrb	r3, [r4, #0]
 8002486:	2b01      	cmp	r3, #1
 8002488:	d000      	beq.n	800248c <Input_Capture_Processing+0x444>
 800248a:	e70d      	b.n	80022a8 <Input_Capture_Processing+0x260>
					symmetry_type_for_halfcycle = LENGTHEN;
 800248c:	2001      	movs	r0, #1
 800248e:	e666      	b.n	800215e <Input_Capture_Processing+0x116>
					if(symmetry_type_for_halfcycle == SHORTEN){
 8002490:	2800      	cmp	r0, #0
 8002492:	d0ed      	beq.n	8002470 <Input_Capture_Processing+0x428>
						TIM16_prescaler_adjust = MULTIPLY_BY_TWO;
 8002494:	4a29      	ldr	r2, [pc, #164]	@ (800253c <Input_Capture_Processing+0x4f4>)
 8002496:	7011      	strb	r1, [r2, #0]
		if(symmetry_type_for_halfcycle == SHORTEN){
 8002498:	4a23      	ldr	r2, [pc, #140]	@ (8002528 <Input_Capture_Processing+0x4e0>)
 800249a:	e6c8      	b.n	800222e <Input_Capture_Processing+0x1e6>
	else if((current_waveshape_to_be_loaded == SQUARE_MODE) && (current_index_to_be_loaded >= THIRD_QUADRANT_START_INDEX)){
 800249c:	881b      	ldrh	r3, [r3, #0]
 800249e:	2bff      	cmp	r3, #255	@ 0xff
 80024a0:	d800      	bhi.n	80024a4 <Input_Capture_Processing+0x45c>
 80024a2:	e68e      	b.n	80021c2 <Input_Capture_Processing+0x17a>
		duty_to_be_loaded = 0;
 80024a4:	2000      	movs	r0, #0
 80024a6:	4b26      	ldr	r3, [pc, #152]	@ (8002540 <Input_Capture_Processing+0x4f8>)
 80024a8:	8018      	strh	r0, [r3, #0]
 80024aa:	e640      	b.n	800212e <Input_Capture_Processing+0xe6>
						TIM16_prescaler_adjust_to_be_loaded = MULTIPLY_BY_TWO;
 80024ac:	2101      	movs	r1, #1
 80024ae:	7011      	strb	r1, [r2, #0]
		if(symmetry_type_for_halfcycle == SHORTEN){
 80024b0:	e6bd      	b.n	800222e <Input_Capture_Processing+0x1e6>
						TIM16_prescaler_adjust = MULTIPLY_BY_TWO;
 80024b2:	4a22      	ldr	r2, [pc, #136]	@ (800253c <Input_Capture_Processing+0x4f4>)
 80024b4:	7011      	strb	r1, [r2, #0]
		if(symmetry_type_for_halfcycle == SHORTEN){
 80024b6:	4a1c      	ldr	r2, [pc, #112]	@ (8002528 <Input_Capture_Processing+0x4e0>)
 80024b8:	e777      	b.n	80023aa <Input_Capture_Processing+0x362>
			else if((current_halfcycle == FIRST_HALFCYCLE && current_quadrant == SECOND_QUADRANT) || (current_halfcycle == SECOND_HALFCYCLE && current_quadrant == FIRST_QUADRANT)){
 80024ba:	781b      	ldrb	r3, [r3, #0]
 80024bc:	2b01      	cmp	r3, #1
 80024be:	d000      	beq.n	80024c2 <Input_Capture_Processing+0x47a>
 80024c0:	e64d      	b.n	800215e <Input_Capture_Processing+0x116>
 80024c2:	4a1d      	ldr	r2, [pc, #116]	@ (8002538 <Input_Capture_Processing+0x4f0>)
 80024c4:	e6db      	b.n	800227e <Input_Capture_Processing+0x236>
			if((current_halfcycle_to_be_loaded == FIRST_HALFCYCLE && current_quadrant_to_be_loaded == FIRST_QUADRANT) || (current_halfcycle_to_be_loaded == SECOND_HALFCYCLE && current_quadrant_to_be_loaded == SECOND_QUADRANT)){
 80024c6:	7823      	ldrb	r3, [r4, #0]
 80024c8:	2b01      	cmp	r3, #1
 80024ca:	d100      	bne.n	80024ce <Input_Capture_Processing+0x486>
 80024cc:	e6fc      	b.n	80022c8 <Input_Capture_Processing+0x280>
			else if((current_halfcycle == FIRST_HALFCYCLE && current_quadrant == SECOND_QUADRANT) || (current_halfcycle == SECOND_HALFCYCLE && current_quadrant == FIRST_QUADRANT)){
 80024ce:	4b19      	ldr	r3, [pc, #100]	@ (8002534 <Input_Capture_Processing+0x4ec>)
 80024d0:	781a      	ldrb	r2, [r3, #0]
 80024d2:	2a00      	cmp	r2, #0
 80024d4:	d19f      	bne.n	8002416 <Input_Capture_Processing+0x3ce>
 80024d6:	4a18      	ldr	r2, [pc, #96]	@ (8002538 <Input_Capture_Processing+0x4f0>)
 80024d8:	7814      	ldrb	r4, [r2, #0]
 80024da:	2c01      	cmp	r4, #1
 80024dc:	d000      	beq.n	80024e0 <Input_Capture_Processing+0x498>
 80024de:	e6ed      	b.n	80022bc <Input_Capture_Processing+0x274>
 80024e0:	e684      	b.n	80021ec <Input_Capture_Processing+0x1a4>
			if((current_halfcycle_to_be_loaded == FIRST_HALFCYCLE && current_quadrant_to_be_loaded == FIRST_QUADRANT) || (current_halfcycle_to_be_loaded == SECOND_HALFCYCLE && current_quadrant_to_be_loaded == SECOND_QUADRANT)){
 80024e2:	7823      	ldrb	r3, [r4, #0]
 80024e4:	b2d8      	uxtb	r0, r3
 80024e6:	2b01      	cmp	r3, #1
 80024e8:	d000      	beq.n	80024ec <Input_Capture_Processing+0x4a4>
 80024ea:	e6bd      	b.n	8002268 <Input_Capture_Processing+0x220>
 80024ec:	e637      	b.n	800215e <Input_Capture_Processing+0x116>
					manipulated_period_lengthen = manipulated_period_lengthen >> 1; //DONE
 80024ee:	2380      	movs	r3, #128	@ 0x80
						TIM16_prescaler_adjust_to_be_loaded = DO_NOTHING;
 80024f0:	4a0d      	ldr	r2, [pc, #52]	@ (8002528 <Input_Capture_Processing+0x4e0>)
					if(symmetry_type_for_halfcycle == SHORTEN){
 80024f2:	2800      	cmp	r0, #0
 80024f4:	d100      	bne.n	80024f8 <Input_Capture_Processing+0x4b0>
 80024f6:	e721      	b.n	800233c <Input_Capture_Processing+0x2f4>
						TIM16_prescaler_adjust_to_be_loaded = MULTIPLY_BY_TWO;
 80024f8:	2101      	movs	r1, #1
 80024fa:	7011      	strb	r1, [r2, #0]
		if(symmetry_type_for_halfcycle == SHORTEN){
 80024fc:	e697      	b.n	800222e <Input_Capture_Processing+0x1e6>
				manipulated_period_shorten = manipulated_period_shorten - 1; //DONE
 80024fe:	3c01      	subs	r4, #1
 8002500:	b2a4      	uxth	r4, r4
 8002502:	e6f2      	b.n	80022ea <Input_Capture_Processing+0x2a2>
			else if(unsigned_bitwise_modulo(two_fifty_six_minus_TIM16_raw_start_value_multiplied_by_PRC, 8) > 128){
 8002504:	2980      	cmp	r1, #128	@ 0x80
 8002506:	d9a6      	bls.n	8002456 <Input_Capture_Processing+0x40e>
				if(unsigned_bitwise_modulo(manipulated_period_lengthen, 1) == 0){
 8002508:	2101      	movs	r1, #1
				manipulated_period_lengthen = manipulated_period_lengthen + 1; //DONE
 800250a:	1c5a      	adds	r2, r3, #1
				manipulated_period_shorten = manipulated_period_shorten - 1; //DONE
 800250c:	3c01      	subs	r4, #1
				manipulated_period_lengthen = manipulated_period_lengthen + 1; //DONE
 800250e:	b292      	uxth	r2, r2
				manipulated_period_shorten = manipulated_period_shorten - 1; //DONE
 8002510:	b2a4      	uxth	r4, r4
					manipulated_period_lengthen = manipulated_period_lengthen >> 1; //DONE
 8002512:	0853      	lsrs	r3, r2, #1
				if(unsigned_bitwise_modulo(manipulated_period_lengthen, 1) == 0){
 8002514:	420a      	tst	r2, r1
 8002516:	d000      	beq.n	800251a <Input_Capture_Processing+0x4d2>
 8002518:	e75f      	b.n	80023da <Input_Capture_Processing+0x392>
						TIM16_prescaler_adjust_to_be_loaded = DO_NOTHING;
 800251a:	4a03      	ldr	r2, [pc, #12]	@ (8002528 <Input_Capture_Processing+0x4e0>)
					if(symmetry_type_for_halfcycle == SHORTEN){
 800251c:	2800      	cmp	r0, #0
 800251e:	d100      	bne.n	8002522 <Input_Capture_Processing+0x4da>
 8002520:	e70c      	b.n	800233c <Input_Capture_Processing+0x2f4>
						TIM16_prescaler_adjust_to_be_loaded = MULTIPLY_BY_TWO;
 8002522:	7011      	strb	r1, [r2, #0]
		if(symmetry_type_for_halfcycle == SHORTEN){
 8002524:	e683      	b.n	800222e <Input_Capture_Processing+0x1e6>
 8002526:	46c0      	nop			@ (mov r8, r8)
 8002528:	20000aca 	.word	0x20000aca
 800252c:	20000af2 	.word	0x20000af2
 8002530:	20000ac6 	.word	0x20000ac6
 8002534:	20000af1 	.word	0x20000af1
 8002538:	20000af0 	.word	0x20000af0
 800253c:	20000aec 	.word	0x20000aec
 8002540:	20000ac2 	.word	0x20000ac2

08002544 <SystemInit>:
{
  /* Configure the Vector Table location -------------------------------------*/
#if defined(USER_VECT_TAB_ADDRESS)
  SCB->VTOR = VECT_TAB_BASE_ADDRESS | VECT_TAB_OFFSET; /* Vector Table Relocation */
#endif /* USER_VECT_TAB_ADDRESS */
}
 8002544:	4770      	bx	lr
 8002546:	46c0      	nop			@ (mov r8, r8)

08002548 <Reset_Handler>:

  .section .text.Reset_Handler
  .weak Reset_Handler
  .type Reset_Handler, %function
Reset_Handler:
  ldr   r0, =_estack
 8002548:	480d      	ldr	r0, [pc, #52]	@ (8002580 <LoopForever+0x2>)
  mov   sp, r0          /* set stack pointer */
 800254a:	4685      	mov	sp, r0

/* Call the clock system initialization function.*/
  bl  SystemInit
 800254c:	f7ff fffa 	bl	8002544 <SystemInit>

/* Copy the data segment initializers from flash to SRAM */
  ldr r0, =_sdata
 8002550:	480c      	ldr	r0, [pc, #48]	@ (8002584 <LoopForever+0x6>)
  ldr r1, =_edata
 8002552:	490d      	ldr	r1, [pc, #52]	@ (8002588 <LoopForever+0xa>)
  ldr r2, =_sidata
 8002554:	4a0d      	ldr	r2, [pc, #52]	@ (800258c <LoopForever+0xe>)
  movs r3, #0
 8002556:	2300      	movs	r3, #0
  b LoopCopyDataInit
 8002558:	e002      	b.n	8002560 <LoopCopyDataInit>

0800255a <CopyDataInit>:

CopyDataInit:
  ldr r4, [r2, r3]
 800255a:	58d4      	ldr	r4, [r2, r3]
  str r4, [r0, r3]
 800255c:	50c4      	str	r4, [r0, r3]
  adds r3, r3, #4
 800255e:	3304      	adds	r3, #4

08002560 <LoopCopyDataInit>:

LoopCopyDataInit:
  adds r4, r0, r3
 8002560:	18c4      	adds	r4, r0, r3
  cmp r4, r1
 8002562:	428c      	cmp	r4, r1
  bcc CopyDataInit
 8002564:	d3f9      	bcc.n	800255a <CopyDataInit>

/* Zero fill the bss segment. */
  ldr r2, =_sbss
 8002566:	4a0a      	ldr	r2, [pc, #40]	@ (8002590 <LoopForever+0x12>)
  ldr r4, =_ebss
 8002568:	4c0a      	ldr	r4, [pc, #40]	@ (8002594 <LoopForever+0x16>)
  movs r3, #0
 800256a:	2300      	movs	r3, #0
  b LoopFillZerobss
 800256c:	e001      	b.n	8002572 <LoopFillZerobss>

0800256e <FillZerobss>:

FillZerobss:
  str  r3, [r2]
 800256e:	6013      	str	r3, [r2, #0]
  adds r2, r2, #4
 8002570:	3204      	adds	r2, #4

08002572 <LoopFillZerobss>:

LoopFillZerobss:
  cmp r2, r4
 8002572:	42a2      	cmp	r2, r4
  bcc FillZerobss
 8002574:	d3fb      	bcc.n	800256e <FillZerobss>

/* Call static constructors */
  bl __libc_init_array
 8002576:	f004 fba5 	bl	8006cc4 <__libc_init_array>
/* Call the application s entry point.*/
  bl main
 800257a:	f7fe ff9d 	bl	80014b8 <main>

0800257e <LoopForever>:

LoopForever:
  b LoopForever
 800257e:	e7fe      	b.n	800257e <LoopForever>
  ldr   r0, =_estack
 8002580:	20002000 	.word	0x20002000
  ldr r0, =_sdata
 8002584:	20000000 	.word	0x20000000
  ldr r1, =_edata
 8002588:	20000014 	.word	0x20000014
  ldr r2, =_sidata
 800258c:	08007884 	.word	0x08007884
  ldr r2, =_sbss
 8002590:	20000018 	.word	0x20000018
  ldr r4, =_ebss
 8002594:	20000b00 	.word	0x20000b00

08002598 <ADC1_IRQHandler>:
 * @retval None
*/
  .section .text.Default_Handler,"ax",%progbits
Default_Handler:
Infinite_Loop:
  b Infinite_Loop
 8002598:	e7fe      	b.n	8002598 <ADC1_IRQHandler>
	...

0800259c <HAL_InitTick>:
  *       implementation  in user file.
  * @param TickPriority Tick interrupt priority.
  * @retval HAL status
  */
__weak HAL_StatusTypeDef HAL_InitTick(uint32_t TickPriority)
{
 800259c:	b570      	push	{r4, r5, r6, lr}
  HAL_StatusTypeDef  status = HAL_OK;

  /* Check uwTickFreq for MisraC 2012 (even if uwTickFreq is a enum type that doesn't take the value zero)*/ 
  if ((uint32_t)uwTickFreq != 0U)
 800259e:	4b0f      	ldr	r3, [pc, #60]	@ (80025dc <HAL_InitTick+0x40>)
{
 80025a0:	0004      	movs	r4, r0
  if ((uint32_t)uwTickFreq != 0U)
 80025a2:	7819      	ldrb	r1, [r3, #0]
 80025a4:	2900      	cmp	r1, #0
 80025a6:	d101      	bne.n	80025ac <HAL_InitTick+0x10>
        status = HAL_ERROR;
      }
    }
    else
    {
      status = HAL_ERROR;
 80025a8:	2001      	movs	r0, #1
    status = HAL_ERROR;
  }

  /* Return function status */
  return status;
}
 80025aa:	bd70      	pop	{r4, r5, r6, pc}
    if (HAL_SYSTICK_Config(SystemCoreClock / (1000U /(uint32_t)uwTickFreq)) == 0U)
 80025ac:	20fa      	movs	r0, #250	@ 0xfa
 80025ae:	0080      	lsls	r0, r0, #2
 80025b0:	f7fd fda8 	bl	8000104 <__udivsi3>
 80025b4:	4d0a      	ldr	r5, [pc, #40]	@ (80025e0 <HAL_InitTick+0x44>)
 80025b6:	0001      	movs	r1, r0
 80025b8:	6828      	ldr	r0, [r5, #0]
 80025ba:	f7fd fda3 	bl	8000104 <__udivsi3>
 80025be:	f000 fdef 	bl	80031a0 <HAL_SYSTICK_Config>
 80025c2:	2800      	cmp	r0, #0
 80025c4:	d1f0      	bne.n	80025a8 <HAL_InitTick+0xc>
      if (TickPriority < (1UL << __NVIC_PRIO_BITS))
 80025c6:	2c03      	cmp	r4, #3
 80025c8:	d8ee      	bhi.n	80025a8 <HAL_InitTick+0xc>
        HAL_NVIC_SetPriority(SysTick_IRQn, TickPriority, 0U);
 80025ca:	3801      	subs	r0, #1
 80025cc:	2200      	movs	r2, #0
 80025ce:	0021      	movs	r1, r4
 80025d0:	f000 fda0 	bl	8003114 <HAL_NVIC_SetPriority>
        uwTickPrio = TickPriority;
 80025d4:	4b03      	ldr	r3, [pc, #12]	@ (80025e4 <HAL_InitTick+0x48>)
 80025d6:	2000      	movs	r0, #0
 80025d8:	601c      	str	r4, [r3, #0]
  return status;
 80025da:	e7e6      	b.n	80025aa <HAL_InitTick+0xe>
 80025dc:	2000000c 	.word	0x2000000c
 80025e0:	20000008 	.word	0x20000008
 80025e4:	20000010 	.word	0x20000010

080025e8 <HAL_Init>:
  __HAL_FLASH_PREFETCH_BUFFER_ENABLE();
 80025e8:	2380      	movs	r3, #128	@ 0x80
 80025ea:	4a08      	ldr	r2, [pc, #32]	@ (800260c <HAL_Init+0x24>)
 80025ec:	005b      	lsls	r3, r3, #1
 80025ee:	6811      	ldr	r1, [r2, #0]
{
 80025f0:	b510      	push	{r4, lr}
  __HAL_FLASH_PREFETCH_BUFFER_ENABLE();
 80025f2:	430b      	orrs	r3, r1
  if (HAL_InitTick(TICK_INT_PRIORITY) != HAL_OK)
 80025f4:	2000      	movs	r0, #0
  __HAL_FLASH_PREFETCH_BUFFER_ENABLE();
 80025f6:	6013      	str	r3, [r2, #0]
  if (HAL_InitTick(TICK_INT_PRIORITY) != HAL_OK)
 80025f8:	f7ff ffd0 	bl	800259c <HAL_InitTick>
 80025fc:	1e04      	subs	r4, r0, #0
 80025fe:	d002      	beq.n	8002606 <HAL_Init+0x1e>
    status = HAL_ERROR;
 8002600:	2401      	movs	r4, #1
}
 8002602:	0020      	movs	r0, r4
 8002604:	bd10      	pop	{r4, pc}
  HAL_MspInit();
 8002606:	f7fe ff79 	bl	80014fc <HAL_MspInit>
 800260a:	e7fa      	b.n	8002602 <HAL_Init+0x1a>
 800260c:	40022000 	.word	0x40022000

08002610 <HAL_IncTick>:
  *      implementations in user file.
  * @retval None
  */
__weak void HAL_IncTick(void)
{
  uwTick += (uint32_t)uwTickFreq;
 8002610:	4a03      	ldr	r2, [pc, #12]	@ (8002620 <HAL_IncTick+0x10>)
 8002612:	4b04      	ldr	r3, [pc, #16]	@ (8002624 <HAL_IncTick+0x14>)
 8002614:	6811      	ldr	r1, [r2, #0]
 8002616:	781b      	ldrb	r3, [r3, #0]
 8002618:	185b      	adds	r3, r3, r1
 800261a:	6013      	str	r3, [r2, #0]
}
 800261c:	4770      	bx	lr
 800261e:	46c0      	nop			@ (mov r8, r8)
 8002620:	20000afc 	.word	0x20000afc
 8002624:	2000000c 	.word	0x2000000c

08002628 <HAL_GetTick>:
  *       implementations in user file.
  * @retval tick value
  */
__weak uint32_t HAL_GetTick(void)
{
  return uwTick;
 8002628:	4b01      	ldr	r3, [pc, #4]	@ (8002630 <HAL_GetTick+0x8>)
 800262a:	6818      	ldr	r0, [r3, #0]
}
 800262c:	4770      	bx	lr
 800262e:	46c0      	nop			@ (mov r8, r8)
 8002630:	20000afc 	.word	0x20000afc

08002634 <ADC_DMAConvCplt>:
{
  /* Retrieve ADC handle corresponding to current DMA handle */
  ADC_HandleTypeDef *hadc = (ADC_HandleTypeDef *)((DMA_HandleTypeDef *)hdma)->Parent;

  /* Update state machine on conversion status if not in error state */
  if ((hadc->State & (HAL_ADC_STATE_ERROR_INTERNAL | HAL_ADC_STATE_ERROR_DMA)) == 0UL)
 8002634:	2150      	movs	r1, #80	@ 0x50
{
 8002636:	0003      	movs	r3, r0
  ADC_HandleTypeDef *hadc = (ADC_HandleTypeDef *)((DMA_HandleTypeDef *)hdma)->Parent;
 8002638:	6a80      	ldr	r0, [r0, #40]	@ 0x28
{
 800263a:	b510      	push	{r4, lr}
  if ((hadc->State & (HAL_ADC_STATE_ERROR_INTERNAL | HAL_ADC_STATE_ERROR_DMA)) == 0UL)
 800263c:	6d82      	ldr	r2, [r0, #88]	@ 0x58
 800263e:	4211      	tst	r1, r2
 8002640:	d10d      	bne.n	800265e <ADC_DMAConvCplt+0x2a>
  {
    /* Set ADC state */
    SET_BIT(hadc->State, HAL_ADC_STATE_REG_EOC);
 8002642:	2380      	movs	r3, #128	@ 0x80
 8002644:	6d82      	ldr	r2, [r0, #88]	@ 0x58
 8002646:	009b      	lsls	r3, r3, #2
 8002648:	4313      	orrs	r3, r2
  * @retval Value "0" if trigger source external trigger
  *         Value "1" if trigger source SW start.
  */
__STATIC_INLINE uint32_t LL_ADC_REG_IsTriggerSourceSWStart(const ADC_TypeDef *ADCx)
{
  return ((READ_BIT(ADCx->CFGR1, ADC_CFGR1_EXTEN) == (LL_ADC_REG_TRIG_SOFTWARE & ADC_CFGR1_EXTEN)) ? 1UL : 0UL);
 800264a:	22c0      	movs	r2, #192	@ 0xc0
 800264c:	6583      	str	r3, [r0, #88]	@ 0x58

    /* Determine whether any further conversion upcoming on group regular     */
    /* by external trigger, continuous mode or scan sequence on going         */
    /* to disable interruption.                                               */
    if ((LL_ADC_REG_IsTriggerSourceSWStart(hadc->Instance) != 0UL)
 800264e:	6803      	ldr	r3, [r0, #0]
 8002650:	0112      	lsls	r2, r2, #4
 8002652:	68d9      	ldr	r1, [r3, #12]
 8002654:	4211      	tst	r1, r2
 8002656:	d00d      	beq.n	8002674 <ADC_DMAConvCplt+0x40>
      }
    }

    /* Conversion complete callback */
#if (USE_HAL_ADC_REGISTER_CALLBACKS == 1)
    hadc->ConvCpltCallback(hadc);
 8002658:	6e43      	ldr	r3, [r0, #100]	@ 0x64
 800265a:	4798      	blx	r3
    {
      /* Call ADC DMA error callback */
      hadc->DMA_Handle->XferErrorCallback(hdma);
    }
  }
}
 800265c:	bd10      	pop	{r4, pc}
    if ((hadc->State & HAL_ADC_STATE_ERROR_INTERNAL) != 0UL)
 800265e:	6d82      	ldr	r2, [r0, #88]	@ 0x58
 8002660:	06d2      	lsls	r2, r2, #27
 8002662:	d502      	bpl.n	800266a <ADC_DMAConvCplt+0x36>
      hadc->ErrorCallback(hadc);
 8002664:	6f03      	ldr	r3, [r0, #112]	@ 0x70
 8002666:	4798      	blx	r3
 8002668:	e7f8      	b.n	800265c <ADC_DMAConvCplt+0x28>
      hadc->DMA_Handle->XferErrorCallback(hdma);
 800266a:	6d02      	ldr	r2, [r0, #80]	@ 0x50
 800266c:	0018      	movs	r0, r3
 800266e:	6b52      	ldr	r2, [r2, #52]	@ 0x34
 8002670:	4790      	blx	r2
}
 8002672:	e7f3      	b.n	800265c <ADC_DMAConvCplt+0x28>
        && (hadc->Init.ContinuousConvMode == DISABLE)
 8002674:	7e82      	ldrb	r2, [r0, #26]
 8002676:	2a00      	cmp	r2, #0
 8002678:	d1ee      	bne.n	8002658 <ADC_DMAConvCplt+0x24>
      if (__HAL_ADC_GET_FLAG(hadc, ADC_FLAG_EOS))
 800267a:	681a      	ldr	r2, [r3, #0]
 800267c:	0712      	lsls	r2, r2, #28
 800267e:	d5eb      	bpl.n	8002658 <ADC_DMAConvCplt+0x24>
  * @param  ADCx ADC instance
  * @retval 0: no conversion is on going on ADC group regular.
  */
__STATIC_INLINE uint32_t LL_ADC_REG_IsConversionOngoing(const ADC_TypeDef *ADCx)
{
  return ((READ_BIT(ADCx->CR, ADC_CR_ADSTART) == (ADC_CR_ADSTART)) ? 1UL : 0UL);
 8002680:	689a      	ldr	r2, [r3, #8]
 8002682:	0752      	lsls	r2, r2, #29
 8002684:	d508      	bpl.n	8002698 <ADC_DMAConvCplt+0x64>
          SET_BIT(hadc->State, HAL_ADC_STATE_ERROR_CONFIG);
 8002686:	2220      	movs	r2, #32
 8002688:	6d83      	ldr	r3, [r0, #88]	@ 0x58
 800268a:	4313      	orrs	r3, r2
 800268c:	6583      	str	r3, [r0, #88]	@ 0x58
          SET_BIT(hadc->ErrorCode, HAL_ADC_ERROR_INTERNAL);
 800268e:	6dc3      	ldr	r3, [r0, #92]	@ 0x5c
 8002690:	3a1f      	subs	r2, #31
 8002692:	4313      	orrs	r3, r2
 8002694:	65c3      	str	r3, [r0, #92]	@ 0x5c
 8002696:	e7df      	b.n	8002658 <ADC_DMAConvCplt+0x24>
          __HAL_ADC_DISABLE_IT(hadc, ADC_IT_EOC | ADC_IT_EOS);
 8002698:	210c      	movs	r1, #12
 800269a:	685a      	ldr	r2, [r3, #4]
 800269c:	438a      	bics	r2, r1
 800269e:	605a      	str	r2, [r3, #4]
          ADC_STATE_CLR_SET(hadc->State,
 80026a0:	6d83      	ldr	r3, [r0, #88]	@ 0x58
 80026a2:	4a03      	ldr	r2, [pc, #12]	@ (80026b0 <ADC_DMAConvCplt+0x7c>)
 80026a4:	4013      	ands	r3, r2
 80026a6:	3204      	adds	r2, #4
 80026a8:	32ff      	adds	r2, #255	@ 0xff
 80026aa:	4313      	orrs	r3, r2
 80026ac:	6583      	str	r3, [r0, #88]	@ 0x58
 80026ae:	e7d3      	b.n	8002658 <ADC_DMAConvCplt+0x24>
 80026b0:	fffffefe 	.word	0xfffffefe

080026b4 <ADC_DMAHalfConvCplt>:
  * @brief  DMA half transfer complete callback.
  * @param hdma pointer to DMA handle.
  * @retval None
  */
static void ADC_DMAHalfConvCplt(DMA_HandleTypeDef *hdma)
{
 80026b4:	b510      	push	{r4, lr}
  /* Retrieve ADC handle corresponding to current DMA handle */
  ADC_HandleTypeDef *hadc = (ADC_HandleTypeDef *)((DMA_HandleTypeDef *)hdma)->Parent;
 80026b6:	6a80      	ldr	r0, [r0, #40]	@ 0x28

  /* Half conversion callback */
#if (USE_HAL_ADC_REGISTER_CALLBACKS == 1)
  hadc->ConvHalfCpltCallback(hadc);
 80026b8:	6e83      	ldr	r3, [r0, #104]	@ 0x68
 80026ba:	4798      	blx	r3
#else
  HAL_ADC_ConvHalfCpltCallback(hadc);
#endif /* USE_HAL_ADC_REGISTER_CALLBACKS */
}
 80026bc:	bd10      	pop	{r4, pc}
 80026be:	46c0      	nop			@ (mov r8, r8)

080026c0 <ADC_DMAError>:
{
  /* Retrieve ADC handle corresponding to current DMA handle */
  ADC_HandleTypeDef *hadc = (ADC_HandleTypeDef *)((DMA_HandleTypeDef *)hdma)->Parent;

  /* Set ADC state */
  SET_BIT(hadc->State, HAL_ADC_STATE_ERROR_DMA);
 80026c0:	2240      	movs	r2, #64	@ 0x40
  ADC_HandleTypeDef *hadc = (ADC_HandleTypeDef *)((DMA_HandleTypeDef *)hdma)->Parent;
 80026c2:	6a80      	ldr	r0, [r0, #40]	@ 0x28
{
 80026c4:	b510      	push	{r4, lr}
  SET_BIT(hadc->State, HAL_ADC_STATE_ERROR_DMA);
 80026c6:	6d83      	ldr	r3, [r0, #88]	@ 0x58
 80026c8:	4313      	orrs	r3, r2
 80026ca:	6583      	str	r3, [r0, #88]	@ 0x58

  /* Set ADC error code to DMA error */
  SET_BIT(hadc->ErrorCode, HAL_ADC_ERROR_DMA);
 80026cc:	6dc3      	ldr	r3, [r0, #92]	@ 0x5c
 80026ce:	3a3c      	subs	r2, #60	@ 0x3c
 80026d0:	4313      	orrs	r3, r2
 80026d2:	65c3      	str	r3, [r0, #92]	@ 0x5c

  /* Error callback */
#if (USE_HAL_ADC_REGISTER_CALLBACKS == 1)
  hadc->ErrorCallback(hadc);
 80026d4:	6f03      	ldr	r3, [r0, #112]	@ 0x70
 80026d6:	4798      	blx	r3
#else
  HAL_ADC_ErrorCallback(hadc);
#endif /* USE_HAL_ADC_REGISTER_CALLBACKS */
}
 80026d8:	bd10      	pop	{r4, pc}
 80026da:	46c0      	nop			@ (mov r8, r8)

080026dc <HAL_ADC_ErrorCallback>:
__weak void HAL_ADC_ErrorCallback(ADC_HandleTypeDef *hadc)
 80026dc:	4770      	bx	lr
 80026de:	46c0      	nop			@ (mov r8, r8)

080026e0 <HAL_ADC_ConvCpltCallback>:
__weak void HAL_ADC_ConvCpltCallback(ADC_HandleTypeDef *hadc)
 80026e0:	4770      	bx	lr
 80026e2:	46c0      	nop			@ (mov r8, r8)

080026e4 <HAL_ADC_ConvHalfCpltCallback>:
__weak void HAL_ADC_ConvHalfCpltCallback(ADC_HandleTypeDef *hadc)
 80026e4:	4770      	bx	lr
 80026e6:	46c0      	nop			@ (mov r8, r8)

080026e8 <HAL_ADC_LevelOutOfWindowCallback>:
__weak void HAL_ADC_LevelOutOfWindowCallback(ADC_HandleTypeDef *hadc)
 80026e8:	4770      	bx	lr
 80026ea:	46c0      	nop			@ (mov r8, r8)

080026ec <HAL_ADC_Init>:
{
 80026ec:	b5f0      	push	{r4, r5, r6, r7, lr}
 80026ee:	46d6      	mov	lr, sl
 80026f0:	464f      	mov	r7, r9
 80026f2:	4646      	mov	r6, r8
  __IO uint32_t wait_loop_index = 0UL;
 80026f4:	2300      	movs	r3, #0
{
 80026f6:	b5c0      	push	{r6, r7, lr}
 80026f8:	b082      	sub	sp, #8
 80026fa:	1e04      	subs	r4, r0, #0
  __IO uint32_t wait_loop_index = 0UL;
 80026fc:	9301      	str	r3, [sp, #4]
  if (hadc == NULL)
 80026fe:	d044      	beq.n	800278a <HAL_ADC_Init+0x9e>
  if (hadc->State == HAL_ADC_STATE_RESET)
 8002700:	6d83      	ldr	r3, [r0, #88]	@ 0x58
 8002702:	2b00      	cmp	r3, #0
 8002704:	d118      	bne.n	8002738 <HAL_ADC_Init+0x4c>
    if (hadc->MspInitCallback == NULL)
 8002706:	2280      	movs	r2, #128	@ 0x80
    hadc->ConvCpltCallback              = HAL_ADC_ConvCpltCallback;                 /* Legacy weak callback */
 8002708:	4b89      	ldr	r3, [pc, #548]	@ (8002930 <HAL_ADC_Init+0x244>)
 800270a:	6643      	str	r3, [r0, #100]	@ 0x64
    hadc->ConvHalfCpltCallback          = HAL_ADC_ConvHalfCpltCallback;             /* Legacy weak callback */
 800270c:	4b89      	ldr	r3, [pc, #548]	@ (8002934 <HAL_ADC_Init+0x248>)
 800270e:	6683      	str	r3, [r0, #104]	@ 0x68
    hadc->LevelOutOfWindowCallback      = HAL_ADC_LevelOutOfWindowCallback;         /* Legacy weak callback */
 8002710:	4b89      	ldr	r3, [pc, #548]	@ (8002938 <HAL_ADC_Init+0x24c>)
 8002712:	66c3      	str	r3, [r0, #108]	@ 0x6c
    hadc->ErrorCallback                 = HAL_ADC_ErrorCallback;                    /* Legacy weak callback */
 8002714:	4b89      	ldr	r3, [pc, #548]	@ (800293c <HAL_ADC_Init+0x250>)
 8002716:	6703      	str	r3, [r0, #112]	@ 0x70
    hadc->LevelOutOfWindow2Callback     = HAL_ADCEx_LevelOutOfWindow2Callback;      /* Legacy weak callback */
 8002718:	4b89      	ldr	r3, [pc, #548]	@ (8002940 <HAL_ADC_Init+0x254>)
 800271a:	6743      	str	r3, [r0, #116]	@ 0x74
    hadc->LevelOutOfWindow3Callback     = HAL_ADCEx_LevelOutOfWindow3Callback;      /* Legacy weak callback */
 800271c:	4b89      	ldr	r3, [pc, #548]	@ (8002944 <HAL_ADC_Init+0x258>)
 800271e:	6783      	str	r3, [r0, #120]	@ 0x78
    hadc->EndOfSamplingCallback         = HAL_ADCEx_EndOfSamplingCallback;          /* Legacy weak callback */
 8002720:	4b89      	ldr	r3, [pc, #548]	@ (8002948 <HAL_ADC_Init+0x25c>)
 8002722:	67c3      	str	r3, [r0, #124]	@ 0x7c
    if (hadc->MspInitCallback == NULL)
 8002724:	5883      	ldr	r3, [r0, r2]
 8002726:	2b00      	cmp	r3, #0
 8002728:	d100      	bne.n	800272c <HAL_ADC_Init+0x40>
 800272a:	e0e3      	b.n	80028f4 <HAL_ADC_Init+0x208>
    hadc->MspInitCallback(hadc);
 800272c:	0020      	movs	r0, r4
 800272e:	4798      	blx	r3
    ADC_CLEAR_ERRORCODE(hadc);
 8002730:	2300      	movs	r3, #0
    hadc->Lock = HAL_UNLOCKED;
 8002732:	2254      	movs	r2, #84	@ 0x54
    ADC_CLEAR_ERRORCODE(hadc);
 8002734:	65e3      	str	r3, [r4, #92]	@ 0x5c
    hadc->Lock = HAL_UNLOCKED;
 8002736:	54a3      	strb	r3, [r4, r2]
  return ((READ_BIT(ADCx->CR, ADC_CR_ADVREGEN) == (ADC_CR_ADVREGEN)) ? 1UL : 0UL);
 8002738:	2380      	movs	r3, #128	@ 0x80
  if (LL_ADC_IsInternalRegulatorEnabled(hadc->Instance) == 0UL)
 800273a:	6825      	ldr	r5, [r4, #0]
 800273c:	055b      	lsls	r3, r3, #21
 800273e:	68aa      	ldr	r2, [r5, #8]
 8002740:	421a      	tst	r2, r3
 8002742:	d115      	bne.n	8002770 <HAL_ADC_Init+0x84>
  MODIFY_REG(ADCx->CR,
 8002744:	68aa      	ldr	r2, [r5, #8]
 8002746:	4981      	ldr	r1, [pc, #516]	@ (800294c <HAL_ADC_Init+0x260>)
 8002748:	400a      	ands	r2, r1
 800274a:	4313      	orrs	r3, r2
 800274c:	60ab      	str	r3, [r5, #8]
    wait_loop_index = ((LL_ADC_DELAY_INTERNAL_REGUL_STAB_US / 10UL) * ((SystemCoreClock / (100000UL * 2UL)) + 1UL));
 800274e:	4b80      	ldr	r3, [pc, #512]	@ (8002950 <HAL_ADC_Init+0x264>)
 8002750:	4980      	ldr	r1, [pc, #512]	@ (8002954 <HAL_ADC_Init+0x268>)
 8002752:	6818      	ldr	r0, [r3, #0]
 8002754:	f7fd fcd6 	bl	8000104 <__udivsi3>
 8002758:	3001      	adds	r0, #1
 800275a:	0040      	lsls	r0, r0, #1
 800275c:	9001      	str	r0, [sp, #4]
    while (wait_loop_index != 0UL)
 800275e:	9b01      	ldr	r3, [sp, #4]
 8002760:	2b00      	cmp	r3, #0
 8002762:	d005      	beq.n	8002770 <HAL_ADC_Init+0x84>
      wait_loop_index--;
 8002764:	9b01      	ldr	r3, [sp, #4]
 8002766:	3b01      	subs	r3, #1
 8002768:	9301      	str	r3, [sp, #4]
    while (wait_loop_index != 0UL)
 800276a:	9b01      	ldr	r3, [sp, #4]
 800276c:	2b00      	cmp	r3, #0
 800276e:	d1f9      	bne.n	8002764 <HAL_ADC_Init+0x78>
  return ((READ_BIT(ADCx->CR, ADC_CR_ADVREGEN) == (ADC_CR_ADVREGEN)) ? 1UL : 0UL);
 8002770:	68ab      	ldr	r3, [r5, #8]
  HAL_StatusTypeDef tmp_hal_status = HAL_OK;
 8002772:	2000      	movs	r0, #0
 8002774:	00db      	lsls	r3, r3, #3
 8002776:	d400      	bmi.n	800277a <HAL_ADC_Init+0x8e>
 8002778:	e09d      	b.n	80028b6 <HAL_ADC_Init+0x1ca>
  return ((READ_BIT(ADCx->CR, ADC_CR_ADSTART) == (ADC_CR_ADSTART)) ? 1UL : 0UL);
 800277a:	68ab      	ldr	r3, [r5, #8]
 800277c:	075b      	lsls	r3, r3, #29
 800277e:	d50b      	bpl.n	8002798 <HAL_ADC_Init+0xac>
  if (((hadc->State & HAL_ADC_STATE_ERROR_INTERNAL) == 0UL)
 8002780:	6da3      	ldr	r3, [r4, #88]	@ 0x58
    SET_BIT(hadc->State, HAL_ADC_STATE_ERROR_INTERNAL);
 8002782:	2210      	movs	r2, #16
 8002784:	6da3      	ldr	r3, [r4, #88]	@ 0x58
 8002786:	4313      	orrs	r3, r2
 8002788:	65a3      	str	r3, [r4, #88]	@ 0x58
    return HAL_ERROR;
 800278a:	2001      	movs	r0, #1
}
 800278c:	b002      	add	sp, #8
 800278e:	bce0      	pop	{r5, r6, r7}
 8002790:	46ba      	mov	sl, r7
 8002792:	46b1      	mov	r9, r6
 8002794:	46a8      	mov	r8, r5
 8002796:	bdf0      	pop	{r4, r5, r6, r7, pc}
  if (((hadc->State & HAL_ADC_STATE_ERROR_INTERNAL) == 0UL)
 8002798:	6da3      	ldr	r3, [r4, #88]	@ 0x58
 800279a:	06db      	lsls	r3, r3, #27
 800279c:	d4f1      	bmi.n	8002782 <HAL_ADC_Init+0x96>
    ADC_STATE_CLR_SET(hadc->State,
 800279e:	6da3      	ldr	r3, [r4, #88]	@ 0x58
 80027a0:	4a6d      	ldr	r2, [pc, #436]	@ (8002958 <HAL_ADC_Init+0x26c>)
                    ADC_SCAN_SEQ_MODE(hadc->Init.ScanConvMode)                     |
 80027a2:	6921      	ldr	r1, [r4, #16]
    ADC_STATE_CLR_SET(hadc->State,
 80027a4:	4013      	ands	r3, r2
 80027a6:	3206      	adds	r2, #6
 80027a8:	32ff      	adds	r2, #255	@ 0xff
 80027aa:	4313      	orrs	r3, r2
 80027ac:	65a3      	str	r3, [r4, #88]	@ 0x58
  return ((READ_BIT(ADCx->CR, ADC_CR_ADEN) == (ADC_CR_ADEN)) ? 1UL : 0UL);
 80027ae:	68ab      	ldr	r3, [r5, #8]
 80027b0:	07db      	lsls	r3, r3, #31
 80027b2:	d45c      	bmi.n	800286e <HAL_ADC_Init+0x182>
                    ADC_CFGR1_OVERRUN(hadc->Init.Overrun)                          |
 80027b4:	6b27      	ldr	r7, [r4, #48]	@ 0x30
 80027b6:	68a2      	ldr	r2, [r4, #8]
 80027b8:	1e7b      	subs	r3, r7, #1
 80027ba:	419f      	sbcs	r7, r3
 80027bc:	68e3      	ldr	r3, [r4, #12]
                    ADC_CFGR1_CONTINUOUS((uint32_t)hadc->Init.ContinuousConvMode)  |
 80027be:	7ea6      	ldrb	r6, [r4, #26]
 80027c0:	431a      	orrs	r2, r3
                    ADC_CFGR1_AUTOWAIT((uint32_t)hadc->Init.LowPowerAutoWait)      |
 80027c2:	7e23      	ldrb	r3, [r4, #24]
                    ADC_CFGR1_OVERRUN(hadc->Init.Overrun)                          |
 80027c4:	033f      	lsls	r7, r7, #12
                    ADC_CFGR1_AUTOWAIT((uint32_t)hadc->Init.LowPowerAutoWait)      |
 80027c6:	039b      	lsls	r3, r3, #14
 80027c8:	431a      	orrs	r2, r3
                    ADC_CFGR1_AUTOOFF((uint32_t)hadc->Init.LowPowerAutoPowerOff)   |
 80027ca:	7e63      	ldrb	r3, [r4, #25]
 80027cc:	03db      	lsls	r3, r3, #15
 80027ce:	431a      	orrs	r2, r3
                    ADC_CFGR1_CONTINUOUS((uint32_t)hadc->Init.ContinuousConvMode)  |
 80027d0:	0373      	lsls	r3, r6, #13
 80027d2:	431a      	orrs	r2, r3
                    ADC_SCAN_SEQ_MODE(hadc->Init.ScanConvMode)                     |
 80027d4:	2900      	cmp	r1, #0
 80027d6:	da00      	bge.n	80027da <HAL_ADC_Init+0xee>
 80027d8:	e098      	b.n	800290c <HAL_ADC_Init+0x220>
 80027da:	2380      	movs	r3, #128	@ 0x80
 80027dc:	039b      	lsls	r3, r3, #14
 80027de:	469c      	mov	ip, r3
                    ADC_CFGR1_DMACONTREQ((uint32_t)hadc->Init.DMAContinuousRequests));
 80027e0:	232c      	movs	r3, #44	@ 0x2c
 80027e2:	5ce3      	ldrb	r3, [r4, r3]
 80027e4:	005b      	lsls	r3, r3, #1
                    ADC_SCAN_SEQ_MODE(hadc->Init.ScanConvMode)                     |
 80027e6:	4313      	orrs	r3, r2
 80027e8:	433b      	orrs	r3, r7
 80027ea:	4662      	mov	r2, ip
      if (hadc->Init.DiscontinuousConvMode == ENABLE)
 80027ec:	2720      	movs	r7, #32
                    ADC_SCAN_SEQ_MODE(hadc->Init.ScanConvMode)                     |
 80027ee:	4313      	orrs	r3, r2
      if (hadc->Init.DiscontinuousConvMode == ENABLE)
 80027f0:	5de2      	ldrb	r2, [r4, r7]
 80027f2:	2a01      	cmp	r2, #1
 80027f4:	d100      	bne.n	80027f8 <HAL_ADC_Init+0x10c>
 80027f6:	e08d      	b.n	8002914 <HAL_ADC_Init+0x228>
      if (hadc->Init.ExternalTrigConv != ADC_SOFTWARE_START)
 80027f8:	6a62      	ldr	r2, [r4, #36]	@ 0x24
 80027fa:	2a00      	cmp	r2, #0
 80027fc:	d005      	beq.n	800280a <HAL_ADC_Init+0x11e>
        tmp_cfgr1 |= ((hadc->Init.ExternalTrigConv & ADC_CFGR1_EXTSEL) |
 80027fe:	26e0      	movs	r6, #224	@ 0xe0
 8002800:	0076      	lsls	r6, r6, #1
 8002802:	4032      	ands	r2, r6
 8002804:	6aa6      	ldr	r6, [r4, #40]	@ 0x28
 8002806:	4332      	orrs	r2, r6
 8002808:	4313      	orrs	r3, r2
      if (hadc->Init.OversamplingMode == ENABLE)
 800280a:	273c      	movs	r7, #60	@ 0x3c
      MODIFY_REG(hadc->Instance->CFGR1,
 800280c:	68ea      	ldr	r2, [r5, #12]
 800280e:	4e53      	ldr	r6, [pc, #332]	@ (800295c <HAL_ADC_Init+0x270>)
 8002810:	4032      	ands	r2, r6
 8002812:	4313      	orrs	r3, r2
      tmp_cfgr2 |= ((hadc->Init.ClockPrescaler & ADC_CFGR2_CKMODE) |
 8002814:	6866      	ldr	r6, [r4, #4]
      MODIFY_REG(hadc->Instance->CFGR1,
 8002816:	60eb      	str	r3, [r5, #12]
      tmp_cfgr2 |= ((hadc->Init.ClockPrescaler & ADC_CFGR2_CKMODE) |
 8002818:	6ce2      	ldr	r2, [r4, #76]	@ 0x4c
      if (hadc->Init.OversamplingMode == ENABLE)
 800281a:	5de7      	ldrb	r7, [r4, r7]
      tmp_cfgr2 |= ((hadc->Init.ClockPrescaler & ADC_CFGR2_CKMODE) |
 800281c:	0fb3      	lsrs	r3, r6, #30
 800281e:	079b      	lsls	r3, r3, #30
 8002820:	469a      	mov	sl, r3
      if (hadc->Init.OversamplingMode == ENABLE)
 8002822:	46bc      	mov	ip, r7
      tmp_cfgr2 |= ((hadc->Init.ClockPrescaler & ADC_CFGR2_CKMODE) |
 8002824:	431a      	orrs	r2, r3
      if (hadc->Init.OversamplingMode == ENABLE)
 8002826:	2f01      	cmp	r7, #1
 8002828:	d109      	bne.n	800283e <HAL_ADC_Init+0x152>
        tmp_cfgr2 |= (ADC_CFGR2_OVSE |
 800282a:	6c67      	ldr	r7, [r4, #68]	@ 0x44
 800282c:	6c23      	ldr	r3, [r4, #64]	@ 0x40
 800282e:	433b      	orrs	r3, r7
 8002830:	431a      	orrs	r2, r3
 8002832:	4653      	mov	r3, sl
 8002834:	6ca7      	ldr	r7, [r4, #72]	@ 0x48
 8002836:	433a      	orrs	r2, r7
 8002838:	431a      	orrs	r2, r3
 800283a:	4663      	mov	r3, ip
 800283c:	431a      	orrs	r2, r3
      MODIFY_REG(hadc->Instance->CFGR2,
 800283e:	692b      	ldr	r3, [r5, #16]
 8002840:	4f47      	ldr	r7, [pc, #284]	@ (8002960 <HAL_ADC_Init+0x274>)
 8002842:	403b      	ands	r3, r7
 8002844:	4313      	orrs	r3, r2
      if (((hadc->Init.ClockPrescaler) != ADC_CLOCK_SYNC_PCLK_DIV1) &&
 8002846:	2280      	movs	r2, #128	@ 0x80
      MODIFY_REG(hadc->Instance->CFGR2,
 8002848:	612b      	str	r3, [r5, #16]
      if (((hadc->Init.ClockPrescaler) != ADC_CLOCK_SYNC_PCLK_DIV1) &&
 800284a:	0073      	lsls	r3, r6, #1
 800284c:	085b      	lsrs	r3, r3, #1
 800284e:	05d2      	lsls	r2, r2, #23
 8002850:	4293      	cmp	r3, r2
 8002852:	d00c      	beq.n	800286e <HAL_ADC_Init+0x182>
          ((hadc->Init.ClockPrescaler) != ADC_CLOCK_SYNC_PCLK_DIV2) &&
 8002854:	2380      	movs	r3, #128	@ 0x80
 8002856:	061b      	lsls	r3, r3, #24
 8002858:	429e      	cmp	r6, r3
 800285a:	d008      	beq.n	800286e <HAL_ADC_Init+0x182>
        MODIFY_REG(ADC1_COMMON->CCR,
 800285c:	4a41      	ldr	r2, [pc, #260]	@ (8002964 <HAL_ADC_Init+0x278>)
 800285e:	4f42      	ldr	r7, [pc, #264]	@ (8002968 <HAL_ADC_Init+0x27c>)
 8002860:	6813      	ldr	r3, [r2, #0]
 8002862:	403b      	ands	r3, r7
 8002864:	27f0      	movs	r7, #240	@ 0xf0
 8002866:	03bf      	lsls	r7, r7, #14
 8002868:	403e      	ands	r6, r7
 800286a:	4333      	orrs	r3, r6
 800286c:	6013      	str	r3, [r2, #0]
  MODIFY_REG(ADCx->SMPR,
 800286e:	2607      	movs	r6, #7
 8002870:	2770      	movs	r7, #112	@ 0x70
 8002872:	696b      	ldr	r3, [r5, #20]
    LL_ADC_SetSamplingTimeCommonChannels(hadc->Instance, LL_ADC_SAMPLINGTIME_COMMON_1, hadc->Init.SamplingTimeCommon1);
 8002874:	6b62      	ldr	r2, [r4, #52]	@ 0x34
 8002876:	43b3      	bics	r3, r6
 8002878:	4313      	orrs	r3, r2
 800287a:	616b      	str	r3, [r5, #20]
 800287c:	696e      	ldr	r6, [r5, #20]
 800287e:	6ba3      	ldr	r3, [r4, #56]	@ 0x38
 8002880:	43be      	bics	r6, r7
 8002882:	011b      	lsls	r3, r3, #4
 8002884:	4333      	orrs	r3, r6
 8002886:	616b      	str	r3, [r5, #20]
    if (hadc->Init.ScanConvMode == ADC_SCAN_DISABLE)
 8002888:	2900      	cmp	r1, #0
 800288a:	d122      	bne.n	80028d2 <HAL_ADC_Init+0x1e6>
      SET_BIT(hadc->Instance->CHSELR,
 800288c:	2310      	movs	r3, #16
 800288e:	6aa9      	ldr	r1, [r5, #40]	@ 0x28
 8002890:	425b      	negs	r3, r3
 8002892:	430b      	orrs	r3, r1
 8002894:	62ab      	str	r3, [r5, #40]	@ 0x28
  return (uint32_t)((READ_BIT(ADCx->SMPR, ADC_SMPR_SMP1 << (SamplingTimeY & ADC_SAMPLING_TIME_SMP_SHIFT_MASK)))
 8002896:	2307      	movs	r3, #7
 8002898:	6969      	ldr	r1, [r5, #20]
 800289a:	400b      	ands	r3, r1
    if (LL_ADC_GetSamplingTimeCommonChannels(hadc->Instance, LL_ADC_SAMPLINGTIME_COMMON_1)
 800289c:	429a      	cmp	r2, r3
 800289e:	d02c      	beq.n	80028fa <HAL_ADC_Init+0x20e>
      ADC_STATE_CLR_SET(hadc->State,
 80028a0:	2212      	movs	r2, #18
 80028a2:	6da3      	ldr	r3, [r4, #88]	@ 0x58
 80028a4:	4393      	bics	r3, r2
 80028a6:	3a02      	subs	r2, #2
 80028a8:	4313      	orrs	r3, r2
 80028aa:	65a3      	str	r3, [r4, #88]	@ 0x58
      SET_BIT(hadc->ErrorCode, HAL_ADC_ERROR_INTERNAL);
 80028ac:	6de3      	ldr	r3, [r4, #92]	@ 0x5c
 80028ae:	3a0f      	subs	r2, #15
 80028b0:	4313      	orrs	r3, r2
 80028b2:	65e3      	str	r3, [r4, #92]	@ 0x5c
      tmp_hal_status = HAL_ERROR;
 80028b4:	e769      	b.n	800278a <HAL_ADC_Init+0x9e>
    SET_BIT(hadc->State, HAL_ADC_STATE_ERROR_INTERNAL);
 80028b6:	2210      	movs	r2, #16
 80028b8:	6da3      	ldr	r3, [r4, #88]	@ 0x58
    tmp_hal_status = HAL_ERROR;
 80028ba:	2001      	movs	r0, #1
    SET_BIT(hadc->State, HAL_ADC_STATE_ERROR_INTERNAL);
 80028bc:	4313      	orrs	r3, r2
 80028be:	65a3      	str	r3, [r4, #88]	@ 0x58
    SET_BIT(hadc->ErrorCode, HAL_ADC_ERROR_INTERNAL);
 80028c0:	6de3      	ldr	r3, [r4, #92]	@ 0x5c
 80028c2:	3a0f      	subs	r2, #15
 80028c4:	4313      	orrs	r3, r2
 80028c6:	65e3      	str	r3, [r4, #92]	@ 0x5c
  return ((READ_BIT(ADCx->CR, ADC_CR_ADSTART) == (ADC_CR_ADSTART)) ? 1UL : 0UL);
 80028c8:	68ab      	ldr	r3, [r5, #8]
 80028ca:	075b      	lsls	r3, r3, #29
 80028cc:	d400      	bmi.n	80028d0 <HAL_ADC_Init+0x1e4>
 80028ce:	e763      	b.n	8002798 <HAL_ADC_Init+0xac>
 80028d0:	e756      	b.n	8002780 <HAL_ADC_Init+0x94>
    else if (hadc->Init.ScanConvMode == ADC_SCAN_ENABLE)
 80028d2:	2380      	movs	r3, #128	@ 0x80
 80028d4:	039b      	lsls	r3, r3, #14
 80028d6:	4299      	cmp	r1, r3
 80028d8:	d1dd      	bne.n	8002896 <HAL_ADC_Init+0x1aa>
      MODIFY_REG(hadc->Instance->CHSELR,
 80028da:	211c      	movs	r1, #28
 80028dc:	6aab      	ldr	r3, [r5, #40]	@ 0x28
 80028de:	69e3      	ldr	r3, [r4, #28]
 80028e0:	3b01      	subs	r3, #1
 80028e2:	009b      	lsls	r3, r3, #2
 80028e4:	4019      	ands	r1, r3
 80028e6:	2310      	movs	r3, #16
 80028e8:	425b      	negs	r3, r3
 80028ea:	408b      	lsls	r3, r1
 80028ec:	6e21      	ldr	r1, [r4, #96]	@ 0x60
 80028ee:	430b      	orrs	r3, r1
 80028f0:	62ab      	str	r3, [r5, #40]	@ 0x28
 80028f2:	e7d0      	b.n	8002896 <HAL_ADC_Init+0x1aa>
      hadc->MspInitCallback = HAL_ADC_MspInit; /* Legacy weak MspInit  */
 80028f4:	4b1d      	ldr	r3, [pc, #116]	@ (800296c <HAL_ADC_Init+0x280>)
 80028f6:	5083      	str	r3, [r0, r2]
 80028f8:	e718      	b.n	800272c <HAL_ADC_Init+0x40>
      ADC_CLEAR_ERRORCODE(hadc);
 80028fa:	2300      	movs	r3, #0
      ADC_STATE_CLR_SET(hadc->State,
 80028fc:	2203      	movs	r2, #3
      ADC_CLEAR_ERRORCODE(hadc);
 80028fe:	65e3      	str	r3, [r4, #92]	@ 0x5c
      ADC_STATE_CLR_SET(hadc->State,
 8002900:	6da3      	ldr	r3, [r4, #88]	@ 0x58
 8002902:	4393      	bics	r3, r2
 8002904:	3a02      	subs	r2, #2
 8002906:	4313      	orrs	r3, r2
 8002908:	65a3      	str	r3, [r4, #88]	@ 0x58
 800290a:	e73f      	b.n	800278c <HAL_ADC_Init+0xa0>
                    ADC_SCAN_SEQ_MODE(hadc->Init.ScanConvMode)                     |
 800290c:	004b      	lsls	r3, r1, #1
 800290e:	085b      	lsrs	r3, r3, #1
 8002910:	469c      	mov	ip, r3
 8002912:	e765      	b.n	80027e0 <HAL_ADC_Init+0xf4>
        if (hadc->Init.ContinuousConvMode == DISABLE)
 8002914:	2e00      	cmp	r6, #0
 8002916:	d103      	bne.n	8002920 <HAL_ADC_Init+0x234>
          tmp_cfgr1 |= ADC_CFGR1_DISCEN;
 8002918:	2280      	movs	r2, #128	@ 0x80
 800291a:	0252      	lsls	r2, r2, #9
 800291c:	4313      	orrs	r3, r2
 800291e:	e76b      	b.n	80027f8 <HAL_ADC_Init+0x10c>
          SET_BIT(hadc->State, HAL_ADC_STATE_ERROR_CONFIG);
 8002920:	6da6      	ldr	r6, [r4, #88]	@ 0x58
 8002922:	433e      	orrs	r6, r7
 8002924:	65a6      	str	r6, [r4, #88]	@ 0x58
          SET_BIT(hadc->ErrorCode, HAL_ADC_ERROR_INTERNAL);
 8002926:	6de6      	ldr	r6, [r4, #92]	@ 0x5c
 8002928:	4332      	orrs	r2, r6
 800292a:	65e2      	str	r2, [r4, #92]	@ 0x5c
 800292c:	e764      	b.n	80027f8 <HAL_ADC_Init+0x10c>
 800292e:	46c0      	nop			@ (mov r8, r8)
 8002930:	080026e1 	.word	0x080026e1
 8002934:	080026e5 	.word	0x080026e5
 8002938:	080026e9 	.word	0x080026e9
 800293c:	080026dd 	.word	0x080026dd
 8002940:	08003109 	.word	0x08003109
 8002944:	0800310d 	.word	0x0800310d
 8002948:	08003111 	.word	0x08003111
 800294c:	6fffffe8 	.word	0x6fffffe8
 8002950:	20000008 	.word	0x20000008
 8002954:	00030d40 	.word	0x00030d40
 8002958:	fffffefd 	.word	0xfffffefd
 800295c:	ffde0201 	.word	0xffde0201
 8002960:	1ffffc02 	.word	0x1ffffc02
 8002964:	40012708 	.word	0x40012708
 8002968:	ffc3ffff 	.word	0xffc3ffff
 800296c:	0800152d 	.word	0x0800152d

08002970 <HAL_ADC_RegisterCallback>:
  if (pCallback == NULL)
 8002970:	2a00      	cmp	r2, #0
 8002972:	d00f      	beq.n	8002994 <HAL_ADC_RegisterCallback+0x24>
  if ((hadc->State & HAL_ADC_STATE_READY) != 0UL)
 8002974:	6d83      	ldr	r3, [r0, #88]	@ 0x58
 8002976:	07db      	lsls	r3, r3, #31
 8002978:	d505      	bpl.n	8002986 <HAL_ADC_RegisterCallback+0x16>
    switch (CallbackID)
 800297a:	290a      	cmp	r1, #10
 800297c:	d80a      	bhi.n	8002994 <HAL_ADC_RegisterCallback+0x24>
 800297e:	4b17      	ldr	r3, [pc, #92]	@ (80029dc <HAL_ADC_RegisterCallback+0x6c>)
 8002980:	0089      	lsls	r1, r1, #2
 8002982:	585b      	ldr	r3, [r3, r1]
 8002984:	469f      	mov	pc, r3
  else if (HAL_ADC_STATE_RESET == hadc->State)
 8002986:	6d83      	ldr	r3, [r0, #88]	@ 0x58
 8002988:	2b00      	cmp	r3, #0
 800298a:	d103      	bne.n	8002994 <HAL_ADC_RegisterCallback+0x24>
    switch (CallbackID)
 800298c:	2909      	cmp	r1, #9
 800298e:	d00b      	beq.n	80029a8 <HAL_ADC_RegisterCallback+0x38>
 8002990:	290a      	cmp	r1, #10
 8002992:	d005      	beq.n	80029a0 <HAL_ADC_RegisterCallback+0x30>
        hadc->ErrorCode |= HAL_ADC_ERROR_INVALID_CALLBACK;
 8002994:	2210      	movs	r2, #16
 8002996:	6dc3      	ldr	r3, [r0, #92]	@ 0x5c
 8002998:	4313      	orrs	r3, r2
 800299a:	65c3      	str	r3, [r0, #92]	@ 0x5c
    return HAL_ERROR;
 800299c:	2001      	movs	r0, #1
}
 800299e:	4770      	bx	lr
        hadc->MspDeInitCallback = pCallback;
 80029a0:	2384      	movs	r3, #132	@ 0x84
 80029a2:	50c2      	str	r2, [r0, r3]
  HAL_StatusTypeDef status = HAL_OK;
 80029a4:	2000      	movs	r0, #0
 80029a6:	e7fa      	b.n	800299e <HAL_ADC_RegisterCallback+0x2e>
        hadc->MspInitCallback = pCallback;
 80029a8:	2380      	movs	r3, #128	@ 0x80
 80029aa:	50c2      	str	r2, [r0, r3]
  HAL_StatusTypeDef status = HAL_OK;
 80029ac:	2000      	movs	r0, #0
 80029ae:	e7f6      	b.n	800299e <HAL_ADC_RegisterCallback+0x2e>
        hadc->ErrorCallback = pCallback;
 80029b0:	6702      	str	r2, [r0, #112]	@ 0x70
  HAL_StatusTypeDef status = HAL_OK;
 80029b2:	2000      	movs	r0, #0
 80029b4:	e7f3      	b.n	800299e <HAL_ADC_RegisterCallback+0x2e>
        hadc->LevelOutOfWindow2Callback = pCallback;
 80029b6:	6742      	str	r2, [r0, #116]	@ 0x74
  HAL_StatusTypeDef status = HAL_OK;
 80029b8:	2000      	movs	r0, #0
 80029ba:	e7f0      	b.n	800299e <HAL_ADC_RegisterCallback+0x2e>
        hadc->LevelOutOfWindow3Callback = pCallback;
 80029bc:	6782      	str	r2, [r0, #120]	@ 0x78
  HAL_StatusTypeDef status = HAL_OK;
 80029be:	2000      	movs	r0, #0
 80029c0:	e7ed      	b.n	800299e <HAL_ADC_RegisterCallback+0x2e>
        hadc->EndOfSamplingCallback = pCallback;
 80029c2:	67c2      	str	r2, [r0, #124]	@ 0x7c
  HAL_StatusTypeDef status = HAL_OK;
 80029c4:	2000      	movs	r0, #0
 80029c6:	e7ea      	b.n	800299e <HAL_ADC_RegisterCallback+0x2e>
        hadc->ConvHalfCpltCallback = pCallback;
 80029c8:	6682      	str	r2, [r0, #104]	@ 0x68
  HAL_StatusTypeDef status = HAL_OK;
 80029ca:	2000      	movs	r0, #0
 80029cc:	e7e7      	b.n	800299e <HAL_ADC_RegisterCallback+0x2e>
        hadc->LevelOutOfWindowCallback = pCallback;
 80029ce:	66c2      	str	r2, [r0, #108]	@ 0x6c
  HAL_StatusTypeDef status = HAL_OK;
 80029d0:	2000      	movs	r0, #0
 80029d2:	e7e4      	b.n	800299e <HAL_ADC_RegisterCallback+0x2e>
        hadc->ConvCpltCallback = pCallback;
 80029d4:	6642      	str	r2, [r0, #100]	@ 0x64
  HAL_StatusTypeDef status = HAL_OK;
 80029d6:	2000      	movs	r0, #0
 80029d8:	e7e1      	b.n	800299e <HAL_ADC_RegisterCallback+0x2e>
 80029da:	46c0      	nop			@ (mov r8, r8)
 80029dc:	08007588 	.word	0x08007588

080029e0 <HAL_ADC_ConfigChannel>:
{
 80029e0:	b5f0      	push	{r4, r5, r6, r7, lr}
 80029e2:	46de      	mov	lr, fp
 80029e4:	4657      	mov	r7, sl
 80029e6:	464e      	mov	r6, r9
 80029e8:	4645      	mov	r5, r8
  __IO uint32_t wait_loop_index = 0UL;
 80029ea:	2300      	movs	r3, #0
{
 80029ec:	0004      	movs	r4, r0
 80029ee:	b5e0      	push	{r5, r6, r7, lr}
 80029f0:	b085      	sub	sp, #20
  __IO uint32_t wait_loop_index = 0UL;
 80029f2:	9303      	str	r3, [sp, #12]
  __HAL_LOCK(hadc);
 80029f4:	3354      	adds	r3, #84	@ 0x54
 80029f6:	5ce2      	ldrb	r2, [r4, r3]
  if ((hadc->Init.ScanConvMode == ADC_SCAN_SEQ_FIXED)       ||
 80029f8:	6900      	ldr	r0, [r0, #16]
  __HAL_LOCK(hadc);
 80029fa:	2a01      	cmp	r2, #1
 80029fc:	d100      	bne.n	8002a00 <HAL_ADC_ConfigChannel+0x20>
 80029fe:	e09a      	b.n	8002b36 <HAL_ADC_ConfigChannel+0x156>
 8002a00:	2201      	movs	r2, #1
 8002a02:	54e2      	strb	r2, [r4, r3]
  if (LL_ADC_REG_IsConversionOngoing(hadc->Instance) == 0UL)
 8002a04:	6823      	ldr	r3, [r4, #0]
 8002a06:	3203      	adds	r2, #3
 8002a08:	689e      	ldr	r6, [r3, #8]
 8002a0a:	4232      	tst	r2, r6
 8002a0c:	d00e      	beq.n	8002a2c <HAL_ADC_ConfigChannel+0x4c>
    tmp_hal_status = HAL_ERROR;
 8002a0e:	2001      	movs	r0, #1
    SET_BIT(hadc->State, HAL_ADC_STATE_ERROR_CONFIG);
 8002a10:	6da3      	ldr	r3, [r4, #88]	@ 0x58
 8002a12:	321c      	adds	r2, #28
 8002a14:	4313      	orrs	r3, r2
 8002a16:	65a3      	str	r3, [r4, #88]	@ 0x58
  __HAL_UNLOCK(hadc);
 8002a18:	2354      	movs	r3, #84	@ 0x54
 8002a1a:	2200      	movs	r2, #0
 8002a1c:	54e2      	strb	r2, [r4, r3]
}
 8002a1e:	b005      	add	sp, #20
 8002a20:	bcf0      	pop	{r4, r5, r6, r7}
 8002a22:	46bb      	mov	fp, r7
 8002a24:	46b2      	mov	sl, r6
 8002a26:	46a9      	mov	r9, r5
 8002a28:	46a0      	mov	r8, r4
 8002a2a:	bdf0      	pop	{r4, r5, r6, r7, pc}
    if (pConfig->Rank != ADC_RANK_NONE)
 8002a2c:	684e      	ldr	r6, [r1, #4]
      if ((hadc->Init.ScanConvMode == ADC_SCAN_SEQ_FIXED)       ||
 8002a2e:	4390      	bics	r0, r2
 8002a30:	4684      	mov	ip, r0
        LL_ADC_REG_SetSequencerChAdd(hadc->Instance, pConfig->Channel);
 8002a32:	6808      	ldr	r0, [r1, #0]
    if (pConfig->Rank != ADC_RANK_NONE)
 8002a34:	2e02      	cmp	r6, #2
 8002a36:	d05e      	beq.n	8002af6 <HAL_ADC_ConfigChannel+0x116>
  SET_BIT(ADCx->CHSELR, (Channel & ADC_CHANNEL_ID_BITFIELD_MASK));
 8002a38:	0347      	lsls	r7, r0, #13
 8002a3a:	0b7d      	lsrs	r5, r7, #13
      if ((hadc->Init.ScanConvMode == ADC_SCAN_SEQ_FIXED)       ||
 8002a3c:	2780      	movs	r7, #128	@ 0x80
 8002a3e:	9500      	str	r5, [sp, #0]
 8002a40:	063f      	lsls	r7, r7, #24
 8002a42:	45bc      	cmp	ip, r7
 8002a44:	d053      	beq.n	8002aee <HAL_ADC_ConfigChannel+0x10e>
        MODIFY_REG(hadc->ADCGroupRegularSequencerRanks,
 8002a46:	6e27      	ldr	r7, [r4, #96]	@ 0x60
 8002a48:	46bb      	mov	fp, r7
 8002a4a:	271f      	movs	r7, #31
 8002a4c:	46b8      	mov	r8, r7
 8002a4e:	4037      	ands	r7, r6
 8002a50:	46ba      	mov	sl, r7
 8002a52:	270f      	movs	r7, #15
 8002a54:	4655      	mov	r5, sl
 8002a56:	40af      	lsls	r7, r5
 8002a58:	43fd      	mvns	r5, r7
 8002a5a:	46bc      	mov	ip, r7
 8002a5c:	9501      	str	r5, [sp, #4]
 8002a5e:	465f      	mov	r7, fp
 8002a60:	4665      	mov	r5, ip
 8002a62:	43af      	bics	r7, r5
 8002a64:	9d00      	ldr	r5, [sp, #0]
 8002a66:	46b9      	mov	r9, r7
 8002a68:	2d00      	cmp	r5, #0
 8002a6a:	d166      	bne.n	8002b3a <HAL_ADC_ConfigChannel+0x15a>
 8002a6c:	4645      	mov	r5, r8
 8002a6e:	0e82      	lsrs	r2, r0, #26
 8002a70:	4015      	ands	r5, r2
 8002a72:	002a      	movs	r2, r5
 8002a74:	4655      	mov	r5, sl
 8002a76:	40aa      	lsls	r2, r5
 8002a78:	464d      	mov	r5, r9
 8002a7a:	4315      	orrs	r5, r2
 8002a7c:	46a9      	mov	r9, r5
 8002a7e:	464a      	mov	r2, r9
        if (((pConfig->Rank >> 2UL) + 1UL) <= hadc->Init.NbrOfConversion)
 8002a80:	08b6      	lsrs	r6, r6, #2
        MODIFY_REG(hadc->ADCGroupRegularSequencerRanks,
 8002a82:	6622      	str	r2, [r4, #96]	@ 0x60
        if (((pConfig->Rank >> 2UL) + 1UL) <= hadc->Init.NbrOfConversion)
 8002a84:	69e2      	ldr	r2, [r4, #28]
 8002a86:	3601      	adds	r6, #1
 8002a88:	4296      	cmp	r6, r2
 8002a8a:	d808      	bhi.n	8002a9e <HAL_ADC_ConfigChannel+0xbe>
  MODIFY_REG(ADCx->CHSELR,
 8002a8c:	4656      	mov	r6, sl
 8002a8e:	0082      	lsls	r2, r0, #2
 8002a90:	0f12      	lsrs	r2, r2, #28
 8002a92:	40b2      	lsls	r2, r6
 8002a94:	6a9d      	ldr	r5, [r3, #40]	@ 0x28
 8002a96:	9e01      	ldr	r6, [sp, #4]
 8002a98:	4035      	ands	r5, r6
 8002a9a:	432a      	orrs	r2, r5
 8002a9c:	629a      	str	r2, [r3, #40]	@ 0x28
  MODIFY_REG(ADCx->SMPR,
 8002a9e:	0205      	lsls	r5, r0, #8
 8002aa0:	688a      	ldr	r2, [r1, #8]
 8002aa2:	0029      	movs	r1, r5
 8002aa4:	695e      	ldr	r6, [r3, #20]
 8002aa6:	402a      	ands	r2, r5
 8002aa8:	4d66      	ldr	r5, [pc, #408]	@ (8002c44 <HAL_ADC_ConfigChannel+0x264>)
 8002aaa:	438e      	bics	r6, r1
 8002aac:	402a      	ands	r2, r5
 8002aae:	4332      	orrs	r2, r6
 8002ab0:	615a      	str	r2, [r3, #20]
      if (__LL_ADC_IS_CHANNEL_INTERNAL(pConfig->Channel))
 8002ab2:	2800      	cmp	r0, #0
 8002ab4:	db01      	blt.n	8002aba <HAL_ADC_ConfigChannel+0xda>
  HAL_StatusTypeDef tmp_hal_status = HAL_OK;
 8002ab6:	2000      	movs	r0, #0
 8002ab8:	e7ae      	b.n	8002a18 <HAL_ADC_ConfigChannel+0x38>
  return (uint32_t)(READ_BIT(ADCxy_COMMON->CCR, ADC_CCR_VREFEN | ADC_CCR_TSEN | ADC_CCR_VBATEN));
 8002aba:	21e0      	movs	r1, #224	@ 0xe0
 8002abc:	4d62      	ldr	r5, [pc, #392]	@ (8002c48 <HAL_ADC_ConfigChannel+0x268>)
        if ((pConfig->Channel == ADC_CHANNEL_TEMPSENSOR) &&
 8002abe:	4a63      	ldr	r2, [pc, #396]	@ (8002c4c <HAL_ADC_ConfigChannel+0x26c>)
 8002ac0:	682b      	ldr	r3, [r5, #0]
 8002ac2:	0449      	lsls	r1, r1, #17
 8002ac4:	4019      	ands	r1, r3
 8002ac6:	4290      	cmp	r0, r2
 8002ac8:	d04c      	beq.n	8002b64 <HAL_ADC_ConfigChannel+0x184>
        else if ((pConfig->Channel == ADC_CHANNEL_VBAT)
 8002aca:	4a61      	ldr	r2, [pc, #388]	@ (8002c50 <HAL_ADC_ConfigChannel+0x270>)
 8002acc:	4290      	cmp	r0, r2
 8002ace:	d040      	beq.n	8002b52 <HAL_ADC_ConfigChannel+0x172>
        else if ((pConfig->Channel == ADC_CHANNEL_VREFINT) &&
 8002ad0:	4a60      	ldr	r2, [pc, #384]	@ (8002c54 <HAL_ADC_ConfigChannel+0x274>)
 8002ad2:	4290      	cmp	r0, r2
 8002ad4:	d1ef      	bne.n	8002ab6 <HAL_ADC_ConfigChannel+0xd6>
                 ((tmp_config_internal_channel & LL_ADC_PATH_INTERNAL_VREFINT) == 0UL))
 8002ad6:	2280      	movs	r2, #128	@ 0x80
 8002ad8:	03d2      	lsls	r2, r2, #15
        else if ((pConfig->Channel == ADC_CHANNEL_VREFINT) &&
 8002ada:	4213      	tst	r3, r2
 8002adc:	d1eb      	bne.n	8002ab6 <HAL_ADC_ConfigChannel+0xd6>
  MODIFY_REG(ADCxy_COMMON->CCR, ADC_CCR_VREFEN | ADC_CCR_TSEN | ADC_CCR_VBATEN, PathInternal);
 8002ade:	682b      	ldr	r3, [r5, #0]
 8002ae0:	485d      	ldr	r0, [pc, #372]	@ (8002c58 <HAL_ADC_ConfigChannel+0x278>)
 8002ae2:	4003      	ands	r3, r0
 8002ae4:	430b      	orrs	r3, r1
 8002ae6:	431a      	orrs	r2, r3
  HAL_StatusTypeDef tmp_hal_status = HAL_OK;
 8002ae8:	2000      	movs	r0, #0
 8002aea:	602a      	str	r2, [r5, #0]
 8002aec:	e794      	b.n	8002a18 <HAL_ADC_ConfigChannel+0x38>
  SET_BIT(ADCx->CHSELR, (Channel & ADC_CHANNEL_ID_BITFIELD_MASK));
 8002aee:	6a9a      	ldr	r2, [r3, #40]	@ 0x28
 8002af0:	432a      	orrs	r2, r5
 8002af2:	629a      	str	r2, [r3, #40]	@ 0x28
}
 8002af4:	e7d3      	b.n	8002a9e <HAL_ADC_ConfigChannel+0xbe>
      if ((hadc->Init.ScanConvMode == ADC_SCAN_SEQ_FIXED)       ||
 8002af6:	2280      	movs	r2, #128	@ 0x80
 8002af8:	0612      	lsls	r2, r2, #24
 8002afa:	4594      	cmp	ip, r2
 8002afc:	d104      	bne.n	8002b08 <HAL_ADC_ConfigChannel+0x128>
  CLEAR_BIT(ADCx->CHSELR, (Channel & ADC_CHANNEL_ID_BITFIELD_MASK));
 8002afe:	6a9a      	ldr	r2, [r3, #40]	@ 0x28
 8002b00:	0341      	lsls	r1, r0, #13
 8002b02:	0b49      	lsrs	r1, r1, #13
 8002b04:	438a      	bics	r2, r1
 8002b06:	629a      	str	r2, [r3, #40]	@ 0x28
      if (__LL_ADC_IS_CHANNEL_INTERNAL(pConfig->Channel))
 8002b08:	2800      	cmp	r0, #0
 8002b0a:	dad4      	bge.n	8002ab6 <HAL_ADC_ConfigChannel+0xd6>
  return (uint32_t)(READ_BIT(ADCxy_COMMON->CCR, ADC_CCR_VREFEN | ADC_CCR_TSEN | ADC_CCR_VBATEN));
 8002b0c:	4a4e      	ldr	r2, [pc, #312]	@ (8002c48 <HAL_ADC_ConfigChannel+0x268>)
        if (pConfig->Channel == ADC_CHANNEL_TEMPSENSOR)
 8002b0e:	494f      	ldr	r1, [pc, #316]	@ (8002c4c <HAL_ADC_ConfigChannel+0x26c>)
 8002b10:	6813      	ldr	r3, [r2, #0]
 8002b12:	4288      	cmp	r0, r1
 8002b14:	d023      	beq.n	8002b5e <HAL_ADC_ConfigChannel+0x17e>
        else if (pConfig->Channel == ADC_CHANNEL_VBAT)
 8002b16:	494e      	ldr	r1, [pc, #312]	@ (8002c50 <HAL_ADC_ConfigChannel+0x270>)
 8002b18:	4288      	cmp	r0, r1
 8002b1a:	d04a      	beq.n	8002bb2 <HAL_ADC_ConfigChannel+0x1d2>
        else if (pConfig->Channel == ADC_CHANNEL_VREFINT)
 8002b1c:	494d      	ldr	r1, [pc, #308]	@ (8002c54 <HAL_ADC_ConfigChannel+0x274>)
 8002b1e:	4288      	cmp	r0, r1
 8002b20:	d1c9      	bne.n	8002ab6 <HAL_ADC_ConfigChannel+0xd6>
          LL_ADC_SetCommonPathInternalCh(__LL_ADC_COMMON_INSTANCE(hadc->Instance),
 8002b22:	20c0      	movs	r0, #192	@ 0xc0
  MODIFY_REG(ADCxy_COMMON->CCR, ADC_CCR_VREFEN | ADC_CCR_TSEN | ADC_CCR_VBATEN, PathInternal);
 8002b24:	6811      	ldr	r1, [r2, #0]
 8002b26:	0440      	lsls	r0, r0, #17
 8002b28:	4003      	ands	r3, r0
 8002b2a:	484b      	ldr	r0, [pc, #300]	@ (8002c58 <HAL_ADC_ConfigChannel+0x278>)
 8002b2c:	4001      	ands	r1, r0
 8002b2e:	430b      	orrs	r3, r1
  HAL_StatusTypeDef tmp_hal_status = HAL_OK;
 8002b30:	2000      	movs	r0, #0
 8002b32:	6013      	str	r3, [r2, #0]
 8002b34:	e770      	b.n	8002a18 <HAL_ADC_ConfigChannel+0x38>
  __HAL_LOCK(hadc);
 8002b36:	2002      	movs	r0, #2
 8002b38:	e771      	b.n	8002a1e <HAL_ADC_ConfigChannel+0x3e>
        MODIFY_REG(hadc->ADCGroupRegularSequencerRanks,
 8002b3a:	2501      	movs	r5, #1
 8002b3c:	4205      	tst	r5, r0
 8002b3e:	d19e      	bne.n	8002a7e <HAL_ADC_ConfigChannel+0x9e>
 8002b40:	2702      	movs	r7, #2
 8002b42:	4207      	tst	r7, r0
 8002b44:	d02d      	beq.n	8002ba2 <HAL_ADC_ConfigChannel+0x1c2>
 8002b46:	4652      	mov	r2, sl
 8002b48:	4095      	lsls	r5, r2
 8002b4a:	464a      	mov	r2, r9
 8002b4c:	432a      	orrs	r2, r5
 8002b4e:	4691      	mov	r9, r2
 8002b50:	e795      	b.n	8002a7e <HAL_ADC_ConfigChannel+0x9e>
                 && ((tmp_config_internal_channel & LL_ADC_PATH_INTERNAL_VBAT) == 0UL))
 8002b52:	2280      	movs	r2, #128	@ 0x80
 8002b54:	0452      	lsls	r2, r2, #17
 8002b56:	4213      	tst	r3, r2
 8002b58:	d0c1      	beq.n	8002ade <HAL_ADC_ConfigChannel+0xfe>
  HAL_StatusTypeDef tmp_hal_status = HAL_OK;
 8002b5a:	2000      	movs	r0, #0
 8002b5c:	e75c      	b.n	8002a18 <HAL_ADC_ConfigChannel+0x38>
          LL_ADC_SetCommonPathInternalCh(__LL_ADC_COMMON_INSTANCE(hadc->Instance),
 8002b5e:	20a0      	movs	r0, #160	@ 0xa0
 8002b60:	6811      	ldr	r1, [r2, #0]
 8002b62:	e7e0      	b.n	8002b26 <HAL_ADC_ConfigChannel+0x146>
            ((tmp_config_internal_channel & LL_ADC_PATH_INTERNAL_TEMPSENSOR) == 0UL))
 8002b64:	2280      	movs	r2, #128	@ 0x80
 8002b66:	0412      	lsls	r2, r2, #16
        if ((pConfig->Channel == ADC_CHANNEL_TEMPSENSOR) &&
 8002b68:	4213      	tst	r3, r2
 8002b6a:	d1a4      	bne.n	8002ab6 <HAL_ADC_ConfigChannel+0xd6>
 8002b6c:	682b      	ldr	r3, [r5, #0]
 8002b6e:	483a      	ldr	r0, [pc, #232]	@ (8002c58 <HAL_ADC_ConfigChannel+0x278>)
 8002b70:	4003      	ands	r3, r0
 8002b72:	430b      	orrs	r3, r1
 8002b74:	431a      	orrs	r2, r3
          wait_loop_index = ((LL_ADC_DELAY_TEMPSENSOR_STAB_US / 10UL) * ((SystemCoreClock / (100000UL * 2UL)) + 1UL));
 8002b76:	4b39      	ldr	r3, [pc, #228]	@ (8002c5c <HAL_ADC_ConfigChannel+0x27c>)
 8002b78:	602a      	str	r2, [r5, #0]
 8002b7a:	6818      	ldr	r0, [r3, #0]
 8002b7c:	4938      	ldr	r1, [pc, #224]	@ (8002c60 <HAL_ADC_ConfigChannel+0x280>)
 8002b7e:	f7fd fac1 	bl	8000104 <__udivsi3>
 8002b82:	3001      	adds	r0, #1
 8002b84:	0043      	lsls	r3, r0, #1
 8002b86:	181b      	adds	r3, r3, r0
 8002b88:	009b      	lsls	r3, r3, #2
 8002b8a:	9303      	str	r3, [sp, #12]
          while (wait_loop_index != 0UL)
 8002b8c:	9b03      	ldr	r3, [sp, #12]
 8002b8e:	2b00      	cmp	r3, #0
 8002b90:	d091      	beq.n	8002ab6 <HAL_ADC_ConfigChannel+0xd6>
            wait_loop_index--;
 8002b92:	9b03      	ldr	r3, [sp, #12]
 8002b94:	3b01      	subs	r3, #1
 8002b96:	9303      	str	r3, [sp, #12]
          while (wait_loop_index != 0UL)
 8002b98:	9b03      	ldr	r3, [sp, #12]
 8002b9a:	2b00      	cmp	r3, #0
 8002b9c:	d1f9      	bne.n	8002b92 <HAL_ADC_ConfigChannel+0x1b2>
  HAL_StatusTypeDef tmp_hal_status = HAL_OK;
 8002b9e:	2000      	movs	r0, #0
 8002ba0:	e73a      	b.n	8002a18 <HAL_ADC_ConfigChannel+0x38>
        MODIFY_REG(hadc->ADCGroupRegularSequencerRanks,
 8002ba2:	4202      	tst	r2, r0
 8002ba4:	d009      	beq.n	8002bba <HAL_ADC_ConfigChannel+0x1da>
 8002ba6:	4652      	mov	r2, sl
 8002ba8:	4097      	lsls	r7, r2
 8002baa:	464a      	mov	r2, r9
 8002bac:	433a      	orrs	r2, r7
 8002bae:	4691      	mov	r9, r2
 8002bb0:	e765      	b.n	8002a7e <HAL_ADC_ConfigChannel+0x9e>
          LL_ADC_SetCommonPathInternalCh(__LL_ADC_COMMON_INSTANCE(hadc->Instance),
 8002bb2:	20c0      	movs	r0, #192	@ 0xc0
 8002bb4:	6811      	ldr	r1, [r2, #0]
 8002bb6:	0400      	lsls	r0, r0, #16
 8002bb8:	e7b6      	b.n	8002b28 <HAL_ADC_ConfigChannel+0x148>
        MODIFY_REG(hadc->ADCGroupRegularSequencerRanks,
 8002bba:	0702      	lsls	r2, r0, #28
 8002bbc:	d501      	bpl.n	8002bc2 <HAL_ADC_ConfigChannel+0x1e2>
 8002bbe:	2203      	movs	r2, #3
 8002bc0:	e758      	b.n	8002a74 <HAL_ADC_ConfigChannel+0x94>
 8002bc2:	06c2      	lsls	r2, r0, #27
 8002bc4:	d501      	bpl.n	8002bca <HAL_ADC_ConfigChannel+0x1ea>
 8002bc6:	2204      	movs	r2, #4
 8002bc8:	e754      	b.n	8002a74 <HAL_ADC_ConfigChannel+0x94>
 8002bca:	0682      	lsls	r2, r0, #26
 8002bcc:	d501      	bpl.n	8002bd2 <HAL_ADC_ConfigChannel+0x1f2>
 8002bce:	2205      	movs	r2, #5
 8002bd0:	e750      	b.n	8002a74 <HAL_ADC_ConfigChannel+0x94>
 8002bd2:	0642      	lsls	r2, r0, #25
 8002bd4:	d501      	bpl.n	8002bda <HAL_ADC_ConfigChannel+0x1fa>
 8002bd6:	2206      	movs	r2, #6
 8002bd8:	e74c      	b.n	8002a74 <HAL_ADC_ConfigChannel+0x94>
 8002bda:	0602      	lsls	r2, r0, #24
 8002bdc:	d501      	bpl.n	8002be2 <HAL_ADC_ConfigChannel+0x202>
 8002bde:	2207      	movs	r2, #7
 8002be0:	e748      	b.n	8002a74 <HAL_ADC_ConfigChannel+0x94>
 8002be2:	05c2      	lsls	r2, r0, #23
 8002be4:	d501      	bpl.n	8002bea <HAL_ADC_ConfigChannel+0x20a>
 8002be6:	2208      	movs	r2, #8
 8002be8:	e744      	b.n	8002a74 <HAL_ADC_ConfigChannel+0x94>
 8002bea:	0582      	lsls	r2, r0, #22
 8002bec:	d501      	bpl.n	8002bf2 <HAL_ADC_ConfigChannel+0x212>
 8002bee:	2209      	movs	r2, #9
 8002bf0:	e740      	b.n	8002a74 <HAL_ADC_ConfigChannel+0x94>
 8002bf2:	0542      	lsls	r2, r0, #21
 8002bf4:	d501      	bpl.n	8002bfa <HAL_ADC_ConfigChannel+0x21a>
 8002bf6:	220a      	movs	r2, #10
 8002bf8:	e73c      	b.n	8002a74 <HAL_ADC_ConfigChannel+0x94>
 8002bfa:	0502      	lsls	r2, r0, #20
 8002bfc:	d501      	bpl.n	8002c02 <HAL_ADC_ConfigChannel+0x222>
 8002bfe:	220b      	movs	r2, #11
 8002c00:	e738      	b.n	8002a74 <HAL_ADC_ConfigChannel+0x94>
 8002c02:	04c2      	lsls	r2, r0, #19
 8002c04:	d501      	bpl.n	8002c0a <HAL_ADC_ConfigChannel+0x22a>
 8002c06:	220c      	movs	r2, #12
 8002c08:	e734      	b.n	8002a74 <HAL_ADC_ConfigChannel+0x94>
 8002c0a:	0482      	lsls	r2, r0, #18
 8002c0c:	d501      	bpl.n	8002c12 <HAL_ADC_ConfigChannel+0x232>
 8002c0e:	220d      	movs	r2, #13
 8002c10:	e730      	b.n	8002a74 <HAL_ADC_ConfigChannel+0x94>
 8002c12:	0442      	lsls	r2, r0, #17
 8002c14:	d501      	bpl.n	8002c1a <HAL_ADC_ConfigChannel+0x23a>
 8002c16:	220e      	movs	r2, #14
 8002c18:	e72c      	b.n	8002a74 <HAL_ADC_ConfigChannel+0x94>
 8002c1a:	0402      	lsls	r2, r0, #16
 8002c1c:	d504      	bpl.n	8002c28 <HAL_ADC_ConfigChannel+0x248>
 8002c1e:	465a      	mov	r2, fp
 8002c20:	4665      	mov	r5, ip
 8002c22:	432a      	orrs	r2, r5
 8002c24:	4691      	mov	r9, r2
 8002c26:	e72a      	b.n	8002a7e <HAL_ADC_ConfigChannel+0x9e>
 8002c28:	03c2      	lsls	r2, r0, #15
 8002c2a:	d501      	bpl.n	8002c30 <HAL_ADC_ConfigChannel+0x250>
 8002c2c:	2210      	movs	r2, #16
 8002c2e:	e721      	b.n	8002a74 <HAL_ADC_ConfigChannel+0x94>
 8002c30:	0382      	lsls	r2, r0, #14
 8002c32:	d501      	bpl.n	8002c38 <HAL_ADC_ConfigChannel+0x258>
 8002c34:	2211      	movs	r2, #17
 8002c36:	e71d      	b.n	8002a74 <HAL_ADC_ConfigChannel+0x94>
 8002c38:	0342      	lsls	r2, r0, #13
 8002c3a:	d400      	bmi.n	8002c3e <HAL_ADC_ConfigChannel+0x25e>
 8002c3c:	e71f      	b.n	8002a7e <HAL_ADC_ConfigChannel+0x9e>
 8002c3e:	2212      	movs	r2, #18
 8002c40:	e718      	b.n	8002a74 <HAL_ADC_ConfigChannel+0x94>
 8002c42:	46c0      	nop			@ (mov r8, r8)
 8002c44:	07ffff00 	.word	0x07ffff00
 8002c48:	40012708 	.word	0x40012708
 8002c4c:	b0001000 	.word	0xb0001000
 8002c50:	b8004000 	.word	0xb8004000
 8002c54:	b4002000 	.word	0xb4002000
 8002c58:	fe3fffff 	.word	0xfe3fffff
 8002c5c:	20000008 	.word	0x20000008
 8002c60:	00030d40 	.word	0x00030d40

08002c64 <ADC_ConversionStop>:
  if (LL_ADC_REG_IsConversionOngoing(hadc->Instance) != 0UL)
 8002c64:	6802      	ldr	r2, [r0, #0]
{
 8002c66:	b570      	push	{r4, r5, r6, lr}
  return ((READ_BIT(ADCx->CR, ADC_CR_ADSTART) == (ADC_CR_ADSTART)) ? 1UL : 0UL);
 8002c68:	6893      	ldr	r3, [r2, #8]
 8002c6a:	0004      	movs	r4, r0
 8002c6c:	075b      	lsls	r3, r3, #29
 8002c6e:	d516      	bpl.n	8002c9e <ADC_ConversionStop+0x3a>
  return ((READ_BIT(ADCx->CR, ADC_CR_ADDIS) == (ADC_CR_ADDIS)) ? 1UL : 0UL);
 8002c70:	6893      	ldr	r3, [r2, #8]
 8002c72:	079b      	lsls	r3, r3, #30
 8002c74:	d515      	bpl.n	8002ca2 <ADC_ConversionStop+0x3e>
    tickstart = HAL_GetTick();
 8002c76:	f7ff fcd7 	bl	8002628 <HAL_GetTick>
    while ((hadc->Instance->CR & ADC_CR_ADSTART) != 0UL)
 8002c7a:	6823      	ldr	r3, [r4, #0]
    tickstart = HAL_GetTick();
 8002c7c:	0006      	movs	r6, r0
    while ((hadc->Instance->CR & ADC_CR_ADSTART) != 0UL)
 8002c7e:	689b      	ldr	r3, [r3, #8]
 8002c80:	075b      	lsls	r3, r3, #29
 8002c82:	d50c      	bpl.n	8002c9e <ADC_ConversionStop+0x3a>
        if ((hadc->Instance->CR & ADC_CR_ADSTART) != 0UL)
 8002c84:	2504      	movs	r5, #4
      if ((HAL_GetTick() - tickstart) > ADC_STOP_CONVERSION_TIMEOUT)
 8002c86:	f7ff fccf 	bl	8002628 <HAL_GetTick>
        if ((hadc->Instance->CR & ADC_CR_ADSTART) != 0UL)
 8002c8a:	6823      	ldr	r3, [r4, #0]
      if ((HAL_GetTick() - tickstart) > ADC_STOP_CONVERSION_TIMEOUT)
 8002c8c:	1b80      	subs	r0, r0, r6
 8002c8e:	2802      	cmp	r0, #2
 8002c90:	d902      	bls.n	8002c98 <ADC_ConversionStop+0x34>
        if ((hadc->Instance->CR & ADC_CR_ADSTART) != 0UL)
 8002c92:	689a      	ldr	r2, [r3, #8]
 8002c94:	4215      	tst	r5, r2
 8002c96:	d112      	bne.n	8002cbe <ADC_ConversionStop+0x5a>
    while ((hadc->Instance->CR & ADC_CR_ADSTART) != 0UL)
 8002c98:	689b      	ldr	r3, [r3, #8]
 8002c9a:	421d      	tst	r5, r3
 8002c9c:	d1f3      	bne.n	8002c86 <ADC_ConversionStop+0x22>
  return HAL_OK;
 8002c9e:	2000      	movs	r0, #0
}
 8002ca0:	bd70      	pop	{r4, r5, r6, pc}
  MODIFY_REG(ADCx->CR,
 8002ca2:	6893      	ldr	r3, [r2, #8]
 8002ca4:	490b      	ldr	r1, [pc, #44]	@ (8002cd4 <ADC_ConversionStop+0x70>)
 8002ca6:	400b      	ands	r3, r1
 8002ca8:	2110      	movs	r1, #16
 8002caa:	430b      	orrs	r3, r1
 8002cac:	6093      	str	r3, [r2, #8]
    tickstart = HAL_GetTick();
 8002cae:	f7ff fcbb 	bl	8002628 <HAL_GetTick>
    while ((hadc->Instance->CR & ADC_CR_ADSTART) != 0UL)
 8002cb2:	6823      	ldr	r3, [r4, #0]
    tickstart = HAL_GetTick();
 8002cb4:	0006      	movs	r6, r0
    while ((hadc->Instance->CR & ADC_CR_ADSTART) != 0UL)
 8002cb6:	689b      	ldr	r3, [r3, #8]
 8002cb8:	075b      	lsls	r3, r3, #29
 8002cba:	d4e3      	bmi.n	8002c84 <ADC_ConversionStop+0x20>
 8002cbc:	e7ef      	b.n	8002c9e <ADC_ConversionStop+0x3a>
          SET_BIT(hadc->State, HAL_ADC_STATE_ERROR_INTERNAL);
 8002cbe:	2210      	movs	r2, #16
 8002cc0:	6da3      	ldr	r3, [r4, #88]	@ 0x58
          SET_BIT(hadc->ErrorCode, HAL_ADC_ERROR_INTERNAL);
 8002cc2:	2001      	movs	r0, #1
          SET_BIT(hadc->State, HAL_ADC_STATE_ERROR_INTERNAL);
 8002cc4:	4313      	orrs	r3, r2
 8002cc6:	65a3      	str	r3, [r4, #88]	@ 0x58
          SET_BIT(hadc->ErrorCode, HAL_ADC_ERROR_INTERNAL);
 8002cc8:	6de3      	ldr	r3, [r4, #92]	@ 0x5c
 8002cca:	3a0f      	subs	r2, #15
 8002ccc:	4313      	orrs	r3, r2
 8002cce:	65e3      	str	r3, [r4, #92]	@ 0x5c
          return HAL_ERROR;
 8002cd0:	e7e6      	b.n	8002ca0 <ADC_ConversionStop+0x3c>
 8002cd2:	46c0      	nop			@ (mov r8, r8)
 8002cd4:	7fffffe8 	.word	0x7fffffe8

08002cd8 <ADC_Enable>:
  __IO uint32_t wait_loop_index = 0UL;
 8002cd8:	2300      	movs	r3, #0
  return ((READ_BIT(ADCx->CR, ADC_CR_ADEN) == (ADC_CR_ADEN)) ? 1UL : 0UL);
 8002cda:	2201      	movs	r2, #1
{
 8002cdc:	b5f0      	push	{r4, r5, r6, r7, lr}
 8002cde:	b083      	sub	sp, #12
  __IO uint32_t wait_loop_index = 0UL;
 8002ce0:	9301      	str	r3, [sp, #4]
  if (LL_ADC_IsEnabled(hadc->Instance) == 0UL)
 8002ce2:	6803      	ldr	r3, [r0, #0]
{
 8002ce4:	0004      	movs	r4, r0
 8002ce6:	6899      	ldr	r1, [r3, #8]
 8002ce8:	420a      	tst	r2, r1
 8002cea:	d11f      	bne.n	8002d2c <ADC_Enable+0x54>
    if ((hadc->Instance->CR & (ADC_CR_ADCAL | ADC_CR_ADSTP | ADC_CR_ADSTART | ADC_CR_ADDIS | ADC_CR_ADEN)) != 0UL)
 8002cec:	6898      	ldr	r0, [r3, #8]
 8002cee:	4928      	ldr	r1, [pc, #160]	@ (8002d90 <ADC_Enable+0xb8>)
 8002cf0:	4208      	tst	r0, r1
 8002cf2:	d11e      	bne.n	8002d32 <ADC_Enable+0x5a>
  MODIFY_REG(ADCx->CR,
 8002cf4:	6899      	ldr	r1, [r3, #8]
 8002cf6:	4827      	ldr	r0, [pc, #156]	@ (8002d94 <ADC_Enable+0xbc>)
 8002cf8:	4001      	ands	r1, r0
 8002cfa:	430a      	orrs	r2, r1
 8002cfc:	609a      	str	r2, [r3, #8]
  return (uint32_t)(READ_BIT(ADCxy_COMMON->CCR, ADC_CCR_VREFEN | ADC_CCR_TSEN | ADC_CCR_VBATEN));
 8002cfe:	4b26      	ldr	r3, [pc, #152]	@ (8002d98 <ADC_Enable+0xc0>)
 8002d00:	681b      	ldr	r3, [r3, #0]
    if ((LL_ADC_GetCommonPathInternalCh(__LL_ADC_COMMON_INSTANCE(hadc->Instance)) & LL_ADC_PATH_INTERNAL_TEMPSENSOR)
 8002d02:	021b      	lsls	r3, r3, #8
 8002d04:	d50f      	bpl.n	8002d26 <ADC_Enable+0x4e>
                         * ((SystemCoreClock / (100000UL * 2UL)) + 1UL));
 8002d06:	4b25      	ldr	r3, [pc, #148]	@ (8002d9c <ADC_Enable+0xc4>)
 8002d08:	4925      	ldr	r1, [pc, #148]	@ (8002da0 <ADC_Enable+0xc8>)
 8002d0a:	6818      	ldr	r0, [r3, #0]
 8002d0c:	f7fd f9fa 	bl	8000104 <__udivsi3>
 8002d10:	3001      	adds	r0, #1
      wait_loop_index = ((LL_ADC_DELAY_TEMPSENSOR_BUFFER_STAB_US / 10UL)
 8002d12:	9001      	str	r0, [sp, #4]
      while (wait_loop_index != 0UL)
 8002d14:	9b01      	ldr	r3, [sp, #4]
 8002d16:	2b00      	cmp	r3, #0
 8002d18:	d005      	beq.n	8002d26 <ADC_Enable+0x4e>
        wait_loop_index--;
 8002d1a:	9b01      	ldr	r3, [sp, #4]
 8002d1c:	3b01      	subs	r3, #1
 8002d1e:	9301      	str	r3, [sp, #4]
      while (wait_loop_index != 0UL)
 8002d20:	9b01      	ldr	r3, [sp, #4]
 8002d22:	2b00      	cmp	r3, #0
 8002d24:	d1f9      	bne.n	8002d1a <ADC_Enable+0x42>
    if (hadc->Init.LowPowerAutoPowerOff != ENABLE)
 8002d26:	7e63      	ldrb	r3, [r4, #25]
 8002d28:	2b01      	cmp	r3, #1
 8002d2a:	d10b      	bne.n	8002d44 <ADC_Enable+0x6c>
  return HAL_OK;
 8002d2c:	2000      	movs	r0, #0
}
 8002d2e:	b003      	add	sp, #12
 8002d30:	bdf0      	pop	{r4, r5, r6, r7, pc}
      SET_BIT(hadc->State, HAL_ADC_STATE_ERROR_INTERNAL);
 8002d32:	2110      	movs	r1, #16
 8002d34:	6da3      	ldr	r3, [r4, #88]	@ 0x58
      return HAL_ERROR;
 8002d36:	2001      	movs	r0, #1
      SET_BIT(hadc->State, HAL_ADC_STATE_ERROR_INTERNAL);
 8002d38:	430b      	orrs	r3, r1
 8002d3a:	65a3      	str	r3, [r4, #88]	@ 0x58
      SET_BIT(hadc->ErrorCode, HAL_ADC_ERROR_INTERNAL);
 8002d3c:	6de3      	ldr	r3, [r4, #92]	@ 0x5c
 8002d3e:	4313      	orrs	r3, r2
 8002d40:	65e3      	str	r3, [r4, #92]	@ 0x5c
      return HAL_ERROR;
 8002d42:	e7f4      	b.n	8002d2e <ADC_Enable+0x56>
      tickstart = HAL_GetTick();
 8002d44:	f7ff fc70 	bl	8002628 <HAL_GetTick>
      while (__HAL_ADC_GET_FLAG(hadc, ADC_FLAG_RDY) == 0UL)
 8002d48:	6823      	ldr	r3, [r4, #0]
      tickstart = HAL_GetTick();
 8002d4a:	0006      	movs	r6, r0
      while (__HAL_ADC_GET_FLAG(hadc, ADC_FLAG_RDY) == 0UL)
 8002d4c:	681a      	ldr	r2, [r3, #0]
 8002d4e:	07d2      	lsls	r2, r2, #31
 8002d50:	d4ec      	bmi.n	8002d2c <ADC_Enable+0x54>
  return ((READ_BIT(ADCx->CR, ADC_CR_ADEN) == (ADC_CR_ADEN)) ? 1UL : 0UL);
 8002d52:	2501      	movs	r5, #1
  MODIFY_REG(ADCx->CR,
 8002d54:	4f0f      	ldr	r7, [pc, #60]	@ (8002d94 <ADC_Enable+0xbc>)
  return ((READ_BIT(ADCx->CR, ADC_CR_ADEN) == (ADC_CR_ADEN)) ? 1UL : 0UL);
 8002d56:	689a      	ldr	r2, [r3, #8]
 8002d58:	4215      	tst	r5, r2
 8002d5a:	d103      	bne.n	8002d64 <ADC_Enable+0x8c>
  MODIFY_REG(ADCx->CR,
 8002d5c:	689a      	ldr	r2, [r3, #8]
 8002d5e:	403a      	ands	r2, r7
 8002d60:	432a      	orrs	r2, r5
 8002d62:	609a      	str	r2, [r3, #8]
        if ((HAL_GetTick() - tickstart) > ADC_ENABLE_TIMEOUT)
 8002d64:	f7ff fc60 	bl	8002628 <HAL_GetTick>
          if (__HAL_ADC_GET_FLAG(hadc, ADC_FLAG_RDY) == 0UL)
 8002d68:	6823      	ldr	r3, [r4, #0]
        if ((HAL_GetTick() - tickstart) > ADC_ENABLE_TIMEOUT)
 8002d6a:	1b80      	subs	r0, r0, r6
 8002d6c:	2802      	cmp	r0, #2
 8002d6e:	d902      	bls.n	8002d76 <ADC_Enable+0x9e>
          if (__HAL_ADC_GET_FLAG(hadc, ADC_FLAG_RDY) == 0UL)
 8002d70:	681a      	ldr	r2, [r3, #0]
 8002d72:	4215      	tst	r5, r2
 8002d74:	d003      	beq.n	8002d7e <ADC_Enable+0xa6>
      while (__HAL_ADC_GET_FLAG(hadc, ADC_FLAG_RDY) == 0UL)
 8002d76:	681a      	ldr	r2, [r3, #0]
 8002d78:	4215      	tst	r5, r2
 8002d7a:	d0ec      	beq.n	8002d56 <ADC_Enable+0x7e>
 8002d7c:	e7d6      	b.n	8002d2c <ADC_Enable+0x54>
            SET_BIT(hadc->State, HAL_ADC_STATE_ERROR_INTERNAL);
 8002d7e:	2210      	movs	r2, #16
 8002d80:	6da3      	ldr	r3, [r4, #88]	@ 0x58
      return HAL_ERROR;
 8002d82:	2001      	movs	r0, #1
            SET_BIT(hadc->State, HAL_ADC_STATE_ERROR_INTERNAL);
 8002d84:	4313      	orrs	r3, r2
 8002d86:	65a3      	str	r3, [r4, #88]	@ 0x58
            SET_BIT(hadc->ErrorCode, HAL_ADC_ERROR_INTERNAL);
 8002d88:	6de3      	ldr	r3, [r4, #92]	@ 0x5c
 8002d8a:	432b      	orrs	r3, r5
 8002d8c:	65e3      	str	r3, [r4, #92]	@ 0x5c
            return HAL_ERROR;
 8002d8e:	e7ce      	b.n	8002d2e <ADC_Enable+0x56>
 8002d90:	80000017 	.word	0x80000017
 8002d94:	7fffffe8 	.word	0x7fffffe8
 8002d98:	40012708 	.word	0x40012708
 8002d9c:	20000008 	.word	0x20000008
 8002da0:	00030d40 	.word	0x00030d40

08002da4 <HAL_ADC_Start_DMA>:
{
 8002da4:	b5f0      	push	{r4, r5, r6, r7, lr}
 8002da6:	46c6      	mov	lr, r8
  if (LL_ADC_REG_IsConversionOngoing(hadc->Instance) == 0UL)
 8002da8:	6805      	ldr	r5, [r0, #0]
{
 8002daa:	0004      	movs	r4, r0
  return ((READ_BIT(ADCx->CR, ADC_CR_ADSTART) == (ADC_CR_ADSTART)) ? 1UL : 0UL);
 8002dac:	68ae      	ldr	r6, [r5, #8]
 8002dae:	4688      	mov	r8, r1
 8002db0:	0017      	movs	r7, r2
    __HAL_LOCK(hadc);
 8002db2:	2002      	movs	r0, #2
{
 8002db4:	b500      	push	{lr}
 8002db6:	0776      	lsls	r6, r6, #29
 8002db8:	d414      	bmi.n	8002de4 <HAL_ADC_Start_DMA+0x40>
    __HAL_LOCK(hadc);
 8002dba:	2254      	movs	r2, #84	@ 0x54
 8002dbc:	5ca3      	ldrb	r3, [r4, r2]
 8002dbe:	2b01      	cmp	r3, #1
 8002dc0:	d010      	beq.n	8002de4 <HAL_ADC_Start_DMA+0x40>
 8002dc2:	2301      	movs	r3, #1
 8002dc4:	54a3      	strb	r3, [r4, r2]
    if ((hadc->Instance->CFGR1 & ADC_CFGR1_DMAEN) == 0UL)
 8002dc6:	68ea      	ldr	r2, [r5, #12]
 8002dc8:	4213      	tst	r3, r2
 8002dca:	d106      	bne.n	8002dda <HAL_ADC_Start_DMA+0x36>
  return ((READ_BIT(ADCx->CR, ADC_CR_ADEN) == (ADC_CR_ADEN)) ? 1UL : 0UL);
 8002dcc:	68aa      	ldr	r2, [r5, #8]
 8002dce:	4213      	tst	r3, r2
 8002dd0:	d131      	bne.n	8002e36 <HAL_ADC_Start_DMA+0x92>
      hadc->Instance->CFGR1 |= ADC_CFGR1_DMAEN;
 8002dd2:	2201      	movs	r2, #1
 8002dd4:	68eb      	ldr	r3, [r5, #12]
 8002dd6:	4313      	orrs	r3, r2
 8002dd8:	60eb      	str	r3, [r5, #12]
    tmp_hal_status = ADC_Enable(hadc);
 8002dda:	0020      	movs	r0, r4
 8002ddc:	f7ff ff7c 	bl	8002cd8 <ADC_Enable>
    if (tmp_hal_status == HAL_OK)
 8002de0:	2800      	cmp	r0, #0
 8002de2:	d002      	beq.n	8002dea <HAL_ADC_Start_DMA+0x46>
}
 8002de4:	bc80      	pop	{r7}
 8002de6:	46b8      	mov	r8, r7
 8002de8:	bdf0      	pop	{r4, r5, r6, r7, pc}
      ADC_STATE_CLR_SET(hadc->State,
 8002dea:	6da2      	ldr	r2, [r4, #88]	@ 0x58
 8002dec:	4b15      	ldr	r3, [pc, #84]	@ (8002e44 <HAL_ADC_Start_DMA+0xa0>)
      hadc->DMA_Handle->XferCpltCallback = ADC_DMAConvCplt;
 8002dee:	6d25      	ldr	r5, [r4, #80]	@ 0x50
      ADC_STATE_CLR_SET(hadc->State,
 8002df0:	401a      	ands	r2, r3
 8002df2:	2380      	movs	r3, #128	@ 0x80
 8002df4:	005b      	lsls	r3, r3, #1
 8002df6:	4313      	orrs	r3, r2
 8002df8:	65a3      	str	r3, [r4, #88]	@ 0x58
      hadc->DMA_Handle->XferCpltCallback = ADC_DMAConvCplt;
 8002dfa:	4b13      	ldr	r3, [pc, #76]	@ (8002e48 <HAL_ADC_Start_DMA+0xa4>)
      ADC_CLEAR_ERRORCODE(hadc);
 8002dfc:	65e0      	str	r0, [r4, #92]	@ 0x5c
      hadc->DMA_Handle->XferCpltCallback = ADC_DMAConvCplt;
 8002dfe:	62eb      	str	r3, [r5, #44]	@ 0x2c
      hadc->DMA_Handle->XferHalfCpltCallback = ADC_DMAHalfConvCplt;
 8002e00:	4b12      	ldr	r3, [pc, #72]	@ (8002e4c <HAL_ADC_Start_DMA+0xa8>)
      __HAL_ADC_ENABLE_IT(hadc, ADC_IT_OVR);
 8002e02:	2210      	movs	r2, #16
      hadc->DMA_Handle->XferHalfCpltCallback = ADC_DMAHalfConvCplt;
 8002e04:	632b      	str	r3, [r5, #48]	@ 0x30
      hadc->DMA_Handle->XferErrorCallback = ADC_DMAError;
 8002e06:	4b12      	ldr	r3, [pc, #72]	@ (8002e50 <HAL_ADC_Start_DMA+0xac>)
      __HAL_ADC_CLEAR_FLAG(hadc, (ADC_FLAG_EOC | ADC_FLAG_EOS | ADC_FLAG_OVR));
 8002e08:	6821      	ldr	r1, [r4, #0]
      hadc->DMA_Handle->XferErrorCallback = ADC_DMAError;
 8002e0a:	636b      	str	r3, [r5, #52]	@ 0x34
      __HAL_ADC_CLEAR_FLAG(hadc, (ADC_FLAG_EOC | ADC_FLAG_EOS | ADC_FLAG_OVR));
 8002e0c:	231c      	movs	r3, #28
 8002e0e:	600b      	str	r3, [r1, #0]
      __HAL_UNLOCK(hadc);
 8002e10:	3338      	adds	r3, #56	@ 0x38
 8002e12:	54e0      	strb	r0, [r4, r3]
      __HAL_ADC_ENABLE_IT(hadc, ADC_IT_OVR);
 8002e14:	684b      	ldr	r3, [r1, #4]
      tmp_hal_status = HAL_DMA_Start_IT(hadc->DMA_Handle, (uint32_t)&hadc->Instance->DR, (uint32_t)pData, Length);
 8002e16:	0028      	movs	r0, r5
      __HAL_ADC_ENABLE_IT(hadc, ADC_IT_OVR);
 8002e18:	4313      	orrs	r3, r2
 8002e1a:	604b      	str	r3, [r1, #4]
      tmp_hal_status = HAL_DMA_Start_IT(hadc->DMA_Handle, (uint32_t)&hadc->Instance->DR, (uint32_t)pData, Length);
 8002e1c:	4642      	mov	r2, r8
 8002e1e:	003b      	movs	r3, r7
 8002e20:	3140      	adds	r1, #64	@ 0x40
 8002e22:	f000 fa4d 	bl	80032c0 <HAL_DMA_Start_IT>
      LL_ADC_REG_StartConversion(hadc->Instance);
 8002e26:	6822      	ldr	r2, [r4, #0]
  MODIFY_REG(ADCx->CR,
 8002e28:	490a      	ldr	r1, [pc, #40]	@ (8002e54 <HAL_ADC_Start_DMA+0xb0>)
 8002e2a:	6893      	ldr	r3, [r2, #8]
 8002e2c:	400b      	ands	r3, r1
 8002e2e:	2104      	movs	r1, #4
 8002e30:	430b      	orrs	r3, r1
 8002e32:	6093      	str	r3, [r2, #8]
}
 8002e34:	e7d6      	b.n	8002de4 <HAL_ADC_Start_DMA+0x40>
  MODIFY_REG(ADCx->CR,
 8002e36:	68ab      	ldr	r3, [r5, #8]
 8002e38:	4a06      	ldr	r2, [pc, #24]	@ (8002e54 <HAL_ADC_Start_DMA+0xb0>)
 8002e3a:	4013      	ands	r3, r2
 8002e3c:	4303      	orrs	r3, r0
 8002e3e:	60ab      	str	r3, [r5, #8]
}
 8002e40:	e7c7      	b.n	8002dd2 <HAL_ADC_Start_DMA+0x2e>
 8002e42:	46c0      	nop			@ (mov r8, r8)
 8002e44:	fffff0fe 	.word	0xfffff0fe
 8002e48:	08002635 	.word	0x08002635
 8002e4c:	080026b5 	.word	0x080026b5
 8002e50:	080026c1 	.word	0x080026c1
 8002e54:	7fffffe8 	.word	0x7fffffe8

08002e58 <ADC_Disable>:
  return ((READ_BIT(ADCx->CR, ADC_CR_ADDIS) == (ADC_CR_ADDIS)) ? 1UL : 0UL);
 8002e58:	2202      	movs	r2, #2
{
 8002e5a:	b5f8      	push	{r3, r4, r5, r6, r7, lr}
  const uint32_t tmp_adc_is_disable_on_going = LL_ADC_IsDisableOngoing(hadc->Instance);
 8002e5c:	6803      	ldr	r3, [r0, #0]
{
 8002e5e:	0004      	movs	r4, r0
 8002e60:	6899      	ldr	r1, [r3, #8]
 8002e62:	420a      	tst	r2, r1
 8002e64:	d002      	beq.n	8002e6c <ADC_Disable+0x14>
  return ((READ_BIT(ADCx->CR, ADC_CR_ADEN) == (ADC_CR_ADEN)) ? 1UL : 0UL);
 8002e66:	689b      	ldr	r3, [r3, #8]
  return HAL_OK;
 8002e68:	2000      	movs	r0, #0
}
 8002e6a:	bdf8      	pop	{r3, r4, r5, r6, r7, pc}
 8002e6c:	2101      	movs	r1, #1
 8002e6e:	6898      	ldr	r0, [r3, #8]
 8002e70:	4201      	tst	r1, r0
 8002e72:	d0f9      	beq.n	8002e68 <ADC_Disable+0x10>
    if ((hadc->Instance->CR & (ADC_CR_ADSTART | ADC_CR_ADEN)) == ADC_CR_ADEN)
 8002e74:	2705      	movs	r7, #5
 8002e76:	6898      	ldr	r0, [r3, #8]
 8002e78:	4007      	ands	r7, r0
 8002e7a:	2f01      	cmp	r7, #1
 8002e7c:	d008      	beq.n	8002e90 <ADC_Disable+0x38>
      SET_BIT(hadc->State, HAL_ADC_STATE_ERROR_INTERNAL);
 8002e7e:	2210      	movs	r2, #16
 8002e80:	6da3      	ldr	r3, [r4, #88]	@ 0x58
      return HAL_ERROR;
 8002e82:	2001      	movs	r0, #1
      SET_BIT(hadc->State, HAL_ADC_STATE_ERROR_INTERNAL);
 8002e84:	4313      	orrs	r3, r2
 8002e86:	65a3      	str	r3, [r4, #88]	@ 0x58
      SET_BIT(hadc->ErrorCode, HAL_ADC_ERROR_INTERNAL);
 8002e88:	6de3      	ldr	r3, [r4, #92]	@ 0x5c
 8002e8a:	430b      	orrs	r3, r1
 8002e8c:	65e3      	str	r3, [r4, #92]	@ 0x5c
      return HAL_ERROR;
 8002e8e:	e7ec      	b.n	8002e6a <ADC_Disable+0x12>
  MODIFY_REG(ADCx->CR,
 8002e90:	6899      	ldr	r1, [r3, #8]
 8002e92:	4812      	ldr	r0, [pc, #72]	@ (8002edc <ADC_Disable+0x84>)
        if ((hadc->Instance->CR & ADC_CR_ADEN) != 0UL)
 8002e94:	2501      	movs	r5, #1
 8002e96:	4001      	ands	r1, r0
 8002e98:	430a      	orrs	r2, r1
 8002e9a:	609a      	str	r2, [r3, #8]
      __HAL_ADC_CLEAR_FLAG(hadc, (ADC_FLAG_EOSMP | ADC_FLAG_RDY));
 8002e9c:	2203      	movs	r2, #3
 8002e9e:	601a      	str	r2, [r3, #0]
    tickstart = HAL_GetTick();
 8002ea0:	f7ff fbc2 	bl	8002628 <HAL_GetTick>
    while ((hadc->Instance->CR & ADC_CR_ADEN) != 0UL)
 8002ea4:	6823      	ldr	r3, [r4, #0]
    tickstart = HAL_GetTick();
 8002ea6:	0006      	movs	r6, r0
    while ((hadc->Instance->CR & ADC_CR_ADEN) != 0UL)
 8002ea8:	689b      	ldr	r3, [r3, #8]
 8002eaa:	421f      	tst	r7, r3
 8002eac:	d0dc      	beq.n	8002e68 <ADC_Disable+0x10>
      if ((HAL_GetTick() - tickstart) > ADC_DISABLE_TIMEOUT)
 8002eae:	f7ff fbbb 	bl	8002628 <HAL_GetTick>
        if ((hadc->Instance->CR & ADC_CR_ADEN) != 0UL)
 8002eb2:	6823      	ldr	r3, [r4, #0]
      if ((HAL_GetTick() - tickstart) > ADC_DISABLE_TIMEOUT)
 8002eb4:	1b80      	subs	r0, r0, r6
 8002eb6:	2802      	cmp	r0, #2
 8002eb8:	d902      	bls.n	8002ec0 <ADC_Disable+0x68>
        if ((hadc->Instance->CR & ADC_CR_ADEN) != 0UL)
 8002eba:	689a      	ldr	r2, [r3, #8]
 8002ebc:	4215      	tst	r5, r2
 8002ebe:	d103      	bne.n	8002ec8 <ADC_Disable+0x70>
    while ((hadc->Instance->CR & ADC_CR_ADEN) != 0UL)
 8002ec0:	689b      	ldr	r3, [r3, #8]
 8002ec2:	421d      	tst	r5, r3
 8002ec4:	d1f3      	bne.n	8002eae <ADC_Disable+0x56>
 8002ec6:	e7cf      	b.n	8002e68 <ADC_Disable+0x10>
          SET_BIT(hadc->State, HAL_ADC_STATE_ERROR_INTERNAL);
 8002ec8:	2210      	movs	r2, #16
 8002eca:	6da3      	ldr	r3, [r4, #88]	@ 0x58
      return HAL_ERROR;
 8002ecc:	2001      	movs	r0, #1
          SET_BIT(hadc->State, HAL_ADC_STATE_ERROR_INTERNAL);
 8002ece:	4313      	orrs	r3, r2
 8002ed0:	65a3      	str	r3, [r4, #88]	@ 0x58
          SET_BIT(hadc->ErrorCode, HAL_ADC_ERROR_INTERNAL);
 8002ed2:	6de3      	ldr	r3, [r4, #92]	@ 0x5c
 8002ed4:	432b      	orrs	r3, r5
 8002ed6:	65e3      	str	r3, [r4, #92]	@ 0x5c
          return HAL_ERROR;
 8002ed8:	e7c7      	b.n	8002e6a <ADC_Disable+0x12>
 8002eda:	46c0      	nop			@ (mov r8, r8)
 8002edc:	7fffffe8 	.word	0x7fffffe8

08002ee0 <HAL_ADC_Stop_DMA>:
  __HAL_LOCK(hadc);
 8002ee0:	2354      	movs	r3, #84	@ 0x54
{
 8002ee2:	b570      	push	{r4, r5, r6, lr}
  __HAL_LOCK(hadc);
 8002ee4:	5cc2      	ldrb	r2, [r0, r3]
{
 8002ee6:	0004      	movs	r4, r0
  __HAL_LOCK(hadc);
 8002ee8:	2a01      	cmp	r2, #1
 8002eea:	d025      	beq.n	8002f38 <HAL_ADC_Stop_DMA+0x58>
 8002eec:	2201      	movs	r2, #1
 8002eee:	54c2      	strb	r2, [r0, r3]
  tmp_hal_status = ADC_ConversionStop(hadc);
 8002ef0:	f7ff feb8 	bl	8002c64 <ADC_ConversionStop>
 8002ef4:	1e05      	subs	r5, r0, #0
  if (tmp_hal_status == HAL_OK)
 8002ef6:	d11a      	bne.n	8002f2e <HAL_ADC_Stop_DMA+0x4e>
    if (hadc->DMA_Handle->State == HAL_DMA_STATE_BUSY)
 8002ef8:	2325      	movs	r3, #37	@ 0x25
 8002efa:	6d20      	ldr	r0, [r4, #80]	@ 0x50
 8002efc:	5cc3      	ldrb	r3, [r0, r3]
 8002efe:	2b02      	cmp	r3, #2
 8002f00:	d01c      	beq.n	8002f3c <HAL_ADC_Stop_DMA+0x5c>
    __HAL_ADC_DISABLE_IT(hadc, ADC_IT_OVR);
 8002f02:	2110      	movs	r1, #16
 8002f04:	6822      	ldr	r2, [r4, #0]
      tmp_hal_status = ADC_Disable(hadc);
 8002f06:	0020      	movs	r0, r4
    __HAL_ADC_DISABLE_IT(hadc, ADC_IT_OVR);
 8002f08:	6853      	ldr	r3, [r2, #4]
 8002f0a:	438b      	bics	r3, r1
 8002f0c:	6053      	str	r3, [r2, #4]
      tmp_hal_status = ADC_Disable(hadc);
 8002f0e:	f7ff ffa3 	bl	8002e58 <ADC_Disable>
 8002f12:	1e05      	subs	r5, r0, #0
    if (tmp_hal_status == HAL_OK)
 8002f14:	d106      	bne.n	8002f24 <HAL_ADC_Stop_DMA+0x44>
      ADC_STATE_CLR_SET(hadc->State,
 8002f16:	6da3      	ldr	r3, [r4, #88]	@ 0x58
 8002f18:	4a13      	ldr	r2, [pc, #76]	@ (8002f68 <HAL_ADC_Stop_DMA+0x88>)
 8002f1a:	4013      	ands	r3, r2
 8002f1c:	3204      	adds	r2, #4
 8002f1e:	32ff      	adds	r2, #255	@ 0xff
 8002f20:	4313      	orrs	r3, r2
 8002f22:	65a3      	str	r3, [r4, #88]	@ 0x58
    CLEAR_BIT(hadc->Instance->CFGR1, ADC_CFGR1_DMAEN);
 8002f24:	2101      	movs	r1, #1
 8002f26:	6822      	ldr	r2, [r4, #0]
 8002f28:	68d3      	ldr	r3, [r2, #12]
 8002f2a:	438b      	bics	r3, r1
 8002f2c:	60d3      	str	r3, [r2, #12]
  __HAL_UNLOCK(hadc);
 8002f2e:	2354      	movs	r3, #84	@ 0x54
 8002f30:	2200      	movs	r2, #0
 8002f32:	54e2      	strb	r2, [r4, r3]
}
 8002f34:	0028      	movs	r0, r5
 8002f36:	bd70      	pop	{r4, r5, r6, pc}
  __HAL_LOCK(hadc);
 8002f38:	2502      	movs	r5, #2
 8002f3a:	e7fb      	b.n	8002f34 <HAL_ADC_Stop_DMA+0x54>
      tmp_hal_status = HAL_DMA_Abort(hadc->DMA_Handle);
 8002f3c:	f000 fa28 	bl	8003390 <HAL_DMA_Abort>
 8002f40:	1e05      	subs	r5, r0, #0
      if (tmp_hal_status != HAL_OK)
 8002f42:	d0de      	beq.n	8002f02 <HAL_ADC_Stop_DMA+0x22>
        SET_BIT(hadc->State, HAL_ADC_STATE_ERROR_DMA);
 8002f44:	2240      	movs	r2, #64	@ 0x40
    __HAL_ADC_DISABLE_IT(hadc, ADC_IT_OVR);
 8002f46:	2110      	movs	r1, #16
        SET_BIT(hadc->State, HAL_ADC_STATE_ERROR_DMA);
 8002f48:	6da3      	ldr	r3, [r4, #88]	@ 0x58
      (void)ADC_Disable(hadc);
 8002f4a:	0020      	movs	r0, r4
        SET_BIT(hadc->State, HAL_ADC_STATE_ERROR_DMA);
 8002f4c:	4313      	orrs	r3, r2
    __HAL_ADC_DISABLE_IT(hadc, ADC_IT_OVR);
 8002f4e:	6822      	ldr	r2, [r4, #0]
        SET_BIT(hadc->State, HAL_ADC_STATE_ERROR_DMA);
 8002f50:	65a3      	str	r3, [r4, #88]	@ 0x58
    __HAL_ADC_DISABLE_IT(hadc, ADC_IT_OVR);
 8002f52:	6853      	ldr	r3, [r2, #4]
 8002f54:	438b      	bics	r3, r1
 8002f56:	6053      	str	r3, [r2, #4]
      (void)ADC_Disable(hadc);
 8002f58:	f7ff ff7e 	bl	8002e58 <ADC_Disable>
    CLEAR_BIT(hadc->Instance->CFGR1, ADC_CFGR1_DMAEN);
 8002f5c:	2101      	movs	r1, #1
 8002f5e:	6822      	ldr	r2, [r4, #0]
 8002f60:	68d3      	ldr	r3, [r2, #12]
 8002f62:	438b      	bics	r3, r1
 8002f64:	60d3      	str	r3, [r2, #12]
 8002f66:	e7e2      	b.n	8002f2e <HAL_ADC_Stop_DMA+0x4e>
 8002f68:	fffffefe 	.word	0xfffffefe

08002f6c <HAL_ADCEx_Calibration_Start>:
  *         HAL_ADC_GetValue() (value on 7 bits: from DR[6;0]).
  * @param  hadc       ADC handle
  * @retval HAL status
  */
HAL_StatusTypeDef HAL_ADCEx_Calibration_Start(ADC_HandleTypeDef *hadc)
{
 8002f6c:	b5f0      	push	{r4, r5, r6, r7, lr}
 8002f6e:	46de      	mov	lr, fp
 8002f70:	4657      	mov	r7, sl
 8002f72:	464e      	mov	r6, r9
 8002f74:	4645      	mov	r5, r8
  HAL_StatusTypeDef tmp_hal_status;
  __IO uint32_t wait_loop_index = 0UL;
 8002f76:	2300      	movs	r3, #0
{
 8002f78:	b5e0      	push	{r5, r6, r7, lr}
 8002f7a:	b085      	sub	sp, #20
  __IO uint32_t wait_loop_index = 0UL;
 8002f7c:	9302      	str	r3, [sp, #8]
  __IO uint32_t delay_cpu_cycles;

  /* Check the parameters */
  assert_param(IS_ADC_ALL_INSTANCE(hadc->Instance));

  __HAL_LOCK(hadc);
 8002f7e:	3354      	adds	r3, #84	@ 0x54
 8002f80:	5cc2      	ldrb	r2, [r0, r3]
{
 8002f82:	0004      	movs	r4, r0
  __HAL_LOCK(hadc);
 8002f84:	2a01      	cmp	r2, #1
 8002f86:	d100      	bne.n	8002f8a <HAL_ADCEx_Calibration_Start+0x1e>
 8002f88:	e0af      	b.n	80030ea <HAL_ADCEx_Calibration_Start+0x17e>
 8002f8a:	2701      	movs	r7, #1
 8002f8c:	54c7      	strb	r7, [r0, r3]

  /* Calibration prerequisite: ADC must be disabled. */

  /* Disable the ADC (if not already disabled) */
  tmp_hal_status = ADC_Disable(hadc);
 8002f8e:	f7ff ff63 	bl	8002e58 <ADC_Disable>
  return ((READ_BIT(ADCx->CR, ADC_CR_ADEN) == (ADC_CR_ADEN)) ? 1UL : 0UL);
 8002f92:	003d      	movs	r5, r7

  /* Check if ADC is effectively disabled */
  if (LL_ADC_IsEnabled(hadc->Instance) == 0UL)
 8002f94:	6823      	ldr	r3, [r4, #0]
  tmp_hal_status = ADC_Disable(hadc);
 8002f96:	9001      	str	r0, [sp, #4]
 8002f98:	689a      	ldr	r2, [r3, #8]
 8002f9a:	4015      	ands	r5, r2
 8002f9c:	4217      	tst	r7, r2
 8002f9e:	d136      	bne.n	800300e <HAL_ADCEx_Calibration_Start+0xa2>
  {
    /* Set ADC state */
    ADC_STATE_CLR_SET(hadc->State,
 8002fa0:	6da2      	ldr	r2, [r4, #88]	@ 0x58
 8002fa2:	4953      	ldr	r1, [pc, #332]	@ (80030f0 <HAL_ADCEx_Calibration_Start+0x184>)
  MODIFY_REG(ADCx->CR,
 8002fa4:	2080      	movs	r0, #128	@ 0x80
 8002fa6:	400a      	ands	r2, r1
 8002fa8:	3106      	adds	r1, #6
 8002faa:	31ff      	adds	r1, #255	@ 0xff
 8002fac:	430a      	orrs	r2, r1
 8002fae:	65a2      	str	r2, [r4, #88]	@ 0x58
    /* Note: Specificity of this STM32 series: Calibration factor is          */
    /*       available in data register and also transferred by DMA.          */
    /*       To not insert ADC calibration factor among ADC conversion data   */
    /*       in array variable, DMA transfer must be disabled during          */
    /*       calibration.                                                     */
    backup_setting_cfgr1 = READ_BIT(hadc->Instance->CFGR1, ADC_CFGR1_DMAEN | ADC_CFGR1_DMACFG | ADC_CFGR1_AUTOFF);
 8002fb0:	68da      	ldr	r2, [r3, #12]
    CLEAR_BIT(hadc->Instance->CFGR1, ADC_CFGR1_DMAEN | ADC_CFGR1_DMACFG | ADC_CFGR1_AUTOFF);
 8002fb2:	4950      	ldr	r1, [pc, #320]	@ (80030f4 <HAL_ADCEx_Calibration_Start+0x188>)
    backup_setting_cfgr1 = READ_BIT(hadc->Instance->CFGR1, ADC_CFGR1_DMAEN | ADC_CFGR1_DMACFG | ADC_CFGR1_AUTOFF);
 8002fb4:	4693      	mov	fp, r2
    CLEAR_BIT(hadc->Instance->CFGR1, ADC_CFGR1_DMAEN | ADC_CFGR1_DMACFG | ADC_CFGR1_AUTOFF);
 8002fb6:	68da      	ldr	r2, [r3, #12]
  return (uint32_t)(READ_BIT(ADCx->CALFACT, ADC_CALFACT_CALFACT));
 8002fb8:	277f      	movs	r7, #127	@ 0x7f
 8002fba:	400a      	ands	r2, r1
 8002fbc:	60da      	str	r2, [r3, #12]
  MODIFY_REG(ADCx->CR,
 8002fbe:	4a4e      	ldr	r2, [pc, #312]	@ (80030f8 <HAL_ADCEx_Calibration_Start+0x18c>)
 8002fc0:	2108      	movs	r1, #8
 8002fc2:	4694      	mov	ip, r2

      /* Wait for calibration completion */
      while (LL_ADC_IsCalibrationOnGoing(hadc->Instance) != 0UL)
      {
        wait_loop_index++;
        if (wait_loop_index >= ADC_CALIBRATION_TIMEOUT)
 8002fc4:	4a4d      	ldr	r2, [pc, #308]	@ (80030fc <HAL_ADCEx_Calibration_Start+0x190>)
 8002fc6:	0600      	lsls	r0, r0, #24
 8002fc8:	4692      	mov	sl, r2
  return (uint32_t)(READ_BIT(ADCx->CALFACT, ADC_CALFACT_CALFACT));
 8002fca:	22b4      	movs	r2, #180	@ 0xb4
 8002fcc:	4691      	mov	r9, r2
 8002fce:	e006      	b.n	8002fde <HAL_ADCEx_Calibration_Start+0x72>
 8002fd0:	464a      	mov	r2, r9
 8002fd2:	589a      	ldr	r2, [r3, r2]
    for (calibration_index = 0UL; calibration_index < 8UL; calibration_index++)
 8002fd4:	3901      	subs	r1, #1
 8002fd6:	403a      	ands	r2, r7

          return HAL_ERROR;
        }
      }

      calibration_factor_accumulated += LL_ADC_GetCalibrationFactor(hadc->Instance);
 8002fd8:	18ad      	adds	r5, r5, r2
    for (calibration_index = 0UL; calibration_index < 8UL; calibration_index++)
 8002fda:	2900      	cmp	r1, #0
 8002fdc:	d026      	beq.n	800302c <HAL_ADCEx_Calibration_Start+0xc0>
  MODIFY_REG(ADCx->CR,
 8002fde:	4666      	mov	r6, ip
 8002fe0:	689a      	ldr	r2, [r3, #8]
 8002fe2:	4032      	ands	r2, r6
 8002fe4:	4302      	orrs	r2, r0
 8002fe6:	609a      	str	r2, [r3, #8]
  return ((READ_BIT(ADCx->CR, ADC_CR_ADCAL) == (ADC_CR_ADCAL)) ? 1UL : 0UL);
 8002fe8:	689a      	ldr	r2, [r3, #8]
 8002fea:	2a00      	cmp	r2, #0
 8002fec:	daf0      	bge.n	8002fd0 <HAL_ADCEx_Calibration_Start+0x64>
        wait_loop_index++;
 8002fee:	9a02      	ldr	r2, [sp, #8]
 8002ff0:	3201      	adds	r2, #1
 8002ff2:	9202      	str	r2, [sp, #8]
        if (wait_loop_index >= ADC_CALIBRATION_TIMEOUT)
 8002ff4:	9a02      	ldr	r2, [sp, #8]
 8002ff6:	4552      	cmp	r2, sl
 8002ff8:	d9f6      	bls.n	8002fe8 <HAL_ADCEx_Calibration_Start+0x7c>
          ADC_STATE_CLR_SET(hadc->State,
 8002ffa:	2212      	movs	r2, #18
 8002ffc:	6da3      	ldr	r3, [r4, #88]	@ 0x58
 8002ffe:	4393      	bics	r3, r2
 8003000:	3a02      	subs	r2, #2
 8003002:	4313      	orrs	r3, r2
 8003004:	65a3      	str	r3, [r4, #88]	@ 0x58
          __HAL_UNLOCK(hadc);
 8003006:	2200      	movs	r2, #0
 8003008:	2354      	movs	r3, #84	@ 0x54
 800300a:	54e2      	strb	r2, [r4, r3]
          return HAL_ERROR;
 800300c:	e059      	b.n	80030c2 <HAL_ADCEx_Calibration_Start+0x156>
                      HAL_ADC_STATE_BUSY_INTERNAL,
                      HAL_ADC_STATE_READY);
  }
  else
  {
    SET_BIT(hadc->State, HAL_ADC_STATE_ERROR_INTERNAL);
 800300e:	2210      	movs	r2, #16
 8003010:	6da3      	ldr	r3, [r4, #88]	@ 0x58
 8003012:	4313      	orrs	r3, r2
 8003014:	65a3      	str	r3, [r4, #88]	@ 0x58

    /* Note: No need to update variable "tmp_hal_status" here: already set    */
    /*       to state "HAL_ERROR" by function disabling the ADC.              */
  }

  __HAL_UNLOCK(hadc);
 8003016:	2354      	movs	r3, #84	@ 0x54
 8003018:	2200      	movs	r2, #0
 800301a:	54e2      	strb	r2, [r4, r3]

  return tmp_hal_status;
}
 800301c:	9801      	ldr	r0, [sp, #4]
 800301e:	b005      	add	sp, #20
 8003020:	bcf0      	pop	{r4, r5, r6, r7}
 8003022:	46bb      	mov	fp, r7
 8003024:	46b2      	mov	sl, r6
 8003026:	46a9      	mov	r9, r5
 8003028:	46a0      	mov	r8, r4
 800302a:	bdf0      	pop	{r4, r5, r6, r7, pc}
  MODIFY_REG(ADCx->CR,
 800302c:	689a      	ldr	r2, [r3, #8]
 800302e:	4832      	ldr	r0, [pc, #200]	@ (80030f8 <HAL_ADCEx_Calibration_Start+0x18c>)
    calibration_factor_accumulated /= calibration_index;
 8003030:	08e9      	lsrs	r1, r5, #3
 8003032:	4002      	ands	r2, r0
 8003034:	2001      	movs	r0, #1
 8003036:	4302      	orrs	r2, r0
 8003038:	609a      	str	r2, [r3, #8]
    if (LL_ADC_GetClock(hadc->Instance) == LL_ADC_CLOCK_ASYNC)
 800303a:	2280      	movs	r2, #128	@ 0x80
  return (uint32_t)(READ_BIT(ADCx->CFGR2, ADC_CFGR2_CKMODE));
 800303c:	691d      	ldr	r5, [r3, #16]
 800303e:	05d2      	lsls	r2, r2, #23
 8003040:	4295      	cmp	r5, r2
 8003042:	d218      	bcs.n	8003076 <HAL_ADCEx_Calibration_Start+0x10a>
  return (uint32_t)(READ_BIT(ADCxy_COMMON->CCR, ADC_CCR_PRESC));
 8003044:	25f0      	movs	r5, #240	@ 0xf0
 8003046:	4a2e      	ldr	r2, [pc, #184]	@ (8003100 <HAL_ADCEx_Calibration_Start+0x194>)
 8003048:	03ad      	lsls	r5, r5, #14
 800304a:	6812      	ldr	r2, [r2, #0]
 800304c:	402a      	ands	r2, r5
      if (adc_clk_async_presc >= LL_ADC_CLOCK_ASYNC_DIV16)
 800304e:	25e0      	movs	r5, #224	@ 0xe0
 8003050:	036d      	lsls	r5, r5, #13
 8003052:	42aa      	cmp	r2, r5
 8003054:	d30f      	bcc.n	8003076 <HAL_ADCEx_Calibration_Start+0x10a>
        delay_cpu_cycles = (1UL << ((adc_clk_async_presc >> ADC_CCR_PRESC_Pos) - 3UL));
 8003056:	0c92      	lsrs	r2, r2, #18
 8003058:	3a03      	subs	r2, #3
 800305a:	4090      	lsls	r0, r2
 800305c:	9003      	str	r0, [sp, #12]
        delay_cpu_cycles >>= 1UL;
 800305e:	9a03      	ldr	r2, [sp, #12]
 8003060:	0852      	lsrs	r2, r2, #1
 8003062:	9203      	str	r2, [sp, #12]
        while (delay_cpu_cycles != 0UL)
 8003064:	9a03      	ldr	r2, [sp, #12]
 8003066:	2a00      	cmp	r2, #0
 8003068:	d005      	beq.n	8003076 <HAL_ADCEx_Calibration_Start+0x10a>
          delay_cpu_cycles--;
 800306a:	9a03      	ldr	r2, [sp, #12]
 800306c:	3a01      	subs	r2, #1
 800306e:	9203      	str	r2, [sp, #12]
        while (delay_cpu_cycles != 0UL)
 8003070:	9a03      	ldr	r2, [sp, #12]
 8003072:	2a00      	cmp	r2, #0
 8003074:	d1f9      	bne.n	800306a <HAL_ADCEx_Calibration_Start+0xfe>
  MODIFY_REG(ADCx->CALFACT,
 8003076:	22b4      	movs	r2, #180	@ 0xb4
 8003078:	207f      	movs	r0, #127	@ 0x7f
 800307a:	589d      	ldr	r5, [r3, r2]
 800307c:	4385      	bics	r5, r0
 800307e:	430d      	orrs	r5, r1
 8003080:	509d      	str	r5, [r3, r2]
  MODIFY_REG(ADCx->CR,
 8003082:	689a      	ldr	r2, [r3, #8]
 8003084:	491c      	ldr	r1, [pc, #112]	@ (80030f8 <HAL_ADCEx_Calibration_Start+0x18c>)
 8003086:	400a      	ands	r2, r1
 8003088:	2102      	movs	r1, #2
 800308a:	430a      	orrs	r2, r1
 800308c:	609a      	str	r2, [r3, #8]
    tickstart = HAL_GetTick();
 800308e:	f7ff facb 	bl	8002628 <HAL_GetTick>
    while (LL_ADC_IsEnabled(hadc->Instance) != 0UL)
 8003092:	6823      	ldr	r3, [r4, #0]
    tickstart = HAL_GetTick();
 8003094:	0005      	movs	r5, r0
  return ((READ_BIT(ADCx->CR, ADC_CR_ADEN) == (ADC_CR_ADEN)) ? 1UL : 0UL);
 8003096:	689a      	ldr	r2, [r3, #8]
 8003098:	07d2      	lsls	r2, r2, #31
 800309a:	d519      	bpl.n	80030d0 <HAL_ADCEx_Calibration_Start+0x164>
 800309c:	2301      	movs	r3, #1
 800309e:	4698      	mov	r8, r3
      if ((HAL_GetTick() - tickstart) > ADC_DISABLE_TIMEOUT)
 80030a0:	f7ff fac2 	bl	8002628 <HAL_GetTick>
        if (LL_ADC_IsEnabled(hadc->Instance) != 0UL)
 80030a4:	6823      	ldr	r3, [r4, #0]
      if ((HAL_GetTick() - tickstart) > ADC_DISABLE_TIMEOUT)
 80030a6:	1b40      	subs	r0, r0, r5
 80030a8:	2802      	cmp	r0, #2
 80030aa:	d90d      	bls.n	80030c8 <HAL_ADCEx_Calibration_Start+0x15c>
 80030ac:	2201      	movs	r2, #1
 80030ae:	6899      	ldr	r1, [r3, #8]
 80030b0:	420a      	tst	r2, r1
 80030b2:	d009      	beq.n	80030c8 <HAL_ADCEx_Calibration_Start+0x15c>
          SET_BIT(hadc->State, HAL_ADC_STATE_ERROR_INTERNAL);
 80030b4:	2110      	movs	r1, #16
 80030b6:	6da3      	ldr	r3, [r4, #88]	@ 0x58
 80030b8:	430b      	orrs	r3, r1
 80030ba:	65a3      	str	r3, [r4, #88]	@ 0x58
          SET_BIT(hadc->ErrorCode, HAL_ADC_ERROR_INTERNAL);
 80030bc:	6de3      	ldr	r3, [r4, #92]	@ 0x5c
 80030be:	4313      	orrs	r3, r2
 80030c0:	65e3      	str	r3, [r4, #92]	@ 0x5c
          return HAL_ERROR;
 80030c2:	2301      	movs	r3, #1
 80030c4:	9301      	str	r3, [sp, #4]
 80030c6:	e7a9      	b.n	800301c <HAL_ADCEx_Calibration_Start+0xb0>
 80030c8:	4641      	mov	r1, r8
 80030ca:	689a      	ldr	r2, [r3, #8]
 80030cc:	4211      	tst	r1, r2
 80030ce:	d1e7      	bne.n	80030a0 <HAL_ADCEx_Calibration_Start+0x134>
    backup_setting_cfgr1 = READ_BIT(hadc->Instance->CFGR1, ADC_CFGR1_DMAEN | ADC_CFGR1_DMACFG | ADC_CFGR1_AUTOFF);
 80030d0:	465f      	mov	r7, fp
 80030d2:	490c      	ldr	r1, [pc, #48]	@ (8003104 <HAL_ADCEx_Calibration_Start+0x198>)
    SET_BIT(hadc->Instance->CFGR1, backup_setting_cfgr1);
 80030d4:	68da      	ldr	r2, [r3, #12]
    backup_setting_cfgr1 = READ_BIT(hadc->Instance->CFGR1, ADC_CFGR1_DMAEN | ADC_CFGR1_DMACFG | ADC_CFGR1_AUTOFF);
 80030d6:	400f      	ands	r7, r1
    SET_BIT(hadc->Instance->CFGR1, backup_setting_cfgr1);
 80030d8:	4317      	orrs	r7, r2
    ADC_STATE_CLR_SET(hadc->State,
 80030da:	2203      	movs	r2, #3
    SET_BIT(hadc->Instance->CFGR1, backup_setting_cfgr1);
 80030dc:	60df      	str	r7, [r3, #12]
    ADC_STATE_CLR_SET(hadc->State,
 80030de:	6da3      	ldr	r3, [r4, #88]	@ 0x58
 80030e0:	4393      	bics	r3, r2
 80030e2:	3a02      	subs	r2, #2
 80030e4:	4313      	orrs	r3, r2
 80030e6:	65a3      	str	r3, [r4, #88]	@ 0x58
 80030e8:	e795      	b.n	8003016 <HAL_ADCEx_Calibration_Start+0xaa>
  __HAL_LOCK(hadc);
 80030ea:	2302      	movs	r3, #2
 80030ec:	9301      	str	r3, [sp, #4]
 80030ee:	e795      	b.n	800301c <HAL_ADCEx_Calibration_Start+0xb0>
 80030f0:	fffffefd 	.word	0xfffffefd
 80030f4:	ffff7ffc 	.word	0xffff7ffc
 80030f8:	7fffffe8 	.word	0x7fffffe8
 80030fc:	0002f1ff 	.word	0x0002f1ff
 8003100:	40012708 	.word	0x40012708
 8003104:	00008003 	.word	0x00008003

08003108 <HAL_ADCEx_LevelOutOfWindow2Callback>:
  UNUSED(hadc);

  /* NOTE : This function should not be modified. When the callback is needed,
            function HAL_ADCEx_LevelOutOfWindow2Callback must be implemented in the user file.
  */
}
 8003108:	4770      	bx	lr
 800310a:	46c0      	nop			@ (mov r8, r8)

0800310c <HAL_ADCEx_LevelOutOfWindow3Callback>:
/**
  * @brief  Analog watchdog 3 callback in non-blocking mode.
  * @param hadc ADC handle
  * @retval None
  */
__weak void HAL_ADCEx_LevelOutOfWindow3Callback(ADC_HandleTypeDef *hadc)
 800310c:	4770      	bx	lr
 800310e:	46c0      	nop			@ (mov r8, r8)

08003110 <HAL_ADCEx_EndOfSamplingCallback>:
/**
  * @brief  End Of Sampling callback in non-blocking mode.
  * @param hadc ADC handle
  * @retval None
  */
__weak void HAL_ADCEx_EndOfSamplingCallback(ADC_HandleTypeDef *hadc)
 8003110:	4770      	bx	lr
 8003112:	46c0      	nop			@ (mov r8, r8)

08003114 <HAL_NVIC_SetPriority>:
 */
__STATIC_INLINE void __NVIC_SetPriority(IRQn_Type IRQn, uint32_t priority)
{
  if ((int32_t)(IRQn) >= 0)
  {
    NVIC->IP[_IP_IDX(IRQn)]  = ((uint32_t)(NVIC->IP[_IP_IDX(IRQn)]  & ~(0xFFUL << _BIT_SHIFT(IRQn))) |
 8003114:	22ff      	movs	r2, #255	@ 0xff
 8003116:	2303      	movs	r3, #3
  *         with stm32g0xx devices, this parameter is a dummy value and it is ignored, because
  *         no subpriority supported in Cortex M0+ based products.
  * @retval None
  */
void HAL_NVIC_SetPriority(IRQn_Type IRQn, uint32_t PreemptPriority, uint32_t SubPriority)
{
 8003118:	b510      	push	{r4, lr}
 800311a:	0014      	movs	r4, r2
 800311c:	4003      	ands	r3, r0
 800311e:	00db      	lsls	r3, r3, #3
 8003120:	409c      	lsls	r4, r3
       (((priority << (8U - __NVIC_PRIO_BITS)) & (uint32_t)0xFFUL) << _BIT_SHIFT(IRQn)));
 8003122:	0189      	lsls	r1, r1, #6
 8003124:	400a      	ands	r2, r1
    NVIC->IP[_IP_IDX(IRQn)]  = ((uint32_t)(NVIC->IP[_IP_IDX(IRQn)]  & ~(0xFFUL << _BIT_SHIFT(IRQn))) |
 8003126:	43e4      	mvns	r4, r4
       (((priority << (8U - __NVIC_PRIO_BITS)) & (uint32_t)0xFFUL) << _BIT_SHIFT(IRQn)));
 8003128:	409a      	lsls	r2, r3
  if ((int32_t)(IRQn) >= 0)
 800312a:	2800      	cmp	r0, #0
 800312c:	db0b      	blt.n	8003146 <HAL_NVIC_SetPriority+0x32>
    NVIC->IP[_IP_IDX(IRQn)]  = ((uint32_t)(NVIC->IP[_IP_IDX(IRQn)]  & ~(0xFFUL << _BIT_SHIFT(IRQn))) |
 800312e:	4b0c      	ldr	r3, [pc, #48]	@ (8003160 <HAL_NVIC_SetPriority+0x4c>)
 8003130:	21c0      	movs	r1, #192	@ 0xc0
 8003132:	469c      	mov	ip, r3
 8003134:	0880      	lsrs	r0, r0, #2
 8003136:	0080      	lsls	r0, r0, #2
 8003138:	4460      	add	r0, ip
 800313a:	0089      	lsls	r1, r1, #2
 800313c:	5843      	ldr	r3, [r0, r1]
 800313e:	4023      	ands	r3, r4
 8003140:	4313      	orrs	r3, r2
 8003142:	5043      	str	r3, [r0, r1]
  UNUSED(SubPriority);

  /* Check the parameters */
  assert_param(IS_NVIC_PREEMPTION_PRIORITY(PreemptPriority));
  NVIC_SetPriority(IRQn, PreemptPriority);
}
 8003144:	bd10      	pop	{r4, pc}
  }
  else
  {
    SCB->SHP[_SHP_IDX(IRQn)] = ((uint32_t)(SCB->SHP[_SHP_IDX(IRQn)] & ~(0xFFUL << _BIT_SHIFT(IRQn))) |
 8003146:	230f      	movs	r3, #15
 8003148:	4906      	ldr	r1, [pc, #24]	@ (8003164 <HAL_NVIC_SetPriority+0x50>)
 800314a:	4003      	ands	r3, r0
 800314c:	468c      	mov	ip, r1
 800314e:	3b08      	subs	r3, #8
 8003150:	089b      	lsrs	r3, r3, #2
 8003152:	009b      	lsls	r3, r3, #2
 8003154:	4463      	add	r3, ip
 8003156:	69d9      	ldr	r1, [r3, #28]
 8003158:	400c      	ands	r4, r1
 800315a:	4314      	orrs	r4, r2
 800315c:	61dc      	str	r4, [r3, #28]
 800315e:	e7f1      	b.n	8003144 <HAL_NVIC_SetPriority+0x30>
 8003160:	e000e100 	.word	0xe000e100
 8003164:	e000ed00 	.word	0xe000ed00

08003168 <HAL_NVIC_EnableIRQ>:
  if ((int32_t)(IRQn) >= 0)
 8003168:	2800      	cmp	r0, #0
 800316a:	db05      	blt.n	8003178 <HAL_NVIC_EnableIRQ+0x10>
    NVIC->ISER[0U] = (uint32_t)(1UL << (((uint32_t)IRQn) & 0x1FUL));
 800316c:	221f      	movs	r2, #31
 800316e:	2301      	movs	r3, #1
 8003170:	4002      	ands	r2, r0
 8003172:	4093      	lsls	r3, r2
 8003174:	4a01      	ldr	r2, [pc, #4]	@ (800317c <HAL_NVIC_EnableIRQ+0x14>)
 8003176:	6013      	str	r3, [r2, #0]
  /* Check the parameters */
  assert_param(IS_NVIC_DEVICE_IRQ(IRQn));

  /* Enable interrupt */
  NVIC_EnableIRQ(IRQn);
}
 8003178:	4770      	bx	lr
 800317a:	46c0      	nop			@ (mov r8, r8)
 800317c:	e000e100 	.word	0xe000e100

08003180 <HAL_NVIC_DisableIRQ>:
  if ((int32_t)(IRQn) >= 0)
 8003180:	2800      	cmp	r0, #0
 8003182:	db0a      	blt.n	800319a <HAL_NVIC_DisableIRQ+0x1a>
    NVIC->ICER[0U] = (uint32_t)(1UL << (((uint32_t)IRQn) & 0x1FUL));
 8003184:	221f      	movs	r2, #31
 8003186:	2301      	movs	r3, #1
 8003188:	4002      	ands	r2, r0
 800318a:	4093      	lsls	r3, r2
 800318c:	2280      	movs	r2, #128	@ 0x80
 800318e:	4903      	ldr	r1, [pc, #12]	@ (800319c <HAL_NVIC_DisableIRQ+0x1c>)
 8003190:	508b      	str	r3, [r1, r2]
  \details Acts as a special kind of Data Memory Barrier.
           It completes when all explicit memory accesses before this instruction complete.
 */
__STATIC_FORCEINLINE void __DSB(void)
{
  __ASM volatile ("dsb 0xF":::"memory");
 8003192:	f3bf 8f4f 	dsb	sy
  __ASM volatile ("isb 0xF":::"memory");
 8003196:	f3bf 8f6f 	isb	sy
  /* Check the parameters */
  assert_param(IS_NVIC_DEVICE_IRQ(IRQn));

  /* Disable interrupt */
  NVIC_DisableIRQ(IRQn);
}
 800319a:	4770      	bx	lr
 800319c:	e000e100 	.word	0xe000e100

080031a0 <HAL_SYSTICK_Config>:
           function <b>SysTick_Config</b> is not included. In this case, the file <b><i>device</i>.h</b>
           must contain a vendor-specific implementation of this function.
 */
__STATIC_INLINE uint32_t SysTick_Config(uint32_t ticks)
{
  if ((ticks - 1UL) > SysTick_LOAD_RELOAD_Msk)
 80031a0:	2280      	movs	r2, #128	@ 0x80
 80031a2:	1e43      	subs	r3, r0, #1
 80031a4:	0452      	lsls	r2, r2, #17
  {
    return (1UL);                                                   /* Reload value impossible */
 80031a6:	2001      	movs	r0, #1
  if ((ticks - 1UL) > SysTick_LOAD_RELOAD_Msk)
 80031a8:	4293      	cmp	r3, r2
 80031aa:	d20e      	bcs.n	80031ca <HAL_SYSTICK_Config+0x2a>
    SCB->SHP[_SHP_IDX(IRQn)] = ((uint32_t)(SCB->SHP[_SHP_IDX(IRQn)] & ~(0xFFUL << _BIT_SHIFT(IRQn))) |
 80031ac:	21c0      	movs	r1, #192	@ 0xc0
  }

  SysTick->LOAD  = (uint32_t)(ticks - 1UL);                         /* set reload register */
 80031ae:	4a07      	ldr	r2, [pc, #28]	@ (80031cc <HAL_SYSTICK_Config+0x2c>)
    SCB->SHP[_SHP_IDX(IRQn)] = ((uint32_t)(SCB->SHP[_SHP_IDX(IRQn)] & ~(0xFFUL << _BIT_SHIFT(IRQn))) |
 80031b0:	4807      	ldr	r0, [pc, #28]	@ (80031d0 <HAL_SYSTICK_Config+0x30>)
  SysTick->LOAD  = (uint32_t)(ticks - 1UL);                         /* set reload register */
 80031b2:	6053      	str	r3, [r2, #4]
    SCB->SHP[_SHP_IDX(IRQn)] = ((uint32_t)(SCB->SHP[_SHP_IDX(IRQn)] & ~(0xFFUL << _BIT_SHIFT(IRQn))) |
 80031b4:	6a03      	ldr	r3, [r0, #32]
 80031b6:	0609      	lsls	r1, r1, #24
 80031b8:	021b      	lsls	r3, r3, #8
 80031ba:	0a1b      	lsrs	r3, r3, #8
 80031bc:	430b      	orrs	r3, r1
 80031be:	6203      	str	r3, [r0, #32]
  NVIC_SetPriority (SysTick_IRQn, (1UL << __NVIC_PRIO_BITS) - 1UL); /* set Priority for Systick Interrupt */
  SysTick->VAL   = 0UL;                                             /* Load the SysTick Counter Value */
 80031c0:	2300      	movs	r3, #0
  SysTick->CTRL  = SysTick_CTRL_CLKSOURCE_Msk |
                   SysTick_CTRL_TICKINT_Msk   |
                   SysTick_CTRL_ENABLE_Msk;                         /* Enable SysTick IRQ and SysTick Timer */
  return (0UL);                                                     /* Function successful */
 80031c2:	2000      	movs	r0, #0
  SysTick->VAL   = 0UL;                                             /* Load the SysTick Counter Value */
 80031c4:	6093      	str	r3, [r2, #8]
  SysTick->CTRL  = SysTick_CTRL_CLKSOURCE_Msk |
 80031c6:	3307      	adds	r3, #7
 80031c8:	6013      	str	r3, [r2, #0]
  *                  - 1  Function failed.
  */
uint32_t HAL_SYSTICK_Config(uint32_t TicksNumb)
{
  return SysTick_Config(TicksNumb);
}
 80031ca:	4770      	bx	lr
 80031cc:	e000e010 	.word	0xe000e010
 80031d0:	e000ed00 	.word	0xe000ed00

080031d4 <HAL_DMA_Init>:
  * @param hdma Pointer to a DMA_HandleTypeDef structure that contains
  *             the configuration information for the specified DMA Channel.
  * @retval HAL status
  */
HAL_StatusTypeDef HAL_DMA_Init(DMA_HandleTypeDef *hdma)
{
 80031d4:	b5f0      	push	{r4, r5, r6, r7, lr}
 80031d6:	46c6      	mov	lr, r8
 80031d8:	0004      	movs	r4, r0
 80031da:	b500      	push	{lr}
  /* Check the DMA handle allocation */
  if (hdma == NULL)
 80031dc:	2800      	cmp	r0, #0
 80031de:	d060      	beq.n	80032a2 <HAL_DMA_Init+0xce>
    /* DMA2 */
    hdma->ChannelIndex = (((uint32_t)hdma->Instance - (uint32_t)DMA2_Channel1) / ((uint32_t)DMA2_Channel2 - (uint32_t)DMA2_Channel1)) << 2U;
    hdma->DmaBaseAddress = DMA2;
  }
#else
  hdma->ChannelIndex = (((uint32_t)hdma->Instance - (uint32_t)DMA1_Channel1) / ((uint32_t)DMA1_Channel2 - (uint32_t)DMA1_Channel1)) << 2U;
 80031e0:	6805      	ldr	r5, [r0, #0]
 80031e2:	4b31      	ldr	r3, [pc, #196]	@ (80032a8 <HAL_DMA_Init+0xd4>)
 80031e4:	2114      	movs	r1, #20
 80031e6:	18e8      	adds	r0, r5, r3
 80031e8:	f7fc ff8c 	bl	8000104 <__udivsi3>
 80031ec:	0083      	lsls	r3, r0, #2
 80031ee:	6423      	str	r3, [r4, #64]	@ 0x40
#endif /* DMA2 */

  /* Change DMA peripheral state */
  hdma->State = HAL_DMA_STATE_BUSY;
 80031f0:	2202      	movs	r2, #2
 80031f2:	2325      	movs	r3, #37	@ 0x25
 80031f4:	54e2      	strb	r2, [r4, r3]

  /* Clear PL, MSIZE, PSIZE, MINC, PINC, CIRC, DIR and MEM2MEM bits */
  CLEAR_BIT(hdma->Instance->CCR, (DMA_CCR_PL    | DMA_CCR_MSIZE  | DMA_CCR_PSIZE  | \
 80031f6:	682b      	ldr	r3, [r5, #0]
 80031f8:	4a2c      	ldr	r2, [pc, #176]	@ (80032ac <HAL_DMA_Init+0xd8>)
                                  DMA_CCR_MINC  | DMA_CCR_PINC   | DMA_CCR_CIRC   | \
                                  DMA_CCR_DIR   | DMA_CCR_MEM2MEM));

  /* Set the DMA Channel configuration */
  SET_BIT(hdma->Instance->CCR, (hdma->Init.Direction           |                               \
 80031fa:	68a6      	ldr	r6, [r4, #8]
  CLEAR_BIT(hdma->Instance->CCR, (DMA_CCR_PL    | DMA_CCR_MSIZE  | DMA_CCR_PSIZE  | \
 80031fc:	4013      	ands	r3, r2
 80031fe:	602b      	str	r3, [r5, #0]
  SET_BIT(hdma->Instance->CCR, (hdma->Init.Direction           |                               \
 8003200:	68e3      	ldr	r3, [r4, #12]
 8003202:	6921      	ldr	r1, [r4, #16]
 8003204:	4333      	orrs	r3, r6
 8003206:	430b      	orrs	r3, r1
 8003208:	6961      	ldr	r1, [r4, #20]
 800320a:	682a      	ldr	r2, [r5, #0]
 800320c:	430b      	orrs	r3, r1
 800320e:	69a1      	ldr	r1, [r4, #24]
 8003210:	430b      	orrs	r3, r1
 8003212:	69e1      	ldr	r1, [r4, #28]
 8003214:	430b      	orrs	r3, r1
 8003216:	6a21      	ldr	r1, [r4, #32]
 8003218:	430b      	orrs	r3, r1
 800321a:	4313      	orrs	r3, r2
 800321c:	602b      	str	r3, [r5, #0]
    /* Prepare channel_number used for DMAmuxChannelStatusMask computation */
    channel_number = (((((uint32_t)hdma->Instance & 0xFFU) - 8U) / 20U) + 7U);
  }
#else
  /* Associate a DMA Channel to a DMAMUX channel */
  hdma->DMAmuxChannel = (DMAMUX_Channel_TypeDef *)(uint32_t)((uint32_t)DMAMUX1_Channel0 + ((hdma->ChannelIndex >> 2U) * ((uint32_t)DMAMUX1_Channel1 - (uint32_t)DMAMUX1_Channel0)));
 800321e:	4b24      	ldr	r3, [pc, #144]	@ (80032b0 <HAL_DMA_Init+0xdc>)

  /* Prepare channel_number used for DMAmuxChannelStatusMask computation */
  channel_number = (((uint32_t)hdma->Instance & 0xFFU) - 8U) / 20U;
 8003220:	2114      	movs	r1, #20
  hdma->DMAmuxChannel = (DMAMUX_Channel_TypeDef *)(uint32_t)((uint32_t)DMAMUX1_Channel0 + ((hdma->ChannelIndex >> 2U) * ((uint32_t)DMAMUX1_Channel1 - (uint32_t)DMAMUX1_Channel0)));
 8003222:	469c      	mov	ip, r3
 8003224:	4460      	add	r0, ip
 8003226:	0087      	lsls	r7, r0, #2
  channel_number = (((uint32_t)hdma->Instance & 0xFFU) - 8U) / 20U;
 8003228:	20ff      	movs	r0, #255	@ 0xff
#endif /* DMA2 */

  /* Initialize the field DMAmuxChannelStatus to DMAMUX1_ChannelStatus base */
  hdma->DMAmuxChannelStatus = DMAMUX1_ChannelStatus;
 800322a:	4b22      	ldr	r3, [pc, #136]	@ (80032b4 <HAL_DMA_Init+0xe0>)
  channel_number = (((uint32_t)hdma->Instance & 0xFFU) - 8U) / 20U;
 800322c:	4028      	ands	r0, r5
  hdma->DMAmuxChannelStatus = DMAMUX1_ChannelStatus;
 800322e:	64a3      	str	r3, [r4, #72]	@ 0x48
  hdma->DMAmuxChannel = (DMAMUX_Channel_TypeDef *)(uint32_t)((uint32_t)DMAMUX1_Channel0 + ((hdma->ChannelIndex >> 2U) * ((uint32_t)DMAMUX1_Channel1 - (uint32_t)DMAMUX1_Channel0)));
 8003230:	6467      	str	r7, [r4, #68]	@ 0x44
  channel_number = (((uint32_t)hdma->Instance & 0xFFU) - 8U) / 20U;
 8003232:	3808      	subs	r0, #8
  hdma->DMAmuxChannelStatus = DMAMUX1_ChannelStatus;
 8003234:	4698      	mov	r8, r3
  channel_number = (((uint32_t)hdma->Instance & 0xFFU) - 8U) / 20U;
 8003236:	f7fc ff65 	bl	8000104 <__udivsi3>

  /* Initialize the field DMAmuxChannelStatusMask with the corresponding index of the DMAMUX channel selected for the current ChannelIndex */
  hdma->DMAmuxChannelStatusMask = 1UL << (channel_number & 0x1FU);
 800323a:	231f      	movs	r3, #31
 800323c:	2201      	movs	r2, #1
 800323e:	4003      	ands	r3, r0
 8003240:	0010      	movs	r0, r2
 8003242:	4098      	lsls	r0, r3
  if (hdma->Init.Direction == DMA_MEMORY_TO_MEMORY)
 8003244:	2380      	movs	r3, #128	@ 0x80
  hdma->DMAmuxChannelStatusMask = 1UL << (channel_number & 0x1FU);
 8003246:	64e0      	str	r0, [r4, #76]	@ 0x4c
  if (hdma->Init.Direction == DMA_MEMORY_TO_MEMORY)
 8003248:	01db      	lsls	r3, r3, #7
 800324a:	429e      	cmp	r6, r3
 800324c:	d01f      	beq.n	800328e <HAL_DMA_Init+0xba>
  hdma->DMAmuxChannel->CCR = (hdma->Init.Request & DMAMUX_CxCR_DMAREQ_ID);
 800324e:	233f      	movs	r3, #63	@ 0x3f
  hdma->DMAmuxChannelStatus->CFR = hdma->DMAmuxChannelStatusMask;
 8003250:	4645      	mov	r5, r8
  hdma->DMAmuxChannel->CCR = (hdma->Init.Request & DMAMUX_CxCR_DMAREQ_ID);
 8003252:	6861      	ldr	r1, [r4, #4]
 8003254:	400b      	ands	r3, r1
  if (((hdma->Init.Request >  0UL) && (hdma->Init.Request <= DMA_REQUEST_GENERATOR3)))
 8003256:	3901      	subs	r1, #1
  hdma->DMAmuxChannel->CCR = (hdma->Init.Request & DMAMUX_CxCR_DMAREQ_ID);
 8003258:	603b      	str	r3, [r7, #0]
  hdma->DMAmuxChannelStatus->CFR = hdma->DMAmuxChannelStatusMask;
 800325a:	6068      	str	r0, [r5, #4]
  if (((hdma->Init.Request >  0UL) && (hdma->Init.Request <= DMA_REQUEST_GENERATOR3)))
 800325c:	2903      	cmp	r1, #3
 800325e:	d81b      	bhi.n	8003298 <HAL_DMA_Init+0xc4>
static void DMA_CalcDMAMUXRequestGenBaseAndMask(DMA_HandleTypeDef *hdma)
{
  uint32_t request =  hdma->Init.Request & DMAMUX_CxCR_DMAREQ_ID;

  /* DMA Channels are connected to DMAMUX1 request generator blocks*/
  hdma->DMAmuxRequestGen = (DMAMUX_RequestGen_TypeDef *)((uint32_t)(((uint32_t)DMAMUX1_RequestGenerator0) + ((request - 1U) * 4U)));
 8003260:	4915      	ldr	r1, [pc, #84]	@ (80032b8 <HAL_DMA_Init+0xe4>)

  hdma->DMAmuxRequestGenStatus = DMAMUX1_RequestGenStatus;
 8003262:	4816      	ldr	r0, [pc, #88]	@ (80032bc <HAL_DMA_Init+0xe8>)
  hdma->DMAmuxRequestGen = (DMAMUX_RequestGen_TypeDef *)((uint32_t)(((uint32_t)DMAMUX1_RequestGenerator0) + ((request - 1U) * 4U)));
 8003264:	1859      	adds	r1, r3, r1

  /* here "Request" is either DMA_REQUEST_GENERATOR0 to DMA_REQUEST_GENERATOR3, i.e. <= 4*/
  hdma->DMAmuxRequestGenStatusMask = 1UL << ((request - 1U) & 0x3U);
 8003266:	3b01      	subs	r3, #1
 8003268:	409a      	lsls	r2, r3
    hdma->DMAmuxRequestGen->RGCR = 0U;
 800326a:	2300      	movs	r3, #0
  hdma->DMAmuxRequestGen = (DMAMUX_RequestGen_TypeDef *)((uint32_t)(((uint32_t)DMAMUX1_RequestGenerator0) + ((request - 1U) * 4U)));
 800326c:	0089      	lsls	r1, r1, #2
 800326e:	6521      	str	r1, [r4, #80]	@ 0x50
  hdma->DMAmuxRequestGenStatus = DMAMUX1_RequestGenStatus;
 8003270:	6560      	str	r0, [r4, #84]	@ 0x54
  hdma->DMAmuxRequestGenStatusMask = 1UL << ((request - 1U) & 0x3U);
 8003272:	65a2      	str	r2, [r4, #88]	@ 0x58
    hdma->DMAmuxRequestGen->RGCR = 0U;
 8003274:	600b      	str	r3, [r1, #0]
    hdma->DMAmuxRequestGenStatus->RGCFR = hdma->DMAmuxRequestGenStatusMask;
 8003276:	6042      	str	r2, [r0, #4]
  hdma->ErrorCode = HAL_DMA_ERROR_NONE;
 8003278:	2300      	movs	r3, #0
  hdma->State = HAL_DMA_STATE_READY;
 800327a:	2225      	movs	r2, #37	@ 0x25
 800327c:	2101      	movs	r1, #1
  return HAL_OK;
 800327e:	2000      	movs	r0, #0
  hdma->ErrorCode = HAL_DMA_ERROR_NONE;
 8003280:	63e3      	str	r3, [r4, #60]	@ 0x3c
  hdma->State = HAL_DMA_STATE_READY;
 8003282:	54a1      	strb	r1, [r4, r2]
  __HAL_UNLOCK(hdma);
 8003284:	3a01      	subs	r2, #1
 8003286:	54a3      	strb	r3, [r4, r2]
}
 8003288:	bc80      	pop	{r7}
 800328a:	46b8      	mov	r8, r7
 800328c:	bdf0      	pop	{r4, r5, r6, r7, pc}
    hdma->Init.Request = DMA_REQUEST_MEM2MEM;
 800328e:	2300      	movs	r3, #0
 8003290:	6063      	str	r3, [r4, #4]
  hdma->DMAmuxChannel->CCR = (hdma->Init.Request & DMAMUX_CxCR_DMAREQ_ID);
 8003292:	603b      	str	r3, [r7, #0]
  hdma->DMAmuxChannelStatus->CFR = hdma->DMAmuxChannelStatusMask;
 8003294:	4643      	mov	r3, r8
 8003296:	6058      	str	r0, [r3, #4]
    hdma->DMAmuxRequestGen = 0U;
 8003298:	2300      	movs	r3, #0
 800329a:	6523      	str	r3, [r4, #80]	@ 0x50
    hdma->DMAmuxRequestGenStatus = 0U;
 800329c:	6563      	str	r3, [r4, #84]	@ 0x54
    hdma->DMAmuxRequestGenStatusMask = 0U;
 800329e:	65a3      	str	r3, [r4, #88]	@ 0x58
 80032a0:	e7ea      	b.n	8003278 <HAL_DMA_Init+0xa4>
    return HAL_ERROR;
 80032a2:	2001      	movs	r0, #1
 80032a4:	e7f0      	b.n	8003288 <HAL_DMA_Init+0xb4>
 80032a6:	46c0      	nop			@ (mov r8, r8)
 80032a8:	bffdfff8 	.word	0xbffdfff8
 80032ac:	ffff800f 	.word	0xffff800f
 80032b0:	10008200 	.word	0x10008200
 80032b4:	40020880 	.word	0x40020880
 80032b8:	1000823f 	.word	0x1000823f
 80032bc:	40020940 	.word	0x40020940

080032c0 <HAL_DMA_Start_IT>:
{
 80032c0:	b5f0      	push	{r4, r5, r6, r7, lr}
 80032c2:	46c6      	mov	lr, r8
  __HAL_LOCK(hdma);
 80032c4:	2424      	movs	r4, #36	@ 0x24
{
 80032c6:	b500      	push	{lr}
  __HAL_LOCK(hdma);
 80032c8:	5d05      	ldrb	r5, [r0, r4]
 80032ca:	2d01      	cmp	r5, #1
 80032cc:	d04f      	beq.n	800336e <HAL_DMA_Start_IT+0xae>
 80032ce:	2501      	movs	r5, #1
  if (hdma->State == HAL_DMA_STATE_READY)
 80032d0:	2625      	movs	r6, #37	@ 0x25
  __HAL_LOCK(hdma);
 80032d2:	5505      	strb	r5, [r0, r4]
  if (hdma->State == HAL_DMA_STATE_READY)
 80032d4:	5d85      	ldrb	r5, [r0, r6]
 80032d6:	b2ef      	uxtb	r7, r5
 80032d8:	2d01      	cmp	r5, #1
 80032da:	d007      	beq.n	80032ec <HAL_DMA_Start_IT+0x2c>
    hdma->ErrorCode = HAL_DMA_ERROR_BUSY;
 80032dc:	2380      	movs	r3, #128	@ 0x80
 80032de:	63c3      	str	r3, [r0, #60]	@ 0x3c
    __HAL_UNLOCK(hdma);
 80032e0:	2300      	movs	r3, #0
 80032e2:	5503      	strb	r3, [r0, r4]
    status = HAL_ERROR;
 80032e4:	2001      	movs	r0, #1
}
 80032e6:	bc80      	pop	{r7}
 80032e8:	46b8      	mov	r8, r7
 80032ea:	bdf0      	pop	{r4, r5, r6, r7, pc}
    hdma->State = HAL_DMA_STATE_BUSY;
 80032ec:	3c22      	subs	r4, #34	@ 0x22
 80032ee:	5584      	strb	r4, [r0, r6]
    hdma->ErrorCode = HAL_DMA_ERROR_NONE;
 80032f0:	2400      	movs	r4, #0
 80032f2:	63c4      	str	r4, [r0, #60]	@ 0x3c
    __HAL_DMA_DISABLE(hdma);
 80032f4:	6804      	ldr	r4, [r0, #0]
  hdma->DMAmuxChannelStatus->CFR = hdma->DMAmuxChannelStatusMask;
 80032f6:	6cc6      	ldr	r6, [r0, #76]	@ 0x4c
    __HAL_DMA_DISABLE(hdma);
 80032f8:	6825      	ldr	r5, [r4, #0]
 80032fa:	43bd      	bics	r5, r7
 80032fc:	6025      	str	r5, [r4, #0]
  hdma->DMAmuxChannelStatus->CFR = hdma->DMAmuxChannelStatusMask;
 80032fe:	6c85      	ldr	r5, [r0, #72]	@ 0x48
 8003300:	606e      	str	r6, [r5, #4]
  if (hdma->DMAmuxRequestGen != 0U)
 8003302:	6d06      	ldr	r6, [r0, #80]	@ 0x50
 8003304:	2e00      	cmp	r6, #0
 8003306:	d002      	beq.n	800330e <HAL_DMA_Start_IT+0x4e>
    hdma->DMAmuxRequestGenStatus->RGCFR = hdma->DMAmuxRequestGenStatusMask;
 8003308:	6d45      	ldr	r5, [r0, #84]	@ 0x54
 800330a:	6d87      	ldr	r7, [r0, #88]	@ 0x58
 800330c:	606f      	str	r7, [r5, #4]
  __HAL_DMA_CLEAR_FLAG(hdma, (DMA_FLAG_GI1 << (hdma->ChannelIndex & 0x1CU)));
 800330e:	4d1f      	ldr	r5, [pc, #124]	@ (800338c <HAL_DMA_Start_IT+0xcc>)
 8003310:	6c07      	ldr	r7, [r0, #64]	@ 0x40
 8003312:	46ac      	mov	ip, r5
 8003314:	686d      	ldr	r5, [r5, #4]
 8003316:	46a8      	mov	r8, r5
 8003318:	251c      	movs	r5, #28
 800331a:	402f      	ands	r7, r5
 800331c:	3d1b      	subs	r5, #27
 800331e:	40bd      	lsls	r5, r7
 8003320:	4647      	mov	r7, r8
 8003322:	433d      	orrs	r5, r7
 8003324:	4667      	mov	r7, ip
 8003326:	607d      	str	r5, [r7, #4]
  hdma->Instance->CNDTR = DataLength;
 8003328:	6063      	str	r3, [r4, #4]
  if ((hdma->Init.Direction) == DMA_MEMORY_TO_PERIPH)
 800332a:	6883      	ldr	r3, [r0, #8]
 800332c:	2b10      	cmp	r3, #16
 800332e:	d020      	beq.n	8003372 <HAL_DMA_Start_IT+0xb2>
    hdma->Instance->CPAR = SrcAddress;
 8003330:	60a1      	str	r1, [r4, #8]
    hdma->Instance->CMAR = DstAddress;
 8003332:	60e2      	str	r2, [r4, #12]
    if (NULL != hdma->XferHalfCpltCallback)
 8003334:	6b03      	ldr	r3, [r0, #48]	@ 0x30
 8003336:	2b00      	cmp	r3, #0
 8003338:	d01e      	beq.n	8003378 <HAL_DMA_Start_IT+0xb8>
      __HAL_DMA_ENABLE_IT(hdma, (DMA_IT_TC | DMA_IT_HT | DMA_IT_TE));
 800333a:	220e      	movs	r2, #14
 800333c:	6823      	ldr	r3, [r4, #0]
 800333e:	4313      	orrs	r3, r2
 8003340:	6023      	str	r3, [r4, #0]
    if ((hdma->DMAmuxChannel->CCR & DMAMUX_CxCR_SE) != 0U)
 8003342:	6c42      	ldr	r2, [r0, #68]	@ 0x44
 8003344:	6813      	ldr	r3, [r2, #0]
 8003346:	03db      	lsls	r3, r3, #15
 8003348:	d504      	bpl.n	8003354 <HAL_DMA_Start_IT+0x94>
      hdma->DMAmuxChannel->CCR |= DMAMUX_CxCR_SOIE;
 800334a:	2380      	movs	r3, #128	@ 0x80
 800334c:	6811      	ldr	r1, [r2, #0]
 800334e:	005b      	lsls	r3, r3, #1
 8003350:	430b      	orrs	r3, r1
 8003352:	6013      	str	r3, [r2, #0]
    if (hdma->DMAmuxRequestGen != 0U)
 8003354:	2e00      	cmp	r6, #0
 8003356:	d004      	beq.n	8003362 <HAL_DMA_Start_IT+0xa2>
      hdma->DMAmuxRequestGen->RGCR |= DMAMUX_RGxCR_OIE;
 8003358:	2380      	movs	r3, #128	@ 0x80
 800335a:	6832      	ldr	r2, [r6, #0]
 800335c:	005b      	lsls	r3, r3, #1
 800335e:	4313      	orrs	r3, r2
 8003360:	6033      	str	r3, [r6, #0]
    __HAL_DMA_ENABLE(hdma);
 8003362:	2201      	movs	r2, #1
 8003364:	6823      	ldr	r3, [r4, #0]
  HAL_StatusTypeDef status = HAL_OK;
 8003366:	2000      	movs	r0, #0
    __HAL_DMA_ENABLE(hdma);
 8003368:	4313      	orrs	r3, r2
 800336a:	6023      	str	r3, [r4, #0]
 800336c:	e7bb      	b.n	80032e6 <HAL_DMA_Start_IT+0x26>
  __HAL_LOCK(hdma);
 800336e:	2002      	movs	r0, #2
 8003370:	e7b9      	b.n	80032e6 <HAL_DMA_Start_IT+0x26>
    hdma->Instance->CPAR = DstAddress;
 8003372:	60a2      	str	r2, [r4, #8]
    hdma->Instance->CMAR = SrcAddress;
 8003374:	60e1      	str	r1, [r4, #12]
 8003376:	e7dd      	b.n	8003334 <HAL_DMA_Start_IT+0x74>
      __HAL_DMA_DISABLE_IT(hdma, DMA_IT_HT);
 8003378:	2204      	movs	r2, #4
 800337a:	6823      	ldr	r3, [r4, #0]
 800337c:	4393      	bics	r3, r2
 800337e:	6023      	str	r3, [r4, #0]
      __HAL_DMA_ENABLE_IT(hdma, (DMA_IT_TC | DMA_IT_TE));
 8003380:	6823      	ldr	r3, [r4, #0]
 8003382:	3206      	adds	r2, #6
 8003384:	4313      	orrs	r3, r2
 8003386:	6023      	str	r3, [r4, #0]
 8003388:	e7db      	b.n	8003342 <HAL_DMA_Start_IT+0x82>
 800338a:	46c0      	nop			@ (mov r8, r8)
 800338c:	40020000 	.word	0x40020000

08003390 <HAL_DMA_Abort>:
{
 8003390:	b570      	push	{r4, r5, r6, lr}
  if (NULL == hdma)
 8003392:	2800      	cmp	r0, #0
 8003394:	d032      	beq.n	80033fc <HAL_DMA_Abort+0x6c>
  if (hdma->State != HAL_DMA_STATE_BUSY)
 8003396:	2325      	movs	r3, #37	@ 0x25
 8003398:	5cc3      	ldrb	r3, [r0, r3]
 800339a:	2b02      	cmp	r3, #2
 800339c:	d129      	bne.n	80033f2 <HAL_DMA_Abort+0x62>
    __HAL_DMA_DISABLE_IT(hdma, (DMA_IT_TC | DMA_IT_HT | DMA_IT_TE));
 800339e:	210e      	movs	r1, #14
 80033a0:	6802      	ldr	r2, [r0, #0]
    hdma->DMAmuxChannel->CCR &= ~DMAMUX_CxCR_SOIE;
 80033a2:	4c17      	ldr	r4, [pc, #92]	@ (8003400 <HAL_DMA_Abort+0x70>)
    __HAL_DMA_DISABLE_IT(hdma, (DMA_IT_TC | DMA_IT_HT | DMA_IT_TE));
 80033a4:	6813      	ldr	r3, [r2, #0]
    __HAL_DMA_CLEAR_FLAG(hdma, ((DMA_FLAG_GI1) << (hdma->ChannelIndex  & 0x1CU)));
 80033a6:	261c      	movs	r6, #28
    __HAL_DMA_DISABLE_IT(hdma, (DMA_IT_TC | DMA_IT_HT | DMA_IT_TE));
 80033a8:	438b      	bics	r3, r1
    hdma->DMAmuxChannel->CCR &= ~DMAMUX_CxCR_SOIE;
 80033aa:	6c41      	ldr	r1, [r0, #68]	@ 0x44
    __HAL_DMA_DISABLE_IT(hdma, (DMA_IT_TC | DMA_IT_HT | DMA_IT_TE));
 80033ac:	6013      	str	r3, [r2, #0]
    hdma->DMAmuxChannel->CCR &= ~DMAMUX_CxCR_SOIE;
 80033ae:	680b      	ldr	r3, [r1, #0]
 80033b0:	4023      	ands	r3, r4
 80033b2:	600b      	str	r3, [r1, #0]
    __HAL_DMA_DISABLE(hdma);
 80033b4:	2301      	movs	r3, #1
 80033b6:	6811      	ldr	r1, [r2, #0]
 80033b8:	4399      	bics	r1, r3
 80033ba:	6011      	str	r1, [r2, #0]
    __HAL_DMA_CLEAR_FLAG(hdma, ((DMA_FLAG_GI1) << (hdma->ChannelIndex  & 0x1CU)));
 80033bc:	6c02      	ldr	r2, [r0, #64]	@ 0x40
 80033be:	4911      	ldr	r1, [pc, #68]	@ (8003404 <HAL_DMA_Abort+0x74>)
 80033c0:	4032      	ands	r2, r6
 80033c2:	4093      	lsls	r3, r2
 80033c4:	684d      	ldr	r5, [r1, #4]
 80033c6:	432b      	orrs	r3, r5
 80033c8:	604b      	str	r3, [r1, #4]
    hdma->DMAmuxChannelStatus->CFR = hdma->DMAmuxChannelStatusMask;
 80033ca:	6cc2      	ldr	r2, [r0, #76]	@ 0x4c
 80033cc:	6c83      	ldr	r3, [r0, #72]	@ 0x48
 80033ce:	605a      	str	r2, [r3, #4]
    if (hdma->DMAmuxRequestGen != 0U)
 80033d0:	6d03      	ldr	r3, [r0, #80]	@ 0x50
 80033d2:	2b00      	cmp	r3, #0
 80033d4:	d005      	beq.n	80033e2 <HAL_DMA_Abort+0x52>
      hdma->DMAmuxRequestGen->RGCR &= ~DMAMUX_RGxCR_OIE;
 80033d6:	681a      	ldr	r2, [r3, #0]
 80033d8:	4022      	ands	r2, r4
 80033da:	601a      	str	r2, [r3, #0]
      hdma->DMAmuxRequestGenStatus->RGCFR = hdma->DMAmuxRequestGenStatusMask;
 80033dc:	6d43      	ldr	r3, [r0, #84]	@ 0x54
 80033de:	6d82      	ldr	r2, [r0, #88]	@ 0x58
 80033e0:	605a      	str	r2, [r3, #4]
    hdma->State = HAL_DMA_STATE_READY;
 80033e2:	2325      	movs	r3, #37	@ 0x25
 80033e4:	2201      	movs	r2, #1
 80033e6:	54c2      	strb	r2, [r0, r3]
    __HAL_UNLOCK(hdma);
 80033e8:	2200      	movs	r2, #0
 80033ea:	3b01      	subs	r3, #1
 80033ec:	54c2      	strb	r2, [r0, r3]
  return HAL_OK;
 80033ee:	2000      	movs	r0, #0
}
 80033f0:	bd70      	pop	{r4, r5, r6, pc}
    hdma->ErrorCode = HAL_DMA_ERROR_NO_XFER;
 80033f2:	2304      	movs	r3, #4
    __HAL_UNLOCK(hdma);
 80033f4:	2200      	movs	r2, #0
    hdma->ErrorCode = HAL_DMA_ERROR_NO_XFER;
 80033f6:	63c3      	str	r3, [r0, #60]	@ 0x3c
    __HAL_UNLOCK(hdma);
 80033f8:	3320      	adds	r3, #32
 80033fa:	54c2      	strb	r2, [r0, r3]
    return HAL_ERROR;
 80033fc:	2001      	movs	r0, #1
 80033fe:	e7f7      	b.n	80033f0 <HAL_DMA_Abort+0x60>
 8003400:	fffffeff 	.word	0xfffffeff
 8003404:	40020000 	.word	0x40020000

08003408 <HAL_DMA_Abort_IT>:
  if (hdma->State != HAL_DMA_STATE_BUSY)
 8003408:	2325      	movs	r3, #37	@ 0x25
{
 800340a:	b570      	push	{r4, r5, r6, lr}
  if (hdma->State != HAL_DMA_STATE_BUSY)
 800340c:	5cc3      	ldrb	r3, [r0, r3]
 800340e:	2b02      	cmp	r3, #2
 8003410:	d003      	beq.n	800341a <HAL_DMA_Abort_IT+0x12>
    hdma->ErrorCode = HAL_DMA_ERROR_NO_XFER;
 8003412:	2304      	movs	r3, #4
 8003414:	63c3      	str	r3, [r0, #60]	@ 0x3c
    status = HAL_ERROR;
 8003416:	2001      	movs	r0, #1
}
 8003418:	bd70      	pop	{r4, r5, r6, pc}
    __HAL_DMA_DISABLE_IT(hdma, (DMA_IT_TC | DMA_IT_HT | DMA_IT_TE));
 800341a:	210e      	movs	r1, #14
 800341c:	6802      	ldr	r2, [r0, #0]
    __HAL_DMA_CLEAR_FLAG(hdma, ((DMA_FLAG_GI1) << (hdma->ChannelIndex & 0x1CU)));
 800341e:	261c      	movs	r6, #28
    __HAL_DMA_DISABLE_IT(hdma, (DMA_IT_TC | DMA_IT_HT | DMA_IT_TE));
 8003420:	6813      	ldr	r3, [r2, #0]
    hdma->DMAmuxChannel->CCR &= ~DMAMUX_CxCR_SOIE;
 8003422:	4c15      	ldr	r4, [pc, #84]	@ (8003478 <HAL_DMA_Abort_IT+0x70>)
    __HAL_DMA_DISABLE_IT(hdma, (DMA_IT_TC | DMA_IT_HT | DMA_IT_TE));
 8003424:	438b      	bics	r3, r1
 8003426:	6013      	str	r3, [r2, #0]
    __HAL_DMA_DISABLE(hdma);
 8003428:	2301      	movs	r3, #1
 800342a:	6811      	ldr	r1, [r2, #0]
 800342c:	4399      	bics	r1, r3
 800342e:	6011      	str	r1, [r2, #0]
    hdma->DMAmuxChannel->CCR &= ~DMAMUX_CxCR_SOIE;
 8003430:	6c41      	ldr	r1, [r0, #68]	@ 0x44
 8003432:	680a      	ldr	r2, [r1, #0]
 8003434:	4022      	ands	r2, r4
 8003436:	600a      	str	r2, [r1, #0]
    __HAL_DMA_CLEAR_FLAG(hdma, ((DMA_FLAG_GI1) << (hdma->ChannelIndex & 0x1CU)));
 8003438:	6c02      	ldr	r2, [r0, #64]	@ 0x40
 800343a:	4910      	ldr	r1, [pc, #64]	@ (800347c <HAL_DMA_Abort_IT+0x74>)
 800343c:	4032      	ands	r2, r6
 800343e:	4093      	lsls	r3, r2
 8003440:	684d      	ldr	r5, [r1, #4]
 8003442:	432b      	orrs	r3, r5
 8003444:	604b      	str	r3, [r1, #4]
    hdma->DMAmuxChannelStatus->CFR = hdma->DMAmuxChannelStatusMask;
 8003446:	6cc2      	ldr	r2, [r0, #76]	@ 0x4c
 8003448:	6c83      	ldr	r3, [r0, #72]	@ 0x48
 800344a:	605a      	str	r2, [r3, #4]
    if (hdma->DMAmuxRequestGen != 0U)
 800344c:	6d03      	ldr	r3, [r0, #80]	@ 0x50
 800344e:	2b00      	cmp	r3, #0
 8003450:	d005      	beq.n	800345e <HAL_DMA_Abort_IT+0x56>
      hdma->DMAmuxRequestGen->RGCR &= ~DMAMUX_RGxCR_OIE;
 8003452:	681a      	ldr	r2, [r3, #0]
 8003454:	4022      	ands	r2, r4
 8003456:	601a      	str	r2, [r3, #0]
      hdma->DMAmuxRequestGenStatus->RGCFR = hdma->DMAmuxRequestGenStatusMask;
 8003458:	6d43      	ldr	r3, [r0, #84]	@ 0x54
 800345a:	6d82      	ldr	r2, [r0, #88]	@ 0x58
 800345c:	605a      	str	r2, [r3, #4]
    hdma->State = HAL_DMA_STATE_READY;
 800345e:	2325      	movs	r3, #37	@ 0x25
 8003460:	2201      	movs	r2, #1
 8003462:	54c2      	strb	r2, [r0, r3]
    __HAL_UNLOCK(hdma);
 8003464:	2200      	movs	r2, #0
 8003466:	3b01      	subs	r3, #1
 8003468:	54c2      	strb	r2, [r0, r3]
    if (hdma->XferAbortCallback != NULL)
 800346a:	6b83      	ldr	r3, [r0, #56]	@ 0x38
 800346c:	2b00      	cmp	r3, #0
 800346e:	d000      	beq.n	8003472 <HAL_DMA_Abort_IT+0x6a>
      hdma->XferAbortCallback(hdma);
 8003470:	4798      	blx	r3
  HAL_StatusTypeDef status = HAL_OK;
 8003472:	2000      	movs	r0, #0
 8003474:	e7d0      	b.n	8003418 <HAL_DMA_Abort_IT+0x10>
 8003476:	46c0      	nop			@ (mov r8, r8)
 8003478:	fffffeff 	.word	0xfffffeff
 800347c:	40020000 	.word	0x40020000

08003480 <HAL_DMA_IRQHandler>:
{
 8003480:	b570      	push	{r4, r5, r6, lr}
  if (((flag_it & (DMA_FLAG_HT1 << (hdma->ChannelIndex & 0x1CU))) != 0U) && ((source_it & DMA_IT_HT) != 0U))
 8003482:	211c      	movs	r1, #28
 8003484:	2404      	movs	r4, #4
  uint32_t flag_it = DMA1->ISR;
 8003486:	4b2b      	ldr	r3, [pc, #172]	@ (8003534 <HAL_DMA_IRQHandler+0xb4>)
  uint32_t source_it = hdma->Instance->CCR;
 8003488:	6806      	ldr	r6, [r0, #0]
  uint32_t flag_it = DMA1->ISR;
 800348a:	681a      	ldr	r2, [r3, #0]
  if (((flag_it & (DMA_FLAG_HT1 << (hdma->ChannelIndex & 0x1CU))) != 0U) && ((source_it & DMA_IT_HT) != 0U))
 800348c:	6c03      	ldr	r3, [r0, #64]	@ 0x40
  uint32_t source_it = hdma->Instance->CCR;
 800348e:	6835      	ldr	r5, [r6, #0]
  if (((flag_it & (DMA_FLAG_HT1 << (hdma->ChannelIndex & 0x1CU))) != 0U) && ((source_it & DMA_IT_HT) != 0U))
 8003490:	400b      	ands	r3, r1
 8003492:	0021      	movs	r1, r4
 8003494:	4099      	lsls	r1, r3
 8003496:	420a      	tst	r2, r1
 8003498:	d010      	beq.n	80034bc <HAL_DMA_IRQHandler+0x3c>
 800349a:	422c      	tst	r4, r5
 800349c:	d00e      	beq.n	80034bc <HAL_DMA_IRQHandler+0x3c>
      if ((hdma->Instance->CCR & DMA_CCR_CIRC) == 0U)
 800349e:	6833      	ldr	r3, [r6, #0]
 80034a0:	069b      	lsls	r3, r3, #26
 80034a2:	d402      	bmi.n	80034aa <HAL_DMA_IRQHandler+0x2a>
        __HAL_DMA_DISABLE_IT(hdma, DMA_IT_HT);
 80034a4:	6833      	ldr	r3, [r6, #0]
 80034a6:	43a3      	bics	r3, r4
 80034a8:	6033      	str	r3, [r6, #0]
      __HAL_DMA_CLEAR_FLAG(hdma, (DMA_FLAG_HT1 << (hdma->ChannelIndex & 0x1CU)));
 80034aa:	4b22      	ldr	r3, [pc, #136]	@ (8003534 <HAL_DMA_IRQHandler+0xb4>)
 80034ac:	685a      	ldr	r2, [r3, #4]
 80034ae:	4311      	orrs	r1, r2
 80034b0:	6059      	str	r1, [r3, #4]
      if (hdma->XferHalfCpltCallback != NULL)
 80034b2:	6b03      	ldr	r3, [r0, #48]	@ 0x30
 80034b4:	2b00      	cmp	r3, #0
 80034b6:	d000      	beq.n	80034ba <HAL_DMA_IRQHandler+0x3a>
      hdma->XferErrorCallback(hdma);
 80034b8:	4798      	blx	r3
}
 80034ba:	bd70      	pop	{r4, r5, r6, pc}
  else if ((0U != (flag_it & (DMA_FLAG_TC1 << (hdma->ChannelIndex & 0x1CU)))) && (0U != (source_it & DMA_IT_TC)))
 80034bc:	2402      	movs	r4, #2
 80034be:	0021      	movs	r1, r4
 80034c0:	4099      	lsls	r1, r3
 80034c2:	420a      	tst	r2, r1
 80034c4:	d017      	beq.n	80034f6 <HAL_DMA_IRQHandler+0x76>
 80034c6:	422c      	tst	r4, r5
 80034c8:	d015      	beq.n	80034f6 <HAL_DMA_IRQHandler+0x76>
      if ((hdma->Instance->CCR & DMA_CCR_CIRC) == 0U)
 80034ca:	6833      	ldr	r3, [r6, #0]
 80034cc:	069b      	lsls	r3, r3, #26
 80034ce:	d406      	bmi.n	80034de <HAL_DMA_IRQHandler+0x5e>
        __HAL_DMA_DISABLE_IT(hdma, DMA_IT_TE | DMA_IT_TC);
 80034d0:	220a      	movs	r2, #10
 80034d2:	6833      	ldr	r3, [r6, #0]
 80034d4:	4393      	bics	r3, r2
 80034d6:	6033      	str	r3, [r6, #0]
        hdma->State = HAL_DMA_STATE_READY;
 80034d8:	2325      	movs	r3, #37	@ 0x25
 80034da:	3a09      	subs	r2, #9
 80034dc:	54c2      	strb	r2, [r0, r3]
      __HAL_DMA_CLEAR_FLAG(hdma, (DMA_FLAG_TC1 << (hdma->ChannelIndex & 0x1CU)));
 80034de:	4b15      	ldr	r3, [pc, #84]	@ (8003534 <HAL_DMA_IRQHandler+0xb4>)
 80034e0:	685a      	ldr	r2, [r3, #4]
 80034e2:	4311      	orrs	r1, r2
 80034e4:	6059      	str	r1, [r3, #4]
      __HAL_UNLOCK(hdma);
 80034e6:	2200      	movs	r2, #0
 80034e8:	2324      	movs	r3, #36	@ 0x24
 80034ea:	54c2      	strb	r2, [r0, r3]
      if (hdma->XferCpltCallback != NULL)
 80034ec:	6ac3      	ldr	r3, [r0, #44]	@ 0x2c
 80034ee:	2b00      	cmp	r3, #0
 80034f0:	d0e3      	beq.n	80034ba <HAL_DMA_IRQHandler+0x3a>
      hdma->XferErrorCallback(hdma);
 80034f2:	4798      	blx	r3
  return;
 80034f4:	e7e1      	b.n	80034ba <HAL_DMA_IRQHandler+0x3a>
  else if (((flag_it & (DMA_FLAG_TE1 << (hdma->ChannelIndex & 0x1CU))) != 0U) && ((source_it & DMA_IT_TE) != 0U))
 80034f6:	2108      	movs	r1, #8
 80034f8:	000c      	movs	r4, r1
 80034fa:	409c      	lsls	r4, r3
 80034fc:	4222      	tst	r2, r4
 80034fe:	d0dc      	beq.n	80034ba <HAL_DMA_IRQHandler+0x3a>
 8003500:	4229      	tst	r1, r5
 8003502:	d0da      	beq.n	80034ba <HAL_DMA_IRQHandler+0x3a>
    __HAL_DMA_DISABLE_IT(hdma, (DMA_IT_TC | DMA_IT_HT | DMA_IT_TE));
 8003504:	6832      	ldr	r2, [r6, #0]
 8003506:	3106      	adds	r1, #6
 8003508:	438a      	bics	r2, r1
 800350a:	6032      	str	r2, [r6, #0]
    __HAL_DMA_CLEAR_FLAG(hdma, (DMA_FLAG_GI1 << (hdma->ChannelIndex & 0x1CU)));
 800350c:	2201      	movs	r2, #1
 800350e:	0015      	movs	r5, r2
 8003510:	409d      	lsls	r5, r3
 8003512:	002b      	movs	r3, r5
 8003514:	4907      	ldr	r1, [pc, #28]	@ (8003534 <HAL_DMA_IRQHandler+0xb4>)
 8003516:	684c      	ldr	r4, [r1, #4]
 8003518:	4323      	orrs	r3, r4
 800351a:	604b      	str	r3, [r1, #4]
    hdma->State = HAL_DMA_STATE_READY;
 800351c:	2325      	movs	r3, #37	@ 0x25
    hdma->ErrorCode = HAL_DMA_ERROR_TE;
 800351e:	63c2      	str	r2, [r0, #60]	@ 0x3c
    hdma->State = HAL_DMA_STATE_READY;
 8003520:	54c2      	strb	r2, [r0, r3]
    __HAL_UNLOCK(hdma);
 8003522:	2200      	movs	r2, #0
 8003524:	3b01      	subs	r3, #1
 8003526:	54c2      	strb	r2, [r0, r3]
    if (hdma->XferErrorCallback != NULL)
 8003528:	6b43      	ldr	r3, [r0, #52]	@ 0x34
 800352a:	2b00      	cmp	r3, #0
 800352c:	d0c5      	beq.n	80034ba <HAL_DMA_IRQHandler+0x3a>
      hdma->XferErrorCallback(hdma);
 800352e:	4798      	blx	r3
  return;
 8003530:	e7c3      	b.n	80034ba <HAL_DMA_IRQHandler+0x3a>
 8003532:	46c0      	nop			@ (mov r8, r8)
 8003534:	40020000 	.word	0x40020000

08003538 <HAL_GPIO_Init>:
  * @param  GPIO_Init pointer to a GPIO_InitTypeDef structure that contains
  *         the configuration information for the specified GPIO peripheral.
  * @retval None
  */
void HAL_GPIO_Init(GPIO_TypeDef  *GPIOx, GPIO_InitTypeDef *GPIO_Init)
{
 8003538:	b5f0      	push	{r4, r5, r6, r7, lr}
 800353a:	46de      	mov	lr, fp
 800353c:	4657      	mov	r7, sl
 800353e:	464e      	mov	r6, r9
 8003540:	4645      	mov	r5, r8
 8003542:	b5e0      	push	{r5, r6, r7, lr}
  assert_param(IS_GPIO_ALL_INSTANCE(GPIOx));
  assert_param(IS_GPIO_PIN(GPIO_Init->Pin));
  assert_param(IS_GPIO_MODE(GPIO_Init->Mode));

  /* Configure the port pins */
  while (((GPIO_Init->Pin) >> position) != 0x00u)
 8003544:	680c      	ldr	r4, [r1, #0]
{
 8003546:	468b      	mov	fp, r1
  uint32_t position = 0x00u;
 8003548:	2300      	movs	r3, #0
{
 800354a:	b083      	sub	sp, #12
  while (((GPIO_Init->Pin) >> position) != 0x00u)
 800354c:	2c00      	cmp	r4, #0
 800354e:	d068      	beq.n	8003622 <HAL_GPIO_Init+0xea>
  {
    /* Get current io position */
    iocurrent = (GPIO_Init->Pin) & (1uL << position);
 8003550:	2201      	movs	r2, #1
 8003552:	409a      	lsls	r2, r3
 8003554:	4694      	mov	ip, r2
 8003556:	4022      	ands	r2, r4
 8003558:	4692      	mov	sl, r2

    if (iocurrent != 0x00u)
 800355a:	4662      	mov	r2, ip
 800355c:	4214      	tst	r4, r2
 800355e:	d05c      	beq.n	800361a <HAL_GPIO_Init+0xe2>
        /* Check the Speed parameter */
        assert_param(IS_GPIO_SPEED(GPIO_Init->Speed));

        /* Configure the IO Speed */
        temp = GPIOx->OSPEEDR;
        temp &= ~(GPIO_OSPEEDR_OSPEED0 << (position * 2u));
 8003560:	2103      	movs	r1, #3
      if (((GPIO_Init->Mode & GPIO_MODE) == MODE_OUTPUT) || ((GPIO_Init->Mode & GPIO_MODE) == MODE_AF))
 8003562:	465a      	mov	r2, fp
 8003564:	005f      	lsls	r7, r3, #1
        temp &= ~(GPIO_OSPEEDR_OSPEED0 << (position * 2u));
 8003566:	40b9      	lsls	r1, r7
      if (((GPIO_Init->Mode & GPIO_MODE) == MODE_OUTPUT) || ((GPIO_Init->Mode & GPIO_MODE) == MODE_AF))
 8003568:	6855      	ldr	r5, [r2, #4]
 800356a:	2203      	movs	r2, #3
        temp &= ~(GPIO_OSPEEDR_OSPEED0 << (position * 2u));
 800356c:	43c9      	mvns	r1, r1
      if (((GPIO_Init->Mode & GPIO_MODE) == MODE_OUTPUT) || ((GPIO_Init->Mode & GPIO_MODE) == MODE_AF))
 800356e:	402a      	ands	r2, r5
 8003570:	1e56      	subs	r6, r2, #1
        temp &= ~(GPIO_OSPEEDR_OSPEED0 << (position * 2u));
 8003572:	9100      	str	r1, [sp, #0]
      if (((GPIO_Init->Mode & GPIO_MODE) == MODE_OUTPUT) || ((GPIO_Init->Mode & GPIO_MODE) == MODE_AF))
 8003574:	2e01      	cmp	r6, #1
 8003576:	d95b      	bls.n	8003630 <HAL_GPIO_Init+0xf8>
        temp &= ~(GPIO_OTYPER_OT0 << position) ;
        temp |= (((GPIO_Init->Mode & OUTPUT_TYPE) >> OUTPUT_TYPE_Pos) << position);
        GPIOx->OTYPER = temp;
      }

      if ((GPIO_Init->Mode & GPIO_MODE) != MODE_ANALOG)
 8003578:	2a03      	cmp	r2, #3
 800357a:	d000      	beq.n	800357e <HAL_GPIO_Init+0x46>
 800357c:	e0ad      	b.n	80036da <HAL_GPIO_Init+0x1a2>
      }

      /* Configure IO Direction mode (Input, Output, Alternate or Analog) */
      temp = GPIOx->MODER;
      temp &= ~(GPIO_MODER_MODE0 << (position * 2u));
      temp |= ((GPIO_Init->Mode & GPIO_MODE) << (position * 2u));
 800357e:	40ba      	lsls	r2, r7
      temp = GPIOx->MODER;
 8003580:	6806      	ldr	r6, [r0, #0]
      temp &= ~(GPIO_MODER_MODE0 << (position * 2u));
 8003582:	9900      	ldr	r1, [sp, #0]
 8003584:	4031      	ands	r1, r6
      temp |= ((GPIO_Init->Mode & GPIO_MODE) << (position * 2u));
 8003586:	430a      	orrs	r2, r1
      GPIOx->MODER = temp;
 8003588:	6002      	str	r2, [r0, #0]

      /*--------------------- EXTI Mode Configuration ------------------------*/
      /* Configure the External Interrupt or event for the current IO */
      if ((GPIO_Init->Mode & EXTI_MODE) != 0x00u)
 800358a:	22c0      	movs	r2, #192	@ 0xc0
 800358c:	0292      	lsls	r2, r2, #10
 800358e:	4215      	tst	r5, r2
 8003590:	d043      	beq.n	800361a <HAL_GPIO_Init+0xe2>
      {
        temp = EXTI->EXTICR[position >> 2u];
        temp &= ~(0x0FuL << (8u * (position & 0x03u)));
 8003592:	2703      	movs	r7, #3
 8003594:	260f      	movs	r6, #15
 8003596:	495d      	ldr	r1, [pc, #372]	@ (800370c <HAL_GPIO_Init+0x1d4>)
 8003598:	401f      	ands	r7, r3
 800359a:	468c      	mov	ip, r1
 800359c:	00ff      	lsls	r7, r7, #3
 800359e:	40be      	lsls	r6, r7
        temp = EXTI->EXTICR[position >> 2u];
 80035a0:	089a      	lsrs	r2, r3, #2
 80035a2:	0092      	lsls	r2, r2, #2
 80035a4:	4462      	add	r2, ip
 80035a6:	6e11      	ldr	r1, [r2, #96]	@ 0x60
        temp &= ~(0x0FuL << (8u * (position & 0x03u)));
 80035a8:	43b1      	bics	r1, r6
        temp |= (GPIO_GET_INDEX(GPIOx) << (8u * (position & 0x03u)));
 80035aa:	26a0      	movs	r6, #160	@ 0xa0
 80035ac:	05f6      	lsls	r6, r6, #23
 80035ae:	42b0      	cmp	r0, r6
 80035b0:	d00e      	beq.n	80035d0 <HAL_GPIO_Init+0x98>
 80035b2:	4e57      	ldr	r6, [pc, #348]	@ (8003710 <HAL_GPIO_Init+0x1d8>)
 80035b4:	42b0      	cmp	r0, r6
 80035b6:	d100      	bne.n	80035ba <HAL_GPIO_Init+0x82>
 80035b8:	e0a0      	b.n	80036fc <HAL_GPIO_Init+0x1c4>
 80035ba:	4e56      	ldr	r6, [pc, #344]	@ (8003714 <HAL_GPIO_Init+0x1dc>)
 80035bc:	42b0      	cmp	r0, r6
 80035be:	d100      	bne.n	80035c2 <HAL_GPIO_Init+0x8a>
 80035c0:	e0a0      	b.n	8003704 <HAL_GPIO_Init+0x1cc>
 80035c2:	4e55      	ldr	r6, [pc, #340]	@ (8003718 <HAL_GPIO_Init+0x1e0>)
 80035c4:	42b0      	cmp	r0, r6
 80035c6:	d100      	bne.n	80035ca <HAL_GPIO_Init+0x92>
 80035c8:	e094      	b.n	80036f4 <HAL_GPIO_Init+0x1bc>
 80035ca:	2605      	movs	r6, #5
 80035cc:	40be      	lsls	r6, r7
 80035ce:	4331      	orrs	r1, r6
        EXTI->EXTICR[position >> 2u] = temp;

        /* Clear Rising Falling edge configuration */
        temp = EXTI->RTSR1;
        temp &= ~(iocurrent);
        if ((GPIO_Init->Mode & TRIGGER_RISING) != 0x00u)
 80035d0:	2680      	movs	r6, #128	@ 0x80
        EXTI->EXTICR[position >> 2u] = temp;
 80035d2:	6611      	str	r1, [r2, #96]	@ 0x60
        temp &= ~(iocurrent);
 80035d4:	4651      	mov	r1, sl
        temp = EXTI->RTSR1;
 80035d6:	4a4d      	ldr	r2, [pc, #308]	@ (800370c <HAL_GPIO_Init+0x1d4>)
        if ((GPIO_Init->Mode & TRIGGER_RISING) != 0x00u)
 80035d8:	0376      	lsls	r6, r6, #13
        temp &= ~(iocurrent);
 80035da:	43c9      	mvns	r1, r1
        temp = EXTI->RTSR1;
 80035dc:	6812      	ldr	r2, [r2, #0]
        if ((GPIO_Init->Mode & TRIGGER_RISING) != 0x00u)
 80035de:	4235      	tst	r5, r6
 80035e0:	d000      	beq.n	80035e4 <HAL_GPIO_Init+0xac>
 80035e2:	e077      	b.n	80036d4 <HAL_GPIO_Init+0x19c>
        temp &= ~(iocurrent);
 80035e4:	400a      	ands	r2, r1
        {
          temp |= iocurrent;
        }
        EXTI->RTSR1 = temp;
 80035e6:	4e49      	ldr	r6, [pc, #292]	@ (800370c <HAL_GPIO_Init+0x1d4>)
 80035e8:	6032      	str	r2, [r6, #0]

        temp = EXTI->FTSR1;
 80035ea:	6872      	ldr	r2, [r6, #4]
        temp &= ~(iocurrent);
        if ((GPIO_Init->Mode & TRIGGER_FALLING) != 0x00u)
 80035ec:	2680      	movs	r6, #128	@ 0x80
 80035ee:	03b6      	lsls	r6, r6, #14
 80035f0:	4235      	tst	r5, r6
 80035f2:	d16c      	bne.n	80036ce <HAL_GPIO_Init+0x196>
        temp &= ~(iocurrent);
 80035f4:	400a      	ands	r2, r1
        {
          temp |= iocurrent;
        }
        EXTI->FTSR1 = temp;
 80035f6:	4e45      	ldr	r6, [pc, #276]	@ (800370c <HAL_GPIO_Init+0x1d4>)
 80035f8:	6072      	str	r2, [r6, #4]

        /* Clear EXTI line configuration */
        temp = EXTI->EMR1;
 80035fa:	2284      	movs	r2, #132	@ 0x84
 80035fc:	58b2      	ldr	r2, [r6, r2]
        temp &= ~(iocurrent);
        if ((GPIO_Init->Mode & EXTI_EVT) != 0x00u)
 80035fe:	03af      	lsls	r7, r5, #14
 8003600:	d462      	bmi.n	80036c8 <HAL_GPIO_Init+0x190>
        temp &= ~(iocurrent);
 8003602:	400a      	ands	r2, r1
        {
          temp |= iocurrent;
        }
        EXTI->EMR1 = temp;
 8003604:	2784      	movs	r7, #132	@ 0x84
 8003606:	4e41      	ldr	r6, [pc, #260]	@ (800370c <HAL_GPIO_Init+0x1d4>)
 8003608:	51f2      	str	r2, [r6, r7]

        temp = EXTI->IMR1;
 800360a:	2280      	movs	r2, #128	@ 0x80
 800360c:	58b2      	ldr	r2, [r6, r2]
        temp &= ~(iocurrent);
        if ((GPIO_Init->Mode & EXTI_IT) != 0x00u)
 800360e:	03ed      	lsls	r5, r5, #15
 8003610:	d456      	bmi.n	80036c0 <HAL_GPIO_Init+0x188>
        temp &= ~(iocurrent);
 8003612:	400a      	ands	r2, r1
        {
          temp |= iocurrent;
        }
        EXTI->IMR1 = temp;
 8003614:	2180      	movs	r1, #128	@ 0x80
 8003616:	4d3d      	ldr	r5, [pc, #244]	@ (800370c <HAL_GPIO_Init+0x1d4>)
 8003618:	506a      	str	r2, [r5, r1]
  while (((GPIO_Init->Pin) >> position) != 0x00u)
 800361a:	0022      	movs	r2, r4
      }
    }

    position++;
 800361c:	3301      	adds	r3, #1
  while (((GPIO_Init->Pin) >> position) != 0x00u)
 800361e:	40da      	lsrs	r2, r3
 8003620:	d196      	bne.n	8003550 <HAL_GPIO_Init+0x18>
  }
}
 8003622:	b003      	add	sp, #12
 8003624:	bcf0      	pop	{r4, r5, r6, r7}
 8003626:	46bb      	mov	fp, r7
 8003628:	46b2      	mov	sl, r6
 800362a:	46a9      	mov	r9, r5
 800362c:	46a0      	mov	r8, r4
 800362e:	bdf0      	pop	{r4, r5, r6, r7, pc}
        temp = GPIOx->OSPEEDR;
 8003630:	6881      	ldr	r1, [r0, #8]
        temp &= ~(GPIO_OSPEEDR_OSPEED0 << (position * 2u));
 8003632:	000e      	movs	r6, r1
 8003634:	9900      	ldr	r1, [sp, #0]
 8003636:	400e      	ands	r6, r1
        temp |= (GPIO_Init->Speed << (position * 2u));
 8003638:	4659      	mov	r1, fp
 800363a:	68c9      	ldr	r1, [r1, #12]
        temp &= ~(GPIO_OSPEEDR_OSPEED0 << (position * 2u));
 800363c:	46b1      	mov	r9, r6
        temp |= (GPIO_Init->Speed << (position * 2u));
 800363e:	000e      	movs	r6, r1
 8003640:	40be      	lsls	r6, r7
 8003642:	46b0      	mov	r8, r6
 8003644:	464e      	mov	r6, r9
 8003646:	4641      	mov	r1, r8
 8003648:	430e      	orrs	r6, r1
        GPIOx->OSPEEDR = temp;
 800364a:	6086      	str	r6, [r0, #8]
        temp = GPIOx->OTYPER;
 800364c:	6841      	ldr	r1, [r0, #4]
        temp &= ~(GPIO_OTYPER_OT0 << position) ;
 800364e:	000e      	movs	r6, r1
 8003650:	4661      	mov	r1, ip
 8003652:	438e      	bics	r6, r1
        temp |= (((GPIO_Init->Mode & OUTPUT_TYPE) >> OUTPUT_TYPE_Pos) << position);
 8003654:	0929      	lsrs	r1, r5, #4
        temp &= ~(GPIO_OTYPER_OT0 << position) ;
 8003656:	46b0      	mov	r8, r6
        temp |= (((GPIO_Init->Mode & OUTPUT_TYPE) >> OUTPUT_TYPE_Pos) << position);
 8003658:	000e      	movs	r6, r1
 800365a:	2101      	movs	r1, #1
 800365c:	400e      	ands	r6, r1
 800365e:	409e      	lsls	r6, r3
 8003660:	46b4      	mov	ip, r6
 8003662:	4646      	mov	r6, r8
 8003664:	4661      	mov	r1, ip
 8003666:	430e      	orrs	r6, r1
        GPIOx->OTYPER = temp;
 8003668:	6046      	str	r6, [r0, #4]
        temp = GPIOx->PUPDR;
 800366a:	68c1      	ldr	r1, [r0, #12]
        temp &= ~(GPIO_PUPDR_PUPD0 << (position * 2u));
 800366c:	000e      	movs	r6, r1
 800366e:	9900      	ldr	r1, [sp, #0]
 8003670:	400e      	ands	r6, r1
        temp |= ((GPIO_Init->Pull) << (position * 2u));
 8003672:	4659      	mov	r1, fp
 8003674:	6889      	ldr	r1, [r1, #8]
        temp &= ~(GPIO_PUPDR_PUPD0 << (position * 2u));
 8003676:	46b0      	mov	r8, r6
        temp |= ((GPIO_Init->Pull) << (position * 2u));
 8003678:	000e      	movs	r6, r1
 800367a:	40be      	lsls	r6, r7
 800367c:	46b4      	mov	ip, r6
 800367e:	4646      	mov	r6, r8
 8003680:	4661      	mov	r1, ip
 8003682:	430e      	orrs	r6, r1
        GPIOx->PUPDR = temp;
 8003684:	60c6      	str	r6, [r0, #12]
      if ((GPIO_Init->Mode & GPIO_MODE) == MODE_AF)
 8003686:	2a02      	cmp	r2, #2
 8003688:	d000      	beq.n	800368c <HAL_GPIO_Init+0x154>
 800368a:	e778      	b.n	800357e <HAL_GPIO_Init+0x46>
        temp = GPIOx->AFR[position >> 3u];
 800368c:	08d9      	lsrs	r1, r3, #3
 800368e:	0089      	lsls	r1, r1, #2
 8003690:	468c      	mov	ip, r1
 8003692:	4484      	add	ip, r0
 8003694:	4661      	mov	r1, ip
 8003696:	6a0e      	ldr	r6, [r1, #32]
        temp &= ~(0xFu << ((position & 0x07u) * 4u));
 8003698:	2107      	movs	r1, #7
 800369a:	4019      	ands	r1, r3
 800369c:	0089      	lsls	r1, r1, #2
 800369e:	4688      	mov	r8, r1
        temp = GPIOx->AFR[position >> 3u];
 80036a0:	9601      	str	r6, [sp, #4]
        temp &= ~(0xFu << ((position & 0x07u) * 4u));
 80036a2:	210f      	movs	r1, #15
 80036a4:	4646      	mov	r6, r8
 80036a6:	40b1      	lsls	r1, r6
 80036a8:	9e01      	ldr	r6, [sp, #4]
 80036aa:	438e      	bics	r6, r1
        temp |= ((GPIO_Init->Alternate) << ((position & 0x07u) * 4u));
 80036ac:	4659      	mov	r1, fp
        temp &= ~(0xFu << ((position & 0x07u) * 4u));
 80036ae:	9601      	str	r6, [sp, #4]
        temp |= ((GPIO_Init->Alternate) << ((position & 0x07u) * 4u));
 80036b0:	4646      	mov	r6, r8
 80036b2:	6909      	ldr	r1, [r1, #16]
 80036b4:	40b1      	lsls	r1, r6
 80036b6:	9e01      	ldr	r6, [sp, #4]
 80036b8:	430e      	orrs	r6, r1
        GPIOx->AFR[position >> 3u] = temp;
 80036ba:	4661      	mov	r1, ip
 80036bc:	620e      	str	r6, [r1, #32]
 80036be:	e75e      	b.n	800357e <HAL_GPIO_Init+0x46>
          temp |= iocurrent;
 80036c0:	4651      	mov	r1, sl
 80036c2:	4311      	orrs	r1, r2
 80036c4:	000a      	movs	r2, r1
 80036c6:	e7a5      	b.n	8003614 <HAL_GPIO_Init+0xdc>
          temp |= iocurrent;
 80036c8:	4656      	mov	r6, sl
 80036ca:	4332      	orrs	r2, r6
 80036cc:	e79a      	b.n	8003604 <HAL_GPIO_Init+0xcc>
          temp |= iocurrent;
 80036ce:	4656      	mov	r6, sl
 80036d0:	4332      	orrs	r2, r6
 80036d2:	e790      	b.n	80035f6 <HAL_GPIO_Init+0xbe>
          temp |= iocurrent;
 80036d4:	4656      	mov	r6, sl
 80036d6:	4332      	orrs	r2, r6
 80036d8:	e785      	b.n	80035e6 <HAL_GPIO_Init+0xae>
 80036da:	000e      	movs	r6, r1
        temp = GPIOx->PUPDR;
 80036dc:	68c1      	ldr	r1, [r0, #12]
        temp &= ~(GPIO_PUPDR_PUPD0 << (position * 2u));
 80036de:	4031      	ands	r1, r6
 80036e0:	4688      	mov	r8, r1
        temp |= ((GPIO_Init->Pull) << (position * 2u));
 80036e2:	4659      	mov	r1, fp
 80036e4:	6889      	ldr	r1, [r1, #8]
 80036e6:	40b9      	lsls	r1, r7
 80036e8:	468c      	mov	ip, r1
 80036ea:	4641      	mov	r1, r8
 80036ec:	4666      	mov	r6, ip
 80036ee:	4331      	orrs	r1, r6
        GPIOx->PUPDR = temp;
 80036f0:	60c1      	str	r1, [r0, #12]
      if ((GPIO_Init->Mode & GPIO_MODE) == MODE_AF)
 80036f2:	e744      	b.n	800357e <HAL_GPIO_Init+0x46>
        temp |= (GPIO_GET_INDEX(GPIOx) << (8u * (position & 0x03u)));
 80036f4:	2603      	movs	r6, #3
 80036f6:	40be      	lsls	r6, r7
 80036f8:	4331      	orrs	r1, r6
 80036fa:	e769      	b.n	80035d0 <HAL_GPIO_Init+0x98>
 80036fc:	2601      	movs	r6, #1
 80036fe:	40be      	lsls	r6, r7
 8003700:	4331      	orrs	r1, r6
 8003702:	e765      	b.n	80035d0 <HAL_GPIO_Init+0x98>
 8003704:	2602      	movs	r6, #2
 8003706:	40be      	lsls	r6, r7
 8003708:	4331      	orrs	r1, r6
 800370a:	e761      	b.n	80035d0 <HAL_GPIO_Init+0x98>
 800370c:	40021800 	.word	0x40021800
 8003710:	50000400 	.word	0x50000400
 8003714:	50000800 	.word	0x50000800
 8003718:	50000c00 	.word	0x50000c00

0800371c <HAL_GPIO_ReadPin>:
  GPIO_PinState bitstatus;

  /* Check the parameters */
  assert_param(IS_GPIO_PIN(GPIO_Pin));

  if ((GPIOx->IDR & GPIO_Pin) != 0x00u)
 800371c:	6900      	ldr	r0, [r0, #16]
 800371e:	4008      	ands	r0, r1
 8003720:	1e43      	subs	r3, r0, #1
 8003722:	4198      	sbcs	r0, r3
  }
  else
  {
    bitstatus = GPIO_PIN_RESET;
  }
  return bitstatus;
 8003724:	b2c0      	uxtb	r0, r0
}
 8003726:	4770      	bx	lr

08003728 <HAL_GPIO_WritePin>:
{
  /* Check the parameters */
  assert_param(IS_GPIO_PIN(GPIO_Pin));
  assert_param(IS_GPIO_PIN_ACTION(PinState));

  if (PinState != GPIO_PIN_RESET)
 8003728:	2a00      	cmp	r2, #0
 800372a:	d001      	beq.n	8003730 <HAL_GPIO_WritePin+0x8>
  {
    GPIOx->BSRR = (uint32_t)GPIO_Pin;
 800372c:	6181      	str	r1, [r0, #24]
  }
  else
  {
    GPIOx->BRR = (uint32_t)GPIO_Pin;
  }
}
 800372e:	4770      	bx	lr
    GPIOx->BRR = (uint32_t)GPIO_Pin;
 8003730:	6281      	str	r1, [r0, #40]	@ 0x28
}
 8003732:	e7fc      	b.n	800372e <HAL_GPIO_WritePin+0x6>

08003734 <HAL_GPIO_EXTI_IRQHandler>:
  * @retval None
  */
void HAL_GPIO_EXTI_IRQHandler(uint16_t GPIO_Pin)
{
  /* EXTI line interrupt detected */
  if (__HAL_GPIO_EXTI_GET_RISING_IT(GPIO_Pin) != 0x00u)
 8003734:	4b0b      	ldr	r3, [pc, #44]	@ (8003764 <HAL_GPIO_EXTI_IRQHandler+0x30>)
{
 8003736:	b510      	push	{r4, lr}
  if (__HAL_GPIO_EXTI_GET_RISING_IT(GPIO_Pin) != 0x00u)
 8003738:	68da      	ldr	r2, [r3, #12]
{
 800373a:	0004      	movs	r4, r0
  if (__HAL_GPIO_EXTI_GET_RISING_IT(GPIO_Pin) != 0x00u)
 800373c:	4210      	tst	r0, r2
 800373e:	d104      	bne.n	800374a <HAL_GPIO_EXTI_IRQHandler+0x16>
  {
    __HAL_GPIO_EXTI_CLEAR_RISING_IT(GPIO_Pin);
    HAL_GPIO_EXTI_Rising_Callback(GPIO_Pin);
  }

  if (__HAL_GPIO_EXTI_GET_FALLING_IT(GPIO_Pin) != 0x00u)
 8003740:	4b08      	ldr	r3, [pc, #32]	@ (8003764 <HAL_GPIO_EXTI_IRQHandler+0x30>)
 8003742:	691a      	ldr	r2, [r3, #16]
 8003744:	4222      	tst	r2, r4
 8003746:	d107      	bne.n	8003758 <HAL_GPIO_EXTI_IRQHandler+0x24>
  {
    __HAL_GPIO_EXTI_CLEAR_FALLING_IT(GPIO_Pin);
    HAL_GPIO_EXTI_Falling_Callback(GPIO_Pin);
  }
}
 8003748:	bd10      	pop	{r4, pc}
    __HAL_GPIO_EXTI_CLEAR_RISING_IT(GPIO_Pin);
 800374a:	60d8      	str	r0, [r3, #12]
    HAL_GPIO_EXTI_Rising_Callback(GPIO_Pin);
 800374c:	f7fd fe3c 	bl	80013c8 <HAL_GPIO_EXTI_Rising_Callback>
  if (__HAL_GPIO_EXTI_GET_FALLING_IT(GPIO_Pin) != 0x00u)
 8003750:	4b04      	ldr	r3, [pc, #16]	@ (8003764 <HAL_GPIO_EXTI_IRQHandler+0x30>)
 8003752:	691a      	ldr	r2, [r3, #16]
 8003754:	4222      	tst	r2, r4
 8003756:	d0f7      	beq.n	8003748 <HAL_GPIO_EXTI_IRQHandler+0x14>
    HAL_GPIO_EXTI_Falling_Callback(GPIO_Pin);
 8003758:	0020      	movs	r0, r4
    __HAL_GPIO_EXTI_CLEAR_FALLING_IT(GPIO_Pin);
 800375a:	611c      	str	r4, [r3, #16]
    HAL_GPIO_EXTI_Falling_Callback(GPIO_Pin);
 800375c:	f7fd fdf4 	bl	8001348 <HAL_GPIO_EXTI_Falling_Callback>
}
 8003760:	e7f2      	b.n	8003748 <HAL_GPIO_EXTI_IRQHandler+0x14>
 8003762:	46c0      	nop			@ (mov r8, r8)
 8003764:	40021800 	.word	0x40021800

08003768 <HAL_LPTIM_DirectionDownCallback>:
/**
  * @brief  Direction counter changed from Up to Down callback in non-blocking mode.
  * @param  hlptim LPTIM handle
  * @retval None
  */
__weak void HAL_LPTIM_DirectionDownCallback(LPTIM_HandleTypeDef *hlptim)
 8003768:	4770      	bx	lr
 800376a:	46c0      	nop			@ (mov r8, r8)

0800376c <HAL_LPTIM_CompareMatchCallback>:
__weak void HAL_LPTIM_CompareMatchCallback(LPTIM_HandleTypeDef *hlptim)
 800376c:	4770      	bx	lr
 800376e:	46c0      	nop			@ (mov r8, r8)

08003770 <HAL_LPTIM_AutoReloadMatchCallback>:
__weak void HAL_LPTIM_AutoReloadMatchCallback(LPTIM_HandleTypeDef *hlptim)
 8003770:	4770      	bx	lr
 8003772:	46c0      	nop			@ (mov r8, r8)

08003774 <HAL_LPTIM_TriggerCallback>:
__weak void HAL_LPTIM_TriggerCallback(LPTIM_HandleTypeDef *hlptim)
 8003774:	4770      	bx	lr
 8003776:	46c0      	nop			@ (mov r8, r8)

08003778 <HAL_LPTIM_CompareWriteCallback>:
__weak void HAL_LPTIM_CompareWriteCallback(LPTIM_HandleTypeDef *hlptim)
 8003778:	4770      	bx	lr
 800377a:	46c0      	nop			@ (mov r8, r8)

0800377c <HAL_LPTIM_AutoReloadWriteCallback>:
__weak void HAL_LPTIM_AutoReloadWriteCallback(LPTIM_HandleTypeDef *hlptim)
 800377c:	4770      	bx	lr
 800377e:	46c0      	nop			@ (mov r8, r8)

08003780 <HAL_LPTIM_DirectionUpCallback>:
__weak void HAL_LPTIM_DirectionUpCallback(LPTIM_HandleTypeDef *hlptim)
 8003780:	4770      	bx	lr
 8003782:	46c0      	nop			@ (mov r8, r8)

08003784 <HAL_LPTIM_Init>:
{
 8003784:	b5f8      	push	{r3, r4, r5, r6, r7, lr}
 8003786:	1e04      	subs	r4, r0, #0
  if (hlptim == NULL)
 8003788:	d062      	beq.n	8003850 <HAL_LPTIM_Init+0xcc>
  if (hlptim->State == HAL_LPTIM_STATE_RESET)
 800378a:	2336      	movs	r3, #54	@ 0x36
 800378c:	5cc3      	ldrb	r3, [r0, r3]
 800378e:	b2da      	uxtb	r2, r3
 8003790:	2b00      	cmp	r3, #0
 8003792:	d114      	bne.n	80037be <HAL_LPTIM_Init+0x3a>
    hlptim->Lock = HAL_UNLOCKED;
 8003794:	3335      	adds	r3, #53	@ 0x35
 8003796:	54c2      	strb	r2, [r0, r3]
  * @retval None
  */
static void LPTIM_ResetCallback(LPTIM_HandleTypeDef *lptim)
{
  /* Reset the LPTIM callback to the legacy weak callbacks */
  lptim->CompareMatchCallback    = HAL_LPTIM_CompareMatchCallback;
 8003798:	4b30      	ldr	r3, [pc, #192]	@ (800385c <HAL_LPTIM_Init+0xd8>)
 800379a:	6403      	str	r3, [r0, #64]	@ 0x40
  lptim->AutoReloadMatchCallback = HAL_LPTIM_AutoReloadMatchCallback;
 800379c:	4b30      	ldr	r3, [pc, #192]	@ (8003860 <HAL_LPTIM_Init+0xdc>)
 800379e:	6443      	str	r3, [r0, #68]	@ 0x44
  lptim->TriggerCallback         = HAL_LPTIM_TriggerCallback;
 80037a0:	4b30      	ldr	r3, [pc, #192]	@ (8003864 <HAL_LPTIM_Init+0xe0>)
 80037a2:	6483      	str	r3, [r0, #72]	@ 0x48
  lptim->CompareWriteCallback    = HAL_LPTIM_CompareWriteCallback;
 80037a4:	4b30      	ldr	r3, [pc, #192]	@ (8003868 <HAL_LPTIM_Init+0xe4>)
 80037a6:	64c3      	str	r3, [r0, #76]	@ 0x4c
  lptim->AutoReloadWriteCallback = HAL_LPTIM_AutoReloadWriteCallback;
 80037a8:	4b30      	ldr	r3, [pc, #192]	@ (800386c <HAL_LPTIM_Init+0xe8>)
 80037aa:	6503      	str	r3, [r0, #80]	@ 0x50
  lptim->DirectionUpCallback     = HAL_LPTIM_DirectionUpCallback;
 80037ac:	4b30      	ldr	r3, [pc, #192]	@ (8003870 <HAL_LPTIM_Init+0xec>)
 80037ae:	6543      	str	r3, [r0, #84]	@ 0x54
  lptim->DirectionDownCallback   = HAL_LPTIM_DirectionDownCallback;
 80037b0:	4b30      	ldr	r3, [pc, #192]	@ (8003874 <HAL_LPTIM_Init+0xf0>)
 80037b2:	6583      	str	r3, [r0, #88]	@ 0x58
    if (hlptim->MspInitCallback == NULL)
 80037b4:	6b83      	ldr	r3, [r0, #56]	@ 0x38
 80037b6:	2b00      	cmp	r3, #0
 80037b8:	d04c      	beq.n	8003854 <HAL_LPTIM_Init+0xd0>
    hlptim->MspInitCallback(hlptim);
 80037ba:	0020      	movs	r0, r4
 80037bc:	4798      	blx	r3
  hlptim->State = HAL_LPTIM_STATE_BUSY;
 80037be:	2336      	movs	r3, #54	@ 0x36
 80037c0:	2202      	movs	r2, #2
 80037c2:	54e2      	strb	r2, [r4, r3]
  tmpcfgr = hlptim->Instance->CFGR;
 80037c4:	6820      	ldr	r0, [r4, #0]
  if ((hlptim->Init.Clock.Source == LPTIM_CLOCKSOURCE_ULPTIM)
 80037c6:	6865      	ldr	r5, [r4, #4]
  tmpcfgr = hlptim->Instance->CFGR;
 80037c8:	68c3      	ldr	r3, [r0, #12]
      || (hlptim->Init.CounterSource == LPTIM_COUNTERSOURCE_EXTERNAL))
 80037ca:	6aa6      	ldr	r6, [r4, #40]	@ 0x28
  if ((hlptim->Init.Clock.Source == LPTIM_CLOCKSOURCE_ULPTIM)
 80037cc:	2d01      	cmp	r5, #1
 80037ce:	d038      	beq.n	8003842 <HAL_LPTIM_Init+0xbe>
      || (hlptim->Init.CounterSource == LPTIM_COUNTERSOURCE_EXTERNAL))
 80037d0:	2280      	movs	r2, #128	@ 0x80
 80037d2:	0412      	lsls	r2, r2, #16
 80037d4:	4296      	cmp	r6, r2
 80037d6:	d034      	beq.n	8003842 <HAL_LPTIM_Init+0xbe>
  if (hlptim->Init.Trigger.Source != LPTIM_TRIGSOURCE_SOFTWARE)
 80037d8:	6961      	ldr	r1, [r4, #20]
 80037da:	4a27      	ldr	r2, [pc, #156]	@ (8003878 <HAL_LPTIM_Init+0xf4>)
 80037dc:	4291      	cmp	r1, r2
 80037de:	d001      	beq.n	80037e4 <HAL_LPTIM_Init+0x60>
    tmpcfgr &= (uint32_t)(~(LPTIM_CFGR_TRGFLT | LPTIM_CFGR_TRIGSEL));
 80037e0:	4a26      	ldr	r2, [pc, #152]	@ (800387c <HAL_LPTIM_Init+0xf8>)
 80037e2:	4013      	ands	r3, r2
  tmpcfgr &= (uint32_t)(~(LPTIM_CFGR_CKSEL | LPTIM_CFGR_TRIGEN | LPTIM_CFGR_PRELOAD |
 80037e4:	4a26      	ldr	r2, [pc, #152]	@ (8003880 <HAL_LPTIM_Init+0xfc>)
              hlptim->Init.UpdateMode      |
 80037e6:	68a7      	ldr	r7, [r4, #8]
  tmpcfgr &= (uint32_t)(~(LPTIM_CFGR_CKSEL | LPTIM_CFGR_TRIGEN | LPTIM_CFGR_PRELOAD |
 80037e8:	401a      	ands	r2, r3
              hlptim->Init.UpdateMode      |
 80037ea:	002b      	movs	r3, r5
 80037ec:	4333      	orrs	r3, r6
 80037ee:	433b      	orrs	r3, r7
 80037f0:	6a27      	ldr	r7, [r4, #32]
 80037f2:	433b      	orrs	r3, r7
 80037f4:	6a67      	ldr	r7, [r4, #36]	@ 0x24
 80037f6:	433b      	orrs	r3, r7
  tmpcfgr |= (hlptim->Init.Clock.Source    |
 80037f8:	4313      	orrs	r3, r2
  if (hlptim->Init.Clock.Source == LPTIM_CLOCKSOURCE_APBCLOCK_LPOSC)
 80037fa:	2d00      	cmp	r5, #0
 80037fc:	d018      	beq.n	8003830 <HAL_LPTIM_Init+0xac>
  if ((hlptim->Init.Clock.Source == LPTIM_CLOCKSOURCE_ULPTIM)
 80037fe:	2d01      	cmp	r5, #1
 8003800:	d11a      	bne.n	8003838 <HAL_LPTIM_Init+0xb4>
    tmpcfgr |= (hlptim->Init.UltraLowPowerClock.Polarity |
 8003802:	68e2      	ldr	r2, [r4, #12]
 8003804:	6925      	ldr	r5, [r4, #16]
 8003806:	432a      	orrs	r2, r5
 8003808:	4313      	orrs	r3, r2
  if (hlptim->Init.Trigger.Source != LPTIM_TRIGSOURCE_SOFTWARE)
 800380a:	4a1b      	ldr	r2, [pc, #108]	@ (8003878 <HAL_LPTIM_Init+0xf4>)
 800380c:	4291      	cmp	r1, r2
 800380e:	d004      	beq.n	800381a <HAL_LPTIM_Init+0x96>
    tmpcfgr |= (hlptim->Init.Trigger.Source     |
 8003810:	69a2      	ldr	r2, [r4, #24]
 8003812:	4311      	orrs	r1, r2
                hlptim->Init.Trigger.ActiveEdge |
 8003814:	69e2      	ldr	r2, [r4, #28]
 8003816:	4311      	orrs	r1, r2
    tmpcfgr |= (hlptim->Init.Trigger.Source     |
 8003818:	430b      	orrs	r3, r1
  if (hlptim->Instance == LPTIM1)
 800381a:	4a1a      	ldr	r2, [pc, #104]	@ (8003884 <HAL_LPTIM_Init+0x100>)
  hlptim->Instance->CFGR = tmpcfgr;
 800381c:	60c3      	str	r3, [r0, #12]
    hlptim->Instance->CFGR2 = (hlptim->Init.Input1Source | hlptim->Init.Input2Source);
 800381e:	6ae3      	ldr	r3, [r4, #44]	@ 0x2c
  if (hlptim->Instance == LPTIM1)
 8003820:	4290      	cmp	r0, r2
 8003822:	d011      	beq.n	8003848 <HAL_LPTIM_Init+0xc4>
    hlptim->Instance->CFGR2 = hlptim->Init.Input1Source;
 8003824:	6243      	str	r3, [r0, #36]	@ 0x24
  hlptim->State = HAL_LPTIM_STATE_READY;
 8003826:	2336      	movs	r3, #54	@ 0x36
 8003828:	2201      	movs	r2, #1
  return HAL_OK;
 800382a:	2000      	movs	r0, #0
  hlptim->State = HAL_LPTIM_STATE_READY;
 800382c:	54e2      	strb	r2, [r4, r3]
}
 800382e:	bdf8      	pop	{r3, r4, r5, r6, r7, pc}
    tmpcfgr |= (hlptim->Init.Trigger.SampleTime |
 8003830:	69e2      	ldr	r2, [r4, #28]
 8003832:	6925      	ldr	r5, [r4, #16]
 8003834:	432a      	orrs	r2, r5
 8003836:	4313      	orrs	r3, r2
      || (hlptim->Init.CounterSource == LPTIM_COUNTERSOURCE_EXTERNAL))
 8003838:	2280      	movs	r2, #128	@ 0x80
 800383a:	0412      	lsls	r2, r2, #16
 800383c:	4296      	cmp	r6, r2
 800383e:	d1e4      	bne.n	800380a <HAL_LPTIM_Init+0x86>
 8003840:	e7df      	b.n	8003802 <HAL_LPTIM_Init+0x7e>
    tmpcfgr &= (uint32_t)(~(LPTIM_CFGR_CKPOL | LPTIM_CFGR_CKFLT));
 8003842:	221e      	movs	r2, #30
 8003844:	4393      	bics	r3, r2
 8003846:	e7c7      	b.n	80037d8 <HAL_LPTIM_Init+0x54>
    hlptim->Instance->CFGR2 = (hlptim->Init.Input1Source | hlptim->Init.Input2Source);
 8003848:	6b22      	ldr	r2, [r4, #48]	@ 0x30
 800384a:	4313      	orrs	r3, r2
 800384c:	6243      	str	r3, [r0, #36]	@ 0x24
 800384e:	e7ea      	b.n	8003826 <HAL_LPTIM_Init+0xa2>
    return HAL_ERROR;
 8003850:	2001      	movs	r0, #1
 8003852:	e7ec      	b.n	800382e <HAL_LPTIM_Init+0xaa>
      hlptim->MspInitCallback = HAL_LPTIM_MspInit;
 8003854:	4b0c      	ldr	r3, [pc, #48]	@ (8003888 <HAL_LPTIM_Init+0x104>)
 8003856:	6383      	str	r3, [r0, #56]	@ 0x38
 8003858:	e7af      	b.n	80037ba <HAL_LPTIM_Init+0x36>
 800385a:	46c0      	nop			@ (mov r8, r8)
 800385c:	0800376d 	.word	0x0800376d
 8003860:	08003771 	.word	0x08003771
 8003864:	08003775 	.word	0x08003775
 8003868:	08003779 	.word	0x08003779
 800386c:	0800377d 	.word	0x0800377d
 8003870:	08003781 	.word	0x08003781
 8003874:	08003769 	.word	0x08003769
 8003878:	0000ffff 	.word	0x0000ffff
 800387c:	ffff1f3f 	.word	0xffff1f3f
 8003880:	ff19f1fe 	.word	0xff19f1fe
 8003884:	40007c00 	.word	0x40007c00
 8003888:	080015cd 	.word	0x080015cd

0800388c <HAL_LPTIM_IRQHandler>:
  if (__HAL_LPTIM_GET_FLAG(hlptim, LPTIM_FLAG_CMPM) != RESET)
 800388c:	2201      	movs	r2, #1
 800388e:	6803      	ldr	r3, [r0, #0]
{
 8003890:	b510      	push	{r4, lr}
  if (__HAL_LPTIM_GET_FLAG(hlptim, LPTIM_FLAG_CMPM) != RESET)
 8003892:	6819      	ldr	r1, [r3, #0]
{
 8003894:	0004      	movs	r4, r0
  if (__HAL_LPTIM_GET_FLAG(hlptim, LPTIM_FLAG_CMPM) != RESET)
 8003896:	420a      	tst	r2, r1
 8003898:	d002      	beq.n	80038a0 <HAL_LPTIM_IRQHandler+0x14>
    if (__HAL_LPTIM_GET_IT_SOURCE(hlptim, LPTIM_IT_CMPM) != RESET)
 800389a:	6899      	ldr	r1, [r3, #8]
 800389c:	420a      	tst	r2, r1
 800389e:	d14c      	bne.n	800393a <HAL_LPTIM_IRQHandler+0xae>
  if (__HAL_LPTIM_GET_FLAG(hlptim, LPTIM_FLAG_ARRM) != RESET)
 80038a0:	2202      	movs	r2, #2
 80038a2:	6819      	ldr	r1, [r3, #0]
 80038a4:	420a      	tst	r2, r1
 80038a6:	d002      	beq.n	80038ae <HAL_LPTIM_IRQHandler+0x22>
    if (__HAL_LPTIM_GET_IT_SOURCE(hlptim, LPTIM_IT_ARRM) != RESET)
 80038a8:	6899      	ldr	r1, [r3, #8]
 80038aa:	420a      	tst	r2, r1
 80038ac:	d13f      	bne.n	800392e <HAL_LPTIM_IRQHandler+0xa2>
  if (__HAL_LPTIM_GET_FLAG(hlptim, LPTIM_FLAG_EXTTRIG) != RESET)
 80038ae:	2204      	movs	r2, #4
 80038b0:	6819      	ldr	r1, [r3, #0]
 80038b2:	420a      	tst	r2, r1
 80038b4:	d002      	beq.n	80038bc <HAL_LPTIM_IRQHandler+0x30>
    if (__HAL_LPTIM_GET_IT_SOURCE(hlptim, LPTIM_IT_EXTTRIG) != RESET)
 80038b6:	6899      	ldr	r1, [r3, #8]
 80038b8:	420a      	tst	r2, r1
 80038ba:	d132      	bne.n	8003922 <HAL_LPTIM_IRQHandler+0x96>
  if (__HAL_LPTIM_GET_FLAG(hlptim, LPTIM_FLAG_CMPOK) != RESET)
 80038bc:	2208      	movs	r2, #8
 80038be:	6819      	ldr	r1, [r3, #0]
 80038c0:	420a      	tst	r2, r1
 80038c2:	d002      	beq.n	80038ca <HAL_LPTIM_IRQHandler+0x3e>
    if (__HAL_LPTIM_GET_IT_SOURCE(hlptim, LPTIM_IT_CMPOK) != RESET)
 80038c4:	6899      	ldr	r1, [r3, #8]
 80038c6:	420a      	tst	r2, r1
 80038c8:	d125      	bne.n	8003916 <HAL_LPTIM_IRQHandler+0x8a>
  if (__HAL_LPTIM_GET_FLAG(hlptim, LPTIM_FLAG_ARROK) != RESET)
 80038ca:	2210      	movs	r2, #16
 80038cc:	6819      	ldr	r1, [r3, #0]
 80038ce:	420a      	tst	r2, r1
 80038d0:	d002      	beq.n	80038d8 <HAL_LPTIM_IRQHandler+0x4c>
    if (__HAL_LPTIM_GET_IT_SOURCE(hlptim, LPTIM_IT_ARROK) != RESET)
 80038d2:	6899      	ldr	r1, [r3, #8]
 80038d4:	420a      	tst	r2, r1
 80038d6:	d118      	bne.n	800390a <HAL_LPTIM_IRQHandler+0x7e>
  if (__HAL_LPTIM_GET_FLAG(hlptim, LPTIM_FLAG_UP) != RESET)
 80038d8:	2220      	movs	r2, #32
 80038da:	6819      	ldr	r1, [r3, #0]
 80038dc:	420a      	tst	r2, r1
 80038de:	d002      	beq.n	80038e6 <HAL_LPTIM_IRQHandler+0x5a>
    if (__HAL_LPTIM_GET_IT_SOURCE(hlptim, LPTIM_IT_UP) != RESET)
 80038e0:	6899      	ldr	r1, [r3, #8]
 80038e2:	420a      	tst	r2, r1
 80038e4:	d10b      	bne.n	80038fe <HAL_LPTIM_IRQHandler+0x72>
  if (__HAL_LPTIM_GET_FLAG(hlptim, LPTIM_FLAG_DOWN) != RESET)
 80038e6:	2240      	movs	r2, #64	@ 0x40
 80038e8:	6819      	ldr	r1, [r3, #0]
 80038ea:	420a      	tst	r2, r1
 80038ec:	d006      	beq.n	80038fc <HAL_LPTIM_IRQHandler+0x70>
    if (__HAL_LPTIM_GET_IT_SOURCE(hlptim, LPTIM_IT_DOWN) != RESET)
 80038ee:	6899      	ldr	r1, [r3, #8]
 80038f0:	420a      	tst	r2, r1
 80038f2:	d003      	beq.n	80038fc <HAL_LPTIM_IRQHandler+0x70>
      __HAL_LPTIM_CLEAR_FLAG(hlptim, LPTIM_FLAG_DOWN);
 80038f4:	605a      	str	r2, [r3, #4]
      hlptim->DirectionDownCallback(hlptim);
 80038f6:	0020      	movs	r0, r4
 80038f8:	6da3      	ldr	r3, [r4, #88]	@ 0x58
 80038fa:	4798      	blx	r3
}
 80038fc:	bd10      	pop	{r4, pc}
      __HAL_LPTIM_CLEAR_FLAG(hlptim, LPTIM_FLAG_UP);
 80038fe:	605a      	str	r2, [r3, #4]
      hlptim->DirectionUpCallback(hlptim);
 8003900:	0020      	movs	r0, r4
 8003902:	6d63      	ldr	r3, [r4, #84]	@ 0x54
 8003904:	4798      	blx	r3
  if (__HAL_LPTIM_GET_FLAG(hlptim, LPTIM_FLAG_DOWN) != RESET)
 8003906:	6823      	ldr	r3, [r4, #0]
 8003908:	e7ed      	b.n	80038e6 <HAL_LPTIM_IRQHandler+0x5a>
      __HAL_LPTIM_CLEAR_FLAG(hlptim, LPTIM_FLAG_ARROK);
 800390a:	605a      	str	r2, [r3, #4]
      hlptim->AutoReloadWriteCallback(hlptim);
 800390c:	0020      	movs	r0, r4
 800390e:	6d23      	ldr	r3, [r4, #80]	@ 0x50
 8003910:	4798      	blx	r3
  if (__HAL_LPTIM_GET_FLAG(hlptim, LPTIM_FLAG_UP) != RESET)
 8003912:	6823      	ldr	r3, [r4, #0]
 8003914:	e7e0      	b.n	80038d8 <HAL_LPTIM_IRQHandler+0x4c>
      __HAL_LPTIM_CLEAR_FLAG(hlptim, LPTIM_FLAG_CMPOK);
 8003916:	605a      	str	r2, [r3, #4]
      hlptim->CompareWriteCallback(hlptim);
 8003918:	0020      	movs	r0, r4
 800391a:	6ce3      	ldr	r3, [r4, #76]	@ 0x4c
 800391c:	4798      	blx	r3
  if (__HAL_LPTIM_GET_FLAG(hlptim, LPTIM_FLAG_ARROK) != RESET)
 800391e:	6823      	ldr	r3, [r4, #0]
 8003920:	e7d3      	b.n	80038ca <HAL_LPTIM_IRQHandler+0x3e>
      __HAL_LPTIM_CLEAR_FLAG(hlptim, LPTIM_FLAG_EXTTRIG);
 8003922:	605a      	str	r2, [r3, #4]
      hlptim->TriggerCallback(hlptim);
 8003924:	0020      	movs	r0, r4
 8003926:	6ca3      	ldr	r3, [r4, #72]	@ 0x48
 8003928:	4798      	blx	r3
  if (__HAL_LPTIM_GET_FLAG(hlptim, LPTIM_FLAG_CMPOK) != RESET)
 800392a:	6823      	ldr	r3, [r4, #0]
 800392c:	e7c6      	b.n	80038bc <HAL_LPTIM_IRQHandler+0x30>
      __HAL_LPTIM_CLEAR_FLAG(hlptim, LPTIM_FLAG_ARRM);
 800392e:	605a      	str	r2, [r3, #4]
      hlptim->AutoReloadMatchCallback(hlptim);
 8003930:	0020      	movs	r0, r4
 8003932:	6c63      	ldr	r3, [r4, #68]	@ 0x44
 8003934:	4798      	blx	r3
  if (__HAL_LPTIM_GET_FLAG(hlptim, LPTIM_FLAG_EXTTRIG) != RESET)
 8003936:	6823      	ldr	r3, [r4, #0]
 8003938:	e7b9      	b.n	80038ae <HAL_LPTIM_IRQHandler+0x22>
      __HAL_LPTIM_CLEAR_FLAG(hlptim, LPTIM_FLAG_CMPM);
 800393a:	605a      	str	r2, [r3, #4]
      hlptim->CompareMatchCallback(hlptim);
 800393c:	6c03      	ldr	r3, [r0, #64]	@ 0x40
 800393e:	4798      	blx	r3
  if (__HAL_LPTIM_GET_FLAG(hlptim, LPTIM_FLAG_ARRM) != RESET)
 8003940:	6823      	ldr	r3, [r4, #0]
 8003942:	e7ad      	b.n	80038a0 <HAL_LPTIM_IRQHandler+0x14>

08003944 <HAL_LPTIM_RegisterCallback>:
{
 8003944:	0003      	movs	r3, r0
 8003946:	b530      	push	{r4, r5, lr}
  if (pCallback == NULL)
 8003948:	2a00      	cmp	r2, #0
 800394a:	d019      	beq.n	8003980 <HAL_LPTIM_RegisterCallback+0x3c>
  if (hlptim->State == HAL_LPTIM_STATE_READY)
 800394c:	2536      	movs	r5, #54	@ 0x36
 800394e:	5d44      	ldrb	r4, [r0, r5]
 8003950:	b2e0      	uxtb	r0, r4
 8003952:	2c01      	cmp	r4, #1
 8003954:	d008      	beq.n	8003968 <HAL_LPTIM_RegisterCallback+0x24>
  else if (hlptim->State == HAL_LPTIM_STATE_RESET)
 8003956:	5d5c      	ldrb	r4, [r3, r5]
    return HAL_ERROR;
 8003958:	2001      	movs	r0, #1
  else if (hlptim->State == HAL_LPTIM_STATE_RESET)
 800395a:	2c00      	cmp	r4, #0
 800395c:	d103      	bne.n	8003966 <HAL_LPTIM_RegisterCallback+0x22>
    switch (CallbackID)
 800395e:	2900      	cmp	r1, #0
 8003960:	d00b      	beq.n	800397a <HAL_LPTIM_RegisterCallback+0x36>
 8003962:	2901      	cmp	r1, #1
 8003964:	d006      	beq.n	8003974 <HAL_LPTIM_RegisterCallback+0x30>
}
 8003966:	bd30      	pop	{r4, r5, pc}
    switch (CallbackID)
 8003968:	2908      	cmp	r1, #8
 800396a:	d8fc      	bhi.n	8003966 <HAL_LPTIM_RegisterCallback+0x22>
 800396c:	4810      	ldr	r0, [pc, #64]	@ (80039b0 <HAL_LPTIM_RegisterCallback+0x6c>)
 800396e:	0089      	lsls	r1, r1, #2
 8003970:	5841      	ldr	r1, [r0, r1]
 8003972:	468f      	mov	pc, r1
  HAL_StatusTypeDef status = HAL_OK;
 8003974:	2000      	movs	r0, #0
        hlptim->MspDeInitCallback = pCallback;
 8003976:	63da      	str	r2, [r3, #60]	@ 0x3c
        break;
 8003978:	e7f5      	b.n	8003966 <HAL_LPTIM_RegisterCallback+0x22>
  HAL_StatusTypeDef status = HAL_OK;
 800397a:	2000      	movs	r0, #0
        hlptim->MspInitCallback = pCallback;
 800397c:	639a      	str	r2, [r3, #56]	@ 0x38
        break;
 800397e:	e7f2      	b.n	8003966 <HAL_LPTIM_RegisterCallback+0x22>
    return HAL_ERROR;
 8003980:	2001      	movs	r0, #1
 8003982:	e7f0      	b.n	8003966 <HAL_LPTIM_RegisterCallback+0x22>
  HAL_StatusTypeDef status = HAL_OK;
 8003984:	2000      	movs	r0, #0
        hlptim->DirectionDownCallback = pCallback;
 8003986:	659a      	str	r2, [r3, #88]	@ 0x58
        break;
 8003988:	e7ed      	b.n	8003966 <HAL_LPTIM_RegisterCallback+0x22>
  HAL_StatusTypeDef status = HAL_OK;
 800398a:	2000      	movs	r0, #0
        hlptim->CompareMatchCallback = pCallback;
 800398c:	641a      	str	r2, [r3, #64]	@ 0x40
        break;
 800398e:	e7ea      	b.n	8003966 <HAL_LPTIM_RegisterCallback+0x22>
  HAL_StatusTypeDef status = HAL_OK;
 8003990:	2000      	movs	r0, #0
        hlptim->AutoReloadMatchCallback = pCallback;
 8003992:	645a      	str	r2, [r3, #68]	@ 0x44
        break;
 8003994:	e7e7      	b.n	8003966 <HAL_LPTIM_RegisterCallback+0x22>
  HAL_StatusTypeDef status = HAL_OK;
 8003996:	2000      	movs	r0, #0
        hlptim->TriggerCallback = pCallback;
 8003998:	649a      	str	r2, [r3, #72]	@ 0x48
        break;
 800399a:	e7e4      	b.n	8003966 <HAL_LPTIM_RegisterCallback+0x22>
  HAL_StatusTypeDef status = HAL_OK;
 800399c:	2000      	movs	r0, #0
        hlptim->CompareWriteCallback = pCallback;
 800399e:	64da      	str	r2, [r3, #76]	@ 0x4c
        break;
 80039a0:	e7e1      	b.n	8003966 <HAL_LPTIM_RegisterCallback+0x22>
  HAL_StatusTypeDef status = HAL_OK;
 80039a2:	2000      	movs	r0, #0
        hlptim->AutoReloadWriteCallback = pCallback;
 80039a4:	651a      	str	r2, [r3, #80]	@ 0x50
        break;
 80039a6:	e7de      	b.n	8003966 <HAL_LPTIM_RegisterCallback+0x22>
  HAL_StatusTypeDef status = HAL_OK;
 80039a8:	2000      	movs	r0, #0
        hlptim->DirectionUpCallback = pCallback;
 80039aa:	655a      	str	r2, [r3, #84]	@ 0x54
        break;
 80039ac:	e7db      	b.n	8003966 <HAL_LPTIM_RegisterCallback+0x22>
 80039ae:	46c0      	nop			@ (mov r8, r8)
 80039b0:	080075b4 	.word	0x080075b4

080039b4 <LPTIM_Disable>:
  *         Please check Errata Sheet ES0335 for more details under "MCU may remain
  *         stuck in LPTIM interrupt when entering Stop mode" section.
  * @retval None
  */
void LPTIM_Disable(LPTIM_HandleTypeDef *hlptim)
{
 80039b4:	b5f8      	push	{r3, r4, r5, r6, r7, lr}
 80039b6:	4645      	mov	r5, r8
 80039b8:	46de      	mov	lr, fp
 80039ba:	4657      	mov	r7, sl
 80039bc:	464e      	mov	r6, r9
 80039be:	b5e0      	push	{r5, r6, r7, lr}
 80039c0:	0005      	movs	r5, r0
  __ASM volatile ("MRS %0, primask" : "=r" (result) :: "memory");
 80039c2:	f3ef 8710 	mrs	r7, PRIMASK
  __ASM volatile ("MSR primask, %0" : : "r" (priMask) : "memory");
 80039c6:	2301      	movs	r3, #1
 80039c8:	f383 8810 	msr	PRIMASK, r3
  primask_bit = __get_PRIMASK();
  __set_PRIMASK(1) ;

  /*********** Save LPTIM Config ***********/
  /* Save LPTIM source clock */
  switch ((uint32_t)hlptim->Instance)
 80039cc:	4b63      	ldr	r3, [pc, #396]	@ (8003b5c <LPTIM_Disable+0x1a8>)
 80039ce:	6804      	ldr	r4, [r0, #0]
 80039d0:	429c      	cmp	r4, r3
 80039d2:	d067      	beq.n	8003aa4 <LPTIM_Disable+0xf0>
 80039d4:	4b62      	ldr	r3, [pc, #392]	@ (8003b60 <LPTIM_Disable+0x1ac>)
 80039d6:	429c      	cmp	r4, r3
 80039d8:	d100      	bne.n	80039dc <LPTIM_Disable+0x28>
 80039da:	e08e      	b.n	8003afa <LPTIM_Disable+0x146>
    default:
      break;
  }

  /* Save LPTIM configuration registers */
  tmpIER = hlptim->Instance->IER;
 80039dc:	68a3      	ldr	r3, [r4, #8]
 80039de:	469a      	mov	sl, r3
  tmpCFGR = hlptim->Instance->CFGR;
 80039e0:	68e3      	ldr	r3, [r4, #12]
  tmpCMP = hlptim->Instance->CMP;
 80039e2:	6966      	ldr	r6, [r4, #20]
  tmpCFGR = hlptim->Instance->CFGR;
 80039e4:	4699      	mov	r9, r3
  tmpARR = hlptim->Instance->ARR;
 80039e6:	69a3      	ldr	r3, [r4, #24]
 80039e8:	469b      	mov	fp, r3
  tmpCFGR2 = hlptim->Instance->CFGR2;
 80039ea:	6a63      	ldr	r3, [r4, #36]	@ 0x24
 80039ec:	4698      	mov	r8, r3
    default:
      break;
  }

  /*********** Restore LPTIM Config ***********/
  if ((tmpCMP != 0UL) || (tmpARR != 0UL))
 80039ee:	465b      	mov	r3, fp
 80039f0:	4333      	orrs	r3, r6
 80039f2:	d045      	beq.n	8003a80 <LPTIM_Disable+0xcc>
#endif /* LPTIM2 */
      default:
        break;
    }

    if (tmpCMP != 0UL)
 80039f4:	2e00      	cmp	r6, #0
 80039f6:	d01a      	beq.n	8003a2e <LPTIM_Disable+0x7a>
  tmpCMP = hlptim->Instance->CMP;
 80039f8:	0032      	movs	r2, r6
  uint32_t tmpclksource = 0;
 80039fa:	2600      	movs	r6, #0
    {
      /* Restore CMP register (LPTIM should be enabled first) */
      hlptim->Instance->CR |= LPTIM_CR_ENABLE;
 80039fc:	2101      	movs	r1, #1
 80039fe:	6923      	ldr	r3, [r4, #16]
 8003a00:	430b      	orrs	r3, r1
 8003a02:	6123      	str	r3, [r4, #16]
  uint32_t count = TIMEOUT * (SystemCoreClock / 20UL / 1000UL);
 8003a04:	4b57      	ldr	r3, [pc, #348]	@ (8003b64 <LPTIM_Disable+0x1b0>)
 8003a06:	4958      	ldr	r1, [pc, #352]	@ (8003b68 <LPTIM_Disable+0x1b4>)
 8003a08:	6818      	ldr	r0, [r3, #0]
      hlptim->Instance->CMP = tmpCMP;
 8003a0a:	6162      	str	r2, [r4, #20]
  uint32_t count = TIMEOUT * (SystemCoreClock / 20UL / 1000UL);
 8003a0c:	f7fc fb7a 	bl	8000104 <__udivsi3>
  } while ((!(__HAL_LPTIM_GET_FLAG((hlptim), (flag)))) && (count != 0UL));
 8003a10:	2108      	movs	r1, #8
  uint32_t count = TIMEOUT * (SystemCoreClock / 20UL / 1000UL);
 8003a12:	0143      	lsls	r3, r0, #5
 8003a14:	1a1b      	subs	r3, r3, r0
 8003a16:	009b      	lsls	r3, r3, #2
 8003a18:	181b      	adds	r3, r3, r0
 8003a1a:	00db      	lsls	r3, r3, #3
    count--;
 8003a1c:	3b01      	subs	r3, #1
    if (count == 0UL)
 8003a1e:	2b00      	cmp	r3, #0
 8003a20:	d100      	bne.n	8003a24 <LPTIM_Disable+0x70>
 8003a22:	e095      	b.n	8003b50 <LPTIM_Disable+0x19c>
  } while ((!(__HAL_LPTIM_GET_FLAG((hlptim), (flag)))) && (count != 0UL));
 8003a24:	6822      	ldr	r2, [r4, #0]
 8003a26:	4211      	tst	r1, r2
 8003a28:	d0f8      	beq.n	8003a1c <LPTIM_Disable+0x68>
      /* Wait for the completion of the write operation to the LPTIM_CMP register */
      if (LPTIM_WaitForFlag(hlptim, LPTIM_FLAG_CMPOK) == HAL_TIMEOUT)
      {
        hlptim->State = HAL_LPTIM_STATE_TIMEOUT;
      }
      __HAL_LPTIM_CLEAR_FLAG(hlptim, LPTIM_FLAG_CMPOK);
 8003a2a:	2308      	movs	r3, #8
 8003a2c:	6063      	str	r3, [r4, #4]
    }

    if (tmpARR != 0UL)
 8003a2e:	465b      	mov	r3, fp
 8003a30:	2b00      	cmp	r3, #0
 8003a32:	d019      	beq.n	8003a68 <LPTIM_Disable+0xb4>
    {
      /* Restore ARR register (LPTIM should be enabled first) */
      hlptim->Instance->CR |= LPTIM_CR_ENABLE;
 8003a34:	2201      	movs	r2, #1
 8003a36:	6923      	ldr	r3, [r4, #16]
  uint32_t count = TIMEOUT * (SystemCoreClock / 20UL / 1000UL);
 8003a38:	494b      	ldr	r1, [pc, #300]	@ (8003b68 <LPTIM_Disable+0x1b4>)
      hlptim->Instance->CR |= LPTIM_CR_ENABLE;
 8003a3a:	4313      	orrs	r3, r2
 8003a3c:	6123      	str	r3, [r4, #16]
      hlptim->Instance->ARR = tmpARR;
 8003a3e:	465b      	mov	r3, fp
 8003a40:	61a3      	str	r3, [r4, #24]
  uint32_t count = TIMEOUT * (SystemCoreClock / 20UL / 1000UL);
 8003a42:	4b48      	ldr	r3, [pc, #288]	@ (8003b64 <LPTIM_Disable+0x1b0>)
 8003a44:	6818      	ldr	r0, [r3, #0]
 8003a46:	f7fc fb5d 	bl	8000104 <__udivsi3>
  } while ((!(__HAL_LPTIM_GET_FLAG((hlptim), (flag)))) && (count != 0UL));
 8003a4a:	2110      	movs	r1, #16
  uint32_t count = TIMEOUT * (SystemCoreClock / 20UL / 1000UL);
 8003a4c:	0143      	lsls	r3, r0, #5
 8003a4e:	1a1b      	subs	r3, r3, r0
 8003a50:	009b      	lsls	r3, r3, #2
 8003a52:	181b      	adds	r3, r3, r0
 8003a54:	00db      	lsls	r3, r3, #3
    count--;
 8003a56:	3b01      	subs	r3, #1
    if (count == 0UL)
 8003a58:	2b00      	cmp	r3, #0
 8003a5a:	d100      	bne.n	8003a5e <LPTIM_Disable+0xaa>
 8003a5c:	e073      	b.n	8003b46 <LPTIM_Disable+0x192>
  } while ((!(__HAL_LPTIM_GET_FLAG((hlptim), (flag)))) && (count != 0UL));
 8003a5e:	6822      	ldr	r2, [r4, #0]
 8003a60:	4211      	tst	r1, r2
 8003a62:	d0f8      	beq.n	8003a56 <LPTIM_Disable+0xa2>
      if (LPTIM_WaitForFlag(hlptim, LPTIM_FLAG_ARROK) == HAL_TIMEOUT)
      {
        hlptim->State = HAL_LPTIM_STATE_TIMEOUT;
      }

      __HAL_LPTIM_CLEAR_FLAG(hlptim, LPTIM_FLAG_ARROK);
 8003a64:	2310      	movs	r3, #16
 8003a66:	6063      	str	r3, [r4, #4]
    }

    /* Restore LPTIM source kernel clock */
    switch ((uint32_t)hlptim->Instance)
 8003a68:	4b3c      	ldr	r3, [pc, #240]	@ (8003b5c <LPTIM_Disable+0x1a8>)
 8003a6a:	429c      	cmp	r4, r3
 8003a6c:	d03e      	beq.n	8003aec <LPTIM_Disable+0x138>
 8003a6e:	4b3c      	ldr	r3, [pc, #240]	@ (8003b60 <LPTIM_Disable+0x1ac>)
 8003a70:	429c      	cmp	r4, r3
 8003a72:	d105      	bne.n	8003a80 <LPTIM_Disable+0xcc>
      case LPTIM1_BASE:
        __HAL_RCC_LPTIM1_CONFIG(tmpclksource);
        break;
#if defined(LPTIM2)
      case LPTIM2_BASE:
        __HAL_RCC_LPTIM2_CONFIG(tmpclksource);
 8003a74:	4a3d      	ldr	r2, [pc, #244]	@ (8003b6c <LPTIM_Disable+0x1b8>)
 8003a76:	493e      	ldr	r1, [pc, #248]	@ (8003b70 <LPTIM_Disable+0x1bc>)
 8003a78:	6d53      	ldr	r3, [r2, #84]	@ 0x54
 8003a7a:	400b      	ands	r3, r1
 8003a7c:	4333      	orrs	r3, r6
 8003a7e:	6553      	str	r3, [r2, #84]	@ 0x54
        break;
    }
  }

  /* Restore configuration registers (LPTIM should be disabled first) */
  hlptim->Instance->CR &= ~(LPTIM_CR_ENABLE);
 8003a80:	2201      	movs	r2, #1
 8003a82:	6923      	ldr	r3, [r4, #16]
 8003a84:	4393      	bics	r3, r2
 8003a86:	6123      	str	r3, [r4, #16]
  hlptim->Instance->IER = tmpIER;
 8003a88:	4653      	mov	r3, sl
 8003a8a:	60a3      	str	r3, [r4, #8]
  hlptim->Instance->CFGR = tmpCFGR;
 8003a8c:	464b      	mov	r3, r9
 8003a8e:	60e3      	str	r3, [r4, #12]
  hlptim->Instance->CFGR2 = tmpCFGR2;
 8003a90:	4643      	mov	r3, r8
 8003a92:	6263      	str	r3, [r4, #36]	@ 0x24
 8003a94:	f387 8810 	msr	PRIMASK, r7

  /* Exit critical section: restore previous priority mask */
  __set_PRIMASK(primask_bit);
}
 8003a98:	bcf0      	pop	{r4, r5, r6, r7}
 8003a9a:	46bb      	mov	fp, r7
 8003a9c:	46b2      	mov	sl, r6
 8003a9e:	46a9      	mov	r9, r5
 8003aa0:	46a0      	mov	r8, r4
 8003aa2:	bdf8      	pop	{r3, r4, r5, r6, r7, pc}
      tmpclksource = __HAL_RCC_GET_LPTIM1_SOURCE();
 8003aa4:	4b31      	ldr	r3, [pc, #196]	@ (8003b6c <LPTIM_Disable+0x1b8>)
 8003aa6:	6d5e      	ldr	r6, [r3, #84]	@ 0x54
  tmpIER = hlptim->Instance->IER;
 8003aa8:	68a2      	ldr	r2, [r4, #8]
 8003aaa:	4692      	mov	sl, r2
  tmpCFGR = hlptim->Instance->CFGR;
 8003aac:	68e2      	ldr	r2, [r4, #12]
 8003aae:	4691      	mov	r9, r2
  tmpCMP = hlptim->Instance->CMP;
 8003ab0:	6962      	ldr	r2, [r4, #20]
  tmpARR = hlptim->Instance->ARR;
 8003ab2:	69a1      	ldr	r1, [r4, #24]
 8003ab4:	468b      	mov	fp, r1
  tmpCFGR2 = hlptim->Instance->CFGR2;
 8003ab6:	6a61      	ldr	r1, [r4, #36]	@ 0x24
      __HAL_RCC_LPTIM1_FORCE_RESET();
 8003ab8:	6ad8      	ldr	r0, [r3, #44]	@ 0x2c
  tmpCFGR2 = hlptim->Instance->CFGR2;
 8003aba:	4688      	mov	r8, r1
      __HAL_RCC_LPTIM1_FORCE_RESET();
 8003abc:	2180      	movs	r1, #128	@ 0x80
 8003abe:	0609      	lsls	r1, r1, #24
 8003ac0:	4301      	orrs	r1, r0
 8003ac2:	62d9      	str	r1, [r3, #44]	@ 0x2c
      __HAL_RCC_LPTIM1_RELEASE_RESET();
 8003ac4:	6ad9      	ldr	r1, [r3, #44]	@ 0x2c
 8003ac6:	0049      	lsls	r1, r1, #1
 8003ac8:	0849      	lsrs	r1, r1, #1
 8003aca:	62d9      	str	r1, [r3, #44]	@ 0x2c
  if ((tmpCMP != 0UL) || (tmpARR != 0UL))
 8003acc:	4659      	mov	r1, fp
 8003ace:	4311      	orrs	r1, r2
 8003ad0:	d0d6      	beq.n	8003a80 <LPTIM_Disable+0xcc>
      tmpclksource = __HAL_RCC_GET_LPTIM1_SOURCE();
 8003ad2:	21c0      	movs	r1, #192	@ 0xc0
 8003ad4:	0309      	lsls	r1, r1, #12
        __HAL_RCC_LPTIM1_CONFIG(RCC_LPTIM1CLKSOURCE_PCLK1);
 8003ad6:	4827      	ldr	r0, [pc, #156]	@ (8003b74 <LPTIM_Disable+0x1c0>)
      tmpclksource = __HAL_RCC_GET_LPTIM1_SOURCE();
 8003ad8:	400e      	ands	r6, r1
        __HAL_RCC_LPTIM1_CONFIG(RCC_LPTIM1CLKSOURCE_PCLK1);
 8003ada:	6d59      	ldr	r1, [r3, #84]	@ 0x54
 8003adc:	4001      	ands	r1, r0
 8003ade:	6559      	str	r1, [r3, #84]	@ 0x54
    if (tmpCMP != 0UL)
 8003ae0:	2a00      	cmp	r2, #0
 8003ae2:	d000      	beq.n	8003ae6 <LPTIM_Disable+0x132>
 8003ae4:	e78a      	b.n	80039fc <LPTIM_Disable+0x48>
    if (tmpARR != 0UL)
 8003ae6:	465b      	mov	r3, fp
 8003ae8:	2b00      	cmp	r3, #0
 8003aea:	d1a3      	bne.n	8003a34 <LPTIM_Disable+0x80>
        __HAL_RCC_LPTIM1_CONFIG(tmpclksource);
 8003aec:	4a1f      	ldr	r2, [pc, #124]	@ (8003b6c <LPTIM_Disable+0x1b8>)
 8003aee:	4921      	ldr	r1, [pc, #132]	@ (8003b74 <LPTIM_Disable+0x1c0>)
 8003af0:	6d53      	ldr	r3, [r2, #84]	@ 0x54
 8003af2:	400b      	ands	r3, r1
 8003af4:	4333      	orrs	r3, r6
 8003af6:	6553      	str	r3, [r2, #84]	@ 0x54
        break;
 8003af8:	e7c2      	b.n	8003a80 <LPTIM_Disable+0xcc>
      tmpclksource = __HAL_RCC_GET_LPTIM2_SOURCE();
 8003afa:	4b1c      	ldr	r3, [pc, #112]	@ (8003b6c <LPTIM_Disable+0x1b8>)
 8003afc:	6d5e      	ldr	r6, [r3, #84]	@ 0x54
  tmpIER = hlptim->Instance->IER;
 8003afe:	68a2      	ldr	r2, [r4, #8]
 8003b00:	4692      	mov	sl, r2
  tmpCFGR = hlptim->Instance->CFGR;
 8003b02:	68e2      	ldr	r2, [r4, #12]
 8003b04:	4691      	mov	r9, r2
  tmpCMP = hlptim->Instance->CMP;
 8003b06:	6962      	ldr	r2, [r4, #20]
  tmpARR = hlptim->Instance->ARR;
 8003b08:	69a1      	ldr	r1, [r4, #24]
 8003b0a:	468b      	mov	fp, r1
  tmpCFGR2 = hlptim->Instance->CFGR2;
 8003b0c:	6a61      	ldr	r1, [r4, #36]	@ 0x24
      __HAL_RCC_LPTIM2_FORCE_RESET();
 8003b0e:	6ad8      	ldr	r0, [r3, #44]	@ 0x2c
  tmpCFGR2 = hlptim->Instance->CFGR2;
 8003b10:	4688      	mov	r8, r1
      __HAL_RCC_LPTIM2_FORCE_RESET();
 8003b12:	2180      	movs	r1, #128	@ 0x80
 8003b14:	05c9      	lsls	r1, r1, #23
 8003b16:	4301      	orrs	r1, r0
 8003b18:	62d9      	str	r1, [r3, #44]	@ 0x2c
      __HAL_RCC_LPTIM2_RELEASE_RESET();
 8003b1a:	6ad9      	ldr	r1, [r3, #44]	@ 0x2c
 8003b1c:	4816      	ldr	r0, [pc, #88]	@ (8003b78 <LPTIM_Disable+0x1c4>)
 8003b1e:	4001      	ands	r1, r0
 8003b20:	62d9      	str	r1, [r3, #44]	@ 0x2c
  if ((tmpCMP != 0UL) || (tmpARR != 0UL))
 8003b22:	4659      	mov	r1, fp
 8003b24:	4311      	orrs	r1, r2
 8003b26:	d0ab      	beq.n	8003a80 <LPTIM_Disable+0xcc>
      tmpclksource = __HAL_RCC_GET_LPTIM2_SOURCE();
 8003b28:	21c0      	movs	r1, #192	@ 0xc0
 8003b2a:	0389      	lsls	r1, r1, #14
        __HAL_RCC_LPTIM2_CONFIG(RCC_LPTIM2CLKSOURCE_PCLK1);
 8003b2c:	4810      	ldr	r0, [pc, #64]	@ (8003b70 <LPTIM_Disable+0x1bc>)
      tmpclksource = __HAL_RCC_GET_LPTIM2_SOURCE();
 8003b2e:	400e      	ands	r6, r1
        __HAL_RCC_LPTIM2_CONFIG(RCC_LPTIM2CLKSOURCE_PCLK1);
 8003b30:	6d59      	ldr	r1, [r3, #84]	@ 0x54
 8003b32:	4001      	ands	r1, r0
 8003b34:	6559      	str	r1, [r3, #84]	@ 0x54
    if (tmpCMP != 0UL)
 8003b36:	2a00      	cmp	r2, #0
 8003b38:	d000      	beq.n	8003b3c <LPTIM_Disable+0x188>
 8003b3a:	e75f      	b.n	80039fc <LPTIM_Disable+0x48>
    if (tmpARR != 0UL)
 8003b3c:	465b      	mov	r3, fp
 8003b3e:	2b00      	cmp	r3, #0
 8003b40:	d000      	beq.n	8003b44 <LPTIM_Disable+0x190>
 8003b42:	e777      	b.n	8003a34 <LPTIM_Disable+0x80>
 8003b44:	e796      	b.n	8003a74 <LPTIM_Disable+0xc0>
  } while ((!(__HAL_LPTIM_GET_FLAG((hlptim), (flag)))) && (count != 0UL));
 8003b46:	6823      	ldr	r3, [r4, #0]
        hlptim->State = HAL_LPTIM_STATE_TIMEOUT;
 8003b48:	2203      	movs	r2, #3
 8003b4a:	2336      	movs	r3, #54	@ 0x36
 8003b4c:	54ea      	strb	r2, [r5, r3]
 8003b4e:	e789      	b.n	8003a64 <LPTIM_Disable+0xb0>
  } while ((!(__HAL_LPTIM_GET_FLAG((hlptim), (flag)))) && (count != 0UL));
 8003b50:	6823      	ldr	r3, [r4, #0]
        hlptim->State = HAL_LPTIM_STATE_TIMEOUT;
 8003b52:	2203      	movs	r2, #3
 8003b54:	2336      	movs	r3, #54	@ 0x36
 8003b56:	54ea      	strb	r2, [r5, r3]
 8003b58:	e767      	b.n	8003a2a <LPTIM_Disable+0x76>
 8003b5a:	46c0      	nop			@ (mov r8, r8)
 8003b5c:	40007c00 	.word	0x40007c00
 8003b60:	40009400 	.word	0x40009400
 8003b64:	20000008 	.word	0x20000008
 8003b68:	00004e20 	.word	0x00004e20
 8003b6c:	40021000 	.word	0x40021000
 8003b70:	ffcfffff 	.word	0xffcfffff
 8003b74:	fff3ffff 	.word	0xfff3ffff
 8003b78:	bfffffff 	.word	0xbfffffff

08003b7c <HAL_LPTIM_SetOnce_Start_IT>:
{
 8003b7c:	b570      	push	{r4, r5, r6, lr}
  hlptim->State = HAL_LPTIM_STATE_BUSY;
 8003b7e:	2336      	movs	r3, #54	@ 0x36
{
 8003b80:	0016      	movs	r6, r2
  hlptim->State = HAL_LPTIM_STATE_BUSY;
 8003b82:	2202      	movs	r2, #2
 8003b84:	54c2      	strb	r2, [r0, r3]
  hlptim->Instance->CFGR |= LPTIM_CFGR_WAVE;
 8003b86:	2380      	movs	r3, #128	@ 0x80
 8003b88:	6804      	ldr	r4, [r0, #0]
 8003b8a:	035b      	lsls	r3, r3, #13
 8003b8c:	68e2      	ldr	r2, [r4, #12]
{
 8003b8e:	0005      	movs	r5, r0
  hlptim->Instance->CFGR |= LPTIM_CFGR_WAVE;
 8003b90:	4313      	orrs	r3, r2
  __HAL_LPTIM_ENABLE(hlptim);
 8003b92:	2201      	movs	r2, #1
  hlptim->Instance->CFGR |= LPTIM_CFGR_WAVE;
 8003b94:	60e3      	str	r3, [r4, #12]
  __HAL_LPTIM_ENABLE(hlptim);
 8003b96:	6923      	ldr	r3, [r4, #16]
 8003b98:	4313      	orrs	r3, r2
 8003b9a:	6123      	str	r3, [r4, #16]
  __HAL_LPTIM_CLEAR_FLAG(hlptim, LPTIM_FLAG_ARROK);
 8003b9c:	2310      	movs	r3, #16
 8003b9e:	6063      	str	r3, [r4, #4]
  uint32_t count = TIMEOUT * (SystemCoreClock / 20UL / 1000UL);
 8003ba0:	4b25      	ldr	r3, [pc, #148]	@ (8003c38 <HAL_LPTIM_SetOnce_Start_IT+0xbc>)
  __HAL_LPTIM_AUTORELOAD_SET(hlptim, Period);
 8003ba2:	61a1      	str	r1, [r4, #24]
  uint32_t count = TIMEOUT * (SystemCoreClock / 20UL / 1000UL);
 8003ba4:	6818      	ldr	r0, [r3, #0]
 8003ba6:	4925      	ldr	r1, [pc, #148]	@ (8003c3c <HAL_LPTIM_SetOnce_Start_IT+0xc0>)
 8003ba8:	f7fc faac 	bl	8000104 <__udivsi3>
 8003bac:	0143      	lsls	r3, r0, #5
 8003bae:	1a1b      	subs	r3, r3, r0
 8003bb0:	009b      	lsls	r3, r3, #2
 8003bb2:	181b      	adds	r3, r3, r0
 8003bb4:	00db      	lsls	r3, r3, #3
 8003bb6:	001a      	movs	r2, r3
  } while ((!(__HAL_LPTIM_GET_FLAG((hlptim), (flag)))) && (count != 0UL));
 8003bb8:	2010      	movs	r0, #16
    count--;
 8003bba:	3a01      	subs	r2, #1
    if (count == 0UL)
 8003bbc:	2a00      	cmp	r2, #0
 8003bbe:	d037      	beq.n	8003c30 <HAL_LPTIM_SetOnce_Start_IT+0xb4>
  } while ((!(__HAL_LPTIM_GET_FLAG((hlptim), (flag)))) && (count != 0UL));
 8003bc0:	6821      	ldr	r1, [r4, #0]
 8003bc2:	4208      	tst	r0, r1
 8003bc4:	d0f9      	beq.n	8003bba <HAL_LPTIM_SetOnce_Start_IT+0x3e>
  __HAL_LPTIM_CLEAR_FLAG(hlptim, LPTIM_FLAG_CMPOK);
 8003bc6:	2208      	movs	r2, #8
 8003bc8:	6062      	str	r2, [r4, #4]
  __HAL_LPTIM_COMPARE_SET(hlptim, Pulse);
 8003bca:	6166      	str	r6, [r4, #20]
  } while ((!(__HAL_LPTIM_GET_FLAG((hlptim), (flag)))) && (count != 0UL));
 8003bcc:	2608      	movs	r6, #8
    count--;
 8003bce:	3b01      	subs	r3, #1
    if (count == 0UL)
 8003bd0:	2b00      	cmp	r3, #0
 8003bd2:	d02d      	beq.n	8003c30 <HAL_LPTIM_SetOnce_Start_IT+0xb4>
  } while ((!(__HAL_LPTIM_GET_FLAG((hlptim), (flag)))) && (count != 0UL));
 8003bd4:	6822      	ldr	r2, [r4, #0]
 8003bd6:	4216      	tst	r6, r2
 8003bd8:	d0f9      	beq.n	8003bce <HAL_LPTIM_SetOnce_Start_IT+0x52>
  __HAL_LPTIM_DISABLE(hlptim);
 8003bda:	0028      	movs	r0, r5
 8003bdc:	f7ff feea 	bl	80039b4 <LPTIM_Disable>
  return hlptim->State;
 8003be0:	2336      	movs	r3, #54	@ 0x36
 8003be2:	5ceb      	ldrb	r3, [r5, r3]
  if (HAL_LPTIM_GetState(hlptim) == HAL_LPTIM_STATE_TIMEOUT)
 8003be4:	2b03      	cmp	r3, #3
 8003be6:	d024      	beq.n	8003c32 <HAL_LPTIM_SetOnce_Start_IT+0xb6>
  __HAL_LPTIM_ENABLE_IT(hlptim, LPTIM_IT_ARROK);
 8003be8:	2110      	movs	r1, #16
 8003bea:	682b      	ldr	r3, [r5, #0]
 8003bec:	689a      	ldr	r2, [r3, #8]
 8003bee:	430a      	orrs	r2, r1
 8003bf0:	609a      	str	r2, [r3, #8]
  __HAL_LPTIM_ENABLE_IT(hlptim, LPTIM_IT_CMPOK);
 8003bf2:	689a      	ldr	r2, [r3, #8]
  __HAL_LPTIM_ENABLE_IT(hlptim, LPTIM_IT_ARRM);
 8003bf4:	390e      	subs	r1, #14
  __HAL_LPTIM_ENABLE_IT(hlptim, LPTIM_IT_CMPOK);
 8003bf6:	4332      	orrs	r2, r6
 8003bf8:	609a      	str	r2, [r3, #8]
  __HAL_LPTIM_ENABLE_IT(hlptim, LPTIM_IT_ARRM);
 8003bfa:	689a      	ldr	r2, [r3, #8]
 8003bfc:	430a      	orrs	r2, r1
 8003bfe:	609a      	str	r2, [r3, #8]
  __HAL_LPTIM_ENABLE_IT(hlptim, LPTIM_IT_CMPM);
 8003c00:	689a      	ldr	r2, [r3, #8]
 8003c02:	3901      	subs	r1, #1
 8003c04:	430a      	orrs	r2, r1
 8003c06:	609a      	str	r2, [r3, #8]
  if ((hlptim->Init.Trigger.Source) != LPTIM_TRIGSOURCE_SOFTWARE)
 8003c08:	6969      	ldr	r1, [r5, #20]
 8003c0a:	4a0d      	ldr	r2, [pc, #52]	@ (8003c40 <HAL_LPTIM_SetOnce_Start_IT+0xc4>)
 8003c0c:	4291      	cmp	r1, r2
 8003c0e:	d003      	beq.n	8003c18 <HAL_LPTIM_SetOnce_Start_IT+0x9c>
    __HAL_LPTIM_ENABLE_IT(hlptim, LPTIM_IT_EXTTRIG);
 8003c10:	2104      	movs	r1, #4
 8003c12:	689a      	ldr	r2, [r3, #8]
 8003c14:	430a      	orrs	r2, r1
 8003c16:	609a      	str	r2, [r3, #8]
  __HAL_LPTIM_ENABLE(hlptim);
 8003c18:	2101      	movs	r1, #1
  __HAL_LPTIM_START_SINGLE(hlptim);
 8003c1a:	2002      	movs	r0, #2
  __HAL_LPTIM_ENABLE(hlptim);
 8003c1c:	691a      	ldr	r2, [r3, #16]
 8003c1e:	430a      	orrs	r2, r1
 8003c20:	611a      	str	r2, [r3, #16]
  __HAL_LPTIM_START_SINGLE(hlptim);
 8003c22:	691a      	ldr	r2, [r3, #16]
 8003c24:	4302      	orrs	r2, r0
 8003c26:	611a      	str	r2, [r3, #16]
  hlptim->State = HAL_LPTIM_STATE_READY;
 8003c28:	2336      	movs	r3, #54	@ 0x36
  return HAL_OK;
 8003c2a:	2000      	movs	r0, #0
  hlptim->State = HAL_LPTIM_STATE_READY;
 8003c2c:	54e9      	strb	r1, [r5, r3]
}
 8003c2e:	bd70      	pop	{r4, r5, r6, pc}
  } while ((!(__HAL_LPTIM_GET_FLAG((hlptim), (flag)))) && (count != 0UL));
 8003c30:	6823      	ldr	r3, [r4, #0]
    return HAL_TIMEOUT;
 8003c32:	2003      	movs	r0, #3
 8003c34:	e7fb      	b.n	8003c2e <HAL_LPTIM_SetOnce_Start_IT+0xb2>
 8003c36:	46c0      	nop			@ (mov r8, r8)
 8003c38:	20000008 	.word	0x20000008
 8003c3c:	00004e20 	.word	0x00004e20
 8003c40:	0000ffff 	.word	0x0000ffff

08003c44 <HAL_LPTIM_SetOnce_Stop_IT>:
HAL_StatusTypeDef HAL_LPTIM_SetOnce_Stop_IT(LPTIM_HandleTypeDef *hlptim)
 8003c44:	b570      	push	{r4, r5, r6, lr}
 8003c46:	2636      	movs	r6, #54	@ 0x36
 8003c48:	2502      	movs	r5, #2
 8003c4a:	0004      	movs	r4, r0
 8003c4c:	5585      	strb	r5, [r0, r6]
 8003c4e:	f7ff feb1 	bl	80039b4 <LPTIM_Disable>
 8003c52:	5da3      	ldrb	r3, [r4, r6]
 8003c54:	b2d8      	uxtb	r0, r3
 8003c56:	2b03      	cmp	r3, #3
 8003c58:	d01b      	beq.n	8003c92 <HAL_LPTIM_SetOnce_Stop_IT+0x4e>
 8003c5a:	2110      	movs	r1, #16
 8003c5c:	6823      	ldr	r3, [r4, #0]
 8003c5e:	689a      	ldr	r2, [r3, #8]
 8003c60:	438a      	bics	r2, r1
 8003c62:	609a      	str	r2, [r3, #8]
 8003c64:	689a      	ldr	r2, [r3, #8]
 8003c66:	3908      	subs	r1, #8
 8003c68:	438a      	bics	r2, r1
 8003c6a:	609a      	str	r2, [r3, #8]
 8003c6c:	689a      	ldr	r2, [r3, #8]
 8003c6e:	3907      	subs	r1, #7
 8003c70:	43aa      	bics	r2, r5
 8003c72:	609a      	str	r2, [r3, #8]
 8003c74:	689a      	ldr	r2, [r3, #8]
 8003c76:	438a      	bics	r2, r1
 8003c78:	609a      	str	r2, [r3, #8]
 8003c7a:	6961      	ldr	r1, [r4, #20]
 8003c7c:	4a05      	ldr	r2, [pc, #20]	@ (8003c94 <HAL_LPTIM_SetOnce_Stop_IT+0x50>)
 8003c7e:	4291      	cmp	r1, r2
 8003c80:	d003      	beq.n	8003c8a <HAL_LPTIM_SetOnce_Stop_IT+0x46>
 8003c82:	2104      	movs	r1, #4
 8003c84:	689a      	ldr	r2, [r3, #8]
 8003c86:	438a      	bics	r2, r1
 8003c88:	609a      	str	r2, [r3, #8]
 8003c8a:	2336      	movs	r3, #54	@ 0x36
 8003c8c:	2201      	movs	r2, #1
 8003c8e:	2000      	movs	r0, #0
 8003c90:	54e2      	strb	r2, [r4, r3]
 8003c92:	bd70      	pop	{r4, r5, r6, pc}
 8003c94:	0000ffff 	.word	0x0000ffff

08003c98 <HAL_PWREx_ControlVoltageScaling>:
  *        cleared before returning the status. If the flag is not cleared within
  *        6 microseconds, HAL_TIMEOUT status is reported.
  * @retval HAL Status
  */
HAL_StatusTypeDef HAL_PWREx_ControlVoltageScaling(uint32_t VoltageScaling)
{
 8003c98:	b570      	push	{r4, r5, r6, lr}
  uint32_t wait_loop_index;

  assert_param(IS_PWR_VOLTAGE_SCALING_RANGE(VoltageScaling));

  /* Modify voltage scaling range */
  MODIFY_REG(PWR->CR1, PWR_CR1_VOS, VoltageScaling);
 8003c9a:	4c13      	ldr	r4, [pc, #76]	@ (8003ce8 <HAL_PWREx_ControlVoltageScaling+0x50>)
 8003c9c:	4a13      	ldr	r2, [pc, #76]	@ (8003cec <HAL_PWREx_ControlVoltageScaling+0x54>)
 8003c9e:	6823      	ldr	r3, [r4, #0]
        return HAL_TIMEOUT;
      }
    }
  }

  return HAL_OK;
 8003ca0:	2500      	movs	r5, #0
  MODIFY_REG(PWR->CR1, PWR_CR1_VOS, VoltageScaling);
 8003ca2:	4013      	ands	r3, r2
 8003ca4:	4303      	orrs	r3, r0
 8003ca6:	6023      	str	r3, [r4, #0]
  if (VoltageScaling == PWR_REGULATOR_VOLTAGE_SCALE1)
 8003ca8:	2380      	movs	r3, #128	@ 0x80
 8003caa:	009b      	lsls	r3, r3, #2
 8003cac:	4298      	cmp	r0, r3
 8003cae:	d001      	beq.n	8003cb4 <HAL_PWREx_ControlVoltageScaling+0x1c>
}
 8003cb0:	0028      	movs	r0, r5
 8003cb2:	bd70      	pop	{r4, r5, r6, pc}
    wait_loop_index = ((PWR_VOSF_SETTING_DELAY_6_US * SystemCoreClock) / 1000000U) + 1U;
 8003cb4:	4b0e      	ldr	r3, [pc, #56]	@ (8003cf0 <HAL_PWREx_ControlVoltageScaling+0x58>)
 8003cb6:	490f      	ldr	r1, [pc, #60]	@ (8003cf4 <HAL_PWREx_ControlVoltageScaling+0x5c>)
 8003cb8:	681b      	ldr	r3, [r3, #0]
 8003cba:	0058      	lsls	r0, r3, #1
 8003cbc:	18c0      	adds	r0, r0, r3
 8003cbe:	0040      	lsls	r0, r0, #1
 8003cc0:	f7fc fa20 	bl	8000104 <__udivsi3>
    while (HAL_IS_BIT_SET(PWR->SR2, PWR_SR2_VOSF))
 8003cc4:	2280      	movs	r2, #128	@ 0x80
 8003cc6:	6963      	ldr	r3, [r4, #20]
 8003cc8:	00d2      	lsls	r2, r2, #3
    wait_loop_index = ((PWR_VOSF_SETTING_DELAY_6_US * SystemCoreClock) / 1000000U) + 1U;
 8003cca:	3001      	adds	r0, #1
    while (HAL_IS_BIT_SET(PWR->SR2, PWR_SR2_VOSF))
 8003ccc:	4213      	tst	r3, r2
 8003cce:	d102      	bne.n	8003cd6 <HAL_PWREx_ControlVoltageScaling+0x3e>
 8003cd0:	e7ee      	b.n	8003cb0 <HAL_PWREx_ControlVoltageScaling+0x18>
      if (wait_loop_index != 0U)
 8003cd2:	2800      	cmp	r0, #0
 8003cd4:	d005      	beq.n	8003ce2 <HAL_PWREx_ControlVoltageScaling+0x4a>
    while (HAL_IS_BIT_SET(PWR->SR2, PWR_SR2_VOSF))
 8003cd6:	6963      	ldr	r3, [r4, #20]
        wait_loop_index--;
 8003cd8:	3801      	subs	r0, #1
    while (HAL_IS_BIT_SET(PWR->SR2, PWR_SR2_VOSF))
 8003cda:	4213      	tst	r3, r2
 8003cdc:	d1f9      	bne.n	8003cd2 <HAL_PWREx_ControlVoltageScaling+0x3a>
  return HAL_OK;
 8003cde:	2500      	movs	r5, #0
 8003ce0:	e7e6      	b.n	8003cb0 <HAL_PWREx_ControlVoltageScaling+0x18>
        return HAL_TIMEOUT;
 8003ce2:	2503      	movs	r5, #3
 8003ce4:	e7e4      	b.n	8003cb0 <HAL_PWREx_ControlVoltageScaling+0x18>
 8003ce6:	46c0      	nop			@ (mov r8, r8)
 8003ce8:	40007000 	.word	0x40007000
 8003cec:	fffff9ff 	.word	0xfffff9ff
 8003cf0:	20000008 	.word	0x20000008
 8003cf4:	000f4240 	.word	0x000f4240

08003cf8 <HAL_RCC_OscConfig>:
  *         supported by this function. User should request a transition to LSE Off
  *         first and then to LSE On or LSE Bypass.
  * @retval HAL status
  */
HAL_StatusTypeDef HAL_RCC_OscConfig(RCC_OscInitTypeDef  *RCC_OscInitStruct)
{
 8003cf8:	b5f0      	push	{r4, r5, r6, r7, lr}
 8003cfa:	46ce      	mov	lr, r9
 8003cfc:	4647      	mov	r7, r8
 8003cfe:	b580      	push	{r7, lr}
 8003d00:	0004      	movs	r4, r0
 8003d02:	b083      	sub	sp, #12
  uint32_t tickstart;
  uint32_t temp_sysclksrc;
  uint32_t temp_pllckcfg;

  /* Check Null pointer */
  if (RCC_OscInitStruct == NULL)
 8003d04:	2800      	cmp	r0, #0
 8003d06:	d027      	beq.n	8003d58 <HAL_RCC_OscConfig+0x60>

  /* Check the parameters */
  assert_param(IS_RCC_OSCILLATORTYPE(RCC_OscInitStruct->OscillatorType));

  /*------------------------------- HSE Configuration ------------------------*/
  if (((RCC_OscInitStruct->OscillatorType) & RCC_OSCILLATORTYPE_HSE) == RCC_OSCILLATORTYPE_HSE)
 8003d08:	6803      	ldr	r3, [r0, #0]
 8003d0a:	07da      	lsls	r2, r3, #31
 8003d0c:	d511      	bpl.n	8003d32 <HAL_RCC_OscConfig+0x3a>
  {
    /* Check the parameters */
    assert_param(IS_RCC_HSE(RCC_OscInitStruct->HSEState));

    temp_sysclksrc = __HAL_RCC_GET_SYSCLK_SOURCE();
 8003d0e:	2238      	movs	r2, #56	@ 0x38
 8003d10:	49c0      	ldr	r1, [pc, #768]	@ (8004014 <HAL_RCC_OscConfig+0x31c>)
 8003d12:	6888      	ldr	r0, [r1, #8]
    temp_pllckcfg = __HAL_RCC_GET_PLL_OSCSOURCE();
 8003d14:	68c9      	ldr	r1, [r1, #12]
    temp_sysclksrc = __HAL_RCC_GET_SYSCLK_SOURCE();
 8003d16:	4002      	ands	r2, r0

    /* When the HSE is used as system clock or clock source for PLL in these cases it is not allowed to be disabled */
    if (((temp_sysclksrc == RCC_SYSCLKSOURCE_STATUS_PLLCLK) && (temp_pllckcfg == RCC_PLLSOURCE_HSE))
 8003d18:	2a10      	cmp	r2, #16
 8003d1a:	d100      	bne.n	8003d1e <HAL_RCC_OscConfig+0x26>
 8003d1c:	e0cc      	b.n	8003eb8 <HAL_RCC_OscConfig+0x1c0>
        || (temp_sysclksrc == RCC_SYSCLKSOURCE_STATUS_HSE))
 8003d1e:	2a08      	cmp	r2, #8
 8003d20:	d000      	beq.n	8003d24 <HAL_RCC_OscConfig+0x2c>
 8003d22:	e0cd      	b.n	8003ec0 <HAL_RCC_OscConfig+0x1c8>
    {
      if ((READ_BIT(RCC->CR, RCC_CR_HSERDY) != 0U) && (RCC_OscInitStruct->HSEState == RCC_HSE_OFF))
 8003d24:	4abb      	ldr	r2, [pc, #748]	@ (8004014 <HAL_RCC_OscConfig+0x31c>)
 8003d26:	6812      	ldr	r2, [r2, #0]
 8003d28:	0392      	lsls	r2, r2, #14
 8003d2a:	d502      	bpl.n	8003d32 <HAL_RCC_OscConfig+0x3a>
 8003d2c:	6862      	ldr	r2, [r4, #4]
 8003d2e:	2a00      	cmp	r2, #0
 8003d30:	d012      	beq.n	8003d58 <HAL_RCC_OscConfig+0x60>
        }
      }
    }
  }
  /*----------------------------- HSI Configuration --------------------------*/
  if (((RCC_OscInitStruct->OscillatorType) & RCC_OSCILLATORTYPE_HSI) == RCC_OSCILLATORTYPE_HSI)
 8003d32:	079a      	lsls	r2, r3, #30
 8003d34:	d532      	bpl.n	8003d9c <HAL_RCC_OscConfig+0xa4>
    assert_param(IS_RCC_HSI(RCC_OscInitStruct->HSIState));
    assert_param(IS_RCC_HSI_CALIBRATION_VALUE(RCC_OscInitStruct->HSICalibrationValue));
    assert_param(IS_RCC_HSIDIV(RCC_OscInitStruct->HSIDiv));

    /* Check if HSI16 is used as system clock or as PLL source when PLL is selected as system clock */
    temp_sysclksrc = __HAL_RCC_GET_SYSCLK_SOURCE();
 8003d36:	2338      	movs	r3, #56	@ 0x38
 8003d38:	4ab6      	ldr	r2, [pc, #728]	@ (8004014 <HAL_RCC_OscConfig+0x31c>)
 8003d3a:	6891      	ldr	r1, [r2, #8]
 8003d3c:	400b      	ands	r3, r1
    temp_pllckcfg = __HAL_RCC_GET_PLL_OSCSOURCE();
 8003d3e:	68d1      	ldr	r1, [r2, #12]
    if (((temp_sysclksrc == RCC_SYSCLKSOURCE_STATUS_PLLCLK) && (temp_pllckcfg == RCC_PLLSOURCE_HSI))
 8003d40:	2b10      	cmp	r3, #16
 8003d42:	d100      	bne.n	8003d46 <HAL_RCC_OscConfig+0x4e>
 8003d44:	e10b      	b.n	8003f5e <HAL_RCC_OscConfig+0x266>
        || (temp_sysclksrc == RCC_SYSCLKSOURCE_STATUS_HSI))
 8003d46:	2b00      	cmp	r3, #0
 8003d48:	d000      	beq.n	8003d4c <HAL_RCC_OscConfig+0x54>
 8003d4a:	e10d      	b.n	8003f68 <HAL_RCC_OscConfig+0x270>
    {
      /* When HSI is used as system clock or as PLL input clock it can not be disabled */
      if ((READ_BIT(RCC->CR, RCC_CR_HSIRDY) != 0U) && (RCC_OscInitStruct->HSIState == RCC_HSI_OFF))
 8003d4c:	6813      	ldr	r3, [r2, #0]
 8003d4e:	055b      	lsls	r3, r3, #21
 8003d50:	d508      	bpl.n	8003d64 <HAL_RCC_OscConfig+0x6c>
 8003d52:	68e3      	ldr	r3, [r4, #12]
 8003d54:	2b00      	cmp	r3, #0
 8003d56:	d105      	bne.n	8003d64 <HAL_RCC_OscConfig+0x6c>
    return HAL_ERROR;
 8003d58:	2001      	movs	r0, #1
        }
      }
    }
  }
  return HAL_OK;
}
 8003d5a:	b003      	add	sp, #12
 8003d5c:	bcc0      	pop	{r6, r7}
 8003d5e:	46b9      	mov	r9, r7
 8003d60:	46b0      	mov	r8, r6
 8003d62:	bdf0      	pop	{r4, r5, r6, r7, pc}
        __HAL_RCC_HSI_CALIBRATIONVALUE_ADJUST(RCC_OscInitStruct->HSICalibrationValue);
 8003d64:	6851      	ldr	r1, [r2, #4]
 8003d66:	6963      	ldr	r3, [r4, #20]
 8003d68:	48ab      	ldr	r0, [pc, #684]	@ (8004018 <HAL_RCC_OscConfig+0x320>)
 8003d6a:	021b      	lsls	r3, r3, #8
 8003d6c:	4001      	ands	r1, r0
 8003d6e:	430b      	orrs	r3, r1
 8003d70:	6053      	str	r3, [r2, #4]
          __HAL_RCC_HSI_CONFIG(RCC_OscInitStruct->HSIDiv);
 8003d72:	4aa8      	ldr	r2, [pc, #672]	@ (8004014 <HAL_RCC_OscConfig+0x31c>)
 8003d74:	49a9      	ldr	r1, [pc, #676]	@ (800401c <HAL_RCC_OscConfig+0x324>)
 8003d76:	6813      	ldr	r3, [r2, #0]
 8003d78:	400b      	ands	r3, r1
 8003d7a:	6921      	ldr	r1, [r4, #16]
 8003d7c:	430b      	orrs	r3, r1
 8003d7e:	6013      	str	r3, [r2, #0]
          SystemCoreClock = (HSI_VALUE / (1UL << ((READ_BIT(RCC->CR, RCC_CR_HSIDIV)) >> RCC_CR_HSIDIV_Pos)));
 8003d80:	6813      	ldr	r3, [r2, #0]
 8003d82:	4aa7      	ldr	r2, [pc, #668]	@ (8004020 <HAL_RCC_OscConfig+0x328>)
 8003d84:	049b      	lsls	r3, r3, #18
 8003d86:	0f5b      	lsrs	r3, r3, #29
 8003d88:	40da      	lsrs	r2, r3
 8003d8a:	49a6      	ldr	r1, [pc, #664]	@ (8004024 <HAL_RCC_OscConfig+0x32c>)
 8003d8c:	600a      	str	r2, [r1, #0]
        if (HAL_InitTick(uwTickPrio) != HAL_OK)
 8003d8e:	4ba6      	ldr	r3, [pc, #664]	@ (8004028 <HAL_RCC_OscConfig+0x330>)
 8003d90:	6818      	ldr	r0, [r3, #0]
 8003d92:	f7fe fc03 	bl	800259c <HAL_InitTick>
 8003d96:	2800      	cmp	r0, #0
 8003d98:	d1de      	bne.n	8003d58 <HAL_RCC_OscConfig+0x60>
  if (((RCC_OscInitStruct->OscillatorType) & RCC_OSCILLATORTYPE_LSI) == RCC_OSCILLATORTYPE_LSI)
 8003d9a:	6823      	ldr	r3, [r4, #0]
 8003d9c:	071a      	lsls	r2, r3, #28
 8003d9e:	d46d      	bmi.n	8003e7c <HAL_RCC_OscConfig+0x184>
  if (((RCC_OscInitStruct->OscillatorType) & RCC_OSCILLATORTYPE_LSE) == RCC_OSCILLATORTYPE_LSE)
 8003da0:	075b      	lsls	r3, r3, #29
 8003da2:	d545      	bpl.n	8003e30 <HAL_RCC_OscConfig+0x138>
    if (__HAL_RCC_GET_SYSCLK_SOURCE() == RCC_SYSCLKSOURCE_STATUS_LSE)
 8003da4:	2338      	movs	r3, #56	@ 0x38
 8003da6:	4a9b      	ldr	r2, [pc, #620]	@ (8004014 <HAL_RCC_OscConfig+0x31c>)
 8003da8:	6891      	ldr	r1, [r2, #8]
 8003daa:	400b      	ands	r3, r1
 8003dac:	2b20      	cmp	r3, #32
 8003dae:	d100      	bne.n	8003db2 <HAL_RCC_OscConfig+0xba>
 8003db0:	e0cc      	b.n	8003f4c <HAL_RCC_OscConfig+0x254>
      if (__HAL_RCC_PWR_IS_CLK_DISABLED() != 0U)
 8003db2:	2380      	movs	r3, #128	@ 0x80
    FlagStatus       pwrclkchanged = RESET;
 8003db4:	2000      	movs	r0, #0
      if (__HAL_RCC_PWR_IS_CLK_DISABLED() != 0U)
 8003db6:	6bd1      	ldr	r1, [r2, #60]	@ 0x3c
 8003db8:	055b      	lsls	r3, r3, #21
    FlagStatus       pwrclkchanged = RESET;
 8003dba:	4681      	mov	r9, r0
      if (__HAL_RCC_PWR_IS_CLK_DISABLED() != 0U)
 8003dbc:	4219      	tst	r1, r3
 8003dbe:	d108      	bne.n	8003dd2 <HAL_RCC_OscConfig+0xda>
        __HAL_RCC_PWR_CLK_ENABLE();
 8003dc0:	6bd1      	ldr	r1, [r2, #60]	@ 0x3c
 8003dc2:	4319      	orrs	r1, r3
 8003dc4:	63d1      	str	r1, [r2, #60]	@ 0x3c
 8003dc6:	6bd2      	ldr	r2, [r2, #60]	@ 0x3c
 8003dc8:	4013      	ands	r3, r2
 8003dca:	9301      	str	r3, [sp, #4]
 8003dcc:	9b01      	ldr	r3, [sp, #4]
        pwrclkchanged = SET;
 8003dce:	2301      	movs	r3, #1
 8003dd0:	4699      	mov	r9, r3
      if (HAL_IS_BIT_CLR(PWR->CR1, PWR_CR1_DBP))
 8003dd2:	2780      	movs	r7, #128	@ 0x80
 8003dd4:	4e95      	ldr	r6, [pc, #596]	@ (800402c <HAL_RCC_OscConfig+0x334>)
 8003dd6:	007f      	lsls	r7, r7, #1
 8003dd8:	6833      	ldr	r3, [r6, #0]
 8003dda:	423b      	tst	r3, r7
 8003ddc:	d100      	bne.n	8003de0 <HAL_RCC_OscConfig+0xe8>
 8003dde:	e0ff      	b.n	8003fe0 <HAL_RCC_OscConfig+0x2e8>
      __HAL_RCC_LSE_CONFIG(RCC_OscInitStruct->LSEState);
 8003de0:	68a3      	ldr	r3, [r4, #8]
 8003de2:	2b01      	cmp	r3, #1
 8003de4:	d100      	bne.n	8003de8 <HAL_RCC_OscConfig+0xf0>
 8003de6:	e0e5      	b.n	8003fb4 <HAL_RCC_OscConfig+0x2bc>
 8003de8:	2b05      	cmp	r3, #5
 8003dea:	d100      	bne.n	8003dee <HAL_RCC_OscConfig+0xf6>
 8003dec:	e1d1      	b.n	8004192 <HAL_RCC_OscConfig+0x49a>
 8003dee:	2101      	movs	r1, #1
 8003df0:	4e88      	ldr	r6, [pc, #544]	@ (8004014 <HAL_RCC_OscConfig+0x31c>)
 8003df2:	6df2      	ldr	r2, [r6, #92]	@ 0x5c
 8003df4:	438a      	bics	r2, r1
 8003df6:	65f2      	str	r2, [r6, #92]	@ 0x5c
 8003df8:	6df2      	ldr	r2, [r6, #92]	@ 0x5c
 8003dfa:	3103      	adds	r1, #3
 8003dfc:	438a      	bics	r2, r1
 8003dfe:	65f2      	str	r2, [r6, #92]	@ 0x5c
      if (RCC_OscInitStruct->LSEState != RCC_LSE_OFF)
 8003e00:	2b00      	cmp	r3, #0
 8003e02:	d000      	beq.n	8003e06 <HAL_RCC_OscConfig+0x10e>
 8003e04:	e0da      	b.n	8003fbc <HAL_RCC_OscConfig+0x2c4>
        tickstart = HAL_GetTick();
 8003e06:	f7fe fc0f 	bl	8002628 <HAL_GetTick>
        while (READ_BIT(RCC->BDCR, RCC_BDCR_LSERDY) != 0U)
 8003e0a:	2302      	movs	r3, #2
        tickstart = HAL_GetTick();
 8003e0c:	0007      	movs	r7, r0
        while (READ_BIT(RCC->BDCR, RCC_BDCR_LSERDY) != 0U)
 8003e0e:	4698      	mov	r8, r3
          if ((HAL_GetTick() - tickstart) > RCC_LSE_TIMEOUT_VALUE)
 8003e10:	4d87      	ldr	r5, [pc, #540]	@ (8004030 <HAL_RCC_OscConfig+0x338>)
        while (READ_BIT(RCC->BDCR, RCC_BDCR_LSERDY) != 0U)
 8003e12:	e005      	b.n	8003e20 <HAL_RCC_OscConfig+0x128>
          if ((HAL_GetTick() - tickstart) > RCC_LSE_TIMEOUT_VALUE)
 8003e14:	f7fe fc08 	bl	8002628 <HAL_GetTick>
 8003e18:	1bc0      	subs	r0, r0, r7
 8003e1a:	42a8      	cmp	r0, r5
 8003e1c:	d900      	bls.n	8003e20 <HAL_RCC_OscConfig+0x128>
 8003e1e:	e0ee      	b.n	8003ffe <HAL_RCC_OscConfig+0x306>
        while (READ_BIT(RCC->BDCR, RCC_BDCR_LSERDY) != 0U)
 8003e20:	4642      	mov	r2, r8
 8003e22:	6df3      	ldr	r3, [r6, #92]	@ 0x5c
 8003e24:	421a      	tst	r2, r3
 8003e26:	d1f5      	bne.n	8003e14 <HAL_RCC_OscConfig+0x11c>
      if (pwrclkchanged == SET)
 8003e28:	464b      	mov	r3, r9
 8003e2a:	2b01      	cmp	r3, #1
 8003e2c:	d100      	bne.n	8003e30 <HAL_RCC_OscConfig+0x138>
 8003e2e:	e16a      	b.n	8004106 <HAL_RCC_OscConfig+0x40e>
  if (RCC_OscInitStruct->PLL.PLLState != RCC_PLL_NONE)
 8003e30:	69e3      	ldr	r3, [r4, #28]
 8003e32:	2b00      	cmp	r3, #0
 8003e34:	d020      	beq.n	8003e78 <HAL_RCC_OscConfig+0x180>
    if (__HAL_RCC_GET_SYSCLK_SOURCE() != RCC_SYSCLKSOURCE_STATUS_PLLCLK)
 8003e36:	2238      	movs	r2, #56	@ 0x38
 8003e38:	4d76      	ldr	r5, [pc, #472]	@ (8004014 <HAL_RCC_OscConfig+0x31c>)
 8003e3a:	68a9      	ldr	r1, [r5, #8]
 8003e3c:	400a      	ands	r2, r1
 8003e3e:	2a10      	cmp	r2, #16
 8003e40:	d100      	bne.n	8003e44 <HAL_RCC_OscConfig+0x14c>
 8003e42:	e11d      	b.n	8004080 <HAL_RCC_OscConfig+0x388>
      if (RCC_OscInitStruct->PLL.PLLState == RCC_PLL_ON)
 8003e44:	2b02      	cmp	r3, #2
 8003e46:	d100      	bne.n	8003e4a <HAL_RCC_OscConfig+0x152>
 8003e48:	e163      	b.n	8004112 <HAL_RCC_OscConfig+0x41a>
        __HAL_RCC_PLL_DISABLE();
 8003e4a:	682b      	ldr	r3, [r5, #0]
 8003e4c:	4a79      	ldr	r2, [pc, #484]	@ (8004034 <HAL_RCC_OscConfig+0x33c>)
        while (READ_BIT(RCC->CR, RCC_CR_PLLRDY) != 0U)
 8003e4e:	2680      	movs	r6, #128	@ 0x80
        __HAL_RCC_PLL_DISABLE();
 8003e50:	4013      	ands	r3, r2
 8003e52:	602b      	str	r3, [r5, #0]
        tickstart = HAL_GetTick();
 8003e54:	f7fe fbe8 	bl	8002628 <HAL_GetTick>
        while (READ_BIT(RCC->CR, RCC_CR_PLLRDY) != 0U)
 8003e58:	04b6      	lsls	r6, r6, #18
        tickstart = HAL_GetTick();
 8003e5a:	0004      	movs	r4, r0
        while (READ_BIT(RCC->CR, RCC_CR_PLLRDY) != 0U)
 8003e5c:	e005      	b.n	8003e6a <HAL_RCC_OscConfig+0x172>
          if ((HAL_GetTick() - tickstart) > PLL_TIMEOUT_VALUE)
 8003e5e:	f7fe fbe3 	bl	8002628 <HAL_GetTick>
 8003e62:	1b00      	subs	r0, r0, r4
 8003e64:	2802      	cmp	r0, #2
 8003e66:	d900      	bls.n	8003e6a <HAL_RCC_OscConfig+0x172>
 8003e68:	e0c9      	b.n	8003ffe <HAL_RCC_OscConfig+0x306>
        while (READ_BIT(RCC->CR, RCC_CR_PLLRDY) != 0U)
 8003e6a:	682b      	ldr	r3, [r5, #0]
 8003e6c:	4233      	tst	r3, r6
 8003e6e:	d1f6      	bne.n	8003e5e <HAL_RCC_OscConfig+0x166>
        RCC->PLLCFGR &= ~(RCC_PLLCFGR_PLLSRC | RCC_PLLCFGR_PLLPEN | RCC_PLLCFGR_PLLQEN | RCC_PLLCFGR_PLLREN);
 8003e70:	68eb      	ldr	r3, [r5, #12]
 8003e72:	4a71      	ldr	r2, [pc, #452]	@ (8004038 <HAL_RCC_OscConfig+0x340>)
 8003e74:	4013      	ands	r3, r2
 8003e76:	60eb      	str	r3, [r5, #12]
  return HAL_OK;
 8003e78:	2000      	movs	r0, #0
 8003e7a:	e76e      	b.n	8003d5a <HAL_RCC_OscConfig+0x62>
    if (__HAL_RCC_GET_SYSCLK_SOURCE() == RCC_SYSCLKSOURCE_STATUS_LSI)
 8003e7c:	2238      	movs	r2, #56	@ 0x38
 8003e7e:	4d65      	ldr	r5, [pc, #404]	@ (8004014 <HAL_RCC_OscConfig+0x31c>)
 8003e80:	68a9      	ldr	r1, [r5, #8]
 8003e82:	400a      	ands	r2, r1
 8003e84:	2a18      	cmp	r2, #24
 8003e86:	d043      	beq.n	8003f10 <HAL_RCC_OscConfig+0x218>
      if (RCC_OscInitStruct->LSIState != RCC_LSI_OFF)
 8003e88:	69a3      	ldr	r3, [r4, #24]
 8003e8a:	2b00      	cmp	r3, #0
 8003e8c:	d100      	bne.n	8003e90 <HAL_RCC_OscConfig+0x198>
 8003e8e:	e0b8      	b.n	8004002 <HAL_RCC_OscConfig+0x30a>
        __HAL_RCC_LSI_ENABLE();
 8003e90:	2201      	movs	r2, #1
 8003e92:	6e2b      	ldr	r3, [r5, #96]	@ 0x60
        while (READ_BIT(RCC->CSR, RCC_CSR_LSIRDY) == 0U)
 8003e94:	2702      	movs	r7, #2
        __HAL_RCC_LSI_ENABLE();
 8003e96:	4313      	orrs	r3, r2
 8003e98:	662b      	str	r3, [r5, #96]	@ 0x60
        tickstart = HAL_GetTick();
 8003e9a:	f7fe fbc5 	bl	8002628 <HAL_GetTick>
 8003e9e:	0006      	movs	r6, r0
        while (READ_BIT(RCC->CSR, RCC_CSR_LSIRDY) == 0U)
 8003ea0:	e005      	b.n	8003eae <HAL_RCC_OscConfig+0x1b6>
          if ((HAL_GetTick() - tickstart) > LSI_TIMEOUT_VALUE)
 8003ea2:	f7fe fbc1 	bl	8002628 <HAL_GetTick>
 8003ea6:	1b80      	subs	r0, r0, r6
 8003ea8:	2802      	cmp	r0, #2
 8003eaa:	d900      	bls.n	8003eae <HAL_RCC_OscConfig+0x1b6>
 8003eac:	e0a7      	b.n	8003ffe <HAL_RCC_OscConfig+0x306>
        while (READ_BIT(RCC->CSR, RCC_CSR_LSIRDY) == 0U)
 8003eae:	6e2b      	ldr	r3, [r5, #96]	@ 0x60
 8003eb0:	421f      	tst	r7, r3
 8003eb2:	d0f6      	beq.n	8003ea2 <HAL_RCC_OscConfig+0x1aa>
  if (((RCC_OscInitStruct->OscillatorType) & RCC_OSCILLATORTYPE_LSE) == RCC_OSCILLATORTYPE_LSE)
 8003eb4:	6823      	ldr	r3, [r4, #0]
 8003eb6:	e773      	b.n	8003da0 <HAL_RCC_OscConfig+0xa8>
    temp_pllckcfg = __HAL_RCC_GET_PLL_OSCSOURCE();
 8003eb8:	43c9      	mvns	r1, r1
    if (((temp_sysclksrc == RCC_SYSCLKSOURCE_STATUS_PLLCLK) && (temp_pllckcfg == RCC_PLLSOURCE_HSE))
 8003eba:	0789      	lsls	r1, r1, #30
 8003ebc:	d100      	bne.n	8003ec0 <HAL_RCC_OscConfig+0x1c8>
 8003ebe:	e731      	b.n	8003d24 <HAL_RCC_OscConfig+0x2c>
      __HAL_RCC_HSE_CONFIG(RCC_OscInitStruct->HSEState);
 8003ec0:	2280      	movs	r2, #128	@ 0x80
 8003ec2:	6863      	ldr	r3, [r4, #4]
 8003ec4:	0252      	lsls	r2, r2, #9
 8003ec6:	4293      	cmp	r3, r2
 8003ec8:	d02b      	beq.n	8003f22 <HAL_RCC_OscConfig+0x22a>
 8003eca:	21a0      	movs	r1, #160	@ 0xa0
 8003ecc:	02c9      	lsls	r1, r1, #11
 8003ece:	428b      	cmp	r3, r1
 8003ed0:	d100      	bne.n	8003ed4 <HAL_RCC_OscConfig+0x1dc>
 8003ed2:	e103      	b.n	80040dc <HAL_RCC_OscConfig+0x3e4>
 8003ed4:	4d4f      	ldr	r5, [pc, #316]	@ (8004014 <HAL_RCC_OscConfig+0x31c>)
 8003ed6:	4959      	ldr	r1, [pc, #356]	@ (800403c <HAL_RCC_OscConfig+0x344>)
 8003ed8:	682a      	ldr	r2, [r5, #0]
 8003eda:	400a      	ands	r2, r1
 8003edc:	602a      	str	r2, [r5, #0]
 8003ede:	682a      	ldr	r2, [r5, #0]
 8003ee0:	4957      	ldr	r1, [pc, #348]	@ (8004040 <HAL_RCC_OscConfig+0x348>)
 8003ee2:	400a      	ands	r2, r1
 8003ee4:	602a      	str	r2, [r5, #0]
      if (RCC_OscInitStruct->HSEState != RCC_HSE_OFF)
 8003ee6:	2b00      	cmp	r3, #0
 8003ee8:	d11f      	bne.n	8003f2a <HAL_RCC_OscConfig+0x232>
        tickstart = HAL_GetTick();
 8003eea:	f7fe fb9d 	bl	8002628 <HAL_GetTick>
        while (READ_BIT(RCC->CR, RCC_CR_HSERDY) != 0U)
 8003eee:	2780      	movs	r7, #128	@ 0x80
        tickstart = HAL_GetTick();
 8003ef0:	0006      	movs	r6, r0
        while (READ_BIT(RCC->CR, RCC_CR_HSERDY) != 0U)
 8003ef2:	02bf      	lsls	r7, r7, #10
 8003ef4:	e004      	b.n	8003f00 <HAL_RCC_OscConfig+0x208>
          if ((HAL_GetTick() - tickstart) > HSE_TIMEOUT_VALUE)
 8003ef6:	f7fe fb97 	bl	8002628 <HAL_GetTick>
 8003efa:	1b80      	subs	r0, r0, r6
 8003efc:	2864      	cmp	r0, #100	@ 0x64
 8003efe:	d87e      	bhi.n	8003ffe <HAL_RCC_OscConfig+0x306>
        while (READ_BIT(RCC->CR, RCC_CR_HSERDY) != 0U)
 8003f00:	682b      	ldr	r3, [r5, #0]
 8003f02:	423b      	tst	r3, r7
 8003f04:	d1f7      	bne.n	8003ef6 <HAL_RCC_OscConfig+0x1fe>
  if (((RCC_OscInitStruct->OscillatorType) & RCC_OSCILLATORTYPE_HSI) == RCC_OSCILLATORTYPE_HSI)
 8003f06:	6823      	ldr	r3, [r4, #0]
 8003f08:	079a      	lsls	r2, r3, #30
 8003f0a:	d400      	bmi.n	8003f0e <HAL_RCC_OscConfig+0x216>
 8003f0c:	e746      	b.n	8003d9c <HAL_RCC_OscConfig+0xa4>
 8003f0e:	e712      	b.n	8003d36 <HAL_RCC_OscConfig+0x3e>
      if ((((RCC->CSR) & RCC_CSR_LSIRDY) != 0U) && (RCC_OscInitStruct->LSIState == RCC_LSI_OFF))
 8003f10:	6e2a      	ldr	r2, [r5, #96]	@ 0x60
 8003f12:	0792      	lsls	r2, r2, #30
 8003f14:	d400      	bmi.n	8003f18 <HAL_RCC_OscConfig+0x220>
 8003f16:	e743      	b.n	8003da0 <HAL_RCC_OscConfig+0xa8>
 8003f18:	69a2      	ldr	r2, [r4, #24]
 8003f1a:	2a00      	cmp	r2, #0
 8003f1c:	d000      	beq.n	8003f20 <HAL_RCC_OscConfig+0x228>
 8003f1e:	e73f      	b.n	8003da0 <HAL_RCC_OscConfig+0xa8>
 8003f20:	e71a      	b.n	8003d58 <HAL_RCC_OscConfig+0x60>
      __HAL_RCC_HSE_CONFIG(RCC_OscInitStruct->HSEState);
 8003f22:	4a3c      	ldr	r2, [pc, #240]	@ (8004014 <HAL_RCC_OscConfig+0x31c>)
 8003f24:	6811      	ldr	r1, [r2, #0]
 8003f26:	430b      	orrs	r3, r1
 8003f28:	6013      	str	r3, [r2, #0]
        tickstart = HAL_GetTick();
 8003f2a:	f7fe fb7d 	bl	8002628 <HAL_GetTick>
        while (READ_BIT(RCC->CR, RCC_CR_HSERDY) == 0U)
 8003f2e:	2680      	movs	r6, #128	@ 0x80
        tickstart = HAL_GetTick();
 8003f30:	0005      	movs	r5, r0
        while (READ_BIT(RCC->CR, RCC_CR_HSERDY) == 0U)
 8003f32:	4f38      	ldr	r7, [pc, #224]	@ (8004014 <HAL_RCC_OscConfig+0x31c>)
 8003f34:	02b6      	lsls	r6, r6, #10
 8003f36:	e004      	b.n	8003f42 <HAL_RCC_OscConfig+0x24a>
          if ((HAL_GetTick() - tickstart) > HSE_TIMEOUT_VALUE)
 8003f38:	f7fe fb76 	bl	8002628 <HAL_GetTick>
 8003f3c:	1b40      	subs	r0, r0, r5
 8003f3e:	2864      	cmp	r0, #100	@ 0x64
 8003f40:	d85d      	bhi.n	8003ffe <HAL_RCC_OscConfig+0x306>
        while (READ_BIT(RCC->CR, RCC_CR_HSERDY) == 0U)
 8003f42:	683b      	ldr	r3, [r7, #0]
 8003f44:	4233      	tst	r3, r6
 8003f46:	d0f7      	beq.n	8003f38 <HAL_RCC_OscConfig+0x240>
  if (((RCC_OscInitStruct->OscillatorType) & RCC_OSCILLATORTYPE_HSI) == RCC_OSCILLATORTYPE_HSI)
 8003f48:	6823      	ldr	r3, [r4, #0]
 8003f4a:	e7dd      	b.n	8003f08 <HAL_RCC_OscConfig+0x210>
      if ((((RCC->BDCR) & RCC_BDCR_LSERDY) != 0U) && (RCC_OscInitStruct->LSEState == RCC_LSE_OFF))
 8003f4c:	6dd3      	ldr	r3, [r2, #92]	@ 0x5c
 8003f4e:	079b      	lsls	r3, r3, #30
 8003f50:	d400      	bmi.n	8003f54 <HAL_RCC_OscConfig+0x25c>
 8003f52:	e76d      	b.n	8003e30 <HAL_RCC_OscConfig+0x138>
 8003f54:	68a3      	ldr	r3, [r4, #8]
 8003f56:	2b00      	cmp	r3, #0
 8003f58:	d000      	beq.n	8003f5c <HAL_RCC_OscConfig+0x264>
 8003f5a:	e769      	b.n	8003e30 <HAL_RCC_OscConfig+0x138>
 8003f5c:	e6fc      	b.n	8003d58 <HAL_RCC_OscConfig+0x60>
    temp_pllckcfg = __HAL_RCC_GET_PLL_OSCSOURCE();
 8003f5e:	3b0d      	subs	r3, #13
 8003f60:	400b      	ands	r3, r1
    if (((temp_sysclksrc == RCC_SYSCLKSOURCE_STATUS_PLLCLK) && (temp_pllckcfg == RCC_PLLSOURCE_HSI))
 8003f62:	2b02      	cmp	r3, #2
 8003f64:	d100      	bne.n	8003f68 <HAL_RCC_OscConfig+0x270>
 8003f66:	e0c3      	b.n	80040f0 <HAL_RCC_OscConfig+0x3f8>
      if (RCC_OscInitStruct->HSIState != RCC_HSI_OFF)
 8003f68:	68e3      	ldr	r3, [r4, #12]
        __HAL_RCC_HSI_CONFIG(RCC_OscInitStruct->HSIDiv);
 8003f6a:	4d2a      	ldr	r5, [pc, #168]	@ (8004014 <HAL_RCC_OscConfig+0x31c>)
      if (RCC_OscInitStruct->HSIState != RCC_HSI_OFF)
 8003f6c:	2b00      	cmp	r3, #0
 8003f6e:	d073      	beq.n	8004058 <HAL_RCC_OscConfig+0x360>
        __HAL_RCC_HSI_CONFIG(RCC_OscInitStruct->HSIDiv);
 8003f70:	682b      	ldr	r3, [r5, #0]
 8003f72:	4a2a      	ldr	r2, [pc, #168]	@ (800401c <HAL_RCC_OscConfig+0x324>)
        while (READ_BIT(RCC->CR, RCC_CR_HSIRDY) == 0U)
 8003f74:	2780      	movs	r7, #128	@ 0x80
        __HAL_RCC_HSI_CONFIG(RCC_OscInitStruct->HSIDiv);
 8003f76:	4013      	ands	r3, r2
 8003f78:	6922      	ldr	r2, [r4, #16]
        while (READ_BIT(RCC->CR, RCC_CR_HSIRDY) == 0U)
 8003f7a:	00ff      	lsls	r7, r7, #3
        __HAL_RCC_HSI_CONFIG(RCC_OscInitStruct->HSIDiv);
 8003f7c:	4313      	orrs	r3, r2
 8003f7e:	602b      	str	r3, [r5, #0]
        __HAL_RCC_HSI_ENABLE();
 8003f80:	2380      	movs	r3, #128	@ 0x80
 8003f82:	682a      	ldr	r2, [r5, #0]
 8003f84:	005b      	lsls	r3, r3, #1
 8003f86:	4313      	orrs	r3, r2
 8003f88:	602b      	str	r3, [r5, #0]
        tickstart = HAL_GetTick();
 8003f8a:	f7fe fb4d 	bl	8002628 <HAL_GetTick>
 8003f8e:	0006      	movs	r6, r0
        while (READ_BIT(RCC->CR, RCC_CR_HSIRDY) == 0U)
 8003f90:	e004      	b.n	8003f9c <HAL_RCC_OscConfig+0x2a4>
          if ((HAL_GetTick() - tickstart) > HSI_TIMEOUT_VALUE)
 8003f92:	f7fe fb49 	bl	8002628 <HAL_GetTick>
 8003f96:	1b80      	subs	r0, r0, r6
 8003f98:	2802      	cmp	r0, #2
 8003f9a:	d830      	bhi.n	8003ffe <HAL_RCC_OscConfig+0x306>
        while (READ_BIT(RCC->CR, RCC_CR_HSIRDY) == 0U)
 8003f9c:	682b      	ldr	r3, [r5, #0]
 8003f9e:	423b      	tst	r3, r7
 8003fa0:	d0f7      	beq.n	8003f92 <HAL_RCC_OscConfig+0x29a>
        __HAL_RCC_HSI_CALIBRATIONVALUE_ADJUST(RCC_OscInitStruct->HSICalibrationValue);
 8003fa2:	686a      	ldr	r2, [r5, #4]
 8003fa4:	6963      	ldr	r3, [r4, #20]
 8003fa6:	491c      	ldr	r1, [pc, #112]	@ (8004018 <HAL_RCC_OscConfig+0x320>)
 8003fa8:	021b      	lsls	r3, r3, #8
 8003faa:	400a      	ands	r2, r1
 8003fac:	4313      	orrs	r3, r2
 8003fae:	606b      	str	r3, [r5, #4]
  if (((RCC_OscInitStruct->OscillatorType) & RCC_OSCILLATORTYPE_LSI) == RCC_OSCILLATORTYPE_LSI)
 8003fb0:	6823      	ldr	r3, [r4, #0]
 8003fb2:	e6f3      	b.n	8003d9c <HAL_RCC_OscConfig+0xa4>
      __HAL_RCC_LSE_CONFIG(RCC_OscInitStruct->LSEState);
 8003fb4:	4917      	ldr	r1, [pc, #92]	@ (8004014 <HAL_RCC_OscConfig+0x31c>)
 8003fb6:	6dca      	ldr	r2, [r1, #92]	@ 0x5c
 8003fb8:	4313      	orrs	r3, r2
 8003fba:	65cb      	str	r3, [r1, #92]	@ 0x5c
        tickstart = HAL_GetTick();
 8003fbc:	f7fe fb34 	bl	8002628 <HAL_GetTick>
        while (READ_BIT(RCC->BDCR, RCC_BDCR_LSERDY) == 0U)
 8003fc0:	4b14      	ldr	r3, [pc, #80]	@ (8004014 <HAL_RCC_OscConfig+0x31c>)
        tickstart = HAL_GetTick();
 8003fc2:	0006      	movs	r6, r0
        while (READ_BIT(RCC->BDCR, RCC_BDCR_LSERDY) == 0U)
 8003fc4:	4698      	mov	r8, r3
 8003fc6:	2702      	movs	r7, #2
          if ((HAL_GetTick() - tickstart) > RCC_LSE_TIMEOUT_VALUE)
 8003fc8:	4d19      	ldr	r5, [pc, #100]	@ (8004030 <HAL_RCC_OscConfig+0x338>)
        while (READ_BIT(RCC->BDCR, RCC_BDCR_LSERDY) == 0U)
 8003fca:	e004      	b.n	8003fd6 <HAL_RCC_OscConfig+0x2de>
          if ((HAL_GetTick() - tickstart) > RCC_LSE_TIMEOUT_VALUE)
 8003fcc:	f7fe fb2c 	bl	8002628 <HAL_GetTick>
 8003fd0:	1b80      	subs	r0, r0, r6
 8003fd2:	42a8      	cmp	r0, r5
 8003fd4:	d813      	bhi.n	8003ffe <HAL_RCC_OscConfig+0x306>
        while (READ_BIT(RCC->BDCR, RCC_BDCR_LSERDY) == 0U)
 8003fd6:	4643      	mov	r3, r8
 8003fd8:	6ddb      	ldr	r3, [r3, #92]	@ 0x5c
 8003fda:	421f      	tst	r7, r3
 8003fdc:	d0f6      	beq.n	8003fcc <HAL_RCC_OscConfig+0x2d4>
 8003fde:	e723      	b.n	8003e28 <HAL_RCC_OscConfig+0x130>
        SET_BIT(PWR->CR1, PWR_CR1_DBP);
 8003fe0:	6833      	ldr	r3, [r6, #0]
 8003fe2:	433b      	orrs	r3, r7
 8003fe4:	6033      	str	r3, [r6, #0]
        tickstart = HAL_GetTick();
 8003fe6:	f7fe fb1f 	bl	8002628 <HAL_GetTick>
 8003fea:	0005      	movs	r5, r0
        while (HAL_IS_BIT_CLR(PWR->CR1, PWR_CR1_DBP))
 8003fec:	6833      	ldr	r3, [r6, #0]
 8003fee:	423b      	tst	r3, r7
 8003ff0:	d000      	beq.n	8003ff4 <HAL_RCC_OscConfig+0x2fc>
 8003ff2:	e6f5      	b.n	8003de0 <HAL_RCC_OscConfig+0xe8>
          if ((HAL_GetTick() - tickstart) > RCC_DBP_TIMEOUT_VALUE)
 8003ff4:	f7fe fb18 	bl	8002628 <HAL_GetTick>
 8003ff8:	1b40      	subs	r0, r0, r5
 8003ffa:	2802      	cmp	r0, #2
 8003ffc:	d9f6      	bls.n	8003fec <HAL_RCC_OscConfig+0x2f4>
            return HAL_TIMEOUT;
 8003ffe:	2003      	movs	r0, #3
 8004000:	e6ab      	b.n	8003d5a <HAL_RCC_OscConfig+0x62>
        __HAL_RCC_LSI_DISABLE();
 8004002:	2201      	movs	r2, #1
 8004004:	6e2b      	ldr	r3, [r5, #96]	@ 0x60
        while (READ_BIT(RCC->CSR, RCC_CSR_LSIRDY) != 0U)
 8004006:	2702      	movs	r7, #2
        __HAL_RCC_LSI_DISABLE();
 8004008:	4393      	bics	r3, r2
 800400a:	662b      	str	r3, [r5, #96]	@ 0x60
        tickstart = HAL_GetTick();
 800400c:	f7fe fb0c 	bl	8002628 <HAL_GetTick>
 8004010:	0006      	movs	r6, r0
        while (READ_BIT(RCC->CSR, RCC_CSR_LSIRDY) != 0U)
 8004012:	e01c      	b.n	800404e <HAL_RCC_OscConfig+0x356>
 8004014:	40021000 	.word	0x40021000
 8004018:	ffff80ff 	.word	0xffff80ff
 800401c:	ffffc7ff 	.word	0xffffc7ff
 8004020:	00f42400 	.word	0x00f42400
 8004024:	20000008 	.word	0x20000008
 8004028:	20000010 	.word	0x20000010
 800402c:	40007000 	.word	0x40007000
 8004030:	00001388 	.word	0x00001388
 8004034:	feffffff 	.word	0xfeffffff
 8004038:	eefefffc 	.word	0xeefefffc
 800403c:	fffeffff 	.word	0xfffeffff
 8004040:	fffbffff 	.word	0xfffbffff
          if ((HAL_GetTick() - tickstart) > LSI_TIMEOUT_VALUE)
 8004044:	f7fe faf0 	bl	8002628 <HAL_GetTick>
 8004048:	1b80      	subs	r0, r0, r6
 800404a:	2802      	cmp	r0, #2
 800404c:	d8d7      	bhi.n	8003ffe <HAL_RCC_OscConfig+0x306>
        while (READ_BIT(RCC->CSR, RCC_CSR_LSIRDY) != 0U)
 800404e:	6e2b      	ldr	r3, [r5, #96]	@ 0x60
 8004050:	421f      	tst	r7, r3
 8004052:	d1f7      	bne.n	8004044 <HAL_RCC_OscConfig+0x34c>
  if (((RCC_OscInitStruct->OscillatorType) & RCC_OSCILLATORTYPE_LSE) == RCC_OSCILLATORTYPE_LSE)
 8004054:	6823      	ldr	r3, [r4, #0]
 8004056:	e6a3      	b.n	8003da0 <HAL_RCC_OscConfig+0xa8>
        __HAL_RCC_HSI_DISABLE();
 8004058:	682b      	ldr	r3, [r5, #0]
 800405a:	4a55      	ldr	r2, [pc, #340]	@ (80041b0 <HAL_RCC_OscConfig+0x4b8>)
        while (READ_BIT(RCC->CR, RCC_CR_HSIRDY) != 0U)
 800405c:	2780      	movs	r7, #128	@ 0x80
        __HAL_RCC_HSI_DISABLE();
 800405e:	4013      	ands	r3, r2
 8004060:	602b      	str	r3, [r5, #0]
        tickstart = HAL_GetTick();
 8004062:	f7fe fae1 	bl	8002628 <HAL_GetTick>
        while (READ_BIT(RCC->CR, RCC_CR_HSIRDY) != 0U)
 8004066:	00ff      	lsls	r7, r7, #3
        tickstart = HAL_GetTick();
 8004068:	0006      	movs	r6, r0
        while (READ_BIT(RCC->CR, RCC_CR_HSIRDY) != 0U)
 800406a:	e004      	b.n	8004076 <HAL_RCC_OscConfig+0x37e>
          if ((HAL_GetTick() - tickstart) > HSI_TIMEOUT_VALUE)
 800406c:	f7fe fadc 	bl	8002628 <HAL_GetTick>
 8004070:	1b80      	subs	r0, r0, r6
 8004072:	2802      	cmp	r0, #2
 8004074:	d8c3      	bhi.n	8003ffe <HAL_RCC_OscConfig+0x306>
        while (READ_BIT(RCC->CR, RCC_CR_HSIRDY) != 0U)
 8004076:	682b      	ldr	r3, [r5, #0]
 8004078:	423b      	tst	r3, r7
 800407a:	d1f7      	bne.n	800406c <HAL_RCC_OscConfig+0x374>
  if (((RCC_OscInitStruct->OscillatorType) & RCC_OSCILLATORTYPE_LSI) == RCC_OSCILLATORTYPE_LSI)
 800407c:	6823      	ldr	r3, [r4, #0]
 800407e:	e68d      	b.n	8003d9c <HAL_RCC_OscConfig+0xa4>
      if ((RCC_OscInitStruct->PLL.PLLState) == RCC_PLL_OFF)
 8004080:	2b01      	cmp	r3, #1
 8004082:	d100      	bne.n	8004086 <HAL_RCC_OscConfig+0x38e>
 8004084:	e668      	b.n	8003d58 <HAL_RCC_OscConfig+0x60>
        if ((READ_BIT(temp_pllckcfg, RCC_PLLCFGR_PLLSRC) != RCC_OscInitStruct->PLL.PLLSource) ||
 8004086:	2203      	movs	r2, #3
        temp_pllckcfg = RCC->PLLCFGR;
 8004088:	68e8      	ldr	r0, [r5, #12]
        if ((READ_BIT(temp_pllckcfg, RCC_PLLCFGR_PLLSRC) != RCC_OscInitStruct->PLL.PLLSource) ||
 800408a:	6a21      	ldr	r1, [r4, #32]
 800408c:	4002      	ands	r2, r0
 800408e:	428a      	cmp	r2, r1
 8004090:	d000      	beq.n	8004094 <HAL_RCC_OscConfig+0x39c>
 8004092:	e661      	b.n	8003d58 <HAL_RCC_OscConfig+0x60>
            (READ_BIT(temp_pllckcfg, RCC_PLLCFGR_PLLM) != RCC_OscInitStruct->PLL.PLLM) ||
 8004094:	2270      	movs	r2, #112	@ 0x70
        if ((READ_BIT(temp_pllckcfg, RCC_PLLCFGR_PLLSRC) != RCC_OscInitStruct->PLL.PLLSource) ||
 8004096:	6a61      	ldr	r1, [r4, #36]	@ 0x24
            (READ_BIT(temp_pllckcfg, RCC_PLLCFGR_PLLM) != RCC_OscInitStruct->PLL.PLLM) ||
 8004098:	4002      	ands	r2, r0
        if ((READ_BIT(temp_pllckcfg, RCC_PLLCFGR_PLLSRC) != RCC_OscInitStruct->PLL.PLLSource) ||
 800409a:	428a      	cmp	r2, r1
 800409c:	d000      	beq.n	80040a0 <HAL_RCC_OscConfig+0x3a8>
 800409e:	e65b      	b.n	8003d58 <HAL_RCC_OscConfig+0x60>
            (READ_BIT(temp_pllckcfg, RCC_PLLCFGR_PLLN) != (RCC_OscInitStruct->PLL.PLLN << RCC_PLLCFGR_PLLN_Pos)) ||
 80040a0:	21fe      	movs	r1, #254	@ 0xfe
 80040a2:	6aa2      	ldr	r2, [r4, #40]	@ 0x28
 80040a4:	01c9      	lsls	r1, r1, #7
 80040a6:	4001      	ands	r1, r0
 80040a8:	0212      	lsls	r2, r2, #8
            (READ_BIT(temp_pllckcfg, RCC_PLLCFGR_PLLM) != RCC_OscInitStruct->PLL.PLLM) ||
 80040aa:	4291      	cmp	r1, r2
 80040ac:	d000      	beq.n	80040b0 <HAL_RCC_OscConfig+0x3b8>
 80040ae:	e653      	b.n	8003d58 <HAL_RCC_OscConfig+0x60>
            (READ_BIT(temp_pllckcfg, RCC_PLLCFGR_PLLP) != RCC_OscInitStruct->PLL.PLLP) ||
 80040b0:	22f8      	movs	r2, #248	@ 0xf8
            (READ_BIT(temp_pllckcfg, RCC_PLLCFGR_PLLN) != (RCC_OscInitStruct->PLL.PLLN << RCC_PLLCFGR_PLLN_Pos)) ||
 80040b2:	6ae1      	ldr	r1, [r4, #44]	@ 0x2c
            (READ_BIT(temp_pllckcfg, RCC_PLLCFGR_PLLP) != RCC_OscInitStruct->PLL.PLLP) ||
 80040b4:	0392      	lsls	r2, r2, #14
 80040b6:	4002      	ands	r2, r0
            (READ_BIT(temp_pllckcfg, RCC_PLLCFGR_PLLN) != (RCC_OscInitStruct->PLL.PLLN << RCC_PLLCFGR_PLLN_Pos)) ||
 80040b8:	428a      	cmp	r2, r1
 80040ba:	d000      	beq.n	80040be <HAL_RCC_OscConfig+0x3c6>
 80040bc:	e64c      	b.n	8003d58 <HAL_RCC_OscConfig+0x60>
            (READ_BIT(temp_pllckcfg, RCC_PLLCFGR_PLLQ) != RCC_OscInitStruct->PLL.PLLQ) ||
 80040be:	22e0      	movs	r2, #224	@ 0xe0
            (READ_BIT(temp_pllckcfg, RCC_PLLCFGR_PLLP) != RCC_OscInitStruct->PLL.PLLP) ||
 80040c0:	6b21      	ldr	r1, [r4, #48]	@ 0x30
            (READ_BIT(temp_pllckcfg, RCC_PLLCFGR_PLLQ) != RCC_OscInitStruct->PLL.PLLQ) ||
 80040c2:	0512      	lsls	r2, r2, #20
 80040c4:	4002      	ands	r2, r0
            (READ_BIT(temp_pllckcfg, RCC_PLLCFGR_PLLP) != RCC_OscInitStruct->PLL.PLLP) ||
 80040c6:	428a      	cmp	r2, r1
 80040c8:	d000      	beq.n	80040cc <HAL_RCC_OscConfig+0x3d4>
 80040ca:	e645      	b.n	8003d58 <HAL_RCC_OscConfig+0x60>
            (READ_BIT(temp_pllckcfg, RCC_PLLCFGR_PLLQ) != RCC_OscInitStruct->PLL.PLLQ) ||
 80040cc:	6b63      	ldr	r3, [r4, #52]	@ 0x34
            (READ_BIT(temp_pllckcfg, RCC_PLLCFGR_PLLR) != RCC_OscInitStruct->PLL.PLLR))
 80040ce:	0f40      	lsrs	r0, r0, #29
 80040d0:	0740      	lsls	r0, r0, #29
            (READ_BIT(temp_pllckcfg, RCC_PLLCFGR_PLLQ) != RCC_OscInitStruct->PLL.PLLQ) ||
 80040d2:	1ac0      	subs	r0, r0, r3
 80040d4:	1e43      	subs	r3, r0, #1
 80040d6:	4198      	sbcs	r0, r3
 80040d8:	b2c0      	uxtb	r0, r0
 80040da:	e63e      	b.n	8003d5a <HAL_RCC_OscConfig+0x62>
      __HAL_RCC_HSE_CONFIG(RCC_OscInitStruct->HSEState);
 80040dc:	2180      	movs	r1, #128	@ 0x80
 80040de:	4b35      	ldr	r3, [pc, #212]	@ (80041b4 <HAL_RCC_OscConfig+0x4bc>)
 80040e0:	02c9      	lsls	r1, r1, #11
 80040e2:	6818      	ldr	r0, [r3, #0]
 80040e4:	4301      	orrs	r1, r0
 80040e6:	6019      	str	r1, [r3, #0]
 80040e8:	6819      	ldr	r1, [r3, #0]
 80040ea:	430a      	orrs	r2, r1
 80040ec:	601a      	str	r2, [r3, #0]
      if (RCC_OscInitStruct->HSEState != RCC_HSE_OFF)
 80040ee:	e71c      	b.n	8003f2a <HAL_RCC_OscConfig+0x232>
      if ((READ_BIT(RCC->CR, RCC_CR_HSIRDY) != 0U) && (RCC_OscInitStruct->HSIState == RCC_HSI_OFF))
 80040f0:	6813      	ldr	r3, [r2, #0]
 80040f2:	055b      	lsls	r3, r3, #21
 80040f4:	d457      	bmi.n	80041a6 <HAL_RCC_OscConfig+0x4ae>
        __HAL_RCC_HSI_CALIBRATIONVALUE_ADJUST(RCC_OscInitStruct->HSICalibrationValue);
 80040f6:	6851      	ldr	r1, [r2, #4]
 80040f8:	6963      	ldr	r3, [r4, #20]
 80040fa:	482f      	ldr	r0, [pc, #188]	@ (80041b8 <HAL_RCC_OscConfig+0x4c0>)
 80040fc:	021b      	lsls	r3, r3, #8
 80040fe:	4001      	ands	r1, r0
 8004100:	430b      	orrs	r3, r1
 8004102:	6053      	str	r3, [r2, #4]
        if (temp_sysclksrc == RCC_SYSCLKSOURCE_STATUS_HSI)
 8004104:	e643      	b.n	8003d8e <HAL_RCC_OscConfig+0x96>
        __HAL_RCC_PWR_CLK_DISABLE();
 8004106:	4a2b      	ldr	r2, [pc, #172]	@ (80041b4 <HAL_RCC_OscConfig+0x4bc>)
 8004108:	492c      	ldr	r1, [pc, #176]	@ (80041bc <HAL_RCC_OscConfig+0x4c4>)
 800410a:	6bd3      	ldr	r3, [r2, #60]	@ 0x3c
 800410c:	400b      	ands	r3, r1
 800410e:	63d3      	str	r3, [r2, #60]	@ 0x3c
 8004110:	e68e      	b.n	8003e30 <HAL_RCC_OscConfig+0x138>
        __HAL_RCC_PLL_DISABLE();
 8004112:	682b      	ldr	r3, [r5, #0]
 8004114:	4a2a      	ldr	r2, [pc, #168]	@ (80041c0 <HAL_RCC_OscConfig+0x4c8>)
        while (READ_BIT(RCC->CR, RCC_CR_PLLRDY) != 0U)
 8004116:	2780      	movs	r7, #128	@ 0x80
        __HAL_RCC_PLL_DISABLE();
 8004118:	4013      	ands	r3, r2
 800411a:	602b      	str	r3, [r5, #0]
        tickstart = HAL_GetTick();
 800411c:	f7fe fa84 	bl	8002628 <HAL_GetTick>
        while (READ_BIT(RCC->CR, RCC_CR_PLLRDY) != 0U)
 8004120:	04bf      	lsls	r7, r7, #18
        tickstart = HAL_GetTick();
 8004122:	0006      	movs	r6, r0
        while (READ_BIT(RCC->CR, RCC_CR_PLLRDY) != 0U)
 8004124:	e005      	b.n	8004132 <HAL_RCC_OscConfig+0x43a>
          if ((HAL_GetTick() - tickstart) > PLL_TIMEOUT_VALUE)
 8004126:	f7fe fa7f 	bl	8002628 <HAL_GetTick>
 800412a:	1b80      	subs	r0, r0, r6
 800412c:	2802      	cmp	r0, #2
 800412e:	d900      	bls.n	8004132 <HAL_RCC_OscConfig+0x43a>
 8004130:	e765      	b.n	8003ffe <HAL_RCC_OscConfig+0x306>
        while (READ_BIT(RCC->CR, RCC_CR_PLLRDY) != 0U)
 8004132:	682b      	ldr	r3, [r5, #0]
 8004134:	423b      	tst	r3, r7
 8004136:	d1f6      	bne.n	8004126 <HAL_RCC_OscConfig+0x42e>
        __HAL_RCC_PLL_CONFIG(RCC_OscInitStruct->PLL.PLLSource,
 8004138:	6a61      	ldr	r1, [r4, #36]	@ 0x24
 800413a:	6a23      	ldr	r3, [r4, #32]
 800413c:	68ea      	ldr	r2, [r5, #12]
 800413e:	430b      	orrs	r3, r1
 8004140:	4920      	ldr	r1, [pc, #128]	@ (80041c4 <HAL_RCC_OscConfig+0x4cc>)
        while (READ_BIT(RCC->CR, RCC_CR_PLLRDY) == 0U)
 8004142:	4e1c      	ldr	r6, [pc, #112]	@ (80041b4 <HAL_RCC_OscConfig+0x4bc>)
        __HAL_RCC_PLL_CONFIG(RCC_OscInitStruct->PLL.PLLSource,
 8004144:	400a      	ands	r2, r1
 8004146:	4313      	orrs	r3, r2
 8004148:	6ae2      	ldr	r2, [r4, #44]	@ 0x2c
 800414a:	4313      	orrs	r3, r2
 800414c:	6b22      	ldr	r2, [r4, #48]	@ 0x30
 800414e:	4313      	orrs	r3, r2
 8004150:	6b62      	ldr	r2, [r4, #52]	@ 0x34
 8004152:	4313      	orrs	r3, r2
 8004154:	6aa2      	ldr	r2, [r4, #40]	@ 0x28
 8004156:	0212      	lsls	r2, r2, #8
 8004158:	4313      	orrs	r3, r2
 800415a:	60eb      	str	r3, [r5, #12]
        __HAL_RCC_PLL_ENABLE();
 800415c:	2380      	movs	r3, #128	@ 0x80
 800415e:	682a      	ldr	r2, [r5, #0]
 8004160:	045b      	lsls	r3, r3, #17
 8004162:	4313      	orrs	r3, r2
 8004164:	602b      	str	r3, [r5, #0]
        __HAL_RCC_PLLCLKOUT_ENABLE(RCC_PLLRCLK);
 8004166:	2380      	movs	r3, #128	@ 0x80
 8004168:	68ea      	ldr	r2, [r5, #12]
 800416a:	055b      	lsls	r3, r3, #21
 800416c:	4313      	orrs	r3, r2
 800416e:	60eb      	str	r3, [r5, #12]
        tickstart = HAL_GetTick();
 8004170:	f7fe fa5a 	bl	8002628 <HAL_GetTick>
        while (READ_BIT(RCC->CR, RCC_CR_PLLRDY) == 0U)
 8004174:	2580      	movs	r5, #128	@ 0x80
        tickstart = HAL_GetTick();
 8004176:	0004      	movs	r4, r0
        while (READ_BIT(RCC->CR, RCC_CR_PLLRDY) == 0U)
 8004178:	04ad      	lsls	r5, r5, #18
 800417a:	e005      	b.n	8004188 <HAL_RCC_OscConfig+0x490>
          if ((HAL_GetTick() - tickstart) > PLL_TIMEOUT_VALUE)
 800417c:	f7fe fa54 	bl	8002628 <HAL_GetTick>
 8004180:	1b00      	subs	r0, r0, r4
 8004182:	2802      	cmp	r0, #2
 8004184:	d900      	bls.n	8004188 <HAL_RCC_OscConfig+0x490>
 8004186:	e73a      	b.n	8003ffe <HAL_RCC_OscConfig+0x306>
        while (READ_BIT(RCC->CR, RCC_CR_PLLRDY) == 0U)
 8004188:	6833      	ldr	r3, [r6, #0]
 800418a:	422b      	tst	r3, r5
 800418c:	d0f6      	beq.n	800417c <HAL_RCC_OscConfig+0x484>
  return HAL_OK;
 800418e:	2000      	movs	r0, #0
 8004190:	e5e3      	b.n	8003d5a <HAL_RCC_OscConfig+0x62>
      __HAL_RCC_LSE_CONFIG(RCC_OscInitStruct->LSEState);
 8004192:	2104      	movs	r1, #4
 8004194:	4b07      	ldr	r3, [pc, #28]	@ (80041b4 <HAL_RCC_OscConfig+0x4bc>)
 8004196:	6dda      	ldr	r2, [r3, #92]	@ 0x5c
 8004198:	430a      	orrs	r2, r1
 800419a:	65da      	str	r2, [r3, #92]	@ 0x5c
 800419c:	6dda      	ldr	r2, [r3, #92]	@ 0x5c
 800419e:	3903      	subs	r1, #3
 80041a0:	430a      	orrs	r2, r1
 80041a2:	65da      	str	r2, [r3, #92]	@ 0x5c
      if (RCC_OscInitStruct->LSEState != RCC_LSE_OFF)
 80041a4:	e70a      	b.n	8003fbc <HAL_RCC_OscConfig+0x2c4>
      if ((READ_BIT(RCC->CR, RCC_CR_HSIRDY) != 0U) && (RCC_OscInitStruct->HSIState == RCC_HSI_OFF))
 80041a6:	68e3      	ldr	r3, [r4, #12]
 80041a8:	2b00      	cmp	r3, #0
 80041aa:	d1a4      	bne.n	80040f6 <HAL_RCC_OscConfig+0x3fe>
 80041ac:	e5d4      	b.n	8003d58 <HAL_RCC_OscConfig+0x60>
 80041ae:	46c0      	nop			@ (mov r8, r8)
 80041b0:	fffffeff 	.word	0xfffffeff
 80041b4:	40021000 	.word	0x40021000
 80041b8:	ffff80ff 	.word	0xffff80ff
 80041bc:	efffffff 	.word	0xefffffff
 80041c0:	feffffff 	.word	0xfeffffff
 80041c4:	11c1808c 	.word	0x11c1808c

080041c8 <HAL_RCC_GetSysClockFreq>:
uint32_t HAL_RCC_GetSysClockFreq(void)
{
  uint32_t pllvco, pllsource, pllr, pllm, hsidiv;
  uint32_t sysclockfreq;

  if (__HAL_RCC_GET_SYSCLK_SOURCE() == RCC_SYSCLKSOURCE_STATUS_HSI)
 80041c8:	2338      	movs	r3, #56	@ 0x38
 80041ca:	4a22      	ldr	r2, [pc, #136]	@ (8004254 <HAL_RCC_GetSysClockFreq+0x8c>)
{
 80041cc:	b510      	push	{r4, lr}
  if (__HAL_RCC_GET_SYSCLK_SOURCE() == RCC_SYSCLKSOURCE_STATUS_HSI)
 80041ce:	6891      	ldr	r1, [r2, #8]
 80041d0:	420b      	tst	r3, r1
 80041d2:	d105      	bne.n	80041e0 <HAL_RCC_GetSysClockFreq+0x18>
  {
    /* HSISYS can be derived for HSI16 */
    hsidiv = (1UL << ((READ_BIT(RCC->CR, RCC_CR_HSIDIV)) >> RCC_CR_HSIDIV_Pos));
 80041d4:	6813      	ldr	r3, [r2, #0]

    /* HSI used as system clock source */
    sysclockfreq = (HSI_VALUE / hsidiv);
 80041d6:	4820      	ldr	r0, [pc, #128]	@ (8004258 <HAL_RCC_GetSysClockFreq+0x90>)
    hsidiv = (1UL << ((READ_BIT(RCC->CR, RCC_CR_HSIDIV)) >> RCC_CR_HSIDIV_Pos));
 80041d8:	049b      	lsls	r3, r3, #18
 80041da:	0f5b      	lsrs	r3, r3, #29
    sysclockfreq = (HSI_VALUE / hsidiv);
 80041dc:	40d8      	lsrs	r0, r3
  {
    sysclockfreq = 0U;
  }

  return sysclockfreq;
}
 80041de:	bd10      	pop	{r4, pc}
  else if (__HAL_RCC_GET_SYSCLK_SOURCE() == RCC_SYSCLKSOURCE_STATUS_HSE)
 80041e0:	6891      	ldr	r1, [r2, #8]
 80041e2:	4019      	ands	r1, r3
 80041e4:	2908      	cmp	r1, #8
 80041e6:	d014      	beq.n	8004212 <HAL_RCC_GetSysClockFreq+0x4a>
  else if (__HAL_RCC_GET_SYSCLK_SOURCE() == RCC_SYSCLKSOURCE_STATUS_PLLCLK)
 80041e8:	6891      	ldr	r1, [r2, #8]
 80041ea:	4019      	ands	r1, r3
 80041ec:	2910      	cmp	r1, #16
 80041ee:	d012      	beq.n	8004216 <HAL_RCC_GetSysClockFreq+0x4e>
  else if (__HAL_RCC_GET_SYSCLK_SOURCE() == RCC_SYSCLKSOURCE_STATUS_LSE)
 80041f0:	6891      	ldr	r1, [r2, #8]
 80041f2:	4019      	ands	r1, r3
 80041f4:	2920      	cmp	r1, #32
 80041f6:	d024      	beq.n	8004242 <HAL_RCC_GetSysClockFreq+0x7a>
  else if (__HAL_RCC_GET_SYSCLK_SOURCE() == RCC_SYSCLKSOURCE_STATUS_LSI)
 80041f8:	6890      	ldr	r0, [r2, #8]
 80041fa:	4018      	ands	r0, r3
    sysclockfreq = LSI_VALUE;
 80041fc:	3818      	subs	r0, #24
 80041fe:	1e43      	subs	r3, r0, #1
 8004200:	4198      	sbcs	r0, r3
 8004202:	4b16      	ldr	r3, [pc, #88]	@ (800425c <HAL_RCC_GetSysClockFreq+0x94>)
 8004204:	4240      	negs	r0, r0
 8004206:	4018      	ands	r0, r3
 8004208:	23fa      	movs	r3, #250	@ 0xfa
 800420a:	01db      	lsls	r3, r3, #7
 800420c:	469c      	mov	ip, r3
 800420e:	4460      	add	r0, ip
 8004210:	e7e5      	b.n	80041de <HAL_RCC_GetSysClockFreq+0x16>
    sysclockfreq = HSE_VALUE;
 8004212:	4813      	ldr	r0, [pc, #76]	@ (8004260 <HAL_RCC_GetSysClockFreq+0x98>)
 8004214:	e7e3      	b.n	80041de <HAL_RCC_GetSysClockFreq+0x16>
    pllsource = (RCC->PLLCFGR & RCC_PLLCFGR_PLLSRC);
 8004216:	68d3      	ldr	r3, [r2, #12]
    pllm = ((RCC->PLLCFGR & RCC_PLLCFGR_PLLM) >> RCC_PLLCFGR_PLLM_Pos) + 1U ;
 8004218:	68d1      	ldr	r1, [r2, #12]
    pllsource = (RCC->PLLCFGR & RCC_PLLCFGR_PLLSRC);
 800421a:	43db      	mvns	r3, r3
        pllvco = (HSI_VALUE / pllm) * ((RCC->PLLCFGR & RCC_PLLCFGR_PLLN) >> RCC_PLLCFGR_PLLN_Pos) ;
 800421c:	68d4      	ldr	r4, [r2, #12]
    pllm = ((RCC->PLLCFGR & RCC_PLLCFGR_PLLM) >> RCC_PLLCFGR_PLLM_Pos) + 1U ;
 800421e:	0649      	lsls	r1, r1, #25
 8004220:	0f49      	lsrs	r1, r1, #29
        pllvco = (HSI_VALUE / pllm) * ((RCC->PLLCFGR & RCC_PLLCFGR_PLLN) >> RCC_PLLCFGR_PLLN_Pos) ;
 8004222:	0464      	lsls	r4, r4, #17
    pllm = ((RCC->PLLCFGR & RCC_PLLCFGR_PLLM) >> RCC_PLLCFGR_PLLM_Pos) + 1U ;
 8004224:	3101      	adds	r1, #1
        pllvco = (HSI_VALUE / pllm) * ((RCC->PLLCFGR & RCC_PLLCFGR_PLLN) >> RCC_PLLCFGR_PLLN_Pos) ;
 8004226:	0e64      	lsrs	r4, r4, #25
    switch (pllsource)
 8004228:	079b      	lsls	r3, r3, #30
 800422a:	d00d      	beq.n	8004248 <HAL_RCC_GetSysClockFreq+0x80>
        pllvco = (HSI_VALUE / pllm) * ((RCC->PLLCFGR & RCC_PLLCFGR_PLLN) >> RCC_PLLCFGR_PLLN_Pos) ;
 800422c:	480a      	ldr	r0, [pc, #40]	@ (8004258 <HAL_RCC_GetSysClockFreq+0x90>)
 800422e:	f7fb ff69 	bl	8000104 <__udivsi3>
 8004232:	4360      	muls	r0, r4
    pllr = (((RCC->PLLCFGR & RCC_PLLCFGR_PLLR) >> RCC_PLLCFGR_PLLR_Pos) + 1U);
 8004234:	4b07      	ldr	r3, [pc, #28]	@ (8004254 <HAL_RCC_GetSysClockFreq+0x8c>)
 8004236:	68d9      	ldr	r1, [r3, #12]
 8004238:	0f49      	lsrs	r1, r1, #29
 800423a:	3101      	adds	r1, #1
    sysclockfreq = pllvco / pllr;
 800423c:	f7fb ff62 	bl	8000104 <__udivsi3>
  return sysclockfreq;
 8004240:	e7cd      	b.n	80041de <HAL_RCC_GetSysClockFreq+0x16>
    sysclockfreq = LSE_VALUE;
 8004242:	2080      	movs	r0, #128	@ 0x80
 8004244:	0200      	lsls	r0, r0, #8
 8004246:	e7ca      	b.n	80041de <HAL_RCC_GetSysClockFreq+0x16>
        pllvco = (HSE_VALUE / pllm) * ((RCC->PLLCFGR & RCC_PLLCFGR_PLLN) >> RCC_PLLCFGR_PLLN_Pos);
 8004248:	4805      	ldr	r0, [pc, #20]	@ (8004260 <HAL_RCC_GetSysClockFreq+0x98>)
 800424a:	f7fb ff5b 	bl	8000104 <__udivsi3>
 800424e:	4360      	muls	r0, r4
        break;
 8004250:	e7f0      	b.n	8004234 <HAL_RCC_GetSysClockFreq+0x6c>
 8004252:	46c0      	nop			@ (mov r8, r8)
 8004254:	40021000 	.word	0x40021000
 8004258:	00f42400 	.word	0x00f42400
 800425c:	ffff8300 	.word	0xffff8300
 8004260:	007a1200 	.word	0x007a1200

08004264 <HAL_RCC_ClockConfig>:
{
 8004264:	b5f8      	push	{r3, r4, r5, r6, r7, lr}
 8004266:	46ce      	mov	lr, r9
 8004268:	4647      	mov	r7, r8
 800426a:	0005      	movs	r5, r0
 800426c:	000c      	movs	r4, r1
 800426e:	b580      	push	{r7, lr}
  if (RCC_ClkInitStruct == NULL)
 8004270:	2800      	cmp	r0, #0
 8004272:	d026      	beq.n	80042c2 <HAL_RCC_ClockConfig+0x5e>
  if (FLatency > __HAL_FLASH_GET_LATENCY())
 8004274:	2207      	movs	r2, #7
 8004276:	4e57      	ldr	r6, [pc, #348]	@ (80043d4 <HAL_RCC_ClockConfig+0x170>)
 8004278:	6833      	ldr	r3, [r6, #0]
 800427a:	4013      	ands	r3, r2
 800427c:	428b      	cmp	r3, r1
 800427e:	d35e      	bcc.n	800433e <HAL_RCC_ClockConfig+0xda>
  if (((RCC_ClkInitStruct->ClockType) & RCC_CLOCKTYPE_HCLK) == RCC_CLOCKTYPE_HCLK)
 8004280:	682b      	ldr	r3, [r5, #0]
 8004282:	079a      	lsls	r2, r3, #30
 8004284:	d50e      	bpl.n	80042a4 <HAL_RCC_ClockConfig+0x40>
    if (((RCC_ClkInitStruct->ClockType) & RCC_CLOCKTYPE_PCLK1) == RCC_CLOCKTYPE_PCLK1)
 8004286:	075a      	lsls	r2, r3, #29
 8004288:	d505      	bpl.n	8004296 <HAL_RCC_ClockConfig+0x32>
      MODIFY_REG(RCC->CFGR, RCC_CFGR_PPRE, RCC_HCLK_DIV16);
 800428a:	22e0      	movs	r2, #224	@ 0xe0
 800428c:	4952      	ldr	r1, [pc, #328]	@ (80043d8 <HAL_RCC_ClockConfig+0x174>)
 800428e:	01d2      	lsls	r2, r2, #7
 8004290:	6888      	ldr	r0, [r1, #8]
 8004292:	4302      	orrs	r2, r0
 8004294:	608a      	str	r2, [r1, #8]
    MODIFY_REG(RCC->CFGR, RCC_CFGR_HPRE, RCC_ClkInitStruct->AHBCLKDivider);
 8004296:	4950      	ldr	r1, [pc, #320]	@ (80043d8 <HAL_RCC_ClockConfig+0x174>)
 8004298:	4850      	ldr	r0, [pc, #320]	@ (80043dc <HAL_RCC_ClockConfig+0x178>)
 800429a:	688a      	ldr	r2, [r1, #8]
 800429c:	4002      	ands	r2, r0
 800429e:	68a8      	ldr	r0, [r5, #8]
 80042a0:	4302      	orrs	r2, r0
 80042a2:	608a      	str	r2, [r1, #8]
  if (((RCC_ClkInitStruct->ClockType) & RCC_CLOCKTYPE_SYSCLK) == RCC_CLOCKTYPE_SYSCLK)
 80042a4:	07db      	lsls	r3, r3, #31
 80042a6:	d52b      	bpl.n	8004300 <HAL_RCC_ClockConfig+0x9c>
    if (RCC_ClkInitStruct->SYSCLKSource == RCC_SYSCLKSOURCE_HSE)
 80042a8:	686b      	ldr	r3, [r5, #4]
      if (READ_BIT(RCC->CR, RCC_CR_HSERDY) == 0U)
 80042aa:	4a4b      	ldr	r2, [pc, #300]	@ (80043d8 <HAL_RCC_ClockConfig+0x174>)
    if (RCC_ClkInitStruct->SYSCLKSource == RCC_SYSCLKSOURCE_HSE)
 80042ac:	2b01      	cmp	r3, #1
 80042ae:	d100      	bne.n	80042b2 <HAL_RCC_ClockConfig+0x4e>
 80042b0:	e07c      	b.n	80043ac <HAL_RCC_ClockConfig+0x148>
    else if (RCC_ClkInitStruct->SYSCLKSource == RCC_SYSCLKSOURCE_PLLCLK)
 80042b2:	2b02      	cmp	r3, #2
 80042b4:	d007      	beq.n	80042c6 <HAL_RCC_ClockConfig+0x62>
    else if (RCC_ClkInitStruct->SYSCLKSource == RCC_SYSCLKSOURCE_HSI)
 80042b6:	2b00      	cmp	r3, #0
 80042b8:	d000      	beq.n	80042bc <HAL_RCC_ClockConfig+0x58>
 80042ba:	e07d      	b.n	80043b8 <HAL_RCC_ClockConfig+0x154>
      if (READ_BIT(RCC->CR, RCC_CR_HSIRDY) == 0U)
 80042bc:	6812      	ldr	r2, [r2, #0]
 80042be:	0552      	lsls	r2, r2, #21
 80042c0:	d404      	bmi.n	80042cc <HAL_RCC_ClockConfig+0x68>
    return HAL_ERROR;
 80042c2:	2001      	movs	r0, #1
 80042c4:	e037      	b.n	8004336 <HAL_RCC_ClockConfig+0xd2>
      if (READ_BIT(RCC->CR, RCC_CR_PLLRDY) == 0U)
 80042c6:	6812      	ldr	r2, [r2, #0]
 80042c8:	0192      	lsls	r2, r2, #6
 80042ca:	d5fa      	bpl.n	80042c2 <HAL_RCC_ClockConfig+0x5e>
    MODIFY_REG(RCC->CFGR, RCC_CFGR_SW, RCC_ClkInitStruct->SYSCLKSource);
 80042cc:	2107      	movs	r1, #7
 80042ce:	4e42      	ldr	r6, [pc, #264]	@ (80043d8 <HAL_RCC_ClockConfig+0x174>)
 80042d0:	68b2      	ldr	r2, [r6, #8]
 80042d2:	438a      	bics	r2, r1
 80042d4:	4313      	orrs	r3, r2
 80042d6:	60b3      	str	r3, [r6, #8]
    tickstart = HAL_GetTick();
 80042d8:	f7fe f9a6 	bl	8002628 <HAL_GetTick>
    while (__HAL_RCC_GET_SYSCLK_SOURCE() != (RCC_ClkInitStruct->SYSCLKSource << RCC_CFGR_SWS_Pos))
 80042dc:	2338      	movs	r3, #56	@ 0x38
 80042de:	4698      	mov	r8, r3
      if ((HAL_GetTick() - tickstart) > CLOCKSWITCH_TIMEOUT_VALUE)
 80042e0:	4b3f      	ldr	r3, [pc, #252]	@ (80043e0 <HAL_RCC_ClockConfig+0x17c>)
    tickstart = HAL_GetTick();
 80042e2:	0007      	movs	r7, r0
      if ((HAL_GetTick() - tickstart) > CLOCKSWITCH_TIMEOUT_VALUE)
 80042e4:	4699      	mov	r9, r3
    while (__HAL_RCC_GET_SYSCLK_SOURCE() != (RCC_ClkInitStruct->SYSCLKSource << RCC_CFGR_SWS_Pos))
 80042e6:	e004      	b.n	80042f2 <HAL_RCC_ClockConfig+0x8e>
      if ((HAL_GetTick() - tickstart) > CLOCKSWITCH_TIMEOUT_VALUE)
 80042e8:	f7fe f99e 	bl	8002628 <HAL_GetTick>
 80042ec:	1bc0      	subs	r0, r0, r7
 80042ee:	4548      	cmp	r0, r9
 80042f0:	d83b      	bhi.n	800436a <HAL_RCC_ClockConfig+0x106>
    while (__HAL_RCC_GET_SYSCLK_SOURCE() != (RCC_ClkInitStruct->SYSCLKSource << RCC_CFGR_SWS_Pos))
 80042f2:	4643      	mov	r3, r8
 80042f4:	68b2      	ldr	r2, [r6, #8]
 80042f6:	401a      	ands	r2, r3
 80042f8:	686b      	ldr	r3, [r5, #4]
 80042fa:	00db      	lsls	r3, r3, #3
 80042fc:	429a      	cmp	r2, r3
 80042fe:	d1f3      	bne.n	80042e8 <HAL_RCC_ClockConfig+0x84>
  if (FLatency < __HAL_FLASH_GET_LATENCY())
 8004300:	2207      	movs	r2, #7
 8004302:	4e34      	ldr	r6, [pc, #208]	@ (80043d4 <HAL_RCC_ClockConfig+0x170>)
 8004304:	6833      	ldr	r3, [r6, #0]
 8004306:	4013      	ands	r3, r2
 8004308:	42a3      	cmp	r3, r4
 800430a:	d838      	bhi.n	800437e <HAL_RCC_ClockConfig+0x11a>
  if (((RCC_ClkInitStruct->ClockType) & RCC_CLOCKTYPE_PCLK1) == RCC_CLOCKTYPE_PCLK1)
 800430c:	682b      	ldr	r3, [r5, #0]
 800430e:	075b      	lsls	r3, r3, #29
 8004310:	d42d      	bmi.n	800436e <HAL_RCC_ClockConfig+0x10a>
  SystemCoreClock = (HAL_RCC_GetSysClockFreq() >> ((AHBPrescTable[(RCC->CFGR & RCC_CFGR_HPRE) >> RCC_CFGR_HPRE_Pos]) & 0x1FU));
 8004312:	f7ff ff59 	bl	80041c8 <HAL_RCC_GetSysClockFreq>
 8004316:	4b30      	ldr	r3, [pc, #192]	@ (80043d8 <HAL_RCC_ClockConfig+0x174>)
 8004318:	4a32      	ldr	r2, [pc, #200]	@ (80043e4 <HAL_RCC_ClockConfig+0x180>)
 800431a:	689b      	ldr	r3, [r3, #8]
 800431c:	4932      	ldr	r1, [pc, #200]	@ (80043e8 <HAL_RCC_ClockConfig+0x184>)
 800431e:	051b      	lsls	r3, r3, #20
 8004320:	0f1b      	lsrs	r3, r3, #28
 8004322:	009b      	lsls	r3, r3, #2
 8004324:	589b      	ldr	r3, [r3, r2]
 8004326:	221f      	movs	r2, #31
 8004328:	4013      	ands	r3, r2
 800432a:	40d8      	lsrs	r0, r3
  return HAL_InitTick(uwTickPrio);
 800432c:	4b2f      	ldr	r3, [pc, #188]	@ (80043ec <HAL_RCC_ClockConfig+0x188>)
  SystemCoreClock = (HAL_RCC_GetSysClockFreq() >> ((AHBPrescTable[(RCC->CFGR & RCC_CFGR_HPRE) >> RCC_CFGR_HPRE_Pos]) & 0x1FU));
 800432e:	6008      	str	r0, [r1, #0]
  return HAL_InitTick(uwTickPrio);
 8004330:	6818      	ldr	r0, [r3, #0]
 8004332:	f7fe f933 	bl	800259c <HAL_InitTick>
}
 8004336:	bcc0      	pop	{r6, r7}
 8004338:	46b9      	mov	r9, r7
 800433a:	46b0      	mov	r8, r6
 800433c:	bdf8      	pop	{r3, r4, r5, r6, r7, pc}
    __HAL_FLASH_SET_LATENCY(FLatency);
 800433e:	6833      	ldr	r3, [r6, #0]
 8004340:	4393      	bics	r3, r2
 8004342:	430b      	orrs	r3, r1
 8004344:	6033      	str	r3, [r6, #0]
    tickstart = HAL_GetTick();
 8004346:	f7fe f96f 	bl	8002628 <HAL_GetTick>
    while ((FLASH->ACR & FLASH_ACR_LATENCY) != FLatency)
 800434a:	2307      	movs	r3, #7
 800434c:	4698      	mov	r8, r3
      if ((HAL_GetTick() - tickstart) > CLOCKSWITCH_TIMEOUT_VALUE)
 800434e:	4b24      	ldr	r3, [pc, #144]	@ (80043e0 <HAL_RCC_ClockConfig+0x17c>)
    tickstart = HAL_GetTick();
 8004350:	0007      	movs	r7, r0
      if ((HAL_GetTick() - tickstart) > CLOCKSWITCH_TIMEOUT_VALUE)
 8004352:	4699      	mov	r9, r3
    while ((FLASH->ACR & FLASH_ACR_LATENCY) != FLatency)
 8004354:	4642      	mov	r2, r8
 8004356:	6833      	ldr	r3, [r6, #0]
 8004358:	4013      	ands	r3, r2
 800435a:	42a3      	cmp	r3, r4
 800435c:	d100      	bne.n	8004360 <HAL_RCC_ClockConfig+0xfc>
 800435e:	e78f      	b.n	8004280 <HAL_RCC_ClockConfig+0x1c>
      if ((HAL_GetTick() - tickstart) > CLOCKSWITCH_TIMEOUT_VALUE)
 8004360:	f7fe f962 	bl	8002628 <HAL_GetTick>
 8004364:	1bc0      	subs	r0, r0, r7
 8004366:	4548      	cmp	r0, r9
 8004368:	d9f4      	bls.n	8004354 <HAL_RCC_ClockConfig+0xf0>
        return HAL_TIMEOUT;
 800436a:	2003      	movs	r0, #3
 800436c:	e7e3      	b.n	8004336 <HAL_RCC_ClockConfig+0xd2>
    MODIFY_REG(RCC->CFGR, RCC_CFGR_PPRE, RCC_ClkInitStruct->APB1CLKDivider);
 800436e:	4a1a      	ldr	r2, [pc, #104]	@ (80043d8 <HAL_RCC_ClockConfig+0x174>)
 8004370:	491f      	ldr	r1, [pc, #124]	@ (80043f0 <HAL_RCC_ClockConfig+0x18c>)
 8004372:	6893      	ldr	r3, [r2, #8]
 8004374:	400b      	ands	r3, r1
 8004376:	68e9      	ldr	r1, [r5, #12]
 8004378:	430b      	orrs	r3, r1
 800437a:	6093      	str	r3, [r2, #8]
 800437c:	e7c9      	b.n	8004312 <HAL_RCC_ClockConfig+0xae>
    __HAL_FLASH_SET_LATENCY(FLatency);
 800437e:	6833      	ldr	r3, [r6, #0]
 8004380:	4393      	bics	r3, r2
 8004382:	4323      	orrs	r3, r4
 8004384:	6033      	str	r3, [r6, #0]
    tickstart = HAL_GetTick();
 8004386:	f7fe f94f 	bl	8002628 <HAL_GetTick>
    while ((FLASH->ACR & FLASH_ACR_LATENCY) != FLatency)
 800438a:	2307      	movs	r3, #7
 800438c:	4698      	mov	r8, r3
      if ((HAL_GetTick() - tickstart) > CLOCKSWITCH_TIMEOUT_VALUE)
 800438e:	4b14      	ldr	r3, [pc, #80]	@ (80043e0 <HAL_RCC_ClockConfig+0x17c>)
    tickstart = HAL_GetTick();
 8004390:	0007      	movs	r7, r0
      if ((HAL_GetTick() - tickstart) > CLOCKSWITCH_TIMEOUT_VALUE)
 8004392:	4699      	mov	r9, r3
    while ((FLASH->ACR & FLASH_ACR_LATENCY) != FLatency)
 8004394:	4642      	mov	r2, r8
 8004396:	6833      	ldr	r3, [r6, #0]
 8004398:	4013      	ands	r3, r2
 800439a:	42a3      	cmp	r3, r4
 800439c:	d0b6      	beq.n	800430c <HAL_RCC_ClockConfig+0xa8>
      if ((HAL_GetTick() - tickstart) > CLOCKSWITCH_TIMEOUT_VALUE)
 800439e:	f7fe f943 	bl	8002628 <HAL_GetTick>
 80043a2:	1bc0      	subs	r0, r0, r7
 80043a4:	4548      	cmp	r0, r9
 80043a6:	d9f5      	bls.n	8004394 <HAL_RCC_ClockConfig+0x130>
        return HAL_TIMEOUT;
 80043a8:	2003      	movs	r0, #3
 80043aa:	e7c4      	b.n	8004336 <HAL_RCC_ClockConfig+0xd2>
      if (READ_BIT(RCC->CR, RCC_CR_HSERDY) == 0U)
 80043ac:	6812      	ldr	r2, [r2, #0]
 80043ae:	0392      	lsls	r2, r2, #14
 80043b0:	d500      	bpl.n	80043b4 <HAL_RCC_ClockConfig+0x150>
 80043b2:	e78b      	b.n	80042cc <HAL_RCC_ClockConfig+0x68>
    return HAL_ERROR;
 80043b4:	2001      	movs	r0, #1
 80043b6:	e7be      	b.n	8004336 <HAL_RCC_ClockConfig+0xd2>
    else if (RCC_ClkInitStruct->SYSCLKSource == RCC_SYSCLKSOURCE_LSI)
 80043b8:	2b03      	cmp	r3, #3
 80043ba:	d005      	beq.n	80043c8 <HAL_RCC_ClockConfig+0x164>
      if (READ_BIT(RCC->BDCR, RCC_BDCR_LSERDY) == 0U)
 80043bc:	6dd2      	ldr	r2, [r2, #92]	@ 0x5c
 80043be:	0792      	lsls	r2, r2, #30
 80043c0:	d500      	bpl.n	80043c4 <HAL_RCC_ClockConfig+0x160>
 80043c2:	e783      	b.n	80042cc <HAL_RCC_ClockConfig+0x68>
    return HAL_ERROR;
 80043c4:	2001      	movs	r0, #1
 80043c6:	e7b6      	b.n	8004336 <HAL_RCC_ClockConfig+0xd2>
      if (READ_BIT(RCC->CSR, RCC_CSR_LSIRDY) == 0U)
 80043c8:	6e12      	ldr	r2, [r2, #96]	@ 0x60
 80043ca:	0792      	lsls	r2, r2, #30
 80043cc:	d500      	bpl.n	80043d0 <HAL_RCC_ClockConfig+0x16c>
 80043ce:	e77d      	b.n	80042cc <HAL_RCC_ClockConfig+0x68>
    return HAL_ERROR;
 80043d0:	2001      	movs	r0, #1
 80043d2:	e7b0      	b.n	8004336 <HAL_RCC_ClockConfig+0xd2>
 80043d4:	40022000 	.word	0x40022000
 80043d8:	40021000 	.word	0x40021000
 80043dc:	fffff0ff 	.word	0xfffff0ff
 80043e0:	00001388 	.word	0x00001388
 80043e4:	08007548 	.word	0x08007548
 80043e8:	20000008 	.word	0x20000008
 80043ec:	20000010 	.word	0x20000010
 80043f0:	ffff8fff 	.word	0xffff8fff

080043f4 <HAL_RCC_GetPCLK1Freq>:
  *         @arg @ref LL_RCC_APB1_DIV_8
  *         @arg @ref LL_RCC_APB1_DIV_16
  */
__STATIC_INLINE uint32_t LL_RCC_GetAPB1Prescaler(void)
{
  return (uint32_t)(READ_BIT(RCC->CFGR, RCC_CFGR_PPRE));
 80043f4:	4b06      	ldr	r3, [pc, #24]	@ (8004410 <HAL_RCC_GetPCLK1Freq+0x1c>)
  * @retval PCLK1 frequency in Hz
  */
uint32_t HAL_RCC_GetPCLK1Freq(void)
{
  /* Get HCLK source and Compute PCLK1 frequency ---------------------------*/
  return ((uint32_t)(__LL_RCC_CALC_PCLK1_FREQ(HAL_RCC_GetHCLKFreq(), LL_RCC_GetAPB1Prescaler())));
 80043f6:	4907      	ldr	r1, [pc, #28]	@ (8004414 <HAL_RCC_GetPCLK1Freq+0x20>)
 80043f8:	689b      	ldr	r3, [r3, #8]
  return SystemCoreClock;
 80043fa:	4a07      	ldr	r2, [pc, #28]	@ (8004418 <HAL_RCC_GetPCLK1Freq+0x24>)
  return ((uint32_t)(__LL_RCC_CALC_PCLK1_FREQ(HAL_RCC_GetHCLKFreq(), LL_RCC_GetAPB1Prescaler())));
 80043fc:	045b      	lsls	r3, r3, #17
 80043fe:	0f5b      	lsrs	r3, r3, #29
 8004400:	009b      	lsls	r3, r3, #2
 8004402:	585b      	ldr	r3, [r3, r1]
 8004404:	211f      	movs	r1, #31
 8004406:	6810      	ldr	r0, [r2, #0]
 8004408:	400b      	ands	r3, r1
 800440a:	40d8      	lsrs	r0, r3
}
 800440c:	4770      	bx	lr
 800440e:	46c0      	nop			@ (mov r8, r8)
 8004410:	40021000 	.word	0x40021000
 8004414:	08007528 	.word	0x08007528
 8004418:	20000008 	.word	0x20000008

0800441c <HAL_RCCEx_PeriphCLKConfig>:
  *         the RTC clock source: in this case the access to Backup domain is enabled.
  *
  * @retval HAL status
  */
HAL_StatusTypeDef HAL_RCCEx_PeriphCLKConfig(RCC_PeriphCLKInitTypeDef  *PeriphClkInit)
{
 800441c:	b5f0      	push	{r4, r5, r6, r7, lr}
 800441e:	46d6      	mov	lr, sl
 8004420:	464f      	mov	r7, r9
 8004422:	4646      	mov	r6, r8
 8004424:	b5c0      	push	{r6, r7, lr}

  /* Check the parameters */
  assert_param(IS_RCC_PERIPHCLOCK(PeriphClkInit->PeriphClockSelection));

  /*-------------------------- RTC clock source configuration ----------------------*/
  if ((PeriphClkInit->PeriphClockSelection & RCC_PERIPHCLK_RTC) == RCC_PERIPHCLK_RTC)
 8004426:	6803      	ldr	r3, [r0, #0]
{
 8004428:	0004      	movs	r4, r0
 800442a:	b082      	sub	sp, #8
  HAL_StatusTypeDef status = HAL_OK;   /* Final status */
 800442c:	2000      	movs	r0, #0
  if ((PeriphClkInit->PeriphClockSelection & RCC_PERIPHCLK_RTC) == RCC_PERIPHCLK_RTC)
 800442e:	039a      	lsls	r2, r3, #14
 8004430:	d552      	bpl.n	80044d8 <HAL_RCCEx_PeriphCLKConfig+0xbc>

    /* Check for RTC Parameters used to output RTCCLK */
    assert_param(IS_RCC_RTCCLKSOURCE(PeriphClkInit->RTCClockSelection));

    /* Enable Power Clock */
    if (__HAL_RCC_PWR_IS_CLK_DISABLED())
 8004432:	2280      	movs	r2, #128	@ 0x80
 8004434:	4b69      	ldr	r3, [pc, #420]	@ (80045dc <HAL_RCCEx_PeriphCLKConfig+0x1c0>)
 8004436:	0552      	lsls	r2, r2, #21
 8004438:	6bd9      	ldr	r1, [r3, #60]	@ 0x3c
    FlagStatus       pwrclkchanged = RESET;
 800443a:	4682      	mov	sl, r0
    if (__HAL_RCC_PWR_IS_CLK_DISABLED())
 800443c:	4211      	tst	r1, r2
 800443e:	d100      	bne.n	8004442 <HAL_RCCEx_PeriphCLKConfig+0x26>
 8004440:	e0a4      	b.n	800458c <HAL_RCCEx_PeriphCLKConfig+0x170>
      __HAL_RCC_PWR_CLK_ENABLE();
      pwrclkchanged = SET;
    }

    /* Enable write access to Backup domain */
    SET_BIT(PWR->CR1, PWR_CR1_DBP);
 8004442:	2780      	movs	r7, #128	@ 0x80
 8004444:	4d66      	ldr	r5, [pc, #408]	@ (80045e0 <HAL_RCCEx_PeriphCLKConfig+0x1c4>)
 8004446:	007f      	lsls	r7, r7, #1
 8004448:	682b      	ldr	r3, [r5, #0]
 800444a:	433b      	orrs	r3, r7
 800444c:	602b      	str	r3, [r5, #0]

    /* Wait for Backup domain Write protection disable */
    tickstart = HAL_GetTick();
 800444e:	f7fe f8eb 	bl	8002628 <HAL_GetTick>
 8004452:	0006      	movs	r6, r0

    while ((PWR->CR1 & PWR_CR1_DBP) == 0U)
 8004454:	e005      	b.n	8004462 <HAL_RCCEx_PeriphCLKConfig+0x46>
    {
      if ((HAL_GetTick() - tickstart) > RCC_DBP_TIMEOUT_VALUE)
 8004456:	f7fe f8e7 	bl	8002628 <HAL_GetTick>
 800445a:	1b80      	subs	r0, r0, r6
 800445c:	2802      	cmp	r0, #2
 800445e:	d900      	bls.n	8004462 <HAL_RCCEx_PeriphCLKConfig+0x46>
 8004460:	e09e      	b.n	80045a0 <HAL_RCCEx_PeriphCLKConfig+0x184>
    while ((PWR->CR1 & PWR_CR1_DBP) == 0U)
 8004462:	682b      	ldr	r3, [r5, #0]
 8004464:	423b      	tst	r3, r7
 8004466:	d0f6      	beq.n	8004456 <HAL_RCCEx_PeriphCLKConfig+0x3a>
    }

    if (ret == HAL_OK)
    {
      /* Reset the Backup domain only if the RTC Clock source selection is modified from default */
      tmpregister = READ_BIT(RCC->BDCR, RCC_BDCR_RTCSEL);
 8004468:	4d5c      	ldr	r5, [pc, #368]	@ (80045dc <HAL_RCCEx_PeriphCLKConfig+0x1c0>)
 800446a:	23c0      	movs	r3, #192	@ 0xc0
 800446c:	6dea      	ldr	r2, [r5, #92]	@ 0x5c
 800446e:	009b      	lsls	r3, r3, #2
 8004470:	0010      	movs	r0, r2

      /* Reset the Backup domain only if the RTC Clock source selection is modified */
      if ((tmpregister != RCC_RTCCLKSOURCE_NONE) && (tmpregister != PeriphClkInit->RTCClockSelection))
 8004472:	6a61      	ldr	r1, [r4, #36]	@ 0x24
      tmpregister = READ_BIT(RCC->BDCR, RCC_BDCR_RTCSEL);
 8004474:	4018      	ands	r0, r3
      if ((tmpregister != RCC_RTCCLKSOURCE_NONE) && (tmpregister != PeriphClkInit->RTCClockSelection))
 8004476:	421a      	tst	r2, r3
 8004478:	d023      	beq.n	80044c2 <HAL_RCCEx_PeriphCLKConfig+0xa6>
 800447a:	4288      	cmp	r0, r1
 800447c:	d021      	beq.n	80044c2 <HAL_RCCEx_PeriphCLKConfig+0xa6>
      {
        /* Store the content of BDCR register before the reset of Backup Domain */
        tmpregister = READ_BIT(RCC->BDCR, ~(RCC_BDCR_RTCSEL));
        /* RTC Clock selection can be changed only if the Backup Domain is reset */
        __HAL_RCC_BACKUPRESET_FORCE();
 800447e:	2080      	movs	r0, #128	@ 0x80
        tmpregister = READ_BIT(RCC->BDCR, ~(RCC_BDCR_RTCSEL));
 8004480:	6deb      	ldr	r3, [r5, #92]	@ 0x5c
        __HAL_RCC_BACKUPRESET_FORCE();
 8004482:	6dee      	ldr	r6, [r5, #92]	@ 0x5c
 8004484:	0240      	lsls	r0, r0, #9
 8004486:	4330      	orrs	r0, r6
 8004488:	65e8      	str	r0, [r5, #92]	@ 0x5c
        __HAL_RCC_BACKUPRESET_RELEASE();
 800448a:	6de8      	ldr	r0, [r5, #92]	@ 0x5c
        tmpregister = READ_BIT(RCC->BDCR, ~(RCC_BDCR_RTCSEL));
 800448c:	4a55      	ldr	r2, [pc, #340]	@ (80045e4 <HAL_RCCEx_PeriphCLKConfig+0x1c8>)
        __HAL_RCC_BACKUPRESET_RELEASE();
 800448e:	4e56      	ldr	r6, [pc, #344]	@ (80045e8 <HAL_RCCEx_PeriphCLKConfig+0x1cc>)
        tmpregister = READ_BIT(RCC->BDCR, ~(RCC_BDCR_RTCSEL));
 8004490:	401a      	ands	r2, r3
        __HAL_RCC_BACKUPRESET_RELEASE();
 8004492:	4030      	ands	r0, r6
 8004494:	65e8      	str	r0, [r5, #92]	@ 0x5c
        /* Restore the Content of BDCR register */
        RCC->BDCR = tmpregister;
 8004496:	65ea      	str	r2, [r5, #92]	@ 0x5c
      }

      /* Wait for LSE reactivation if LSE was enable prior to Backup Domain reset */
      if (HAL_IS_BIT_SET(tmpregister, RCC_BDCR_LSEON))
 8004498:	07db      	lsls	r3, r3, #31
 800449a:	d512      	bpl.n	80044c2 <HAL_RCCEx_PeriphCLKConfig+0xa6>
      {
        /* Get Start Tick*/
        tickstart = HAL_GetTick();
 800449c:	f7fe f8c4 	bl	8002628 <HAL_GetTick>

        /* Wait till LSE is ready */
        while (READ_BIT(RCC->BDCR, RCC_BDCR_LSERDY) == 0U)
 80044a0:	2302      	movs	r3, #2
 80044a2:	4698      	mov	r8, r3
        {
          if ((HAL_GetTick() - tickstart) > RCC_LSE_TIMEOUT_VALUE)
 80044a4:	4b51      	ldr	r3, [pc, #324]	@ (80045ec <HAL_RCCEx_PeriphCLKConfig+0x1d0>)
        tickstart = HAL_GetTick();
 80044a6:	0006      	movs	r6, r0
          if ((HAL_GetTick() - tickstart) > RCC_LSE_TIMEOUT_VALUE)
 80044a8:	4699      	mov	r9, r3
        while (READ_BIT(RCC->BDCR, RCC_BDCR_LSERDY) == 0U)
 80044aa:	e005      	b.n	80044b8 <HAL_RCCEx_PeriphCLKConfig+0x9c>
          if ((HAL_GetTick() - tickstart) > RCC_LSE_TIMEOUT_VALUE)
 80044ac:	f7fe f8bc 	bl	8002628 <HAL_GetTick>
 80044b0:	1b80      	subs	r0, r0, r6
 80044b2:	4548      	cmp	r0, r9
 80044b4:	d900      	bls.n	80044b8 <HAL_RCCEx_PeriphCLKConfig+0x9c>
 80044b6:	e073      	b.n	80045a0 <HAL_RCCEx_PeriphCLKConfig+0x184>
        while (READ_BIT(RCC->BDCR, RCC_BDCR_LSERDY) == 0U)
 80044b8:	4642      	mov	r2, r8
 80044ba:	6deb      	ldr	r3, [r5, #92]	@ 0x5c
 80044bc:	421a      	tst	r2, r3
 80044be:	d0f5      	beq.n	80044ac <HAL_RCCEx_PeriphCLKConfig+0x90>
      }

      if (ret == HAL_OK)
      {
        /* Apply new RTC clock source selection */
        __HAL_RCC_RTC_CONFIG(PeriphClkInit->RTCClockSelection);
 80044c0:	6a61      	ldr	r1, [r4, #36]	@ 0x24
 80044c2:	4a46      	ldr	r2, [pc, #280]	@ (80045dc <HAL_RCCEx_PeriphCLKConfig+0x1c0>)
 80044c4:	4847      	ldr	r0, [pc, #284]	@ (80045e4 <HAL_RCCEx_PeriphCLKConfig+0x1c8>)
 80044c6:	6dd3      	ldr	r3, [r2, #92]	@ 0x5c
 80044c8:	4003      	ands	r3, r0
 80044ca:	430b      	orrs	r3, r1
 80044cc:	65d3      	str	r3, [r2, #92]	@ 0x5c
      /* set overall return value */
      status = ret;
    }

    /* Restore clock configuration if changed */
    if (pwrclkchanged == SET)
 80044ce:	4652      	mov	r2, sl
  HAL_StatusTypeDef status = HAL_OK;   /* Final status */
 80044d0:	2000      	movs	r0, #0
      __HAL_RCC_PWR_CLK_DISABLE();
    }
  }

  /*-------------------------- USART1 clock source configuration -------------------*/
  if (((PeriphClkInit->PeriphClockSelection) & RCC_PERIPHCLK_USART1) == RCC_PERIPHCLK_USART1)
 80044d2:	6823      	ldr	r3, [r4, #0]
    if (pwrclkchanged == SET)
 80044d4:	2a01      	cmp	r2, #1
 80044d6:	d068      	beq.n	80045aa <HAL_RCCEx_PeriphCLKConfig+0x18e>
  if (((PeriphClkInit->PeriphClockSelection) & RCC_PERIPHCLK_USART1) == RCC_PERIPHCLK_USART1)
 80044d8:	07da      	lsls	r2, r3, #31
 80044da:	d506      	bpl.n	80044ea <HAL_RCCEx_PeriphCLKConfig+0xce>
  {
    /* Check the parameters */
    assert_param(IS_RCC_USART1CLKSOURCE(PeriphClkInit->Usart1ClockSelection));

    /* Configure the USART1 clock source */
    __HAL_RCC_USART1_CONFIG(PeriphClkInit->Usart1ClockSelection);
 80044dc:	2503      	movs	r5, #3
 80044de:	493f      	ldr	r1, [pc, #252]	@ (80045dc <HAL_RCCEx_PeriphCLKConfig+0x1c0>)
 80044e0:	6d4a      	ldr	r2, [r1, #84]	@ 0x54
 80044e2:	43aa      	bics	r2, r5
 80044e4:	6865      	ldr	r5, [r4, #4]
 80044e6:	432a      	orrs	r2, r5
 80044e8:	654a      	str	r2, [r1, #84]	@ 0x54
  }
#endif /* RCC_CCIPR_USART3SEL */

#if defined(LPUART1)
  /*-------------------------- LPUART1 clock source configuration ------------------*/
  if (((PeriphClkInit->PeriphClockSelection) & RCC_PERIPHCLK_LPUART1) == RCC_PERIPHCLK_LPUART1)
 80044ea:	06da      	lsls	r2, r3, #27
 80044ec:	d506      	bpl.n	80044fc <HAL_RCCEx_PeriphCLKConfig+0xe0>
  {
    /* Check the parameters */
    assert_param(IS_RCC_LPUART1CLKSOURCE(PeriphClkInit->Lpuart1ClockSelection));

    /* Configure the LPUART1 clock source */
    __HAL_RCC_LPUART1_CONFIG(PeriphClkInit->Lpuart1ClockSelection);
 80044ee:	493b      	ldr	r1, [pc, #236]	@ (80045dc <HAL_RCCEx_PeriphCLKConfig+0x1c0>)
 80044f0:	4d3f      	ldr	r5, [pc, #252]	@ (80045f0 <HAL_RCCEx_PeriphCLKConfig+0x1d4>)
 80044f2:	6d4a      	ldr	r2, [r1, #84]	@ 0x54
 80044f4:	402a      	ands	r2, r5
 80044f6:	68a5      	ldr	r5, [r4, #8]
 80044f8:	432a      	orrs	r2, r5
 80044fa:	654a      	str	r2, [r1, #84]	@ 0x54
  }
#endif /* LPUART2 */

#if defined(RCC_CCIPR_LPTIM1SEL)
  /*-------------------------- LPTIM1 clock source configuration -------------------*/
  if (((PeriphClkInit->PeriphClockSelection) & RCC_PERIPHCLK_LPTIM1) == (RCC_PERIPHCLK_LPTIM1))
 80044fc:	059a      	lsls	r2, r3, #22
 80044fe:	d506      	bpl.n	800450e <HAL_RCCEx_PeriphCLKConfig+0xf2>
  {
    assert_param(IS_RCC_LPTIM1CLKSOURCE(PeriphClkInit->Lptim1ClockSelection));
    __HAL_RCC_LPTIM1_CONFIG(PeriphClkInit->Lptim1ClockSelection);
 8004500:	4936      	ldr	r1, [pc, #216]	@ (80045dc <HAL_RCCEx_PeriphCLKConfig+0x1c0>)
 8004502:	4d3c      	ldr	r5, [pc, #240]	@ (80045f4 <HAL_RCCEx_PeriphCLKConfig+0x1d8>)
 8004504:	6d4a      	ldr	r2, [r1, #84]	@ 0x54
 8004506:	402a      	ands	r2, r5
 8004508:	6965      	ldr	r5, [r4, #20]
 800450a:	432a      	orrs	r2, r5
 800450c:	654a      	str	r2, [r1, #84]	@ 0x54
  }
#endif /* RCC_CCIPR_LPTIM1SEL */

#if defined(RCC_CCIPR_LPTIM2SEL)
  /*-------------------------- LPTIM2 clock source configuration -------------------*/
  if (((PeriphClkInit->PeriphClockSelection) & RCC_PERIPHCLK_LPTIM2) == (RCC_PERIPHCLK_LPTIM2))
 800450e:	055a      	lsls	r2, r3, #21
 8004510:	d506      	bpl.n	8004520 <HAL_RCCEx_PeriphCLKConfig+0x104>
  {
    assert_param(IS_RCC_LPTIM2CLKSOURCE(PeriphClkInit->Lptim2ClockSelection));
    __HAL_RCC_LPTIM2_CONFIG(PeriphClkInit->Lptim2ClockSelection);
 8004512:	4932      	ldr	r1, [pc, #200]	@ (80045dc <HAL_RCCEx_PeriphCLKConfig+0x1c0>)
 8004514:	4d38      	ldr	r5, [pc, #224]	@ (80045f8 <HAL_RCCEx_PeriphCLKConfig+0x1dc>)
 8004516:	6d4a      	ldr	r2, [r1, #84]	@ 0x54
 8004518:	402a      	ands	r2, r5
 800451a:	69a5      	ldr	r5, [r4, #24]
 800451c:	432a      	orrs	r2, r5
 800451e:	654a      	str	r2, [r1, #84]	@ 0x54
  }
#endif /* RCC_CCIPR_LPTIM2SEL */

  /*-------------------------- I2C1 clock source configuration ---------------------*/
  if (((PeriphClkInit->PeriphClockSelection) & RCC_PERIPHCLK_I2C1) == RCC_PERIPHCLK_I2C1)
 8004520:	069a      	lsls	r2, r3, #26
 8004522:	d506      	bpl.n	8004532 <HAL_RCCEx_PeriphCLKConfig+0x116>
  {
    /* Check the parameters */
    assert_param(IS_RCC_I2C1CLKSOURCE(PeriphClkInit->I2c1ClockSelection));

    /* Configure the I2C1 clock source */
    __HAL_RCC_I2C1_CONFIG(PeriphClkInit->I2c1ClockSelection);
 8004524:	492d      	ldr	r1, [pc, #180]	@ (80045dc <HAL_RCCEx_PeriphCLKConfig+0x1c0>)
 8004526:	4d35      	ldr	r5, [pc, #212]	@ (80045fc <HAL_RCCEx_PeriphCLKConfig+0x1e0>)
 8004528:	6d4a      	ldr	r2, [r1, #84]	@ 0x54
 800452a:	402a      	ands	r2, r5
 800452c:	68e5      	ldr	r5, [r4, #12]
 800452e:	432a      	orrs	r2, r5
 8004530:	654a      	str	r2, [r1, #84]	@ 0x54
      __HAL_RCC_PLLCLKOUT_ENABLE(RCC_PLLQCLK);
    }
  }
#endif /* RNG */
  /*-------------------------- ADC clock source configuration ----------------------*/
  if (((PeriphClkInit->PeriphClockSelection) & RCC_PERIPHCLK_ADC) == RCC_PERIPHCLK_ADC)
 8004532:	045a      	lsls	r2, r3, #17
 8004534:	d50a      	bpl.n	800454c <HAL_RCCEx_PeriphCLKConfig+0x130>
  {
    /* Check the parameters */
    assert_param(IS_RCC_ADCCLKSOURCE(PeriphClkInit->AdcClockSelection));

    /* Configure the ADC interface clock source */
    __HAL_RCC_ADC_CONFIG(PeriphClkInit->AdcClockSelection);
 8004536:	4929      	ldr	r1, [pc, #164]	@ (80045dc <HAL_RCCEx_PeriphCLKConfig+0x1c0>)
 8004538:	69e5      	ldr	r5, [r4, #28]
 800453a:	6d4a      	ldr	r2, [r1, #84]	@ 0x54
 800453c:	0092      	lsls	r2, r2, #2
 800453e:	0892      	lsrs	r2, r2, #2
 8004540:	432a      	orrs	r2, r5
 8004542:	654a      	str	r2, [r1, #84]	@ 0x54

    if (PeriphClkInit->AdcClockSelection == RCC_ADCCLKSOURCE_PLLADC)
 8004544:	2280      	movs	r2, #128	@ 0x80
 8004546:	05d2      	lsls	r2, r2, #23
 8004548:	4295      	cmp	r5, r2
 800454a:	d034      	beq.n	80045b6 <HAL_RCCEx_PeriphCLKConfig+0x19a>
  }
#endif /* CEC */

#if defined(RCC_CCIPR_TIM1SEL)
  /*-------------------------- TIM1 clock source configuration ---------------------*/
  if (((PeriphClkInit->PeriphClockSelection) & RCC_PERIPHCLK_TIM1) == RCC_PERIPHCLK_TIM1)
 800454c:	029a      	lsls	r2, r3, #10
 800454e:	d50a      	bpl.n	8004566 <HAL_RCCEx_PeriphCLKConfig+0x14a>
  {
    /* Check the parameters */
    assert_param(IS_RCC_TIM1CLKSOURCE(PeriphClkInit->Tim1ClockSelection));

    /* Configure the TIM1 clock source */
    __HAL_RCC_TIM1_CONFIG(PeriphClkInit->Tim1ClockSelection);
 8004550:	4922      	ldr	r1, [pc, #136]	@ (80045dc <HAL_RCCEx_PeriphCLKConfig+0x1c0>)
 8004552:	4e2b      	ldr	r6, [pc, #172]	@ (8004600 <HAL_RCCEx_PeriphCLKConfig+0x1e4>)
 8004554:	6d4a      	ldr	r2, [r1, #84]	@ 0x54
 8004556:	6a25      	ldr	r5, [r4, #32]
 8004558:	4032      	ands	r2, r6
 800455a:	432a      	orrs	r2, r5
 800455c:	654a      	str	r2, [r1, #84]	@ 0x54

    if (PeriphClkInit->Tim1ClockSelection == RCC_TIM1CLKSOURCE_PLL)
 800455e:	2280      	movs	r2, #128	@ 0x80
 8004560:	03d2      	lsls	r2, r2, #15
 8004562:	4295      	cmp	r5, r2
 8004564:	d02d      	beq.n	80045c2 <HAL_RCCEx_PeriphCLKConfig+0x1a6>
    }
  }
#endif /* RCC_CCIPR_TIM15SEL */

  /*-------------------------- I2S1 clock source configuration ---------------------*/
  if (((PeriphClkInit->PeriphClockSelection) & RCC_PERIPHCLK_I2S1) == RCC_PERIPHCLK_I2S1)
 8004566:	051b      	lsls	r3, r3, #20
 8004568:	d50a      	bpl.n	8004580 <HAL_RCCEx_PeriphCLKConfig+0x164>
  {
    /* Check the parameters */
    assert_param(IS_RCC_I2S1CLKSOURCE(PeriphClkInit->I2s1ClockSelection));

    /* Configure the I2S1 clock source */
    __HAL_RCC_I2S1_CONFIG(PeriphClkInit->I2s1ClockSelection);
 800456a:	4a1c      	ldr	r2, [pc, #112]	@ (80045dc <HAL_RCCEx_PeriphCLKConfig+0x1c0>)
 800456c:	6921      	ldr	r1, [r4, #16]
 800456e:	6d53      	ldr	r3, [r2, #84]	@ 0x54
 8004570:	4c24      	ldr	r4, [pc, #144]	@ (8004604 <HAL_RCCEx_PeriphCLKConfig+0x1e8>)
 8004572:	4023      	ands	r3, r4
 8004574:	430b      	orrs	r3, r1
 8004576:	6553      	str	r3, [r2, #84]	@ 0x54

    if (PeriphClkInit->I2s1ClockSelection == RCC_I2S1CLKSOURCE_PLL)
 8004578:	2380      	movs	r3, #128	@ 0x80
 800457a:	01db      	lsls	r3, r3, #7
 800457c:	4299      	cmp	r1, r3
 800457e:	d026      	beq.n	80045ce <HAL_RCCEx_PeriphCLKConfig+0x1b2>
    }
  }
#endif /* FDCAN1 || FDCAN2 */

  return status;
}
 8004580:	b002      	add	sp, #8
 8004582:	bce0      	pop	{r5, r6, r7}
 8004584:	46ba      	mov	sl, r7
 8004586:	46b1      	mov	r9, r6
 8004588:	46a8      	mov	r8, r5
 800458a:	bdf0      	pop	{r4, r5, r6, r7, pc}
      __HAL_RCC_PWR_CLK_ENABLE();
 800458c:	6bd9      	ldr	r1, [r3, #60]	@ 0x3c
 800458e:	4311      	orrs	r1, r2
 8004590:	63d9      	str	r1, [r3, #60]	@ 0x3c
 8004592:	6bdb      	ldr	r3, [r3, #60]	@ 0x3c
 8004594:	4013      	ands	r3, r2
 8004596:	9301      	str	r3, [sp, #4]
 8004598:	9b01      	ldr	r3, [sp, #4]
      pwrclkchanged = SET;
 800459a:	2301      	movs	r3, #1
 800459c:	469a      	mov	sl, r3
 800459e:	e750      	b.n	8004442 <HAL_RCCEx_PeriphCLKConfig+0x26>
    if (pwrclkchanged == SET)
 80045a0:	4652      	mov	r2, sl
        status = ret;
 80045a2:	2003      	movs	r0, #3
  if (((PeriphClkInit->PeriphClockSelection) & RCC_PERIPHCLK_USART1) == RCC_PERIPHCLK_USART1)
 80045a4:	6823      	ldr	r3, [r4, #0]
    if (pwrclkchanged == SET)
 80045a6:	2a01      	cmp	r2, #1
 80045a8:	d196      	bne.n	80044d8 <HAL_RCCEx_PeriphCLKConfig+0xbc>
      __HAL_RCC_PWR_CLK_DISABLE();
 80045aa:	490c      	ldr	r1, [pc, #48]	@ (80045dc <HAL_RCCEx_PeriphCLKConfig+0x1c0>)
 80045ac:	4d16      	ldr	r5, [pc, #88]	@ (8004608 <HAL_RCCEx_PeriphCLKConfig+0x1ec>)
 80045ae:	6bca      	ldr	r2, [r1, #60]	@ 0x3c
 80045b0:	402a      	ands	r2, r5
 80045b2:	63ca      	str	r2, [r1, #60]	@ 0x3c
 80045b4:	e790      	b.n	80044d8 <HAL_RCCEx_PeriphCLKConfig+0xbc>
      __HAL_RCC_PLLCLKOUT_ENABLE(RCC_PLLPCLK);
 80045b6:	2280      	movs	r2, #128	@ 0x80
 80045b8:	68cd      	ldr	r5, [r1, #12]
 80045ba:	0252      	lsls	r2, r2, #9
 80045bc:	432a      	orrs	r2, r5
 80045be:	60ca      	str	r2, [r1, #12]
 80045c0:	e7c4      	b.n	800454c <HAL_RCCEx_PeriphCLKConfig+0x130>
      __HAL_RCC_PLLCLKOUT_ENABLE(RCC_PLLQCLK);
 80045c2:	2280      	movs	r2, #128	@ 0x80
 80045c4:	68cd      	ldr	r5, [r1, #12]
 80045c6:	0452      	lsls	r2, r2, #17
 80045c8:	432a      	orrs	r2, r5
 80045ca:	60ca      	str	r2, [r1, #12]
 80045cc:	e7cb      	b.n	8004566 <HAL_RCCEx_PeriphCLKConfig+0x14a>
      __HAL_RCC_PLLCLKOUT_ENABLE(RCC_PLLPCLK);
 80045ce:	2380      	movs	r3, #128	@ 0x80
 80045d0:	68d1      	ldr	r1, [r2, #12]
 80045d2:	025b      	lsls	r3, r3, #9
 80045d4:	430b      	orrs	r3, r1
 80045d6:	60d3      	str	r3, [r2, #12]
  return status;
 80045d8:	e7d2      	b.n	8004580 <HAL_RCCEx_PeriphCLKConfig+0x164>
 80045da:	46c0      	nop			@ (mov r8, r8)
 80045dc:	40021000 	.word	0x40021000
 80045e0:	40007000 	.word	0x40007000
 80045e4:	fffffcff 	.word	0xfffffcff
 80045e8:	fffeffff 	.word	0xfffeffff
 80045ec:	00001388 	.word	0x00001388
 80045f0:	fffff3ff 	.word	0xfffff3ff
 80045f4:	fff3ffff 	.word	0xfff3ffff
 80045f8:	ffcfffff 	.word	0xffcfffff
 80045fc:	ffffcfff 	.word	0xffffcfff
 8004600:	ffbfffff 	.word	0xffbfffff
 8004604:	ffff3fff 	.word	0xffff3fff
 8004608:	efffffff 	.word	0xefffffff

0800460c <HAL_TIM_OC_MspInit>:
/**
  * @brief  Initializes the TIM Output Compare MSP.
  * @param  htim TIM Output Compare handle
  * @retval None
  */
__weak void HAL_TIM_OC_MspInit(TIM_HandleTypeDef *htim)
 800460c:	4770      	bx	lr
 800460e:	46c0      	nop			@ (mov r8, r8)

08004610 <HAL_TIM_PWM_MspInit>:
/**
  * @brief  Initializes the TIM PWM MSP.
  * @param  htim TIM PWM handle
  * @retval None
  */
__weak void HAL_TIM_PWM_MspInit(TIM_HandleTypeDef *htim)
 8004610:	4770      	bx	lr
 8004612:	46c0      	nop			@ (mov r8, r8)

08004614 <HAL_TIM_IC_MspInit>:
/**
  * @brief  Initializes the TIM Input Capture MSP.
  * @param  htim TIM Input Capture handle
  * @retval None
  */
__weak void HAL_TIM_IC_MspInit(TIM_HandleTypeDef *htim)
 8004614:	4770      	bx	lr
 8004616:	46c0      	nop			@ (mov r8, r8)

08004618 <HAL_TIM_PeriodElapsedCallback>:
/**
  * @brief  Period elapsed callback in non-blocking mode
  * @param  htim TIM handle
  * @retval None
  */
__weak void HAL_TIM_PeriodElapsedCallback(TIM_HandleTypeDef *htim)
 8004618:	4770      	bx	lr
 800461a:	46c0      	nop			@ (mov r8, r8)

0800461c <HAL_TIM_PeriodElapsedHalfCpltCallback>:
/**
  * @brief  Period elapsed half complete callback in non-blocking mode
  * @param  htim TIM handle
  * @retval None
  */
__weak void HAL_TIM_PeriodElapsedHalfCpltCallback(TIM_HandleTypeDef *htim)
 800461c:	4770      	bx	lr
 800461e:	46c0      	nop			@ (mov r8, r8)

08004620 <HAL_TIM_OC_DelayElapsedCallback>:
/**
  * @brief  Output Compare callback in non-blocking mode
  * @param  htim TIM OC handle
  * @retval None
  */
__weak void HAL_TIM_OC_DelayElapsedCallback(TIM_HandleTypeDef *htim)
 8004620:	4770      	bx	lr
 8004622:	46c0      	nop			@ (mov r8, r8)

08004624 <HAL_TIM_IC_CaptureCallback>:
/**
  * @brief  Input Capture callback in non-blocking mode
  * @param  htim TIM IC handle
  * @retval None
  */
__weak void HAL_TIM_IC_CaptureCallback(TIM_HandleTypeDef *htim)
 8004624:	4770      	bx	lr
 8004626:	46c0      	nop			@ (mov r8, r8)

08004628 <HAL_TIM_IC_CaptureHalfCpltCallback>:
/**
  * @brief  Input Capture half complete callback in non-blocking mode
  * @param  htim TIM IC handle
  * @retval None
  */
__weak void HAL_TIM_IC_CaptureHalfCpltCallback(TIM_HandleTypeDef *htim)
 8004628:	4770      	bx	lr
 800462a:	46c0      	nop			@ (mov r8, r8)

0800462c <HAL_TIM_PWM_PulseFinishedCallback>:
/**
  * @brief  PWM Pulse finished callback in non-blocking mode
  * @param  htim TIM handle
  * @retval None
  */
__weak void HAL_TIM_PWM_PulseFinishedCallback(TIM_HandleTypeDef *htim)
 800462c:	4770      	bx	lr
 800462e:	46c0      	nop			@ (mov r8, r8)

08004630 <HAL_TIM_PWM_PulseFinishedHalfCpltCallback>:
/**
  * @brief  PWM Pulse finished half complete callback in non-blocking mode
  * @param  htim TIM handle
  * @retval None
  */
__weak void HAL_TIM_PWM_PulseFinishedHalfCpltCallback(TIM_HandleTypeDef *htim)
 8004630:	4770      	bx	lr
 8004632:	46c0      	nop			@ (mov r8, r8)

08004634 <HAL_TIM_TriggerCallback>:
/**
  * @brief  Hall Trigger detection callback in non-blocking mode
  * @param  htim TIM handle
  * @retval None
  */
__weak void HAL_TIM_TriggerCallback(TIM_HandleTypeDef *htim)
 8004634:	4770      	bx	lr
 8004636:	46c0      	nop			@ (mov r8, r8)

08004638 <HAL_TIM_TriggerHalfCpltCallback>:
/**
  * @brief  Hall Trigger detection half complete callback in non-blocking mode
  * @param  htim TIM handle
  * @retval None
  */
__weak void HAL_TIM_TriggerHalfCpltCallback(TIM_HandleTypeDef *htim)
 8004638:	4770      	bx	lr
 800463a:	46c0      	nop			@ (mov r8, r8)

0800463c <HAL_TIM_ErrorCallback>:
/**
  * @brief  Timer error callback in non-blocking mode
  * @param  htim TIM handle
  * @retval None
  */
__weak void HAL_TIM_ErrorCallback(TIM_HandleTypeDef *htim)
 800463c:	4770      	bx	lr
 800463e:	46c0      	nop			@ (mov r8, r8)

08004640 <HAL_TIM_Base_Init>:
{
 8004640:	b570      	push	{r4, r5, r6, lr}
 8004642:	1e04      	subs	r4, r0, #0
  if (htim == NULL)
 8004644:	d100      	bne.n	8004648 <HAL_TIM_Base_Init+0x8>
 8004646:	e093      	b.n	8004770 <HAL_TIM_Base_Init+0x130>
  if (htim->State == HAL_TIM_STATE_RESET)
 8004648:	233d      	movs	r3, #61	@ 0x3d
 800464a:	5cc3      	ldrb	r3, [r0, r3]
 800464c:	b2da      	uxtb	r2, r3
 800464e:	2b00      	cmp	r3, #0
 8004650:	d130      	bne.n	80046b4 <HAL_TIM_Base_Init+0x74>
    htim->Lock = HAL_UNLOCKED;
 8004652:	333c      	adds	r3, #60	@ 0x3c
 8004654:	54c2      	strb	r2, [r0, r3]
  * @retval None
  */
void TIM_ResetCallback(TIM_HandleTypeDef *htim)
{
  /* Reset the TIM callback to the legacy weak callbacks */
  htim->PeriodElapsedCallback             = HAL_TIM_PeriodElapsedCallback;
 8004656:	2284      	movs	r2, #132	@ 0x84
 8004658:	4b48      	ldr	r3, [pc, #288]	@ (800477c <HAL_TIM_Base_Init+0x13c>)
 800465a:	5083      	str	r3, [r0, r2]
  htim->PeriodElapsedHalfCpltCallback     = HAL_TIM_PeriodElapsedHalfCpltCallback;
 800465c:	4b48      	ldr	r3, [pc, #288]	@ (8004780 <HAL_TIM_Base_Init+0x140>)
 800465e:	3204      	adds	r2, #4
 8004660:	5083      	str	r3, [r0, r2]
  htim->TriggerCallback                   = HAL_TIM_TriggerCallback;
 8004662:	4b48      	ldr	r3, [pc, #288]	@ (8004784 <HAL_TIM_Base_Init+0x144>)
 8004664:	3204      	adds	r2, #4
 8004666:	5083      	str	r3, [r0, r2]
  htim->TriggerHalfCpltCallback           = HAL_TIM_TriggerHalfCpltCallback;
 8004668:	4b47      	ldr	r3, [pc, #284]	@ (8004788 <HAL_TIM_Base_Init+0x148>)
 800466a:	3204      	adds	r2, #4
 800466c:	5083      	str	r3, [r0, r2]
  htim->IC_CaptureCallback                = HAL_TIM_IC_CaptureCallback;
 800466e:	4b47      	ldr	r3, [pc, #284]	@ (800478c <HAL_TIM_Base_Init+0x14c>)
 8004670:	3204      	adds	r2, #4
 8004672:	5083      	str	r3, [r0, r2]
  htim->IC_CaptureHalfCpltCallback        = HAL_TIM_IC_CaptureHalfCpltCallback;
 8004674:	4b46      	ldr	r3, [pc, #280]	@ (8004790 <HAL_TIM_Base_Init+0x150>)
 8004676:	3204      	adds	r2, #4
 8004678:	5083      	str	r3, [r0, r2]
  htim->OC_DelayElapsedCallback           = HAL_TIM_OC_DelayElapsedCallback;
 800467a:	4b46      	ldr	r3, [pc, #280]	@ (8004794 <HAL_TIM_Base_Init+0x154>)
 800467c:	3204      	adds	r2, #4
 800467e:	5083      	str	r3, [r0, r2]
  htim->PWM_PulseFinishedCallback         = HAL_TIM_PWM_PulseFinishedCallback;
 8004680:	4b45      	ldr	r3, [pc, #276]	@ (8004798 <HAL_TIM_Base_Init+0x158>)
 8004682:	3204      	adds	r2, #4
 8004684:	5083      	str	r3, [r0, r2]
  htim->PWM_PulseFinishedHalfCpltCallback = HAL_TIM_PWM_PulseFinishedHalfCpltCallback;
 8004686:	4b45      	ldr	r3, [pc, #276]	@ (800479c <HAL_TIM_Base_Init+0x15c>)
 8004688:	3204      	adds	r2, #4
 800468a:	5083      	str	r3, [r0, r2]
  htim->ErrorCallback                     = HAL_TIM_ErrorCallback;
 800468c:	4b44      	ldr	r3, [pc, #272]	@ (80047a0 <HAL_TIM_Base_Init+0x160>)
 800468e:	3204      	adds	r2, #4
 8004690:	5083      	str	r3, [r0, r2]
  htim->CommutationCallback               = HAL_TIMEx_CommutCallback;
 8004692:	4b44      	ldr	r3, [pc, #272]	@ (80047a4 <HAL_TIM_Base_Init+0x164>)
 8004694:	3204      	adds	r2, #4
 8004696:	5083      	str	r3, [r0, r2]
  htim->CommutationHalfCpltCallback       = HAL_TIMEx_CommutHalfCpltCallback;
 8004698:	4b43      	ldr	r3, [pc, #268]	@ (80047a8 <HAL_TIM_Base_Init+0x168>)
 800469a:	3204      	adds	r2, #4
 800469c:	5083      	str	r3, [r0, r2]
  htim->BreakCallback                     = HAL_TIMEx_BreakCallback;
 800469e:	4b43      	ldr	r3, [pc, #268]	@ (80047ac <HAL_TIM_Base_Init+0x16c>)
 80046a0:	3204      	adds	r2, #4
 80046a2:	5083      	str	r3, [r0, r2]
  htim->Break2Callback                    = HAL_TIMEx_Break2Callback;
 80046a4:	4b42      	ldr	r3, [pc, #264]	@ (80047b0 <HAL_TIM_Base_Init+0x170>)
 80046a6:	3204      	adds	r2, #4
 80046a8:	5083      	str	r3, [r0, r2]
    if (htim->Base_MspInitCallback == NULL)
 80046aa:	6cc3      	ldr	r3, [r0, #76]	@ 0x4c
 80046ac:	2b00      	cmp	r3, #0
 80046ae:	d061      	beq.n	8004774 <HAL_TIM_Base_Init+0x134>
    htim->Base_MspInitCallback(htim);
 80046b0:	0020      	movs	r0, r4
 80046b2:	4798      	blx	r3
  htim->State = HAL_TIM_STATE_BUSY;
 80046b4:	233d      	movs	r3, #61	@ 0x3d
 80046b6:	2202      	movs	r2, #2
 80046b8:	54e2      	strb	r2, [r4, r3]
  TIM_Base_SetConfig(htim->Instance, &htim->Init);
 80046ba:	6823      	ldr	r3, [r4, #0]
  if (IS_TIM_COUNTER_MODE_SELECT_INSTANCE(TIMx))
 80046bc:	4e3d      	ldr	r6, [pc, #244]	@ (80047b4 <HAL_TIM_Base_Init+0x174>)
  tmpcr1 = TIMx->CR1;
 80046be:	681a      	ldr	r2, [r3, #0]
  MODIFY_REG(tmpcr1, TIM_CR1_ARPE, Structure->AutoReloadPreload);
 80046c0:	69a5      	ldr	r5, [r4, #24]
  TIMx->PSC = Structure->Prescaler;
 80046c2:	6861      	ldr	r1, [r4, #4]
  TIMx->ARR = (uint32_t)Structure->Period ;
 80046c4:	68e0      	ldr	r0, [r4, #12]
  if (IS_TIM_COUNTER_MODE_SELECT_INSTANCE(TIMx))
 80046c6:	42b3      	cmp	r3, r6
 80046c8:	d041      	beq.n	800474e <HAL_TIM_Base_Init+0x10e>
 80046ca:	2680      	movs	r6, #128	@ 0x80
 80046cc:	05f6      	lsls	r6, r6, #23
 80046ce:	42b3      	cmp	r3, r6
 80046d0:	d034      	beq.n	800473c <HAL_TIM_Base_Init+0xfc>
 80046d2:	4e39      	ldr	r6, [pc, #228]	@ (80047b8 <HAL_TIM_Base_Init+0x178>)
 80046d4:	42b3      	cmp	r3, r6
 80046d6:	d031      	beq.n	800473c <HAL_TIM_Base_Init+0xfc>
  if (IS_TIM_CLOCK_DIVISION_INSTANCE(TIMx))
 80046d8:	4e38      	ldr	r6, [pc, #224]	@ (80047bc <HAL_TIM_Base_Init+0x17c>)
 80046da:	42b3      	cmp	r3, r6
 80046dc:	d032      	beq.n	8004744 <HAL_TIM_Base_Init+0x104>
 80046de:	4e38      	ldr	r6, [pc, #224]	@ (80047c0 <HAL_TIM_Base_Init+0x180>)
 80046e0:	42b3      	cmp	r3, r6
 80046e2:	d038      	beq.n	8004756 <HAL_TIM_Base_Init+0x116>
 80046e4:	4e37      	ldr	r6, [pc, #220]	@ (80047c4 <HAL_TIM_Base_Init+0x184>)
 80046e6:	42b3      	cmp	r3, r6
 80046e8:	d035      	beq.n	8004756 <HAL_TIM_Base_Init+0x116>
  MODIFY_REG(tmpcr1, TIM_CR1_ARPE, Structure->AutoReloadPreload);
 80046ea:	2680      	movs	r6, #128	@ 0x80
 80046ec:	43b2      	bics	r2, r6
 80046ee:	432a      	orrs	r2, r5
  TIMx->CR1 = tmpcr1;
 80046f0:	601a      	str	r2, [r3, #0]
  TIMx->ARR = (uint32_t)Structure->Period ;
 80046f2:	62d8      	str	r0, [r3, #44]	@ 0x2c
  TIMx->PSC = Structure->Prescaler;
 80046f4:	6299      	str	r1, [r3, #40]	@ 0x28
  TIMx->EGR = TIM_EGR_UG;
 80046f6:	2201      	movs	r2, #1
 80046f8:	615a      	str	r2, [r3, #20]
  if (HAL_IS_BIT_SET(TIMx->SR, TIM_FLAG_UPDATE))
 80046fa:	6919      	ldr	r1, [r3, #16]
 80046fc:	420a      	tst	r2, r1
 80046fe:	d002      	beq.n	8004706 <HAL_TIM_Base_Init+0xc6>
    CLEAR_BIT(TIMx->SR, TIM_FLAG_UPDATE);
 8004700:	6919      	ldr	r1, [r3, #16]
 8004702:	4391      	bics	r1, r2
 8004704:	6119      	str	r1, [r3, #16]
  htim->DMABurstState = HAL_DMA_BURST_STATE_READY;
 8004706:	2301      	movs	r3, #1
 8004708:	2248      	movs	r2, #72	@ 0x48
  return HAL_OK;
 800470a:	2000      	movs	r0, #0
  htim->DMABurstState = HAL_DMA_BURST_STATE_READY;
 800470c:	54a3      	strb	r3, [r4, r2]
  TIM_CHANNEL_STATE_SET_ALL(htim, HAL_TIM_CHANNEL_STATE_READY);
 800470e:	3a0a      	subs	r2, #10
 8004710:	54a3      	strb	r3, [r4, r2]
 8004712:	3201      	adds	r2, #1
 8004714:	54a3      	strb	r3, [r4, r2]
 8004716:	3201      	adds	r2, #1
 8004718:	54a3      	strb	r3, [r4, r2]
 800471a:	3201      	adds	r2, #1
 800471c:	54a3      	strb	r3, [r4, r2]
 800471e:	3201      	adds	r2, #1
 8004720:	54a3      	strb	r3, [r4, r2]
 8004722:	3201      	adds	r2, #1
 8004724:	54a3      	strb	r3, [r4, r2]
  TIM_CHANNEL_N_STATE_SET_ALL(htim, HAL_TIM_CHANNEL_STATE_READY);
 8004726:	3201      	adds	r2, #1
 8004728:	54a3      	strb	r3, [r4, r2]
 800472a:	3201      	adds	r2, #1
 800472c:	54a3      	strb	r3, [r4, r2]
 800472e:	3201      	adds	r2, #1
 8004730:	54a3      	strb	r3, [r4, r2]
 8004732:	3201      	adds	r2, #1
 8004734:	54a3      	strb	r3, [r4, r2]
  htim->State = HAL_TIM_STATE_READY;
 8004736:	3a0a      	subs	r2, #10
 8004738:	54a3      	strb	r3, [r4, r2]
}
 800473a:	bd70      	pop	{r4, r5, r6, pc}
    tmpcr1 &= ~(TIM_CR1_DIR | TIM_CR1_CMS);
 800473c:	2670      	movs	r6, #112	@ 0x70
 800473e:	43b2      	bics	r2, r6
    tmpcr1 |= Structure->CounterMode;
 8004740:	68a6      	ldr	r6, [r4, #8]
 8004742:	4332      	orrs	r2, r6
    tmpcr1 &= ~TIM_CR1_CKD;
 8004744:	4e20      	ldr	r6, [pc, #128]	@ (80047c8 <HAL_TIM_Base_Init+0x188>)
 8004746:	4032      	ands	r2, r6
    tmpcr1 |= (uint32_t)Structure->ClockDivision;
 8004748:	6926      	ldr	r6, [r4, #16]
 800474a:	4332      	orrs	r2, r6
 800474c:	e7cd      	b.n	80046ea <HAL_TIM_Base_Init+0xaa>
    tmpcr1 &= ~(TIM_CR1_DIR | TIM_CR1_CMS);
 800474e:	2670      	movs	r6, #112	@ 0x70
 8004750:	43b2      	bics	r2, r6
    tmpcr1 |= Structure->CounterMode;
 8004752:	68a6      	ldr	r6, [r4, #8]
 8004754:	4332      	orrs	r2, r6
    tmpcr1 &= ~TIM_CR1_CKD;
 8004756:	4e1c      	ldr	r6, [pc, #112]	@ (80047c8 <HAL_TIM_Base_Init+0x188>)
 8004758:	4032      	ands	r2, r6
    tmpcr1 |= (uint32_t)Structure->ClockDivision;
 800475a:	6926      	ldr	r6, [r4, #16]
 800475c:	4332      	orrs	r2, r6
  MODIFY_REG(tmpcr1, TIM_CR1_ARPE, Structure->AutoReloadPreload);
 800475e:	2680      	movs	r6, #128	@ 0x80
 8004760:	43b2      	bics	r2, r6
 8004762:	432a      	orrs	r2, r5
  TIMx->CR1 = tmpcr1;
 8004764:	601a      	str	r2, [r3, #0]
  TIMx->ARR = (uint32_t)Structure->Period ;
 8004766:	62d8      	str	r0, [r3, #44]	@ 0x2c
  TIMx->PSC = Structure->Prescaler;
 8004768:	6299      	str	r1, [r3, #40]	@ 0x28
    TIMx->RCR = Structure->RepetitionCounter;
 800476a:	6962      	ldr	r2, [r4, #20]
 800476c:	631a      	str	r2, [r3, #48]	@ 0x30
 800476e:	e7c2      	b.n	80046f6 <HAL_TIM_Base_Init+0xb6>
    return HAL_ERROR;
 8004770:	2001      	movs	r0, #1
 8004772:	e7e2      	b.n	800473a <HAL_TIM_Base_Init+0xfa>
      htim->Base_MspInitCallback = HAL_TIM_Base_MspInit;
 8004774:	4b15      	ldr	r3, [pc, #84]	@ (80047cc <HAL_TIM_Base_Init+0x18c>)
 8004776:	64c3      	str	r3, [r0, #76]	@ 0x4c
 8004778:	e79a      	b.n	80046b0 <HAL_TIM_Base_Init+0x70>
 800477a:	46c0      	nop			@ (mov r8, r8)
 800477c:	08004619 	.word	0x08004619
 8004780:	0800461d 	.word	0x0800461d
 8004784:	08004635 	.word	0x08004635
 8004788:	08004639 	.word	0x08004639
 800478c:	08004625 	.word	0x08004625
 8004790:	08004629 	.word	0x08004629
 8004794:	08004621 	.word	0x08004621
 8004798:	0800462d 	.word	0x0800462d
 800479c:	08004631 	.word	0x08004631
 80047a0:	0800463d 	.word	0x0800463d
 80047a4:	08005ead 	.word	0x08005ead
 80047a8:	08005eb1 	.word	0x08005eb1
 80047ac:	08005eb5 	.word	0x08005eb5
 80047b0:	08005eb9 	.word	0x08005eb9
 80047b4:	40012c00 	.word	0x40012c00
 80047b8:	40000400 	.word	0x40000400
 80047bc:	40002000 	.word	0x40002000
 80047c0:	40014400 	.word	0x40014400
 80047c4:	40014800 	.word	0x40014800
 80047c8:	fffffcff 	.word	0xfffffcff
 80047cc:	08001659 	.word	0x08001659

080047d0 <HAL_TIM_Base_Start>:
  if (htim->State != HAL_TIM_STATE_READY)
 80047d0:	213d      	movs	r1, #61	@ 0x3d
{
 80047d2:	b510      	push	{r4, lr}
  if (htim->State != HAL_TIM_STATE_READY)
 80047d4:	5c42      	ldrb	r2, [r0, r1]
{
 80047d6:	0003      	movs	r3, r0
  if (htim->State != HAL_TIM_STATE_READY)
 80047d8:	b2d4      	uxtb	r4, r2
    return HAL_ERROR;
 80047da:	2001      	movs	r0, #1
  if (htim->State != HAL_TIM_STATE_READY)
 80047dc:	2a01      	cmp	r2, #1
 80047de:	d110      	bne.n	8004802 <HAL_TIM_Base_Start+0x32>
  htim->State = HAL_TIM_STATE_BUSY;
 80047e0:	3201      	adds	r2, #1
 80047e2:	545a      	strb	r2, [r3, r1]
  if (IS_TIM_SLAVE_INSTANCE(htim->Instance))
 80047e4:	681b      	ldr	r3, [r3, #0]
 80047e6:	4a0e      	ldr	r2, [pc, #56]	@ (8004820 <HAL_TIM_Base_Start+0x50>)
 80047e8:	4293      	cmp	r3, r2
 80047ea:	d00b      	beq.n	8004804 <HAL_TIM_Base_Start+0x34>
 80047ec:	2280      	movs	r2, #128	@ 0x80
 80047ee:	05d2      	lsls	r2, r2, #23
 80047f0:	4293      	cmp	r3, r2
 80047f2:	d007      	beq.n	8004804 <HAL_TIM_Base_Start+0x34>
 80047f4:	4a0b      	ldr	r2, [pc, #44]	@ (8004824 <HAL_TIM_Base_Start+0x54>)
 80047f6:	4293      	cmp	r3, r2
 80047f8:	d004      	beq.n	8004804 <HAL_TIM_Base_Start+0x34>
    __HAL_TIM_ENABLE(htim);
 80047fa:	681a      	ldr	r2, [r3, #0]
 80047fc:	4322      	orrs	r2, r4
 80047fe:	601a      	str	r2, [r3, #0]
  return HAL_OK;
 8004800:	2000      	movs	r0, #0
}
 8004802:	bd10      	pop	{r4, pc}
    tmpsmcr = htim->Instance->SMCR & TIM_SMCR_SMS;
 8004804:	689a      	ldr	r2, [r3, #8]
 8004806:	4908      	ldr	r1, [pc, #32]	@ (8004828 <HAL_TIM_Base_Start+0x58>)
 8004808:	400a      	ands	r2, r1
    if (!IS_TIM_SLAVEMODE_TRIGGER_ENABLED(tmpsmcr))
 800480a:	2a06      	cmp	r2, #6
 800480c:	d0f8      	beq.n	8004800 <HAL_TIM_Base_Start+0x30>
 800480e:	3907      	subs	r1, #7
 8004810:	428a      	cmp	r2, r1
 8004812:	d0f5      	beq.n	8004800 <HAL_TIM_Base_Start+0x30>
      __HAL_TIM_ENABLE(htim);
 8004814:	2101      	movs	r1, #1
 8004816:	681a      	ldr	r2, [r3, #0]
  return HAL_OK;
 8004818:	2000      	movs	r0, #0
      __HAL_TIM_ENABLE(htim);
 800481a:	430a      	orrs	r2, r1
 800481c:	601a      	str	r2, [r3, #0]
 800481e:	e7f0      	b.n	8004802 <HAL_TIM_Base_Start+0x32>
 8004820:	40012c00 	.word	0x40012c00
 8004824:	40000400 	.word	0x40000400
 8004828:	00010007 	.word	0x00010007

0800482c <HAL_TIM_Base_Start_IT>:
  if (htim->State != HAL_TIM_STATE_READY)
 800482c:	213d      	movs	r1, #61	@ 0x3d
{
 800482e:	b510      	push	{r4, lr}
  if (htim->State != HAL_TIM_STATE_READY)
 8004830:	5c42      	ldrb	r2, [r0, r1]
{
 8004832:	0003      	movs	r3, r0
  if (htim->State != HAL_TIM_STATE_READY)
 8004834:	b2d4      	uxtb	r4, r2
    return HAL_ERROR;
 8004836:	2001      	movs	r0, #1
  if (htim->State != HAL_TIM_STATE_READY)
 8004838:	2a01      	cmp	r2, #1
 800483a:	d113      	bne.n	8004864 <HAL_TIM_Base_Start_IT+0x38>
  htim->State = HAL_TIM_STATE_BUSY;
 800483c:	3201      	adds	r2, #1
 800483e:	545a      	strb	r2, [r3, r1]
  __HAL_TIM_ENABLE_IT(htim, TIM_IT_UPDATE);
 8004840:	681b      	ldr	r3, [r3, #0]
 8004842:	68da      	ldr	r2, [r3, #12]
 8004844:	4322      	orrs	r2, r4
 8004846:	60da      	str	r2, [r3, #12]
  if (IS_TIM_SLAVE_INSTANCE(htim->Instance))
 8004848:	4a0e      	ldr	r2, [pc, #56]	@ (8004884 <HAL_TIM_Base_Start_IT+0x58>)
 800484a:	4293      	cmp	r3, r2
 800484c:	d00b      	beq.n	8004866 <HAL_TIM_Base_Start_IT+0x3a>
 800484e:	2280      	movs	r2, #128	@ 0x80
 8004850:	05d2      	lsls	r2, r2, #23
 8004852:	4293      	cmp	r3, r2
 8004854:	d007      	beq.n	8004866 <HAL_TIM_Base_Start_IT+0x3a>
 8004856:	4a0c      	ldr	r2, [pc, #48]	@ (8004888 <HAL_TIM_Base_Start_IT+0x5c>)
 8004858:	4293      	cmp	r3, r2
 800485a:	d004      	beq.n	8004866 <HAL_TIM_Base_Start_IT+0x3a>
    __HAL_TIM_ENABLE(htim);
 800485c:	681a      	ldr	r2, [r3, #0]
 800485e:	4322      	orrs	r2, r4
 8004860:	601a      	str	r2, [r3, #0]
  return HAL_OK;
 8004862:	2000      	movs	r0, #0
}
 8004864:	bd10      	pop	{r4, pc}
    tmpsmcr = htim->Instance->SMCR & TIM_SMCR_SMS;
 8004866:	689a      	ldr	r2, [r3, #8]
 8004868:	4908      	ldr	r1, [pc, #32]	@ (800488c <HAL_TIM_Base_Start_IT+0x60>)
 800486a:	400a      	ands	r2, r1
    if (!IS_TIM_SLAVEMODE_TRIGGER_ENABLED(tmpsmcr))
 800486c:	2a06      	cmp	r2, #6
 800486e:	d0f8      	beq.n	8004862 <HAL_TIM_Base_Start_IT+0x36>
 8004870:	3907      	subs	r1, #7
 8004872:	428a      	cmp	r2, r1
 8004874:	d0f5      	beq.n	8004862 <HAL_TIM_Base_Start_IT+0x36>
      __HAL_TIM_ENABLE(htim);
 8004876:	2101      	movs	r1, #1
 8004878:	681a      	ldr	r2, [r3, #0]
  return HAL_OK;
 800487a:	2000      	movs	r0, #0
      __HAL_TIM_ENABLE(htim);
 800487c:	430a      	orrs	r2, r1
 800487e:	601a      	str	r2, [r3, #0]
 8004880:	e7f0      	b.n	8004864 <HAL_TIM_Base_Start_IT+0x38>
 8004882:	46c0      	nop			@ (mov r8, r8)
 8004884:	40012c00 	.word	0x40012c00
 8004888:	40000400 	.word	0x40000400
 800488c:	00010007 	.word	0x00010007

08004890 <HAL_TIM_OC_Init>:
{
 8004890:	b570      	push	{r4, r5, r6, lr}
 8004892:	1e04      	subs	r4, r0, #0
  if (htim == NULL)
 8004894:	d100      	bne.n	8004898 <HAL_TIM_OC_Init+0x8>
 8004896:	e093      	b.n	80049c0 <HAL_TIM_OC_Init+0x130>
  if (htim->State == HAL_TIM_STATE_RESET)
 8004898:	233d      	movs	r3, #61	@ 0x3d
 800489a:	5cc3      	ldrb	r3, [r0, r3]
 800489c:	b2da      	uxtb	r2, r3
 800489e:	2b00      	cmp	r3, #0
 80048a0:	d130      	bne.n	8004904 <HAL_TIM_OC_Init+0x74>
    htim->Lock = HAL_UNLOCKED;
 80048a2:	333c      	adds	r3, #60	@ 0x3c
 80048a4:	54c2      	strb	r2, [r0, r3]
  htim->PeriodElapsedCallback             = HAL_TIM_PeriodElapsedCallback;
 80048a6:	2284      	movs	r2, #132	@ 0x84
 80048a8:	4b48      	ldr	r3, [pc, #288]	@ (80049cc <HAL_TIM_OC_Init+0x13c>)
 80048aa:	5083      	str	r3, [r0, r2]
  htim->PeriodElapsedHalfCpltCallback     = HAL_TIM_PeriodElapsedHalfCpltCallback;
 80048ac:	4b48      	ldr	r3, [pc, #288]	@ (80049d0 <HAL_TIM_OC_Init+0x140>)
 80048ae:	3204      	adds	r2, #4
 80048b0:	5083      	str	r3, [r0, r2]
  htim->TriggerCallback                   = HAL_TIM_TriggerCallback;
 80048b2:	4b48      	ldr	r3, [pc, #288]	@ (80049d4 <HAL_TIM_OC_Init+0x144>)
 80048b4:	3204      	adds	r2, #4
 80048b6:	5083      	str	r3, [r0, r2]
  htim->TriggerHalfCpltCallback           = HAL_TIM_TriggerHalfCpltCallback;
 80048b8:	4b47      	ldr	r3, [pc, #284]	@ (80049d8 <HAL_TIM_OC_Init+0x148>)
 80048ba:	3204      	adds	r2, #4
 80048bc:	5083      	str	r3, [r0, r2]
  htim->IC_CaptureCallback                = HAL_TIM_IC_CaptureCallback;
 80048be:	4b47      	ldr	r3, [pc, #284]	@ (80049dc <HAL_TIM_OC_Init+0x14c>)
 80048c0:	3204      	adds	r2, #4
 80048c2:	5083      	str	r3, [r0, r2]
  htim->IC_CaptureHalfCpltCallback        = HAL_TIM_IC_CaptureHalfCpltCallback;
 80048c4:	4b46      	ldr	r3, [pc, #280]	@ (80049e0 <HAL_TIM_OC_Init+0x150>)
 80048c6:	3204      	adds	r2, #4
 80048c8:	5083      	str	r3, [r0, r2]
  htim->OC_DelayElapsedCallback           = HAL_TIM_OC_DelayElapsedCallback;
 80048ca:	4b46      	ldr	r3, [pc, #280]	@ (80049e4 <HAL_TIM_OC_Init+0x154>)
 80048cc:	3204      	adds	r2, #4
 80048ce:	5083      	str	r3, [r0, r2]
  htim->PWM_PulseFinishedCallback         = HAL_TIM_PWM_PulseFinishedCallback;
 80048d0:	4b45      	ldr	r3, [pc, #276]	@ (80049e8 <HAL_TIM_OC_Init+0x158>)
 80048d2:	3204      	adds	r2, #4
 80048d4:	5083      	str	r3, [r0, r2]
  htim->PWM_PulseFinishedHalfCpltCallback = HAL_TIM_PWM_PulseFinishedHalfCpltCallback;
 80048d6:	4b45      	ldr	r3, [pc, #276]	@ (80049ec <HAL_TIM_OC_Init+0x15c>)
 80048d8:	3204      	adds	r2, #4
 80048da:	5083      	str	r3, [r0, r2]
  htim->ErrorCallback                     = HAL_TIM_ErrorCallback;
 80048dc:	4b44      	ldr	r3, [pc, #272]	@ (80049f0 <HAL_TIM_OC_Init+0x160>)
 80048de:	3204      	adds	r2, #4
 80048e0:	5083      	str	r3, [r0, r2]
  htim->CommutationCallback               = HAL_TIMEx_CommutCallback;
 80048e2:	4b44      	ldr	r3, [pc, #272]	@ (80049f4 <HAL_TIM_OC_Init+0x164>)
 80048e4:	3204      	adds	r2, #4
 80048e6:	5083      	str	r3, [r0, r2]
  htim->CommutationHalfCpltCallback       = HAL_TIMEx_CommutHalfCpltCallback;
 80048e8:	4b43      	ldr	r3, [pc, #268]	@ (80049f8 <HAL_TIM_OC_Init+0x168>)
 80048ea:	3204      	adds	r2, #4
 80048ec:	5083      	str	r3, [r0, r2]
  htim->BreakCallback                     = HAL_TIMEx_BreakCallback;
 80048ee:	4b43      	ldr	r3, [pc, #268]	@ (80049fc <HAL_TIM_OC_Init+0x16c>)
 80048f0:	3204      	adds	r2, #4
 80048f2:	5083      	str	r3, [r0, r2]
  htim->Break2Callback                    = HAL_TIMEx_Break2Callback;
 80048f4:	4b42      	ldr	r3, [pc, #264]	@ (8004a00 <HAL_TIM_OC_Init+0x170>)
 80048f6:	3204      	adds	r2, #4
 80048f8:	5083      	str	r3, [r0, r2]
    if (htim->OC_MspInitCallback == NULL)
 80048fa:	6dc3      	ldr	r3, [r0, #92]	@ 0x5c
 80048fc:	2b00      	cmp	r3, #0
 80048fe:	d061      	beq.n	80049c4 <HAL_TIM_OC_Init+0x134>
    htim->OC_MspInitCallback(htim);
 8004900:	0020      	movs	r0, r4
 8004902:	4798      	blx	r3
  htim->State = HAL_TIM_STATE_BUSY;
 8004904:	233d      	movs	r3, #61	@ 0x3d
 8004906:	2202      	movs	r2, #2
 8004908:	54e2      	strb	r2, [r4, r3]
  TIM_Base_SetConfig(htim->Instance,  &htim->Init);
 800490a:	6823      	ldr	r3, [r4, #0]
  if (IS_TIM_COUNTER_MODE_SELECT_INSTANCE(TIMx))
 800490c:	4e3d      	ldr	r6, [pc, #244]	@ (8004a04 <HAL_TIM_OC_Init+0x174>)
  tmpcr1 = TIMx->CR1;
 800490e:	681a      	ldr	r2, [r3, #0]
  MODIFY_REG(tmpcr1, TIM_CR1_ARPE, Structure->AutoReloadPreload);
 8004910:	69a5      	ldr	r5, [r4, #24]
  TIMx->PSC = Structure->Prescaler;
 8004912:	6861      	ldr	r1, [r4, #4]
  TIMx->ARR = (uint32_t)Structure->Period ;
 8004914:	68e0      	ldr	r0, [r4, #12]
  if (IS_TIM_COUNTER_MODE_SELECT_INSTANCE(TIMx))
 8004916:	42b3      	cmp	r3, r6
 8004918:	d041      	beq.n	800499e <HAL_TIM_OC_Init+0x10e>
 800491a:	2680      	movs	r6, #128	@ 0x80
 800491c:	05f6      	lsls	r6, r6, #23
 800491e:	42b3      	cmp	r3, r6
 8004920:	d034      	beq.n	800498c <HAL_TIM_OC_Init+0xfc>
 8004922:	4e39      	ldr	r6, [pc, #228]	@ (8004a08 <HAL_TIM_OC_Init+0x178>)
 8004924:	42b3      	cmp	r3, r6
 8004926:	d031      	beq.n	800498c <HAL_TIM_OC_Init+0xfc>
  if (IS_TIM_CLOCK_DIVISION_INSTANCE(TIMx))
 8004928:	4e38      	ldr	r6, [pc, #224]	@ (8004a0c <HAL_TIM_OC_Init+0x17c>)
 800492a:	42b3      	cmp	r3, r6
 800492c:	d032      	beq.n	8004994 <HAL_TIM_OC_Init+0x104>
 800492e:	4e38      	ldr	r6, [pc, #224]	@ (8004a10 <HAL_TIM_OC_Init+0x180>)
 8004930:	42b3      	cmp	r3, r6
 8004932:	d038      	beq.n	80049a6 <HAL_TIM_OC_Init+0x116>
 8004934:	4e37      	ldr	r6, [pc, #220]	@ (8004a14 <HAL_TIM_OC_Init+0x184>)
 8004936:	42b3      	cmp	r3, r6
 8004938:	d035      	beq.n	80049a6 <HAL_TIM_OC_Init+0x116>
  MODIFY_REG(tmpcr1, TIM_CR1_ARPE, Structure->AutoReloadPreload);
 800493a:	2680      	movs	r6, #128	@ 0x80
 800493c:	43b2      	bics	r2, r6
 800493e:	432a      	orrs	r2, r5
  TIMx->CR1 = tmpcr1;
 8004940:	601a      	str	r2, [r3, #0]
  TIMx->ARR = (uint32_t)Structure->Period ;
 8004942:	62d8      	str	r0, [r3, #44]	@ 0x2c
  TIMx->PSC = Structure->Prescaler;
 8004944:	6299      	str	r1, [r3, #40]	@ 0x28
  TIMx->EGR = TIM_EGR_UG;
 8004946:	2201      	movs	r2, #1
 8004948:	615a      	str	r2, [r3, #20]
  if (HAL_IS_BIT_SET(TIMx->SR, TIM_FLAG_UPDATE))
 800494a:	6919      	ldr	r1, [r3, #16]
 800494c:	420a      	tst	r2, r1
 800494e:	d002      	beq.n	8004956 <HAL_TIM_OC_Init+0xc6>
    CLEAR_BIT(TIMx->SR, TIM_FLAG_UPDATE);
 8004950:	6919      	ldr	r1, [r3, #16]
 8004952:	4391      	bics	r1, r2
 8004954:	6119      	str	r1, [r3, #16]
  htim->DMABurstState = HAL_DMA_BURST_STATE_READY;
 8004956:	2301      	movs	r3, #1
 8004958:	2248      	movs	r2, #72	@ 0x48
  return HAL_OK;
 800495a:	2000      	movs	r0, #0
  htim->DMABurstState = HAL_DMA_BURST_STATE_READY;
 800495c:	54a3      	strb	r3, [r4, r2]
  TIM_CHANNEL_STATE_SET_ALL(htim, HAL_TIM_CHANNEL_STATE_READY);
 800495e:	3a0a      	subs	r2, #10
 8004960:	54a3      	strb	r3, [r4, r2]
 8004962:	3201      	adds	r2, #1
 8004964:	54a3      	strb	r3, [r4, r2]
 8004966:	3201      	adds	r2, #1
 8004968:	54a3      	strb	r3, [r4, r2]
 800496a:	3201      	adds	r2, #1
 800496c:	54a3      	strb	r3, [r4, r2]
 800496e:	3201      	adds	r2, #1
 8004970:	54a3      	strb	r3, [r4, r2]
 8004972:	3201      	adds	r2, #1
 8004974:	54a3      	strb	r3, [r4, r2]
  TIM_CHANNEL_N_STATE_SET_ALL(htim, HAL_TIM_CHANNEL_STATE_READY);
 8004976:	3201      	adds	r2, #1
 8004978:	54a3      	strb	r3, [r4, r2]
 800497a:	3201      	adds	r2, #1
 800497c:	54a3      	strb	r3, [r4, r2]
 800497e:	3201      	adds	r2, #1
 8004980:	54a3      	strb	r3, [r4, r2]
 8004982:	3201      	adds	r2, #1
 8004984:	54a3      	strb	r3, [r4, r2]
  htim->State = HAL_TIM_STATE_READY;
 8004986:	3a0a      	subs	r2, #10
 8004988:	54a3      	strb	r3, [r4, r2]
}
 800498a:	bd70      	pop	{r4, r5, r6, pc}
    tmpcr1 &= ~(TIM_CR1_DIR | TIM_CR1_CMS);
 800498c:	2670      	movs	r6, #112	@ 0x70
 800498e:	43b2      	bics	r2, r6
    tmpcr1 |= Structure->CounterMode;
 8004990:	68a6      	ldr	r6, [r4, #8]
 8004992:	4332      	orrs	r2, r6
    tmpcr1 &= ~TIM_CR1_CKD;
 8004994:	4e20      	ldr	r6, [pc, #128]	@ (8004a18 <HAL_TIM_OC_Init+0x188>)
 8004996:	4032      	ands	r2, r6
    tmpcr1 |= (uint32_t)Structure->ClockDivision;
 8004998:	6926      	ldr	r6, [r4, #16]
 800499a:	4332      	orrs	r2, r6
 800499c:	e7cd      	b.n	800493a <HAL_TIM_OC_Init+0xaa>
    tmpcr1 &= ~(TIM_CR1_DIR | TIM_CR1_CMS);
 800499e:	2670      	movs	r6, #112	@ 0x70
 80049a0:	43b2      	bics	r2, r6
    tmpcr1 |= Structure->CounterMode;
 80049a2:	68a6      	ldr	r6, [r4, #8]
 80049a4:	4332      	orrs	r2, r6
    tmpcr1 &= ~TIM_CR1_CKD;
 80049a6:	4e1c      	ldr	r6, [pc, #112]	@ (8004a18 <HAL_TIM_OC_Init+0x188>)
 80049a8:	4032      	ands	r2, r6
    tmpcr1 |= (uint32_t)Structure->ClockDivision;
 80049aa:	6926      	ldr	r6, [r4, #16]
 80049ac:	4332      	orrs	r2, r6
  MODIFY_REG(tmpcr1, TIM_CR1_ARPE, Structure->AutoReloadPreload);
 80049ae:	2680      	movs	r6, #128	@ 0x80
 80049b0:	43b2      	bics	r2, r6
 80049b2:	432a      	orrs	r2, r5
  TIMx->CR1 = tmpcr1;
 80049b4:	601a      	str	r2, [r3, #0]
  TIMx->ARR = (uint32_t)Structure->Period ;
 80049b6:	62d8      	str	r0, [r3, #44]	@ 0x2c
  TIMx->PSC = Structure->Prescaler;
 80049b8:	6299      	str	r1, [r3, #40]	@ 0x28
    TIMx->RCR = Structure->RepetitionCounter;
 80049ba:	6962      	ldr	r2, [r4, #20]
 80049bc:	631a      	str	r2, [r3, #48]	@ 0x30
 80049be:	e7c2      	b.n	8004946 <HAL_TIM_OC_Init+0xb6>
    return HAL_ERROR;
 80049c0:	2001      	movs	r0, #1
 80049c2:	e7e2      	b.n	800498a <HAL_TIM_OC_Init+0xfa>
      htim->OC_MspInitCallback = HAL_TIM_OC_MspInit;
 80049c4:	4b15      	ldr	r3, [pc, #84]	@ (8004a1c <HAL_TIM_OC_Init+0x18c>)
 80049c6:	65c3      	str	r3, [r0, #92]	@ 0x5c
 80049c8:	e79a      	b.n	8004900 <HAL_TIM_OC_Init+0x70>
 80049ca:	46c0      	nop			@ (mov r8, r8)
 80049cc:	08004619 	.word	0x08004619
 80049d0:	0800461d 	.word	0x0800461d
 80049d4:	08004635 	.word	0x08004635
 80049d8:	08004639 	.word	0x08004639
 80049dc:	08004625 	.word	0x08004625
 80049e0:	08004629 	.word	0x08004629
 80049e4:	08004621 	.word	0x08004621
 80049e8:	0800462d 	.word	0x0800462d
 80049ec:	08004631 	.word	0x08004631
 80049f0:	0800463d 	.word	0x0800463d
 80049f4:	08005ead 	.word	0x08005ead
 80049f8:	08005eb1 	.word	0x08005eb1
 80049fc:	08005eb5 	.word	0x08005eb5
 8004a00:	08005eb9 	.word	0x08005eb9
 8004a04:	40012c00 	.word	0x40012c00
 8004a08:	40000400 	.word	0x40000400
 8004a0c:	40002000 	.word	0x40002000
 8004a10:	40014400 	.word	0x40014400
 8004a14:	40014800 	.word	0x40014800
 8004a18:	fffffcff 	.word	0xfffffcff
 8004a1c:	0800460d 	.word	0x0800460d

08004a20 <HAL_TIM_OC_Start_IT>:
{
 8004a20:	b510      	push	{r4, lr}
 8004a22:	2910      	cmp	r1, #16
 8004a24:	d803      	bhi.n	8004a2e <HAL_TIM_OC_Start_IT+0xe>
 8004a26:	4a39      	ldr	r2, [pc, #228]	@ (8004b0c <HAL_TIM_OC_Start_IT+0xec>)
 8004a28:	008b      	lsls	r3, r1, #2
 8004a2a:	58d3      	ldr	r3, [r2, r3]
 8004a2c:	469f      	mov	pc, r3
  if (TIM_CHANNEL_STATE_GET(htim, Channel) != HAL_TIM_CHANNEL_STATE_READY)
 8004a2e:	2343      	movs	r3, #67	@ 0x43
 8004a30:	5cc2      	ldrb	r2, [r0, r3]
 8004a32:	2a01      	cmp	r2, #1
 8004a34:	d101      	bne.n	8004a3a <HAL_TIM_OC_Start_IT+0x1a>
  TIM_CHANNEL_STATE_SET(htim, Channel, HAL_TIM_CHANNEL_STATE_BUSY);
 8004a36:	2202      	movs	r2, #2
 8004a38:	54c2      	strb	r2, [r0, r3]
    return HAL_ERROR;
 8004a3a:	2001      	movs	r0, #1
}
 8004a3c:	bd10      	pop	{r4, pc}
  if (TIM_CHANNEL_STATE_GET(htim, Channel) != HAL_TIM_CHANNEL_STATE_READY)
 8004a3e:	233e      	movs	r3, #62	@ 0x3e
 8004a40:	5cc2      	ldrb	r2, [r0, r3]
 8004a42:	2a01      	cmp	r2, #1
 8004a44:	d1f9      	bne.n	8004a3a <HAL_TIM_OC_Start_IT+0x1a>
  TIM_CHANNEL_STATE_SET(htim, Channel, HAL_TIM_CHANNEL_STATE_BUSY);
 8004a46:	2402      	movs	r4, #2
 8004a48:	54c4      	strb	r4, [r0, r3]
      __HAL_TIM_ENABLE_IT(htim, TIM_IT_CC1);
 8004a4a:	6803      	ldr	r3, [r0, #0]
 8004a4c:	68da      	ldr	r2, [r3, #12]
 8004a4e:	4322      	orrs	r2, r4
 8004a50:	60da      	str	r2, [r3, #12]
  tmp = TIM_CCER_CC1E << (Channel & 0x1FU); /* 0x1FU = 31 bits max shift */
 8004a52:	221f      	movs	r2, #31
 8004a54:	4011      	ands	r1, r2
 8004a56:	3a1e      	subs	r2, #30
 8004a58:	408a      	lsls	r2, r1
  TIMx->CCER &= ~tmp;
 8004a5a:	6a19      	ldr	r1, [r3, #32]
 8004a5c:	4391      	bics	r1, r2
 8004a5e:	6219      	str	r1, [r3, #32]
  TIMx->CCER |= (uint32_t)(ChannelState << (Channel & 0x1FU)); /* 0x1FU = 31 bits max shift */
 8004a60:	6a19      	ldr	r1, [r3, #32]
 8004a62:	430a      	orrs	r2, r1
 8004a64:	621a      	str	r2, [r3, #32]
    if (IS_TIM_BREAK_INSTANCE(htim->Instance) != RESET)
 8004a66:	4a2a      	ldr	r2, [pc, #168]	@ (8004b10 <HAL_TIM_OC_Start_IT+0xf0>)
 8004a68:	4293      	cmp	r3, r2
 8004a6a:	d049      	beq.n	8004b00 <HAL_TIM_OC_Start_IT+0xe0>
 8004a6c:	4a29      	ldr	r2, [pc, #164]	@ (8004b14 <HAL_TIM_OC_Start_IT+0xf4>)
 8004a6e:	4293      	cmp	r3, r2
 8004a70:	d040      	beq.n	8004af4 <HAL_TIM_OC_Start_IT+0xd4>
 8004a72:	4a29      	ldr	r2, [pc, #164]	@ (8004b18 <HAL_TIM_OC_Start_IT+0xf8>)
 8004a74:	4293      	cmp	r3, r2
 8004a76:	d03d      	beq.n	8004af4 <HAL_TIM_OC_Start_IT+0xd4>
    if (IS_TIM_SLAVE_INSTANCE(htim->Instance))
 8004a78:	2280      	movs	r2, #128	@ 0x80
 8004a7a:	05d2      	lsls	r2, r2, #23
 8004a7c:	4293      	cmp	r3, r2
 8004a7e:	d002      	beq.n	8004a86 <HAL_TIM_OC_Start_IT+0x66>
 8004a80:	4a26      	ldr	r2, [pc, #152]	@ (8004b1c <HAL_TIM_OC_Start_IT+0xfc>)
 8004a82:	4293      	cmp	r3, r2
 8004a84:	d107      	bne.n	8004a96 <HAL_TIM_OC_Start_IT+0x76>
      tmpsmcr = htim->Instance->SMCR & TIM_SMCR_SMS;
 8004a86:	689a      	ldr	r2, [r3, #8]
 8004a88:	4925      	ldr	r1, [pc, #148]	@ (8004b20 <HAL_TIM_OC_Start_IT+0x100>)
 8004a8a:	400a      	ands	r2, r1
      if (!IS_TIM_SLAVEMODE_TRIGGER_ENABLED(tmpsmcr))
 8004a8c:	2a06      	cmp	r2, #6
 8004a8e:	d006      	beq.n	8004a9e <HAL_TIM_OC_Start_IT+0x7e>
 8004a90:	3907      	subs	r1, #7
 8004a92:	428a      	cmp	r2, r1
 8004a94:	d003      	beq.n	8004a9e <HAL_TIM_OC_Start_IT+0x7e>
        __HAL_TIM_ENABLE(htim);
 8004a96:	2101      	movs	r1, #1
 8004a98:	681a      	ldr	r2, [r3, #0]
 8004a9a:	430a      	orrs	r2, r1
 8004a9c:	601a      	str	r2, [r3, #0]
    return HAL_ERROR;
 8004a9e:	2000      	movs	r0, #0
 8004aa0:	e7cc      	b.n	8004a3c <HAL_TIM_OC_Start_IT+0x1c>
  if (TIM_CHANNEL_STATE_GET(htim, Channel) != HAL_TIM_CHANNEL_STATE_READY)
 8004aa2:	233f      	movs	r3, #63	@ 0x3f
 8004aa4:	5cc2      	ldrb	r2, [r0, r3]
 8004aa6:	2a01      	cmp	r2, #1
 8004aa8:	d1c7      	bne.n	8004a3a <HAL_TIM_OC_Start_IT+0x1a>
  TIM_CHANNEL_STATE_SET(htim, Channel, HAL_TIM_CHANNEL_STATE_BUSY);
 8004aaa:	2202      	movs	r2, #2
 8004aac:	54c2      	strb	r2, [r0, r3]
      __HAL_TIM_ENABLE_IT(htim, TIM_IT_CC2);
 8004aae:	6803      	ldr	r3, [r0, #0]
 8004ab0:	2004      	movs	r0, #4
 8004ab2:	68da      	ldr	r2, [r3, #12]
 8004ab4:	4302      	orrs	r2, r0
 8004ab6:	60da      	str	r2, [r3, #12]
  if (status == HAL_OK)
 8004ab8:	e7cb      	b.n	8004a52 <HAL_TIM_OC_Start_IT+0x32>
  if (TIM_CHANNEL_STATE_GET(htim, Channel) != HAL_TIM_CHANNEL_STATE_READY)
 8004aba:	2340      	movs	r3, #64	@ 0x40
 8004abc:	5cc2      	ldrb	r2, [r0, r3]
 8004abe:	2a01      	cmp	r2, #1
 8004ac0:	d1bb      	bne.n	8004a3a <HAL_TIM_OC_Start_IT+0x1a>
  TIM_CHANNEL_STATE_SET(htim, Channel, HAL_TIM_CHANNEL_STATE_BUSY);
 8004ac2:	2202      	movs	r2, #2
 8004ac4:	54c2      	strb	r2, [r0, r3]
      __HAL_TIM_ENABLE_IT(htim, TIM_IT_CC3);
 8004ac6:	6803      	ldr	r3, [r0, #0]
 8004ac8:	2008      	movs	r0, #8
 8004aca:	68da      	ldr	r2, [r3, #12]
 8004acc:	4302      	orrs	r2, r0
 8004ace:	60da      	str	r2, [r3, #12]
  if (status == HAL_OK)
 8004ad0:	e7bf      	b.n	8004a52 <HAL_TIM_OC_Start_IT+0x32>
  if (TIM_CHANNEL_STATE_GET(htim, Channel) != HAL_TIM_CHANNEL_STATE_READY)
 8004ad2:	2341      	movs	r3, #65	@ 0x41
 8004ad4:	5cc2      	ldrb	r2, [r0, r3]
 8004ad6:	2a01      	cmp	r2, #1
 8004ad8:	d1af      	bne.n	8004a3a <HAL_TIM_OC_Start_IT+0x1a>
  TIM_CHANNEL_STATE_SET(htim, Channel, HAL_TIM_CHANNEL_STATE_BUSY);
 8004ada:	2202      	movs	r2, #2
 8004adc:	54c2      	strb	r2, [r0, r3]
      __HAL_TIM_ENABLE_IT(htim, TIM_IT_CC4);
 8004ade:	6803      	ldr	r3, [r0, #0]
 8004ae0:	2010      	movs	r0, #16
 8004ae2:	68da      	ldr	r2, [r3, #12]
 8004ae4:	4302      	orrs	r2, r0
 8004ae6:	60da      	str	r2, [r3, #12]
  if (status == HAL_OK)
 8004ae8:	e7b3      	b.n	8004a52 <HAL_TIM_OC_Start_IT+0x32>
  if (TIM_CHANNEL_STATE_GET(htim, Channel) != HAL_TIM_CHANNEL_STATE_READY)
 8004aea:	2342      	movs	r3, #66	@ 0x42
 8004aec:	5cc2      	ldrb	r2, [r0, r3]
 8004aee:	2a01      	cmp	r2, #1
 8004af0:	d0a1      	beq.n	8004a36 <HAL_TIM_OC_Start_IT+0x16>
 8004af2:	e7a2      	b.n	8004a3a <HAL_TIM_OC_Start_IT+0x1a>
      __HAL_TIM_MOE_ENABLE(htim);
 8004af4:	2280      	movs	r2, #128	@ 0x80
 8004af6:	6c59      	ldr	r1, [r3, #68]	@ 0x44
 8004af8:	0212      	lsls	r2, r2, #8
 8004afa:	430a      	orrs	r2, r1
 8004afc:	645a      	str	r2, [r3, #68]	@ 0x44
    if (IS_TIM_SLAVE_INSTANCE(htim->Instance))
 8004afe:	e7ca      	b.n	8004a96 <HAL_TIM_OC_Start_IT+0x76>
      __HAL_TIM_MOE_ENABLE(htim);
 8004b00:	2280      	movs	r2, #128	@ 0x80
 8004b02:	6c59      	ldr	r1, [r3, #68]	@ 0x44
 8004b04:	0212      	lsls	r2, r2, #8
 8004b06:	430a      	orrs	r2, r1
 8004b08:	645a      	str	r2, [r3, #68]	@ 0x44
    if (IS_TIM_SLAVE_INSTANCE(htim->Instance))
 8004b0a:	e7bc      	b.n	8004a86 <HAL_TIM_OC_Start_IT+0x66>
 8004b0c:	080075d8 	.word	0x080075d8
 8004b10:	40012c00 	.word	0x40012c00
 8004b14:	40014400 	.word	0x40014400
 8004b18:	40014800 	.word	0x40014800
 8004b1c:	40000400 	.word	0x40000400
 8004b20:	00010007 	.word	0x00010007

08004b24 <HAL_TIM_OC_Stop_IT>:
{
 8004b24:	b530      	push	{r4, r5, lr}
  switch (Channel)
 8004b26:	2908      	cmp	r1, #8
 8004b28:	d004      	beq.n	8004b34 <HAL_TIM_OC_Stop_IT+0x10>
 8004b2a:	d845      	bhi.n	8004bb8 <HAL_TIM_OC_Stop_IT+0x94>
 8004b2c:	2900      	cmp	r1, #0
 8004b2e:	d052      	beq.n	8004bd6 <HAL_TIM_OC_Stop_IT+0xb2>
 8004b30:	2904      	cmp	r1, #4
 8004b32:	d14e      	bne.n	8004bd2 <HAL_TIM_OC_Stop_IT+0xae>
      __HAL_TIM_DISABLE_IT(htim, TIM_IT_CC3);
 8004b34:	6805      	ldr	r5, [r0, #0]
 8004b36:	68eb      	ldr	r3, [r5, #12]
 8004b38:	438b      	bics	r3, r1
 8004b3a:	60eb      	str	r3, [r5, #12]
  tmp = TIM_CCER_CC1E << (Channel & 0x1FU); /* 0x1FU = 31 bits max shift */
 8004b3c:	241f      	movs	r4, #31
 8004b3e:	2201      	movs	r2, #1
 8004b40:	400c      	ands	r4, r1
 8004b42:	40a2      	lsls	r2, r4
  TIMx->CCER &= ~tmp;
 8004b44:	6a2b      	ldr	r3, [r5, #32]
 8004b46:	4393      	bics	r3, r2
 8004b48:	622b      	str	r3, [r5, #32]
  TIMx->CCER |= (uint32_t)(ChannelState << (Channel & 0x1FU)); /* 0x1FU = 31 bits max shift */
 8004b4a:	6a2b      	ldr	r3, [r5, #32]
 8004b4c:	622b      	str	r3, [r5, #32]
    if (IS_TIM_BREAK_INSTANCE(htim->Instance) != RESET)
 8004b4e:	4b2f      	ldr	r3, [pc, #188]	@ (8004c0c <HAL_TIM_OC_Stop_IT+0xe8>)
 8004b50:	429d      	cmp	r5, r3
 8004b52:	d020      	beq.n	8004b96 <HAL_TIM_OC_Stop_IT+0x72>
 8004b54:	4b2e      	ldr	r3, [pc, #184]	@ (8004c10 <HAL_TIM_OC_Stop_IT+0xec>)
 8004b56:	429d      	cmp	r5, r3
 8004b58:	d01d      	beq.n	8004b96 <HAL_TIM_OC_Stop_IT+0x72>
 8004b5a:	4b2e      	ldr	r3, [pc, #184]	@ (8004c14 <HAL_TIM_OC_Stop_IT+0xf0>)
 8004b5c:	429d      	cmp	r5, r3
 8004b5e:	d01a      	beq.n	8004b96 <HAL_TIM_OC_Stop_IT+0x72>
    __HAL_TIM_DISABLE(htim);
 8004b60:	6a2a      	ldr	r2, [r5, #32]
 8004b62:	4b2d      	ldr	r3, [pc, #180]	@ (8004c18 <HAL_TIM_OC_Stop_IT+0xf4>)
 8004b64:	421a      	tst	r2, r3
 8004b66:	d107      	bne.n	8004b78 <HAL_TIM_OC_Stop_IT+0x54>
 8004b68:	6a2a      	ldr	r2, [r5, #32]
 8004b6a:	4b2c      	ldr	r3, [pc, #176]	@ (8004c1c <HAL_TIM_OC_Stop_IT+0xf8>)
 8004b6c:	421a      	tst	r2, r3
 8004b6e:	d103      	bne.n	8004b78 <HAL_TIM_OC_Stop_IT+0x54>
 8004b70:	2201      	movs	r2, #1
 8004b72:	682b      	ldr	r3, [r5, #0]
 8004b74:	4393      	bics	r3, r2
 8004b76:	602b      	str	r3, [r5, #0]
    TIM_CHANNEL_STATE_SET(htim, Channel, HAL_TIM_CHANNEL_STATE_READY);
 8004b78:	2900      	cmp	r1, #0
 8004b7a:	d025      	beq.n	8004bc8 <HAL_TIM_OC_Stop_IT+0xa4>
 8004b7c:	2904      	cmp	r1, #4
 8004b7e:	d035      	beq.n	8004bec <HAL_TIM_OC_Stop_IT+0xc8>
 8004b80:	2908      	cmp	r1, #8
 8004b82:	d02e      	beq.n	8004be2 <HAL_TIM_OC_Stop_IT+0xbe>
 8004b84:	290c      	cmp	r1, #12
 8004b86:	d036      	beq.n	8004bf6 <HAL_TIM_OC_Stop_IT+0xd2>
 8004b88:	2910      	cmp	r1, #16
 8004b8a:	d039      	beq.n	8004c00 <HAL_TIM_OC_Stop_IT+0xdc>
 8004b8c:	2343      	movs	r3, #67	@ 0x43
 8004b8e:	2201      	movs	r2, #1
 8004b90:	54c2      	strb	r2, [r0, r3]
  switch (Channel)
 8004b92:	2000      	movs	r0, #0
 8004b94:	e01e      	b.n	8004bd4 <HAL_TIM_OC_Stop_IT+0xb0>
      __HAL_TIM_MOE_DISABLE(htim);
 8004b96:	6a2a      	ldr	r2, [r5, #32]
 8004b98:	4b1f      	ldr	r3, [pc, #124]	@ (8004c18 <HAL_TIM_OC_Stop_IT+0xf4>)
 8004b9a:	421a      	tst	r2, r3
 8004b9c:	d1e0      	bne.n	8004b60 <HAL_TIM_OC_Stop_IT+0x3c>
 8004b9e:	6a2a      	ldr	r2, [r5, #32]
 8004ba0:	4b1e      	ldr	r3, [pc, #120]	@ (8004c1c <HAL_TIM_OC_Stop_IT+0xf8>)
 8004ba2:	421a      	tst	r2, r3
 8004ba4:	d1dc      	bne.n	8004b60 <HAL_TIM_OC_Stop_IT+0x3c>
 8004ba6:	6c6b      	ldr	r3, [r5, #68]	@ 0x44
 8004ba8:	4a1d      	ldr	r2, [pc, #116]	@ (8004c20 <HAL_TIM_OC_Stop_IT+0xfc>)
 8004baa:	4013      	ands	r3, r2
 8004bac:	646b      	str	r3, [r5, #68]	@ 0x44
    __HAL_TIM_DISABLE(htim);
 8004bae:	6a2a      	ldr	r2, [r5, #32]
 8004bb0:	4b19      	ldr	r3, [pc, #100]	@ (8004c18 <HAL_TIM_OC_Stop_IT+0xf4>)
 8004bb2:	421a      	tst	r2, r3
 8004bb4:	d1e0      	bne.n	8004b78 <HAL_TIM_OC_Stop_IT+0x54>
 8004bb6:	e7d7      	b.n	8004b68 <HAL_TIM_OC_Stop_IT+0x44>
  switch (Channel)
 8004bb8:	290c      	cmp	r1, #12
 8004bba:	d10a      	bne.n	8004bd2 <HAL_TIM_OC_Stop_IT+0xae>
      __HAL_TIM_DISABLE_IT(htim, TIM_IT_CC4);
 8004bbc:	2210      	movs	r2, #16
 8004bbe:	6805      	ldr	r5, [r0, #0]
 8004bc0:	68eb      	ldr	r3, [r5, #12]
 8004bc2:	4393      	bics	r3, r2
 8004bc4:	60eb      	str	r3, [r5, #12]
  if (status == HAL_OK)
 8004bc6:	e7b9      	b.n	8004b3c <HAL_TIM_OC_Stop_IT+0x18>
    TIM_CHANNEL_STATE_SET(htim, Channel, HAL_TIM_CHANNEL_STATE_READY);
 8004bc8:	233e      	movs	r3, #62	@ 0x3e
 8004bca:	2201      	movs	r2, #1
 8004bcc:	54c2      	strb	r2, [r0, r3]
  switch (Channel)
 8004bce:	2000      	movs	r0, #0
 8004bd0:	e000      	b.n	8004bd4 <HAL_TIM_OC_Stop_IT+0xb0>
 8004bd2:	2001      	movs	r0, #1
}
 8004bd4:	bd30      	pop	{r4, r5, pc}
      __HAL_TIM_DISABLE_IT(htim, TIM_IT_CC1);
 8004bd6:	2202      	movs	r2, #2
 8004bd8:	6805      	ldr	r5, [r0, #0]
 8004bda:	68eb      	ldr	r3, [r5, #12]
 8004bdc:	4393      	bics	r3, r2
 8004bde:	60eb      	str	r3, [r5, #12]
  if (status == HAL_OK)
 8004be0:	e7ac      	b.n	8004b3c <HAL_TIM_OC_Stop_IT+0x18>
    TIM_CHANNEL_STATE_SET(htim, Channel, HAL_TIM_CHANNEL_STATE_READY);
 8004be2:	2340      	movs	r3, #64	@ 0x40
 8004be4:	2201      	movs	r2, #1
 8004be6:	54c2      	strb	r2, [r0, r3]
  switch (Channel)
 8004be8:	2000      	movs	r0, #0
 8004bea:	e7f3      	b.n	8004bd4 <HAL_TIM_OC_Stop_IT+0xb0>
    TIM_CHANNEL_STATE_SET(htim, Channel, HAL_TIM_CHANNEL_STATE_READY);
 8004bec:	233f      	movs	r3, #63	@ 0x3f
 8004bee:	2201      	movs	r2, #1
 8004bf0:	54c2      	strb	r2, [r0, r3]
  switch (Channel)
 8004bf2:	2000      	movs	r0, #0
 8004bf4:	e7ee      	b.n	8004bd4 <HAL_TIM_OC_Stop_IT+0xb0>
    TIM_CHANNEL_STATE_SET(htim, Channel, HAL_TIM_CHANNEL_STATE_READY);
 8004bf6:	2341      	movs	r3, #65	@ 0x41
 8004bf8:	2201      	movs	r2, #1
 8004bfa:	54c2      	strb	r2, [r0, r3]
  switch (Channel)
 8004bfc:	2000      	movs	r0, #0
 8004bfe:	e7e9      	b.n	8004bd4 <HAL_TIM_OC_Stop_IT+0xb0>
    TIM_CHANNEL_STATE_SET(htim, Channel, HAL_TIM_CHANNEL_STATE_READY);
 8004c00:	2342      	movs	r3, #66	@ 0x42
 8004c02:	2201      	movs	r2, #1
 8004c04:	54c2      	strb	r2, [r0, r3]
  switch (Channel)
 8004c06:	2000      	movs	r0, #0
 8004c08:	e7e4      	b.n	8004bd4 <HAL_TIM_OC_Stop_IT+0xb0>
 8004c0a:	46c0      	nop			@ (mov r8, r8)
 8004c0c:	40012c00 	.word	0x40012c00
 8004c10:	40014400 	.word	0x40014400
 8004c14:	40014800 	.word	0x40014800
 8004c18:	00001111 	.word	0x00001111
 8004c1c:	00000444 	.word	0x00000444
 8004c20:	ffff7fff 	.word	0xffff7fff

08004c24 <HAL_TIM_PWM_Init>:
{
 8004c24:	b570      	push	{r4, r5, r6, lr}
 8004c26:	1e04      	subs	r4, r0, #0
  if (htim == NULL)
 8004c28:	d100      	bne.n	8004c2c <HAL_TIM_PWM_Init+0x8>
 8004c2a:	e093      	b.n	8004d54 <HAL_TIM_PWM_Init+0x130>
  if (htim->State == HAL_TIM_STATE_RESET)
 8004c2c:	233d      	movs	r3, #61	@ 0x3d
 8004c2e:	5cc3      	ldrb	r3, [r0, r3]
 8004c30:	b2da      	uxtb	r2, r3
 8004c32:	2b00      	cmp	r3, #0
 8004c34:	d130      	bne.n	8004c98 <HAL_TIM_PWM_Init+0x74>
    htim->Lock = HAL_UNLOCKED;
 8004c36:	333c      	adds	r3, #60	@ 0x3c
 8004c38:	54c2      	strb	r2, [r0, r3]
  htim->PeriodElapsedCallback             = HAL_TIM_PeriodElapsedCallback;
 8004c3a:	2284      	movs	r2, #132	@ 0x84
 8004c3c:	4b48      	ldr	r3, [pc, #288]	@ (8004d60 <HAL_TIM_PWM_Init+0x13c>)
 8004c3e:	5083      	str	r3, [r0, r2]
  htim->PeriodElapsedHalfCpltCallback     = HAL_TIM_PeriodElapsedHalfCpltCallback;
 8004c40:	4b48      	ldr	r3, [pc, #288]	@ (8004d64 <HAL_TIM_PWM_Init+0x140>)
 8004c42:	3204      	adds	r2, #4
 8004c44:	5083      	str	r3, [r0, r2]
  htim->TriggerCallback                   = HAL_TIM_TriggerCallback;
 8004c46:	4b48      	ldr	r3, [pc, #288]	@ (8004d68 <HAL_TIM_PWM_Init+0x144>)
 8004c48:	3204      	adds	r2, #4
 8004c4a:	5083      	str	r3, [r0, r2]
  htim->TriggerHalfCpltCallback           = HAL_TIM_TriggerHalfCpltCallback;
 8004c4c:	4b47      	ldr	r3, [pc, #284]	@ (8004d6c <HAL_TIM_PWM_Init+0x148>)
 8004c4e:	3204      	adds	r2, #4
 8004c50:	5083      	str	r3, [r0, r2]
  htim->IC_CaptureCallback                = HAL_TIM_IC_CaptureCallback;
 8004c52:	4b47      	ldr	r3, [pc, #284]	@ (8004d70 <HAL_TIM_PWM_Init+0x14c>)
 8004c54:	3204      	adds	r2, #4
 8004c56:	5083      	str	r3, [r0, r2]
  htim->IC_CaptureHalfCpltCallback        = HAL_TIM_IC_CaptureHalfCpltCallback;
 8004c58:	4b46      	ldr	r3, [pc, #280]	@ (8004d74 <HAL_TIM_PWM_Init+0x150>)
 8004c5a:	3204      	adds	r2, #4
 8004c5c:	5083      	str	r3, [r0, r2]
  htim->OC_DelayElapsedCallback           = HAL_TIM_OC_DelayElapsedCallback;
 8004c5e:	4b46      	ldr	r3, [pc, #280]	@ (8004d78 <HAL_TIM_PWM_Init+0x154>)
 8004c60:	3204      	adds	r2, #4
 8004c62:	5083      	str	r3, [r0, r2]
  htim->PWM_PulseFinishedCallback         = HAL_TIM_PWM_PulseFinishedCallback;
 8004c64:	4b45      	ldr	r3, [pc, #276]	@ (8004d7c <HAL_TIM_PWM_Init+0x158>)
 8004c66:	3204      	adds	r2, #4
 8004c68:	5083      	str	r3, [r0, r2]
  htim->PWM_PulseFinishedHalfCpltCallback = HAL_TIM_PWM_PulseFinishedHalfCpltCallback;
 8004c6a:	4b45      	ldr	r3, [pc, #276]	@ (8004d80 <HAL_TIM_PWM_Init+0x15c>)
 8004c6c:	3204      	adds	r2, #4
 8004c6e:	5083      	str	r3, [r0, r2]
  htim->ErrorCallback                     = HAL_TIM_ErrorCallback;
 8004c70:	4b44      	ldr	r3, [pc, #272]	@ (8004d84 <HAL_TIM_PWM_Init+0x160>)
 8004c72:	3204      	adds	r2, #4
 8004c74:	5083      	str	r3, [r0, r2]
  htim->CommutationCallback               = HAL_TIMEx_CommutCallback;
 8004c76:	4b44      	ldr	r3, [pc, #272]	@ (8004d88 <HAL_TIM_PWM_Init+0x164>)
 8004c78:	3204      	adds	r2, #4
 8004c7a:	5083      	str	r3, [r0, r2]
  htim->CommutationHalfCpltCallback       = HAL_TIMEx_CommutHalfCpltCallback;
 8004c7c:	4b43      	ldr	r3, [pc, #268]	@ (8004d8c <HAL_TIM_PWM_Init+0x168>)
 8004c7e:	3204      	adds	r2, #4
 8004c80:	5083      	str	r3, [r0, r2]
  htim->BreakCallback                     = HAL_TIMEx_BreakCallback;
 8004c82:	4b43      	ldr	r3, [pc, #268]	@ (8004d90 <HAL_TIM_PWM_Init+0x16c>)
 8004c84:	3204      	adds	r2, #4
 8004c86:	5083      	str	r3, [r0, r2]
  htim->Break2Callback                    = HAL_TIMEx_Break2Callback;
 8004c88:	4b42      	ldr	r3, [pc, #264]	@ (8004d94 <HAL_TIM_PWM_Init+0x170>)
 8004c8a:	3204      	adds	r2, #4
 8004c8c:	5083      	str	r3, [r0, r2]
    if (htim->PWM_MspInitCallback == NULL)
 8004c8e:	6e43      	ldr	r3, [r0, #100]	@ 0x64
 8004c90:	2b00      	cmp	r3, #0
 8004c92:	d061      	beq.n	8004d58 <HAL_TIM_PWM_Init+0x134>
    htim->PWM_MspInitCallback(htim);
 8004c94:	0020      	movs	r0, r4
 8004c96:	4798      	blx	r3
  htim->State = HAL_TIM_STATE_BUSY;
 8004c98:	233d      	movs	r3, #61	@ 0x3d
 8004c9a:	2202      	movs	r2, #2
 8004c9c:	54e2      	strb	r2, [r4, r3]
  TIM_Base_SetConfig(htim->Instance, &htim->Init);
 8004c9e:	6823      	ldr	r3, [r4, #0]
  if (IS_TIM_COUNTER_MODE_SELECT_INSTANCE(TIMx))
 8004ca0:	4e3d      	ldr	r6, [pc, #244]	@ (8004d98 <HAL_TIM_PWM_Init+0x174>)
  tmpcr1 = TIMx->CR1;
 8004ca2:	681a      	ldr	r2, [r3, #0]
  MODIFY_REG(tmpcr1, TIM_CR1_ARPE, Structure->AutoReloadPreload);
 8004ca4:	69a5      	ldr	r5, [r4, #24]
  TIMx->PSC = Structure->Prescaler;
 8004ca6:	6861      	ldr	r1, [r4, #4]
  TIMx->ARR = (uint32_t)Structure->Period ;
 8004ca8:	68e0      	ldr	r0, [r4, #12]
  if (IS_TIM_COUNTER_MODE_SELECT_INSTANCE(TIMx))
 8004caa:	42b3      	cmp	r3, r6
 8004cac:	d041      	beq.n	8004d32 <HAL_TIM_PWM_Init+0x10e>
 8004cae:	2680      	movs	r6, #128	@ 0x80
 8004cb0:	05f6      	lsls	r6, r6, #23
 8004cb2:	42b3      	cmp	r3, r6
 8004cb4:	d034      	beq.n	8004d20 <HAL_TIM_PWM_Init+0xfc>
 8004cb6:	4e39      	ldr	r6, [pc, #228]	@ (8004d9c <HAL_TIM_PWM_Init+0x178>)
 8004cb8:	42b3      	cmp	r3, r6
 8004cba:	d031      	beq.n	8004d20 <HAL_TIM_PWM_Init+0xfc>
  if (IS_TIM_CLOCK_DIVISION_INSTANCE(TIMx))
 8004cbc:	4e38      	ldr	r6, [pc, #224]	@ (8004da0 <HAL_TIM_PWM_Init+0x17c>)
 8004cbe:	42b3      	cmp	r3, r6
 8004cc0:	d032      	beq.n	8004d28 <HAL_TIM_PWM_Init+0x104>
 8004cc2:	4e38      	ldr	r6, [pc, #224]	@ (8004da4 <HAL_TIM_PWM_Init+0x180>)
 8004cc4:	42b3      	cmp	r3, r6
 8004cc6:	d038      	beq.n	8004d3a <HAL_TIM_PWM_Init+0x116>
 8004cc8:	4e37      	ldr	r6, [pc, #220]	@ (8004da8 <HAL_TIM_PWM_Init+0x184>)
 8004cca:	42b3      	cmp	r3, r6
 8004ccc:	d035      	beq.n	8004d3a <HAL_TIM_PWM_Init+0x116>
  MODIFY_REG(tmpcr1, TIM_CR1_ARPE, Structure->AutoReloadPreload);
 8004cce:	2680      	movs	r6, #128	@ 0x80
 8004cd0:	43b2      	bics	r2, r6
 8004cd2:	432a      	orrs	r2, r5
  TIMx->CR1 = tmpcr1;
 8004cd4:	601a      	str	r2, [r3, #0]
  TIMx->ARR = (uint32_t)Structure->Period ;
 8004cd6:	62d8      	str	r0, [r3, #44]	@ 0x2c
  TIMx->PSC = Structure->Prescaler;
 8004cd8:	6299      	str	r1, [r3, #40]	@ 0x28
  TIMx->EGR = TIM_EGR_UG;
 8004cda:	2201      	movs	r2, #1
 8004cdc:	615a      	str	r2, [r3, #20]
  if (HAL_IS_BIT_SET(TIMx->SR, TIM_FLAG_UPDATE))
 8004cde:	6919      	ldr	r1, [r3, #16]
 8004ce0:	420a      	tst	r2, r1
 8004ce2:	d002      	beq.n	8004cea <HAL_TIM_PWM_Init+0xc6>
    CLEAR_BIT(TIMx->SR, TIM_FLAG_UPDATE);
 8004ce4:	6919      	ldr	r1, [r3, #16]
 8004ce6:	4391      	bics	r1, r2
 8004ce8:	6119      	str	r1, [r3, #16]
  htim->DMABurstState = HAL_DMA_BURST_STATE_READY;
 8004cea:	2301      	movs	r3, #1
 8004cec:	2248      	movs	r2, #72	@ 0x48
  return HAL_OK;
 8004cee:	2000      	movs	r0, #0
  htim->DMABurstState = HAL_DMA_BURST_STATE_READY;
 8004cf0:	54a3      	strb	r3, [r4, r2]
  TIM_CHANNEL_STATE_SET_ALL(htim, HAL_TIM_CHANNEL_STATE_READY);
 8004cf2:	3a0a      	subs	r2, #10
 8004cf4:	54a3      	strb	r3, [r4, r2]
 8004cf6:	3201      	adds	r2, #1
 8004cf8:	54a3      	strb	r3, [r4, r2]
 8004cfa:	3201      	adds	r2, #1
 8004cfc:	54a3      	strb	r3, [r4, r2]
 8004cfe:	3201      	adds	r2, #1
 8004d00:	54a3      	strb	r3, [r4, r2]
 8004d02:	3201      	adds	r2, #1
 8004d04:	54a3      	strb	r3, [r4, r2]
 8004d06:	3201      	adds	r2, #1
 8004d08:	54a3      	strb	r3, [r4, r2]
  TIM_CHANNEL_N_STATE_SET_ALL(htim, HAL_TIM_CHANNEL_STATE_READY);
 8004d0a:	3201      	adds	r2, #1
 8004d0c:	54a3      	strb	r3, [r4, r2]
 8004d0e:	3201      	adds	r2, #1
 8004d10:	54a3      	strb	r3, [r4, r2]
 8004d12:	3201      	adds	r2, #1
 8004d14:	54a3      	strb	r3, [r4, r2]
 8004d16:	3201      	adds	r2, #1
 8004d18:	54a3      	strb	r3, [r4, r2]
  htim->State = HAL_TIM_STATE_READY;
 8004d1a:	3a0a      	subs	r2, #10
 8004d1c:	54a3      	strb	r3, [r4, r2]
}
 8004d1e:	bd70      	pop	{r4, r5, r6, pc}
    tmpcr1 &= ~(TIM_CR1_DIR | TIM_CR1_CMS);
 8004d20:	2670      	movs	r6, #112	@ 0x70
 8004d22:	43b2      	bics	r2, r6
    tmpcr1 |= Structure->CounterMode;
 8004d24:	68a6      	ldr	r6, [r4, #8]
 8004d26:	4332      	orrs	r2, r6
    tmpcr1 &= ~TIM_CR1_CKD;
 8004d28:	4e20      	ldr	r6, [pc, #128]	@ (8004dac <HAL_TIM_PWM_Init+0x188>)
 8004d2a:	4032      	ands	r2, r6
    tmpcr1 |= (uint32_t)Structure->ClockDivision;
 8004d2c:	6926      	ldr	r6, [r4, #16]
 8004d2e:	4332      	orrs	r2, r6
 8004d30:	e7cd      	b.n	8004cce <HAL_TIM_PWM_Init+0xaa>
    tmpcr1 &= ~(TIM_CR1_DIR | TIM_CR1_CMS);
 8004d32:	2670      	movs	r6, #112	@ 0x70
 8004d34:	43b2      	bics	r2, r6
    tmpcr1 |= Structure->CounterMode;
 8004d36:	68a6      	ldr	r6, [r4, #8]
 8004d38:	4332      	orrs	r2, r6
    tmpcr1 &= ~TIM_CR1_CKD;
 8004d3a:	4e1c      	ldr	r6, [pc, #112]	@ (8004dac <HAL_TIM_PWM_Init+0x188>)
 8004d3c:	4032      	ands	r2, r6
    tmpcr1 |= (uint32_t)Structure->ClockDivision;
 8004d3e:	6926      	ldr	r6, [r4, #16]
 8004d40:	4332      	orrs	r2, r6
  MODIFY_REG(tmpcr1, TIM_CR1_ARPE, Structure->AutoReloadPreload);
 8004d42:	2680      	movs	r6, #128	@ 0x80
 8004d44:	43b2      	bics	r2, r6
 8004d46:	432a      	orrs	r2, r5
  TIMx->CR1 = tmpcr1;
 8004d48:	601a      	str	r2, [r3, #0]
  TIMx->ARR = (uint32_t)Structure->Period ;
 8004d4a:	62d8      	str	r0, [r3, #44]	@ 0x2c
  TIMx->PSC = Structure->Prescaler;
 8004d4c:	6299      	str	r1, [r3, #40]	@ 0x28
    TIMx->RCR = Structure->RepetitionCounter;
 8004d4e:	6962      	ldr	r2, [r4, #20]
 8004d50:	631a      	str	r2, [r3, #48]	@ 0x30
 8004d52:	e7c2      	b.n	8004cda <HAL_TIM_PWM_Init+0xb6>
    return HAL_ERROR;
 8004d54:	2001      	movs	r0, #1
 8004d56:	e7e2      	b.n	8004d1e <HAL_TIM_PWM_Init+0xfa>
      htim->PWM_MspInitCallback = HAL_TIM_PWM_MspInit;
 8004d58:	4b15      	ldr	r3, [pc, #84]	@ (8004db0 <HAL_TIM_PWM_Init+0x18c>)
 8004d5a:	6643      	str	r3, [r0, #100]	@ 0x64
 8004d5c:	e79a      	b.n	8004c94 <HAL_TIM_PWM_Init+0x70>
 8004d5e:	46c0      	nop			@ (mov r8, r8)
 8004d60:	08004619 	.word	0x08004619
 8004d64:	0800461d 	.word	0x0800461d
 8004d68:	08004635 	.word	0x08004635
 8004d6c:	08004639 	.word	0x08004639
 8004d70:	08004625 	.word	0x08004625
 8004d74:	08004629 	.word	0x08004629
 8004d78:	08004621 	.word	0x08004621
 8004d7c:	0800462d 	.word	0x0800462d
 8004d80:	08004631 	.word	0x08004631
 8004d84:	0800463d 	.word	0x0800463d
 8004d88:	08005ead 	.word	0x08005ead
 8004d8c:	08005eb1 	.word	0x08005eb1
 8004d90:	08005eb5 	.word	0x08005eb5
 8004d94:	08005eb9 	.word	0x08005eb9
 8004d98:	40012c00 	.word	0x40012c00
 8004d9c:	40000400 	.word	0x40000400
 8004da0:	40002000 	.word	0x40002000
 8004da4:	40014400 	.word	0x40014400
 8004da8:	40014800 	.word	0x40014800
 8004dac:	fffffcff 	.word	0xfffffcff
 8004db0:	08004611 	.word	0x08004611

08004db4 <HAL_TIM_PWM_Start>:
HAL_StatusTypeDef HAL_TIM_PWM_Start(TIM_HandleTypeDef *htim, uint32_t Channel)
 8004db4:	2910      	cmp	r1, #16
 8004db6:	d803      	bhi.n	8004dc0 <HAL_TIM_PWM_Start+0xc>
 8004db8:	4a2c      	ldr	r2, [pc, #176]	@ (8004e6c <HAL_TIM_PWM_Start+0xb8>)
 8004dba:	008b      	lsls	r3, r1, #2
 8004dbc:	58d3      	ldr	r3, [r2, r3]
 8004dbe:	469f      	mov	pc, r3
 8004dc0:	2343      	movs	r3, #67	@ 0x43
 8004dc2:	5cc2      	ldrb	r2, [r0, r3]
 8004dc4:	2a01      	cmp	r2, #1
 8004dc6:	d12e      	bne.n	8004e26 <HAL_TIM_PWM_Start+0x72>
 8004dc8:	2202      	movs	r2, #2
 8004dca:	54c2      	strb	r2, [r0, r3]
 8004dcc:	221f      	movs	r2, #31
 8004dce:	4011      	ands	r1, r2
 8004dd0:	3a1e      	subs	r2, #30
 8004dd2:	408a      	lsls	r2, r1
 8004dd4:	6803      	ldr	r3, [r0, #0]
 8004dd6:	6a19      	ldr	r1, [r3, #32]
 8004dd8:	4391      	bics	r1, r2
 8004dda:	6219      	str	r1, [r3, #32]
 8004ddc:	6a19      	ldr	r1, [r3, #32]
 8004dde:	430a      	orrs	r2, r1
 8004de0:	621a      	str	r2, [r3, #32]
 8004de2:	4a23      	ldr	r2, [pc, #140]	@ (8004e70 <HAL_TIM_PWM_Start+0xbc>)
 8004de4:	4293      	cmp	r3, r2
 8004de6:	d03a      	beq.n	8004e5e <HAL_TIM_PWM_Start+0xaa>
 8004de8:	4a22      	ldr	r2, [pc, #136]	@ (8004e74 <HAL_TIM_PWM_Start+0xc0>)
 8004dea:	4293      	cmp	r3, r2
 8004dec:	d031      	beq.n	8004e52 <HAL_TIM_PWM_Start+0x9e>
 8004dee:	4a22      	ldr	r2, [pc, #136]	@ (8004e78 <HAL_TIM_PWM_Start+0xc4>)
 8004df0:	4293      	cmp	r3, r2
 8004df2:	d02e      	beq.n	8004e52 <HAL_TIM_PWM_Start+0x9e>
 8004df4:	2280      	movs	r2, #128	@ 0x80
 8004df6:	05d2      	lsls	r2, r2, #23
 8004df8:	4293      	cmp	r3, r2
 8004dfa:	d002      	beq.n	8004e02 <HAL_TIM_PWM_Start+0x4e>
 8004dfc:	4a1f      	ldr	r2, [pc, #124]	@ (8004e7c <HAL_TIM_PWM_Start+0xc8>)
 8004dfe:	4293      	cmp	r3, r2
 8004e00:	d107      	bne.n	8004e12 <HAL_TIM_PWM_Start+0x5e>
 8004e02:	689a      	ldr	r2, [r3, #8]
 8004e04:	491e      	ldr	r1, [pc, #120]	@ (8004e80 <HAL_TIM_PWM_Start+0xcc>)
 8004e06:	400a      	ands	r2, r1
 8004e08:	2a06      	cmp	r2, #6
 8004e0a:	d006      	beq.n	8004e1a <HAL_TIM_PWM_Start+0x66>
 8004e0c:	3907      	subs	r1, #7
 8004e0e:	428a      	cmp	r2, r1
 8004e10:	d003      	beq.n	8004e1a <HAL_TIM_PWM_Start+0x66>
 8004e12:	2101      	movs	r1, #1
 8004e14:	681a      	ldr	r2, [r3, #0]
 8004e16:	430a      	orrs	r2, r1
 8004e18:	601a      	str	r2, [r3, #0]
 8004e1a:	2000      	movs	r0, #0
 8004e1c:	4770      	bx	lr
 8004e1e:	233e      	movs	r3, #62	@ 0x3e
 8004e20:	5cc2      	ldrb	r2, [r0, r3]
 8004e22:	2a01      	cmp	r2, #1
 8004e24:	d0d0      	beq.n	8004dc8 <HAL_TIM_PWM_Start+0x14>
 8004e26:	2001      	movs	r0, #1
 8004e28:	e7f8      	b.n	8004e1c <HAL_TIM_PWM_Start+0x68>
 8004e2a:	233f      	movs	r3, #63	@ 0x3f
 8004e2c:	5cc2      	ldrb	r2, [r0, r3]
 8004e2e:	2a01      	cmp	r2, #1
 8004e30:	d0ca      	beq.n	8004dc8 <HAL_TIM_PWM_Start+0x14>
 8004e32:	e7f8      	b.n	8004e26 <HAL_TIM_PWM_Start+0x72>
 8004e34:	2340      	movs	r3, #64	@ 0x40
 8004e36:	5cc2      	ldrb	r2, [r0, r3]
 8004e38:	2a01      	cmp	r2, #1
 8004e3a:	d0c5      	beq.n	8004dc8 <HAL_TIM_PWM_Start+0x14>
 8004e3c:	e7f3      	b.n	8004e26 <HAL_TIM_PWM_Start+0x72>
 8004e3e:	2341      	movs	r3, #65	@ 0x41
 8004e40:	5cc2      	ldrb	r2, [r0, r3]
 8004e42:	2a01      	cmp	r2, #1
 8004e44:	d0c0      	beq.n	8004dc8 <HAL_TIM_PWM_Start+0x14>
 8004e46:	e7ee      	b.n	8004e26 <HAL_TIM_PWM_Start+0x72>
 8004e48:	2342      	movs	r3, #66	@ 0x42
 8004e4a:	5cc2      	ldrb	r2, [r0, r3]
 8004e4c:	2a01      	cmp	r2, #1
 8004e4e:	d0bb      	beq.n	8004dc8 <HAL_TIM_PWM_Start+0x14>
 8004e50:	e7e9      	b.n	8004e26 <HAL_TIM_PWM_Start+0x72>
 8004e52:	2280      	movs	r2, #128	@ 0x80
 8004e54:	6c59      	ldr	r1, [r3, #68]	@ 0x44
 8004e56:	0212      	lsls	r2, r2, #8
 8004e58:	430a      	orrs	r2, r1
 8004e5a:	645a      	str	r2, [r3, #68]	@ 0x44
 8004e5c:	e7d9      	b.n	8004e12 <HAL_TIM_PWM_Start+0x5e>
 8004e5e:	2280      	movs	r2, #128	@ 0x80
 8004e60:	6c59      	ldr	r1, [r3, #68]	@ 0x44
 8004e62:	0212      	lsls	r2, r2, #8
 8004e64:	430a      	orrs	r2, r1
 8004e66:	645a      	str	r2, [r3, #68]	@ 0x44
 8004e68:	e7cb      	b.n	8004e02 <HAL_TIM_PWM_Start+0x4e>
 8004e6a:	46c0      	nop			@ (mov r8, r8)
 8004e6c:	0800761c 	.word	0x0800761c
 8004e70:	40012c00 	.word	0x40012c00
 8004e74:	40014400 	.word	0x40014400
 8004e78:	40014800 	.word	0x40014800
 8004e7c:	40000400 	.word	0x40000400
 8004e80:	00010007 	.word	0x00010007

08004e84 <HAL_TIM_IC_Init>:
{
 8004e84:	b570      	push	{r4, r5, r6, lr}
 8004e86:	1e04      	subs	r4, r0, #0
  if (htim == NULL)
 8004e88:	d100      	bne.n	8004e8c <HAL_TIM_IC_Init+0x8>
 8004e8a:	e093      	b.n	8004fb4 <HAL_TIM_IC_Init+0x130>
  if (htim->State == HAL_TIM_STATE_RESET)
 8004e8c:	233d      	movs	r3, #61	@ 0x3d
 8004e8e:	5cc3      	ldrb	r3, [r0, r3]
 8004e90:	b2da      	uxtb	r2, r3
 8004e92:	2b00      	cmp	r3, #0
 8004e94:	d130      	bne.n	8004ef8 <HAL_TIM_IC_Init+0x74>
    htim->Lock = HAL_UNLOCKED;
 8004e96:	333c      	adds	r3, #60	@ 0x3c
 8004e98:	54c2      	strb	r2, [r0, r3]
  htim->PeriodElapsedCallback             = HAL_TIM_PeriodElapsedCallback;
 8004e9a:	2284      	movs	r2, #132	@ 0x84
 8004e9c:	4b48      	ldr	r3, [pc, #288]	@ (8004fc0 <HAL_TIM_IC_Init+0x13c>)
 8004e9e:	5083      	str	r3, [r0, r2]
  htim->PeriodElapsedHalfCpltCallback     = HAL_TIM_PeriodElapsedHalfCpltCallback;
 8004ea0:	4b48      	ldr	r3, [pc, #288]	@ (8004fc4 <HAL_TIM_IC_Init+0x140>)
 8004ea2:	3204      	adds	r2, #4
 8004ea4:	5083      	str	r3, [r0, r2]
  htim->TriggerCallback                   = HAL_TIM_TriggerCallback;
 8004ea6:	4b48      	ldr	r3, [pc, #288]	@ (8004fc8 <HAL_TIM_IC_Init+0x144>)
 8004ea8:	3204      	adds	r2, #4
 8004eaa:	5083      	str	r3, [r0, r2]
  htim->TriggerHalfCpltCallback           = HAL_TIM_TriggerHalfCpltCallback;
 8004eac:	4b47      	ldr	r3, [pc, #284]	@ (8004fcc <HAL_TIM_IC_Init+0x148>)
 8004eae:	3204      	adds	r2, #4
 8004eb0:	5083      	str	r3, [r0, r2]
  htim->IC_CaptureCallback                = HAL_TIM_IC_CaptureCallback;
 8004eb2:	4b47      	ldr	r3, [pc, #284]	@ (8004fd0 <HAL_TIM_IC_Init+0x14c>)
 8004eb4:	3204      	adds	r2, #4
 8004eb6:	5083      	str	r3, [r0, r2]
  htim->IC_CaptureHalfCpltCallback        = HAL_TIM_IC_CaptureHalfCpltCallback;
 8004eb8:	4b46      	ldr	r3, [pc, #280]	@ (8004fd4 <HAL_TIM_IC_Init+0x150>)
 8004eba:	3204      	adds	r2, #4
 8004ebc:	5083      	str	r3, [r0, r2]
  htim->OC_DelayElapsedCallback           = HAL_TIM_OC_DelayElapsedCallback;
 8004ebe:	4b46      	ldr	r3, [pc, #280]	@ (8004fd8 <HAL_TIM_IC_Init+0x154>)
 8004ec0:	3204      	adds	r2, #4
 8004ec2:	5083      	str	r3, [r0, r2]
  htim->PWM_PulseFinishedCallback         = HAL_TIM_PWM_PulseFinishedCallback;
 8004ec4:	4b45      	ldr	r3, [pc, #276]	@ (8004fdc <HAL_TIM_IC_Init+0x158>)
 8004ec6:	3204      	adds	r2, #4
 8004ec8:	5083      	str	r3, [r0, r2]
  htim->PWM_PulseFinishedHalfCpltCallback = HAL_TIM_PWM_PulseFinishedHalfCpltCallback;
 8004eca:	4b45      	ldr	r3, [pc, #276]	@ (8004fe0 <HAL_TIM_IC_Init+0x15c>)
 8004ecc:	3204      	adds	r2, #4
 8004ece:	5083      	str	r3, [r0, r2]
  htim->ErrorCallback                     = HAL_TIM_ErrorCallback;
 8004ed0:	4b44      	ldr	r3, [pc, #272]	@ (8004fe4 <HAL_TIM_IC_Init+0x160>)
 8004ed2:	3204      	adds	r2, #4
 8004ed4:	5083      	str	r3, [r0, r2]
  htim->CommutationCallback               = HAL_TIMEx_CommutCallback;
 8004ed6:	4b44      	ldr	r3, [pc, #272]	@ (8004fe8 <HAL_TIM_IC_Init+0x164>)
 8004ed8:	3204      	adds	r2, #4
 8004eda:	5083      	str	r3, [r0, r2]
  htim->CommutationHalfCpltCallback       = HAL_TIMEx_CommutHalfCpltCallback;
 8004edc:	4b43      	ldr	r3, [pc, #268]	@ (8004fec <HAL_TIM_IC_Init+0x168>)
 8004ede:	3204      	adds	r2, #4
 8004ee0:	5083      	str	r3, [r0, r2]
  htim->BreakCallback                     = HAL_TIMEx_BreakCallback;
 8004ee2:	4b43      	ldr	r3, [pc, #268]	@ (8004ff0 <HAL_TIM_IC_Init+0x16c>)
 8004ee4:	3204      	adds	r2, #4
 8004ee6:	5083      	str	r3, [r0, r2]
  htim->Break2Callback                    = HAL_TIMEx_Break2Callback;
 8004ee8:	4b42      	ldr	r3, [pc, #264]	@ (8004ff4 <HAL_TIM_IC_Init+0x170>)
 8004eea:	3204      	adds	r2, #4
 8004eec:	5083      	str	r3, [r0, r2]
    if (htim->IC_MspInitCallback == NULL)
 8004eee:	6d43      	ldr	r3, [r0, #84]	@ 0x54
 8004ef0:	2b00      	cmp	r3, #0
 8004ef2:	d061      	beq.n	8004fb8 <HAL_TIM_IC_Init+0x134>
    htim->IC_MspInitCallback(htim);
 8004ef4:	0020      	movs	r0, r4
 8004ef6:	4798      	blx	r3
  htim->State = HAL_TIM_STATE_BUSY;
 8004ef8:	233d      	movs	r3, #61	@ 0x3d
 8004efa:	2202      	movs	r2, #2
 8004efc:	54e2      	strb	r2, [r4, r3]
  TIM_Base_SetConfig(htim->Instance, &htim->Init);
 8004efe:	6823      	ldr	r3, [r4, #0]
  if (IS_TIM_COUNTER_MODE_SELECT_INSTANCE(TIMx))
 8004f00:	4e3d      	ldr	r6, [pc, #244]	@ (8004ff8 <HAL_TIM_IC_Init+0x174>)
  tmpcr1 = TIMx->CR1;
 8004f02:	681a      	ldr	r2, [r3, #0]
  MODIFY_REG(tmpcr1, TIM_CR1_ARPE, Structure->AutoReloadPreload);
 8004f04:	69a5      	ldr	r5, [r4, #24]
  TIMx->PSC = Structure->Prescaler;
 8004f06:	6861      	ldr	r1, [r4, #4]
  TIMx->ARR = (uint32_t)Structure->Period ;
 8004f08:	68e0      	ldr	r0, [r4, #12]
  if (IS_TIM_COUNTER_MODE_SELECT_INSTANCE(TIMx))
 8004f0a:	42b3      	cmp	r3, r6
 8004f0c:	d041      	beq.n	8004f92 <HAL_TIM_IC_Init+0x10e>
 8004f0e:	2680      	movs	r6, #128	@ 0x80
 8004f10:	05f6      	lsls	r6, r6, #23
 8004f12:	42b3      	cmp	r3, r6
 8004f14:	d034      	beq.n	8004f80 <HAL_TIM_IC_Init+0xfc>
 8004f16:	4e39      	ldr	r6, [pc, #228]	@ (8004ffc <HAL_TIM_IC_Init+0x178>)
 8004f18:	42b3      	cmp	r3, r6
 8004f1a:	d031      	beq.n	8004f80 <HAL_TIM_IC_Init+0xfc>
  if (IS_TIM_CLOCK_DIVISION_INSTANCE(TIMx))
 8004f1c:	4e38      	ldr	r6, [pc, #224]	@ (8005000 <HAL_TIM_IC_Init+0x17c>)
 8004f1e:	42b3      	cmp	r3, r6
 8004f20:	d032      	beq.n	8004f88 <HAL_TIM_IC_Init+0x104>
 8004f22:	4e38      	ldr	r6, [pc, #224]	@ (8005004 <HAL_TIM_IC_Init+0x180>)
 8004f24:	42b3      	cmp	r3, r6
 8004f26:	d038      	beq.n	8004f9a <HAL_TIM_IC_Init+0x116>
 8004f28:	4e37      	ldr	r6, [pc, #220]	@ (8005008 <HAL_TIM_IC_Init+0x184>)
 8004f2a:	42b3      	cmp	r3, r6
 8004f2c:	d035      	beq.n	8004f9a <HAL_TIM_IC_Init+0x116>
  MODIFY_REG(tmpcr1, TIM_CR1_ARPE, Structure->AutoReloadPreload);
 8004f2e:	2680      	movs	r6, #128	@ 0x80
 8004f30:	43b2      	bics	r2, r6
 8004f32:	432a      	orrs	r2, r5
  TIMx->CR1 = tmpcr1;
 8004f34:	601a      	str	r2, [r3, #0]
  TIMx->ARR = (uint32_t)Structure->Period ;
 8004f36:	62d8      	str	r0, [r3, #44]	@ 0x2c
  TIMx->PSC = Structure->Prescaler;
 8004f38:	6299      	str	r1, [r3, #40]	@ 0x28
  TIMx->EGR = TIM_EGR_UG;
 8004f3a:	2201      	movs	r2, #1
 8004f3c:	615a      	str	r2, [r3, #20]
  if (HAL_IS_BIT_SET(TIMx->SR, TIM_FLAG_UPDATE))
 8004f3e:	6919      	ldr	r1, [r3, #16]
 8004f40:	420a      	tst	r2, r1
 8004f42:	d002      	beq.n	8004f4a <HAL_TIM_IC_Init+0xc6>
    CLEAR_BIT(TIMx->SR, TIM_FLAG_UPDATE);
 8004f44:	6919      	ldr	r1, [r3, #16]
 8004f46:	4391      	bics	r1, r2
 8004f48:	6119      	str	r1, [r3, #16]
  htim->DMABurstState = HAL_DMA_BURST_STATE_READY;
 8004f4a:	2301      	movs	r3, #1
 8004f4c:	2248      	movs	r2, #72	@ 0x48
  return HAL_OK;
 8004f4e:	2000      	movs	r0, #0
  htim->DMABurstState = HAL_DMA_BURST_STATE_READY;
 8004f50:	54a3      	strb	r3, [r4, r2]
  TIM_CHANNEL_STATE_SET_ALL(htim, HAL_TIM_CHANNEL_STATE_READY);
 8004f52:	3a0a      	subs	r2, #10
 8004f54:	54a3      	strb	r3, [r4, r2]
 8004f56:	3201      	adds	r2, #1
 8004f58:	54a3      	strb	r3, [r4, r2]
 8004f5a:	3201      	adds	r2, #1
 8004f5c:	54a3      	strb	r3, [r4, r2]
 8004f5e:	3201      	adds	r2, #1
 8004f60:	54a3      	strb	r3, [r4, r2]
 8004f62:	3201      	adds	r2, #1
 8004f64:	54a3      	strb	r3, [r4, r2]
 8004f66:	3201      	adds	r2, #1
 8004f68:	54a3      	strb	r3, [r4, r2]
  TIM_CHANNEL_N_STATE_SET_ALL(htim, HAL_TIM_CHANNEL_STATE_READY);
 8004f6a:	3201      	adds	r2, #1
 8004f6c:	54a3      	strb	r3, [r4, r2]
 8004f6e:	3201      	adds	r2, #1
 8004f70:	54a3      	strb	r3, [r4, r2]
 8004f72:	3201      	adds	r2, #1
 8004f74:	54a3      	strb	r3, [r4, r2]
 8004f76:	3201      	adds	r2, #1
 8004f78:	54a3      	strb	r3, [r4, r2]
  htim->State = HAL_TIM_STATE_READY;
 8004f7a:	3a0a      	subs	r2, #10
 8004f7c:	54a3      	strb	r3, [r4, r2]
}
 8004f7e:	bd70      	pop	{r4, r5, r6, pc}
    tmpcr1 &= ~(TIM_CR1_DIR | TIM_CR1_CMS);
 8004f80:	2670      	movs	r6, #112	@ 0x70
 8004f82:	43b2      	bics	r2, r6
    tmpcr1 |= Structure->CounterMode;
 8004f84:	68a6      	ldr	r6, [r4, #8]
 8004f86:	4332      	orrs	r2, r6
    tmpcr1 &= ~TIM_CR1_CKD;
 8004f88:	4e20      	ldr	r6, [pc, #128]	@ (800500c <HAL_TIM_IC_Init+0x188>)
 8004f8a:	4032      	ands	r2, r6
    tmpcr1 |= (uint32_t)Structure->ClockDivision;
 8004f8c:	6926      	ldr	r6, [r4, #16]
 8004f8e:	4332      	orrs	r2, r6
 8004f90:	e7cd      	b.n	8004f2e <HAL_TIM_IC_Init+0xaa>
    tmpcr1 &= ~(TIM_CR1_DIR | TIM_CR1_CMS);
 8004f92:	2670      	movs	r6, #112	@ 0x70
 8004f94:	43b2      	bics	r2, r6
    tmpcr1 |= Structure->CounterMode;
 8004f96:	68a6      	ldr	r6, [r4, #8]
 8004f98:	4332      	orrs	r2, r6
    tmpcr1 &= ~TIM_CR1_CKD;
 8004f9a:	4e1c      	ldr	r6, [pc, #112]	@ (800500c <HAL_TIM_IC_Init+0x188>)
 8004f9c:	4032      	ands	r2, r6
    tmpcr1 |= (uint32_t)Structure->ClockDivision;
 8004f9e:	6926      	ldr	r6, [r4, #16]
 8004fa0:	4332      	orrs	r2, r6
  MODIFY_REG(tmpcr1, TIM_CR1_ARPE, Structure->AutoReloadPreload);
 8004fa2:	2680      	movs	r6, #128	@ 0x80
 8004fa4:	43b2      	bics	r2, r6
 8004fa6:	432a      	orrs	r2, r5
  TIMx->CR1 = tmpcr1;
 8004fa8:	601a      	str	r2, [r3, #0]
  TIMx->ARR = (uint32_t)Structure->Period ;
 8004faa:	62d8      	str	r0, [r3, #44]	@ 0x2c
  TIMx->PSC = Structure->Prescaler;
 8004fac:	6299      	str	r1, [r3, #40]	@ 0x28
    TIMx->RCR = Structure->RepetitionCounter;
 8004fae:	6962      	ldr	r2, [r4, #20]
 8004fb0:	631a      	str	r2, [r3, #48]	@ 0x30
 8004fb2:	e7c2      	b.n	8004f3a <HAL_TIM_IC_Init+0xb6>
    return HAL_ERROR;
 8004fb4:	2001      	movs	r0, #1
 8004fb6:	e7e2      	b.n	8004f7e <HAL_TIM_IC_Init+0xfa>
      htim->IC_MspInitCallback = HAL_TIM_IC_MspInit;
 8004fb8:	4b15      	ldr	r3, [pc, #84]	@ (8005010 <HAL_TIM_IC_Init+0x18c>)
 8004fba:	6543      	str	r3, [r0, #84]	@ 0x54
 8004fbc:	e79a      	b.n	8004ef4 <HAL_TIM_IC_Init+0x70>
 8004fbe:	46c0      	nop			@ (mov r8, r8)
 8004fc0:	08004619 	.word	0x08004619
 8004fc4:	0800461d 	.word	0x0800461d
 8004fc8:	08004635 	.word	0x08004635
 8004fcc:	08004639 	.word	0x08004639
 8004fd0:	08004625 	.word	0x08004625
 8004fd4:	08004629 	.word	0x08004629
 8004fd8:	08004621 	.word	0x08004621
 8004fdc:	0800462d 	.word	0x0800462d
 8004fe0:	08004631 	.word	0x08004631
 8004fe4:	0800463d 	.word	0x0800463d
 8004fe8:	08005ead 	.word	0x08005ead
 8004fec:	08005eb1 	.word	0x08005eb1
 8004ff0:	08005eb5 	.word	0x08005eb5
 8004ff4:	08005eb9 	.word	0x08005eb9
 8004ff8:	40012c00 	.word	0x40012c00
 8004ffc:	40000400 	.word	0x40000400
 8005000:	40002000 	.word	0x40002000
 8005004:	40014400 	.word	0x40014400
 8005008:	40014800 	.word	0x40014800
 800500c:	fffffcff 	.word	0xfffffcff
 8005010:	08004615 	.word	0x08004615

08005014 <HAL_TIM_IC_Start_IT>:
{
 8005014:	b530      	push	{r4, r5, lr}
 8005016:	2910      	cmp	r1, #16
 8005018:	d816      	bhi.n	8005048 <HAL_TIM_IC_Start_IT+0x34>
 800501a:	4a53      	ldr	r2, [pc, #332]	@ (8005168 <HAL_TIM_IC_Start_IT+0x154>)
 800501c:	008b      	lsls	r3, r1, #2
 800501e:	58d3      	ldr	r3, [r2, r3]
 8005020:	469f      	mov	pc, r3
  HAL_TIM_ChannelStateTypeDef channel_state = TIM_CHANNEL_STATE_GET(htim, Channel);
 8005022:	243e      	movs	r4, #62	@ 0x3e
  HAL_TIM_ChannelStateTypeDef complementary_channel_state = TIM_CHANNEL_N_STATE_GET(htim, Channel);
 8005024:	2244      	movs	r2, #68	@ 0x44
  HAL_TIM_ChannelStateTypeDef channel_state = TIM_CHANNEL_STATE_GET(htim, Channel);
 8005026:	5d05      	ldrb	r5, [r0, r4]
  HAL_TIM_ChannelStateTypeDef complementary_channel_state = TIM_CHANNEL_N_STATE_GET(htim, Channel);
 8005028:	5c83      	ldrb	r3, [r0, r2]
 800502a:	b2db      	uxtb	r3, r3
  if ((channel_state != HAL_TIM_CHANNEL_STATE_READY)
 800502c:	2d01      	cmp	r5, #1
 800502e:	d001      	beq.n	8005034 <HAL_TIM_IC_Start_IT+0x20>
{
 8005030:	2001      	movs	r0, #1
}
 8005032:	bd30      	pop	{r4, r5, pc}
      || (complementary_channel_state != HAL_TIM_CHANNEL_STATE_READY))
 8005034:	2b01      	cmp	r3, #1
 8005036:	d1fb      	bne.n	8005030 <HAL_TIM_IC_Start_IT+0x1c>
  TIM_CHANNEL_STATE_SET(htim, Channel, HAL_TIM_CHANNEL_STATE_BUSY);
 8005038:	2502      	movs	r5, #2
 800503a:	5505      	strb	r5, [r0, r4]
  TIM_CHANNEL_N_STATE_SET(htim, Channel, HAL_TIM_CHANNEL_STATE_BUSY);
 800503c:	5485      	strb	r5, [r0, r2]
      __HAL_TIM_ENABLE_IT(htim, TIM_IT_CC1);
 800503e:	6803      	ldr	r3, [r0, #0]
 8005040:	68da      	ldr	r2, [r3, #12]
 8005042:	432a      	orrs	r2, r5
 8005044:	60da      	str	r2, [r3, #12]
  if (status == HAL_OK)
 8005046:	e022      	b.n	800508e <HAL_TIM_IC_Start_IT+0x7a>
  HAL_TIM_ChannelStateTypeDef channel_state = TIM_CHANNEL_STATE_GET(htim, Channel);
 8005048:	2343      	movs	r3, #67	@ 0x43
 800504a:	5cc2      	ldrb	r2, [r0, r3]
  HAL_TIM_ChannelStateTypeDef complementary_channel_state = TIM_CHANNEL_N_STATE_GET(htim, Channel);
 800504c:	3304      	adds	r3, #4
 800504e:	5cc3      	ldrb	r3, [r0, r3]
 8005050:	b2db      	uxtb	r3, r3
  if ((channel_state != HAL_TIM_CHANNEL_STATE_READY)
 8005052:	2a01      	cmp	r2, #1
 8005054:	d1ec      	bne.n	8005030 <HAL_TIM_IC_Start_IT+0x1c>
      || (complementary_channel_state != HAL_TIM_CHANNEL_STATE_READY))
 8005056:	2b01      	cmp	r3, #1
 8005058:	d1ea      	bne.n	8005030 <HAL_TIM_IC_Start_IT+0x1c>
  TIM_CHANNEL_STATE_SET(htim, Channel, HAL_TIM_CHANNEL_STATE_BUSY);
 800505a:	1f0b      	subs	r3, r1, #4
 800505c:	2b0c      	cmp	r3, #12
 800505e:	d878      	bhi.n	8005152 <HAL_TIM_IC_Start_IT+0x13e>
 8005060:	4a42      	ldr	r2, [pc, #264]	@ (800516c <HAL_TIM_IC_Start_IT+0x158>)
 8005062:	009b      	lsls	r3, r3, #2
 8005064:	58d3      	ldr	r3, [r2, r3]
 8005066:	469f      	mov	pc, r3
  HAL_TIM_ChannelStateTypeDef channel_state = TIM_CHANNEL_STATE_GET(htim, Channel);
 8005068:	233f      	movs	r3, #63	@ 0x3f
 800506a:	5cc2      	ldrb	r2, [r0, r3]
  HAL_TIM_ChannelStateTypeDef complementary_channel_state = TIM_CHANNEL_N_STATE_GET(htim, Channel);
 800506c:	3306      	adds	r3, #6
 800506e:	5cc3      	ldrb	r3, [r0, r3]
 8005070:	b2db      	uxtb	r3, r3
  if ((channel_state != HAL_TIM_CHANNEL_STATE_READY)
 8005072:	2a01      	cmp	r2, #1
 8005074:	d1dc      	bne.n	8005030 <HAL_TIM_IC_Start_IT+0x1c>
      || (complementary_channel_state != HAL_TIM_CHANNEL_STATE_READY))
 8005076:	2b01      	cmp	r3, #1
 8005078:	d1da      	bne.n	8005030 <HAL_TIM_IC_Start_IT+0x1c>
  TIM_CHANNEL_STATE_SET(htim, Channel, HAL_TIM_CHANNEL_STATE_BUSY);
 800507a:	2302      	movs	r3, #2
 800507c:	223f      	movs	r2, #63	@ 0x3f
 800507e:	5483      	strb	r3, [r0, r2]
  TIM_CHANNEL_N_STATE_SET(htim, Channel, HAL_TIM_CHANNEL_STATE_BUSY);
 8005080:	3206      	adds	r2, #6
 8005082:	5483      	strb	r3, [r0, r2]
      __HAL_TIM_ENABLE_IT(htim, TIM_IT_CC2);
 8005084:	6803      	ldr	r3, [r0, #0]
 8005086:	2004      	movs	r0, #4
 8005088:	68da      	ldr	r2, [r3, #12]
 800508a:	4302      	orrs	r2, r0
 800508c:	60da      	str	r2, [r3, #12]
  tmp = TIM_CCER_CC1E << (Channel & 0x1FU); /* 0x1FU = 31 bits max shift */
 800508e:	221f      	movs	r2, #31
 8005090:	2001      	movs	r0, #1
 8005092:	400a      	ands	r2, r1
 8005094:	0001      	movs	r1, r0
 8005096:	4091      	lsls	r1, r2
 8005098:	000a      	movs	r2, r1
  TIMx->CCER &= ~tmp;
 800509a:	6a19      	ldr	r1, [r3, #32]
 800509c:	4391      	bics	r1, r2
 800509e:	6219      	str	r1, [r3, #32]
  TIMx->CCER |= (uint32_t)(ChannelState << (Channel & 0x1FU)); /* 0x1FU = 31 bits max shift */
 80050a0:	6a19      	ldr	r1, [r3, #32]
 80050a2:	430a      	orrs	r2, r1
 80050a4:	621a      	str	r2, [r3, #32]
    if (IS_TIM_SLAVE_INSTANCE(htim->Instance))
 80050a6:	4a32      	ldr	r2, [pc, #200]	@ (8005170 <HAL_TIM_IC_Start_IT+0x15c>)
 80050a8:	4293      	cmp	r3, r2
 80050aa:	d044      	beq.n	8005136 <HAL_TIM_IC_Start_IT+0x122>
 80050ac:	2280      	movs	r2, #128	@ 0x80
 80050ae:	05d2      	lsls	r2, r2, #23
 80050b0:	4293      	cmp	r3, r2
 80050b2:	d040      	beq.n	8005136 <HAL_TIM_IC_Start_IT+0x122>
 80050b4:	4a2f      	ldr	r2, [pc, #188]	@ (8005174 <HAL_TIM_IC_Start_IT+0x160>)
 80050b6:	4293      	cmp	r3, r2
 80050b8:	d03d      	beq.n	8005136 <HAL_TIM_IC_Start_IT+0x122>
      __HAL_TIM_ENABLE(htim);
 80050ba:	681a      	ldr	r2, [r3, #0]
 80050bc:	4302      	orrs	r2, r0
 80050be:	601a      	str	r2, [r3, #0]
{
 80050c0:	2000      	movs	r0, #0
 80050c2:	e7b6      	b.n	8005032 <HAL_TIM_IC_Start_IT+0x1e>
  HAL_TIM_ChannelStateTypeDef channel_state = TIM_CHANNEL_STATE_GET(htim, Channel);
 80050c4:	2342      	movs	r3, #66	@ 0x42
 80050c6:	5cc2      	ldrb	r2, [r0, r3]
  HAL_TIM_ChannelStateTypeDef complementary_channel_state = TIM_CHANNEL_N_STATE_GET(htim, Channel);
 80050c8:	3305      	adds	r3, #5
 80050ca:	5cc3      	ldrb	r3, [r0, r3]
 80050cc:	b2db      	uxtb	r3, r3
  if ((channel_state != HAL_TIM_CHANNEL_STATE_READY)
 80050ce:	2a01      	cmp	r2, #1
 80050d0:	d1ae      	bne.n	8005030 <HAL_TIM_IC_Start_IT+0x1c>
      || (complementary_channel_state != HAL_TIM_CHANNEL_STATE_READY))
 80050d2:	2b01      	cmp	r3, #1
 80050d4:	d1ac      	bne.n	8005030 <HAL_TIM_IC_Start_IT+0x1c>
  TIM_CHANNEL_STATE_SET(htim, Channel, HAL_TIM_CHANNEL_STATE_BUSY);
 80050d6:	2302      	movs	r3, #2
 80050d8:	2242      	movs	r2, #66	@ 0x42
 80050da:	5483      	strb	r3, [r0, r2]
  TIM_CHANNEL_N_STATE_SET(htim, Channel, HAL_TIM_CHANNEL_STATE_BUSY);
 80050dc:	3205      	adds	r2, #5
 80050de:	5483      	strb	r3, [r0, r2]
  switch (Channel)
 80050e0:	e7a6      	b.n	8005030 <HAL_TIM_IC_Start_IT+0x1c>
  HAL_TIM_ChannelStateTypeDef channel_state = TIM_CHANNEL_STATE_GET(htim, Channel);
 80050e2:	2240      	movs	r2, #64	@ 0x40
  HAL_TIM_ChannelStateTypeDef complementary_channel_state = TIM_CHANNEL_N_STATE_GET(htim, Channel);
 80050e4:	2346      	movs	r3, #70	@ 0x46
  HAL_TIM_ChannelStateTypeDef channel_state = TIM_CHANNEL_STATE_GET(htim, Channel);
 80050e6:	5c84      	ldrb	r4, [r0, r2]
  HAL_TIM_ChannelStateTypeDef complementary_channel_state = TIM_CHANNEL_N_STATE_GET(htim, Channel);
 80050e8:	5cc3      	ldrb	r3, [r0, r3]
 80050ea:	b2db      	uxtb	r3, r3
  if ((channel_state != HAL_TIM_CHANNEL_STATE_READY)
 80050ec:	2c01      	cmp	r4, #1
 80050ee:	d19f      	bne.n	8005030 <HAL_TIM_IC_Start_IT+0x1c>
      || (complementary_channel_state != HAL_TIM_CHANNEL_STATE_READY))
 80050f0:	2b01      	cmp	r3, #1
 80050f2:	d19d      	bne.n	8005030 <HAL_TIM_IC_Start_IT+0x1c>
  TIM_CHANNEL_STATE_SET(htim, Channel, HAL_TIM_CHANNEL_STATE_BUSY);
 80050f4:	2302      	movs	r3, #2
 80050f6:	5483      	strb	r3, [r0, r2]
  TIM_CHANNEL_N_STATE_SET(htim, Channel, HAL_TIM_CHANNEL_STATE_BUSY);
 80050f8:	2346      	movs	r3, #70	@ 0x46
 80050fa:	2202      	movs	r2, #2
 80050fc:	54c2      	strb	r2, [r0, r3]
      __HAL_TIM_ENABLE_IT(htim, TIM_IT_CC3);
 80050fe:	6803      	ldr	r3, [r0, #0]
 8005100:	2008      	movs	r0, #8
 8005102:	68da      	ldr	r2, [r3, #12]
 8005104:	4302      	orrs	r2, r0
 8005106:	60da      	str	r2, [r3, #12]
  if (status == HAL_OK)
 8005108:	e7c1      	b.n	800508e <HAL_TIM_IC_Start_IT+0x7a>
  HAL_TIM_ChannelStateTypeDef channel_state = TIM_CHANNEL_STATE_GET(htim, Channel);
 800510a:	2341      	movs	r3, #65	@ 0x41
 800510c:	5cc2      	ldrb	r2, [r0, r3]
  HAL_TIM_ChannelStateTypeDef complementary_channel_state = TIM_CHANNEL_N_STATE_GET(htim, Channel);
 800510e:	3306      	adds	r3, #6
 8005110:	5cc3      	ldrb	r3, [r0, r3]
 8005112:	b2db      	uxtb	r3, r3
  if ((channel_state != HAL_TIM_CHANNEL_STATE_READY)
 8005114:	2a01      	cmp	r2, #1
 8005116:	d000      	beq.n	800511a <HAL_TIM_IC_Start_IT+0x106>
 8005118:	e78a      	b.n	8005030 <HAL_TIM_IC_Start_IT+0x1c>
      || (complementary_channel_state != HAL_TIM_CHANNEL_STATE_READY))
 800511a:	2b01      	cmp	r3, #1
 800511c:	d000      	beq.n	8005120 <HAL_TIM_IC_Start_IT+0x10c>
 800511e:	e787      	b.n	8005030 <HAL_TIM_IC_Start_IT+0x1c>
  TIM_CHANNEL_STATE_SET(htim, Channel, HAL_TIM_CHANNEL_STATE_BUSY);
 8005120:	2302      	movs	r3, #2
 8005122:	2241      	movs	r2, #65	@ 0x41
 8005124:	5483      	strb	r3, [r0, r2]
  TIM_CHANNEL_N_STATE_SET(htim, Channel, HAL_TIM_CHANNEL_STATE_BUSY);
 8005126:	3206      	adds	r2, #6
 8005128:	5483      	strb	r3, [r0, r2]
      __HAL_TIM_ENABLE_IT(htim, TIM_IT_CC4);
 800512a:	6803      	ldr	r3, [r0, #0]
 800512c:	2010      	movs	r0, #16
 800512e:	68da      	ldr	r2, [r3, #12]
 8005130:	4302      	orrs	r2, r0
 8005132:	60da      	str	r2, [r3, #12]
  if (status == HAL_OK)
 8005134:	e7ab      	b.n	800508e <HAL_TIM_IC_Start_IT+0x7a>
      tmpsmcr = htim->Instance->SMCR & TIM_SMCR_SMS;
 8005136:	689a      	ldr	r2, [r3, #8]
 8005138:	490f      	ldr	r1, [pc, #60]	@ (8005178 <HAL_TIM_IC_Start_IT+0x164>)
 800513a:	400a      	ands	r2, r1
      if (!IS_TIM_SLAVEMODE_TRIGGER_ENABLED(tmpsmcr))
 800513c:	2a06      	cmp	r2, #6
 800513e:	d0bf      	beq.n	80050c0 <HAL_TIM_IC_Start_IT+0xac>
 8005140:	3907      	subs	r1, #7
 8005142:	428a      	cmp	r2, r1
 8005144:	d0bc      	beq.n	80050c0 <HAL_TIM_IC_Start_IT+0xac>
        __HAL_TIM_ENABLE(htim);
 8005146:	2101      	movs	r1, #1
 8005148:	681a      	ldr	r2, [r3, #0]
{
 800514a:	2000      	movs	r0, #0
        __HAL_TIM_ENABLE(htim);
 800514c:	430a      	orrs	r2, r1
 800514e:	601a      	str	r2, [r3, #0]
 8005150:	e76f      	b.n	8005032 <HAL_TIM_IC_Start_IT+0x1e>
  TIM_CHANNEL_STATE_SET(htim, Channel, HAL_TIM_CHANNEL_STATE_BUSY);
 8005152:	2302      	movs	r3, #2
 8005154:	2243      	movs	r2, #67	@ 0x43
 8005156:	5483      	strb	r3, [r0, r2]
  TIM_CHANNEL_N_STATE_SET(htim, Channel, HAL_TIM_CHANNEL_STATE_BUSY);
 8005158:	3204      	adds	r2, #4
 800515a:	5483      	strb	r3, [r0, r2]
  switch (Channel)
 800515c:	e768      	b.n	8005030 <HAL_TIM_IC_Start_IT+0x1c>
  TIM_CHANNEL_STATE_SET(htim, Channel, HAL_TIM_CHANNEL_STATE_BUSY);
 800515e:	2340      	movs	r3, #64	@ 0x40
 8005160:	2202      	movs	r2, #2
 8005162:	54c2      	strb	r2, [r0, r3]
  TIM_CHANNEL_N_STATE_SET(htim, Channel, HAL_TIM_CHANNEL_STATE_BUSY);
 8005164:	e7c8      	b.n	80050f8 <HAL_TIM_IC_Start_IT+0xe4>
 8005166:	46c0      	nop			@ (mov r8, r8)
 8005168:	08007660 	.word	0x08007660
 800516c:	080076a4 	.word	0x080076a4
 8005170:	40012c00 	.word	0x40012c00
 8005174:	40000400 	.word	0x40000400
 8005178:	00010007 	.word	0x00010007

0800517c <HAL_TIM_IRQHandler>:
  if ((itflag & (TIM_FLAG_CC1)) == (TIM_FLAG_CC1))
 800517c:	2202      	movs	r2, #2
{
 800517e:	b5f8      	push	{r3, r4, r5, r6, r7, lr}
  uint32_t itsource = htim->Instance->DIER;
 8005180:	6803      	ldr	r3, [r0, #0]
{
 8005182:	0004      	movs	r4, r0
  uint32_t itsource = htim->Instance->DIER;
 8005184:	68de      	ldr	r6, [r3, #12]
  uint32_t itflag   = htim->Instance->SR;
 8005186:	691d      	ldr	r5, [r3, #16]
  if ((itflag & (TIM_FLAG_CC1)) == (TIM_FLAG_CC1))
 8005188:	422a      	tst	r2, r5
 800518a:	d002      	beq.n	8005192 <HAL_TIM_IRQHandler+0x16>
    if ((itsource & (TIM_IT_CC1)) == (TIM_IT_CC1))
 800518c:	4232      	tst	r2, r6
 800518e:	d000      	beq.n	8005192 <HAL_TIM_IRQHandler+0x16>
 8005190:	e0a6      	b.n	80052e0 <HAL_TIM_IRQHandler+0x164>
  if ((itflag & (TIM_FLAG_CC2)) == (TIM_FLAG_CC2))
 8005192:	2304      	movs	r3, #4
 8005194:	422b      	tst	r3, r5
 8005196:	d002      	beq.n	800519e <HAL_TIM_IRQHandler+0x22>
    if ((itsource & (TIM_IT_CC2)) == (TIM_IT_CC2))
 8005198:	4233      	tst	r3, r6
 800519a:	d000      	beq.n	800519e <HAL_TIM_IRQHandler+0x22>
 800519c:	e08a      	b.n	80052b4 <HAL_TIM_IRQHandler+0x138>
  if ((itflag & (TIM_FLAG_CC3)) == (TIM_FLAG_CC3))
 800519e:	2308      	movs	r3, #8
 80051a0:	422b      	tst	r3, r5
 80051a2:	d002      	beq.n	80051aa <HAL_TIM_IRQHandler+0x2e>
    if ((itsource & (TIM_IT_CC3)) == (TIM_IT_CC3))
 80051a4:	4233      	tst	r3, r6
 80051a6:	d000      	beq.n	80051aa <HAL_TIM_IRQHandler+0x2e>
 80051a8:	e070      	b.n	800528c <HAL_TIM_IRQHandler+0x110>
  if ((itflag & (TIM_FLAG_CC4)) == (TIM_FLAG_CC4))
 80051aa:	2310      	movs	r3, #16
 80051ac:	422b      	tst	r3, r5
 80051ae:	d001      	beq.n	80051b4 <HAL_TIM_IRQHandler+0x38>
    if ((itsource & (TIM_IT_CC4)) == (TIM_IT_CC4))
 80051b0:	4233      	tst	r3, r6
 80051b2:	d155      	bne.n	8005260 <HAL_TIM_IRQHandler+0xe4>
  if ((itflag & (TIM_FLAG_UPDATE)) == (TIM_FLAG_UPDATE))
 80051b4:	2301      	movs	r3, #1
 80051b6:	422b      	tst	r3, r5
 80051b8:	d001      	beq.n	80051be <HAL_TIM_IRQHandler+0x42>
    if ((itsource & (TIM_IT_UPDATE)) == (TIM_IT_UPDATE))
 80051ba:	4233      	tst	r3, r6
 80051bc:	d135      	bne.n	800522a <HAL_TIM_IRQHandler+0xae>
  if ((itflag & (TIM_FLAG_BREAK2)) == (TIM_FLAG_BREAK2))
 80051be:	2780      	movs	r7, #128	@ 0x80
  if (((itflag & (TIM_FLAG_BREAK)) == (TIM_FLAG_BREAK)) || \
 80051c0:	2382      	movs	r3, #130	@ 0x82
  if ((itflag & (TIM_FLAG_BREAK2)) == (TIM_FLAG_BREAK2))
 80051c2:	007f      	lsls	r7, r7, #1
  if (((itflag & (TIM_FLAG_BREAK)) == (TIM_FLAG_BREAK)) || \
 80051c4:	019b      	lsls	r3, r3, #6
  if ((itflag & (TIM_FLAG_BREAK2)) == (TIM_FLAG_BREAK2))
 80051c6:	402f      	ands	r7, r5
  if (((itflag & (TIM_FLAG_BREAK)) == (TIM_FLAG_BREAK)) || \
 80051c8:	421d      	tst	r5, r3
 80051ca:	d03d      	beq.n	8005248 <HAL_TIM_IRQHandler+0xcc>
    if ((itsource & (TIM_IT_BREAK)) == (TIM_IT_BREAK))
 80051cc:	0633      	lsls	r3, r6, #24
 80051ce:	d41b      	bmi.n	8005208 <HAL_TIM_IRQHandler+0x8c>
  if ((itflag & (TIM_FLAG_TRIGGER)) == (TIM_FLAG_TRIGGER))
 80051d0:	2340      	movs	r3, #64	@ 0x40
 80051d2:	422b      	tst	r3, r5
 80051d4:	d001      	beq.n	80051da <HAL_TIM_IRQHandler+0x5e>
    if ((itsource & (TIM_IT_TRIGGER)) == (TIM_IT_TRIGGER))
 80051d6:	4233      	tst	r3, r6
 80051d8:	d10d      	bne.n	80051f6 <HAL_TIM_IRQHandler+0x7a>
  if ((itflag & (TIM_FLAG_COM)) == (TIM_FLAG_COM))
 80051da:	2320      	movs	r3, #32
 80051dc:	422b      	tst	r3, r5
 80051de:	d009      	beq.n	80051f4 <HAL_TIM_IRQHandler+0x78>
    if ((itsource & (TIM_IT_COM)) == (TIM_IT_COM))
 80051e0:	4233      	tst	r3, r6
 80051e2:	d007      	beq.n	80051f4 <HAL_TIM_IRQHandler+0x78>
      __HAL_TIM_CLEAR_FLAG(htim, TIM_FLAG_COM);
 80051e4:	2221      	movs	r2, #33	@ 0x21
 80051e6:	6823      	ldr	r3, [r4, #0]
 80051e8:	4252      	negs	r2, r2
 80051ea:	611a      	str	r2, [r3, #16]
      htim->CommutationCallback(htim);
 80051ec:	23ac      	movs	r3, #172	@ 0xac
 80051ee:	0020      	movs	r0, r4
 80051f0:	58e3      	ldr	r3, [r4, r3]
 80051f2:	4798      	blx	r3
}
 80051f4:	bdf8      	pop	{r3, r4, r5, r6, r7, pc}
      __HAL_TIM_CLEAR_FLAG(htim, TIM_FLAG_TRIGGER);
 80051f6:	2241      	movs	r2, #65	@ 0x41
 80051f8:	6823      	ldr	r3, [r4, #0]
 80051fa:	4252      	negs	r2, r2
 80051fc:	611a      	str	r2, [r3, #16]
      htim->TriggerCallback(htim);
 80051fe:	238c      	movs	r3, #140	@ 0x8c
 8005200:	0020      	movs	r0, r4
 8005202:	58e3      	ldr	r3, [r4, r3]
 8005204:	4798      	blx	r3
 8005206:	e7e8      	b.n	80051da <HAL_TIM_IRQHandler+0x5e>
      __HAL_TIM_CLEAR_FLAG(htim, TIM_FLAG_BREAK | TIM_FLAG_SYSTEM_BREAK);
 8005208:	6823      	ldr	r3, [r4, #0]
 800520a:	4a47      	ldr	r2, [pc, #284]	@ (8005328 <HAL_TIM_IRQHandler+0x1ac>)
      htim->BreakCallback(htim);
 800520c:	0020      	movs	r0, r4
      __HAL_TIM_CLEAR_FLAG(htim, TIM_FLAG_BREAK | TIM_FLAG_SYSTEM_BREAK);
 800520e:	611a      	str	r2, [r3, #16]
      htim->BreakCallback(htim);
 8005210:	23b4      	movs	r3, #180	@ 0xb4
 8005212:	58e3      	ldr	r3, [r4, r3]
 8005214:	4798      	blx	r3
  if ((itflag & (TIM_FLAG_BREAK2)) == (TIM_FLAG_BREAK2))
 8005216:	2f00      	cmp	r7, #0
 8005218:	d0da      	beq.n	80051d0 <HAL_TIM_IRQHandler+0x54>
      __HAL_TIM_CLEAR_FLAG(htim, TIM_FLAG_BREAK2);
 800521a:	6823      	ldr	r3, [r4, #0]
 800521c:	4a43      	ldr	r2, [pc, #268]	@ (800532c <HAL_TIM_IRQHandler+0x1b0>)
      htim->Break2Callback(htim);
 800521e:	0020      	movs	r0, r4
      __HAL_TIM_CLEAR_FLAG(htim, TIM_FLAG_BREAK2);
 8005220:	611a      	str	r2, [r3, #16]
      htim->Break2Callback(htim);
 8005222:	23b8      	movs	r3, #184	@ 0xb8
 8005224:	58e3      	ldr	r3, [r4, r3]
 8005226:	4798      	blx	r3
 8005228:	e7d2      	b.n	80051d0 <HAL_TIM_IRQHandler+0x54>
      __HAL_TIM_CLEAR_FLAG(htim, TIM_FLAG_UPDATE);
 800522a:	2202      	movs	r2, #2
 800522c:	6823      	ldr	r3, [r4, #0]
 800522e:	4252      	negs	r2, r2
 8005230:	611a      	str	r2, [r3, #16]
      htim->PeriodElapsedCallback(htim);
 8005232:	2384      	movs	r3, #132	@ 0x84
 8005234:	0020      	movs	r0, r4
 8005236:	58e3      	ldr	r3, [r4, r3]
 8005238:	4798      	blx	r3
  if ((itflag & (TIM_FLAG_BREAK2)) == (TIM_FLAG_BREAK2))
 800523a:	2780      	movs	r7, #128	@ 0x80
  if (((itflag & (TIM_FLAG_BREAK)) == (TIM_FLAG_BREAK)) || \
 800523c:	2382      	movs	r3, #130	@ 0x82
  if ((itflag & (TIM_FLAG_BREAK2)) == (TIM_FLAG_BREAK2))
 800523e:	007f      	lsls	r7, r7, #1
  if (((itflag & (TIM_FLAG_BREAK)) == (TIM_FLAG_BREAK)) || \
 8005240:	019b      	lsls	r3, r3, #6
  if ((itflag & (TIM_FLAG_BREAK2)) == (TIM_FLAG_BREAK2))
 8005242:	402f      	ands	r7, r5
  if (((itflag & (TIM_FLAG_BREAK)) == (TIM_FLAG_BREAK)) || \
 8005244:	421d      	tst	r5, r3
 8005246:	d1c1      	bne.n	80051cc <HAL_TIM_IRQHandler+0x50>
  if ((itflag & (TIM_FLAG_BREAK2)) == (TIM_FLAG_BREAK2))
 8005248:	2f00      	cmp	r7, #0
 800524a:	d0c1      	beq.n	80051d0 <HAL_TIM_IRQHandler+0x54>
    if ((itsource & (TIM_IT_BREAK)) == (TIM_IT_BREAK))
 800524c:	0633      	lsls	r3, r6, #24
 800524e:	d5bf      	bpl.n	80051d0 <HAL_TIM_IRQHandler+0x54>
      __HAL_TIM_CLEAR_FLAG(htim, TIM_FLAG_BREAK2);
 8005250:	6823      	ldr	r3, [r4, #0]
 8005252:	4a36      	ldr	r2, [pc, #216]	@ (800532c <HAL_TIM_IRQHandler+0x1b0>)
      htim->Break2Callback(htim);
 8005254:	0020      	movs	r0, r4
      __HAL_TIM_CLEAR_FLAG(htim, TIM_FLAG_BREAK2);
 8005256:	611a      	str	r2, [r3, #16]
      htim->Break2Callback(htim);
 8005258:	23b8      	movs	r3, #184	@ 0xb8
 800525a:	58e3      	ldr	r3, [r4, r3]
 800525c:	4798      	blx	r3
 800525e:	e7b7      	b.n	80051d0 <HAL_TIM_IRQHandler+0x54>
      __HAL_TIM_CLEAR_FLAG(htim, TIM_FLAG_CC4);
 8005260:	2211      	movs	r2, #17
 8005262:	6823      	ldr	r3, [r4, #0]
 8005264:	4252      	negs	r2, r2
 8005266:	611a      	str	r2, [r3, #16]
      htim->Channel = HAL_TIM_ACTIVE_CHANNEL_4;
 8005268:	3219      	adds	r2, #25
 800526a:	7722      	strb	r2, [r4, #28]
      if ((htim->Instance->CCMR2 & TIM_CCMR2_CC4S) != 0x00U)
 800526c:	69da      	ldr	r2, [r3, #28]
 800526e:	23c0      	movs	r3, #192	@ 0xc0
 8005270:	009b      	lsls	r3, r3, #2
 8005272:	421a      	tst	r2, r3
 8005274:	d153      	bne.n	800531e <HAL_TIM_IRQHandler+0x1a2>
        htim->OC_DelayElapsedCallback(htim);
 8005276:	239c      	movs	r3, #156	@ 0x9c
 8005278:	0020      	movs	r0, r4
 800527a:	58e3      	ldr	r3, [r4, r3]
 800527c:	4798      	blx	r3
        htim->PWM_PulseFinishedCallback(htim);
 800527e:	23a0      	movs	r3, #160	@ 0xa0
 8005280:	0020      	movs	r0, r4
 8005282:	58e3      	ldr	r3, [r4, r3]
 8005284:	4798      	blx	r3
      htim->Channel = HAL_TIM_ACTIVE_CHANNEL_CLEARED;
 8005286:	2300      	movs	r3, #0
 8005288:	7723      	strb	r3, [r4, #28]
 800528a:	e793      	b.n	80051b4 <HAL_TIM_IRQHandler+0x38>
      __HAL_TIM_CLEAR_FLAG(htim, TIM_FLAG_CC3);
 800528c:	2209      	movs	r2, #9
 800528e:	6823      	ldr	r3, [r4, #0]
 8005290:	4252      	negs	r2, r2
 8005292:	611a      	str	r2, [r3, #16]
      htim->Channel = HAL_TIM_ACTIVE_CHANNEL_3;
 8005294:	320d      	adds	r2, #13
 8005296:	7722      	strb	r2, [r4, #28]
      if ((htim->Instance->CCMR2 & TIM_CCMR2_CC3S) != 0x00U)
 8005298:	69db      	ldr	r3, [r3, #28]
 800529a:	079b      	lsls	r3, r3, #30
 800529c:	d13a      	bne.n	8005314 <HAL_TIM_IRQHandler+0x198>
        htim->OC_DelayElapsedCallback(htim);
 800529e:	239c      	movs	r3, #156	@ 0x9c
 80052a0:	0020      	movs	r0, r4
 80052a2:	58e3      	ldr	r3, [r4, r3]
 80052a4:	4798      	blx	r3
        htim->PWM_PulseFinishedCallback(htim);
 80052a6:	23a0      	movs	r3, #160	@ 0xa0
 80052a8:	0020      	movs	r0, r4
 80052aa:	58e3      	ldr	r3, [r4, r3]
 80052ac:	4798      	blx	r3
      htim->Channel = HAL_TIM_ACTIVE_CHANNEL_CLEARED;
 80052ae:	2300      	movs	r3, #0
 80052b0:	7723      	strb	r3, [r4, #28]
 80052b2:	e77a      	b.n	80051aa <HAL_TIM_IRQHandler+0x2e>
      __HAL_TIM_CLEAR_FLAG(htim, TIM_FLAG_CC2);
 80052b4:	2205      	movs	r2, #5
 80052b6:	6823      	ldr	r3, [r4, #0]
 80052b8:	4252      	negs	r2, r2
 80052ba:	611a      	str	r2, [r3, #16]
      htim->Channel = HAL_TIM_ACTIVE_CHANNEL_2;
 80052bc:	3207      	adds	r2, #7
 80052be:	7722      	strb	r2, [r4, #28]
      if ((htim->Instance->CCMR1 & TIM_CCMR1_CC2S) != 0x00U)
 80052c0:	699a      	ldr	r2, [r3, #24]
 80052c2:	23c0      	movs	r3, #192	@ 0xc0
 80052c4:	009b      	lsls	r3, r3, #2
 80052c6:	421a      	tst	r2, r3
 80052c8:	d11f      	bne.n	800530a <HAL_TIM_IRQHandler+0x18e>
        htim->OC_DelayElapsedCallback(htim);
 80052ca:	239c      	movs	r3, #156	@ 0x9c
 80052cc:	0020      	movs	r0, r4
 80052ce:	58e3      	ldr	r3, [r4, r3]
 80052d0:	4798      	blx	r3
        htim->PWM_PulseFinishedCallback(htim);
 80052d2:	23a0      	movs	r3, #160	@ 0xa0
 80052d4:	0020      	movs	r0, r4
 80052d6:	58e3      	ldr	r3, [r4, r3]
 80052d8:	4798      	blx	r3
      htim->Channel = HAL_TIM_ACTIVE_CHANNEL_CLEARED;
 80052da:	2300      	movs	r3, #0
 80052dc:	7723      	strb	r3, [r4, #28]
 80052de:	e75e      	b.n	800519e <HAL_TIM_IRQHandler+0x22>
        __HAL_TIM_CLEAR_FLAG(htim, TIM_FLAG_CC1);
 80052e0:	3a05      	subs	r2, #5
 80052e2:	611a      	str	r2, [r3, #16]
        htim->Channel = HAL_TIM_ACTIVE_CHANNEL_1;
 80052e4:	3204      	adds	r2, #4
 80052e6:	7702      	strb	r2, [r0, #28]
        if ((htim->Instance->CCMR1 & TIM_CCMR1_CC1S) != 0x00U)
 80052e8:	699b      	ldr	r3, [r3, #24]
 80052ea:	079b      	lsls	r3, r3, #30
 80052ec:	d109      	bne.n	8005302 <HAL_TIM_IRQHandler+0x186>
          htim->OC_DelayElapsedCallback(htim);
 80052ee:	239c      	movs	r3, #156	@ 0x9c
 80052f0:	58c3      	ldr	r3, [r0, r3]
 80052f2:	4798      	blx	r3
          htim->PWM_PulseFinishedCallback(htim);
 80052f4:	23a0      	movs	r3, #160	@ 0xa0
 80052f6:	0020      	movs	r0, r4
 80052f8:	58e3      	ldr	r3, [r4, r3]
 80052fa:	4798      	blx	r3
        htim->Channel = HAL_TIM_ACTIVE_CHANNEL_CLEARED;
 80052fc:	2300      	movs	r3, #0
 80052fe:	7723      	strb	r3, [r4, #28]
 8005300:	e747      	b.n	8005192 <HAL_TIM_IRQHandler+0x16>
          htim->IC_CaptureCallback(htim);
 8005302:	2394      	movs	r3, #148	@ 0x94
 8005304:	58c3      	ldr	r3, [r0, r3]
 8005306:	4798      	blx	r3
 8005308:	e7f8      	b.n	80052fc <HAL_TIM_IRQHandler+0x180>
        htim->IC_CaptureCallback(htim);
 800530a:	2394      	movs	r3, #148	@ 0x94
 800530c:	0020      	movs	r0, r4
 800530e:	58e3      	ldr	r3, [r4, r3]
 8005310:	4798      	blx	r3
 8005312:	e7e2      	b.n	80052da <HAL_TIM_IRQHandler+0x15e>
        htim->IC_CaptureCallback(htim);
 8005314:	2394      	movs	r3, #148	@ 0x94
 8005316:	0020      	movs	r0, r4
 8005318:	58e3      	ldr	r3, [r4, r3]
 800531a:	4798      	blx	r3
 800531c:	e7c7      	b.n	80052ae <HAL_TIM_IRQHandler+0x132>
        htim->IC_CaptureCallback(htim);
 800531e:	2394      	movs	r3, #148	@ 0x94
 8005320:	0020      	movs	r0, r4
 8005322:	58e3      	ldr	r3, [r4, r3]
 8005324:	4798      	blx	r3
 8005326:	e7ae      	b.n	8005286 <HAL_TIM_IRQHandler+0x10a>
 8005328:	ffffdf7f 	.word	0xffffdf7f
 800532c:	fffffeff 	.word	0xfffffeff

08005330 <HAL_TIM_OC_ConfigChannel>:
  __HAL_LOCK(htim);
 8005330:	233c      	movs	r3, #60	@ 0x3c
{
 8005332:	b5f0      	push	{r4, r5, r6, r7, lr}
  __HAL_LOCK(htim);
 8005334:	5cc3      	ldrb	r3, [r0, r3]
{
 8005336:	0004      	movs	r4, r0
  __HAL_LOCK(htim);
 8005338:	2b01      	cmp	r3, #1
 800533a:	d100      	bne.n	800533e <HAL_TIM_OC_ConfigChannel+0xe>
 800533c:	e119      	b.n	8005572 <HAL_TIM_OC_ConfigChannel+0x242>
  switch (Channel)
 800533e:	2a14      	cmp	r2, #20
 8005340:	d803      	bhi.n	800534a <HAL_TIM_OC_ConfigChannel+0x1a>
 8005342:	4b8d      	ldr	r3, [pc, #564]	@ (8005578 <HAL_TIM_OC_ConfigChannel+0x248>)
 8005344:	0092      	lsls	r2, r2, #2
 8005346:	589b      	ldr	r3, [r3, r2]
 8005348:	469f      	mov	pc, r3
 800534a:	2001      	movs	r0, #1
  __HAL_UNLOCK(htim);
 800534c:	233c      	movs	r3, #60	@ 0x3c
 800534e:	2200      	movs	r2, #0
 8005350:	54e2      	strb	r2, [r4, r3]
}
 8005352:	bdf0      	pop	{r4, r5, r6, r7, pc}
      TIM_OC6_SetConfig(htim->Instance, sConfig);
 8005354:	6803      	ldr	r3, [r0, #0]
  TIMx->CCER &= ~TIM_CCER_CC6E;
 8005356:	4d89      	ldr	r5, [pc, #548]	@ (800557c <HAL_TIM_OC_ConfigChannel+0x24c>)
  tmpccer = TIMx->CCER;
 8005358:	6a18      	ldr	r0, [r3, #32]
  TIMx->CCER &= ~TIM_CCER_CC6E;
 800535a:	6a1a      	ldr	r2, [r3, #32]
 800535c:	402a      	ands	r2, r5
 800535e:	621a      	str	r2, [r3, #32]
  tmpccmrx &= ~(TIM_CCMR3_OC6M);
 8005360:	4d87      	ldr	r5, [pc, #540]	@ (8005580 <HAL_TIM_OC_ConfigChannel+0x250>)
  tmpcr2 =  TIMx->CR2;
 8005362:	685e      	ldr	r6, [r3, #4]
  tmpccmrx = TIMx->CCMR3;
 8005364:	6d5a      	ldr	r2, [r3, #84]	@ 0x54
  tmpccmrx &= ~(TIM_CCMR3_OC6M);
 8005366:	402a      	ands	r2, r5
  tmpccmrx |= (OC_Config->OCMode << 8U);
 8005368:	680d      	ldr	r5, [r1, #0]
 800536a:	022d      	lsls	r5, r5, #8
 800536c:	4315      	orrs	r5, r2
  tmpccer &= (uint32_t)~TIM_CCER_CC6P;
 800536e:	4a85      	ldr	r2, [pc, #532]	@ (8005584 <HAL_TIM_OC_ConfigChannel+0x254>)
 8005370:	4010      	ands	r0, r2
  tmpccer |= (OC_Config->OCPolarity << 20U);
 8005372:	688a      	ldr	r2, [r1, #8]
 8005374:	0512      	lsls	r2, r2, #20
 8005376:	4302      	orrs	r2, r0
  if (IS_TIM_BREAK_INSTANCE(TIMx))
 8005378:	4883      	ldr	r0, [pc, #524]	@ (8005588 <HAL_TIM_OC_ConfigChannel+0x258>)
 800537a:	4283      	cmp	r3, r0
 800537c:	d100      	bne.n	8005380 <HAL_TIM_OC_ConfigChannel+0x50>
 800537e:	e0c8      	b.n	8005512 <HAL_TIM_OC_ConfigChannel+0x1e2>
 8005380:	4882      	ldr	r0, [pc, #520]	@ (800558c <HAL_TIM_OC_ConfigChannel+0x25c>)
 8005382:	4283      	cmp	r3, r0
 8005384:	d100      	bne.n	8005388 <HAL_TIM_OC_ConfigChannel+0x58>
 8005386:	e0c4      	b.n	8005512 <HAL_TIM_OC_ConfigChannel+0x1e2>
 8005388:	4881      	ldr	r0, [pc, #516]	@ (8005590 <HAL_TIM_OC_ConfigChannel+0x260>)
 800538a:	4283      	cmp	r3, r0
 800538c:	d100      	bne.n	8005390 <HAL_TIM_OC_ConfigChannel+0x60>
 800538e:	e0c0      	b.n	8005512 <HAL_TIM_OC_ConfigChannel+0x1e2>
  TIMx->CCR6 = OC_Config->Pulse;
 8005390:	6849      	ldr	r1, [r1, #4]
  TIMx->CR2 = tmpcr2;
 8005392:	605e      	str	r6, [r3, #4]
  HAL_StatusTypeDef status = HAL_OK;
 8005394:	2000      	movs	r0, #0
  TIMx->CCMR3 = tmpccmrx;
 8005396:	655d      	str	r5, [r3, #84]	@ 0x54
  TIMx->CCR6 = OC_Config->Pulse;
 8005398:	65d9      	str	r1, [r3, #92]	@ 0x5c
  TIMx->CCER = tmpccer;
 800539a:	621a      	str	r2, [r3, #32]
 800539c:	e7d6      	b.n	800534c <HAL_TIM_OC_ConfigChannel+0x1c>
  TIMx->CCER &= ~TIM_CCER_CC1E;
 800539e:	2501      	movs	r5, #1
      TIM_OC1_SetConfig(htim->Instance, sConfig);
 80053a0:	6803      	ldr	r3, [r0, #0]
  tmpccmrx &= ~TIM_CCMR1_CC1S;
 80053a2:	4e7c      	ldr	r6, [pc, #496]	@ (8005594 <HAL_TIM_OC_ConfigChannel+0x264>)
  tmpccer = TIMx->CCER;
 80053a4:	6a1a      	ldr	r2, [r3, #32]
  TIMx->CCER &= ~TIM_CCER_CC1E;
 80053a6:	6a18      	ldr	r0, [r3, #32]
 80053a8:	43a8      	bics	r0, r5
 80053aa:	6218      	str	r0, [r3, #32]
  tmpcr2 =  TIMx->CR2;
 80053ac:	685d      	ldr	r5, [r3, #4]
  tmpccmrx = TIMx->CCMR1;
 80053ae:	6998      	ldr	r0, [r3, #24]
  tmpccmrx &= ~TIM_CCMR1_CC1S;
 80053b0:	4030      	ands	r0, r6
  tmpccmrx |= OC_Config->OCMode;
 80053b2:	680e      	ldr	r6, [r1, #0]
 80053b4:	4330      	orrs	r0, r6
  tmpccer &= ~TIM_CCER_CC1P;
 80053b6:	2602      	movs	r6, #2
 80053b8:	43b2      	bics	r2, r6
  tmpccer |= OC_Config->OCPolarity;
 80053ba:	688e      	ldr	r6, [r1, #8]
 80053bc:	4332      	orrs	r2, r6
  if (IS_TIM_CCXN_INSTANCE(TIMx, TIM_CHANNEL_1))
 80053be:	4e72      	ldr	r6, [pc, #456]	@ (8005588 <HAL_TIM_OC_ConfigChannel+0x258>)
 80053c0:	42b3      	cmp	r3, r6
 80053c2:	d100      	bne.n	80053c6 <HAL_TIM_OC_ConfigChannel+0x96>
 80053c4:	e098      	b.n	80054f8 <HAL_TIM_OC_ConfigChannel+0x1c8>
 80053c6:	4e71      	ldr	r6, [pc, #452]	@ (800558c <HAL_TIM_OC_ConfigChannel+0x25c>)
 80053c8:	42b3      	cmp	r3, r6
 80053ca:	d100      	bne.n	80053ce <HAL_TIM_OC_ConfigChannel+0x9e>
 80053cc:	e094      	b.n	80054f8 <HAL_TIM_OC_ConfigChannel+0x1c8>
 80053ce:	4e70      	ldr	r6, [pc, #448]	@ (8005590 <HAL_TIM_OC_ConfigChannel+0x260>)
 80053d0:	42b3      	cmp	r3, r6
 80053d2:	d100      	bne.n	80053d6 <HAL_TIM_OC_ConfigChannel+0xa6>
 80053d4:	e090      	b.n	80054f8 <HAL_TIM_OC_ConfigChannel+0x1c8>
  TIMx->CCR1 = OC_Config->Pulse;
 80053d6:	6849      	ldr	r1, [r1, #4]
  TIMx->CR2 = tmpcr2;
 80053d8:	605d      	str	r5, [r3, #4]
  TIMx->CCMR1 = tmpccmrx;
 80053da:	6198      	str	r0, [r3, #24]
  TIMx->CCR1 = OC_Config->Pulse;
 80053dc:	6359      	str	r1, [r3, #52]	@ 0x34
  HAL_StatusTypeDef status = HAL_OK;
 80053de:	2000      	movs	r0, #0
  TIMx->CCER = tmpccer;
 80053e0:	621a      	str	r2, [r3, #32]
 80053e2:	e7b3      	b.n	800534c <HAL_TIM_OC_ConfigChannel+0x1c>
  TIMx->CCER &= ~TIM_CCER_CC2E;
 80053e4:	2510      	movs	r5, #16
      TIM_OC2_SetConfig(htim->Instance, sConfig);
 80053e6:	6803      	ldr	r3, [r0, #0]
  tmpccer = TIMx->CCER;
 80053e8:	6a1a      	ldr	r2, [r3, #32]
  TIMx->CCER &= ~TIM_CCER_CC2E;
 80053ea:	6a18      	ldr	r0, [r3, #32]
 80053ec:	43a8      	bics	r0, r5
 80053ee:	6218      	str	r0, [r3, #32]
  tmpccmrx &= ~TIM_CCMR1_CC2S;
 80053f0:	4d69      	ldr	r5, [pc, #420]	@ (8005598 <HAL_TIM_OC_ConfigChannel+0x268>)
  tmpcr2 =  TIMx->CR2;
 80053f2:	685e      	ldr	r6, [r3, #4]
  tmpccmrx = TIMx->CCMR1;
 80053f4:	6998      	ldr	r0, [r3, #24]
  tmpccmrx &= ~TIM_CCMR1_CC2S;
 80053f6:	4028      	ands	r0, r5
  tmpccmrx |= (OC_Config->OCMode << 8U);
 80053f8:	680d      	ldr	r5, [r1, #0]
 80053fa:	022d      	lsls	r5, r5, #8
 80053fc:	4305      	orrs	r5, r0
  tmpccer &= ~TIM_CCER_CC2P;
 80053fe:	2020      	movs	r0, #32
 8005400:	4382      	bics	r2, r0
  tmpccer |= (OC_Config->OCPolarity << 4U);
 8005402:	6888      	ldr	r0, [r1, #8]
 8005404:	0100      	lsls	r0, r0, #4
 8005406:	4310      	orrs	r0, r2
  if (IS_TIM_CCXN_INSTANCE(TIMx, TIM_CHANNEL_2))
 8005408:	4a5f      	ldr	r2, [pc, #380]	@ (8005588 <HAL_TIM_OC_ConfigChannel+0x258>)
 800540a:	4293      	cmp	r3, r2
 800540c:	d100      	bne.n	8005410 <HAL_TIM_OC_ConfigChannel+0xe0>
 800540e:	e08c      	b.n	800552a <HAL_TIM_OC_ConfigChannel+0x1fa>
  if (IS_TIM_BREAK_INSTANCE(TIMx))
 8005410:	4a5e      	ldr	r2, [pc, #376]	@ (800558c <HAL_TIM_OC_ConfigChannel+0x25c>)
 8005412:	4293      	cmp	r3, r2
 8005414:	d100      	bne.n	8005418 <HAL_TIM_OC_ConfigChannel+0xe8>
 8005416:	e08f      	b.n	8005538 <HAL_TIM_OC_ConfigChannel+0x208>
 8005418:	4a5d      	ldr	r2, [pc, #372]	@ (8005590 <HAL_TIM_OC_ConfigChannel+0x260>)
 800541a:	4293      	cmp	r3, r2
 800541c:	d100      	bne.n	8005420 <HAL_TIM_OC_ConfigChannel+0xf0>
 800541e:	e08b      	b.n	8005538 <HAL_TIM_OC_ConfigChannel+0x208>
  TIMx->CCR2 = OC_Config->Pulse;
 8005420:	684a      	ldr	r2, [r1, #4]
  TIMx->CR2 = tmpcr2;
 8005422:	605e      	str	r6, [r3, #4]
  TIMx->CCMR1 = tmpccmrx;
 8005424:	619d      	str	r5, [r3, #24]
  TIMx->CCR2 = OC_Config->Pulse;
 8005426:	639a      	str	r2, [r3, #56]	@ 0x38
  TIMx->CCER = tmpccer;
 8005428:	6218      	str	r0, [r3, #32]
  HAL_StatusTypeDef status = HAL_OK;
 800542a:	2000      	movs	r0, #0
 800542c:	e78e      	b.n	800534c <HAL_TIM_OC_ConfigChannel+0x1c>
      TIM_OC3_SetConfig(htim->Instance, sConfig);
 800542e:	6803      	ldr	r3, [r0, #0]
  TIMx->CCER &= ~TIM_CCER_CC3E;
 8005430:	4d5a      	ldr	r5, [pc, #360]	@ (800559c <HAL_TIM_OC_ConfigChannel+0x26c>)
  tmpccer = TIMx->CCER;
 8005432:	6a1a      	ldr	r2, [r3, #32]
  TIMx->CCER &= ~TIM_CCER_CC3E;
 8005434:	6a18      	ldr	r0, [r3, #32]
  tmpccmrx &= ~TIM_CCMR2_CC3S;
 8005436:	4e57      	ldr	r6, [pc, #348]	@ (8005594 <HAL_TIM_OC_ConfigChannel+0x264>)
  TIMx->CCER &= ~TIM_CCER_CC3E;
 8005438:	4028      	ands	r0, r5
 800543a:	6218      	str	r0, [r3, #32]
  tmpcr2 =  TIMx->CR2;
 800543c:	685d      	ldr	r5, [r3, #4]
  tmpccmrx = TIMx->CCMR2;
 800543e:	69d8      	ldr	r0, [r3, #28]
  tmpccmrx &= ~TIM_CCMR2_CC3S;
 8005440:	4030      	ands	r0, r6
  tmpccmrx |= OC_Config->OCMode;
 8005442:	680e      	ldr	r6, [r1, #0]
 8005444:	4306      	orrs	r6, r0
  tmpccer &= ~TIM_CCER_CC3P;
 8005446:	4856      	ldr	r0, [pc, #344]	@ (80055a0 <HAL_TIM_OC_ConfigChannel+0x270>)
 8005448:	4002      	ands	r2, r0
  tmpccer |= (OC_Config->OCPolarity << 8U);
 800544a:	6888      	ldr	r0, [r1, #8]
 800544c:	0200      	lsls	r0, r0, #8
 800544e:	4302      	orrs	r2, r0
  if (IS_TIM_CCXN_INSTANCE(TIMx, TIM_CHANNEL_3))
 8005450:	484d      	ldr	r0, [pc, #308]	@ (8005588 <HAL_TIM_OC_ConfigChannel+0x258>)
 8005452:	4283      	cmp	r3, r0
 8005454:	d07e      	beq.n	8005554 <HAL_TIM_OC_ConfigChannel+0x224>
  if (IS_TIM_BREAK_INSTANCE(TIMx))
 8005456:	484d      	ldr	r0, [pc, #308]	@ (800558c <HAL_TIM_OC_ConfigChannel+0x25c>)
 8005458:	4283      	cmp	r3, r0
 800545a:	d100      	bne.n	800545e <HAL_TIM_OC_ConfigChannel+0x12e>
 800545c:	e081      	b.n	8005562 <HAL_TIM_OC_ConfigChannel+0x232>
 800545e:	484c      	ldr	r0, [pc, #304]	@ (8005590 <HAL_TIM_OC_ConfigChannel+0x260>)
 8005460:	4283      	cmp	r3, r0
 8005462:	d07e      	beq.n	8005562 <HAL_TIM_OC_ConfigChannel+0x232>
  TIMx->CCR3 = OC_Config->Pulse;
 8005464:	6849      	ldr	r1, [r1, #4]
  TIMx->CR2 = tmpcr2;
 8005466:	605d      	str	r5, [r3, #4]
  HAL_StatusTypeDef status = HAL_OK;
 8005468:	2000      	movs	r0, #0
  TIMx->CCMR2 = tmpccmrx;
 800546a:	61de      	str	r6, [r3, #28]
  TIMx->CCR3 = OC_Config->Pulse;
 800546c:	63d9      	str	r1, [r3, #60]	@ 0x3c
  TIMx->CCER = tmpccer;
 800546e:	621a      	str	r2, [r3, #32]
 8005470:	e76c      	b.n	800534c <HAL_TIM_OC_ConfigChannel+0x1c>
      TIM_OC4_SetConfig(htim->Instance, sConfig);
 8005472:	6803      	ldr	r3, [r0, #0]
  TIMx->CCER &= ~TIM_CCER_CC4E;
 8005474:	4d4b      	ldr	r5, [pc, #300]	@ (80055a4 <HAL_TIM_OC_ConfigChannel+0x274>)
  tmpccer = TIMx->CCER;
 8005476:	6a18      	ldr	r0, [r3, #32]
  TIMx->CCER &= ~TIM_CCER_CC4E;
 8005478:	6a1a      	ldr	r2, [r3, #32]
 800547a:	402a      	ands	r2, r5
 800547c:	621a      	str	r2, [r3, #32]
  tmpccmrx &= ~TIM_CCMR2_CC4S;
 800547e:	4d46      	ldr	r5, [pc, #280]	@ (8005598 <HAL_TIM_OC_ConfigChannel+0x268>)
  tmpcr2 =  TIMx->CR2;
 8005480:	685e      	ldr	r6, [r3, #4]
  tmpccmrx = TIMx->CCMR2;
 8005482:	69da      	ldr	r2, [r3, #28]
  tmpccmrx &= ~TIM_CCMR2_CC4S;
 8005484:	402a      	ands	r2, r5
  tmpccmrx |= (OC_Config->OCMode << 8U);
 8005486:	680d      	ldr	r5, [r1, #0]
 8005488:	022d      	lsls	r5, r5, #8
 800548a:	4315      	orrs	r5, r2
  tmpccer &= ~TIM_CCER_CC4P;
 800548c:	4a46      	ldr	r2, [pc, #280]	@ (80055a8 <HAL_TIM_OC_ConfigChannel+0x278>)
 800548e:	4010      	ands	r0, r2
  tmpccer |= (OC_Config->OCPolarity << 12U);
 8005490:	688a      	ldr	r2, [r1, #8]
 8005492:	0312      	lsls	r2, r2, #12
 8005494:	4302      	orrs	r2, r0
  if (IS_TIM_BREAK_INSTANCE(TIMx))
 8005496:	483c      	ldr	r0, [pc, #240]	@ (8005588 <HAL_TIM_OC_ConfigChannel+0x258>)
 8005498:	4283      	cmp	r3, r0
 800549a:	d055      	beq.n	8005548 <HAL_TIM_OC_ConfigChannel+0x218>
 800549c:	483b      	ldr	r0, [pc, #236]	@ (800558c <HAL_TIM_OC_ConfigChannel+0x25c>)
 800549e:	4283      	cmp	r3, r0
 80054a0:	d052      	beq.n	8005548 <HAL_TIM_OC_ConfigChannel+0x218>
 80054a2:	483b      	ldr	r0, [pc, #236]	@ (8005590 <HAL_TIM_OC_ConfigChannel+0x260>)
 80054a4:	4283      	cmp	r3, r0
 80054a6:	d04f      	beq.n	8005548 <HAL_TIM_OC_ConfigChannel+0x218>
  TIMx->CCR4 = OC_Config->Pulse;
 80054a8:	6849      	ldr	r1, [r1, #4]
  TIMx->CR2 = tmpcr2;
 80054aa:	605e      	str	r6, [r3, #4]
  HAL_StatusTypeDef status = HAL_OK;
 80054ac:	2000      	movs	r0, #0
  TIMx->CCMR2 = tmpccmrx;
 80054ae:	61dd      	str	r5, [r3, #28]
  TIMx->CCR4 = OC_Config->Pulse;
 80054b0:	6419      	str	r1, [r3, #64]	@ 0x40
  TIMx->CCER = tmpccer;
 80054b2:	621a      	str	r2, [r3, #32]
 80054b4:	e74a      	b.n	800534c <HAL_TIM_OC_ConfigChannel+0x1c>
      TIM_OC5_SetConfig(htim->Instance, sConfig);
 80054b6:	6803      	ldr	r3, [r0, #0]
  TIMx->CCER &= ~TIM_CCER_CC5E;
 80054b8:	4d3c      	ldr	r5, [pc, #240]	@ (80055ac <HAL_TIM_OC_ConfigChannel+0x27c>)
  tmpccer = TIMx->CCER;
 80054ba:	6a18      	ldr	r0, [r3, #32]
  TIMx->CCER &= ~TIM_CCER_CC5E;
 80054bc:	6a1a      	ldr	r2, [r3, #32]
 80054be:	402a      	ands	r2, r5
 80054c0:	621a      	str	r2, [r3, #32]
  tmpccmrx &= ~(TIM_CCMR3_OC5M);
 80054c2:	4d3b      	ldr	r5, [pc, #236]	@ (80055b0 <HAL_TIM_OC_ConfigChannel+0x280>)
  tmpcr2 =  TIMx->CR2;
 80054c4:	685e      	ldr	r6, [r3, #4]
  tmpccmrx = TIMx->CCMR3;
 80054c6:	6d5a      	ldr	r2, [r3, #84]	@ 0x54
  tmpccmrx &= ~(TIM_CCMR3_OC5M);
 80054c8:	402a      	ands	r2, r5
  tmpccmrx |= OC_Config->OCMode;
 80054ca:	680d      	ldr	r5, [r1, #0]
 80054cc:	4315      	orrs	r5, r2
  tmpccer &= ~TIM_CCER_CC5P;
 80054ce:	4a39      	ldr	r2, [pc, #228]	@ (80055b4 <HAL_TIM_OC_ConfigChannel+0x284>)
 80054d0:	4010      	ands	r0, r2
  tmpccer |= (OC_Config->OCPolarity << 16U);
 80054d2:	688a      	ldr	r2, [r1, #8]
 80054d4:	0412      	lsls	r2, r2, #16
 80054d6:	4302      	orrs	r2, r0
  if (IS_TIM_BREAK_INSTANCE(TIMx))
 80054d8:	482b      	ldr	r0, [pc, #172]	@ (8005588 <HAL_TIM_OC_ConfigChannel+0x258>)
 80054da:	4283      	cmp	r3, r0
 80054dc:	d01f      	beq.n	800551e <HAL_TIM_OC_ConfigChannel+0x1ee>
 80054de:	482b      	ldr	r0, [pc, #172]	@ (800558c <HAL_TIM_OC_ConfigChannel+0x25c>)
 80054e0:	4283      	cmp	r3, r0
 80054e2:	d01c      	beq.n	800551e <HAL_TIM_OC_ConfigChannel+0x1ee>
 80054e4:	482a      	ldr	r0, [pc, #168]	@ (8005590 <HAL_TIM_OC_ConfigChannel+0x260>)
 80054e6:	4283      	cmp	r3, r0
 80054e8:	d019      	beq.n	800551e <HAL_TIM_OC_ConfigChannel+0x1ee>
  TIMx->CCR5 = OC_Config->Pulse;
 80054ea:	6849      	ldr	r1, [r1, #4]
  TIMx->CR2 = tmpcr2;
 80054ec:	605e      	str	r6, [r3, #4]
  HAL_StatusTypeDef status = HAL_OK;
 80054ee:	2000      	movs	r0, #0
  TIMx->CCMR3 = tmpccmrx;
 80054f0:	655d      	str	r5, [r3, #84]	@ 0x54
  TIMx->CCR5 = OC_Config->Pulse;
 80054f2:	6599      	str	r1, [r3, #88]	@ 0x58
  TIMx->CCER = tmpccer;
 80054f4:	621a      	str	r2, [r3, #32]
 80054f6:	e729      	b.n	800534c <HAL_TIM_OC_ConfigChannel+0x1c>
    tmpccer &= ~TIM_CCER_CC1NP;
 80054f8:	2608      	movs	r6, #8
 80054fa:	43b2      	bics	r2, r6
    tmpccer |= OC_Config->OCNPolarity;
 80054fc:	68ce      	ldr	r6, [r1, #12]
    tmpcr2 |= OC_Config->OCNIdleState;
 80054fe:	698f      	ldr	r7, [r1, #24]
    tmpccer |= OC_Config->OCNPolarity;
 8005500:	4332      	orrs	r2, r6
    tmpccer &= ~TIM_CCER_CC1NE;
 8005502:	2604      	movs	r6, #4
 8005504:	43b2      	bics	r2, r6
    tmpcr2 &= ~TIM_CR2_OIS1N;
 8005506:	4e2c      	ldr	r6, [pc, #176]	@ (80055b8 <HAL_TIM_OC_ConfigChannel+0x288>)
 8005508:	402e      	ands	r6, r5
    tmpcr2 |= OC_Config->OCNIdleState;
 800550a:	694d      	ldr	r5, [r1, #20]
 800550c:	433d      	orrs	r5, r7
 800550e:	4335      	orrs	r5, r6
 8005510:	e761      	b.n	80053d6 <HAL_TIM_OC_ConfigChannel+0xa6>
    tmpcr2 &= ~TIM_CR2_OIS6;
 8005512:	482a      	ldr	r0, [pc, #168]	@ (80055bc <HAL_TIM_OC_ConfigChannel+0x28c>)
 8005514:	4030      	ands	r0, r6
    tmpcr2 |= (OC_Config->OCIdleState << 10U);
 8005516:	694e      	ldr	r6, [r1, #20]
 8005518:	02b6      	lsls	r6, r6, #10
 800551a:	4306      	orrs	r6, r0
 800551c:	e738      	b.n	8005390 <HAL_TIM_OC_ConfigChannel+0x60>
    tmpcr2 &= ~TIM_CR2_OIS5;
 800551e:	4823      	ldr	r0, [pc, #140]	@ (80055ac <HAL_TIM_OC_ConfigChannel+0x27c>)
 8005520:	4030      	ands	r0, r6
    tmpcr2 |= (OC_Config->OCIdleState << 8U);
 8005522:	694e      	ldr	r6, [r1, #20]
 8005524:	0236      	lsls	r6, r6, #8
 8005526:	4306      	orrs	r6, r0
 8005528:	e7df      	b.n	80054ea <HAL_TIM_OC_ConfigChannel+0x1ba>
    tmpccer &= ~TIM_CCER_CC2NP;
 800552a:	2280      	movs	r2, #128	@ 0x80
 800552c:	4390      	bics	r0, r2
    tmpccer |= (OC_Config->OCNPolarity << 4U);
 800552e:	68ca      	ldr	r2, [r1, #12]
 8005530:	0112      	lsls	r2, r2, #4
 8005532:	4310      	orrs	r0, r2
    tmpccer &= ~TIM_CCER_CC2NE;
 8005534:	2240      	movs	r2, #64	@ 0x40
 8005536:	4390      	bics	r0, r2
    tmpcr2 &= ~TIM_CR2_OIS2N;
 8005538:	4a21      	ldr	r2, [pc, #132]	@ (80055c0 <HAL_TIM_OC_ConfigChannel+0x290>)
    tmpcr2 |= (OC_Config->OCIdleState << 2U);
 800553a:	694f      	ldr	r7, [r1, #20]
    tmpcr2 &= ~TIM_CR2_OIS2N;
 800553c:	4032      	ands	r2, r6
    tmpcr2 |= (OC_Config->OCNIdleState << 2U);
 800553e:	698e      	ldr	r6, [r1, #24]
 8005540:	433e      	orrs	r6, r7
 8005542:	00b6      	lsls	r6, r6, #2
 8005544:	4316      	orrs	r6, r2
 8005546:	e76b      	b.n	8005420 <HAL_TIM_OC_ConfigChannel+0xf0>
    tmpcr2 &= ~TIM_CR2_OIS4;
 8005548:	481e      	ldr	r0, [pc, #120]	@ (80055c4 <HAL_TIM_OC_ConfigChannel+0x294>)
 800554a:	4030      	ands	r0, r6
    tmpcr2 |= (OC_Config->OCIdleState << 6U);
 800554c:	694e      	ldr	r6, [r1, #20]
 800554e:	01b6      	lsls	r6, r6, #6
 8005550:	4306      	orrs	r6, r0
 8005552:	e7a9      	b.n	80054a8 <HAL_TIM_OC_ConfigChannel+0x178>
    tmpccer &= ~TIM_CCER_CC3NP;
 8005554:	481c      	ldr	r0, [pc, #112]	@ (80055c8 <HAL_TIM_OC_ConfigChannel+0x298>)
 8005556:	4002      	ands	r2, r0
    tmpccer |= (OC_Config->OCNPolarity << 8U);
 8005558:	68c8      	ldr	r0, [r1, #12]
 800555a:	0200      	lsls	r0, r0, #8
 800555c:	4310      	orrs	r0, r2
    tmpccer &= ~TIM_CCER_CC3NE;
 800555e:	4a1b      	ldr	r2, [pc, #108]	@ (80055cc <HAL_TIM_OC_ConfigChannel+0x29c>)
 8005560:	4002      	ands	r2, r0
    tmpcr2 &= ~TIM_CR2_OIS3N;
 8005562:	481b      	ldr	r0, [pc, #108]	@ (80055d0 <HAL_TIM_OC_ConfigChannel+0x2a0>)
    tmpcr2 |= (OC_Config->OCIdleState << 4U);
 8005564:	694f      	ldr	r7, [r1, #20]
    tmpcr2 &= ~TIM_CR2_OIS3N;
 8005566:	4028      	ands	r0, r5
    tmpcr2 |= (OC_Config->OCNIdleState << 4U);
 8005568:	698d      	ldr	r5, [r1, #24]
 800556a:	433d      	orrs	r5, r7
 800556c:	012d      	lsls	r5, r5, #4
 800556e:	4305      	orrs	r5, r0
 8005570:	e778      	b.n	8005464 <HAL_TIM_OC_ConfigChannel+0x134>
  __HAL_LOCK(htim);
 8005572:	2002      	movs	r0, #2
 8005574:	e6ed      	b.n	8005352 <HAL_TIM_OC_ConfigChannel+0x22>
 8005576:	46c0      	nop			@ (mov r8, r8)
 8005578:	080076d8 	.word	0x080076d8
 800557c:	ffefffff 	.word	0xffefffff
 8005580:	feff8fff 	.word	0xfeff8fff
 8005584:	ffdfffff 	.word	0xffdfffff
 8005588:	40012c00 	.word	0x40012c00
 800558c:	40014400 	.word	0x40014400
 8005590:	40014800 	.word	0x40014800
 8005594:	fffeff8c 	.word	0xfffeff8c
 8005598:	feff8cff 	.word	0xfeff8cff
 800559c:	fffffeff 	.word	0xfffffeff
 80055a0:	fffffdff 	.word	0xfffffdff
 80055a4:	ffffefff 	.word	0xffffefff
 80055a8:	ffffdfff 	.word	0xffffdfff
 80055ac:	fffeffff 	.word	0xfffeffff
 80055b0:	fffeff8f 	.word	0xfffeff8f
 80055b4:	fffdffff 	.word	0xfffdffff
 80055b8:	fffffcff 	.word	0xfffffcff
 80055bc:	fffbffff 	.word	0xfffbffff
 80055c0:	fffff3ff 	.word	0xfffff3ff
 80055c4:	ffffbfff 	.word	0xffffbfff
 80055c8:	fffff7ff 	.word	0xfffff7ff
 80055cc:	fffffbff 	.word	0xfffffbff
 80055d0:	ffffcfff 	.word	0xffffcfff

080055d4 <HAL_TIM_IC_ConfigChannel>:
{
 80055d4:	0003      	movs	r3, r0
  __HAL_LOCK(htim);
 80055d6:	203c      	movs	r0, #60	@ 0x3c
{
 80055d8:	b5f0      	push	{r4, r5, r6, r7, lr}
 80055da:	46ce      	mov	lr, r9
 80055dc:	4647      	mov	r7, r8
  __HAL_LOCK(htim);
 80055de:	5c1c      	ldrb	r4, [r3, r0]
{
 80055e0:	b580      	push	{r7, lr}
  __HAL_LOCK(htim);
 80055e2:	2c01      	cmp	r4, #1
 80055e4:	d100      	bne.n	80055e8 <HAL_TIM_IC_ConfigChannel+0x14>
 80055e6:	e0bf      	b.n	8005768 <HAL_TIM_IC_ConfigChannel+0x194>
 80055e8:	2401      	movs	r4, #1
 80055ea:	541c      	strb	r4, [r3, r0]
  if (Channel == TIM_CHANNEL_1)
 80055ec:	2a00      	cmp	r2, #0
 80055ee:	d00e      	beq.n	800560e <HAL_TIM_IC_ConfigChannel+0x3a>
  else if (Channel == TIM_CHANNEL_2)
 80055f0:	2a04      	cmp	r2, #4
 80055f2:	d039      	beq.n	8005668 <HAL_TIM_IC_ConfigChannel+0x94>
  else if (Channel == TIM_CHANNEL_3)
 80055f4:	2a08      	cmp	r2, #8
 80055f6:	d100      	bne.n	80055fa <HAL_TIM_IC_ConfigChannel+0x26>
 80055f8:	e08d      	b.n	8005716 <HAL_TIM_IC_ConfigChannel+0x142>
    status = HAL_ERROR;
 80055fa:	2001      	movs	r0, #1
  else if (Channel == TIM_CHANNEL_4)
 80055fc:	2a0c      	cmp	r2, #12
 80055fe:	d05a      	beq.n	80056b6 <HAL_TIM_IC_ConfigChannel+0xe2>
  __HAL_UNLOCK(htim);
 8005600:	223c      	movs	r2, #60	@ 0x3c
 8005602:	2100      	movs	r1, #0
 8005604:	5499      	strb	r1, [r3, r2]
}
 8005606:	bcc0      	pop	{r6, r7}
 8005608:	46b9      	mov	r9, r7
 800560a:	46b0      	mov	r8, r6
 800560c:	bdf0      	pop	{r4, r5, r6, r7, pc}
    TIM_TI1_SetConfig(htim->Instance,
 800560e:	681a      	ldr	r2, [r3, #0]
                      sConfig->ICSelection,
 8005610:	6848      	ldr	r0, [r1, #4]
  tmpccer = TIMx->CCER;
 8005612:	6a15      	ldr	r5, [r2, #32]
                      sConfig->ICSelection,
 8005614:	4681      	mov	r9, r0
  TIMx->CCER &= ~TIM_CCER_CC1E;
 8005616:	6a10      	ldr	r0, [r2, #32]
                      sConfig->ICPolarity,
 8005618:	680e      	ldr	r6, [r1, #0]
  TIMx->CCER &= ~TIM_CCER_CC1E;
 800561a:	43a0      	bics	r0, r4
                      sConfig->ICFilter);
 800561c:	68cf      	ldr	r7, [r1, #12]
  TIMx->CCER &= ~TIM_CCER_CC1E;
 800561e:	6210      	str	r0, [r2, #32]
  tmpccmr1 = TIMx->CCMR1;
 8005620:	6990      	ldr	r0, [r2, #24]
 8005622:	4684      	mov	ip, r0
  if (IS_TIM_CC2_INSTANCE(TIMx) != RESET)
 8005624:	4851      	ldr	r0, [pc, #324]	@ (800576c <HAL_TIM_IC_ConfigChannel+0x198>)
 8005626:	4282      	cmp	r2, r0
 8005628:	d06e      	beq.n	8005708 <HAL_TIM_IC_ConfigChannel+0x134>
 800562a:	2080      	movs	r0, #128	@ 0x80
 800562c:	05c0      	lsls	r0, r0, #23
 800562e:	4282      	cmp	r2, r0
 8005630:	d06a      	beq.n	8005708 <HAL_TIM_IC_ConfigChannel+0x134>
 8005632:	484f      	ldr	r0, [pc, #316]	@ (8005770 <HAL_TIM_IC_ConfigChannel+0x19c>)
 8005634:	4282      	cmp	r2, r0
 8005636:	d067      	beq.n	8005708 <HAL_TIM_IC_ConfigChannel+0x134>
    tmpccmr1 |= TIM_CCMR1_CC1S_0;
 8005638:	4660      	mov	r0, ip
 800563a:	4320      	orrs	r0, r4
  tmpccmr1 &= ~TIM_CCMR1_IC1F;
 800563c:	24f0      	movs	r4, #240	@ 0xf0
  tmpccmr1 |= ((TIM_ICFilter << 4U) & TIM_CCMR1_IC1F);
 800563e:	013f      	lsls	r7, r7, #4
  tmpccmr1 &= ~TIM_CCMR1_IC1F;
 8005640:	43a0      	bics	r0, r4
  tmpccmr1 |= ((TIM_ICFilter << 4U) & TIM_CCMR1_IC1F);
 8005642:	340f      	adds	r4, #15
 8005644:	403c      	ands	r4, r7
 8005646:	4304      	orrs	r4, r0
  tmpccer &= ~(TIM_CCER_CC1P | TIM_CCER_CC1NP);
 8005648:	200a      	movs	r0, #10
  TIMx->CCMR1 = tmpccmr1;
 800564a:	6194      	str	r4, [r2, #24]
    htim->Instance->CCMR1 &= ~TIM_CCMR1_IC1PSC;
 800564c:	240c      	movs	r4, #12
  tmpccer &= ~(TIM_CCER_CC1P | TIM_CCER_CC1NP);
 800564e:	4385      	bics	r5, r0
  tmpccer |= (TIM_ICPolarity & (TIM_CCER_CC1P | TIM_CCER_CC1NP));
 8005650:	4030      	ands	r0, r6
 8005652:	4328      	orrs	r0, r5
  TIMx->CCER = tmpccer;
 8005654:	6210      	str	r0, [r2, #32]
    htim->Instance->CCMR1 &= ~TIM_CCMR1_IC1PSC;
 8005656:	6990      	ldr	r0, [r2, #24]
    htim->Instance->CCMR1 |= sConfig->ICPrescaler;
 8005658:	6889      	ldr	r1, [r1, #8]
    htim->Instance->CCMR1 &= ~TIM_CCMR1_IC1PSC;
 800565a:	43a0      	bics	r0, r4
 800565c:	6190      	str	r0, [r2, #24]
    htim->Instance->CCMR1 |= sConfig->ICPrescaler;
 800565e:	6990      	ldr	r0, [r2, #24]
 8005660:	4301      	orrs	r1, r0
 8005662:	6191      	str	r1, [r2, #24]
  HAL_StatusTypeDef status = HAL_OK;
 8005664:	2000      	movs	r0, #0
 8005666:	e7cb      	b.n	8005600 <HAL_TIM_IC_ConfigChannel+0x2c>
                      sConfig->ICFilter);
 8005668:	68c8      	ldr	r0, [r1, #12]
    TIM_TI2_SetConfig(htim->Instance,
 800566a:	681a      	ldr	r2, [r3, #0]
                      sConfig->ICFilter);
 800566c:	4680      	mov	r8, r0
  TIMx->CCER &= ~TIM_CCER_CC2E;
 800566e:	2010      	movs	r0, #16
  tmpccer = TIMx->CCER;
 8005670:	6a15      	ldr	r5, [r2, #32]
  TIMx->CCER &= ~TIM_CCER_CC2E;
 8005672:	6a17      	ldr	r7, [r2, #32]
                      sConfig->ICPolarity,
 8005674:	680e      	ldr	r6, [r1, #0]
  TIMx->CCER &= ~TIM_CCER_CC2E;
 8005676:	4387      	bics	r7, r0
                      sConfig->ICSelection,
 8005678:	684c      	ldr	r4, [r1, #4]
  TIMx->CCER &= ~TIM_CCER_CC2E;
 800567a:	6217      	str	r7, [r2, #32]
  tmpccmr1 = TIMx->CCMR1;
 800567c:	6997      	ldr	r7, [r2, #24]
  tmpccmr1 &= ~TIM_CCMR1_CC2S;
 800567e:	483d      	ldr	r0, [pc, #244]	@ (8005774 <HAL_TIM_IC_ConfigChannel+0x1a0>)
  tmpccmr1 |= (TIM_ICSelection << 8U);
 8005680:	0224      	lsls	r4, r4, #8
  tmpccmr1 &= ~TIM_CCMR1_CC2S;
 8005682:	4007      	ands	r7, r0
  tmpccmr1 |= ((TIM_ICFilter << 12U) & TIM_CCMR1_IC2F);
 8005684:	4640      	mov	r0, r8
  tmpccmr1 |= (TIM_ICSelection << 8U);
 8005686:	433c      	orrs	r4, r7
  tmpccmr1 &= ~TIM_CCMR1_IC2F;
 8005688:	4f3b      	ldr	r7, [pc, #236]	@ (8005778 <HAL_TIM_IC_ConfigChannel+0x1a4>)
  tmpccmr1 |= ((TIM_ICFilter << 12U) & TIM_CCMR1_IC2F);
 800568a:	0700      	lsls	r0, r0, #28
  tmpccmr1 &= ~TIM_CCMR1_IC2F;
 800568c:	403c      	ands	r4, r7
  tmpccmr1 |= ((TIM_ICFilter << 12U) & TIM_CCMR1_IC2F);
 800568e:	0c00      	lsrs	r0, r0, #16
 8005690:	4320      	orrs	r0, r4
  tmpccer &= ~(TIM_CCER_CC2P | TIM_CCER_CC2NP);
 8005692:	24a0      	movs	r4, #160	@ 0xa0
  tmpccer |= ((TIM_ICPolarity << 4U) & (TIM_CCER_CC2P | TIM_CCER_CC2NP));
 8005694:	0136      	lsls	r6, r6, #4
  tmpccer &= ~(TIM_CCER_CC2P | TIM_CCER_CC2NP);
 8005696:	43a5      	bics	r5, r4
  tmpccer |= ((TIM_ICPolarity << 4U) & (TIM_CCER_CC2P | TIM_CCER_CC2NP));
 8005698:	4034      	ands	r4, r6
 800569a:	432c      	orrs	r4, r5
  TIMx->CCMR1 = tmpccmr1 ;
 800569c:	6190      	str	r0, [r2, #24]
  TIMx->CCER = tmpccer;
 800569e:	6214      	str	r4, [r2, #32]
    htim->Instance->CCMR1 &= ~TIM_CCMR1_IC2PSC;
 80056a0:	6990      	ldr	r0, [r2, #24]
 80056a2:	4c36      	ldr	r4, [pc, #216]	@ (800577c <HAL_TIM_IC_ConfigChannel+0x1a8>)
    htim->Instance->CCMR1 |= (sConfig->ICPrescaler << 8U);
 80056a4:	6889      	ldr	r1, [r1, #8]
    htim->Instance->CCMR1 &= ~TIM_CCMR1_IC2PSC;
 80056a6:	4020      	ands	r0, r4
 80056a8:	6190      	str	r0, [r2, #24]
    htim->Instance->CCMR1 |= (sConfig->ICPrescaler << 8U);
 80056aa:	6990      	ldr	r0, [r2, #24]
 80056ac:	0209      	lsls	r1, r1, #8
 80056ae:	4301      	orrs	r1, r0
 80056b0:	6191      	str	r1, [r2, #24]
  HAL_StatusTypeDef status = HAL_OK;
 80056b2:	2000      	movs	r0, #0
 80056b4:	e7a4      	b.n	8005600 <HAL_TIM_IC_ConfigChannel+0x2c>
                      sConfig->ICPolarity,
 80056b6:	6808      	ldr	r0, [r1, #0]
    TIM_TI4_SetConfig(htim->Instance,
 80056b8:	681a      	ldr	r2, [r3, #0]
                      sConfig->ICPolarity,
 80056ba:	4680      	mov	r8, r0
  tmpccer = TIMx->CCER;
 80056bc:	6a16      	ldr	r6, [r2, #32]
  TIMx->CCER &= ~TIM_CCER_CC4E;
 80056be:	4830      	ldr	r0, [pc, #192]	@ (8005780 <HAL_TIM_IC_ConfigChannel+0x1ac>)
 80056c0:	6a17      	ldr	r7, [r2, #32]
                      sConfig->ICSelection,
 80056c2:	684d      	ldr	r5, [r1, #4]
  TIMx->CCER &= ~TIM_CCER_CC4E;
 80056c4:	4007      	ands	r7, r0
                      sConfig->ICFilter);
 80056c6:	68cc      	ldr	r4, [r1, #12]
  TIMx->CCER &= ~TIM_CCER_CC4E;
 80056c8:	6217      	str	r7, [r2, #32]
  tmpccmr2 = TIMx->CCMR2;
 80056ca:	69d7      	ldr	r7, [r2, #28]
  tmpccmr2 &= ~TIM_CCMR2_CC4S;
 80056cc:	4829      	ldr	r0, [pc, #164]	@ (8005774 <HAL_TIM_IC_ConfigChannel+0x1a0>)
  tmpccmr2 |= (TIM_ICSelection << 8U);
 80056ce:	022d      	lsls	r5, r5, #8
  tmpccmr2 &= ~TIM_CCMR2_CC4S;
 80056d0:	4007      	ands	r7, r0
  tmpccmr2 |= (TIM_ICSelection << 8U);
 80056d2:	433d      	orrs	r5, r7
  tmpccmr2 &= ~TIM_CCMR2_IC4F;
 80056d4:	4f28      	ldr	r7, [pc, #160]	@ (8005778 <HAL_TIM_IC_ConfigChannel+0x1a4>)
  tmpccmr2 |= ((TIM_ICFilter << 12U) & TIM_CCMR2_IC4F);
 80056d6:	0724      	lsls	r4, r4, #28
  tmpccmr2 &= ~TIM_CCMR2_IC4F;
 80056d8:	403d      	ands	r5, r7
  tmpccmr2 |= ((TIM_ICFilter << 12U) & TIM_CCMR2_IC4F);
 80056da:	0c24      	lsrs	r4, r4, #16
 80056dc:	432c      	orrs	r4, r5
  tmpccer &= ~(TIM_CCER_CC4P | TIM_CCER_CC4NP);
 80056de:	4d29      	ldr	r5, [pc, #164]	@ (8005784 <HAL_TIM_IC_ConfigChannel+0x1b0>)
  tmpccer |= ((TIM_ICPolarity << 12U) & (TIM_CCER_CC4P | TIM_CCER_CC4NP));
 80056e0:	4640      	mov	r0, r8
  tmpccer &= ~(TIM_CCER_CC4P | TIM_CCER_CC4NP);
 80056e2:	4035      	ands	r5, r6
  tmpccer |= ((TIM_ICPolarity << 12U) & (TIM_CCER_CC4P | TIM_CCER_CC4NP));
 80056e4:	26a0      	movs	r6, #160	@ 0xa0
 80056e6:	0300      	lsls	r0, r0, #12
 80056e8:	0236      	lsls	r6, r6, #8
 80056ea:	4030      	ands	r0, r6
 80056ec:	4328      	orrs	r0, r5
  TIMx->CCMR2 = tmpccmr2;
 80056ee:	61d4      	str	r4, [r2, #28]
  TIMx->CCER = tmpccer ;
 80056f0:	6210      	str	r0, [r2, #32]
    htim->Instance->CCMR2 &= ~TIM_CCMR2_IC4PSC;
 80056f2:	69d0      	ldr	r0, [r2, #28]
 80056f4:	4c21      	ldr	r4, [pc, #132]	@ (800577c <HAL_TIM_IC_ConfigChannel+0x1a8>)
    htim->Instance->CCMR2 |= (sConfig->ICPrescaler << 8U);
 80056f6:	6889      	ldr	r1, [r1, #8]
    htim->Instance->CCMR2 &= ~TIM_CCMR2_IC4PSC;
 80056f8:	4020      	ands	r0, r4
 80056fa:	61d0      	str	r0, [r2, #28]
    htim->Instance->CCMR2 |= (sConfig->ICPrescaler << 8U);
 80056fc:	69d0      	ldr	r0, [r2, #28]
 80056fe:	0209      	lsls	r1, r1, #8
 8005700:	4301      	orrs	r1, r0
 8005702:	61d1      	str	r1, [r2, #28]
  HAL_StatusTypeDef status = HAL_OK;
 8005704:	2000      	movs	r0, #0
 8005706:	e77b      	b.n	8005600 <HAL_TIM_IC_ConfigChannel+0x2c>
    tmpccmr1 &= ~TIM_CCMR1_CC1S;
 8005708:	2403      	movs	r4, #3
 800570a:	4660      	mov	r0, ip
 800570c:	43a0      	bics	r0, r4
 800570e:	0004      	movs	r4, r0
    tmpccmr1 |= TIM_ICSelection;
 8005710:	4648      	mov	r0, r9
 8005712:	4320      	orrs	r0, r4
 8005714:	e792      	b.n	800563c <HAL_TIM_IC_ConfigChannel+0x68>
    TIM_TI3_SetConfig(htim->Instance,
 8005716:	681a      	ldr	r2, [r3, #0]
                      sConfig->ICPolarity,
 8005718:	6808      	ldr	r0, [r1, #0]
  tmpccer = TIMx->CCER;
 800571a:	6a16      	ldr	r6, [r2, #32]
                      sConfig->ICPolarity,
 800571c:	4680      	mov	r8, r0
  TIMx->CCER &= ~TIM_CCER_CC3E;
 800571e:	6a14      	ldr	r4, [r2, #32]
 8005720:	4819      	ldr	r0, [pc, #100]	@ (8005788 <HAL_TIM_IC_ConfigChannel+0x1b4>)
                      sConfig->ICSelection,
 8005722:	684d      	ldr	r5, [r1, #4]
  TIMx->CCER &= ~TIM_CCER_CC3E;
 8005724:	4004      	ands	r4, r0
                      sConfig->ICFilter);
 8005726:	68cf      	ldr	r7, [r1, #12]
  TIMx->CCER &= ~TIM_CCER_CC3E;
 8005728:	6214      	str	r4, [r2, #32]
  tmpccmr2 = TIMx->CCMR2;
 800572a:	69d4      	ldr	r4, [r2, #28]
  tmpccmr2 &= ~TIM_CCMR2_CC3S;
 800572c:	3005      	adds	r0, #5
 800572e:	30ff      	adds	r0, #255	@ 0xff
 8005730:	4384      	bics	r4, r0
  tmpccmr2 |= TIM_ICSelection;
 8005732:	4325      	orrs	r5, r4
  tmpccmr2 &= ~TIM_CCMR2_IC3F;
 8005734:	24f0      	movs	r4, #240	@ 0xf0
  tmpccmr2 |= ((TIM_ICFilter << 4U) & TIM_CCMR2_IC3F);
 8005736:	013f      	lsls	r7, r7, #4
  tmpccmr2 &= ~TIM_CCMR2_IC3F;
 8005738:	43a5      	bics	r5, r4
  tmpccmr2 |= ((TIM_ICFilter << 4U) & TIM_CCMR2_IC3F);
 800573a:	340f      	adds	r4, #15
 800573c:	403c      	ands	r4, r7
 800573e:	432c      	orrs	r4, r5
  tmpccer &= ~(TIM_CCER_CC3P | TIM_CCER_CC3NP);
 8005740:	4d12      	ldr	r5, [pc, #72]	@ (800578c <HAL_TIM_IC_ConfigChannel+0x1b8>)
  tmpccer |= ((TIM_ICPolarity << 8U) & (TIM_CCER_CC3P | TIM_CCER_CC3NP));
 8005742:	4640      	mov	r0, r8
  tmpccer &= ~(TIM_CCER_CC3P | TIM_CCER_CC3NP);
 8005744:	4035      	ands	r5, r6
  tmpccer |= ((TIM_ICPolarity << 8U) & (TIM_CCER_CC3P | TIM_CCER_CC3NP));
 8005746:	26a0      	movs	r6, #160	@ 0xa0
  TIMx->CCMR2 = tmpccmr2;
 8005748:	61d4      	str	r4, [r2, #28]
    htim->Instance->CCMR2 &= ~TIM_CCMR2_IC3PSC;
 800574a:	240c      	movs	r4, #12
  tmpccer |= ((TIM_ICPolarity << 8U) & (TIM_CCER_CC3P | TIM_CCER_CC3NP));
 800574c:	0200      	lsls	r0, r0, #8
 800574e:	0136      	lsls	r6, r6, #4
 8005750:	4030      	ands	r0, r6
 8005752:	4328      	orrs	r0, r5
  TIMx->CCER = tmpccer;
 8005754:	6210      	str	r0, [r2, #32]
    htim->Instance->CCMR2 &= ~TIM_CCMR2_IC3PSC;
 8005756:	69d0      	ldr	r0, [r2, #28]
    htim->Instance->CCMR2 |= sConfig->ICPrescaler;
 8005758:	6889      	ldr	r1, [r1, #8]
    htim->Instance->CCMR2 &= ~TIM_CCMR2_IC3PSC;
 800575a:	43a0      	bics	r0, r4
 800575c:	61d0      	str	r0, [r2, #28]
    htim->Instance->CCMR2 |= sConfig->ICPrescaler;
 800575e:	69d0      	ldr	r0, [r2, #28]
 8005760:	4301      	orrs	r1, r0
 8005762:	61d1      	str	r1, [r2, #28]
  HAL_StatusTypeDef status = HAL_OK;
 8005764:	2000      	movs	r0, #0
 8005766:	e74b      	b.n	8005600 <HAL_TIM_IC_ConfigChannel+0x2c>
  __HAL_LOCK(htim);
 8005768:	2002      	movs	r0, #2
 800576a:	e74c      	b.n	8005606 <HAL_TIM_IC_ConfigChannel+0x32>
 800576c:	40012c00 	.word	0x40012c00
 8005770:	40000400 	.word	0x40000400
 8005774:	fffffcff 	.word	0xfffffcff
 8005778:	ffff0fff 	.word	0xffff0fff
 800577c:	fffff3ff 	.word	0xfffff3ff
 8005780:	ffffefff 	.word	0xffffefff
 8005784:	ffff5fff 	.word	0xffff5fff
 8005788:	fffffeff 	.word	0xfffffeff
 800578c:	fffff5ff 	.word	0xfffff5ff

08005790 <HAL_TIM_PWM_ConfigChannel>:
{
 8005790:	0003      	movs	r3, r0
  __HAL_LOCK(htim);
 8005792:	203c      	movs	r0, #60	@ 0x3c
{
 8005794:	b5f0      	push	{r4, r5, r6, r7, lr}
  __HAL_LOCK(htim);
 8005796:	5c1c      	ldrb	r4, [r3, r0]
 8005798:	2c01      	cmp	r4, #1
 800579a:	d100      	bne.n	800579e <HAL_TIM_PWM_ConfigChannel+0xe>
 800579c:	e16b      	b.n	8005a76 <HAL_TIM_PWM_ConfigChannel+0x2e6>
 800579e:	2401      	movs	r4, #1
 80057a0:	541c      	strb	r4, [r3, r0]
  switch (Channel)
 80057a2:	2a14      	cmp	r2, #20
 80057a4:	d803      	bhi.n	80057ae <HAL_TIM_PWM_ConfigChannel+0x1e>
 80057a6:	48b5      	ldr	r0, [pc, #724]	@ (8005a7c <HAL_TIM_PWM_ConfigChannel+0x2ec>)
 80057a8:	0092      	lsls	r2, r2, #2
 80057aa:	5882      	ldr	r2, [r0, r2]
 80057ac:	4697      	mov	pc, r2
 80057ae:	2001      	movs	r0, #1
  __HAL_UNLOCK(htim);
 80057b0:	223c      	movs	r2, #60	@ 0x3c
 80057b2:	2100      	movs	r1, #0
 80057b4:	5499      	strb	r1, [r3, r2]
}
 80057b6:	bdf0      	pop	{r4, r5, r6, r7, pc}
      TIM_OC6_SetConfig(htim->Instance, sConfig);
 80057b8:	681a      	ldr	r2, [r3, #0]
  TIMx->CCER &= ~TIM_CCER_CC6E;
 80057ba:	4db1      	ldr	r5, [pc, #708]	@ (8005a80 <HAL_TIM_PWM_ConfigChannel+0x2f0>)
  tmpccer = TIMx->CCER;
 80057bc:	6a14      	ldr	r4, [r2, #32]
  TIMx->CCER &= ~TIM_CCER_CC6E;
 80057be:	6a10      	ldr	r0, [r2, #32]
 80057c0:	4028      	ands	r0, r5
 80057c2:	6210      	str	r0, [r2, #32]
  tmpccmrx &= ~(TIM_CCMR3_OC6M);
 80057c4:	4daf      	ldr	r5, [pc, #700]	@ (8005a84 <HAL_TIM_PWM_ConfigChannel+0x2f4>)
  tmpcr2 =  TIMx->CR2;
 80057c6:	6856      	ldr	r6, [r2, #4]
  tmpccmrx = TIMx->CCMR3;
 80057c8:	6d50      	ldr	r0, [r2, #84]	@ 0x54
  tmpccmrx &= ~(TIM_CCMR3_OC6M);
 80057ca:	4028      	ands	r0, r5
  tmpccmrx |= (OC_Config->OCMode << 8U);
 80057cc:	680d      	ldr	r5, [r1, #0]
 80057ce:	022d      	lsls	r5, r5, #8
 80057d0:	4305      	orrs	r5, r0
  tmpccer &= (uint32_t)~TIM_CCER_CC6P;
 80057d2:	48ad      	ldr	r0, [pc, #692]	@ (8005a88 <HAL_TIM_PWM_ConfigChannel+0x2f8>)
 80057d4:	4004      	ands	r4, r0
  tmpccer |= (OC_Config->OCPolarity << 20U);
 80057d6:	6888      	ldr	r0, [r1, #8]
 80057d8:	0500      	lsls	r0, r0, #20
 80057da:	4320      	orrs	r0, r4
  if (IS_TIM_BREAK_INSTANCE(TIMx))
 80057dc:	4cab      	ldr	r4, [pc, #684]	@ (8005a8c <HAL_TIM_PWM_ConfigChannel+0x2fc>)
 80057de:	42a2      	cmp	r2, r4
 80057e0:	d100      	bne.n	80057e4 <HAL_TIM_PWM_ConfigChannel+0x54>
 80057e2:	e118      	b.n	8005a16 <HAL_TIM_PWM_ConfigChannel+0x286>
 80057e4:	4caa      	ldr	r4, [pc, #680]	@ (8005a90 <HAL_TIM_PWM_ConfigChannel+0x300>)
 80057e6:	42a2      	cmp	r2, r4
 80057e8:	d100      	bne.n	80057ec <HAL_TIM_PWM_ConfigChannel+0x5c>
 80057ea:	e114      	b.n	8005a16 <HAL_TIM_PWM_ConfigChannel+0x286>
 80057ec:	4ca9      	ldr	r4, [pc, #676]	@ (8005a94 <HAL_TIM_PWM_ConfigChannel+0x304>)
 80057ee:	42a2      	cmp	r2, r4
 80057f0:	d100      	bne.n	80057f4 <HAL_TIM_PWM_ConfigChannel+0x64>
 80057f2:	e110      	b.n	8005a16 <HAL_TIM_PWM_ConfigChannel+0x286>
  TIMx->CCR6 = OC_Config->Pulse;
 80057f4:	684c      	ldr	r4, [r1, #4]
  TIMx->CR2 = tmpcr2;
 80057f6:	6056      	str	r6, [r2, #4]
  TIMx->CCMR3 = tmpccmrx;
 80057f8:	6555      	str	r5, [r2, #84]	@ 0x54
  TIMx->CCR6 = OC_Config->Pulse;
 80057fa:	65d4      	str	r4, [r2, #92]	@ 0x5c
  TIMx->CCER = tmpccer;
 80057fc:	6210      	str	r0, [r2, #32]
      htim->Instance->CCMR3 |= TIM_CCMR3_OC6PE;
 80057fe:	2080      	movs	r0, #128	@ 0x80
 8005800:	6d54      	ldr	r4, [r2, #84]	@ 0x54
 8005802:	0100      	lsls	r0, r0, #4
 8005804:	4320      	orrs	r0, r4
 8005806:	6550      	str	r0, [r2, #84]	@ 0x54
      htim->Instance->CCMR3 &= ~TIM_CCMR3_OC6FE;
 8005808:	6d50      	ldr	r0, [r2, #84]	@ 0x54
 800580a:	4ca3      	ldr	r4, [pc, #652]	@ (8005a98 <HAL_TIM_PWM_ConfigChannel+0x308>)
      htim->Instance->CCMR3 |= sConfig->OCFastMode << 8U;
 800580c:	6909      	ldr	r1, [r1, #16]
      htim->Instance->CCMR3 &= ~TIM_CCMR3_OC6FE;
 800580e:	4020      	ands	r0, r4
 8005810:	6550      	str	r0, [r2, #84]	@ 0x54
      htim->Instance->CCMR3 |= sConfig->OCFastMode << 8U;
 8005812:	6d50      	ldr	r0, [r2, #84]	@ 0x54
 8005814:	0209      	lsls	r1, r1, #8
 8005816:	4301      	orrs	r1, r0
 8005818:	6551      	str	r1, [r2, #84]	@ 0x54
  HAL_StatusTypeDef status = HAL_OK;
 800581a:	2000      	movs	r0, #0
 800581c:	e7c8      	b.n	80057b0 <HAL_TIM_PWM_ConfigChannel+0x20>
  TIMx->CCER &= ~TIM_CCER_CC1E;
 800581e:	2501      	movs	r5, #1
      TIM_OC1_SetConfig(htim->Instance, sConfig);
 8005820:	681a      	ldr	r2, [r3, #0]
  tmpccmrx &= ~TIM_CCMR1_CC1S;
 8005822:	4e9e      	ldr	r6, [pc, #632]	@ (8005a9c <HAL_TIM_PWM_ConfigChannel+0x30c>)
  tmpccer = TIMx->CCER;
 8005824:	6a10      	ldr	r0, [r2, #32]
  TIMx->CCER &= ~TIM_CCER_CC1E;
 8005826:	6a14      	ldr	r4, [r2, #32]
 8005828:	43ac      	bics	r4, r5
 800582a:	6214      	str	r4, [r2, #32]
  tmpcr2 =  TIMx->CR2;
 800582c:	6855      	ldr	r5, [r2, #4]
  tmpccmrx = TIMx->CCMR1;
 800582e:	6994      	ldr	r4, [r2, #24]
  tmpccmrx &= ~TIM_CCMR1_CC1S;
 8005830:	4034      	ands	r4, r6
  tmpccmrx |= OC_Config->OCMode;
 8005832:	680e      	ldr	r6, [r1, #0]
 8005834:	4334      	orrs	r4, r6
  tmpccer &= ~TIM_CCER_CC1P;
 8005836:	2602      	movs	r6, #2
 8005838:	43b0      	bics	r0, r6
  tmpccer |= OC_Config->OCPolarity;
 800583a:	688e      	ldr	r6, [r1, #8]
 800583c:	4330      	orrs	r0, r6
  if (IS_TIM_CCXN_INSTANCE(TIMx, TIM_CHANNEL_1))
 800583e:	4e93      	ldr	r6, [pc, #588]	@ (8005a8c <HAL_TIM_PWM_ConfigChannel+0x2fc>)
 8005840:	42b2      	cmp	r2, r6
 8005842:	d100      	bne.n	8005846 <HAL_TIM_PWM_ConfigChannel+0xb6>
 8005844:	e0da      	b.n	80059fc <HAL_TIM_PWM_ConfigChannel+0x26c>
 8005846:	4e92      	ldr	r6, [pc, #584]	@ (8005a90 <HAL_TIM_PWM_ConfigChannel+0x300>)
 8005848:	42b2      	cmp	r2, r6
 800584a:	d100      	bne.n	800584e <HAL_TIM_PWM_ConfigChannel+0xbe>
 800584c:	e0d6      	b.n	80059fc <HAL_TIM_PWM_ConfigChannel+0x26c>
 800584e:	4e91      	ldr	r6, [pc, #580]	@ (8005a94 <HAL_TIM_PWM_ConfigChannel+0x304>)
 8005850:	42b2      	cmp	r2, r6
 8005852:	d100      	bne.n	8005856 <HAL_TIM_PWM_ConfigChannel+0xc6>
 8005854:	e0d2      	b.n	80059fc <HAL_TIM_PWM_ConfigChannel+0x26c>
  TIMx->CR2 = tmpcr2;
 8005856:	6055      	str	r5, [r2, #4]
  TIMx->CCMR1 = tmpccmrx;
 8005858:	6194      	str	r4, [r2, #24]
  TIMx->CCR1 = OC_Config->Pulse;
 800585a:	684c      	ldr	r4, [r1, #4]
      htim->Instance->CCMR1 |= sConfig->OCFastMode;
 800585c:	6909      	ldr	r1, [r1, #16]
  TIMx->CCR1 = OC_Config->Pulse;
 800585e:	6354      	str	r4, [r2, #52]	@ 0x34
      htim->Instance->CCMR1 |= TIM_CCMR1_OC1PE;
 8005860:	2408      	movs	r4, #8
  TIMx->CCER = tmpccer;
 8005862:	6210      	str	r0, [r2, #32]
      htim->Instance->CCMR1 |= TIM_CCMR1_OC1PE;
 8005864:	6990      	ldr	r0, [r2, #24]
 8005866:	4320      	orrs	r0, r4
 8005868:	6190      	str	r0, [r2, #24]
      htim->Instance->CCMR1 &= ~TIM_CCMR1_OC1FE;
 800586a:	6990      	ldr	r0, [r2, #24]
 800586c:	3c04      	subs	r4, #4
 800586e:	43a0      	bics	r0, r4
 8005870:	6190      	str	r0, [r2, #24]
      htim->Instance->CCMR1 |= sConfig->OCFastMode;
 8005872:	6990      	ldr	r0, [r2, #24]
 8005874:	4301      	orrs	r1, r0
 8005876:	6191      	str	r1, [r2, #24]
  HAL_StatusTypeDef status = HAL_OK;
 8005878:	2000      	movs	r0, #0
 800587a:	e799      	b.n	80057b0 <HAL_TIM_PWM_ConfigChannel+0x20>
  TIMx->CCER &= ~TIM_CCER_CC2E;
 800587c:	2510      	movs	r5, #16
      TIM_OC2_SetConfig(htim->Instance, sConfig);
 800587e:	681a      	ldr	r2, [r3, #0]
  tmpccer = TIMx->CCER;
 8005880:	6a10      	ldr	r0, [r2, #32]
  TIMx->CCER &= ~TIM_CCER_CC2E;
 8005882:	6a14      	ldr	r4, [r2, #32]
 8005884:	43ac      	bics	r4, r5
 8005886:	6214      	str	r4, [r2, #32]
  tmpccmrx &= ~TIM_CCMR1_CC2S;
 8005888:	4d85      	ldr	r5, [pc, #532]	@ (8005aa0 <HAL_TIM_PWM_ConfigChannel+0x310>)
  tmpcr2 =  TIMx->CR2;
 800588a:	6856      	ldr	r6, [r2, #4]
  tmpccmrx = TIMx->CCMR1;
 800588c:	6994      	ldr	r4, [r2, #24]
  tmpccmrx &= ~TIM_CCMR1_CC2S;
 800588e:	402c      	ands	r4, r5
  tmpccmrx |= (OC_Config->OCMode << 8U);
 8005890:	680d      	ldr	r5, [r1, #0]
 8005892:	022d      	lsls	r5, r5, #8
 8005894:	4325      	orrs	r5, r4
  tmpccer &= ~TIM_CCER_CC2P;
 8005896:	2420      	movs	r4, #32
 8005898:	43a0      	bics	r0, r4
  tmpccer |= (OC_Config->OCPolarity << 4U);
 800589a:	688c      	ldr	r4, [r1, #8]
 800589c:	0124      	lsls	r4, r4, #4
 800589e:	4304      	orrs	r4, r0
  if (IS_TIM_CCXN_INSTANCE(TIMx, TIM_CHANNEL_2))
 80058a0:	487a      	ldr	r0, [pc, #488]	@ (8005a8c <HAL_TIM_PWM_ConfigChannel+0x2fc>)
 80058a2:	4282      	cmp	r2, r0
 80058a4:	d100      	bne.n	80058a8 <HAL_TIM_PWM_ConfigChannel+0x118>
 80058a6:	e0c2      	b.n	8005a2e <HAL_TIM_PWM_ConfigChannel+0x29e>
  if (IS_TIM_BREAK_INSTANCE(TIMx))
 80058a8:	4879      	ldr	r0, [pc, #484]	@ (8005a90 <HAL_TIM_PWM_ConfigChannel+0x300>)
 80058aa:	4282      	cmp	r2, r0
 80058ac:	d100      	bne.n	80058b0 <HAL_TIM_PWM_ConfigChannel+0x120>
 80058ae:	e0c5      	b.n	8005a3c <HAL_TIM_PWM_ConfigChannel+0x2ac>
 80058b0:	4878      	ldr	r0, [pc, #480]	@ (8005a94 <HAL_TIM_PWM_ConfigChannel+0x304>)
 80058b2:	4282      	cmp	r2, r0
 80058b4:	d100      	bne.n	80058b8 <HAL_TIM_PWM_ConfigChannel+0x128>
 80058b6:	e0c1      	b.n	8005a3c <HAL_TIM_PWM_ConfigChannel+0x2ac>
  TIMx->CCR2 = OC_Config->Pulse;
 80058b8:	6848      	ldr	r0, [r1, #4]
  TIMx->CR2 = tmpcr2;
 80058ba:	6056      	str	r6, [r2, #4]
  TIMx->CCMR1 = tmpccmrx;
 80058bc:	6195      	str	r5, [r2, #24]
  TIMx->CCR2 = OC_Config->Pulse;
 80058be:	6390      	str	r0, [r2, #56]	@ 0x38
      htim->Instance->CCMR1 |= TIM_CCMR1_OC2PE;
 80058c0:	2080      	movs	r0, #128	@ 0x80
  TIMx->CCER = tmpccer;
 80058c2:	6214      	str	r4, [r2, #32]
      htim->Instance->CCMR1 |= TIM_CCMR1_OC2PE;
 80058c4:	6994      	ldr	r4, [r2, #24]
 80058c6:	0100      	lsls	r0, r0, #4
 80058c8:	4320      	orrs	r0, r4
 80058ca:	6190      	str	r0, [r2, #24]
      htim->Instance->CCMR1 &= ~TIM_CCMR1_OC2FE;
 80058cc:	6990      	ldr	r0, [r2, #24]
 80058ce:	4c72      	ldr	r4, [pc, #456]	@ (8005a98 <HAL_TIM_PWM_ConfigChannel+0x308>)
      htim->Instance->CCMR1 |= sConfig->OCFastMode << 8U;
 80058d0:	6909      	ldr	r1, [r1, #16]
      htim->Instance->CCMR1 &= ~TIM_CCMR1_OC2FE;
 80058d2:	4020      	ands	r0, r4
 80058d4:	6190      	str	r0, [r2, #24]
      htim->Instance->CCMR1 |= sConfig->OCFastMode << 8U;
 80058d6:	6990      	ldr	r0, [r2, #24]
 80058d8:	0209      	lsls	r1, r1, #8
 80058da:	4301      	orrs	r1, r0
 80058dc:	6191      	str	r1, [r2, #24]
  HAL_StatusTypeDef status = HAL_OK;
 80058de:	2000      	movs	r0, #0
 80058e0:	e766      	b.n	80057b0 <HAL_TIM_PWM_ConfigChannel+0x20>
      TIM_OC3_SetConfig(htim->Instance, sConfig);
 80058e2:	681a      	ldr	r2, [r3, #0]
  TIMx->CCER &= ~TIM_CCER_CC3E;
 80058e4:	4d6f      	ldr	r5, [pc, #444]	@ (8005aa4 <HAL_TIM_PWM_ConfigChannel+0x314>)
  tmpccer = TIMx->CCER;
 80058e6:	6a10      	ldr	r0, [r2, #32]
  TIMx->CCER &= ~TIM_CCER_CC3E;
 80058e8:	6a14      	ldr	r4, [r2, #32]
  tmpccmrx &= ~TIM_CCMR2_CC3S;
 80058ea:	4e6c      	ldr	r6, [pc, #432]	@ (8005a9c <HAL_TIM_PWM_ConfigChannel+0x30c>)
  TIMx->CCER &= ~TIM_CCER_CC3E;
 80058ec:	402c      	ands	r4, r5
 80058ee:	6214      	str	r4, [r2, #32]
  tmpcr2 =  TIMx->CR2;
 80058f0:	6855      	ldr	r5, [r2, #4]
  tmpccmrx = TIMx->CCMR2;
 80058f2:	69d4      	ldr	r4, [r2, #28]
  tmpccmrx &= ~TIM_CCMR2_CC3S;
 80058f4:	4034      	ands	r4, r6
  tmpccmrx |= OC_Config->OCMode;
 80058f6:	680e      	ldr	r6, [r1, #0]
 80058f8:	4326      	orrs	r6, r4
  tmpccer &= ~TIM_CCER_CC3P;
 80058fa:	4c6b      	ldr	r4, [pc, #428]	@ (8005aa8 <HAL_TIM_PWM_ConfigChannel+0x318>)
 80058fc:	4020      	ands	r0, r4
  tmpccer |= (OC_Config->OCPolarity << 8U);
 80058fe:	688c      	ldr	r4, [r1, #8]
 8005900:	0224      	lsls	r4, r4, #8
 8005902:	4320      	orrs	r0, r4
  if (IS_TIM_CCXN_INSTANCE(TIMx, TIM_CHANNEL_3))
 8005904:	4c61      	ldr	r4, [pc, #388]	@ (8005a8c <HAL_TIM_PWM_ConfigChannel+0x2fc>)
 8005906:	42a2      	cmp	r2, r4
 8005908:	d100      	bne.n	800590c <HAL_TIM_PWM_ConfigChannel+0x17c>
 800590a:	e0a5      	b.n	8005a58 <HAL_TIM_PWM_ConfigChannel+0x2c8>
  if (IS_TIM_BREAK_INSTANCE(TIMx))
 800590c:	4c60      	ldr	r4, [pc, #384]	@ (8005a90 <HAL_TIM_PWM_ConfigChannel+0x300>)
 800590e:	42a2      	cmp	r2, r4
 8005910:	d100      	bne.n	8005914 <HAL_TIM_PWM_ConfigChannel+0x184>
 8005912:	e0a8      	b.n	8005a66 <HAL_TIM_PWM_ConfigChannel+0x2d6>
 8005914:	4c5f      	ldr	r4, [pc, #380]	@ (8005a94 <HAL_TIM_PWM_ConfigChannel+0x304>)
 8005916:	42a2      	cmp	r2, r4
 8005918:	d100      	bne.n	800591c <HAL_TIM_PWM_ConfigChannel+0x18c>
 800591a:	e0a4      	b.n	8005a66 <HAL_TIM_PWM_ConfigChannel+0x2d6>
  TIMx->CCR3 = OC_Config->Pulse;
 800591c:	684c      	ldr	r4, [r1, #4]
  TIMx->CR2 = tmpcr2;
 800591e:	6055      	str	r5, [r2, #4]
  TIMx->CCMR2 = tmpccmrx;
 8005920:	61d6      	str	r6, [r2, #28]
  TIMx->CCR3 = OC_Config->Pulse;
 8005922:	63d4      	str	r4, [r2, #60]	@ 0x3c
      htim->Instance->CCMR2 |= TIM_CCMR2_OC3PE;
 8005924:	2408      	movs	r4, #8
  TIMx->CCER = tmpccer;
 8005926:	6210      	str	r0, [r2, #32]
      htim->Instance->CCMR2 |= TIM_CCMR2_OC3PE;
 8005928:	69d0      	ldr	r0, [r2, #28]
      htim->Instance->CCMR2 |= sConfig->OCFastMode;
 800592a:	6909      	ldr	r1, [r1, #16]
      htim->Instance->CCMR2 |= TIM_CCMR2_OC3PE;
 800592c:	4320      	orrs	r0, r4
 800592e:	61d0      	str	r0, [r2, #28]
      htim->Instance->CCMR2 &= ~TIM_CCMR2_OC3FE;
 8005930:	69d0      	ldr	r0, [r2, #28]
 8005932:	3c04      	subs	r4, #4
 8005934:	43a0      	bics	r0, r4
 8005936:	61d0      	str	r0, [r2, #28]
      htim->Instance->CCMR2 |= sConfig->OCFastMode;
 8005938:	69d0      	ldr	r0, [r2, #28]
 800593a:	4301      	orrs	r1, r0
 800593c:	61d1      	str	r1, [r2, #28]
  HAL_StatusTypeDef status = HAL_OK;
 800593e:	2000      	movs	r0, #0
 8005940:	e736      	b.n	80057b0 <HAL_TIM_PWM_ConfigChannel+0x20>
      TIM_OC4_SetConfig(htim->Instance, sConfig);
 8005942:	681a      	ldr	r2, [r3, #0]
  TIMx->CCER &= ~TIM_CCER_CC4E;
 8005944:	4d59      	ldr	r5, [pc, #356]	@ (8005aac <HAL_TIM_PWM_ConfigChannel+0x31c>)
  tmpccer = TIMx->CCER;
 8005946:	6a14      	ldr	r4, [r2, #32]
  TIMx->CCER &= ~TIM_CCER_CC4E;
 8005948:	6a10      	ldr	r0, [r2, #32]
 800594a:	4028      	ands	r0, r5
 800594c:	6210      	str	r0, [r2, #32]
  tmpccmrx &= ~TIM_CCMR2_CC4S;
 800594e:	4d54      	ldr	r5, [pc, #336]	@ (8005aa0 <HAL_TIM_PWM_ConfigChannel+0x310>)
  tmpcr2 =  TIMx->CR2;
 8005950:	6856      	ldr	r6, [r2, #4]
  tmpccmrx = TIMx->CCMR2;
 8005952:	69d0      	ldr	r0, [r2, #28]
  tmpccmrx &= ~TIM_CCMR2_CC4S;
 8005954:	4028      	ands	r0, r5
  tmpccmrx |= (OC_Config->OCMode << 8U);
 8005956:	680d      	ldr	r5, [r1, #0]
 8005958:	022d      	lsls	r5, r5, #8
 800595a:	4305      	orrs	r5, r0
  tmpccer &= ~TIM_CCER_CC4P;
 800595c:	4854      	ldr	r0, [pc, #336]	@ (8005ab0 <HAL_TIM_PWM_ConfigChannel+0x320>)
 800595e:	4004      	ands	r4, r0
  tmpccer |= (OC_Config->OCPolarity << 12U);
 8005960:	6888      	ldr	r0, [r1, #8]
 8005962:	0300      	lsls	r0, r0, #12
 8005964:	4320      	orrs	r0, r4
  if (IS_TIM_BREAK_INSTANCE(TIMx))
 8005966:	4c49      	ldr	r4, [pc, #292]	@ (8005a8c <HAL_TIM_PWM_ConfigChannel+0x2fc>)
 8005968:	42a2      	cmp	r2, r4
 800596a:	d06f      	beq.n	8005a4c <HAL_TIM_PWM_ConfigChannel+0x2bc>
 800596c:	4c48      	ldr	r4, [pc, #288]	@ (8005a90 <HAL_TIM_PWM_ConfigChannel+0x300>)
 800596e:	42a2      	cmp	r2, r4
 8005970:	d06c      	beq.n	8005a4c <HAL_TIM_PWM_ConfigChannel+0x2bc>
 8005972:	4c48      	ldr	r4, [pc, #288]	@ (8005a94 <HAL_TIM_PWM_ConfigChannel+0x304>)
 8005974:	42a2      	cmp	r2, r4
 8005976:	d069      	beq.n	8005a4c <HAL_TIM_PWM_ConfigChannel+0x2bc>
  TIMx->CCR4 = OC_Config->Pulse;
 8005978:	684c      	ldr	r4, [r1, #4]
  TIMx->CR2 = tmpcr2;
 800597a:	6056      	str	r6, [r2, #4]
  TIMx->CCMR2 = tmpccmrx;
 800597c:	61d5      	str	r5, [r2, #28]
  TIMx->CCR4 = OC_Config->Pulse;
 800597e:	6414      	str	r4, [r2, #64]	@ 0x40
  TIMx->CCER = tmpccer;
 8005980:	6210      	str	r0, [r2, #32]
      htim->Instance->CCMR2 |= TIM_CCMR2_OC4PE;
 8005982:	2080      	movs	r0, #128	@ 0x80
 8005984:	69d4      	ldr	r4, [r2, #28]
 8005986:	0100      	lsls	r0, r0, #4
 8005988:	4320      	orrs	r0, r4
 800598a:	61d0      	str	r0, [r2, #28]
      htim->Instance->CCMR2 &= ~TIM_CCMR2_OC4FE;
 800598c:	69d0      	ldr	r0, [r2, #28]
 800598e:	4c42      	ldr	r4, [pc, #264]	@ (8005a98 <HAL_TIM_PWM_ConfigChannel+0x308>)
      htim->Instance->CCMR2 |= sConfig->OCFastMode << 8U;
 8005990:	6909      	ldr	r1, [r1, #16]
      htim->Instance->CCMR2 &= ~TIM_CCMR2_OC4FE;
 8005992:	4020      	ands	r0, r4
 8005994:	61d0      	str	r0, [r2, #28]
      htim->Instance->CCMR2 |= sConfig->OCFastMode << 8U;
 8005996:	69d0      	ldr	r0, [r2, #28]
 8005998:	0209      	lsls	r1, r1, #8
 800599a:	4301      	orrs	r1, r0
 800599c:	61d1      	str	r1, [r2, #28]
  HAL_StatusTypeDef status = HAL_OK;
 800599e:	2000      	movs	r0, #0
 80059a0:	e706      	b.n	80057b0 <HAL_TIM_PWM_ConfigChannel+0x20>
      TIM_OC5_SetConfig(htim->Instance, sConfig);
 80059a2:	681a      	ldr	r2, [r3, #0]
  TIMx->CCER &= ~TIM_CCER_CC5E;
 80059a4:	4d43      	ldr	r5, [pc, #268]	@ (8005ab4 <HAL_TIM_PWM_ConfigChannel+0x324>)
  tmpccer = TIMx->CCER;
 80059a6:	6a14      	ldr	r4, [r2, #32]
  TIMx->CCER &= ~TIM_CCER_CC5E;
 80059a8:	6a10      	ldr	r0, [r2, #32]
 80059aa:	4028      	ands	r0, r5
 80059ac:	6210      	str	r0, [r2, #32]
  tmpccmrx &= ~(TIM_CCMR3_OC5M);
 80059ae:	4d42      	ldr	r5, [pc, #264]	@ (8005ab8 <HAL_TIM_PWM_ConfigChannel+0x328>)
  tmpcr2 =  TIMx->CR2;
 80059b0:	6856      	ldr	r6, [r2, #4]
  tmpccmrx = TIMx->CCMR3;
 80059b2:	6d50      	ldr	r0, [r2, #84]	@ 0x54
  tmpccmrx &= ~(TIM_CCMR3_OC5M);
 80059b4:	4028      	ands	r0, r5
  tmpccmrx |= OC_Config->OCMode;
 80059b6:	680d      	ldr	r5, [r1, #0]
 80059b8:	4305      	orrs	r5, r0
  tmpccer &= ~TIM_CCER_CC5P;
 80059ba:	4840      	ldr	r0, [pc, #256]	@ (8005abc <HAL_TIM_PWM_ConfigChannel+0x32c>)
 80059bc:	4004      	ands	r4, r0
  tmpccer |= (OC_Config->OCPolarity << 16U);
 80059be:	6888      	ldr	r0, [r1, #8]
 80059c0:	0400      	lsls	r0, r0, #16
 80059c2:	4320      	orrs	r0, r4
  if (IS_TIM_BREAK_INSTANCE(TIMx))
 80059c4:	4c31      	ldr	r4, [pc, #196]	@ (8005a8c <HAL_TIM_PWM_ConfigChannel+0x2fc>)
 80059c6:	42a2      	cmp	r2, r4
 80059c8:	d02b      	beq.n	8005a22 <HAL_TIM_PWM_ConfigChannel+0x292>
 80059ca:	4c31      	ldr	r4, [pc, #196]	@ (8005a90 <HAL_TIM_PWM_ConfigChannel+0x300>)
 80059cc:	42a2      	cmp	r2, r4
 80059ce:	d028      	beq.n	8005a22 <HAL_TIM_PWM_ConfigChannel+0x292>
 80059d0:	4c30      	ldr	r4, [pc, #192]	@ (8005a94 <HAL_TIM_PWM_ConfigChannel+0x304>)
 80059d2:	42a2      	cmp	r2, r4
 80059d4:	d025      	beq.n	8005a22 <HAL_TIM_PWM_ConfigChannel+0x292>
  TIMx->CCR5 = OC_Config->Pulse;
 80059d6:	684c      	ldr	r4, [r1, #4]
  TIMx->CR2 = tmpcr2;
 80059d8:	6056      	str	r6, [r2, #4]
  TIMx->CCMR3 = tmpccmrx;
 80059da:	6555      	str	r5, [r2, #84]	@ 0x54
  TIMx->CCR5 = OC_Config->Pulse;
 80059dc:	6594      	str	r4, [r2, #88]	@ 0x58
      htim->Instance->CCMR3 |= TIM_CCMR3_OC5PE;
 80059de:	2408      	movs	r4, #8
  TIMx->CCER = tmpccer;
 80059e0:	6210      	str	r0, [r2, #32]
      htim->Instance->CCMR3 |= TIM_CCMR3_OC5PE;
 80059e2:	6d50      	ldr	r0, [r2, #84]	@ 0x54
      htim->Instance->CCMR3 |= sConfig->OCFastMode;
 80059e4:	6909      	ldr	r1, [r1, #16]
      htim->Instance->CCMR3 |= TIM_CCMR3_OC5PE;
 80059e6:	4320      	orrs	r0, r4
 80059e8:	6550      	str	r0, [r2, #84]	@ 0x54
      htim->Instance->CCMR3 &= ~TIM_CCMR3_OC5FE;
 80059ea:	6d50      	ldr	r0, [r2, #84]	@ 0x54
 80059ec:	3c04      	subs	r4, #4
 80059ee:	43a0      	bics	r0, r4
 80059f0:	6550      	str	r0, [r2, #84]	@ 0x54
      htim->Instance->CCMR3 |= sConfig->OCFastMode;
 80059f2:	6d50      	ldr	r0, [r2, #84]	@ 0x54
 80059f4:	4301      	orrs	r1, r0
 80059f6:	6551      	str	r1, [r2, #84]	@ 0x54
  HAL_StatusTypeDef status = HAL_OK;
 80059f8:	2000      	movs	r0, #0
 80059fa:	e6d9      	b.n	80057b0 <HAL_TIM_PWM_ConfigChannel+0x20>
    tmpccer &= ~TIM_CCER_CC1NP;
 80059fc:	2608      	movs	r6, #8
 80059fe:	43b0      	bics	r0, r6
    tmpccer |= OC_Config->OCNPolarity;
 8005a00:	68ce      	ldr	r6, [r1, #12]
    tmpcr2 |= OC_Config->OCNIdleState;
 8005a02:	698f      	ldr	r7, [r1, #24]
    tmpccer |= OC_Config->OCNPolarity;
 8005a04:	4330      	orrs	r0, r6
    tmpccer &= ~TIM_CCER_CC1NE;
 8005a06:	2604      	movs	r6, #4
 8005a08:	43b0      	bics	r0, r6
    tmpcr2 &= ~TIM_CR2_OIS1N;
 8005a0a:	4e2d      	ldr	r6, [pc, #180]	@ (8005ac0 <HAL_TIM_PWM_ConfigChannel+0x330>)
 8005a0c:	402e      	ands	r6, r5
    tmpcr2 |= OC_Config->OCNIdleState;
 8005a0e:	694d      	ldr	r5, [r1, #20]
 8005a10:	433d      	orrs	r5, r7
 8005a12:	4335      	orrs	r5, r6
 8005a14:	e71f      	b.n	8005856 <HAL_TIM_PWM_ConfigChannel+0xc6>
    tmpcr2 &= ~TIM_CR2_OIS6;
 8005a16:	4c2b      	ldr	r4, [pc, #172]	@ (8005ac4 <HAL_TIM_PWM_ConfigChannel+0x334>)
 8005a18:	4034      	ands	r4, r6
    tmpcr2 |= (OC_Config->OCIdleState << 10U);
 8005a1a:	694e      	ldr	r6, [r1, #20]
 8005a1c:	02b6      	lsls	r6, r6, #10
 8005a1e:	4326      	orrs	r6, r4
 8005a20:	e6e8      	b.n	80057f4 <HAL_TIM_PWM_ConfigChannel+0x64>
    tmpcr2 &= ~TIM_CR2_OIS5;
 8005a22:	4c24      	ldr	r4, [pc, #144]	@ (8005ab4 <HAL_TIM_PWM_ConfigChannel+0x324>)
 8005a24:	4034      	ands	r4, r6
    tmpcr2 |= (OC_Config->OCIdleState << 8U);
 8005a26:	694e      	ldr	r6, [r1, #20]
 8005a28:	0236      	lsls	r6, r6, #8
 8005a2a:	4326      	orrs	r6, r4
 8005a2c:	e7d3      	b.n	80059d6 <HAL_TIM_PWM_ConfigChannel+0x246>
    tmpccer &= ~TIM_CCER_CC2NP;
 8005a2e:	2080      	movs	r0, #128	@ 0x80
 8005a30:	4384      	bics	r4, r0
    tmpccer |= (OC_Config->OCNPolarity << 4U);
 8005a32:	68c8      	ldr	r0, [r1, #12]
 8005a34:	0100      	lsls	r0, r0, #4
 8005a36:	4304      	orrs	r4, r0
    tmpccer &= ~TIM_CCER_CC2NE;
 8005a38:	2040      	movs	r0, #64	@ 0x40
 8005a3a:	4384      	bics	r4, r0
    tmpcr2 &= ~TIM_CR2_OIS2N;
 8005a3c:	4822      	ldr	r0, [pc, #136]	@ (8005ac8 <HAL_TIM_PWM_ConfigChannel+0x338>)
    tmpcr2 |= (OC_Config->OCIdleState << 2U);
 8005a3e:	694f      	ldr	r7, [r1, #20]
    tmpcr2 &= ~TIM_CR2_OIS2N;
 8005a40:	4030      	ands	r0, r6
    tmpcr2 |= (OC_Config->OCNIdleState << 2U);
 8005a42:	698e      	ldr	r6, [r1, #24]
 8005a44:	433e      	orrs	r6, r7
 8005a46:	00b6      	lsls	r6, r6, #2
 8005a48:	4306      	orrs	r6, r0
 8005a4a:	e735      	b.n	80058b8 <HAL_TIM_PWM_ConfigChannel+0x128>
    tmpcr2 &= ~TIM_CR2_OIS4;
 8005a4c:	4c1f      	ldr	r4, [pc, #124]	@ (8005acc <HAL_TIM_PWM_ConfigChannel+0x33c>)
 8005a4e:	4034      	ands	r4, r6
    tmpcr2 |= (OC_Config->OCIdleState << 6U);
 8005a50:	694e      	ldr	r6, [r1, #20]
 8005a52:	01b6      	lsls	r6, r6, #6
 8005a54:	4326      	orrs	r6, r4
 8005a56:	e78f      	b.n	8005978 <HAL_TIM_PWM_ConfigChannel+0x1e8>
    tmpccer &= ~TIM_CCER_CC3NP;
 8005a58:	4c1d      	ldr	r4, [pc, #116]	@ (8005ad0 <HAL_TIM_PWM_ConfigChannel+0x340>)
 8005a5a:	4020      	ands	r0, r4
    tmpccer |= (OC_Config->OCNPolarity << 8U);
 8005a5c:	68cc      	ldr	r4, [r1, #12]
 8005a5e:	0224      	lsls	r4, r4, #8
 8005a60:	4304      	orrs	r4, r0
    tmpccer &= ~TIM_CCER_CC3NE;
 8005a62:	480d      	ldr	r0, [pc, #52]	@ (8005a98 <HAL_TIM_PWM_ConfigChannel+0x308>)
 8005a64:	4020      	ands	r0, r4
    tmpcr2 &= ~TIM_CR2_OIS3N;
 8005a66:	4c1b      	ldr	r4, [pc, #108]	@ (8005ad4 <HAL_TIM_PWM_ConfigChannel+0x344>)
    tmpcr2 |= (OC_Config->OCIdleState << 4U);
 8005a68:	694f      	ldr	r7, [r1, #20]
    tmpcr2 &= ~TIM_CR2_OIS3N;
 8005a6a:	402c      	ands	r4, r5
    tmpcr2 |= (OC_Config->OCNIdleState << 4U);
 8005a6c:	698d      	ldr	r5, [r1, #24]
 8005a6e:	433d      	orrs	r5, r7
 8005a70:	012d      	lsls	r5, r5, #4
 8005a72:	4325      	orrs	r5, r4
 8005a74:	e752      	b.n	800591c <HAL_TIM_PWM_ConfigChannel+0x18c>
  __HAL_LOCK(htim);
 8005a76:	2002      	movs	r0, #2
 8005a78:	e69d      	b.n	80057b6 <HAL_TIM_PWM_ConfigChannel+0x26>
 8005a7a:	46c0      	nop			@ (mov r8, r8)
 8005a7c:	0800772c 	.word	0x0800772c
 8005a80:	ffefffff 	.word	0xffefffff
 8005a84:	feff8fff 	.word	0xfeff8fff
 8005a88:	ffdfffff 	.word	0xffdfffff
 8005a8c:	40012c00 	.word	0x40012c00
 8005a90:	40014400 	.word	0x40014400
 8005a94:	40014800 	.word	0x40014800
 8005a98:	fffffbff 	.word	0xfffffbff
 8005a9c:	fffeff8c 	.word	0xfffeff8c
 8005aa0:	feff8cff 	.word	0xfeff8cff
 8005aa4:	fffffeff 	.word	0xfffffeff
 8005aa8:	fffffdff 	.word	0xfffffdff
 8005aac:	ffffefff 	.word	0xffffefff
 8005ab0:	ffffdfff 	.word	0xffffdfff
 8005ab4:	fffeffff 	.word	0xfffeffff
 8005ab8:	fffeff8f 	.word	0xfffeff8f
 8005abc:	fffdffff 	.word	0xfffdffff
 8005ac0:	fffffcff 	.word	0xfffffcff
 8005ac4:	fffbffff 	.word	0xfffbffff
 8005ac8:	fffff3ff 	.word	0xfffff3ff
 8005acc:	ffffbfff 	.word	0xffffbfff
 8005ad0:	fffff7ff 	.word	0xfffff7ff
 8005ad4:	ffffcfff 	.word	0xffffcfff

08005ad8 <HAL_TIM_ConfigClockSource>:
  __HAL_LOCK(htim);
 8005ad8:	233c      	movs	r3, #60	@ 0x3c
{
 8005ada:	b570      	push	{r4, r5, r6, lr}
 8005adc:	0002      	movs	r2, r0
  __HAL_LOCK(htim);
 8005ade:	5cc0      	ldrb	r0, [r0, r3]
 8005ae0:	2801      	cmp	r0, #1
 8005ae2:	d100      	bne.n	8005ae6 <HAL_TIM_ConfigClockSource+0xe>
 8005ae4:	e073      	b.n	8005bce <HAL_TIM_ConfigClockSource+0xf6>
 8005ae6:	2401      	movs	r4, #1
  htim->State = HAL_TIM_STATE_BUSY;
 8005ae8:	2002      	movs	r0, #2
  __HAL_LOCK(htim);
 8005aea:	54d4      	strb	r4, [r2, r3]
  htim->State = HAL_TIM_STATE_BUSY;
 8005aec:	3301      	adds	r3, #1
 8005aee:	54d0      	strb	r0, [r2, r3]
  tmpsmcr = htim->Instance->SMCR;
 8005af0:	6810      	ldr	r0, [r2, #0]
  tmpsmcr &= ~(TIM_SMCR_ETF | TIM_SMCR_ETPS | TIM_SMCR_ECE | TIM_SMCR_ETP);
 8005af2:	4d51      	ldr	r5, [pc, #324]	@ (8005c38 <HAL_TIM_ConfigClockSource+0x160>)
  tmpsmcr = htim->Instance->SMCR;
 8005af4:	6883      	ldr	r3, [r0, #8]
  tmpsmcr &= ~(TIM_SMCR_ETF | TIM_SMCR_ETPS | TIM_SMCR_ECE | TIM_SMCR_ETP);
 8005af6:	402b      	ands	r3, r5
  htim->Instance->SMCR = tmpsmcr;
 8005af8:	6083      	str	r3, [r0, #8]
  switch (sClockSourceConfig->ClockSource)
 8005afa:	680b      	ldr	r3, [r1, #0]
 8005afc:	2b60      	cmp	r3, #96	@ 0x60
 8005afe:	d100      	bne.n	8005b02 <HAL_TIM_ConfigClockSource+0x2a>
 8005b00:	e067      	b.n	8005bd2 <HAL_TIM_ConfigClockSource+0xfa>
 8005b02:	d81d      	bhi.n	8005b40 <HAL_TIM_ConfigClockSource+0x68>
 8005b04:	2b40      	cmp	r3, #64	@ 0x40
 8005b06:	d100      	bne.n	8005b0a <HAL_TIM_ConfigClockSource+0x32>
 8005b08:	e07d      	b.n	8005c06 <HAL_TIM_ConfigClockSource+0x12e>
 8005b0a:	d93f      	bls.n	8005b8c <HAL_TIM_ConfigClockSource+0xb4>
 8005b0c:	2b50      	cmp	r3, #80	@ 0x50
 8005b0e:	d135      	bne.n	8005b7c <HAL_TIM_ConfigClockSource+0xa4>
                               sClockSourceConfig->ClockPolarity,
 8005b10:	684d      	ldr	r5, [r1, #4]
                               sClockSourceConfig->ClockFilter);
 8005b12:	68cb      	ldr	r3, [r1, #12]
  tmpccer = TIMx->CCER;
 8005b14:	6a01      	ldr	r1, [r0, #32]
  TIMx->CCER &= ~TIM_CCER_CC1E;
 8005b16:	6a06      	ldr	r6, [r0, #32]
  tmpccmr1 |= (TIM_ICFilter << 4U);
 8005b18:	011b      	lsls	r3, r3, #4
  TIMx->CCER &= ~TIM_CCER_CC1E;
 8005b1a:	43a6      	bics	r6, r4
 8005b1c:	6206      	str	r6, [r0, #32]
  tmpccmr1 &= ~TIM_CCMR1_IC1F;
 8005b1e:	26f0      	movs	r6, #240	@ 0xf0
  tmpccmr1 = TIMx->CCMR1;
 8005b20:	6984      	ldr	r4, [r0, #24]
  tmpccmr1 &= ~TIM_CCMR1_IC1F;
 8005b22:	43b4      	bics	r4, r6
  tmpccmr1 |= (TIM_ICFilter << 4U);
 8005b24:	4323      	orrs	r3, r4
  tmpccer &= ~(TIM_CCER_CC1P | TIM_CCER_CC1NP);
 8005b26:	240a      	movs	r4, #10
 8005b28:	43a1      	bics	r1, r4
  tmpccer |= TIM_ICPolarity;
 8005b2a:	4329      	orrs	r1, r5
  TIMx->CCMR1 = tmpccmr1;
 8005b2c:	6183      	str	r3, [r0, #24]
  TIMx->CCER = tmpccer;
 8005b2e:	6201      	str	r1, [r0, #32]
  tmpsmcr = TIMx->SMCR;
 8005b30:	6883      	ldr	r3, [r0, #8]
  tmpsmcr &= ~TIM_SMCR_TS;
 8005b32:	4942      	ldr	r1, [pc, #264]	@ (8005c3c <HAL_TIM_ConfigClockSource+0x164>)
 8005b34:	400b      	ands	r3, r1
  tmpsmcr |= (InputTriggerSource | TIM_SLAVEMODE_EXTERNAL1);
 8005b36:	2157      	movs	r1, #87	@ 0x57
 8005b38:	430b      	orrs	r3, r1
  TIMx->SMCR = tmpsmcr;
 8005b3a:	6083      	str	r3, [r0, #8]
  HAL_StatusTypeDef status = HAL_OK;
 8005b3c:	2000      	movs	r0, #0
 8005b3e:	e01e      	b.n	8005b7e <HAL_TIM_ConfigClockSource+0xa6>
  switch (sClockSourceConfig->ClockSource)
 8005b40:	2480      	movs	r4, #128	@ 0x80
 8005b42:	0164      	lsls	r4, r4, #5
 8005b44:	42a3      	cmp	r3, r4
 8005b46:	d0f9      	beq.n	8005b3c <HAL_TIM_ConfigClockSource+0x64>
 8005b48:	2480      	movs	r4, #128	@ 0x80
 8005b4a:	01a4      	lsls	r4, r4, #6
 8005b4c:	42a3      	cmp	r3, r4
 8005b4e:	d12b      	bne.n	8005ba8 <HAL_TIM_ConfigClockSource+0xd0>
  tmpsmcr = TIMx->SMCR;
 8005b50:	6884      	ldr	r4, [r0, #8]
  tmpsmcr &= ~(TIM_SMCR_ETF | TIM_SMCR_ETPS | TIM_SMCR_ECE | TIM_SMCR_ETP);
 8005b52:	4b3b      	ldr	r3, [pc, #236]	@ (8005c40 <HAL_TIM_ConfigClockSource+0x168>)
  tmpsmcr |= (uint32_t)(TIM_ExtTRGPrescaler | (TIM_ExtTRGPolarity | (ExtTRGFilter << 8U)));
 8005b54:	684d      	ldr	r5, [r1, #4]
  tmpsmcr &= ~(TIM_SMCR_ETF | TIM_SMCR_ETPS | TIM_SMCR_ECE | TIM_SMCR_ETP);
 8005b56:	401c      	ands	r4, r3
  tmpsmcr |= (uint32_t)(TIM_ExtTRGPrescaler | (TIM_ExtTRGPolarity | (ExtTRGFilter << 8U)));
 8005b58:	688b      	ldr	r3, [r1, #8]
 8005b5a:	68c9      	ldr	r1, [r1, #12]
 8005b5c:	432b      	orrs	r3, r5
 8005b5e:	0209      	lsls	r1, r1, #8
 8005b60:	430b      	orrs	r3, r1
 8005b62:	4323      	orrs	r3, r4
  TIMx->SMCR = tmpsmcr;
 8005b64:	6083      	str	r3, [r0, #8]
      htim->Instance->SMCR |= TIM_SMCR_ECE;
 8005b66:	2380      	movs	r3, #128	@ 0x80
 8005b68:	6881      	ldr	r1, [r0, #8]
 8005b6a:	01db      	lsls	r3, r3, #7
 8005b6c:	430b      	orrs	r3, r1
 8005b6e:	6083      	str	r3, [r0, #8]
  HAL_StatusTypeDef status = HAL_OK;
 8005b70:	2000      	movs	r0, #0
 8005b72:	e004      	b.n	8005b7e <HAL_TIM_ConfigClockSource+0xa6>
  switch (sClockSourceConfig->ClockSource)
 8005b74:	2110      	movs	r1, #16
 8005b76:	001c      	movs	r4, r3
 8005b78:	438c      	bics	r4, r1
 8005b7a:	d00c      	beq.n	8005b96 <HAL_TIM_ConfigClockSource+0xbe>
      status = HAL_ERROR;
 8005b7c:	2001      	movs	r0, #1
  htim->State = HAL_TIM_STATE_READY;
 8005b7e:	233d      	movs	r3, #61	@ 0x3d
 8005b80:	2101      	movs	r1, #1
 8005b82:	54d1      	strb	r1, [r2, r3]
  __HAL_UNLOCK(htim);
 8005b84:	2100      	movs	r1, #0
 8005b86:	3b01      	subs	r3, #1
 8005b88:	54d1      	strb	r1, [r2, r3]
}
 8005b8a:	bd70      	pop	{r4, r5, r6, pc}
  switch (sClockSourceConfig->ClockSource)
 8005b8c:	2b20      	cmp	r3, #32
 8005b8e:	d002      	beq.n	8005b96 <HAL_TIM_ConfigClockSource+0xbe>
 8005b90:	d9f0      	bls.n	8005b74 <HAL_TIM_ConfigClockSource+0x9c>
 8005b92:	2b30      	cmp	r3, #48	@ 0x30
 8005b94:	d1f2      	bne.n	8005b7c <HAL_TIM_ConfigClockSource+0xa4>
  tmpsmcr = TIMx->SMCR;
 8005b96:	6881      	ldr	r1, [r0, #8]
  tmpsmcr &= ~TIM_SMCR_TS;
 8005b98:	4c28      	ldr	r4, [pc, #160]	@ (8005c3c <HAL_TIM_ConfigClockSource+0x164>)
 8005b9a:	4021      	ands	r1, r4
  tmpsmcr |= (InputTriggerSource | TIM_SLAVEMODE_EXTERNAL1);
 8005b9c:	430b      	orrs	r3, r1
 8005b9e:	2107      	movs	r1, #7
 8005ba0:	430b      	orrs	r3, r1
  TIMx->SMCR = tmpsmcr;
 8005ba2:	6083      	str	r3, [r0, #8]
  HAL_StatusTypeDef status = HAL_OK;
 8005ba4:	2000      	movs	r0, #0
 8005ba6:	e7ea      	b.n	8005b7e <HAL_TIM_ConfigClockSource+0xa6>
  switch (sClockSourceConfig->ClockSource)
 8005ba8:	2b70      	cmp	r3, #112	@ 0x70
 8005baa:	d1e7      	bne.n	8005b7c <HAL_TIM_ConfigClockSource+0xa4>
  tmpsmcr = TIMx->SMCR;
 8005bac:	6884      	ldr	r4, [r0, #8]
  tmpsmcr &= ~(TIM_SMCR_ETF | TIM_SMCR_ETPS | TIM_SMCR_ECE | TIM_SMCR_ETP);
 8005bae:	4b24      	ldr	r3, [pc, #144]	@ (8005c40 <HAL_TIM_ConfigClockSource+0x168>)
  tmpsmcr |= (uint32_t)(TIM_ExtTRGPrescaler | (TIM_ExtTRGPolarity | (ExtTRGFilter << 8U)));
 8005bb0:	684d      	ldr	r5, [r1, #4]
  tmpsmcr &= ~(TIM_SMCR_ETF | TIM_SMCR_ETPS | TIM_SMCR_ECE | TIM_SMCR_ETP);
 8005bb2:	401c      	ands	r4, r3
  tmpsmcr |= (uint32_t)(TIM_ExtTRGPrescaler | (TIM_ExtTRGPolarity | (ExtTRGFilter << 8U)));
 8005bb4:	688b      	ldr	r3, [r1, #8]
 8005bb6:	68c9      	ldr	r1, [r1, #12]
 8005bb8:	432b      	orrs	r3, r5
 8005bba:	0209      	lsls	r1, r1, #8
 8005bbc:	430b      	orrs	r3, r1
      tmpsmcr |= (TIM_SLAVEMODE_EXTERNAL1 | TIM_CLOCKSOURCE_ETRMODE1);
 8005bbe:	2177      	movs	r1, #119	@ 0x77
  tmpsmcr |= (uint32_t)(TIM_ExtTRGPrescaler | (TIM_ExtTRGPolarity | (ExtTRGFilter << 8U)));
 8005bc0:	4323      	orrs	r3, r4
  TIMx->SMCR = tmpsmcr;
 8005bc2:	6083      	str	r3, [r0, #8]
      tmpsmcr = htim->Instance->SMCR;
 8005bc4:	6883      	ldr	r3, [r0, #8]
      tmpsmcr |= (TIM_SLAVEMODE_EXTERNAL1 | TIM_CLOCKSOURCE_ETRMODE1);
 8005bc6:	430b      	orrs	r3, r1
      htim->Instance->SMCR = tmpsmcr;
 8005bc8:	6083      	str	r3, [r0, #8]
  HAL_StatusTypeDef status = HAL_OK;
 8005bca:	2000      	movs	r0, #0
 8005bcc:	e7d7      	b.n	8005b7e <HAL_TIM_ConfigClockSource+0xa6>
  __HAL_LOCK(htim);
 8005bce:	2002      	movs	r0, #2
 8005bd0:	e7db      	b.n	8005b8a <HAL_TIM_ConfigClockSource+0xb2>
  TIMx->CCER &= ~TIM_CCER_CC2E;
 8005bd2:	2610      	movs	r6, #16
  tmpccer = TIMx->CCER;
 8005bd4:	6a04      	ldr	r4, [r0, #32]
  TIMx->CCER &= ~TIM_CCER_CC2E;
 8005bd6:	6a05      	ldr	r5, [r0, #32]
                               sClockSourceConfig->ClockPolarity,
 8005bd8:	684b      	ldr	r3, [r1, #4]
  TIMx->CCER &= ~TIM_CCER_CC2E;
 8005bda:	43b5      	bics	r5, r6
                               sClockSourceConfig->ClockFilter);
 8005bdc:	68c9      	ldr	r1, [r1, #12]
  TIMx->CCER &= ~TIM_CCER_CC2E;
 8005bde:	6205      	str	r5, [r0, #32]
  tmpccmr1 = TIMx->CCMR1;
 8005be0:	6985      	ldr	r5, [r0, #24]
  tmpccmr1 &= ~TIM_CCMR1_IC2F;
 8005be2:	4e18      	ldr	r6, [pc, #96]	@ (8005c44 <HAL_TIM_ConfigClockSource+0x16c>)
  tmpccmr1 |= (TIM_ICFilter << 12U);
 8005be4:	0309      	lsls	r1, r1, #12
  tmpccmr1 &= ~TIM_CCMR1_IC2F;
 8005be6:	4035      	ands	r5, r6
  tmpccmr1 |= (TIM_ICFilter << 12U);
 8005be8:	4329      	orrs	r1, r5
  tmpccer &= ~(TIM_CCER_CC2P | TIM_CCER_CC2NP);
 8005bea:	25a0      	movs	r5, #160	@ 0xa0
  tmpccer |= (TIM_ICPolarity << 4U);
 8005bec:	011b      	lsls	r3, r3, #4
  tmpccer &= ~(TIM_CCER_CC2P | TIM_CCER_CC2NP);
 8005bee:	43ac      	bics	r4, r5
  tmpccer |= (TIM_ICPolarity << 4U);
 8005bf0:	4323      	orrs	r3, r4
  TIMx->CCMR1 = tmpccmr1 ;
 8005bf2:	6181      	str	r1, [r0, #24]
  TIMx->CCER = tmpccer;
 8005bf4:	6203      	str	r3, [r0, #32]
  tmpsmcr = TIMx->SMCR;
 8005bf6:	6883      	ldr	r3, [r0, #8]
  tmpsmcr &= ~TIM_SMCR_TS;
 8005bf8:	4910      	ldr	r1, [pc, #64]	@ (8005c3c <HAL_TIM_ConfigClockSource+0x164>)
 8005bfa:	400b      	ands	r3, r1
  tmpsmcr |= (InputTriggerSource | TIM_SLAVEMODE_EXTERNAL1);
 8005bfc:	2167      	movs	r1, #103	@ 0x67
 8005bfe:	430b      	orrs	r3, r1
  TIMx->SMCR = tmpsmcr;
 8005c00:	6083      	str	r3, [r0, #8]
  HAL_StatusTypeDef status = HAL_OK;
 8005c02:	2000      	movs	r0, #0
 8005c04:	e7bb      	b.n	8005b7e <HAL_TIM_ConfigClockSource+0xa6>
                               sClockSourceConfig->ClockPolarity,
 8005c06:	684d      	ldr	r5, [r1, #4]
                               sClockSourceConfig->ClockFilter);
 8005c08:	68cb      	ldr	r3, [r1, #12]
  tmpccer = TIMx->CCER;
 8005c0a:	6a01      	ldr	r1, [r0, #32]
  TIMx->CCER &= ~TIM_CCER_CC1E;
 8005c0c:	6a06      	ldr	r6, [r0, #32]
  tmpccmr1 |= (TIM_ICFilter << 4U);
 8005c0e:	011b      	lsls	r3, r3, #4
  TIMx->CCER &= ~TIM_CCER_CC1E;
 8005c10:	43a6      	bics	r6, r4
 8005c12:	6206      	str	r6, [r0, #32]
  tmpccmr1 &= ~TIM_CCMR1_IC1F;
 8005c14:	26f0      	movs	r6, #240	@ 0xf0
  tmpccmr1 = TIMx->CCMR1;
 8005c16:	6984      	ldr	r4, [r0, #24]
  tmpccmr1 &= ~TIM_CCMR1_IC1F;
 8005c18:	43b4      	bics	r4, r6
  tmpccmr1 |= (TIM_ICFilter << 4U);
 8005c1a:	4323      	orrs	r3, r4
  tmpccer &= ~(TIM_CCER_CC1P | TIM_CCER_CC1NP);
 8005c1c:	240a      	movs	r4, #10
 8005c1e:	43a1      	bics	r1, r4
  tmpccer |= TIM_ICPolarity;
 8005c20:	4329      	orrs	r1, r5
  TIMx->CCMR1 = tmpccmr1;
 8005c22:	6183      	str	r3, [r0, #24]
  TIMx->CCER = tmpccer;
 8005c24:	6201      	str	r1, [r0, #32]
  tmpsmcr = TIMx->SMCR;
 8005c26:	6883      	ldr	r3, [r0, #8]
  tmpsmcr &= ~TIM_SMCR_TS;
 8005c28:	4904      	ldr	r1, [pc, #16]	@ (8005c3c <HAL_TIM_ConfigClockSource+0x164>)
 8005c2a:	400b      	ands	r3, r1
  tmpsmcr |= (InputTriggerSource | TIM_SLAVEMODE_EXTERNAL1);
 8005c2c:	2147      	movs	r1, #71	@ 0x47
 8005c2e:	430b      	orrs	r3, r1
  TIMx->SMCR = tmpsmcr;
 8005c30:	6083      	str	r3, [r0, #8]
  HAL_StatusTypeDef status = HAL_OK;
 8005c32:	2000      	movs	r0, #0
 8005c34:	e7a3      	b.n	8005b7e <HAL_TIM_ConfigClockSource+0xa6>
 8005c36:	46c0      	nop			@ (mov r8, r8)
 8005c38:	ffce0088 	.word	0xffce0088
 8005c3c:	ffcfff8f 	.word	0xffcfff8f
 8005c40:	ffff00ff 	.word	0xffff00ff
 8005c44:	ffff0fff 	.word	0xffff0fff

08005c48 <HAL_TIM_ReadCapturedValue>:
  switch (Channel)
 8005c48:	2908      	cmp	r1, #8
 8005c4a:	d011      	beq.n	8005c70 <HAL_TIM_ReadCapturedValue+0x28>
 8005c4c:	d806      	bhi.n	8005c5c <HAL_TIM_ReadCapturedValue+0x14>
 8005c4e:	2900      	cmp	r1, #0
 8005c50:	d00b      	beq.n	8005c6a <HAL_TIM_ReadCapturedValue+0x22>
 8005c52:	2904      	cmp	r1, #4
 8005c54:	d107      	bne.n	8005c66 <HAL_TIM_ReadCapturedValue+0x1e>
      tmpreg =   htim->Instance->CCR2;
 8005c56:	6803      	ldr	r3, [r0, #0]
 8005c58:	6b98      	ldr	r0, [r3, #56]	@ 0x38
}
 8005c5a:	4770      	bx	lr
  switch (Channel)
 8005c5c:	290c      	cmp	r1, #12
 8005c5e:	d102      	bne.n	8005c66 <HAL_TIM_ReadCapturedValue+0x1e>
      tmpreg =   htim->Instance->CCR4;
 8005c60:	6803      	ldr	r3, [r0, #0]
 8005c62:	6c18      	ldr	r0, [r3, #64]	@ 0x40
  return tmpreg;
 8005c64:	e7f9      	b.n	8005c5a <HAL_TIM_ReadCapturedValue+0x12>
  switch (Channel)
 8005c66:	2000      	movs	r0, #0
 8005c68:	e7f7      	b.n	8005c5a <HAL_TIM_ReadCapturedValue+0x12>
      tmpreg =  htim->Instance->CCR1;
 8005c6a:	6803      	ldr	r3, [r0, #0]
 8005c6c:	6b58      	ldr	r0, [r3, #52]	@ 0x34
      break;
 8005c6e:	e7f4      	b.n	8005c5a <HAL_TIM_ReadCapturedValue+0x12>
      tmpreg =   htim->Instance->CCR3;
 8005c70:	6803      	ldr	r3, [r0, #0]
 8005c72:	6bd8      	ldr	r0, [r3, #60]	@ 0x3c
      break;
 8005c74:	e7f1      	b.n	8005c5a <HAL_TIM_ReadCapturedValue+0x12>
 8005c76:	46c0      	nop			@ (mov r8, r8)

08005c78 <HAL_TIM_RegisterCallback>:
{
 8005c78:	0003      	movs	r3, r0
 8005c7a:	b530      	push	{r4, r5, lr}
  if (pCallback == NULL)
 8005c7c:	2a00      	cmp	r2, #0
 8005c7e:	d00e      	beq.n	8005c9e <HAL_TIM_RegisterCallback+0x26>
  if (htim->State == HAL_TIM_STATE_READY)
 8005c80:	253d      	movs	r5, #61	@ 0x3d
 8005c82:	5d44      	ldrb	r4, [r0, r5]
 8005c84:	b2e0      	uxtb	r0, r4
 8005c86:	2c01      	cmp	r4, #1
 8005c88:	d00b      	beq.n	8005ca2 <HAL_TIM_RegisterCallback+0x2a>
  else if (htim->State == HAL_TIM_STATE_RESET)
 8005c8a:	5d5c      	ldrb	r4, [r3, r5]
    return HAL_ERROR;
 8005c8c:	2001      	movs	r0, #1
  else if (htim->State == HAL_TIM_STATE_RESET)
 8005c8e:	2c00      	cmp	r4, #0
 8005c90:	d106      	bne.n	8005ca0 <HAL_TIM_RegisterCallback+0x28>
    switch (CallbackID)
 8005c92:	290d      	cmp	r1, #13
 8005c94:	d804      	bhi.n	8005ca0 <HAL_TIM_RegisterCallback+0x28>
 8005c96:	4837      	ldr	r0, [pc, #220]	@ (8005d74 <HAL_TIM_RegisterCallback+0xfc>)
 8005c98:	0089      	lsls	r1, r1, #2
 8005c9a:	5841      	ldr	r1, [r0, r1]
 8005c9c:	468f      	mov	pc, r1
    return HAL_ERROR;
 8005c9e:	2001      	movs	r0, #1
}
 8005ca0:	bd30      	pop	{r4, r5, pc}
    switch (CallbackID)
 8005ca2:	291b      	cmp	r1, #27
 8005ca4:	d8fc      	bhi.n	8005ca0 <HAL_TIM_RegisterCallback+0x28>
 8005ca6:	4834      	ldr	r0, [pc, #208]	@ (8005d78 <HAL_TIM_RegisterCallback+0x100>)
 8005ca8:	0089      	lsls	r1, r1, #2
 8005caa:	5841      	ldr	r1, [r0, r1]
 8005cac:	468f      	mov	pc, r1
  HAL_StatusTypeDef status = HAL_OK;
 8005cae:	2000      	movs	r0, #0
        htim->HallSensor_MspInitCallback   = pCallback;
 8005cb0:	67da      	str	r2, [r3, #124]	@ 0x7c
        break;
 8005cb2:	e7f5      	b.n	8005ca0 <HAL_TIM_RegisterCallback+0x28>
        htim->HallSensor_MspDeInitCallback = pCallback;
 8005cb4:	2180      	movs	r1, #128	@ 0x80
  HAL_StatusTypeDef status = HAL_OK;
 8005cb6:	2000      	movs	r0, #0
        htim->HallSensor_MspDeInitCallback = pCallback;
 8005cb8:	505a      	str	r2, [r3, r1]
        break;
 8005cba:	e7f1      	b.n	8005ca0 <HAL_TIM_RegisterCallback+0x28>
  HAL_StatusTypeDef status = HAL_OK;
 8005cbc:	2000      	movs	r0, #0
        htim->Base_MspInitCallback         = pCallback;
 8005cbe:	64da      	str	r2, [r3, #76]	@ 0x4c
        break;
 8005cc0:	e7ee      	b.n	8005ca0 <HAL_TIM_RegisterCallback+0x28>
  HAL_StatusTypeDef status = HAL_OK;
 8005cc2:	2000      	movs	r0, #0
        htim->Base_MspDeInitCallback       = pCallback;
 8005cc4:	651a      	str	r2, [r3, #80]	@ 0x50
        break;
 8005cc6:	e7eb      	b.n	8005ca0 <HAL_TIM_RegisterCallback+0x28>
  HAL_StatusTypeDef status = HAL_OK;
 8005cc8:	2000      	movs	r0, #0
        htim->IC_MspInitCallback           = pCallback;
 8005cca:	655a      	str	r2, [r3, #84]	@ 0x54
        break;
 8005ccc:	e7e8      	b.n	8005ca0 <HAL_TIM_RegisterCallback+0x28>
  HAL_StatusTypeDef status = HAL_OK;
 8005cce:	2000      	movs	r0, #0
        htim->IC_MspDeInitCallback         = pCallback;
 8005cd0:	659a      	str	r2, [r3, #88]	@ 0x58
        break;
 8005cd2:	e7e5      	b.n	8005ca0 <HAL_TIM_RegisterCallback+0x28>
  HAL_StatusTypeDef status = HAL_OK;
 8005cd4:	2000      	movs	r0, #0
        htim->OC_MspInitCallback           = pCallback;
 8005cd6:	65da      	str	r2, [r3, #92]	@ 0x5c
        break;
 8005cd8:	e7e2      	b.n	8005ca0 <HAL_TIM_RegisterCallback+0x28>
  HAL_StatusTypeDef status = HAL_OK;
 8005cda:	2000      	movs	r0, #0
        htim->OC_MspDeInitCallback         = pCallback;
 8005cdc:	661a      	str	r2, [r3, #96]	@ 0x60
        break;
 8005cde:	e7df      	b.n	8005ca0 <HAL_TIM_RegisterCallback+0x28>
  HAL_StatusTypeDef status = HAL_OK;
 8005ce0:	2000      	movs	r0, #0
        htim->PWM_MspInitCallback          = pCallback;
 8005ce2:	665a      	str	r2, [r3, #100]	@ 0x64
        break;
 8005ce4:	e7dc      	b.n	8005ca0 <HAL_TIM_RegisterCallback+0x28>
  HAL_StatusTypeDef status = HAL_OK;
 8005ce6:	2000      	movs	r0, #0
        htim->PWM_MspDeInitCallback        = pCallback;
 8005ce8:	669a      	str	r2, [r3, #104]	@ 0x68
        break;
 8005cea:	e7d9      	b.n	8005ca0 <HAL_TIM_RegisterCallback+0x28>
  HAL_StatusTypeDef status = HAL_OK;
 8005cec:	2000      	movs	r0, #0
        htim->OnePulse_MspInitCallback     = pCallback;
 8005cee:	66da      	str	r2, [r3, #108]	@ 0x6c
        break;
 8005cf0:	e7d6      	b.n	8005ca0 <HAL_TIM_RegisterCallback+0x28>
  HAL_StatusTypeDef status = HAL_OK;
 8005cf2:	2000      	movs	r0, #0
        htim->OnePulse_MspDeInitCallback   = pCallback;
 8005cf4:	671a      	str	r2, [r3, #112]	@ 0x70
        break;
 8005cf6:	e7d3      	b.n	8005ca0 <HAL_TIM_RegisterCallback+0x28>
  HAL_StatusTypeDef status = HAL_OK;
 8005cf8:	2000      	movs	r0, #0
        htim->Encoder_MspInitCallback      = pCallback;
 8005cfa:	675a      	str	r2, [r3, #116]	@ 0x74
        break;
 8005cfc:	e7d0      	b.n	8005ca0 <HAL_TIM_RegisterCallback+0x28>
  HAL_StatusTypeDef status = HAL_OK;
 8005cfe:	2000      	movs	r0, #0
        htim->Encoder_MspDeInitCallback    = pCallback;
 8005d00:	679a      	str	r2, [r3, #120]	@ 0x78
        break;
 8005d02:	e7cd      	b.n	8005ca0 <HAL_TIM_RegisterCallback+0x28>
        htim->PeriodElapsedCallback                = pCallback;
 8005d04:	2184      	movs	r1, #132	@ 0x84
  HAL_StatusTypeDef status = HAL_OK;
 8005d06:	2000      	movs	r0, #0
        htim->PeriodElapsedCallback                = pCallback;
 8005d08:	505a      	str	r2, [r3, r1]
        break;
 8005d0a:	e7c9      	b.n	8005ca0 <HAL_TIM_RegisterCallback+0x28>
        htim->PeriodElapsedHalfCpltCallback        = pCallback;
 8005d0c:	2188      	movs	r1, #136	@ 0x88
  HAL_StatusTypeDef status = HAL_OK;
 8005d0e:	2000      	movs	r0, #0
        htim->PeriodElapsedHalfCpltCallback        = pCallback;
 8005d10:	505a      	str	r2, [r3, r1]
        break;
 8005d12:	e7c5      	b.n	8005ca0 <HAL_TIM_RegisterCallback+0x28>
        htim->Break2Callback                       = pCallback;
 8005d14:	21b8      	movs	r1, #184	@ 0xb8
  HAL_StatusTypeDef status = HAL_OK;
 8005d16:	2000      	movs	r0, #0
        htim->Break2Callback                       = pCallback;
 8005d18:	505a      	str	r2, [r3, r1]
        break;
 8005d1a:	e7c1      	b.n	8005ca0 <HAL_TIM_RegisterCallback+0x28>
        htim->BreakCallback                        = pCallback;
 8005d1c:	21b4      	movs	r1, #180	@ 0xb4
  HAL_StatusTypeDef status = HAL_OK;
 8005d1e:	2000      	movs	r0, #0
        htim->BreakCallback                        = pCallback;
 8005d20:	505a      	str	r2, [r3, r1]
        break;
 8005d22:	e7bd      	b.n	8005ca0 <HAL_TIM_RegisterCallback+0x28>
        htim->CommutationCallback                  = pCallback;
 8005d24:	21ac      	movs	r1, #172	@ 0xac
  HAL_StatusTypeDef status = HAL_OK;
 8005d26:	2000      	movs	r0, #0
        htim->CommutationCallback                  = pCallback;
 8005d28:	505a      	str	r2, [r3, r1]
        break;
 8005d2a:	e7b9      	b.n	8005ca0 <HAL_TIM_RegisterCallback+0x28>
        htim->CommutationHalfCpltCallback          = pCallback;
 8005d2c:	21b0      	movs	r1, #176	@ 0xb0
  HAL_StatusTypeDef status = HAL_OK;
 8005d2e:	2000      	movs	r0, #0
        htim->CommutationHalfCpltCallback          = pCallback;
 8005d30:	505a      	str	r2, [r3, r1]
        break;
 8005d32:	e7b5      	b.n	8005ca0 <HAL_TIM_RegisterCallback+0x28>
        htim->TriggerCallback                      = pCallback;
 8005d34:	218c      	movs	r1, #140	@ 0x8c
  HAL_StatusTypeDef status = HAL_OK;
 8005d36:	2000      	movs	r0, #0
        htim->TriggerCallback                      = pCallback;
 8005d38:	505a      	str	r2, [r3, r1]
        break;
 8005d3a:	e7b1      	b.n	8005ca0 <HAL_TIM_RegisterCallback+0x28>
        htim->TriggerHalfCpltCallback              = pCallback;
 8005d3c:	2190      	movs	r1, #144	@ 0x90
  HAL_StatusTypeDef status = HAL_OK;
 8005d3e:	2000      	movs	r0, #0
        htim->TriggerHalfCpltCallback              = pCallback;
 8005d40:	505a      	str	r2, [r3, r1]
        break;
 8005d42:	e7ad      	b.n	8005ca0 <HAL_TIM_RegisterCallback+0x28>
        htim->IC_CaptureCallback                   = pCallback;
 8005d44:	2194      	movs	r1, #148	@ 0x94
  HAL_StatusTypeDef status = HAL_OK;
 8005d46:	2000      	movs	r0, #0
        htim->IC_CaptureCallback                   = pCallback;
 8005d48:	505a      	str	r2, [r3, r1]
        break;
 8005d4a:	e7a9      	b.n	8005ca0 <HAL_TIM_RegisterCallback+0x28>
        htim->IC_CaptureHalfCpltCallback           = pCallback;
 8005d4c:	2198      	movs	r1, #152	@ 0x98
  HAL_StatusTypeDef status = HAL_OK;
 8005d4e:	2000      	movs	r0, #0
        htim->IC_CaptureHalfCpltCallback           = pCallback;
 8005d50:	505a      	str	r2, [r3, r1]
        break;
 8005d52:	e7a5      	b.n	8005ca0 <HAL_TIM_RegisterCallback+0x28>
        htim->OC_DelayElapsedCallback              = pCallback;
 8005d54:	219c      	movs	r1, #156	@ 0x9c
  HAL_StatusTypeDef status = HAL_OK;
 8005d56:	2000      	movs	r0, #0
        htim->OC_DelayElapsedCallback              = pCallback;
 8005d58:	505a      	str	r2, [r3, r1]
        break;
 8005d5a:	e7a1      	b.n	8005ca0 <HAL_TIM_RegisterCallback+0x28>
        htim->PWM_PulseFinishedCallback            = pCallback;
 8005d5c:	21a0      	movs	r1, #160	@ 0xa0
  HAL_StatusTypeDef status = HAL_OK;
 8005d5e:	2000      	movs	r0, #0
        htim->PWM_PulseFinishedCallback            = pCallback;
 8005d60:	505a      	str	r2, [r3, r1]
        break;
 8005d62:	e79d      	b.n	8005ca0 <HAL_TIM_RegisterCallback+0x28>
        htim->PWM_PulseFinishedHalfCpltCallback    = pCallback;
 8005d64:	21a4      	movs	r1, #164	@ 0xa4
  HAL_StatusTypeDef status = HAL_OK;
 8005d66:	2000      	movs	r0, #0
        htim->PWM_PulseFinishedHalfCpltCallback    = pCallback;
 8005d68:	505a      	str	r2, [r3, r1]
        break;
 8005d6a:	e799      	b.n	8005ca0 <HAL_TIM_RegisterCallback+0x28>
        htim->ErrorCallback                        = pCallback;
 8005d6c:	21a8      	movs	r1, #168	@ 0xa8
  HAL_StatusTypeDef status = HAL_OK;
 8005d6e:	2000      	movs	r0, #0
        htim->ErrorCallback                        = pCallback;
 8005d70:	505a      	str	r2, [r3, r1]
        break;
 8005d72:	e795      	b.n	8005ca0 <HAL_TIM_RegisterCallback+0x28>
 8005d74:	08007780 	.word	0x08007780
 8005d78:	080077b8 	.word	0x080077b8

08005d7c <HAL_TIMEx_MasterConfigSynchronization>:
  assert_param(IS_TIM_MASTER_INSTANCE(htim->Instance));
  assert_param(IS_TIM_TRGO_SOURCE(sMasterConfig->MasterOutputTrigger));
  assert_param(IS_TIM_MSM_STATE(sMasterConfig->MasterSlaveMode));

  /* Check input state */
  __HAL_LOCK(htim);
 8005d7c:	233c      	movs	r3, #60	@ 0x3c
{
 8005d7e:	b570      	push	{r4, r5, r6, lr}
  __HAL_LOCK(htim);
 8005d80:	5cc3      	ldrb	r3, [r0, r3]
 8005d82:	2b01      	cmp	r3, #1
 8005d84:	d02a      	beq.n	8005ddc <HAL_TIMEx_MasterConfigSynchronization+0x60>

  /* Change the handler state */
  htim->State = HAL_TIM_STATE_BUSY;
 8005d86:	233d      	movs	r3, #61	@ 0x3d
 8005d88:	2202      	movs	r2, #2
 8005d8a:	54c2      	strb	r2, [r0, r3]

  /* Get the TIMx CR2 register value */
  tmpcr2 = htim->Instance->CR2;
 8005d8c:	6802      	ldr	r2, [r0, #0]

  /* Get the TIMx SMCR register value */
  tmpsmcr = htim->Instance->SMCR;

  /* If the timer supports ADC synchronization through TRGO2, set the master mode selection 2 */
  if (IS_TIM_TRGO2_INSTANCE(htim->Instance))
 8005d8e:	4d14      	ldr	r5, [pc, #80]	@ (8005de0 <HAL_TIMEx_MasterConfigSynchronization+0x64>)
  tmpcr2 = htim->Instance->CR2;
 8005d90:	6853      	ldr	r3, [r2, #4]
  }

  /* Reset the MMS Bits */
  tmpcr2 &= ~TIM_CR2_MMS;
  /* Select the TRGO source */
  tmpcr2 |=  sMasterConfig->MasterOutputTrigger;
 8005d92:	680e      	ldr	r6, [r1, #0]
  tmpsmcr = htim->Instance->SMCR;
 8005d94:	6894      	ldr	r4, [r2, #8]
  if (IS_TIM_TRGO2_INSTANCE(htim->Instance))
 8005d96:	42aa      	cmp	r2, r5
 8005d98:	d017      	beq.n	8005dca <HAL_TIMEx_MasterConfigSynchronization+0x4e>
  tmpcr2 &= ~TIM_CR2_MMS;
 8005d9a:	2570      	movs	r5, #112	@ 0x70
 8005d9c:	43ab      	bics	r3, r5
  tmpcr2 |=  sMasterConfig->MasterOutputTrigger;
 8005d9e:	4333      	orrs	r3, r6

  /* Update TIMx CR2 */
  htim->Instance->CR2 = tmpcr2;
 8005da0:	6053      	str	r3, [r2, #4]

  if (IS_TIM_SLAVE_INSTANCE(htim->Instance))
 8005da2:	2380      	movs	r3, #128	@ 0x80
 8005da4:	05db      	lsls	r3, r3, #23
 8005da6:	429a      	cmp	r2, r3
 8005da8:	d002      	beq.n	8005db0 <HAL_TIMEx_MasterConfigSynchronization+0x34>
 8005daa:	4b0e      	ldr	r3, [pc, #56]	@ (8005de4 <HAL_TIMEx_MasterConfigSynchronization+0x68>)
 8005dac:	429a      	cmp	r2, r3
 8005dae:	d104      	bne.n	8005dba <HAL_TIMEx_MasterConfigSynchronization+0x3e>
  {
    /* Reset the MSM Bit */
    tmpsmcr &= ~TIM_SMCR_MSM;
 8005db0:	2380      	movs	r3, #128	@ 0x80
 8005db2:	439c      	bics	r4, r3
    /* Set master mode */
    tmpsmcr |= sMasterConfig->MasterSlaveMode;
 8005db4:	688b      	ldr	r3, [r1, #8]
 8005db6:	431c      	orrs	r4, r3

    /* Update TIMx SMCR */
    htim->Instance->SMCR = tmpsmcr;
 8005db8:	6094      	str	r4, [r2, #8]
  }

  /* Change the htim state */
  htim->State = HAL_TIM_STATE_READY;
 8005dba:	233d      	movs	r3, #61	@ 0x3d
 8005dbc:	2201      	movs	r2, #1
 8005dbe:	54c2      	strb	r2, [r0, r3]

  __HAL_UNLOCK(htim);
 8005dc0:	2200      	movs	r2, #0
 8005dc2:	3b01      	subs	r3, #1
 8005dc4:	54c2      	strb	r2, [r0, r3]

  return HAL_OK;
 8005dc6:	2000      	movs	r0, #0
}
 8005dc8:	bd70      	pop	{r4, r5, r6, pc}
    tmpcr2 &= ~TIM_CR2_MMS2;
 8005dca:	4d07      	ldr	r5, [pc, #28]	@ (8005de8 <HAL_TIMEx_MasterConfigSynchronization+0x6c>)
 8005dcc:	402b      	ands	r3, r5
    tmpcr2 |= sMasterConfig->MasterOutputTrigger2;
 8005dce:	684d      	ldr	r5, [r1, #4]
 8005dd0:	432b      	orrs	r3, r5
  tmpcr2 &= ~TIM_CR2_MMS;
 8005dd2:	2570      	movs	r5, #112	@ 0x70
 8005dd4:	43ab      	bics	r3, r5
  tmpcr2 |=  sMasterConfig->MasterOutputTrigger;
 8005dd6:	4333      	orrs	r3, r6
  htim->Instance->CR2 = tmpcr2;
 8005dd8:	6053      	str	r3, [r2, #4]
  if (IS_TIM_SLAVE_INSTANCE(htim->Instance))
 8005dda:	e7e9      	b.n	8005db0 <HAL_TIMEx_MasterConfigSynchronization+0x34>
  __HAL_LOCK(htim);
 8005ddc:	2002      	movs	r0, #2
 8005dde:	e7f3      	b.n	8005dc8 <HAL_TIMEx_MasterConfigSynchronization+0x4c>
 8005de0:	40012c00 	.word	0x40012c00
 8005de4:	40000400 	.word	0x40000400
 8005de8:	ff0fffff 	.word	0xff0fffff

08005dec <HAL_TIMEx_ConfigBreakDeadTime>:
  assert_param(IS_TIM_BREAK_FILTER(sBreakDeadTimeConfig->BreakFilter));
  assert_param(IS_TIM_AUTOMATIC_OUTPUT_STATE(sBreakDeadTimeConfig->AutomaticOutput));
  assert_param(IS_TIM_BREAK_AFMODE(sBreakDeadTimeConfig->BreakAFMode));

  /* Check input state */
  __HAL_LOCK(htim);
 8005dec:	233c      	movs	r3, #60	@ 0x3c
{
 8005dee:	b510      	push	{r4, lr}
  __HAL_LOCK(htim);
 8005df0:	5cc3      	ldrb	r3, [r0, r3]
 8005df2:	2b01      	cmp	r3, #1
 8005df4:	d03d      	beq.n	8005e72 <HAL_TIMEx_ConfigBreakDeadTime+0x86>
  /* Set the Lock level, the Break enable Bit and the Polarity, the OSSR State,
     the OSSI State, the dead time value and the Automatic Output Enable Bit */

  /* Set the BDTR bits */
  MODIFY_REG(tmpbdtr, TIM_BDTR_DTG, sBreakDeadTimeConfig->DeadTime);
  MODIFY_REG(tmpbdtr, TIM_BDTR_LOCK, sBreakDeadTimeConfig->LockLevel);
 8005df6:	4a20      	ldr	r2, [pc, #128]	@ (8005e78 <HAL_TIMEx_ConfigBreakDeadTime+0x8c>)
 8005df8:	68cb      	ldr	r3, [r1, #12]
  MODIFY_REG(tmpbdtr, TIM_BDTR_BKP, sBreakDeadTimeConfig->BreakPolarity);
  MODIFY_REG(tmpbdtr, TIM_BDTR_AOE, sBreakDeadTimeConfig->AutomaticOutput);
  MODIFY_REG(tmpbdtr, TIM_BDTR_BKF, (sBreakDeadTimeConfig->BreakFilter << TIM_BDTR_BKF_Pos));
  MODIFY_REG(tmpbdtr, TIM_BDTR_BKBID, sBreakDeadTimeConfig->BreakAFMode);

  if (IS_TIM_BKIN2_INSTANCE(htim->Instance))
 8005dfa:	6804      	ldr	r4, [r0, #0]
  MODIFY_REG(tmpbdtr, TIM_BDTR_LOCK, sBreakDeadTimeConfig->LockLevel);
 8005dfc:	4013      	ands	r3, r2
 8005dfe:	688a      	ldr	r2, [r1, #8]
 8005e00:	4313      	orrs	r3, r2
  MODIFY_REG(tmpbdtr, TIM_BDTR_OSSI, sBreakDeadTimeConfig->OffStateIDLEMode);
 8005e02:	4a1e      	ldr	r2, [pc, #120]	@ (8005e7c <HAL_TIMEx_ConfigBreakDeadTime+0x90>)
 8005e04:	4013      	ands	r3, r2
 8005e06:	684a      	ldr	r2, [r1, #4]
 8005e08:	4313      	orrs	r3, r2
  MODIFY_REG(tmpbdtr, TIM_BDTR_OSSR, sBreakDeadTimeConfig->OffStateRunMode);
 8005e0a:	4a1d      	ldr	r2, [pc, #116]	@ (8005e80 <HAL_TIMEx_ConfigBreakDeadTime+0x94>)
 8005e0c:	4013      	ands	r3, r2
 8005e0e:	680a      	ldr	r2, [r1, #0]
 8005e10:	4313      	orrs	r3, r2
  MODIFY_REG(tmpbdtr, TIM_BDTR_BKE, sBreakDeadTimeConfig->BreakState);
 8005e12:	4a1c      	ldr	r2, [pc, #112]	@ (8005e84 <HAL_TIMEx_ConfigBreakDeadTime+0x98>)
 8005e14:	4013      	ands	r3, r2
 8005e16:	690a      	ldr	r2, [r1, #16]
 8005e18:	4313      	orrs	r3, r2
  MODIFY_REG(tmpbdtr, TIM_BDTR_BKP, sBreakDeadTimeConfig->BreakPolarity);
 8005e1a:	4a1b      	ldr	r2, [pc, #108]	@ (8005e88 <HAL_TIMEx_ConfigBreakDeadTime+0x9c>)
 8005e1c:	4013      	ands	r3, r2
 8005e1e:	694a      	ldr	r2, [r1, #20]
 8005e20:	4313      	orrs	r3, r2
  MODIFY_REG(tmpbdtr, TIM_BDTR_AOE, sBreakDeadTimeConfig->AutomaticOutput);
 8005e22:	4a1a      	ldr	r2, [pc, #104]	@ (8005e8c <HAL_TIMEx_ConfigBreakDeadTime+0xa0>)
 8005e24:	4013      	ands	r3, r2
 8005e26:	6b0a      	ldr	r2, [r1, #48]	@ 0x30
 8005e28:	4313      	orrs	r3, r2
  MODIFY_REG(tmpbdtr, TIM_BDTR_BKF, (sBreakDeadTimeConfig->BreakFilter << TIM_BDTR_BKF_Pos));
 8005e2a:	4a19      	ldr	r2, [pc, #100]	@ (8005e90 <HAL_TIMEx_ConfigBreakDeadTime+0xa4>)
 8005e2c:	4013      	ands	r3, r2
 8005e2e:	698a      	ldr	r2, [r1, #24]
 8005e30:	0412      	lsls	r2, r2, #16
 8005e32:	4313      	orrs	r3, r2
  MODIFY_REG(tmpbdtr, TIM_BDTR_BKBID, sBreakDeadTimeConfig->BreakAFMode);
 8005e34:	4a17      	ldr	r2, [pc, #92]	@ (8005e94 <HAL_TIMEx_ConfigBreakDeadTime+0xa8>)
 8005e36:	4013      	ands	r3, r2
 8005e38:	69ca      	ldr	r2, [r1, #28]
 8005e3a:	4313      	orrs	r3, r2
  if (IS_TIM_BKIN2_INSTANCE(htim->Instance))
 8005e3c:	4a16      	ldr	r2, [pc, #88]	@ (8005e98 <HAL_TIMEx_ConfigBreakDeadTime+0xac>)
 8005e3e:	4294      	cmp	r4, r2
 8005e40:	d005      	beq.n	8005e4e <HAL_TIMEx_ConfigBreakDeadTime+0x62>
    MODIFY_REG(tmpbdtr, TIM_BDTR_BK2P, sBreakDeadTimeConfig->Break2Polarity);
    MODIFY_REG(tmpbdtr, TIM_BDTR_BK2BID, sBreakDeadTimeConfig->Break2AFMode);
  }

  /* Set TIMx_BDTR */
  htim->Instance->BDTR = tmpbdtr;
 8005e42:	6463      	str	r3, [r4, #68]	@ 0x44

  __HAL_UNLOCK(htim);
 8005e44:	2200      	movs	r2, #0
 8005e46:	233c      	movs	r3, #60	@ 0x3c
 8005e48:	54c2      	strb	r2, [r0, r3]

  return HAL_OK;
 8005e4a:	2000      	movs	r0, #0
}
 8005e4c:	bd10      	pop	{r4, pc}
    MODIFY_REG(tmpbdtr, TIM_BDTR_BK2F, (sBreakDeadTimeConfig->Break2Filter << TIM_BDTR_BK2F_Pos));
 8005e4e:	4a13      	ldr	r2, [pc, #76]	@ (8005e9c <HAL_TIMEx_ConfigBreakDeadTime+0xb0>)
 8005e50:	4013      	ands	r3, r2
 8005e52:	6a8a      	ldr	r2, [r1, #40]	@ 0x28
 8005e54:	0512      	lsls	r2, r2, #20
 8005e56:	431a      	orrs	r2, r3
    MODIFY_REG(tmpbdtr, TIM_BDTR_BK2E, sBreakDeadTimeConfig->Break2State);
 8005e58:	4b11      	ldr	r3, [pc, #68]	@ (8005ea0 <HAL_TIMEx_ConfigBreakDeadTime+0xb4>)
 8005e5a:	401a      	ands	r2, r3
 8005e5c:	6a0b      	ldr	r3, [r1, #32]
 8005e5e:	431a      	orrs	r2, r3
    MODIFY_REG(tmpbdtr, TIM_BDTR_BK2P, sBreakDeadTimeConfig->Break2Polarity);
 8005e60:	4b10      	ldr	r3, [pc, #64]	@ (8005ea4 <HAL_TIMEx_ConfigBreakDeadTime+0xb8>)
 8005e62:	401a      	ands	r2, r3
 8005e64:	6a4b      	ldr	r3, [r1, #36]	@ 0x24
 8005e66:	431a      	orrs	r2, r3
    MODIFY_REG(tmpbdtr, TIM_BDTR_BK2BID, sBreakDeadTimeConfig->Break2AFMode);
 8005e68:	4b0f      	ldr	r3, [pc, #60]	@ (8005ea8 <HAL_TIMEx_ConfigBreakDeadTime+0xbc>)
 8005e6a:	401a      	ands	r2, r3
 8005e6c:	6acb      	ldr	r3, [r1, #44]	@ 0x2c
 8005e6e:	4313      	orrs	r3, r2
 8005e70:	e7e7      	b.n	8005e42 <HAL_TIMEx_ConfigBreakDeadTime+0x56>
  __HAL_LOCK(htim);
 8005e72:	2002      	movs	r0, #2
 8005e74:	e7ea      	b.n	8005e4c <HAL_TIMEx_ConfigBreakDeadTime+0x60>
 8005e76:	46c0      	nop			@ (mov r8, r8)
 8005e78:	fffffcff 	.word	0xfffffcff
 8005e7c:	fffffbff 	.word	0xfffffbff
 8005e80:	fffff7ff 	.word	0xfffff7ff
 8005e84:	ffffefff 	.word	0xffffefff
 8005e88:	ffffdfff 	.word	0xffffdfff
 8005e8c:	ffffbfff 	.word	0xffffbfff
 8005e90:	fff0ffff 	.word	0xfff0ffff
 8005e94:	efffffff 	.word	0xefffffff
 8005e98:	40012c00 	.word	0x40012c00
 8005e9c:	ff0fffff 	.word	0xff0fffff
 8005ea0:	feffffff 	.word	0xfeffffff
 8005ea4:	fdffffff 	.word	0xfdffffff
 8005ea8:	dfffffff 	.word	0xdfffffff

08005eac <HAL_TIMEx_CommutCallback>:
/**
  * @brief  Commutation callback in non-blocking mode
  * @param  htim TIM handle
  * @retval None
  */
__weak void HAL_TIMEx_CommutCallback(TIM_HandleTypeDef *htim)
 8005eac:	4770      	bx	lr
 8005eae:	46c0      	nop			@ (mov r8, r8)

08005eb0 <HAL_TIMEx_CommutHalfCpltCallback>:
/**
  * @brief  Commutation half complete callback in non-blocking mode
  * @param  htim TIM handle
  * @retval None
  */
__weak void HAL_TIMEx_CommutHalfCpltCallback(TIM_HandleTypeDef *htim)
 8005eb0:	4770      	bx	lr
 8005eb2:	46c0      	nop			@ (mov r8, r8)

08005eb4 <HAL_TIMEx_BreakCallback>:
/**
  * @brief  Break detection callback in non-blocking mode
  * @param  htim TIM handle
  * @retval None
  */
__weak void HAL_TIMEx_BreakCallback(TIM_HandleTypeDef *htim)
 8005eb4:	4770      	bx	lr
 8005eb6:	46c0      	nop			@ (mov r8, r8)

08005eb8 <HAL_TIMEx_Break2Callback>:
/**
  * @brief  Break2 detection callback in non blocking mode
  * @param  htim: TIM handle
  * @retval None
  */
__weak void HAL_TIMEx_Break2Callback(TIM_HandleTypeDef *htim)
 8005eb8:	4770      	bx	lr
 8005eba:	46c0      	nop			@ (mov r8, r8)

08005ebc <HAL_UARTEx_RxEventCallback>:
  UNUSED(Size);

  /* NOTE : This function should not be modified, when the callback is needed,
            the HAL_UARTEx_RxEventCallback can be implemented in the user file.
   */
}
 8005ebc:	4770      	bx	lr
 8005ebe:	46c0      	nop			@ (mov r8, r8)

08005ec0 <UART_DMAReceiveCplt>:
  * @brief DMA UART receive process complete callback.
  * @param hdma DMA handle.
  * @retval None
  */
static void UART_DMAReceiveCplt(DMA_HandleTypeDef *hdma)
{
 8005ec0:	0003      	movs	r3, r0
  UART_HandleTypeDef *huart = (UART_HandleTypeDef *)(hdma->Parent);

  /* DMA Normal mode */
  if (HAL_IS_BIT_CLR(hdma->Instance->CCR, DMA_CCR_CIRC))
 8005ec2:	681b      	ldr	r3, [r3, #0]
{
 8005ec4:	b570      	push	{r4, r5, r6, lr}
  if (HAL_IS_BIT_CLR(hdma->Instance->CCR, DMA_CCR_CIRC))
 8005ec6:	681a      	ldr	r2, [r3, #0]
 8005ec8:	2320      	movs	r3, #32
 8005eca:	0019      	movs	r1, r3
  UART_HandleTypeDef *huart = (UART_HandleTypeDef *)(hdma->Parent);
 8005ecc:	6a80      	ldr	r0, [r0, #40]	@ 0x28
  if (HAL_IS_BIT_CLR(hdma->Instance->CCR, DMA_CCR_CIRC))
 8005ece:	4011      	ands	r1, r2
 8005ed0:	4213      	tst	r3, r2
 8005ed2:	d127      	bne.n	8005f24 <UART_DMAReceiveCplt+0x64>
  {
    huart->RxXferCount = 0U;
 8005ed4:	225e      	movs	r2, #94	@ 0x5e
 8005ed6:	5281      	strh	r1, [r0, r2]
  __ASM volatile ("MRS %0, primask" : "=r" (result) :: "memory");
 8005ed8:	f3ef 8510 	mrs	r5, PRIMASK
  __ASM volatile ("MSR primask, %0" : : "r" (priMask) : "memory");
 8005edc:	3a5d      	subs	r2, #93	@ 0x5d
 8005ede:	f382 8810 	msr	PRIMASK, r2

    /* Disable PE and ERR (Frame error, noise error, overrun error) interrupts */
    ATOMIC_CLEAR_BIT(huart->Instance->CR1, USART_CR1_PEIE);
 8005ee2:	6804      	ldr	r4, [r0, #0]
 8005ee4:	4e1d      	ldr	r6, [pc, #116]	@ (8005f5c <UART_DMAReceiveCplt+0x9c>)
 8005ee6:	6821      	ldr	r1, [r4, #0]
 8005ee8:	4031      	ands	r1, r6
 8005eea:	6021      	str	r1, [r4, #0]
 8005eec:	f385 8810 	msr	PRIMASK, r5
  __ASM volatile ("MRS %0, primask" : "=r" (result) :: "memory");
 8005ef0:	f3ef 8510 	mrs	r5, PRIMASK
  __ASM volatile ("MSR primask, %0" : : "r" (priMask) : "memory");
 8005ef4:	f382 8810 	msr	PRIMASK, r2
    ATOMIC_CLEAR_BIT(huart->Instance->CR3, USART_CR3_EIE);
 8005ef8:	6804      	ldr	r4, [r0, #0]
 8005efa:	68a1      	ldr	r1, [r4, #8]
 8005efc:	4391      	bics	r1, r2
 8005efe:	60a1      	str	r1, [r4, #8]
 8005f00:	f385 8810 	msr	PRIMASK, r5
  __ASM volatile ("MRS %0, primask" : "=r" (result) :: "memory");
 8005f04:	f3ef 8410 	mrs	r4, PRIMASK
  __ASM volatile ("MSR primask, %0" : : "r" (priMask) : "memory");
 8005f08:	f382 8810 	msr	PRIMASK, r2

    /* Disable the DMA transfer for the receiver request by resetting the DMAR bit
       in the UART CR3 register */
    ATOMIC_CLEAR_BIT(huart->Instance->CR3, USART_CR3_DMAR);
 8005f0c:	2540      	movs	r5, #64	@ 0x40
 8005f0e:	6801      	ldr	r1, [r0, #0]
 8005f10:	688a      	ldr	r2, [r1, #8]
 8005f12:	43aa      	bics	r2, r5
 8005f14:	608a      	str	r2, [r1, #8]
 8005f16:	f384 8810 	msr	PRIMASK, r4

    /* At end of Rx process, restore huart->RxState to Ready */
    huart->RxState = HAL_UART_STATE_READY;
 8005f1a:	228c      	movs	r2, #140	@ 0x8c
 8005f1c:	5083      	str	r3, [r0, r2]

    /* If Reception till IDLE event has been selected, Disable IDLE Interrupt */
    if (huart->ReceptionType == HAL_UART_RECEPTION_TOIDLE)
 8005f1e:	6ec3      	ldr	r3, [r0, #108]	@ 0x6c
 8005f20:	2b01      	cmp	r3, #1
 8005f22:	d00e      	beq.n	8005f42 <UART_DMAReceiveCplt+0x82>
    }
  }

  /* Initialize type of RxEvent that correspond to RxEvent callback execution;
     In this case, Rx Event type is Transfer Complete */
  huart->RxEventType = HAL_UART_RXEVENT_TC;
 8005f24:	2300      	movs	r3, #0
 8005f26:	6703      	str	r3, [r0, #112]	@ 0x70

  /* Check current reception Mode :
     If Reception till IDLE event has been selected : use Rx Event callback */
  if (huart->ReceptionType == HAL_UART_RECEPTION_TOIDLE)
 8005f28:	6ec3      	ldr	r3, [r0, #108]	@ 0x6c
 8005f2a:	2b01      	cmp	r3, #1
 8005f2c:	d003      	beq.n	8005f36 <UART_DMAReceiveCplt+0x76>
  else
  {
    /* In other cases : use Rx Complete callback */
#if (USE_HAL_UART_REGISTER_CALLBACKS == 1)
    /*Call registered Rx complete callback*/
    huart->RxCpltCallback(huart);
 8005f2e:	23a0      	movs	r3, #160	@ 0xa0
 8005f30:	58c3      	ldr	r3, [r0, r3]
 8005f32:	4798      	blx	r3
#else
    /*Call legacy weak Rx complete callback*/
    HAL_UART_RxCpltCallback(huart);
#endif /* USE_HAL_UART_REGISTER_CALLBACKS */
  }
}
 8005f34:	bd70      	pop	{r4, r5, r6, pc}
    huart->RxEventCallback(huart, huart->RxXferSize);
 8005f36:	335b      	adds	r3, #91	@ 0x5b
 8005f38:	5ac1      	ldrh	r1, [r0, r3]
 8005f3a:	3364      	adds	r3, #100	@ 0x64
 8005f3c:	58c3      	ldr	r3, [r0, r3]
 8005f3e:	4798      	blx	r3
 8005f40:	e7f8      	b.n	8005f34 <UART_DMAReceiveCplt+0x74>
  __ASM volatile ("MRS %0, primask" : "=r" (result) :: "memory");
 8005f42:	f3ef 8110 	mrs	r1, PRIMASK
  __ASM volatile ("MSR primask, %0" : : "r" (priMask) : "memory");
 8005f46:	f383 8810 	msr	PRIMASK, r3
      ATOMIC_CLEAR_BIT(huart->Instance->CR1, USART_CR1_IDLEIE);
 8005f4a:	2410      	movs	r4, #16
 8005f4c:	6802      	ldr	r2, [r0, #0]
 8005f4e:	6813      	ldr	r3, [r2, #0]
 8005f50:	43a3      	bics	r3, r4
 8005f52:	6013      	str	r3, [r2, #0]
 8005f54:	f381 8810 	msr	PRIMASK, r1
}
 8005f58:	e7e4      	b.n	8005f24 <UART_DMAReceiveCplt+0x64>
 8005f5a:	46c0      	nop			@ (mov r8, r8)
 8005f5c:	fffffeff 	.word	0xfffffeff

08005f60 <UART_DMARxHalfCplt>:
{
  UART_HandleTypeDef *huart = (UART_HandleTypeDef *)(hdma->Parent);

  /* Initialize type of RxEvent that correspond to RxEvent callback execution;
     In this case, Rx Event type is Half Transfer */
  huart->RxEventType = HAL_UART_RXEVENT_HT;
 8005f60:	2301      	movs	r3, #1
  UART_HandleTypeDef *huart = (UART_HandleTypeDef *)(hdma->Parent);
 8005f62:	6a80      	ldr	r0, [r0, #40]	@ 0x28
{
 8005f64:	b510      	push	{r4, lr}
  huart->RxEventType = HAL_UART_RXEVENT_HT;
 8005f66:	6703      	str	r3, [r0, #112]	@ 0x70

  /* Check current reception Mode :
     If Reception till IDLE event has been selected : use Rx Event callback */
  if (huart->ReceptionType == HAL_UART_RECEPTION_TOIDLE)
 8005f68:	6ec3      	ldr	r3, [r0, #108]	@ 0x6c
 8005f6a:	2b01      	cmp	r3, #1
 8005f6c:	d003      	beq.n	8005f76 <UART_DMARxHalfCplt+0x16>
  else
  {
    /* In other cases : use Rx Half Complete callback */
#if (USE_HAL_UART_REGISTER_CALLBACKS == 1)
    /*Call registered Rx Half complete callback*/
    huart->RxHalfCpltCallback(huart);
 8005f6e:	239c      	movs	r3, #156	@ 0x9c
 8005f70:	58c3      	ldr	r3, [r0, r3]
 8005f72:	4798      	blx	r3
#else
    /*Call legacy weak Rx Half complete callback*/
    HAL_UART_RxHalfCpltCallback(huart);
#endif /* USE_HAL_UART_REGISTER_CALLBACKS */
  }
}
 8005f74:	bd10      	pop	{r4, pc}
    huart->RxEventCallback(huart, huart->RxXferSize / 2U);
 8005f76:	335b      	adds	r3, #91	@ 0x5b
 8005f78:	5ac1      	ldrh	r1, [r0, r3]
 8005f7a:	3364      	adds	r3, #100	@ 0x64
 8005f7c:	58c3      	ldr	r3, [r0, r3]
 8005f7e:	0849      	lsrs	r1, r1, #1
 8005f80:	4798      	blx	r3
 8005f82:	e7f7      	b.n	8005f74 <UART_DMARxHalfCplt+0x14>

08005f84 <UART_DMAAbortOnError>:
  * @retval None
  */
static void UART_DMAAbortOnError(DMA_HandleTypeDef *hdma)
{
  UART_HandleTypeDef *huart = (UART_HandleTypeDef *)(hdma->Parent);
  huart->RxXferCount = 0U;
 8005f84:	2300      	movs	r3, #0
 8005f86:	225e      	movs	r2, #94	@ 0x5e
{
 8005f88:	b510      	push	{r4, lr}
  UART_HandleTypeDef *huart = (UART_HandleTypeDef *)(hdma->Parent);
 8005f8a:	6a80      	ldr	r0, [r0, #40]	@ 0x28
  huart->RxXferCount = 0U;
 8005f8c:	5283      	strh	r3, [r0, r2]
  huart->TxXferCount = 0U;
 8005f8e:	3a08      	subs	r2, #8
 8005f90:	5283      	strh	r3, [r0, r2]

#if (USE_HAL_UART_REGISTER_CALLBACKS == 1)
  /*Call registered error callback*/
  huart->ErrorCallback(huart);
 8005f92:	33a4      	adds	r3, #164	@ 0xa4
 8005f94:	58c3      	ldr	r3, [r0, r3]
 8005f96:	4798      	blx	r3
#else
  /*Call legacy weak error callback*/
  HAL_UART_ErrorCallback(huart);
#endif /* USE_HAL_UART_REGISTER_CALLBACKS */
}
 8005f98:	bd10      	pop	{r4, pc}
 8005f9a:	46c0      	nop			@ (mov r8, r8)

08005f9c <HAL_UART_AbortReceiveCpltCallback>:
__weak void HAL_UART_AbortReceiveCpltCallback(UART_HandleTypeDef *huart)
 8005f9c:	4770      	bx	lr
 8005f9e:	46c0      	nop			@ (mov r8, r8)

08005fa0 <HAL_UART_TxCpltCallback>:
__weak void HAL_UART_TxCpltCallback(UART_HandleTypeDef *huart)
 8005fa0:	4770      	bx	lr
 8005fa2:	46c0      	nop			@ (mov r8, r8)

08005fa4 <HAL_UART_TxHalfCpltCallback>:
__weak void HAL_UART_TxHalfCpltCallback(UART_HandleTypeDef *huart)
 8005fa4:	4770      	bx	lr
 8005fa6:	46c0      	nop			@ (mov r8, r8)

08005fa8 <HAL_UART_RxCpltCallback>:
__weak void HAL_UART_RxCpltCallback(UART_HandleTypeDef *huart)
 8005fa8:	4770      	bx	lr
 8005faa:	46c0      	nop			@ (mov r8, r8)

08005fac <HAL_UART_RxHalfCpltCallback>:
__weak void HAL_UART_RxHalfCpltCallback(UART_HandleTypeDef *huart)
 8005fac:	4770      	bx	lr
 8005fae:	46c0      	nop			@ (mov r8, r8)

08005fb0 <HAL_UART_ErrorCallback>:
__weak void HAL_UART_ErrorCallback(UART_HandleTypeDef *huart)
 8005fb0:	4770      	bx	lr
 8005fb2:	46c0      	nop			@ (mov r8, r8)

08005fb4 <HAL_UART_AbortCpltCallback>:
__weak void HAL_UART_AbortCpltCallback(UART_HandleTypeDef *huart)
 8005fb4:	4770      	bx	lr
 8005fb6:	46c0      	nop			@ (mov r8, r8)

08005fb8 <HAL_UART_AbortTransmitCpltCallback>:
__weak void HAL_UART_AbortTransmitCpltCallback(UART_HandleTypeDef *huart)
 8005fb8:	4770      	bx	lr
 8005fba:	46c0      	nop			@ (mov r8, r8)

08005fbc <UART_DMAError>:
{
 8005fbc:	b5f8      	push	{r3, r4, r5, r6, r7, lr}
  const HAL_UART_StateTypeDef gstate = huart->gState;
 8005fbe:	2188      	movs	r1, #136	@ 0x88
  const HAL_UART_StateTypeDef rxstate = huart->RxState;
 8005fc0:	238c      	movs	r3, #140	@ 0x8c
  UART_HandleTypeDef *huart = (UART_HandleTypeDef *)(hdma->Parent);
 8005fc2:	6a80      	ldr	r0, [r0, #40]	@ 0x28
  const HAL_UART_StateTypeDef gstate = huart->gState;
 8005fc4:	5845      	ldr	r5, [r0, r1]
  const HAL_UART_StateTypeDef rxstate = huart->RxState;
 8005fc6:	58c4      	ldr	r4, [r0, r3]
  if ((HAL_IS_BIT_SET(huart->Instance->CR3, USART_CR3_DMAT)) &&
 8005fc8:	6803      	ldr	r3, [r0, #0]
 8005fca:	689a      	ldr	r2, [r3, #8]
 8005fcc:	0612      	lsls	r2, r2, #24
 8005fce:	d501      	bpl.n	8005fd4 <UART_DMAError+0x18>
 8005fd0:	2d21      	cmp	r5, #33	@ 0x21
 8005fd2:	d00d      	beq.n	8005ff0 <UART_DMAError+0x34>
  if ((HAL_IS_BIT_SET(huart->Instance->CR3, USART_CR3_DMAR)) &&
 8005fd4:	689b      	ldr	r3, [r3, #8]
 8005fd6:	065b      	lsls	r3, r3, #25
 8005fd8:	d501      	bpl.n	8005fde <UART_DMAError+0x22>
 8005fda:	2c22      	cmp	r4, #34	@ 0x22
 8005fdc:	d026      	beq.n	800602c <UART_DMAError+0x70>
  huart->ErrorCode |= HAL_UART_ERROR_DMA;
 8005fde:	2290      	movs	r2, #144	@ 0x90
 8005fe0:	2110      	movs	r1, #16
 8005fe2:	5883      	ldr	r3, [r0, r2]
 8005fe4:	430b      	orrs	r3, r1
 8005fe6:	5083      	str	r3, [r0, r2]
  huart->ErrorCallback(huart);
 8005fe8:	23a4      	movs	r3, #164	@ 0xa4
 8005fea:	58c3      	ldr	r3, [r0, r3]
 8005fec:	4798      	blx	r3
}
 8005fee:	bdf8      	pop	{r3, r4, r5, r6, r7, pc}
    huart->TxXferCount = 0U;
 8005ff0:	2356      	movs	r3, #86	@ 0x56
 8005ff2:	2200      	movs	r2, #0
 8005ff4:	52c2      	strh	r2, [r0, r3]
  __ASM volatile ("MRS %0, primask" : "=r" (result) :: "memory");
 8005ff6:	f3ef 8610 	mrs	r6, PRIMASK
  __ASM volatile ("MSR primask, %0" : : "r" (priMask) : "memory");
 8005ffa:	3201      	adds	r2, #1
 8005ffc:	f382 8810 	msr	PRIMASK, r2
  ATOMIC_CLEAR_BIT(huart->Instance->CR1, (USART_CR1_TXEIE_TXFNFIE | USART_CR1_TCIE));
 8006000:	27c0      	movs	r7, #192	@ 0xc0
 8006002:	6805      	ldr	r5, [r0, #0]
 8006004:	682b      	ldr	r3, [r5, #0]
 8006006:	43bb      	bics	r3, r7
 8006008:	602b      	str	r3, [r5, #0]
 800600a:	f386 8810 	msr	PRIMASK, r6
  __ASM volatile ("MRS %0, primask" : "=r" (result) :: "memory");
 800600e:	f3ef 8510 	mrs	r5, PRIMASK
  __ASM volatile ("MSR primask, %0" : : "r" (priMask) : "memory");
 8006012:	f382 8810 	msr	PRIMASK, r2
  ATOMIC_CLEAR_BIT(huart->Instance->CR3, (USART_CR3_TXFTIE));
 8006016:	6802      	ldr	r2, [r0, #0]
 8006018:	4e1c      	ldr	r6, [pc, #112]	@ (800608c <UART_DMAError+0xd0>)
 800601a:	6893      	ldr	r3, [r2, #8]
 800601c:	4033      	ands	r3, r6
 800601e:	6093      	str	r3, [r2, #8]
 8006020:	f385 8810 	msr	PRIMASK, r5
  huart->gState = HAL_UART_STATE_READY;
 8006024:	2320      	movs	r3, #32
 8006026:	5043      	str	r3, [r0, r1]
  if ((HAL_IS_BIT_SET(huart->Instance->CR3, USART_CR3_DMAR)) &&
 8006028:	6803      	ldr	r3, [r0, #0]
}
 800602a:	e7d3      	b.n	8005fd4 <UART_DMAError+0x18>
    huart->RxXferCount = 0U;
 800602c:	235e      	movs	r3, #94	@ 0x5e
 800602e:	2200      	movs	r2, #0
 8006030:	52c2      	strh	r2, [r0, r3]
  __ASM volatile ("MRS %0, primask" : "=r" (result) :: "memory");
 8006032:	f3ef 8410 	mrs	r4, PRIMASK
  __ASM volatile ("MSR primask, %0" : : "r" (priMask) : "memory");
 8006036:	3201      	adds	r2, #1
 8006038:	f382 8810 	msr	PRIMASK, r2
  ATOMIC_CLEAR_BIT(huart->Instance->CR1, (USART_CR1_RXNEIE_RXFNEIE | USART_CR1_PEIE));
 800603c:	6801      	ldr	r1, [r0, #0]
 800603e:	4d14      	ldr	r5, [pc, #80]	@ (8006090 <UART_DMAError+0xd4>)
 8006040:	680b      	ldr	r3, [r1, #0]
 8006042:	402b      	ands	r3, r5
 8006044:	600b      	str	r3, [r1, #0]
 8006046:	f384 8810 	msr	PRIMASK, r4
  __ASM volatile ("MRS %0, primask" : "=r" (result) :: "memory");
 800604a:	f3ef 8110 	mrs	r1, PRIMASK
  __ASM volatile ("MSR primask, %0" : : "r" (priMask) : "memory");
 800604e:	f382 8810 	msr	PRIMASK, r2
  ATOMIC_CLEAR_BIT(huart->Instance->CR3, (USART_CR3_EIE | USART_CR3_RXFTIE));
 8006052:	6802      	ldr	r2, [r0, #0]
 8006054:	4c0f      	ldr	r4, [pc, #60]	@ (8006094 <UART_DMAError+0xd8>)
 8006056:	6893      	ldr	r3, [r2, #8]
 8006058:	4023      	ands	r3, r4
 800605a:	6093      	str	r3, [r2, #8]
 800605c:	f381 8810 	msr	PRIMASK, r1
  if (huart->ReceptionType == HAL_UART_RECEPTION_TOIDLE)
 8006060:	6ec3      	ldr	r3, [r0, #108]	@ 0x6c
 8006062:	2b01      	cmp	r3, #1
 8006064:	d10a      	bne.n	800607c <UART_DMAError+0xc0>
  __ASM volatile ("MRS %0, primask" : "=r" (result) :: "memory");
 8006066:	f3ef 8110 	mrs	r1, PRIMASK
  __ASM volatile ("MSR primask, %0" : : "r" (priMask) : "memory");
 800606a:	f383 8810 	msr	PRIMASK, r3
    ATOMIC_CLEAR_BIT(huart->Instance->CR1, USART_CR1_IDLEIE);
 800606e:	2410      	movs	r4, #16
 8006070:	6802      	ldr	r2, [r0, #0]
 8006072:	6813      	ldr	r3, [r2, #0]
 8006074:	43a3      	bics	r3, r4
 8006076:	6013      	str	r3, [r2, #0]
 8006078:	f381 8810 	msr	PRIMASK, r1
  huart->RxState = HAL_UART_STATE_READY;
 800607c:	238c      	movs	r3, #140	@ 0x8c
 800607e:	2220      	movs	r2, #32
 8006080:	50c2      	str	r2, [r0, r3]
  huart->ReceptionType = HAL_UART_RECEPTION_STANDARD;
 8006082:	2300      	movs	r3, #0
 8006084:	66c3      	str	r3, [r0, #108]	@ 0x6c
  huart->RxISR = NULL;
 8006086:	6743      	str	r3, [r0, #116]	@ 0x74
}
 8006088:	e7a9      	b.n	8005fde <UART_DMAError+0x22>
 800608a:	46c0      	nop			@ (mov r8, r8)
 800608c:	ff7fffff 	.word	0xff7fffff
 8006090:	fffffedf 	.word	0xfffffedf
 8006094:	effffffe 	.word	0xeffffffe

08006098 <HAL_UART_RegisterCallback>:
{
 8006098:	b510      	push	{r4, lr}
  if (pCallback == NULL)
 800609a:	2a00      	cmp	r2, #0
 800609c:	d006      	beq.n	80060ac <HAL_UART_RegisterCallback+0x14>
  if (huart->gState == HAL_UART_STATE_READY)
 800609e:	2388      	movs	r3, #136	@ 0x88
 80060a0:	58c4      	ldr	r4, [r0, r3]
 80060a2:	2c20      	cmp	r4, #32
 80060a4:	d011      	beq.n	80060ca <HAL_UART_RegisterCallback+0x32>
  else if (huart->gState == HAL_UART_STATE_RESET)
 80060a6:	58c3      	ldr	r3, [r0, r3]
 80060a8:	2b00      	cmp	r3, #0
 80060aa:	d006      	beq.n	80060ba <HAL_UART_RegisterCallback+0x22>
        huart->ErrorCode |= HAL_UART_ERROR_INVALID_CALLBACK;
 80060ac:	2290      	movs	r2, #144	@ 0x90
 80060ae:	2140      	movs	r1, #64	@ 0x40
 80060b0:	5883      	ldr	r3, [r0, r2]
 80060b2:	430b      	orrs	r3, r1
 80060b4:	5083      	str	r3, [r0, r2]
    return HAL_ERROR;
 80060b6:	2001      	movs	r0, #1
}
 80060b8:	bd10      	pop	{r4, pc}
    switch (CallbackID)
 80060ba:	290b      	cmp	r1, #11
 80060bc:	d00b      	beq.n	80060d6 <HAL_UART_RegisterCallback+0x3e>
 80060be:	290c      	cmp	r1, #12
 80060c0:	d1f4      	bne.n	80060ac <HAL_UART_RegisterCallback+0x14>
        huart->MspDeInitCallback = pCallback;
 80060c2:	23c8      	movs	r3, #200	@ 0xc8
 80060c4:	50c2      	str	r2, [r0, r3]
  HAL_StatusTypeDef status = HAL_OK;
 80060c6:	2000      	movs	r0, #0
 80060c8:	e7f6      	b.n	80060b8 <HAL_UART_RegisterCallback+0x20>
    switch (CallbackID)
 80060ca:	290c      	cmp	r1, #12
 80060cc:	d8ee      	bhi.n	80060ac <HAL_UART_RegisterCallback+0x14>
 80060ce:	4b1a      	ldr	r3, [pc, #104]	@ (8006138 <HAL_UART_RegisterCallback+0xa0>)
 80060d0:	0089      	lsls	r1, r1, #2
 80060d2:	585b      	ldr	r3, [r3, r1]
 80060d4:	469f      	mov	pc, r3
        huart->MspInitCallback = pCallback;
 80060d6:	23c4      	movs	r3, #196	@ 0xc4
 80060d8:	50c2      	str	r2, [r0, r3]
  HAL_StatusTypeDef status = HAL_OK;
 80060da:	2000      	movs	r0, #0
 80060dc:	e7ec      	b.n	80060b8 <HAL_UART_RegisterCallback+0x20>
        huart->TxHalfCpltCallback = pCallback;
 80060de:	2394      	movs	r3, #148	@ 0x94
 80060e0:	50c2      	str	r2, [r0, r3]
  HAL_StatusTypeDef status = HAL_OK;
 80060e2:	2000      	movs	r0, #0
 80060e4:	e7e8      	b.n	80060b8 <HAL_UART_RegisterCallback+0x20>
        huart->TxCpltCallback = pCallback;
 80060e6:	2398      	movs	r3, #152	@ 0x98
 80060e8:	50c2      	str	r2, [r0, r3]
  HAL_StatusTypeDef status = HAL_OK;
 80060ea:	2000      	movs	r0, #0
 80060ec:	e7e4      	b.n	80060b8 <HAL_UART_RegisterCallback+0x20>
        huart->RxHalfCpltCallback = pCallback;
 80060ee:	239c      	movs	r3, #156	@ 0x9c
 80060f0:	50c2      	str	r2, [r0, r3]
  HAL_StatusTypeDef status = HAL_OK;
 80060f2:	2000      	movs	r0, #0
 80060f4:	e7e0      	b.n	80060b8 <HAL_UART_RegisterCallback+0x20>
        huart->RxCpltCallback = pCallback;
 80060f6:	23a0      	movs	r3, #160	@ 0xa0
 80060f8:	50c2      	str	r2, [r0, r3]
  HAL_StatusTypeDef status = HAL_OK;
 80060fa:	2000      	movs	r0, #0
 80060fc:	e7dc      	b.n	80060b8 <HAL_UART_RegisterCallback+0x20>
        huart->ErrorCallback = pCallback;
 80060fe:	23a4      	movs	r3, #164	@ 0xa4
 8006100:	50c2      	str	r2, [r0, r3]
  HAL_StatusTypeDef status = HAL_OK;
 8006102:	2000      	movs	r0, #0
 8006104:	e7d8      	b.n	80060b8 <HAL_UART_RegisterCallback+0x20>
        huart->AbortCpltCallback = pCallback;
 8006106:	23a8      	movs	r3, #168	@ 0xa8
 8006108:	50c2      	str	r2, [r0, r3]
  HAL_StatusTypeDef status = HAL_OK;
 800610a:	2000      	movs	r0, #0
 800610c:	e7d4      	b.n	80060b8 <HAL_UART_RegisterCallback+0x20>
        huart->AbortTransmitCpltCallback = pCallback;
 800610e:	23ac      	movs	r3, #172	@ 0xac
 8006110:	50c2      	str	r2, [r0, r3]
  HAL_StatusTypeDef status = HAL_OK;
 8006112:	2000      	movs	r0, #0
 8006114:	e7d0      	b.n	80060b8 <HAL_UART_RegisterCallback+0x20>
        huart->AbortReceiveCpltCallback = pCallback;
 8006116:	23b0      	movs	r3, #176	@ 0xb0
 8006118:	50c2      	str	r2, [r0, r3]
  HAL_StatusTypeDef status = HAL_OK;
 800611a:	2000      	movs	r0, #0
 800611c:	e7cc      	b.n	80060b8 <HAL_UART_RegisterCallback+0x20>
        huart->WakeupCallback = pCallback;
 800611e:	23b4      	movs	r3, #180	@ 0xb4
 8006120:	50c2      	str	r2, [r0, r3]
  HAL_StatusTypeDef status = HAL_OK;
 8006122:	2000      	movs	r0, #0
 8006124:	e7c8      	b.n	80060b8 <HAL_UART_RegisterCallback+0x20>
        huart->RxFifoFullCallback = pCallback;
 8006126:	23b8      	movs	r3, #184	@ 0xb8
 8006128:	50c2      	str	r2, [r0, r3]
  HAL_StatusTypeDef status = HAL_OK;
 800612a:	2000      	movs	r0, #0
 800612c:	e7c4      	b.n	80060b8 <HAL_UART_RegisterCallback+0x20>
        huart->TxFifoEmptyCallback = pCallback;
 800612e:	23bc      	movs	r3, #188	@ 0xbc
 8006130:	50c2      	str	r2, [r0, r3]
  HAL_StatusTypeDef status = HAL_OK;
 8006132:	2000      	movs	r0, #0
 8006134:	e7c0      	b.n	80060b8 <HAL_UART_RegisterCallback+0x20>
 8006136:	46c0      	nop			@ (mov r8, r8)
 8006138:	08007828 	.word	0x08007828

0800613c <HAL_UART_Receive_DMA>:
{
 800613c:	b5f8      	push	{r3, r4, r5, r6, r7, lr}
 800613e:	000d      	movs	r5, r1
  if (huart->RxState == HAL_UART_STATE_READY)
 8006140:	218c      	movs	r1, #140	@ 0x8c
 8006142:	5841      	ldr	r1, [r0, r1]
{
 8006144:	0004      	movs	r4, r0
  if (huart->RxState == HAL_UART_STATE_READY)
 8006146:	2920      	cmp	r1, #32
 8006148:	d160      	bne.n	800620c <HAL_UART_Receive_DMA+0xd0>
    if ((pData == NULL) || (Size == 0U))
 800614a:	2d00      	cmp	r5, #0
 800614c:	d041      	beq.n	80061d2 <HAL_UART_Receive_DMA+0x96>
 800614e:	2a00      	cmp	r2, #0
 8006150:	d03f      	beq.n	80061d2 <HAL_UART_Receive_DMA+0x96>
    if ((huart->Init.WordLength == UART_WORDLENGTH_9B) && (huart->Init.Parity == UART_PARITY_NONE))
 8006152:	2380      	movs	r3, #128	@ 0x80
 8006154:	6881      	ldr	r1, [r0, #8]
 8006156:	015b      	lsls	r3, r3, #5
 8006158:	4299      	cmp	r1, r3
 800615a:	d104      	bne.n	8006166 <HAL_UART_Receive_DMA+0x2a>
 800615c:	6903      	ldr	r3, [r0, #16]
 800615e:	2b00      	cmp	r3, #0
 8006160:	d101      	bne.n	8006166 <HAL_UART_Receive_DMA+0x2a>
      if ((((uint32_t)pData) & 1U) != 0U)
 8006162:	07eb      	lsls	r3, r5, #31
 8006164:	d435      	bmi.n	80061d2 <HAL_UART_Receive_DMA+0x96>
    huart->ReceptionType = HAL_UART_RECEPTION_STANDARD;
 8006166:	2300      	movs	r3, #0
    if (!(IS_LPUART_INSTANCE(huart->Instance)))
 8006168:	4930      	ldr	r1, [pc, #192]	@ (800622c <HAL_UART_Receive_DMA+0xf0>)
    huart->ReceptionType = HAL_UART_RECEPTION_STANDARD;
 800616a:	66e3      	str	r3, [r4, #108]	@ 0x6c
    if (!(IS_LPUART_INSTANCE(huart->Instance)))
 800616c:	6823      	ldr	r3, [r4, #0]
 800616e:	428b      	cmp	r3, r1
 8006170:	d00f      	beq.n	8006192 <HAL_UART_Receive_DMA+0x56>
      if (READ_BIT(huart->Instance->CR2, USART_CR2_RTOEN) != 0U)
 8006172:	685b      	ldr	r3, [r3, #4]
 8006174:	021b      	lsls	r3, r3, #8
 8006176:	d50c      	bpl.n	8006192 <HAL_UART_Receive_DMA+0x56>
  __ASM volatile ("MRS %0, primask" : "=r" (result) :: "memory");
 8006178:	f3ef 8010 	mrs	r0, PRIMASK
  __ASM volatile ("MSR primask, %0" : : "r" (priMask) : "memory");
 800617c:	2301      	movs	r3, #1
 800617e:	f383 8810 	msr	PRIMASK, r3
        ATOMIC_SET_BIT(huart->Instance->CR1, USART_CR1_RTOIE);
 8006182:	2380      	movs	r3, #128	@ 0x80
 8006184:	6821      	ldr	r1, [r4, #0]
 8006186:	04db      	lsls	r3, r3, #19
 8006188:	680e      	ldr	r6, [r1, #0]
 800618a:	4333      	orrs	r3, r6
 800618c:	600b      	str	r3, [r1, #0]
 800618e:	f380 8810 	msr	PRIMASK, r0
  huart->RxXferSize = Size;
 8006192:	235c      	movs	r3, #92	@ 0x5c
  huart->pRxBuffPtr = pData;
 8006194:	65a5      	str	r5, [r4, #88]	@ 0x58
  huart->RxState = HAL_UART_STATE_BUSY_RX;
 8006196:	2122      	movs	r1, #34	@ 0x22
  huart->RxXferSize = Size;
 8006198:	52e2      	strh	r2, [r4, r3]
  huart->ErrorCode = HAL_UART_ERROR_NONE;
 800619a:	2790      	movs	r7, #144	@ 0x90
 800619c:	2300      	movs	r3, #0
  huart->RxState = HAL_UART_STATE_BUSY_RX;
 800619e:	268c      	movs	r6, #140	@ 0x8c
  huart->ErrorCode = HAL_UART_ERROR_NONE;
 80061a0:	51e3      	str	r3, [r4, r7]
  huart->RxState = HAL_UART_STATE_BUSY_RX;
 80061a2:	51a1      	str	r1, [r4, r6]
  if (huart->hdmarx != NULL)
 80061a4:	315e      	adds	r1, #94	@ 0x5e
 80061a6:	5860      	ldr	r0, [r4, r1]
 80061a8:	2800      	cmp	r0, #0
 80061aa:	d014      	beq.n	80061d6 <HAL_UART_Receive_DMA+0x9a>
    huart->hdmarx->XferCpltCallback = UART_DMAReceiveCplt;
 80061ac:	4920      	ldr	r1, [pc, #128]	@ (8006230 <HAL_UART_Receive_DMA+0xf4>)
    huart->hdmarx->XferAbortCallback = NULL;
 80061ae:	6383      	str	r3, [r0, #56]	@ 0x38
    huart->hdmarx->XferCpltCallback = UART_DMAReceiveCplt;
 80061b0:	62c1      	str	r1, [r0, #44]	@ 0x2c
    huart->hdmarx->XferHalfCpltCallback = UART_DMARxHalfCplt;
 80061b2:	4920      	ldr	r1, [pc, #128]	@ (8006234 <HAL_UART_Receive_DMA+0xf8>)
    if (HAL_DMA_Start_IT(huart->hdmarx, (uint32_t)&huart->Instance->RDR, (uint32_t)huart->pRxBuffPtr, Size) != HAL_OK)
 80061b4:	0013      	movs	r3, r2
    huart->hdmarx->XferHalfCpltCallback = UART_DMARxHalfCplt;
 80061b6:	6301      	str	r1, [r0, #48]	@ 0x30
    huart->hdmarx->XferErrorCallback = UART_DMAError;
 80061b8:	491f      	ldr	r1, [pc, #124]	@ (8006238 <HAL_UART_Receive_DMA+0xfc>)
    if (HAL_DMA_Start_IT(huart->hdmarx, (uint32_t)&huart->Instance->RDR, (uint32_t)huart->pRxBuffPtr, Size) != HAL_OK)
 80061ba:	002a      	movs	r2, r5
    huart->hdmarx->XferErrorCallback = UART_DMAError;
 80061bc:	6341      	str	r1, [r0, #52]	@ 0x34
    if (HAL_DMA_Start_IT(huart->hdmarx, (uint32_t)&huart->Instance->RDR, (uint32_t)huart->pRxBuffPtr, Size) != HAL_OK)
 80061be:	6821      	ldr	r1, [r4, #0]
 80061c0:	3124      	adds	r1, #36	@ 0x24
 80061c2:	f7fd f87d 	bl	80032c0 <HAL_DMA_Start_IT>
 80061c6:	2800      	cmp	r0, #0
 80061c8:	d005      	beq.n	80061d6 <HAL_UART_Receive_DMA+0x9a>
      huart->ErrorCode = HAL_UART_ERROR_DMA;
 80061ca:	2310      	movs	r3, #16
 80061cc:	51e3      	str	r3, [r4, r7]
      huart->RxState = HAL_UART_STATE_READY;
 80061ce:	3310      	adds	r3, #16
 80061d0:	51a3      	str	r3, [r4, r6]
      return HAL_ERROR;
 80061d2:	2001      	movs	r0, #1
 80061d4:	e019      	b.n	800620a <HAL_UART_Receive_DMA+0xce>
  if (huart->Init.Parity != UART_PARITY_NONE)
 80061d6:	6923      	ldr	r3, [r4, #16]
 80061d8:	2b00      	cmp	r3, #0
 80061da:	d119      	bne.n	8006210 <HAL_UART_Receive_DMA+0xd4>
  __ASM volatile ("MRS %0, primask" : "=r" (result) :: "memory");
 80061dc:	f3ef 8010 	mrs	r0, PRIMASK
  __ASM volatile ("MSR primask, %0" : : "r" (priMask) : "memory");
 80061e0:	2301      	movs	r3, #1
 80061e2:	f383 8810 	msr	PRIMASK, r3
  ATOMIC_SET_BIT(huart->Instance->CR3, USART_CR3_EIE);
 80061e6:	6821      	ldr	r1, [r4, #0]
 80061e8:	688a      	ldr	r2, [r1, #8]
 80061ea:	431a      	orrs	r2, r3
 80061ec:	608a      	str	r2, [r1, #8]
 80061ee:	f380 8810 	msr	PRIMASK, r0
  __ASM volatile ("MRS %0, primask" : "=r" (result) :: "memory");
 80061f2:	f3ef 8110 	mrs	r1, PRIMASK
  __ASM volatile ("MSR primask, %0" : : "r" (priMask) : "memory");
 80061f6:	f383 8810 	msr	PRIMASK, r3
  ATOMIC_SET_BIT(huart->Instance->CR3, USART_CR3_DMAR);
 80061fa:	2040      	movs	r0, #64	@ 0x40
 80061fc:	6822      	ldr	r2, [r4, #0]
 80061fe:	6893      	ldr	r3, [r2, #8]
 8006200:	4303      	orrs	r3, r0
 8006202:	6093      	str	r3, [r2, #8]
 8006204:	f381 8810 	msr	PRIMASK, r1
  return HAL_OK;
 8006208:	2000      	movs	r0, #0
}
 800620a:	bdf8      	pop	{r3, r4, r5, r6, r7, pc}
    return HAL_BUSY;
 800620c:	2002      	movs	r0, #2
 800620e:	e7fc      	b.n	800620a <HAL_UART_Receive_DMA+0xce>
  __ASM volatile ("MRS %0, primask" : "=r" (result) :: "memory");
 8006210:	f3ef 8110 	mrs	r1, PRIMASK
  __ASM volatile ("MSR primask, %0" : : "r" (priMask) : "memory");
 8006214:	2301      	movs	r3, #1
 8006216:	f383 8810 	msr	PRIMASK, r3
    ATOMIC_SET_BIT(huart->Instance->CR1, USART_CR1_PEIE);
 800621a:	6822      	ldr	r2, [r4, #0]
 800621c:	33ff      	adds	r3, #255	@ 0xff
 800621e:	6810      	ldr	r0, [r2, #0]
 8006220:	4303      	orrs	r3, r0
 8006222:	6013      	str	r3, [r2, #0]
 8006224:	f381 8810 	msr	PRIMASK, r1
}
 8006228:	e7d8      	b.n	80061dc <HAL_UART_Receive_DMA+0xa0>
 800622a:	46c0      	nop			@ (mov r8, r8)
 800622c:	40008000 	.word	0x40008000
 8006230:	08005ec1 	.word	0x08005ec1
 8006234:	08005f61 	.word	0x08005f61
 8006238:	08005fbd 	.word	0x08005fbd

0800623c <HAL_UART_IRQHandler>:
{
 800623c:	b5f8      	push	{r3, r4, r5, r6, r7, lr}
 800623e:	4645      	mov	r5, r8
 8006240:	46de      	mov	lr, fp
 8006242:	4657      	mov	r7, sl
 8006244:	464e      	mov	r6, r9
  uint32_t isrflags   = READ_REG(huart->Instance->ISR);
 8006246:	6802      	ldr	r2, [r0, #0]
  errorflags = (isrflags & (uint32_t)(USART_ISR_PE | USART_ISR_FE | USART_ISR_ORE | USART_ISR_NE | USART_ISR_RTOF));
 8006248:	49ae      	ldr	r1, [pc, #696]	@ (8006504 <HAL_UART_IRQHandler+0x2c8>)
  uint32_t isrflags   = READ_REG(huart->Instance->ISR);
 800624a:	69d3      	ldr	r3, [r2, #28]
{
 800624c:	0004      	movs	r4, r0
 800624e:	b5e0      	push	{r5, r6, r7, lr}
  uint32_t cr1its     = READ_REG(huart->Instance->CR1);
 8006250:	6810      	ldr	r0, [r2, #0]
  uint32_t cr3its     = READ_REG(huart->Instance->CR3);
 8006252:	6895      	ldr	r5, [r2, #8]
  if (errorflags == 0U)
 8006254:	420b      	tst	r3, r1
 8006256:	d14e      	bne.n	80062f6 <HAL_UART_IRQHandler+0xba>
    if (((isrflags & USART_ISR_RXNE_RXFNE) != 0U)
 8006258:	2120      	movs	r1, #32
 800625a:	4219      	tst	r1, r3
 800625c:	d006      	beq.n	800626c <HAL_UART_IRQHandler+0x30>
            || ((cr3its & USART_CR3_RXFTIE) != 0U)))
 800625e:	2680      	movs	r6, #128	@ 0x80
 8006260:	0576      	lsls	r6, r6, #21
        && (((cr1its & USART_CR1_RXNEIE_RXFNEIE) != 0U)
 8006262:	4001      	ands	r1, r0
            || ((cr3its & USART_CR3_RXFTIE) != 0U)))
 8006264:	402e      	ands	r6, r5
 8006266:	4331      	orrs	r1, r6
 8006268:	d000      	beq.n	800626c <HAL_UART_IRQHandler+0x30>
 800626a:	e0e4      	b.n	8006436 <HAL_UART_IRQHandler+0x1fa>
  if ((huart->ReceptionType == HAL_UART_RECEPTION_TOIDLE)
 800626c:	6ee6      	ldr	r6, [r4, #108]	@ 0x6c
 800626e:	2e01      	cmp	r6, #1
 8006270:	d100      	bne.n	8006274 <HAL_UART_IRQHandler+0x38>
 8006272:	e09b      	b.n	80063ac <HAL_UART_IRQHandler+0x170>
  if (((isrflags & USART_ISR_WUF) != 0U) && ((cr3its & USART_CR3_WUFIE) != 0U))
 8006274:	2180      	movs	r1, #128	@ 0x80
 8006276:	0349      	lsls	r1, r1, #13
 8006278:	420b      	tst	r3, r1
 800627a:	d128      	bne.n	80062ce <HAL_UART_IRQHandler+0x92>
  if (((isrflags & USART_ISR_TXE_TXFNF) != 0U)
 800627c:	2280      	movs	r2, #128	@ 0x80
 800627e:	421a      	tst	r2, r3
 8006280:	d006      	beq.n	8006290 <HAL_UART_IRQHandler+0x54>
          || ((cr3its & USART_CR3_TXFTIE) != 0U)))
 8006282:	2180      	movs	r1, #128	@ 0x80
 8006284:	0409      	lsls	r1, r1, #16
      && (((cr1its & USART_CR1_TXEIE_TXFNFIE) != 0U)
 8006286:	4002      	ands	r2, r0
          || ((cr3its & USART_CR3_TXFTIE) != 0U)))
 8006288:	400d      	ands	r5, r1
 800628a:	432a      	orrs	r2, r5
 800628c:	d000      	beq.n	8006290 <HAL_UART_IRQHandler+0x54>
 800628e:	e0d9      	b.n	8006444 <HAL_UART_IRQHandler+0x208>
  if (((isrflags & USART_ISR_TC) != 0U) && ((cr1its & USART_CR1_TCIE) != 0U))
 8006290:	2240      	movs	r2, #64	@ 0x40
 8006292:	421a      	tst	r2, r3
 8006294:	d023      	beq.n	80062de <HAL_UART_IRQHandler+0xa2>
 8006296:	4202      	tst	r2, r0
 8006298:	d021      	beq.n	80062de <HAL_UART_IRQHandler+0xa2>
  __ASM volatile ("MRS %0, primask" : "=r" (result) :: "memory");
 800629a:	f3ef 8010 	mrs	r0, PRIMASK
  __ASM volatile ("MSR primask, %0" : : "r" (priMask) : "memory");
 800629e:	2301      	movs	r3, #1
 80062a0:	f383 8810 	msr	PRIMASK, r3
  * @retval None
  */
static void UART_EndTransmit_IT(UART_HandleTypeDef *huart)
{
  /* Disable the UART Transmit Complete Interrupt */
  ATOMIC_CLEAR_BIT(huart->Instance->CR1, USART_CR1_TCIE);
 80062a4:	6821      	ldr	r1, [r4, #0]
 80062a6:	680b      	ldr	r3, [r1, #0]
 80062a8:	4393      	bics	r3, r2
 80062aa:	600b      	str	r3, [r1, #0]
 80062ac:	f380 8810 	msr	PRIMASK, r0

  /* Tx process is ended, restore huart->gState to Ready */
  huart->gState = HAL_UART_STATE_READY;
 80062b0:	2388      	movs	r3, #136	@ 0x88
 80062b2:	3a20      	subs	r2, #32
 80062b4:	50e2      	str	r2, [r4, r3]

  /* Cleat TxISR function pointer */
  huart->TxISR = NULL;
 80062b6:	2300      	movs	r3, #0
 80062b8:	67a3      	str	r3, [r4, #120]	@ 0x78

#if (USE_HAL_UART_REGISTER_CALLBACKS == 1)
  /*Call registered Tx complete callback*/
  huart->TxCpltCallback(huart);
 80062ba:	3398      	adds	r3, #152	@ 0x98
 80062bc:	0020      	movs	r0, r4
 80062be:	58e3      	ldr	r3, [r4, r3]
 80062c0:	4798      	blx	r3
}
 80062c2:	bcf0      	pop	{r4, r5, r6, r7}
 80062c4:	46bb      	mov	fp, r7
 80062c6:	46b2      	mov	sl, r6
 80062c8:	46a9      	mov	r9, r5
 80062ca:	46a0      	mov	r8, r4
 80062cc:	bdf8      	pop	{r3, r4, r5, r6, r7, pc}
  if (((isrflags & USART_ISR_WUF) != 0U) && ((cr3its & USART_CR3_WUFIE) != 0U))
 80062ce:	026e      	lsls	r6, r5, #9
 80062d0:	d5d4      	bpl.n	800627c <HAL_UART_IRQHandler+0x40>
    huart->WakeupCallback(huart);
 80062d2:	23b4      	movs	r3, #180	@ 0xb4
 80062d4:	0020      	movs	r0, r4
 80062d6:	58e3      	ldr	r3, [r4, r3]
    __HAL_UART_CLEAR_FLAG(huart, UART_CLEAR_WUF);
 80062d8:	6211      	str	r1, [r2, #32]
    huart->WakeupCallback(huart);
 80062da:	4798      	blx	r3
    return;
 80062dc:	e7f1      	b.n	80062c2 <HAL_UART_IRQHandler+0x86>
  if (((isrflags & USART_ISR_TXFE) != 0U) && ((cr1its & USART_CR1_TXFEIE) != 0U))
 80062de:	021a      	lsls	r2, r3, #8
 80062e0:	d502      	bpl.n	80062e8 <HAL_UART_IRQHandler+0xac>
 80062e2:	0042      	lsls	r2, r0, #1
 80062e4:	d500      	bpl.n	80062e8 <HAL_UART_IRQHandler+0xac>
 80062e6:	e107      	b.n	80064f8 <HAL_UART_IRQHandler+0x2bc>
  if (((isrflags & USART_ISR_RXFF) != 0U) && ((cr1its & USART_CR1_RXFFIE) != 0U))
 80062e8:	01db      	lsls	r3, r3, #7
 80062ea:	d5ea      	bpl.n	80062c2 <HAL_UART_IRQHandler+0x86>
 80062ec:	2800      	cmp	r0, #0
 80062ee:	dae8      	bge.n	80062c2 <HAL_UART_IRQHandler+0x86>
    huart->RxFifoFullCallback(huart);
 80062f0:	23b8      	movs	r3, #184	@ 0xb8
 80062f2:	58e3      	ldr	r3, [r4, r3]
 80062f4:	e0a3      	b.n	800643e <HAL_UART_IRQHandler+0x202>
      && ((((cr3its & (USART_CR3_RXFTIE | USART_CR3_EIE)) != 0U)
 80062f6:	4e84      	ldr	r6, [pc, #528]	@ (8006508 <HAL_UART_IRQHandler+0x2cc>)
           || ((cr1its & (USART_CR1_RXNEIE_RXFNEIE | USART_CR1_PEIE | USART_CR1_RTOIE)) != 0U))))
 80062f8:	4984      	ldr	r1, [pc, #528]	@ (800650c <HAL_UART_IRQHandler+0x2d0>)
      && ((((cr3its & (USART_CR3_RXFTIE | USART_CR3_EIE)) != 0U)
 80062fa:	402e      	ands	r6, r5
           || ((cr1its & (USART_CR1_RXNEIE_RXFNEIE | USART_CR1_PEIE | USART_CR1_RTOIE)) != 0U))))
 80062fc:	4001      	ands	r1, r0
 80062fe:	4331      	orrs	r1, r6
 8006300:	d0b4      	beq.n	800626c <HAL_UART_IRQHandler+0x30>
    if (((isrflags & USART_ISR_PE) != 0U) && ((cr1its & USART_CR1_PEIE) != 0U))
 8006302:	2101      	movs	r1, #1
 8006304:	4219      	tst	r1, r3
 8006306:	d008      	beq.n	800631a <HAL_UART_IRQHandler+0xde>
 8006308:	05c7      	lsls	r7, r0, #23
 800630a:	d506      	bpl.n	800631a <HAL_UART_IRQHandler+0xde>
      huart->ErrorCode |= HAL_UART_ERROR_PE;
 800630c:	2790      	movs	r7, #144	@ 0x90
 800630e:	46bc      	mov	ip, r7
      __HAL_UART_CLEAR_FLAG(huart, UART_CLEAR_PEF);
 8006310:	6211      	str	r1, [r2, #32]
      huart->ErrorCode |= HAL_UART_ERROR_PE;
 8006312:	59e7      	ldr	r7, [r4, r7]
 8006314:	4339      	orrs	r1, r7
 8006316:	4667      	mov	r7, ip
 8006318:	51e1      	str	r1, [r4, r7]
    if (((isrflags & USART_ISR_NE) != 0U) && ((cr3its & USART_CR3_EIE) != 0U))
 800631a:	2104      	movs	r1, #4
 800631c:	000f      	movs	r7, r1
 800631e:	401f      	ands	r7, r3
 8006320:	46bc      	mov	ip, r7
    if (((isrflags & USART_ISR_FE) != 0U) && ((cr3its & USART_CR3_EIE) != 0U))
 8006322:	2702      	movs	r7, #2
    if (((isrflags & USART_ISR_NE) != 0U) && ((cr3its & USART_CR3_EIE) != 0U))
 8006324:	4689      	mov	r9, r1
    if (((isrflags & USART_ISR_FE) != 0U) && ((cr3its & USART_CR3_EIE) != 0U))
 8006326:	421f      	tst	r7, r3
 8006328:	d073      	beq.n	8006412 <HAL_UART_IRQHandler+0x1d6>
 800632a:	07e9      	lsls	r1, r5, #31
 800632c:	d50a      	bpl.n	8006344 <HAL_UART_IRQHandler+0x108>
      huart->ErrorCode |= HAL_UART_ERROR_FE;
 800632e:	2190      	movs	r1, #144	@ 0x90
      __HAL_UART_CLEAR_FLAG(huart, UART_CLEAR_FEF);
 8006330:	6217      	str	r7, [r2, #32]
      huart->ErrorCode |= HAL_UART_ERROR_FE;
 8006332:	5867      	ldr	r7, [r4, r1]
 8006334:	4688      	mov	r8, r1
 8006336:	4649      	mov	r1, r9
 8006338:	4339      	orrs	r1, r7
 800633a:	4647      	mov	r7, r8
 800633c:	51e1      	str	r1, [r4, r7]
    if (((isrflags & USART_ISR_NE) != 0U) && ((cr3its & USART_CR3_EIE) != 0U))
 800633e:	4661      	mov	r1, ip
 8006340:	2900      	cmp	r1, #0
 8006342:	d16b      	bne.n	800641c <HAL_UART_IRQHandler+0x1e0>
    if (((isrflags & USART_ISR_ORE) != 0U)
 8006344:	2708      	movs	r7, #8
 8006346:	421f      	tst	r7, r3
 8006348:	d008      	beq.n	800635c <HAL_UART_IRQHandler+0x120>
        && (((cr1its & USART_CR1_RXNEIE_RXFNEIE) != 0U) ||
 800634a:	2120      	movs	r1, #32
 800634c:	4001      	ands	r1, r0
 800634e:	4331      	orrs	r1, r6
 8006350:	d004      	beq.n	800635c <HAL_UART_IRQHandler+0x120>
      huart->ErrorCode |= HAL_UART_ERROR_ORE;
 8006352:	2690      	movs	r6, #144	@ 0x90
      __HAL_UART_CLEAR_FLAG(huart, UART_CLEAR_OREF);
 8006354:	6217      	str	r7, [r2, #32]
      huart->ErrorCode |= HAL_UART_ERROR_ORE;
 8006356:	59a1      	ldr	r1, [r4, r6]
 8006358:	4339      	orrs	r1, r7
 800635a:	51a1      	str	r1, [r4, r6]
    if (((isrflags & USART_ISR_RTOF) != 0U) && ((cr1its & USART_CR1_RTOIE) != 0U))
 800635c:	2180      	movs	r1, #128	@ 0x80
 800635e:	0109      	lsls	r1, r1, #4
 8006360:	420b      	tst	r3, r1
 8006362:	d007      	beq.n	8006374 <HAL_UART_IRQHandler+0x138>
 8006364:	0146      	lsls	r6, r0, #5
 8006366:	d505      	bpl.n	8006374 <HAL_UART_IRQHandler+0x138>
      huart->ErrorCode |= HAL_UART_ERROR_RTO;
 8006368:	2690      	movs	r6, #144	@ 0x90
 800636a:	2720      	movs	r7, #32
      __HAL_UART_CLEAR_FLAG(huart, UART_CLEAR_RTOF);
 800636c:	6211      	str	r1, [r2, #32]
      huart->ErrorCode |= HAL_UART_ERROR_RTO;
 800636e:	59a1      	ldr	r1, [r4, r6]
 8006370:	4339      	orrs	r1, r7
 8006372:	51a1      	str	r1, [r4, r6]
    if (huart->ErrorCode != HAL_UART_ERROR_NONE)
 8006374:	2190      	movs	r1, #144	@ 0x90
 8006376:	5861      	ldr	r1, [r4, r1]
 8006378:	2900      	cmp	r1, #0
 800637a:	d0a2      	beq.n	80062c2 <HAL_UART_IRQHandler+0x86>
      if (((isrflags & USART_ISR_RXNE_RXFNE) != 0U)
 800637c:	2120      	movs	r1, #32
 800637e:	4219      	tst	r1, r3
 8006380:	d005      	beq.n	800638e <HAL_UART_IRQHandler+0x152>
              || ((cr3its & USART_CR3_RXFTIE) != 0U)))
 8006382:	2380      	movs	r3, #128	@ 0x80
 8006384:	055b      	lsls	r3, r3, #21
          && (((cr1its & USART_CR1_RXNEIE_RXFNEIE) != 0U)
 8006386:	4001      	ands	r1, r0
              || ((cr3its & USART_CR3_RXFTIE) != 0U)))
 8006388:	402b      	ands	r3, r5
 800638a:	4319      	orrs	r1, r3
 800638c:	d15e      	bne.n	800644c <HAL_UART_IRQHandler+0x210>
      errorcode = huart->ErrorCode;
 800638e:	2690      	movs	r6, #144	@ 0x90
      if ((HAL_IS_BIT_SET(huart->Instance->CR3, USART_CR3_DMAR)) ||
 8006390:	2540      	movs	r5, #64	@ 0x40
      errorcode = huart->ErrorCode;
 8006392:	59a1      	ldr	r1, [r4, r6]
      if ((HAL_IS_BIT_SET(huart->Instance->CR3, USART_CR3_DMAR)) ||
 8006394:	6893      	ldr	r3, [r2, #8]
 8006396:	401d      	ands	r5, r3
          ((errorcode & (HAL_UART_ERROR_RTO | HAL_UART_ERROR_ORE)) != 0U))
 8006398:	2328      	movs	r3, #40	@ 0x28
 800639a:	400b      	ands	r3, r1
      if ((HAL_IS_BIT_SET(huart->Instance->CR3, USART_CR3_DMAR)) ||
 800639c:	431d      	orrs	r5, r3
 800639e:	d15c      	bne.n	800645a <HAL_UART_IRQHandler+0x21e>
        huart->ErrorCallback(huart);
 80063a0:	23a4      	movs	r3, #164	@ 0xa4
 80063a2:	0020      	movs	r0, r4
 80063a4:	58e3      	ldr	r3, [r4, r3]
 80063a6:	4798      	blx	r3
        huart->ErrorCode = HAL_UART_ERROR_NONE;
 80063a8:	51a5      	str	r5, [r4, r6]
 80063aa:	e78a      	b.n	80062c2 <HAL_UART_IRQHandler+0x86>
      && ((isrflags & USART_ISR_IDLE) != 0U)
 80063ac:	2710      	movs	r7, #16
 80063ae:	421f      	tst	r7, r3
 80063b0:	d100      	bne.n	80063b4 <HAL_UART_IRQHandler+0x178>
 80063b2:	e75f      	b.n	8006274 <HAL_UART_IRQHandler+0x38>
      && ((cr1its & USART_ISR_IDLE) != 0U))
 80063b4:	4207      	tst	r7, r0
 80063b6:	d100      	bne.n	80063ba <HAL_UART_IRQHandler+0x17e>
 80063b8:	e75c      	b.n	8006274 <HAL_UART_IRQHandler+0x38>
    if (HAL_IS_BIT_SET(huart->Instance->CR3, USART_CR3_DMAR))
 80063ba:	2340      	movs	r3, #64	@ 0x40
 80063bc:	0018      	movs	r0, r3
    __HAL_UART_CLEAR_FLAG(huart, UART_CLEAR_IDLEF);
 80063be:	6217      	str	r7, [r2, #32]
    if (HAL_IS_BIT_SET(huart->Instance->CR3, USART_CR3_DMAR))
 80063c0:	6892      	ldr	r2, [r2, #8]
 80063c2:	4010      	ands	r0, r2
 80063c4:	4213      	tst	r3, r2
 80063c6:	d100      	bne.n	80063ca <HAL_UART_IRQHandler+0x18e>
 80063c8:	e0a8      	b.n	800651c <HAL_UART_IRQHandler+0x2e0>
      uint16_t nb_remaining_rx_data = (uint16_t) __HAL_DMA_GET_COUNTER(huart->hdmarx);
 80063ca:	2280      	movs	r2, #128	@ 0x80
 80063cc:	4694      	mov	ip, r2
 80063ce:	58a2      	ldr	r2, [r4, r2]
 80063d0:	6810      	ldr	r0, [r2, #0]
 80063d2:	6842      	ldr	r2, [r0, #4]
 80063d4:	b292      	uxth	r2, r2
      if ((nb_remaining_rx_data > 0U)
 80063d6:	2a00      	cmp	r2, #0
 80063d8:	d100      	bne.n	80063dc <HAL_UART_IRQHandler+0x1a0>
 80063da:	e772      	b.n	80062c2 <HAL_UART_IRQHandler+0x86>
          && (nb_remaining_rx_data < huart->RxXferSize))
 80063dc:	215c      	movs	r1, #92	@ 0x5c
 80063de:	468b      	mov	fp, r1
 80063e0:	5a61      	ldrh	r1, [r4, r1]
 80063e2:	4291      	cmp	r1, r2
 80063e4:	d800      	bhi.n	80063e8 <HAL_UART_IRQHandler+0x1ac>
 80063e6:	e76c      	b.n	80062c2 <HAL_UART_IRQHandler+0x86>
        huart->RxXferCount = nb_remaining_rx_data;
 80063e8:	255e      	movs	r5, #94	@ 0x5e
 80063ea:	5362      	strh	r2, [r4, r5]
        if (HAL_IS_BIT_CLR(huart->hdmarx->Instance->CCR, DMA_CCR_CIRC))
 80063ec:	2220      	movs	r2, #32
 80063ee:	0015      	movs	r5, r2
 80063f0:	6800      	ldr	r0, [r0, #0]
 80063f2:	4005      	ands	r5, r0
 80063f4:	46a8      	mov	r8, r5
 80063f6:	4202      	tst	r2, r0
 80063f8:	d100      	bne.n	80063fc <HAL_UART_IRQHandler+0x1c0>
 80063fa:	e0cb      	b.n	8006594 <HAL_UART_IRQHandler+0x358>
        huart->RxEventType = HAL_UART_RXEVENT_IDLE;
 80063fc:	2302      	movs	r3, #2
 80063fe:	6723      	str	r3, [r4, #112]	@ 0x70
        huart->RxEventCallback(huart, (huart->RxXferSize - huart->RxXferCount));
 8006400:	335c      	adds	r3, #92	@ 0x5c
 8006402:	5ae3      	ldrh	r3, [r4, r3]
 8006404:	0020      	movs	r0, r4
 8006406:	1ac9      	subs	r1, r1, r3
 8006408:	23c0      	movs	r3, #192	@ 0xc0
 800640a:	b289      	uxth	r1, r1
 800640c:	58e3      	ldr	r3, [r4, r3]
 800640e:	4798      	blx	r3
 8006410:	e757      	b.n	80062c2 <HAL_UART_IRQHandler+0x86>
    if (((isrflags & USART_ISR_NE) != 0U) && ((cr3its & USART_CR3_EIE) != 0U))
 8006412:	4661      	mov	r1, ip
 8006414:	2900      	cmp	r1, #0
 8006416:	d095      	beq.n	8006344 <HAL_UART_IRQHandler+0x108>
 8006418:	07e9      	lsls	r1, r5, #31
 800641a:	d593      	bpl.n	8006344 <HAL_UART_IRQHandler+0x108>
      __HAL_UART_CLEAR_FLAG(huart, UART_CLEAR_NEF);
 800641c:	2104      	movs	r1, #4
 800641e:	6211      	str	r1, [r2, #32]
      huart->ErrorCode |= HAL_UART_ERROR_NE;
 8006420:	318c      	adds	r1, #140	@ 0x8c
 8006422:	4689      	mov	r9, r1
 8006424:	5861      	ldr	r1, [r4, r1]
 8006426:	4688      	mov	r8, r1
 8006428:	2102      	movs	r1, #2
 800642a:	4647      	mov	r7, r8
 800642c:	430f      	orrs	r7, r1
 800642e:	0039      	movs	r1, r7
 8006430:	464f      	mov	r7, r9
 8006432:	51e1      	str	r1, [r4, r7]
 8006434:	e786      	b.n	8006344 <HAL_UART_IRQHandler+0x108>
      if (huart->RxISR != NULL)
 8006436:	6f63      	ldr	r3, [r4, #116]	@ 0x74
 8006438:	2b00      	cmp	r3, #0
 800643a:	d100      	bne.n	800643e <HAL_UART_IRQHandler+0x202>
 800643c:	e741      	b.n	80062c2 <HAL_UART_IRQHandler+0x86>
    huart->RxFifoFullCallback(huart);
 800643e:	0020      	movs	r0, r4
 8006440:	4798      	blx	r3
    return;
 8006442:	e73e      	b.n	80062c2 <HAL_UART_IRQHandler+0x86>
    if (huart->TxISR != NULL)
 8006444:	6fa3      	ldr	r3, [r4, #120]	@ 0x78
 8006446:	2b00      	cmp	r3, #0
 8006448:	d1f9      	bne.n	800643e <HAL_UART_IRQHandler+0x202>
 800644a:	e73a      	b.n	80062c2 <HAL_UART_IRQHandler+0x86>
        if (huart->RxISR != NULL)
 800644c:	6f63      	ldr	r3, [r4, #116]	@ 0x74
 800644e:	2b00      	cmp	r3, #0
 8006450:	d09d      	beq.n	800638e <HAL_UART_IRQHandler+0x152>
          huart->RxISR(huart);
 8006452:	0020      	movs	r0, r4
 8006454:	4798      	blx	r3
      if ((HAL_IS_BIT_SET(huart->Instance->CR3, USART_CR3_DMAR)) ||
 8006456:	6822      	ldr	r2, [r4, #0]
 8006458:	e799      	b.n	800638e <HAL_UART_IRQHandler+0x152>
  __ASM volatile ("MRS %0, primask" : "=r" (result) :: "memory");
 800645a:	f3ef 8010 	mrs	r0, PRIMASK
  __ASM volatile ("MSR primask, %0" : : "r" (priMask) : "memory");
 800645e:	2201      	movs	r2, #1
 8006460:	f382 8810 	msr	PRIMASK, r2
  ATOMIC_CLEAR_BIT(huart->Instance->CR1, (USART_CR1_RXNEIE_RXFNEIE | USART_CR1_PEIE));
 8006464:	6821      	ldr	r1, [r4, #0]
 8006466:	4d2a      	ldr	r5, [pc, #168]	@ (8006510 <HAL_UART_IRQHandler+0x2d4>)
 8006468:	680b      	ldr	r3, [r1, #0]
 800646a:	402b      	ands	r3, r5
 800646c:	600b      	str	r3, [r1, #0]
 800646e:	f380 8810 	msr	PRIMASK, r0
  __ASM volatile ("MRS %0, primask" : "=r" (result) :: "memory");
 8006472:	f3ef 8110 	mrs	r1, PRIMASK
  __ASM volatile ("MSR primask, %0" : : "r" (priMask) : "memory");
 8006476:	f382 8810 	msr	PRIMASK, r2
  ATOMIC_CLEAR_BIT(huart->Instance->CR3, (USART_CR3_EIE | USART_CR3_RXFTIE));
 800647a:	6822      	ldr	r2, [r4, #0]
 800647c:	4825      	ldr	r0, [pc, #148]	@ (8006514 <HAL_UART_IRQHandler+0x2d8>)
 800647e:	6893      	ldr	r3, [r2, #8]
 8006480:	4003      	ands	r3, r0
 8006482:	6093      	str	r3, [r2, #8]
 8006484:	f381 8810 	msr	PRIMASK, r1
  if (huart->ReceptionType == HAL_UART_RECEPTION_TOIDLE)
 8006488:	6ee3      	ldr	r3, [r4, #108]	@ 0x6c
 800648a:	2b01      	cmp	r3, #1
 800648c:	d10a      	bne.n	80064a4 <HAL_UART_IRQHandler+0x268>
  __ASM volatile ("MRS %0, primask" : "=r" (result) :: "memory");
 800648e:	f3ef 8110 	mrs	r1, PRIMASK
  __ASM volatile ("MSR primask, %0" : : "r" (priMask) : "memory");
 8006492:	f383 8810 	msr	PRIMASK, r3
    ATOMIC_CLEAR_BIT(huart->Instance->CR1, USART_CR1_IDLEIE);
 8006496:	2010      	movs	r0, #16
 8006498:	6822      	ldr	r2, [r4, #0]
 800649a:	6813      	ldr	r3, [r2, #0]
 800649c:	4383      	bics	r3, r0
 800649e:	6013      	str	r3, [r2, #0]
 80064a0:	f381 8810 	msr	PRIMASK, r1
  huart->RxState = HAL_UART_STATE_READY;
 80064a4:	238c      	movs	r3, #140	@ 0x8c
 80064a6:	2220      	movs	r2, #32
 80064a8:	50e2      	str	r2, [r4, r3]
  huart->ReceptionType = HAL_UART_RECEPTION_STANDARD;
 80064aa:	2300      	movs	r3, #0
 80064ac:	66e3      	str	r3, [r4, #108]	@ 0x6c
  huart->RxISR = NULL;
 80064ae:	6763      	str	r3, [r4, #116]	@ 0x74
        if (HAL_IS_BIT_SET(huart->Instance->CR3, USART_CR3_DMAR))
 80064b0:	6823      	ldr	r3, [r4, #0]
 80064b2:	689a      	ldr	r2, [r3, #8]
 80064b4:	2340      	movs	r3, #64	@ 0x40
 80064b6:	4213      	tst	r3, r2
 80064b8:	d019      	beq.n	80064ee <HAL_UART_IRQHandler+0x2b2>
  __ASM volatile ("MRS %0, primask" : "=r" (result) :: "memory");
 80064ba:	f3ef 8010 	mrs	r0, PRIMASK
  __ASM volatile ("MSR primask, %0" : : "r" (priMask) : "memory");
 80064be:	2201      	movs	r2, #1
 80064c0:	f382 8810 	msr	PRIMASK, r2
          ATOMIC_CLEAR_BIT(huart->Instance->CR3, USART_CR3_DMAR);
 80064c4:	6821      	ldr	r1, [r4, #0]
 80064c6:	688a      	ldr	r2, [r1, #8]
 80064c8:	439a      	bics	r2, r3
 80064ca:	608a      	str	r2, [r1, #8]
 80064cc:	f380 8810 	msr	PRIMASK, r0
          if (huart->hdmarx != NULL)
 80064d0:	2580      	movs	r5, #128	@ 0x80
 80064d2:	5960      	ldr	r0, [r4, r5]
 80064d4:	2800      	cmp	r0, #0
 80064d6:	d00a      	beq.n	80064ee <HAL_UART_IRQHandler+0x2b2>
            huart->hdmarx->XferAbortCallback = UART_DMAAbortOnError;
 80064d8:	4b0f      	ldr	r3, [pc, #60]	@ (8006518 <HAL_UART_IRQHandler+0x2dc>)
 80064da:	6383      	str	r3, [r0, #56]	@ 0x38
            if (HAL_DMA_Abort_IT(huart->hdmarx) != HAL_OK)
 80064dc:	f7fc ff94 	bl	8003408 <HAL_DMA_Abort_IT>
 80064e0:	2800      	cmp	r0, #0
 80064e2:	d100      	bne.n	80064e6 <HAL_UART_IRQHandler+0x2aa>
 80064e4:	e6ed      	b.n	80062c2 <HAL_UART_IRQHandler+0x86>
              huart->hdmarx->XferAbortCallback(huart->hdmarx);
 80064e6:	5960      	ldr	r0, [r4, r5]
 80064e8:	6b83      	ldr	r3, [r0, #56]	@ 0x38
 80064ea:	4798      	blx	r3
 80064ec:	e6e9      	b.n	80062c2 <HAL_UART_IRQHandler+0x86>
          huart->ErrorCallback(huart);
 80064ee:	23a4      	movs	r3, #164	@ 0xa4
 80064f0:	0020      	movs	r0, r4
 80064f2:	58e3      	ldr	r3, [r4, r3]
 80064f4:	4798      	blx	r3
 80064f6:	e6e4      	b.n	80062c2 <HAL_UART_IRQHandler+0x86>
    huart->TxFifoEmptyCallback(huart);
 80064f8:	23bc      	movs	r3, #188	@ 0xbc
 80064fa:	0020      	movs	r0, r4
 80064fc:	58e3      	ldr	r3, [r4, r3]
 80064fe:	4798      	blx	r3
    return;
 8006500:	e6df      	b.n	80062c2 <HAL_UART_IRQHandler+0x86>
 8006502:	46c0      	nop			@ (mov r8, r8)
 8006504:	0000080f 	.word	0x0000080f
 8006508:	10000001 	.word	0x10000001
 800650c:	04000120 	.word	0x04000120
 8006510:	fffffedf 	.word	0xfffffedf
 8006514:	effffffe 	.word	0xeffffffe
 8006518:	08005f85 	.word	0x08005f85
      uint16_t nb_rx_data = huart->RxXferSize - huart->RxXferCount;
 800651c:	235c      	movs	r3, #92	@ 0x5c
 800651e:	225e      	movs	r2, #94	@ 0x5e
 8006520:	5ae1      	ldrh	r1, [r4, r3]
 8006522:	5aa3      	ldrh	r3, [r4, r2]
      if ((huart->RxXferCount > 0U)
 8006524:	5aa2      	ldrh	r2, [r4, r2]
      uint16_t nb_rx_data = huart->RxXferSize - huart->RxXferCount;
 8006526:	b29b      	uxth	r3, r3
      if ((huart->RxXferCount > 0U)
 8006528:	2a00      	cmp	r2, #0
 800652a:	d100      	bne.n	800652e <HAL_UART_IRQHandler+0x2f2>
 800652c:	e6c9      	b.n	80062c2 <HAL_UART_IRQHandler+0x86>
      uint16_t nb_rx_data = huart->RxXferSize - huart->RxXferCount;
 800652e:	1ac9      	subs	r1, r1, r3
 8006530:	b28b      	uxth	r3, r1
 8006532:	4698      	mov	r8, r3
          && (nb_rx_data > 0U))
 8006534:	2b00      	cmp	r3, #0
 8006536:	d100      	bne.n	800653a <HAL_UART_IRQHandler+0x2fe>
 8006538:	e6c3      	b.n	80062c2 <HAL_UART_IRQHandler+0x86>
  __ASM volatile ("MRS %0, primask" : "=r" (result) :: "memory");
 800653a:	f3ef 8510 	mrs	r5, PRIMASK
  __ASM volatile ("MSR primask, %0" : : "r" (priMask) : "memory");
 800653e:	f386 8810 	msr	PRIMASK, r6
        ATOMIC_CLEAR_BIT(huart->Instance->CR1, (USART_CR1_RXNEIE_RXFNEIE | USART_CR1_PEIE));
 8006542:	6822      	ldr	r2, [r4, #0]
 8006544:	492d      	ldr	r1, [pc, #180]	@ (80065fc <HAL_UART_IRQHandler+0x3c0>)
 8006546:	6813      	ldr	r3, [r2, #0]
 8006548:	400b      	ands	r3, r1
 800654a:	6013      	str	r3, [r2, #0]
 800654c:	f385 8810 	msr	PRIMASK, r5
  __ASM volatile ("MRS %0, primask" : "=r" (result) :: "memory");
 8006550:	f3ef 8510 	mrs	r5, PRIMASK
  __ASM volatile ("MSR primask, %0" : : "r" (priMask) : "memory");
 8006554:	f386 8810 	msr	PRIMASK, r6
        ATOMIC_CLEAR_BIT(huart->Instance->CR3, (USART_CR3_EIE | USART_CR3_RXFTIE));
 8006558:	6822      	ldr	r2, [r4, #0]
 800655a:	4929      	ldr	r1, [pc, #164]	@ (8006600 <HAL_UART_IRQHandler+0x3c4>)
 800655c:	6893      	ldr	r3, [r2, #8]
 800655e:	400b      	ands	r3, r1
 8006560:	6093      	str	r3, [r2, #8]
 8006562:	f385 8810 	msr	PRIMASK, r5
        huart->RxState = HAL_UART_STATE_READY;
 8006566:	238c      	movs	r3, #140	@ 0x8c
 8006568:	2220      	movs	r2, #32
 800656a:	50e2      	str	r2, [r4, r3]
        huart->ReceptionType = HAL_UART_RECEPTION_STANDARD;
 800656c:	66e0      	str	r0, [r4, #108]	@ 0x6c
        huart->RxISR = NULL;
 800656e:	6760      	str	r0, [r4, #116]	@ 0x74
  __ASM volatile ("MRS %0, primask" : "=r" (result) :: "memory");
 8006570:	f3ef 8010 	mrs	r0, PRIMASK
  __ASM volatile ("MSR primask, %0" : : "r" (priMask) : "memory");
 8006574:	f386 8810 	msr	PRIMASK, r6
        ATOMIC_CLEAR_BIT(huart->Instance->CR1, USART_CR1_IDLEIE);
 8006578:	6822      	ldr	r2, [r4, #0]
 800657a:	6813      	ldr	r3, [r2, #0]
 800657c:	43bb      	bics	r3, r7
 800657e:	6013      	str	r3, [r2, #0]
 8006580:	f380 8810 	msr	PRIMASK, r0
        huart->RxEventType = HAL_UART_RXEVENT_IDLE;
 8006584:	2302      	movs	r3, #2
 8006586:	6723      	str	r3, [r4, #112]	@ 0x70
        huart->RxEventCallback(huart, nb_rx_data);
 8006588:	33be      	adds	r3, #190	@ 0xbe
 800658a:	4641      	mov	r1, r8
 800658c:	0020      	movs	r0, r4
 800658e:	58e3      	ldr	r3, [r4, r3]
 8006590:	4798      	blx	r3
 8006592:	e696      	b.n	80062c2 <HAL_UART_IRQHandler+0x86>
  __ASM volatile ("MRS %0, primask" : "=r" (result) :: "memory");
 8006594:	f3ef 8910 	mrs	r9, PRIMASK
  __ASM volatile ("MSR primask, %0" : : "r" (priMask) : "memory");
 8006598:	f386 8810 	msr	PRIMASK, r6
          ATOMIC_CLEAR_BIT(huart->Instance->CR1, USART_CR1_PEIE);
 800659c:	6820      	ldr	r0, [r4, #0]
 800659e:	4d19      	ldr	r5, [pc, #100]	@ (8006604 <HAL_UART_IRQHandler+0x3c8>)
 80065a0:	6801      	ldr	r1, [r0, #0]
 80065a2:	4029      	ands	r1, r5
 80065a4:	6001      	str	r1, [r0, #0]
 80065a6:	f389 8810 	msr	PRIMASK, r9
  __ASM volatile ("MRS %0, primask" : "=r" (result) :: "memory");
 80065aa:	f3ef 8910 	mrs	r9, PRIMASK
  __ASM volatile ("MSR primask, %0" : : "r" (priMask) : "memory");
 80065ae:	f386 8810 	msr	PRIMASK, r6
          ATOMIC_CLEAR_BIT(huart->Instance->CR3, USART_CR3_EIE);
 80065b2:	6820      	ldr	r0, [r4, #0]
 80065b4:	6881      	ldr	r1, [r0, #8]
 80065b6:	43b1      	bics	r1, r6
 80065b8:	6081      	str	r1, [r0, #8]
 80065ba:	f389 8810 	msr	PRIMASK, r9
  __ASM volatile ("MRS %0, primask" : "=r" (result) :: "memory");
 80065be:	f3ef 8910 	mrs	r9, PRIMASK
  __ASM volatile ("MSR primask, %0" : : "r" (priMask) : "memory");
 80065c2:	f386 8810 	msr	PRIMASK, r6
          ATOMIC_CLEAR_BIT(huart->Instance->CR3, USART_CR3_DMAR);
 80065c6:	6820      	ldr	r0, [r4, #0]
 80065c8:	6881      	ldr	r1, [r0, #8]
 80065ca:	4399      	bics	r1, r3
 80065cc:	6081      	str	r1, [r0, #8]
 80065ce:	f389 8810 	msr	PRIMASK, r9
          huart->RxState = HAL_UART_STATE_READY;
 80065d2:	334c      	adds	r3, #76	@ 0x4c
 80065d4:	50e2      	str	r2, [r4, r3]
          huart->ReceptionType = HAL_UART_RECEPTION_STANDARD;
 80065d6:	4643      	mov	r3, r8
 80065d8:	66e3      	str	r3, [r4, #108]	@ 0x6c
  __ASM volatile ("MRS %0, primask" : "=r" (result) :: "memory");
 80065da:	f3ef 8110 	mrs	r1, PRIMASK
  __ASM volatile ("MSR primask, %0" : : "r" (priMask) : "memory");
 80065de:	f386 8810 	msr	PRIMASK, r6
          ATOMIC_CLEAR_BIT(huart->Instance->CR1, USART_CR1_IDLEIE);
 80065e2:	6822      	ldr	r2, [r4, #0]
 80065e4:	6813      	ldr	r3, [r2, #0]
 80065e6:	43bb      	bics	r3, r7
 80065e8:	6013      	str	r3, [r2, #0]
 80065ea:	f381 8810 	msr	PRIMASK, r1
          (void)HAL_DMA_Abort(huart->hdmarx);
 80065ee:	4663      	mov	r3, ip
 80065f0:	58e0      	ldr	r0, [r4, r3]
 80065f2:	f7fc fecd 	bl	8003390 <HAL_DMA_Abort>
        huart->RxEventCallback(huart, (huart->RxXferSize - huart->RxXferCount));
 80065f6:	465b      	mov	r3, fp
 80065f8:	5ae1      	ldrh	r1, [r4, r3]
 80065fa:	e6ff      	b.n	80063fc <HAL_UART_IRQHandler+0x1c0>
 80065fc:	fffffedf 	.word	0xfffffedf
 8006600:	effffffe 	.word	0xeffffffe
 8006604:	fffffeff 	.word	0xfffffeff

08006608 <UART_AdvFeatureConfig>:
  if (HAL_IS_BIT_SET(huart->AdvancedInit.AdvFeatureInit, UART_ADVFEATURE_SWAP_INIT))
 8006608:	6a83      	ldr	r3, [r0, #40]	@ 0x28
{
 800660a:	b530      	push	{r4, r5, lr}
  if (HAL_IS_BIT_SET(huart->AdvancedInit.AdvFeatureInit, UART_ADVFEATURE_SWAP_INIT))
 800660c:	071a      	lsls	r2, r3, #28
 800660e:	d506      	bpl.n	800661e <UART_AdvFeatureConfig+0x16>
    MODIFY_REG(huart->Instance->CR2, USART_CR2_SWAP, huart->AdvancedInit.Swap);
 8006610:	6801      	ldr	r1, [r0, #0]
 8006612:	4c28      	ldr	r4, [pc, #160]	@ (80066b4 <UART_AdvFeatureConfig+0xac>)
 8006614:	684a      	ldr	r2, [r1, #4]
 8006616:	4022      	ands	r2, r4
 8006618:	6b84      	ldr	r4, [r0, #56]	@ 0x38
 800661a:	4322      	orrs	r2, r4
 800661c:	604a      	str	r2, [r1, #4]
  if (HAL_IS_BIT_SET(huart->AdvancedInit.AdvFeatureInit, UART_ADVFEATURE_TXINVERT_INIT))
 800661e:	07da      	lsls	r2, r3, #31
 8006620:	d506      	bpl.n	8006630 <UART_AdvFeatureConfig+0x28>
    MODIFY_REG(huart->Instance->CR2, USART_CR2_TXINV, huart->AdvancedInit.TxPinLevelInvert);
 8006622:	6801      	ldr	r1, [r0, #0]
 8006624:	4c24      	ldr	r4, [pc, #144]	@ (80066b8 <UART_AdvFeatureConfig+0xb0>)
 8006626:	684a      	ldr	r2, [r1, #4]
 8006628:	4022      	ands	r2, r4
 800662a:	6ac4      	ldr	r4, [r0, #44]	@ 0x2c
 800662c:	4322      	orrs	r2, r4
 800662e:	604a      	str	r2, [r1, #4]
  if (HAL_IS_BIT_SET(huart->AdvancedInit.AdvFeatureInit, UART_ADVFEATURE_RXINVERT_INIT))
 8006630:	079a      	lsls	r2, r3, #30
 8006632:	d506      	bpl.n	8006642 <UART_AdvFeatureConfig+0x3a>
    MODIFY_REG(huart->Instance->CR2, USART_CR2_RXINV, huart->AdvancedInit.RxPinLevelInvert);
 8006634:	6801      	ldr	r1, [r0, #0]
 8006636:	4c21      	ldr	r4, [pc, #132]	@ (80066bc <UART_AdvFeatureConfig+0xb4>)
 8006638:	684a      	ldr	r2, [r1, #4]
 800663a:	4022      	ands	r2, r4
 800663c:	6b04      	ldr	r4, [r0, #48]	@ 0x30
 800663e:	4322      	orrs	r2, r4
 8006640:	604a      	str	r2, [r1, #4]
  if (HAL_IS_BIT_SET(huart->AdvancedInit.AdvFeatureInit, UART_ADVFEATURE_DATAINVERT_INIT))
 8006642:	075a      	lsls	r2, r3, #29
 8006644:	d506      	bpl.n	8006654 <UART_AdvFeatureConfig+0x4c>
    MODIFY_REG(huart->Instance->CR2, USART_CR2_DATAINV, huart->AdvancedInit.DataInvert);
 8006646:	6801      	ldr	r1, [r0, #0]
 8006648:	4c1d      	ldr	r4, [pc, #116]	@ (80066c0 <UART_AdvFeatureConfig+0xb8>)
 800664a:	684a      	ldr	r2, [r1, #4]
 800664c:	4022      	ands	r2, r4
 800664e:	6b44      	ldr	r4, [r0, #52]	@ 0x34
 8006650:	4322      	orrs	r2, r4
 8006652:	604a      	str	r2, [r1, #4]
  if (HAL_IS_BIT_SET(huart->AdvancedInit.AdvFeatureInit, UART_ADVFEATURE_RXOVERRUNDISABLE_INIT))
 8006654:	06da      	lsls	r2, r3, #27
 8006656:	d506      	bpl.n	8006666 <UART_AdvFeatureConfig+0x5e>
    MODIFY_REG(huart->Instance->CR3, USART_CR3_OVRDIS, huart->AdvancedInit.OverrunDisable);
 8006658:	6801      	ldr	r1, [r0, #0]
 800665a:	4c1a      	ldr	r4, [pc, #104]	@ (80066c4 <UART_AdvFeatureConfig+0xbc>)
 800665c:	688a      	ldr	r2, [r1, #8]
 800665e:	4022      	ands	r2, r4
 8006660:	6bc4      	ldr	r4, [r0, #60]	@ 0x3c
 8006662:	4322      	orrs	r2, r4
 8006664:	608a      	str	r2, [r1, #8]
  if (HAL_IS_BIT_SET(huart->AdvancedInit.AdvFeatureInit, UART_ADVFEATURE_DMADISABLEONERROR_INIT))
 8006666:	069a      	lsls	r2, r3, #26
 8006668:	d506      	bpl.n	8006678 <UART_AdvFeatureConfig+0x70>
    MODIFY_REG(huart->Instance->CR3, USART_CR3_DDRE, huart->AdvancedInit.DMADisableonRxError);
 800666a:	6801      	ldr	r1, [r0, #0]
 800666c:	4c16      	ldr	r4, [pc, #88]	@ (80066c8 <UART_AdvFeatureConfig+0xc0>)
 800666e:	688a      	ldr	r2, [r1, #8]
 8006670:	4022      	ands	r2, r4
 8006672:	6c04      	ldr	r4, [r0, #64]	@ 0x40
 8006674:	4322      	orrs	r2, r4
 8006676:	608a      	str	r2, [r1, #8]
  if (HAL_IS_BIT_SET(huart->AdvancedInit.AdvFeatureInit, UART_ADVFEATURE_AUTOBAUDRATE_INIT))
 8006678:	065a      	lsls	r2, r3, #25
 800667a:	d50a      	bpl.n	8006692 <UART_AdvFeatureConfig+0x8a>
    MODIFY_REG(huart->Instance->CR2, USART_CR2_ABREN, huart->AdvancedInit.AutoBaudRateEnable);
 800667c:	6801      	ldr	r1, [r0, #0]
 800667e:	4d13      	ldr	r5, [pc, #76]	@ (80066cc <UART_AdvFeatureConfig+0xc4>)
 8006680:	684a      	ldr	r2, [r1, #4]
 8006682:	6c44      	ldr	r4, [r0, #68]	@ 0x44
 8006684:	402a      	ands	r2, r5
 8006686:	4322      	orrs	r2, r4
 8006688:	604a      	str	r2, [r1, #4]
    if (huart->AdvancedInit.AutoBaudRateEnable == UART_ADVFEATURE_AUTOBAUDRATE_ENABLE)
 800668a:	2280      	movs	r2, #128	@ 0x80
 800668c:	0352      	lsls	r2, r2, #13
 800668e:	4294      	cmp	r4, r2
 8006690:	d009      	beq.n	80066a6 <UART_AdvFeatureConfig+0x9e>
  if (HAL_IS_BIT_SET(huart->AdvancedInit.AdvFeatureInit, UART_ADVFEATURE_MSBFIRST_INIT))
 8006692:	061b      	lsls	r3, r3, #24
 8006694:	d506      	bpl.n	80066a4 <UART_AdvFeatureConfig+0x9c>
    MODIFY_REG(huart->Instance->CR2, USART_CR2_MSBFIRST, huart->AdvancedInit.MSBFirst);
 8006696:	6802      	ldr	r2, [r0, #0]
 8006698:	490d      	ldr	r1, [pc, #52]	@ (80066d0 <UART_AdvFeatureConfig+0xc8>)
 800669a:	6853      	ldr	r3, [r2, #4]
 800669c:	400b      	ands	r3, r1
 800669e:	6cc1      	ldr	r1, [r0, #76]	@ 0x4c
 80066a0:	430b      	orrs	r3, r1
 80066a2:	6053      	str	r3, [r2, #4]
}
 80066a4:	bd30      	pop	{r4, r5, pc}
      MODIFY_REG(huart->Instance->CR2, USART_CR2_ABRMODE, huart->AdvancedInit.AutoBaudRateMode);
 80066a6:	684a      	ldr	r2, [r1, #4]
 80066a8:	4c0a      	ldr	r4, [pc, #40]	@ (80066d4 <UART_AdvFeatureConfig+0xcc>)
 80066aa:	4022      	ands	r2, r4
 80066ac:	6c84      	ldr	r4, [r0, #72]	@ 0x48
 80066ae:	4322      	orrs	r2, r4
 80066b0:	604a      	str	r2, [r1, #4]
 80066b2:	e7ee      	b.n	8006692 <UART_AdvFeatureConfig+0x8a>
 80066b4:	ffff7fff 	.word	0xffff7fff
 80066b8:	fffdffff 	.word	0xfffdffff
 80066bc:	fffeffff 	.word	0xfffeffff
 80066c0:	fffbffff 	.word	0xfffbffff
 80066c4:	ffffefff 	.word	0xffffefff
 80066c8:	ffffdfff 	.word	0xffffdfff
 80066cc:	ffefffff 	.word	0xffefffff
 80066d0:	fff7ffff 	.word	0xfff7ffff
 80066d4:	ff9fffff 	.word	0xff9fffff

080066d8 <UART_CheckIdleState>:
{
 80066d8:	b5f0      	push	{r4, r5, r6, r7, lr}
  huart->ErrorCode = HAL_UART_ERROR_NONE;
 80066da:	2390      	movs	r3, #144	@ 0x90
 80066dc:	2200      	movs	r2, #0
{
 80066de:	46c6      	mov	lr, r8
 80066e0:	0004      	movs	r4, r0
 80066e2:	b500      	push	{lr}
  huart->ErrorCode = HAL_UART_ERROR_NONE;
 80066e4:	50c2      	str	r2, [r0, r3]
  tickstart = HAL_GetTick();
 80066e6:	f7fb ff9f 	bl	8002628 <HAL_GetTick>
  if ((huart->Instance->CR1 & USART_CR1_TE) == USART_CR1_TE)
 80066ea:	6823      	ldr	r3, [r4, #0]
  tickstart = HAL_GetTick();
 80066ec:	0005      	movs	r5, r0
  if ((huart->Instance->CR1 & USART_CR1_TE) == USART_CR1_TE)
 80066ee:	681a      	ldr	r2, [r3, #0]
 80066f0:	0712      	lsls	r2, r2, #28
 80066f2:	d411      	bmi.n	8006718 <UART_CheckIdleState+0x40>
  if ((huart->Instance->CR1 & USART_CR1_RE) == USART_CR1_RE)
 80066f4:	681a      	ldr	r2, [r3, #0]
 80066f6:	0752      	lsls	r2, r2, #29
 80066f8:	d43e      	bmi.n	8006778 <UART_CheckIdleState+0xa0>
  huart->gState = HAL_UART_STATE_READY;
 80066fa:	2320      	movs	r3, #32
 80066fc:	2288      	movs	r2, #136	@ 0x88
 80066fe:	50a3      	str	r3, [r4, r2]
  huart->RxState = HAL_UART_STATE_READY;
 8006700:	3204      	adds	r2, #4
 8006702:	50a3      	str	r3, [r4, r2]
  huart->ReceptionType = HAL_UART_RECEPTION_STANDARD;
 8006704:	2300      	movs	r3, #0
  return HAL_OK;
 8006706:	2000      	movs	r0, #0
  huart->ReceptionType = HAL_UART_RECEPTION_STANDARD;
 8006708:	66e3      	str	r3, [r4, #108]	@ 0x6c
  huart->RxEventType = HAL_UART_RXEVENT_TC;
 800670a:	6723      	str	r3, [r4, #112]	@ 0x70
      __HAL_UNLOCK(huart);
 800670c:	2384      	movs	r3, #132	@ 0x84
 800670e:	2200      	movs	r2, #0
 8006710:	54e2      	strb	r2, [r4, r3]
}
 8006712:	bc80      	pop	{r7}
 8006714:	46b8      	mov	r8, r7
 8006716:	bdf0      	pop	{r4, r5, r6, r7, pc}
  while ((__HAL_UART_GET_FLAG(huart, Flag) ? SET : RESET) == Status)
 8006718:	69da      	ldr	r2, [r3, #28]
 800671a:	0292      	lsls	r2, r2, #10
 800671c:	d4ea      	bmi.n	80066f4 <UART_CheckIdleState+0x1c>
      if (((HAL_GetTick() - Tickstart) > Timeout) || (Timeout == 0U))
 800671e:	2680      	movs	r6, #128	@ 0x80
        if (__HAL_UART_GET_FLAG(huart, UART_FLAG_ORE) == SET)
 8006720:	2308      	movs	r3, #8
      if ((READ_BIT(huart->Instance->CR1, USART_CR1_RE) != 0U) && (Flag != UART_FLAG_TXE) && (Flag != UART_FLAG_TC))
 8006722:	2704      	movs	r7, #4
        if (__HAL_UART_GET_FLAG(huart, UART_FLAG_ORE) == SET)
 8006724:	4698      	mov	r8, r3
      if (((HAL_GetTick() - Tickstart) > Timeout) || (Timeout == 0U))
 8006726:	04b6      	lsls	r6, r6, #18
 8006728:	e010      	b.n	800674c <UART_CheckIdleState+0x74>
      if ((READ_BIT(huart->Instance->CR1, USART_CR1_RE) != 0U) && (Flag != UART_FLAG_TXE) && (Flag != UART_FLAG_TC))
 800672a:	6823      	ldr	r3, [r4, #0]
 800672c:	681a      	ldr	r2, [r3, #0]
 800672e:	4217      	tst	r7, r2
 8006730:	d009      	beq.n	8006746 <UART_CheckIdleState+0x6e>
        if (__HAL_UART_GET_FLAG(huart, UART_FLAG_ORE) == SET)
 8006732:	4641      	mov	r1, r8
 8006734:	69da      	ldr	r2, [r3, #28]
 8006736:	4211      	tst	r1, r2
 8006738:	d159      	bne.n	80067ee <UART_CheckIdleState+0x116>
        if (__HAL_UART_GET_FLAG(huart, UART_FLAG_RTOF) == SET)
 800673a:	2280      	movs	r2, #128	@ 0x80
 800673c:	69d9      	ldr	r1, [r3, #28]
 800673e:	0112      	lsls	r2, r2, #4
 8006740:	4211      	tst	r1, r2
 8006742:	d000      	beq.n	8006746 <UART_CheckIdleState+0x6e>
 8006744:	e085      	b.n	8006852 <UART_CheckIdleState+0x17a>
  while ((__HAL_UART_GET_FLAG(huart, Flag) ? SET : RESET) == Status)
 8006746:	69da      	ldr	r2, [r3, #28]
 8006748:	0292      	lsls	r2, r2, #10
 800674a:	d4d3      	bmi.n	80066f4 <UART_CheckIdleState+0x1c>
      if (((HAL_GetTick() - Tickstart) > Timeout) || (Timeout == 0U))
 800674c:	f7fb ff6c 	bl	8002628 <HAL_GetTick>
 8006750:	1b40      	subs	r0, r0, r5
 8006752:	42b0      	cmp	r0, r6
 8006754:	d3e9      	bcc.n	800672a <UART_CheckIdleState+0x52>
  __ASM volatile ("MRS %0, primask" : "=r" (result) :: "memory");
 8006756:	f3ef 8110 	mrs	r1, PRIMASK
  __ASM volatile ("MSR primask, %0" : : "r" (priMask) : "memory");
 800675a:	2301      	movs	r3, #1
 800675c:	f383 8810 	msr	PRIMASK, r3
      ATOMIC_CLEAR_BIT(huart->Instance->CR1, (USART_CR1_TXEIE_TXFNFIE));
 8006760:	2080      	movs	r0, #128	@ 0x80
 8006762:	6822      	ldr	r2, [r4, #0]
 8006764:	6813      	ldr	r3, [r2, #0]
 8006766:	4383      	bics	r3, r0
 8006768:	6013      	str	r3, [r2, #0]
 800676a:	f381 8810 	msr	PRIMASK, r1
      huart->gState = HAL_UART_STATE_READY;
 800676e:	2388      	movs	r3, #136	@ 0x88
 8006770:	2220      	movs	r2, #32
      return HAL_TIMEOUT;
 8006772:	2003      	movs	r0, #3
      huart->gState = HAL_UART_STATE_READY;
 8006774:	50e2      	str	r2, [r4, r3]
      return HAL_TIMEOUT;
 8006776:	e7c9      	b.n	800670c <UART_CheckIdleState+0x34>
  while ((__HAL_UART_GET_FLAG(huart, Flag) ? SET : RESET) == Status)
 8006778:	69db      	ldr	r3, [r3, #28]
 800677a:	025b      	lsls	r3, r3, #9
 800677c:	d4bd      	bmi.n	80066fa <UART_CheckIdleState+0x22>
      if (((HAL_GetTick() - Tickstart) > Timeout) || (Timeout == 0U))
 800677e:	2680      	movs	r6, #128	@ 0x80
        if (__HAL_UART_GET_FLAG(huart, UART_FLAG_ORE) == SET)
 8006780:	2308      	movs	r3, #8
      if ((READ_BIT(huart->Instance->CR1, USART_CR1_RE) != 0U) && (Flag != UART_FLAG_TXE) && (Flag != UART_FLAG_TC))
 8006782:	2704      	movs	r7, #4
        if (__HAL_UART_GET_FLAG(huart, UART_FLAG_ORE) == SET)
 8006784:	4698      	mov	r8, r3
      if (((HAL_GetTick() - Tickstart) > Timeout) || (Timeout == 0U))
 8006786:	04b6      	lsls	r6, r6, #18
 8006788:	e011      	b.n	80067ae <UART_CheckIdleState+0xd6>
      if ((READ_BIT(huart->Instance->CR1, USART_CR1_RE) != 0U) && (Flag != UART_FLAG_TXE) && (Flag != UART_FLAG_TC))
 800678a:	6823      	ldr	r3, [r4, #0]
 800678c:	681a      	ldr	r2, [r3, #0]
 800678e:	4217      	tst	r7, r2
 8006790:	d00a      	beq.n	80067a8 <UART_CheckIdleState+0xd0>
        if (__HAL_UART_GET_FLAG(huart, UART_FLAG_ORE) == SET)
 8006792:	4641      	mov	r1, r8
 8006794:	69da      	ldr	r2, [r3, #28]
 8006796:	4211      	tst	r1, r2
 8006798:	d000      	beq.n	800679c <UART_CheckIdleState+0xc4>
 800679a:	e08b      	b.n	80068b4 <UART_CheckIdleState+0x1dc>
        if (__HAL_UART_GET_FLAG(huart, UART_FLAG_RTOF) == SET)
 800679c:	2280      	movs	r2, #128	@ 0x80
 800679e:	69d9      	ldr	r1, [r3, #28]
 80067a0:	0112      	lsls	r2, r2, #4
 80067a2:	4211      	tst	r1, r2
 80067a4:	d000      	beq.n	80067a8 <UART_CheckIdleState+0xd0>
 80067a6:	e0b7      	b.n	8006918 <UART_CheckIdleState+0x240>
  while ((__HAL_UART_GET_FLAG(huart, Flag) ? SET : RESET) == Status)
 80067a8:	69db      	ldr	r3, [r3, #28]
 80067aa:	025b      	lsls	r3, r3, #9
 80067ac:	d4a5      	bmi.n	80066fa <UART_CheckIdleState+0x22>
      if (((HAL_GetTick() - Tickstart) > Timeout) || (Timeout == 0U))
 80067ae:	f7fb ff3b 	bl	8002628 <HAL_GetTick>
 80067b2:	1b40      	subs	r0, r0, r5
 80067b4:	42b0      	cmp	r0, r6
 80067b6:	d3e8      	bcc.n	800678a <UART_CheckIdleState+0xb2>
  __ASM volatile ("MRS %0, primask" : "=r" (result) :: "memory");
 80067b8:	f3ef 8010 	mrs	r0, PRIMASK
  __ASM volatile ("MSR primask, %0" : : "r" (priMask) : "memory");
 80067bc:	2201      	movs	r2, #1
 80067be:	f382 8810 	msr	PRIMASK, r2
      ATOMIC_CLEAR_BIT(huart->Instance->CR1, (USART_CR1_RXNEIE_RXFNEIE | USART_CR1_PEIE));
 80067c2:	6821      	ldr	r1, [r4, #0]
 80067c4:	4d6d      	ldr	r5, [pc, #436]	@ (800697c <UART_CheckIdleState+0x2a4>)
 80067c6:	680b      	ldr	r3, [r1, #0]
 80067c8:	402b      	ands	r3, r5
 80067ca:	600b      	str	r3, [r1, #0]
 80067cc:	f380 8810 	msr	PRIMASK, r0
  __ASM volatile ("MRS %0, primask" : "=r" (result) :: "memory");
 80067d0:	f3ef 8010 	mrs	r0, PRIMASK
  __ASM volatile ("MSR primask, %0" : : "r" (priMask) : "memory");
 80067d4:	f382 8810 	msr	PRIMASK, r2
      ATOMIC_CLEAR_BIT(huart->Instance->CR3, USART_CR3_EIE);
 80067d8:	6821      	ldr	r1, [r4, #0]
 80067da:	688b      	ldr	r3, [r1, #8]
 80067dc:	4393      	bics	r3, r2
 80067de:	608b      	str	r3, [r1, #8]
 80067e0:	f380 8810 	msr	PRIMASK, r0
      huart->RxState = HAL_UART_STATE_READY;
 80067e4:	238c      	movs	r3, #140	@ 0x8c
 80067e6:	321f      	adds	r2, #31
      return HAL_TIMEOUT;
 80067e8:	2003      	movs	r0, #3
      huart->RxState = HAL_UART_STATE_READY;
 80067ea:	50e2      	str	r2, [r4, r3]
      return HAL_TIMEOUT;
 80067ec:	e78e      	b.n	800670c <UART_CheckIdleState+0x34>
          __HAL_UART_CLEAR_FLAG(huart, UART_CLEAR_OREF);
 80067ee:	6219      	str	r1, [r3, #32]
  __ASM volatile ("MRS %0, primask" : "=r" (result) :: "memory");
 80067f0:	f3ef 8010 	mrs	r0, PRIMASK
  __ASM volatile ("MSR primask, %0" : : "r" (priMask) : "memory");
 80067f4:	2201      	movs	r2, #1
 80067f6:	f382 8810 	msr	PRIMASK, r2
  ATOMIC_CLEAR_BIT(huart->Instance->CR1, (USART_CR1_RXNEIE_RXFNEIE | USART_CR1_PEIE));
 80067fa:	6821      	ldr	r1, [r4, #0]
 80067fc:	4d5f      	ldr	r5, [pc, #380]	@ (800697c <UART_CheckIdleState+0x2a4>)
 80067fe:	680b      	ldr	r3, [r1, #0]
 8006800:	402b      	ands	r3, r5
 8006802:	600b      	str	r3, [r1, #0]
 8006804:	f380 8810 	msr	PRIMASK, r0
  __ASM volatile ("MRS %0, primask" : "=r" (result) :: "memory");
 8006808:	f3ef 8110 	mrs	r1, PRIMASK
  __ASM volatile ("MSR primask, %0" : : "r" (priMask) : "memory");
 800680c:	f382 8810 	msr	PRIMASK, r2
  ATOMIC_CLEAR_BIT(huart->Instance->CR3, (USART_CR3_EIE | USART_CR3_RXFTIE));
 8006810:	6822      	ldr	r2, [r4, #0]
 8006812:	485b      	ldr	r0, [pc, #364]	@ (8006980 <UART_CheckIdleState+0x2a8>)
 8006814:	6893      	ldr	r3, [r2, #8]
 8006816:	4003      	ands	r3, r0
 8006818:	6093      	str	r3, [r2, #8]
 800681a:	f381 8810 	msr	PRIMASK, r1
  if (huart->ReceptionType == HAL_UART_RECEPTION_TOIDLE)
 800681e:	6ee3      	ldr	r3, [r4, #108]	@ 0x6c
 8006820:	2b01      	cmp	r3, #1
 8006822:	d10a      	bne.n	800683a <UART_CheckIdleState+0x162>
  __ASM volatile ("MRS %0, primask" : "=r" (result) :: "memory");
 8006824:	f3ef 8110 	mrs	r1, PRIMASK
  __ASM volatile ("MSR primask, %0" : : "r" (priMask) : "memory");
 8006828:	f383 8810 	msr	PRIMASK, r3
    ATOMIC_CLEAR_BIT(huart->Instance->CR1, USART_CR1_IDLEIE);
 800682c:	2010      	movs	r0, #16
 800682e:	6822      	ldr	r2, [r4, #0]
 8006830:	6813      	ldr	r3, [r2, #0]
 8006832:	4383      	bics	r3, r0
 8006834:	6013      	str	r3, [r2, #0]
 8006836:	f381 8810 	msr	PRIMASK, r1
  huart->RxState = HAL_UART_STATE_READY;
 800683a:	238c      	movs	r3, #140	@ 0x8c
 800683c:	2220      	movs	r2, #32
          huart->ErrorCode = HAL_UART_ERROR_ORE;
 800683e:	2108      	movs	r1, #8
  huart->RxState = HAL_UART_STATE_READY;
 8006840:	50e2      	str	r2, [r4, r3]
  huart->ReceptionType = HAL_UART_RECEPTION_STANDARD;
 8006842:	2300      	movs	r3, #0
          huart->ErrorCode = HAL_UART_ERROR_ORE;
 8006844:	3270      	adds	r2, #112	@ 0x70
  huart->ReceptionType = HAL_UART_RECEPTION_STANDARD;
 8006846:	66e3      	str	r3, [r4, #108]	@ 0x6c
  huart->RxISR = NULL;
 8006848:	6763      	str	r3, [r4, #116]	@ 0x74
          huart->ErrorCode = HAL_UART_ERROR_ORE;
 800684a:	50a1      	str	r1, [r4, r2]
          __HAL_UNLOCK(huart);
 800684c:	3a0c      	subs	r2, #12
 800684e:	54a3      	strb	r3, [r4, r2]
          return HAL_ERROR;
 8006850:	e781      	b.n	8006756 <UART_CheckIdleState+0x7e>
          __HAL_UART_CLEAR_FLAG(huart, UART_CLEAR_RTOF);
 8006852:	621a      	str	r2, [r3, #32]
  __ASM volatile ("MRS %0, primask" : "=r" (result) :: "memory");
 8006854:	f3ef 8010 	mrs	r0, PRIMASK
  __ASM volatile ("MSR primask, %0" : : "r" (priMask) : "memory");
 8006858:	2201      	movs	r2, #1
 800685a:	f382 8810 	msr	PRIMASK, r2
  ATOMIC_CLEAR_BIT(huart->Instance->CR1, (USART_CR1_RXNEIE_RXFNEIE | USART_CR1_PEIE));
 800685e:	6821      	ldr	r1, [r4, #0]
 8006860:	4d46      	ldr	r5, [pc, #280]	@ (800697c <UART_CheckIdleState+0x2a4>)
 8006862:	680b      	ldr	r3, [r1, #0]
 8006864:	402b      	ands	r3, r5
 8006866:	600b      	str	r3, [r1, #0]
 8006868:	f380 8810 	msr	PRIMASK, r0
  __ASM volatile ("MRS %0, primask" : "=r" (result) :: "memory");
 800686c:	f3ef 8110 	mrs	r1, PRIMASK
  __ASM volatile ("MSR primask, %0" : : "r" (priMask) : "memory");
 8006870:	f382 8810 	msr	PRIMASK, r2
  ATOMIC_CLEAR_BIT(huart->Instance->CR3, (USART_CR3_EIE | USART_CR3_RXFTIE));
 8006874:	6822      	ldr	r2, [r4, #0]
 8006876:	4842      	ldr	r0, [pc, #264]	@ (8006980 <UART_CheckIdleState+0x2a8>)
 8006878:	6893      	ldr	r3, [r2, #8]
 800687a:	4003      	ands	r3, r0
 800687c:	6093      	str	r3, [r2, #8]
 800687e:	f381 8810 	msr	PRIMASK, r1
  if (huart->ReceptionType == HAL_UART_RECEPTION_TOIDLE)
 8006882:	6ee3      	ldr	r3, [r4, #108]	@ 0x6c
 8006884:	2b01      	cmp	r3, #1
 8006886:	d10a      	bne.n	800689e <UART_CheckIdleState+0x1c6>
  __ASM volatile ("MRS %0, primask" : "=r" (result) :: "memory");
 8006888:	f3ef 8110 	mrs	r1, PRIMASK
  __ASM volatile ("MSR primask, %0" : : "r" (priMask) : "memory");
 800688c:	f383 8810 	msr	PRIMASK, r3
    ATOMIC_CLEAR_BIT(huart->Instance->CR1, USART_CR1_IDLEIE);
 8006890:	2010      	movs	r0, #16
 8006892:	6822      	ldr	r2, [r4, #0]
 8006894:	6813      	ldr	r3, [r2, #0]
 8006896:	4383      	bics	r3, r0
 8006898:	6013      	str	r3, [r2, #0]
 800689a:	f381 8810 	msr	PRIMASK, r1
  huart->RxState = HAL_UART_STATE_READY;
 800689e:	2220      	movs	r2, #32
 80068a0:	238c      	movs	r3, #140	@ 0x8c
          huart->ErrorCode = HAL_UART_ERROR_RTO;
 80068a2:	2190      	movs	r1, #144	@ 0x90
  huart->RxState = HAL_UART_STATE_READY;
 80068a4:	50e2      	str	r2, [r4, r3]
  huart->ReceptionType = HAL_UART_RECEPTION_STANDARD;
 80068a6:	2300      	movs	r3, #0
 80068a8:	66e3      	str	r3, [r4, #108]	@ 0x6c
  huart->RxISR = NULL;
 80068aa:	6763      	str	r3, [r4, #116]	@ 0x74
          huart->ErrorCode = HAL_UART_ERROR_RTO;
 80068ac:	5062      	str	r2, [r4, r1]
          __HAL_UNLOCK(huart);
 80068ae:	3264      	adds	r2, #100	@ 0x64
 80068b0:	54a3      	strb	r3, [r4, r2]
          return HAL_TIMEOUT;
 80068b2:	e750      	b.n	8006756 <UART_CheckIdleState+0x7e>
          __HAL_UART_CLEAR_FLAG(huart, UART_CLEAR_OREF);
 80068b4:	6219      	str	r1, [r3, #32]
  __ASM volatile ("MRS %0, primask" : "=r" (result) :: "memory");
 80068b6:	f3ef 8010 	mrs	r0, PRIMASK
  __ASM volatile ("MSR primask, %0" : : "r" (priMask) : "memory");
 80068ba:	2201      	movs	r2, #1
 80068bc:	f382 8810 	msr	PRIMASK, r2
  ATOMIC_CLEAR_BIT(huart->Instance->CR1, (USART_CR1_RXNEIE_RXFNEIE | USART_CR1_PEIE));
 80068c0:	6821      	ldr	r1, [r4, #0]
 80068c2:	4d2e      	ldr	r5, [pc, #184]	@ (800697c <UART_CheckIdleState+0x2a4>)
 80068c4:	680b      	ldr	r3, [r1, #0]
 80068c6:	402b      	ands	r3, r5
 80068c8:	600b      	str	r3, [r1, #0]
 80068ca:	f380 8810 	msr	PRIMASK, r0
  __ASM volatile ("MRS %0, primask" : "=r" (result) :: "memory");
 80068ce:	f3ef 8110 	mrs	r1, PRIMASK
  __ASM volatile ("MSR primask, %0" : : "r" (priMask) : "memory");
 80068d2:	f382 8810 	msr	PRIMASK, r2
  ATOMIC_CLEAR_BIT(huart->Instance->CR3, (USART_CR3_EIE | USART_CR3_RXFTIE));
 80068d6:	6822      	ldr	r2, [r4, #0]
 80068d8:	4829      	ldr	r0, [pc, #164]	@ (8006980 <UART_CheckIdleState+0x2a8>)
 80068da:	6893      	ldr	r3, [r2, #8]
 80068dc:	4003      	ands	r3, r0
 80068de:	6093      	str	r3, [r2, #8]
 80068e0:	f381 8810 	msr	PRIMASK, r1
  if (huart->ReceptionType == HAL_UART_RECEPTION_TOIDLE)
 80068e4:	6ee3      	ldr	r3, [r4, #108]	@ 0x6c
 80068e6:	2b01      	cmp	r3, #1
 80068e8:	d10a      	bne.n	8006900 <UART_CheckIdleState+0x228>
  __ASM volatile ("MRS %0, primask" : "=r" (result) :: "memory");
 80068ea:	f3ef 8110 	mrs	r1, PRIMASK
  __ASM volatile ("MSR primask, %0" : : "r" (priMask) : "memory");
 80068ee:	f383 8810 	msr	PRIMASK, r3
    ATOMIC_CLEAR_BIT(huart->Instance->CR1, USART_CR1_IDLEIE);
 80068f2:	2010      	movs	r0, #16
 80068f4:	6822      	ldr	r2, [r4, #0]
 80068f6:	6813      	ldr	r3, [r2, #0]
 80068f8:	4383      	bics	r3, r0
 80068fa:	6013      	str	r3, [r2, #0]
 80068fc:	f381 8810 	msr	PRIMASK, r1
  huart->RxState = HAL_UART_STATE_READY;
 8006900:	238c      	movs	r3, #140	@ 0x8c
 8006902:	2220      	movs	r2, #32
          huart->ErrorCode = HAL_UART_ERROR_ORE;
 8006904:	2108      	movs	r1, #8
  huart->RxState = HAL_UART_STATE_READY;
 8006906:	50e2      	str	r2, [r4, r3]
  huart->ReceptionType = HAL_UART_RECEPTION_STANDARD;
 8006908:	2300      	movs	r3, #0
          huart->ErrorCode = HAL_UART_ERROR_ORE;
 800690a:	3270      	adds	r2, #112	@ 0x70
  huart->ReceptionType = HAL_UART_RECEPTION_STANDARD;
 800690c:	66e3      	str	r3, [r4, #108]	@ 0x6c
  huart->RxISR = NULL;
 800690e:	6763      	str	r3, [r4, #116]	@ 0x74
          huart->ErrorCode = HAL_UART_ERROR_ORE;
 8006910:	50a1      	str	r1, [r4, r2]
          __HAL_UNLOCK(huart);
 8006912:	3a0c      	subs	r2, #12
 8006914:	54a3      	strb	r3, [r4, r2]
          return HAL_ERROR;
 8006916:	e74f      	b.n	80067b8 <UART_CheckIdleState+0xe0>
          __HAL_UART_CLEAR_FLAG(huart, UART_CLEAR_RTOF);
 8006918:	621a      	str	r2, [r3, #32]
  __ASM volatile ("MRS %0, primask" : "=r" (result) :: "memory");
 800691a:	f3ef 8010 	mrs	r0, PRIMASK
  __ASM volatile ("MSR primask, %0" : : "r" (priMask) : "memory");
 800691e:	2201      	movs	r2, #1
 8006920:	f382 8810 	msr	PRIMASK, r2
  ATOMIC_CLEAR_BIT(huart->Instance->CR1, (USART_CR1_RXNEIE_RXFNEIE | USART_CR1_PEIE));
 8006924:	6821      	ldr	r1, [r4, #0]
 8006926:	4d15      	ldr	r5, [pc, #84]	@ (800697c <UART_CheckIdleState+0x2a4>)
 8006928:	680b      	ldr	r3, [r1, #0]
 800692a:	402b      	ands	r3, r5
 800692c:	600b      	str	r3, [r1, #0]
 800692e:	f380 8810 	msr	PRIMASK, r0
  __ASM volatile ("MRS %0, primask" : "=r" (result) :: "memory");
 8006932:	f3ef 8110 	mrs	r1, PRIMASK
  __ASM volatile ("MSR primask, %0" : : "r" (priMask) : "memory");
 8006936:	f382 8810 	msr	PRIMASK, r2
  ATOMIC_CLEAR_BIT(huart->Instance->CR3, (USART_CR3_EIE | USART_CR3_RXFTIE));
 800693a:	6822      	ldr	r2, [r4, #0]
 800693c:	4810      	ldr	r0, [pc, #64]	@ (8006980 <UART_CheckIdleState+0x2a8>)
 800693e:	6893      	ldr	r3, [r2, #8]
 8006940:	4003      	ands	r3, r0
 8006942:	6093      	str	r3, [r2, #8]
 8006944:	f381 8810 	msr	PRIMASK, r1
  if (huart->ReceptionType == HAL_UART_RECEPTION_TOIDLE)
 8006948:	6ee3      	ldr	r3, [r4, #108]	@ 0x6c
 800694a:	2b01      	cmp	r3, #1
 800694c:	d10a      	bne.n	8006964 <UART_CheckIdleState+0x28c>
  __ASM volatile ("MRS %0, primask" : "=r" (result) :: "memory");
 800694e:	f3ef 8110 	mrs	r1, PRIMASK
  __ASM volatile ("MSR primask, %0" : : "r" (priMask) : "memory");
 8006952:	f383 8810 	msr	PRIMASK, r3
    ATOMIC_CLEAR_BIT(huart->Instance->CR1, USART_CR1_IDLEIE);
 8006956:	2010      	movs	r0, #16
 8006958:	6822      	ldr	r2, [r4, #0]
 800695a:	6813      	ldr	r3, [r2, #0]
 800695c:	4383      	bics	r3, r0
 800695e:	6013      	str	r3, [r2, #0]
 8006960:	f381 8810 	msr	PRIMASK, r1
  huart->RxState = HAL_UART_STATE_READY;
 8006964:	2220      	movs	r2, #32
 8006966:	238c      	movs	r3, #140	@ 0x8c
          huart->ErrorCode = HAL_UART_ERROR_RTO;
 8006968:	2190      	movs	r1, #144	@ 0x90
  huart->RxState = HAL_UART_STATE_READY;
 800696a:	50e2      	str	r2, [r4, r3]
  huart->ReceptionType = HAL_UART_RECEPTION_STANDARD;
 800696c:	2300      	movs	r3, #0
 800696e:	66e3      	str	r3, [r4, #108]	@ 0x6c
  huart->RxISR = NULL;
 8006970:	6763      	str	r3, [r4, #116]	@ 0x74
          huart->ErrorCode = HAL_UART_ERROR_RTO;
 8006972:	5062      	str	r2, [r4, r1]
          __HAL_UNLOCK(huart);
 8006974:	3264      	adds	r2, #100	@ 0x64
 8006976:	54a3      	strb	r3, [r4, r2]
          return HAL_TIMEOUT;
 8006978:	e71e      	b.n	80067b8 <UART_CheckIdleState+0xe0>
 800697a:	46c0      	nop			@ (mov r8, r8)
 800697c:	fffffedf 	.word	0xfffffedf
 8006980:	effffffe 	.word	0xeffffffe

08006984 <HAL_UART_Init>:
{
 8006984:	b5f8      	push	{r3, r4, r5, r6, r7, lr}
 8006986:	1e04      	subs	r4, r0, #0
  if (huart == NULL)
 8006988:	d03e      	beq.n	8006a08 <HAL_UART_Init+0x84>
  if (huart->gState == HAL_UART_STATE_RESET)
 800698a:	2388      	movs	r3, #136	@ 0x88
 800698c:	58c3      	ldr	r3, [r0, r3]
 800698e:	2b00      	cmp	r3, #0
 8006990:	d03c      	beq.n	8006a0c <HAL_UART_Init+0x88>
  huart->gState = HAL_UART_STATE_BUSY;
 8006992:	2388      	movs	r3, #136	@ 0x88
 8006994:	2224      	movs	r2, #36	@ 0x24
  __HAL_UART_DISABLE(huart);
 8006996:	6825      	ldr	r5, [r4, #0]
  huart->gState = HAL_UART_STATE_BUSY;
 8006998:	50e2      	str	r2, [r4, r3]
  __HAL_UART_DISABLE(huart);
 800699a:	682b      	ldr	r3, [r5, #0]
 800699c:	3a23      	subs	r2, #35	@ 0x23
 800699e:	4393      	bics	r3, r2
 80069a0:	602b      	str	r3, [r5, #0]
  if (huart->AdvancedInit.AdvFeatureInit != UART_ADVFEATURE_NO_INIT)
 80069a2:	6aa3      	ldr	r3, [r4, #40]	@ 0x28
 80069a4:	2b00      	cmp	r3, #0
 80069a6:	d000      	beq.n	80069aa <HAL_UART_Init+0x26>
 80069a8:	e09b      	b.n	8006ae2 <HAL_UART_Init+0x15e>
  tmpreg = (uint32_t)huart->Init.WordLength | huart->Init.Parity | huart->Init.Mode | huart->Init.OverSampling ;
 80069aa:	6921      	ldr	r1, [r4, #16]
 80069ac:	68a3      	ldr	r3, [r4, #8]
  MODIFY_REG(huart->Instance->CR1, USART_CR1_FIELDS, tmpreg);
 80069ae:	682a      	ldr	r2, [r5, #0]
  tmpreg = (uint32_t)huart->Init.WordLength | huart->Init.Parity | huart->Init.Mode | huart->Init.OverSampling ;
 80069b0:	430b      	orrs	r3, r1
 80069b2:	6961      	ldr	r1, [r4, #20]
 80069b4:	69e0      	ldr	r0, [r4, #28]
 80069b6:	430b      	orrs	r3, r1
  MODIFY_REG(huart->Instance->CR1, USART_CR1_FIELDS, tmpreg);
 80069b8:	499f      	ldr	r1, [pc, #636]	@ (8006c38 <HAL_UART_Init+0x2b4>)
  tmpreg = (uint32_t)huart->Init.WordLength | huart->Init.Parity | huart->Init.Mode | huart->Init.OverSampling ;
 80069ba:	4303      	orrs	r3, r0
  MODIFY_REG(huart->Instance->CR1, USART_CR1_FIELDS, tmpreg);
 80069bc:	400a      	ands	r2, r1
 80069be:	4313      	orrs	r3, r2
 80069c0:	602b      	str	r3, [r5, #0]
  MODIFY_REG(huart->Instance->CR2, USART_CR2_STOP, huart->Init.StopBits);
 80069c2:	686b      	ldr	r3, [r5, #4]
 80069c4:	4a9d      	ldr	r2, [pc, #628]	@ (8006c3c <HAL_UART_Init+0x2b8>)
  if (!(UART_INSTANCE_LOWPOWER(huart)))
 80069c6:	499e      	ldr	r1, [pc, #632]	@ (8006c40 <HAL_UART_Init+0x2bc>)
  MODIFY_REG(huart->Instance->CR2, USART_CR2_STOP, huart->Init.StopBits);
 80069c8:	4013      	ands	r3, r2
 80069ca:	68e2      	ldr	r2, [r4, #12]
 80069cc:	4313      	orrs	r3, r2
 80069ce:	606b      	str	r3, [r5, #4]
  MODIFY_REG(huart->Instance->PRESC, USART_PRESC_PRESCALER, huart->Init.ClockPrescaler);
 80069d0:	6a62      	ldr	r2, [r4, #36]	@ 0x24
  tmpreg = (uint32_t)huart->Init.HwFlowCtl;
 80069d2:	69a3      	ldr	r3, [r4, #24]
  if (!(UART_INSTANCE_LOWPOWER(huart)))
 80069d4:	428d      	cmp	r5, r1
 80069d6:	d100      	bne.n	80069da <HAL_UART_Init+0x56>
 80069d8:	e091      	b.n	8006afe <HAL_UART_Init+0x17a>
    tmpreg |= huart->Init.OneBitSampling;
 80069da:	6a26      	ldr	r6, [r4, #32]
  MODIFY_REG(huart->Instance->CR3, USART_CR3_FIELDS, tmpreg);
 80069dc:	68a9      	ldr	r1, [r5, #8]
    tmpreg |= huart->Init.OneBitSampling;
 80069de:	4333      	orrs	r3, r6
  MODIFY_REG(huart->Instance->CR3, USART_CR3_FIELDS, tmpreg);
 80069e0:	4e98      	ldr	r6, [pc, #608]	@ (8006c44 <HAL_UART_Init+0x2c0>)
 80069e2:	4031      	ands	r1, r6
 80069e4:	430b      	orrs	r3, r1
  MODIFY_REG(huart->Instance->PRESC, USART_PRESC_PRESCALER, huart->Init.ClockPrescaler);
 80069e6:	210f      	movs	r1, #15
  MODIFY_REG(huart->Instance->CR3, USART_CR3_FIELDS, tmpreg);
 80069e8:	60ab      	str	r3, [r5, #8]
  MODIFY_REG(huart->Instance->PRESC, USART_PRESC_PRESCALER, huart->Init.ClockPrescaler);
 80069ea:	6aeb      	ldr	r3, [r5, #44]	@ 0x2c
 80069ec:	438b      	bics	r3, r1
 80069ee:	4313      	orrs	r3, r2
 80069f0:	62eb      	str	r3, [r5, #44]	@ 0x2c
  UART_GETCLOCKSOURCE(huart, clocksource);
 80069f2:	4b95      	ldr	r3, [pc, #596]	@ (8006c48 <HAL_UART_Init+0x2c4>)
 80069f4:	429d      	cmp	r5, r3
 80069f6:	d036      	beq.n	8006a66 <HAL_UART_Init+0xe2>
 80069f8:	4b94      	ldr	r3, [pc, #592]	@ (8006c4c <HAL_UART_Init+0x2c8>)
 80069fa:	429d      	cmp	r5, r3
 80069fc:	d03f      	beq.n	8006a7e <HAL_UART_Init+0xfa>
  huart->NbRxDataToProcess = 1;
 80069fe:	4b94      	ldr	r3, [pc, #592]	@ (8006c50 <HAL_UART_Init+0x2cc>)
 8006a00:	66a3      	str	r3, [r4, #104]	@ 0x68
  huart->RxISR = NULL;
 8006a02:	2300      	movs	r3, #0
 8006a04:	6763      	str	r3, [r4, #116]	@ 0x74
  huart->TxISR = NULL;
 8006a06:	67a3      	str	r3, [r4, #120]	@ 0x78
    return HAL_ERROR;
 8006a08:	2001      	movs	r0, #1
}
 8006a0a:	bdf8      	pop	{r3, r4, r5, r6, r7, pc}
    huart->Lock = HAL_UNLOCKED;
 8006a0c:	2284      	movs	r2, #132	@ 0x84
 8006a0e:	5483      	strb	r3, [r0, r2]
  huart->TxHalfCpltCallback        = HAL_UART_TxHalfCpltCallback;        /* Legacy weak TxHalfCpltCallback        */
 8006a10:	4b90      	ldr	r3, [pc, #576]	@ (8006c54 <HAL_UART_Init+0x2d0>)
 8006a12:	3210      	adds	r2, #16
 8006a14:	5083      	str	r3, [r0, r2]
  huart->TxCpltCallback            = HAL_UART_TxCpltCallback;            /* Legacy weak TxCpltCallback            */
 8006a16:	4b90      	ldr	r3, [pc, #576]	@ (8006c58 <HAL_UART_Init+0x2d4>)
 8006a18:	3204      	adds	r2, #4
 8006a1a:	5083      	str	r3, [r0, r2]
  huart->RxHalfCpltCallback        = HAL_UART_RxHalfCpltCallback;        /* Legacy weak RxHalfCpltCallback        */
 8006a1c:	4b8f      	ldr	r3, [pc, #572]	@ (8006c5c <HAL_UART_Init+0x2d8>)
 8006a1e:	3204      	adds	r2, #4
 8006a20:	5083      	str	r3, [r0, r2]
  huart->RxCpltCallback            = HAL_UART_RxCpltCallback;            /* Legacy weak RxCpltCallback            */
 8006a22:	4b8f      	ldr	r3, [pc, #572]	@ (8006c60 <HAL_UART_Init+0x2dc>)
 8006a24:	3204      	adds	r2, #4
 8006a26:	5083      	str	r3, [r0, r2]
  huart->ErrorCallback             = HAL_UART_ErrorCallback;             /* Legacy weak ErrorCallback             */
 8006a28:	4b8e      	ldr	r3, [pc, #568]	@ (8006c64 <HAL_UART_Init+0x2e0>)
 8006a2a:	3204      	adds	r2, #4
 8006a2c:	5083      	str	r3, [r0, r2]
  huart->AbortCpltCallback         = HAL_UART_AbortCpltCallback;         /* Legacy weak AbortCpltCallback         */
 8006a2e:	4b8e      	ldr	r3, [pc, #568]	@ (8006c68 <HAL_UART_Init+0x2e4>)
 8006a30:	3204      	adds	r2, #4
 8006a32:	5083      	str	r3, [r0, r2]
  huart->AbortTransmitCpltCallback = HAL_UART_AbortTransmitCpltCallback; /* Legacy weak AbortTransmitCpltCallback */
 8006a34:	4b8d      	ldr	r3, [pc, #564]	@ (8006c6c <HAL_UART_Init+0x2e8>)
 8006a36:	3204      	adds	r2, #4
 8006a38:	5083      	str	r3, [r0, r2]
  huart->AbortReceiveCpltCallback  = HAL_UART_AbortReceiveCpltCallback;  /* Legacy weak AbortReceiveCpltCallback  */
 8006a3a:	4b8d      	ldr	r3, [pc, #564]	@ (8006c70 <HAL_UART_Init+0x2ec>)
 8006a3c:	3204      	adds	r2, #4
 8006a3e:	5083      	str	r3, [r0, r2]
  huart->WakeupCallback            = HAL_UARTEx_WakeupCallback;          /* Legacy weak WakeupCallback            */
 8006a40:	4b8c      	ldr	r3, [pc, #560]	@ (8006c74 <HAL_UART_Init+0x2f0>)
 8006a42:	3204      	adds	r2, #4
 8006a44:	5083      	str	r3, [r0, r2]
  huart->RxFifoFullCallback        = HAL_UARTEx_RxFifoFullCallback;      /* Legacy weak RxFifoFullCallback        */
 8006a46:	4b8c      	ldr	r3, [pc, #560]	@ (8006c78 <HAL_UART_Init+0x2f4>)
 8006a48:	3204      	adds	r2, #4
 8006a4a:	5083      	str	r3, [r0, r2]
  huart->TxFifoEmptyCallback       = HAL_UARTEx_TxFifoEmptyCallback;     /* Legacy weak TxFifoEmptyCallback       */
 8006a4c:	4b8b      	ldr	r3, [pc, #556]	@ (8006c7c <HAL_UART_Init+0x2f8>)
 8006a4e:	3204      	adds	r2, #4
 8006a50:	5083      	str	r3, [r0, r2]
  huart->RxEventCallback           = HAL_UARTEx_RxEventCallback;         /* Legacy weak RxEventCallback           */
 8006a52:	4b8b      	ldr	r3, [pc, #556]	@ (8006c80 <HAL_UART_Init+0x2fc>)
 8006a54:	3204      	adds	r2, #4
 8006a56:	5083      	str	r3, [r0, r2]
    if (huart->MspInitCallback == NULL)
 8006a58:	3204      	adds	r2, #4
 8006a5a:	5883      	ldr	r3, [r0, r2]
 8006a5c:	2b00      	cmp	r3, #0
 8006a5e:	d04b      	beq.n	8006af8 <HAL_UART_Init+0x174>
    huart->MspInitCallback(huart);
 8006a60:	0020      	movs	r0, r4
 8006a62:	4798      	blx	r3
 8006a64:	e795      	b.n	8006992 <HAL_UART_Init+0xe>
  UART_GETCLOCKSOURCE(huart, clocksource);
 8006a66:	4b87      	ldr	r3, [pc, #540]	@ (8006c84 <HAL_UART_Init+0x300>)
 8006a68:	6d59      	ldr	r1, [r3, #84]	@ 0x54
 8006a6a:	2303      	movs	r3, #3
 8006a6c:	400b      	ands	r3, r1
 8006a6e:	2b02      	cmp	r3, #2
 8006a70:	d03b      	beq.n	8006aea <HAL_UART_Init+0x166>
 8006a72:	2b03      	cmp	r3, #3
 8006a74:	d100      	bne.n	8006a78 <HAL_UART_Init+0xf4>
 8006a76:	e0a2      	b.n	8006bbe <HAL_UART_Init+0x23a>
 8006a78:	2b01      	cmp	r3, #1
 8006a7a:	d100      	bne.n	8006a7e <HAL_UART_Init+0xfa>
 8006a7c:	e0a5      	b.n	8006bca <HAL_UART_Init+0x246>
  else if (huart->Init.OverSampling == UART_OVERSAMPLING_8)
 8006a7e:	2380      	movs	r3, #128	@ 0x80
 8006a80:	021b      	lsls	r3, r3, #8
 8006a82:	4298      	cmp	r0, r3
 8006a84:	d100      	bne.n	8006a88 <HAL_UART_Init+0x104>
 8006a86:	e0d2      	b.n	8006c2e <HAL_UART_Init+0x2aa>
        pclk = HAL_RCC_GetPCLK1Freq();
 8006a88:	f7fd fcb4 	bl	80043f4 <HAL_RCC_GetPCLK1Freq>
    if (pclk != 0U)
 8006a8c:	2800      	cmp	r0, #0
 8006a8e:	d100      	bne.n	8006a92 <HAL_UART_Init+0x10e>
 8006a90:	e08f      	b.n	8006bb2 <HAL_UART_Init+0x22e>
      usartdiv = (uint32_t)(UART_DIV_SAMPLING16(pclk, huart->Init.BaudRate, huart->Init.ClockPrescaler));
 8006a92:	6a62      	ldr	r2, [r4, #36]	@ 0x24
 8006a94:	4b7c      	ldr	r3, [pc, #496]	@ (8006c88 <HAL_UART_Init+0x304>)
 8006a96:	0052      	lsls	r2, r2, #1
 8006a98:	5ad1      	ldrh	r1, [r2, r3]
 8006a9a:	f7f9 fb33 	bl	8000104 <__udivsi3>
 8006a9e:	6865      	ldr	r5, [r4, #4]
 8006aa0:	086b      	lsrs	r3, r5, #1
 8006aa2:	18c0      	adds	r0, r0, r3
 8006aa4:	0029      	movs	r1, r5
 8006aa6:	f7f9 fb2d 	bl	8000104 <__udivsi3>
      if ((usartdiv >= UART_BRR_MIN) && (usartdiv <= UART_BRR_MAX))
 8006aaa:	0002      	movs	r2, r0
 8006aac:	4b77      	ldr	r3, [pc, #476]	@ (8006c8c <HAL_UART_Init+0x308>)
 8006aae:	3a10      	subs	r2, #16
 8006ab0:	429a      	cmp	r2, r3
 8006ab2:	d8a4      	bhi.n	80069fe <HAL_UART_Init+0x7a>
        huart->Instance->BRR = (uint16_t)usartdiv;
 8006ab4:	6823      	ldr	r3, [r4, #0]
 8006ab6:	60d8      	str	r0, [r3, #12]
  huart->NbRxDataToProcess = 1;
 8006ab8:	4a65      	ldr	r2, [pc, #404]	@ (8006c50 <HAL_UART_Init+0x2cc>)
 8006aba:	66a2      	str	r2, [r4, #104]	@ 0x68
  huart->RxISR = NULL;
 8006abc:	2200      	movs	r2, #0
 8006abe:	6762      	str	r2, [r4, #116]	@ 0x74
  huart->TxISR = NULL;
 8006ac0:	67a2      	str	r2, [r4, #120]	@ 0x78
  CLEAR_BIT(huart->Instance->CR2, (USART_CR2_LINEN | USART_CR2_CLKEN));
 8006ac2:	685a      	ldr	r2, [r3, #4]
 8006ac4:	4972      	ldr	r1, [pc, #456]	@ (8006c90 <HAL_UART_Init+0x30c>)
  return (UART_CheckIdleState(huart));
 8006ac6:	0020      	movs	r0, r4
  CLEAR_BIT(huart->Instance->CR2, (USART_CR2_LINEN | USART_CR2_CLKEN));
 8006ac8:	400a      	ands	r2, r1
  CLEAR_BIT(huart->Instance->CR3, (USART_CR3_SCEN | USART_CR3_HDSEL | USART_CR3_IREN));
 8006aca:	212a      	movs	r1, #42	@ 0x2a
  CLEAR_BIT(huart->Instance->CR2, (USART_CR2_LINEN | USART_CR2_CLKEN));
 8006acc:	605a      	str	r2, [r3, #4]
  CLEAR_BIT(huart->Instance->CR3, (USART_CR3_SCEN | USART_CR3_HDSEL | USART_CR3_IREN));
 8006ace:	689a      	ldr	r2, [r3, #8]
 8006ad0:	438a      	bics	r2, r1
 8006ad2:	609a      	str	r2, [r3, #8]
  __HAL_UART_ENABLE(huart);
 8006ad4:	681a      	ldr	r2, [r3, #0]
 8006ad6:	3929      	subs	r1, #41	@ 0x29
 8006ad8:	430a      	orrs	r2, r1
 8006ada:	601a      	str	r2, [r3, #0]
  return (UART_CheckIdleState(huart));
 8006adc:	f7ff fdfc 	bl	80066d8 <UART_CheckIdleState>
 8006ae0:	e793      	b.n	8006a0a <HAL_UART_Init+0x86>
    UART_AdvFeatureConfig(huart);
 8006ae2:	0020      	movs	r0, r4
 8006ae4:	f7ff fd90 	bl	8006608 <UART_AdvFeatureConfig>
 8006ae8:	e75f      	b.n	80069aa <HAL_UART_Init+0x26>
  else if (huart->Init.OverSampling == UART_OVERSAMPLING_8)
 8006aea:	2380      	movs	r3, #128	@ 0x80
 8006aec:	021b      	lsls	r3, r3, #8
 8006aee:	4298      	cmp	r0, r3
 8006af0:	d100      	bne.n	8006af4 <HAL_UART_Init+0x170>
 8006af2:	e096      	b.n	8006c22 <HAL_UART_Init+0x29e>
        pclk = (uint32_t) HSI_VALUE;
 8006af4:	4867      	ldr	r0, [pc, #412]	@ (8006c94 <HAL_UART_Init+0x310>)
 8006af6:	e7cd      	b.n	8006a94 <HAL_UART_Init+0x110>
      huart->MspInitCallback = HAL_UART_MspInit;
 8006af8:	4b67      	ldr	r3, [pc, #412]	@ (8006c98 <HAL_UART_Init+0x314>)
 8006afa:	5083      	str	r3, [r0, r2]
 8006afc:	e7b0      	b.n	8006a60 <HAL_UART_Init+0xdc>
  MODIFY_REG(huart->Instance->CR3, USART_CR3_FIELDS, tmpreg);
 8006afe:	68a9      	ldr	r1, [r5, #8]
 8006b00:	4850      	ldr	r0, [pc, #320]	@ (8006c44 <HAL_UART_Init+0x2c0>)
 8006b02:	4001      	ands	r1, r0
 8006b04:	430b      	orrs	r3, r1
  MODIFY_REG(huart->Instance->PRESC, USART_PRESC_PRESCALER, huart->Init.ClockPrescaler);
 8006b06:	210f      	movs	r1, #15
  MODIFY_REG(huart->Instance->CR3, USART_CR3_FIELDS, tmpreg);
 8006b08:	60ab      	str	r3, [r5, #8]
  MODIFY_REG(huart->Instance->PRESC, USART_PRESC_PRESCALER, huart->Init.ClockPrescaler);
 8006b0a:	6aeb      	ldr	r3, [r5, #44]	@ 0x2c
  UART_GETCLOCKSOURCE(huart, clocksource);
 8006b0c:	2080      	movs	r0, #128	@ 0x80
  MODIFY_REG(huart->Instance->PRESC, USART_PRESC_PRESCALER, huart->Init.ClockPrescaler);
 8006b0e:	438b      	bics	r3, r1
  UART_GETCLOCKSOURCE(huart, clocksource);
 8006b10:	21c0      	movs	r1, #192	@ 0xc0
  MODIFY_REG(huart->Instance->PRESC, USART_PRESC_PRESCALER, huart->Init.ClockPrescaler);
 8006b12:	4313      	orrs	r3, r2
 8006b14:	62eb      	str	r3, [r5, #44]	@ 0x2c
  UART_GETCLOCKSOURCE(huart, clocksource);
 8006b16:	4b5b      	ldr	r3, [pc, #364]	@ (8006c84 <HAL_UART_Init+0x300>)
 8006b18:	0109      	lsls	r1, r1, #4
 8006b1a:	6d5b      	ldr	r3, [r3, #84]	@ 0x54
 8006b1c:	0100      	lsls	r0, r0, #4
 8006b1e:	400b      	ands	r3, r1
 8006b20:	4283      	cmp	r3, r0
 8006b22:	d100      	bne.n	8006b26 <HAL_UART_Init+0x1a2>
 8006b24:	e086      	b.n	8006c34 <HAL_UART_Init+0x2b0>
 8006b26:	d80d      	bhi.n	8006b44 <HAL_UART_Init+0x1c0>
 8006b28:	2b00      	cmp	r3, #0
 8006b2a:	d07c      	beq.n	8006c26 <HAL_UART_Init+0x2a2>
 8006b2c:	2280      	movs	r2, #128	@ 0x80
 8006b2e:	00d2      	lsls	r2, r2, #3
 8006b30:	4293      	cmp	r3, r2
 8006b32:	d000      	beq.n	8006b36 <HAL_UART_Init+0x1b2>
 8006b34:	e763      	b.n	80069fe <HAL_UART_Init+0x7a>
        pclk = HAL_RCC_GetSysClockFreq();
 8006b36:	f7fd fb47 	bl	80041c8 <HAL_RCC_GetSysClockFreq>
 8006b3a:	0005      	movs	r5, r0
    if (pclk != 0U)
 8006b3c:	2d00      	cmp	r5, #0
 8006b3e:	d06a      	beq.n	8006c16 <HAL_UART_Init+0x292>
      lpuart_ker_ck_pres = (pclk / UARTPrescTable[huart->Init.ClockPrescaler]);
 8006b40:	6a62      	ldr	r2, [r4, #36]	@ 0x24
 8006b42:	e004      	b.n	8006b4e <HAL_UART_Init+0x1ca>
  UART_GETCLOCKSOURCE(huart, clocksource);
 8006b44:	428b      	cmp	r3, r1
 8006b46:	d000      	beq.n	8006b4a <HAL_UART_Init+0x1c6>
 8006b48:	e759      	b.n	80069fe <HAL_UART_Init+0x7a>
        pclk = (uint32_t) LSE_VALUE;
 8006b4a:	2580      	movs	r5, #128	@ 0x80
 8006b4c:	022d      	lsls	r5, r5, #8
      lpuart_ker_ck_pres = (pclk / UARTPrescTable[huart->Init.ClockPrescaler]);
 8006b4e:	4b4e      	ldr	r3, [pc, #312]	@ (8006c88 <HAL_UART_Init+0x304>)
 8006b50:	0052      	lsls	r2, r2, #1
 8006b52:	5ad6      	ldrh	r6, [r2, r3]
 8006b54:	0028      	movs	r0, r5
 8006b56:	0031      	movs	r1, r6
 8006b58:	f7f9 fad4 	bl	8000104 <__udivsi3>
      if ((lpuart_ker_ck_pres < (3U * huart->Init.BaudRate)) ||
 8006b5c:	6867      	ldr	r7, [r4, #4]
 8006b5e:	007b      	lsls	r3, r7, #1
 8006b60:	19db      	adds	r3, r3, r7
 8006b62:	4298      	cmp	r0, r3
 8006b64:	d200      	bcs.n	8006b68 <HAL_UART_Init+0x1e4>
 8006b66:	e74a      	b.n	80069fe <HAL_UART_Init+0x7a>
          (lpuart_ker_ck_pres > (4096U * huart->Init.BaudRate)))
 8006b68:	033b      	lsls	r3, r7, #12
      if ((lpuart_ker_ck_pres < (3U * huart->Init.BaudRate)) ||
 8006b6a:	4298      	cmp	r0, r3
 8006b6c:	d900      	bls.n	8006b70 <HAL_UART_Init+0x1ec>
 8006b6e:	e746      	b.n	80069fe <HAL_UART_Init+0x7a>
        usartdiv = (uint32_t)(UART_DIV_LPUART(pclk, huart->Init.BaudRate, huart->Init.ClockPrescaler));
 8006b70:	0032      	movs	r2, r6
 8006b72:	2300      	movs	r3, #0
 8006b74:	0028      	movs	r0, r5
 8006b76:	2100      	movs	r1, #0
 8006b78:	f7f9 fc3a 	bl	80003f0 <__aeabi_uldivmod>
 8006b7c:	2600      	movs	r6, #0
 8006b7e:	0e05      	lsrs	r5, r0, #24
 8006b80:	020b      	lsls	r3, r1, #8
 8006b82:	432b      	orrs	r3, r5
 8006b84:	0202      	lsls	r2, r0, #8
 8006b86:	087d      	lsrs	r5, r7, #1
 8006b88:	1952      	adds	r2, r2, r5
 8006b8a:	4173      	adcs	r3, r6
 8006b8c:	0010      	movs	r0, r2
 8006b8e:	0019      	movs	r1, r3
 8006b90:	003a      	movs	r2, r7
 8006b92:	2300      	movs	r3, #0
 8006b94:	f7f9 fc2c 	bl	80003f0 <__aeabi_uldivmod>
        if ((usartdiv >= LPUART_BRR_MIN) && (usartdiv <= LPUART_BRR_MAX))
 8006b98:	4b40      	ldr	r3, [pc, #256]	@ (8006c9c <HAL_UART_Init+0x318>)
 8006b9a:	18c2      	adds	r2, r0, r3
 8006b9c:	4b40      	ldr	r3, [pc, #256]	@ (8006ca0 <HAL_UART_Init+0x31c>)
 8006b9e:	429a      	cmp	r2, r3
 8006ba0:	d900      	bls.n	8006ba4 <HAL_UART_Init+0x220>
 8006ba2:	e72c      	b.n	80069fe <HAL_UART_Init+0x7a>
          huart->Instance->BRR = usartdiv;
 8006ba4:	6823      	ldr	r3, [r4, #0]
  huart->NbRxDataToProcess = 1;
 8006ba6:	4a2a      	ldr	r2, [pc, #168]	@ (8006c50 <HAL_UART_Init+0x2cc>)
          huart->Instance->BRR = usartdiv;
 8006ba8:	60d8      	str	r0, [r3, #12]
  huart->NbRxDataToProcess = 1;
 8006baa:	66a2      	str	r2, [r4, #104]	@ 0x68
  huart->RxISR = NULL;
 8006bac:	6766      	str	r6, [r4, #116]	@ 0x74
  huart->TxISR = NULL;
 8006bae:	67a6      	str	r6, [r4, #120]	@ 0x78
  return ret;
 8006bb0:	e787      	b.n	8006ac2 <HAL_UART_Init+0x13e>
  huart->NbRxDataToProcess = 1;
 8006bb2:	4b27      	ldr	r3, [pc, #156]	@ (8006c50 <HAL_UART_Init+0x2cc>)
  huart->RxISR = NULL;
 8006bb4:	6760      	str	r0, [r4, #116]	@ 0x74
  huart->NbRxDataToProcess = 1;
 8006bb6:	66a3      	str	r3, [r4, #104]	@ 0x68
  huart->TxISR = NULL;
 8006bb8:	67a0      	str	r0, [r4, #120]	@ 0x78
  CLEAR_BIT(huart->Instance->CR2, (USART_CR2_LINEN | USART_CR2_CLKEN));
 8006bba:	6823      	ldr	r3, [r4, #0]
 8006bbc:	e781      	b.n	8006ac2 <HAL_UART_Init+0x13e>
  else if (huart->Init.OverSampling == UART_OVERSAMPLING_8)
 8006bbe:	2380      	movs	r3, #128	@ 0x80
 8006bc0:	021b      	lsls	r3, r3, #8
 8006bc2:	4298      	cmp	r0, r3
 8006bc4:	d00a      	beq.n	8006bdc <HAL_UART_Init+0x258>
        pclk = (uint32_t) LSE_VALUE;
 8006bc6:	0018      	movs	r0, r3
 8006bc8:	e764      	b.n	8006a94 <HAL_UART_Init+0x110>
  else if (huart->Init.OverSampling == UART_OVERSAMPLING_8)
 8006bca:	2380      	movs	r3, #128	@ 0x80
 8006bcc:	021b      	lsls	r3, r3, #8
 8006bce:	4298      	cmp	r0, r3
 8006bd0:	d11e      	bne.n	8006c10 <HAL_UART_Init+0x28c>
        pclk = HAL_RCC_GetSysClockFreq();
 8006bd2:	f7fd faf9 	bl	80041c8 <HAL_RCC_GetSysClockFreq>
    if (pclk != 0U)
 8006bd6:	2800      	cmp	r0, #0
 8006bd8:	d0eb      	beq.n	8006bb2 <HAL_UART_Init+0x22e>
      usartdiv = (uint32_t)(UART_DIV_SAMPLING8(pclk, huart->Init.BaudRate, huart->Init.ClockPrescaler));
 8006bda:	6a62      	ldr	r2, [r4, #36]	@ 0x24
 8006bdc:	4b2a      	ldr	r3, [pc, #168]	@ (8006c88 <HAL_UART_Init+0x304>)
 8006bde:	0052      	lsls	r2, r2, #1
 8006be0:	5ad1      	ldrh	r1, [r2, r3]
 8006be2:	f7f9 fa8f 	bl	8000104 <__udivsi3>
 8006be6:	6865      	ldr	r5, [r4, #4]
 8006be8:	0040      	lsls	r0, r0, #1
 8006bea:	086b      	lsrs	r3, r5, #1
 8006bec:	18c0      	adds	r0, r0, r3
 8006bee:	0029      	movs	r1, r5
 8006bf0:	f7f9 fa88 	bl	8000104 <__udivsi3>
      if ((usartdiv >= UART_BRR_MIN) && (usartdiv <= UART_BRR_MAX))
 8006bf4:	0002      	movs	r2, r0
 8006bf6:	4b25      	ldr	r3, [pc, #148]	@ (8006c8c <HAL_UART_Init+0x308>)
 8006bf8:	3a10      	subs	r2, #16
 8006bfa:	429a      	cmp	r2, r3
 8006bfc:	d900      	bls.n	8006c00 <HAL_UART_Init+0x27c>
 8006bfe:	e6fe      	b.n	80069fe <HAL_UART_Init+0x7a>
        brrtemp = (uint16_t)(usartdiv & 0xFFF0U);
 8006c00:	4a28      	ldr	r2, [pc, #160]	@ (8006ca4 <HAL_UART_Init+0x320>)
        huart->Instance->BRR = brrtemp;
 8006c02:	6823      	ldr	r3, [r4, #0]
        brrtemp = (uint16_t)(usartdiv & 0xFFF0U);
 8006c04:	4002      	ands	r2, r0
        brrtemp |= (uint16_t)((usartdiv & (uint16_t)0x000FU) >> 1U);
 8006c06:	0700      	lsls	r0, r0, #28
 8006c08:	0f40      	lsrs	r0, r0, #29
        huart->Instance->BRR = brrtemp;
 8006c0a:	4302      	orrs	r2, r0
 8006c0c:	60da      	str	r2, [r3, #12]
  huart->NbRxDataToProcess = 1;
 8006c0e:	e753      	b.n	8006ab8 <HAL_UART_Init+0x134>
        pclk = HAL_RCC_GetSysClockFreq();
 8006c10:	f7fd fada 	bl	80041c8 <HAL_RCC_GetSysClockFreq>
        break;
 8006c14:	e73a      	b.n	8006a8c <HAL_UART_Init+0x108>
  huart->NbRxDataToProcess = 1;
 8006c16:	4b0e      	ldr	r3, [pc, #56]	@ (8006c50 <HAL_UART_Init+0x2cc>)
  huart->RxISR = NULL;
 8006c18:	6765      	str	r5, [r4, #116]	@ 0x74
  huart->NbRxDataToProcess = 1;
 8006c1a:	66a3      	str	r3, [r4, #104]	@ 0x68
  huart->TxISR = NULL;
 8006c1c:	67a5      	str	r5, [r4, #120]	@ 0x78
  CLEAR_BIT(huart->Instance->CR2, (USART_CR2_LINEN | USART_CR2_CLKEN));
 8006c1e:	6823      	ldr	r3, [r4, #0]
 8006c20:	e74f      	b.n	8006ac2 <HAL_UART_Init+0x13e>
        pclk = (uint32_t) HSI_VALUE;
 8006c22:	481c      	ldr	r0, [pc, #112]	@ (8006c94 <HAL_UART_Init+0x310>)
 8006c24:	e7da      	b.n	8006bdc <HAL_UART_Init+0x258>
        pclk = HAL_RCC_GetPCLK1Freq();
 8006c26:	f7fd fbe5 	bl	80043f4 <HAL_RCC_GetPCLK1Freq>
 8006c2a:	0005      	movs	r5, r0
        break;
 8006c2c:	e786      	b.n	8006b3c <HAL_UART_Init+0x1b8>
        pclk = HAL_RCC_GetPCLK1Freq();
 8006c2e:	f7fd fbe1 	bl	80043f4 <HAL_RCC_GetPCLK1Freq>
        break;
 8006c32:	e7d0      	b.n	8006bd6 <HAL_UART_Init+0x252>
        pclk = (uint32_t) HSI_VALUE;
 8006c34:	4d17      	ldr	r5, [pc, #92]	@ (8006c94 <HAL_UART_Init+0x310>)
 8006c36:	e78a      	b.n	8006b4e <HAL_UART_Init+0x1ca>
 8006c38:	cfff69f3 	.word	0xcfff69f3
 8006c3c:	ffffcfff 	.word	0xffffcfff
 8006c40:	40008000 	.word	0x40008000
 8006c44:	11fff4ff 	.word	0x11fff4ff
 8006c48:	40013800 	.word	0x40013800
 8006c4c:	40004400 	.word	0x40004400
 8006c50:	00010001 	.word	0x00010001
 8006c54:	08005fa5 	.word	0x08005fa5
 8006c58:	08005fa1 	.word	0x08005fa1
 8006c5c:	08005fad 	.word	0x08005fad
 8006c60:	08005fa9 	.word	0x08005fa9
 8006c64:	08005fb1 	.word	0x08005fb1
 8006c68:	08005fb5 	.word	0x08005fb5
 8006c6c:	08005fb9 	.word	0x08005fb9
 8006c70:	08005f9d 	.word	0x08005f9d
 8006c74:	08006ca9 	.word	0x08006ca9
 8006c78:	08006cad 	.word	0x08006cad
 8006c7c:	08006cb1 	.word	0x08006cb1
 8006c80:	08005ebd 	.word	0x08005ebd
 8006c84:	40021000 	.word	0x40021000
 8006c88:	0800785c 	.word	0x0800785c
 8006c8c:	0000ffef 	.word	0x0000ffef
 8006c90:	ffffb7ff 	.word	0xffffb7ff
 8006c94:	00f42400 	.word	0x00f42400
 8006c98:	0800180d 	.word	0x0800180d
 8006c9c:	fffffd00 	.word	0xfffffd00
 8006ca0:	000ffcff 	.word	0x000ffcff
 8006ca4:	0000fff0 	.word	0x0000fff0

08006ca8 <HAL_UARTEx_WakeupCallback>:
  UNUSED(huart);

  /* NOTE : This function should not be modified, when the callback is needed,
            the HAL_UARTEx_WakeupCallback can be implemented in the user file.
   */
}
 8006ca8:	4770      	bx	lr
 8006caa:	46c0      	nop			@ (mov r8, r8)

08006cac <HAL_UARTEx_RxFifoFullCallback>:
/**
  * @brief  UART RX Fifo full callback.
  * @param  huart UART handle.
  * @retval None
  */
__weak void HAL_UARTEx_RxFifoFullCallback(UART_HandleTypeDef *huart)
 8006cac:	4770      	bx	lr
 8006cae:	46c0      	nop			@ (mov r8, r8)

08006cb0 <HAL_UARTEx_TxFifoEmptyCallback>:
/**
  * @brief  UART TX Fifo empty callback.
  * @param  huart UART handle.
  * @retval None
  */
__weak void HAL_UARTEx_TxFifoEmptyCallback(UART_HandleTypeDef *huart)
 8006cb0:	4770      	bx	lr
 8006cb2:	46c0      	nop			@ (mov r8, r8)

08006cb4 <memset>:
 8006cb4:	0003      	movs	r3, r0
 8006cb6:	1882      	adds	r2, r0, r2
 8006cb8:	4293      	cmp	r3, r2
 8006cba:	d100      	bne.n	8006cbe <memset+0xa>
 8006cbc:	4770      	bx	lr
 8006cbe:	7019      	strb	r1, [r3, #0]
 8006cc0:	3301      	adds	r3, #1
 8006cc2:	e7f9      	b.n	8006cb8 <memset+0x4>

08006cc4 <__libc_init_array>:
 8006cc4:	b570      	push	{r4, r5, r6, lr}
 8006cc6:	2600      	movs	r6, #0
 8006cc8:	4c0c      	ldr	r4, [pc, #48]	@ (8006cfc <__libc_init_array+0x38>)
 8006cca:	4d0d      	ldr	r5, [pc, #52]	@ (8006d00 <__libc_init_array+0x3c>)
 8006ccc:	1b64      	subs	r4, r4, r5
 8006cce:	10a4      	asrs	r4, r4, #2
 8006cd0:	42a6      	cmp	r6, r4
 8006cd2:	d109      	bne.n	8006ce8 <__libc_init_array+0x24>
 8006cd4:	2600      	movs	r6, #0
 8006cd6:	f000 f819 	bl	8006d0c <_init>
 8006cda:	4c0a      	ldr	r4, [pc, #40]	@ (8006d04 <__libc_init_array+0x40>)
 8006cdc:	4d0a      	ldr	r5, [pc, #40]	@ (8006d08 <__libc_init_array+0x44>)
 8006cde:	1b64      	subs	r4, r4, r5
 8006ce0:	10a4      	asrs	r4, r4, #2
 8006ce2:	42a6      	cmp	r6, r4
 8006ce4:	d105      	bne.n	8006cf2 <__libc_init_array+0x2e>
 8006ce6:	bd70      	pop	{r4, r5, r6, pc}
 8006ce8:	00b3      	lsls	r3, r6, #2
 8006cea:	58eb      	ldr	r3, [r5, r3]
 8006cec:	4798      	blx	r3
 8006cee:	3601      	adds	r6, #1
 8006cf0:	e7ee      	b.n	8006cd0 <__libc_init_array+0xc>
 8006cf2:	00b3      	lsls	r3, r6, #2
 8006cf4:	58eb      	ldr	r3, [r5, r3]
 8006cf6:	4798      	blx	r3
 8006cf8:	3601      	adds	r6, #1
 8006cfa:	e7f2      	b.n	8006ce2 <__libc_init_array+0x1e>
 8006cfc:	0800787c 	.word	0x0800787c
 8006d00:	0800787c 	.word	0x0800787c
 8006d04:	08007880 	.word	0x08007880
 8006d08:	0800787c 	.word	0x0800787c

08006d0c <_init>:
 8006d0c:	b5f8      	push	{r3, r4, r5, r6, r7, lr}
 8006d0e:	46c0      	nop			@ (mov r8, r8)
 8006d10:	bcf8      	pop	{r3, r4, r5, r6, r7}
 8006d12:	bc08      	pop	{r3}
 8006d14:	469e      	mov	lr, r3
 8006d16:	4770      	bx	lr

08006d18 <_fini>:
 8006d18:	b5f8      	push	{r3, r4, r5, r6, r7, lr}
 8006d1a:	46c0      	nop			@ (mov r8, r8)
 8006d1c:	bcf8      	pop	{r3, r4, r5, r6, r7}
 8006d1e:	bc08      	pop	{r3}
 8006d20:	469e      	mov	lr, r3
 8006d22:	4770      	bx	lr
