
g031k8.elf:     file format elf32-littlearm

Sections:
Idx Name          Size      VMA       LMA       File off  Algn
  0 .isr_vector   000000bc  08000000  08000000  00001000  2**0
                  CONTENTS, ALLOC, LOAD, READONLY, DATA
  1 .text         00006604  080000bc  080000bc  000010bc  2**2
                  CONTENTS, ALLOC, LOAD, READONLY, CODE
  2 .rodata       00000b50  080066c0  080066c0  000076c0  2**2
                  CONTENTS, ALLOC, LOAD, READONLY, DATA
  3 .ARM.extab    00000000  08007210  08007210  00009418  2**0
                  CONTENTS
  4 .ARM          00000008  08007210  08007210  00008210  2**2
                  CONTENTS, ALLOC, LOAD, READONLY, DATA
  5 .preinit_array 00000000  08007218  08007218  00009418  2**0
                  CONTENTS, ALLOC, LOAD, DATA
  6 .init_array   00000004  08007218  08007218  00008218  2**2
                  CONTENTS, ALLOC, LOAD, READONLY, DATA
  7 .fini_array   00000004  0800721c  0800721c  0000821c  2**2
                  CONTENTS, ALLOC, LOAD, READONLY, DATA
  8 .data         00000418  20000000  08007220  00009000  2**2
                  CONTENTS, ALLOC, LOAD, DATA
  9 .bss          000007e0  20000418  08007638  00009418  2**3
                  ALLOC
 10 ._user_heap_stack 00000600  20000bf8  08007638  00009bf8  2**0
                  ALLOC
 11 .ARM.attributes 00000028  00000000  00000000  00009418  2**0
                  CONTENTS, READONLY
 12 .debug_info   00028e4d  00000000  00000000  00009440  2**0
                  CONTENTS, READONLY, DEBUGGING, OCTETS
 13 .debug_abbrev 00004e23  00000000  00000000  0003228d  2**0
                  CONTENTS, READONLY, DEBUGGING, OCTETS
 14 .debug_aranges 00001398  00000000  00000000  000370b0  2**3
                  CONTENTS, READONLY, DEBUGGING, OCTETS
 15 .debug_rnglists 00001b94  00000000  00000000  00038448  2**0
                  CONTENTS, READONLY, DEBUGGING, OCTETS
 16 .debug_macro  00019e17  00000000  00000000  00039fdc  2**0
                  CONTENTS, READONLY, DEBUGGING, OCTETS
 17 .debug_line   000286c9  00000000  00000000  00053df3  2**0
                  CONTENTS, READONLY, DEBUGGING, OCTETS
 18 .debug_str    0009facf  00000000  00000000  0007c4bc  2**0
                  CONTENTS, READONLY, DEBUGGING, OCTETS
 19 .comment      00000043  00000000  00000000  0011bf8b  2**0
                  CONTENTS, READONLY
 20 .debug_frame  00003420  00000000  00000000  0011bfd0  2**2
                  CONTENTS, READONLY, DEBUGGING, OCTETS
 21 .debug_loclists 0000f202  00000000  00000000  0011f3f0  2**0
                  CONTENTS, READONLY, DEBUGGING, OCTETS
 22 .debug_line_str 00000054  00000000  00000000  0012e5f2  2**0
                  CONTENTS, READONLY, DEBUGGING, OCTETS

Disassembly of section .text:

080000bc <__do_global_dtors_aux>:
 80000bc:	b510      	push	{r4, lr}
 80000be:	4c06      	ldr	r4, [pc, #24]	@ (80000d8 <__do_global_dtors_aux+0x1c>)
 80000c0:	7823      	ldrb	r3, [r4, #0]
 80000c2:	2b00      	cmp	r3, #0
 80000c4:	d107      	bne.n	80000d6 <__do_global_dtors_aux+0x1a>
 80000c6:	4b05      	ldr	r3, [pc, #20]	@ (80000dc <__do_global_dtors_aux+0x20>)
 80000c8:	2b00      	cmp	r3, #0
 80000ca:	d002      	beq.n	80000d2 <__do_global_dtors_aux+0x16>
 80000cc:	4804      	ldr	r0, [pc, #16]	@ (80000e0 <__do_global_dtors_aux+0x24>)
 80000ce:	e000      	b.n	80000d2 <__do_global_dtors_aux+0x16>
 80000d0:	bf00      	nop
 80000d2:	2301      	movs	r3, #1
 80000d4:	7023      	strb	r3, [r4, #0]
 80000d6:	bd10      	pop	{r4, pc}
 80000d8:	20000418 	.word	0x20000418
 80000dc:	00000000 	.word	0x00000000
 80000e0:	080066a8 	.word	0x080066a8

080000e4 <frame_dummy>:
 80000e4:	4b04      	ldr	r3, [pc, #16]	@ (80000f8 <frame_dummy+0x14>)
 80000e6:	b510      	push	{r4, lr}
 80000e8:	2b00      	cmp	r3, #0
 80000ea:	d003      	beq.n	80000f4 <frame_dummy+0x10>
 80000ec:	4903      	ldr	r1, [pc, #12]	@ (80000fc <frame_dummy+0x18>)
 80000ee:	4804      	ldr	r0, [pc, #16]	@ (8000100 <frame_dummy+0x1c>)
 80000f0:	e000      	b.n	80000f4 <frame_dummy+0x10>
 80000f2:	bf00      	nop
 80000f4:	bd10      	pop	{r4, pc}
 80000f6:	46c0      	nop			@ (mov r8, r8)
 80000f8:	00000000 	.word	0x00000000
 80000fc:	2000041c 	.word	0x2000041c
 8000100:	080066a8 	.word	0x080066a8

08000104 <__udivsi3>:
 8000104:	2200      	movs	r2, #0
 8000106:	0843      	lsrs	r3, r0, #1
 8000108:	428b      	cmp	r3, r1
 800010a:	d374      	bcc.n	80001f6 <__udivsi3+0xf2>
 800010c:	0903      	lsrs	r3, r0, #4
 800010e:	428b      	cmp	r3, r1
 8000110:	d35f      	bcc.n	80001d2 <__udivsi3+0xce>
 8000112:	0a03      	lsrs	r3, r0, #8
 8000114:	428b      	cmp	r3, r1
 8000116:	d344      	bcc.n	80001a2 <__udivsi3+0x9e>
 8000118:	0b03      	lsrs	r3, r0, #12
 800011a:	428b      	cmp	r3, r1
 800011c:	d328      	bcc.n	8000170 <__udivsi3+0x6c>
 800011e:	0c03      	lsrs	r3, r0, #16
 8000120:	428b      	cmp	r3, r1
 8000122:	d30d      	bcc.n	8000140 <__udivsi3+0x3c>
 8000124:	22ff      	movs	r2, #255	@ 0xff
 8000126:	0209      	lsls	r1, r1, #8
 8000128:	ba12      	rev	r2, r2
 800012a:	0c03      	lsrs	r3, r0, #16
 800012c:	428b      	cmp	r3, r1
 800012e:	d302      	bcc.n	8000136 <__udivsi3+0x32>
 8000130:	1212      	asrs	r2, r2, #8
 8000132:	0209      	lsls	r1, r1, #8
 8000134:	d065      	beq.n	8000202 <__udivsi3+0xfe>
 8000136:	0b03      	lsrs	r3, r0, #12
 8000138:	428b      	cmp	r3, r1
 800013a:	d319      	bcc.n	8000170 <__udivsi3+0x6c>
 800013c:	e000      	b.n	8000140 <__udivsi3+0x3c>
 800013e:	0a09      	lsrs	r1, r1, #8
 8000140:	0bc3      	lsrs	r3, r0, #15
 8000142:	428b      	cmp	r3, r1
 8000144:	d301      	bcc.n	800014a <__udivsi3+0x46>
 8000146:	03cb      	lsls	r3, r1, #15
 8000148:	1ac0      	subs	r0, r0, r3
 800014a:	4152      	adcs	r2, r2
 800014c:	0b83      	lsrs	r3, r0, #14
 800014e:	428b      	cmp	r3, r1
 8000150:	d301      	bcc.n	8000156 <__udivsi3+0x52>
 8000152:	038b      	lsls	r3, r1, #14
 8000154:	1ac0      	subs	r0, r0, r3
 8000156:	4152      	adcs	r2, r2
 8000158:	0b43      	lsrs	r3, r0, #13
 800015a:	428b      	cmp	r3, r1
 800015c:	d301      	bcc.n	8000162 <__udivsi3+0x5e>
 800015e:	034b      	lsls	r3, r1, #13
 8000160:	1ac0      	subs	r0, r0, r3
 8000162:	4152      	adcs	r2, r2
 8000164:	0b03      	lsrs	r3, r0, #12
 8000166:	428b      	cmp	r3, r1
 8000168:	d301      	bcc.n	800016e <__udivsi3+0x6a>
 800016a:	030b      	lsls	r3, r1, #12
 800016c:	1ac0      	subs	r0, r0, r3
 800016e:	4152      	adcs	r2, r2
 8000170:	0ac3      	lsrs	r3, r0, #11
 8000172:	428b      	cmp	r3, r1
 8000174:	d301      	bcc.n	800017a <__udivsi3+0x76>
 8000176:	02cb      	lsls	r3, r1, #11
 8000178:	1ac0      	subs	r0, r0, r3
 800017a:	4152      	adcs	r2, r2
 800017c:	0a83      	lsrs	r3, r0, #10
 800017e:	428b      	cmp	r3, r1
 8000180:	d301      	bcc.n	8000186 <__udivsi3+0x82>
 8000182:	028b      	lsls	r3, r1, #10
 8000184:	1ac0      	subs	r0, r0, r3
 8000186:	4152      	adcs	r2, r2
 8000188:	0a43      	lsrs	r3, r0, #9
 800018a:	428b      	cmp	r3, r1
 800018c:	d301      	bcc.n	8000192 <__udivsi3+0x8e>
 800018e:	024b      	lsls	r3, r1, #9
 8000190:	1ac0      	subs	r0, r0, r3
 8000192:	4152      	adcs	r2, r2
 8000194:	0a03      	lsrs	r3, r0, #8
 8000196:	428b      	cmp	r3, r1
 8000198:	d301      	bcc.n	800019e <__udivsi3+0x9a>
 800019a:	020b      	lsls	r3, r1, #8
 800019c:	1ac0      	subs	r0, r0, r3
 800019e:	4152      	adcs	r2, r2
 80001a0:	d2cd      	bcs.n	800013e <__udivsi3+0x3a>
 80001a2:	09c3      	lsrs	r3, r0, #7
 80001a4:	428b      	cmp	r3, r1
 80001a6:	d301      	bcc.n	80001ac <__udivsi3+0xa8>
 80001a8:	01cb      	lsls	r3, r1, #7
 80001aa:	1ac0      	subs	r0, r0, r3
 80001ac:	4152      	adcs	r2, r2
 80001ae:	0983      	lsrs	r3, r0, #6
 80001b0:	428b      	cmp	r3, r1
 80001b2:	d301      	bcc.n	80001b8 <__udivsi3+0xb4>
 80001b4:	018b      	lsls	r3, r1, #6
 80001b6:	1ac0      	subs	r0, r0, r3
 80001b8:	4152      	adcs	r2, r2
 80001ba:	0943      	lsrs	r3, r0, #5
 80001bc:	428b      	cmp	r3, r1
 80001be:	d301      	bcc.n	80001c4 <__udivsi3+0xc0>
 80001c0:	014b      	lsls	r3, r1, #5
 80001c2:	1ac0      	subs	r0, r0, r3
 80001c4:	4152      	adcs	r2, r2
 80001c6:	0903      	lsrs	r3, r0, #4
 80001c8:	428b      	cmp	r3, r1
 80001ca:	d301      	bcc.n	80001d0 <__udivsi3+0xcc>
 80001cc:	010b      	lsls	r3, r1, #4
 80001ce:	1ac0      	subs	r0, r0, r3
 80001d0:	4152      	adcs	r2, r2
 80001d2:	08c3      	lsrs	r3, r0, #3
 80001d4:	428b      	cmp	r3, r1
 80001d6:	d301      	bcc.n	80001dc <__udivsi3+0xd8>
 80001d8:	00cb      	lsls	r3, r1, #3
 80001da:	1ac0      	subs	r0, r0, r3
 80001dc:	4152      	adcs	r2, r2
 80001de:	0883      	lsrs	r3, r0, #2
 80001e0:	428b      	cmp	r3, r1
 80001e2:	d301      	bcc.n	80001e8 <__udivsi3+0xe4>
 80001e4:	008b      	lsls	r3, r1, #2
 80001e6:	1ac0      	subs	r0, r0, r3
 80001e8:	4152      	adcs	r2, r2
 80001ea:	0843      	lsrs	r3, r0, #1
 80001ec:	428b      	cmp	r3, r1
 80001ee:	d301      	bcc.n	80001f4 <__udivsi3+0xf0>
 80001f0:	004b      	lsls	r3, r1, #1
 80001f2:	1ac0      	subs	r0, r0, r3
 80001f4:	4152      	adcs	r2, r2
 80001f6:	1a41      	subs	r1, r0, r1
 80001f8:	d200      	bcs.n	80001fc <__udivsi3+0xf8>
 80001fa:	4601      	mov	r1, r0
 80001fc:	4152      	adcs	r2, r2
 80001fe:	4610      	mov	r0, r2
 8000200:	4770      	bx	lr
 8000202:	e7ff      	b.n	8000204 <__udivsi3+0x100>
 8000204:	b501      	push	{r0, lr}
 8000206:	2000      	movs	r0, #0
 8000208:	f000 f806 	bl	8000218 <__aeabi_idiv0>
 800020c:	bd02      	pop	{r1, pc}
 800020e:	46c0      	nop			@ (mov r8, r8)

08000210 <__aeabi_uidivmod>:
 8000210:	2900      	cmp	r1, #0
 8000212:	d0f7      	beq.n	8000204 <__udivsi3+0x100>
 8000214:	e776      	b.n	8000104 <__udivsi3>
 8000216:	4770      	bx	lr

08000218 <__aeabi_idiv0>:
 8000218:	4770      	bx	lr
 800021a:	46c0      	nop			@ (mov r8, r8)

0800021c <__aeabi_uldivmod>:
 800021c:	2b00      	cmp	r3, #0
 800021e:	d111      	bne.n	8000244 <__aeabi_uldivmod+0x28>
 8000220:	2a00      	cmp	r2, #0
 8000222:	d10f      	bne.n	8000244 <__aeabi_uldivmod+0x28>
 8000224:	2900      	cmp	r1, #0
 8000226:	d100      	bne.n	800022a <__aeabi_uldivmod+0xe>
 8000228:	2800      	cmp	r0, #0
 800022a:	d002      	beq.n	8000232 <__aeabi_uldivmod+0x16>
 800022c:	2100      	movs	r1, #0
 800022e:	43c9      	mvns	r1, r1
 8000230:	0008      	movs	r0, r1
 8000232:	b407      	push	{r0, r1, r2}
 8000234:	4802      	ldr	r0, [pc, #8]	@ (8000240 <__aeabi_uldivmod+0x24>)
 8000236:	a102      	add	r1, pc, #8	@ (adr r1, 8000240 <__aeabi_uldivmod+0x24>)
 8000238:	1840      	adds	r0, r0, r1
 800023a:	9002      	str	r0, [sp, #8]
 800023c:	bd03      	pop	{r0, r1, pc}
 800023e:	46c0      	nop			@ (mov r8, r8)
 8000240:	ffffffd9 	.word	0xffffffd9
 8000244:	b403      	push	{r0, r1}
 8000246:	4668      	mov	r0, sp
 8000248:	b501      	push	{r0, lr}
 800024a:	9802      	ldr	r0, [sp, #8]
 800024c:	f000 f806 	bl	800025c <__udivmoddi4>
 8000250:	9b01      	ldr	r3, [sp, #4]
 8000252:	469e      	mov	lr, r3
 8000254:	b002      	add	sp, #8
 8000256:	bc0c      	pop	{r2, r3}
 8000258:	4770      	bx	lr
 800025a:	46c0      	nop			@ (mov r8, r8)

0800025c <__udivmoddi4>:
 800025c:	b5f0      	push	{r4, r5, r6, r7, lr}
 800025e:	4657      	mov	r7, sl
 8000260:	464e      	mov	r6, r9
 8000262:	4645      	mov	r5, r8
 8000264:	46de      	mov	lr, fp
 8000266:	b5e0      	push	{r5, r6, r7, lr}
 8000268:	0004      	movs	r4, r0
 800026a:	000d      	movs	r5, r1
 800026c:	4692      	mov	sl, r2
 800026e:	4699      	mov	r9, r3
 8000270:	b083      	sub	sp, #12
 8000272:	428b      	cmp	r3, r1
 8000274:	d830      	bhi.n	80002d8 <__udivmoddi4+0x7c>
 8000276:	d02d      	beq.n	80002d4 <__udivmoddi4+0x78>
 8000278:	4649      	mov	r1, r9
 800027a:	4650      	mov	r0, sl
 800027c:	f000 f8ba 	bl	80003f4 <__clzdi2>
 8000280:	0029      	movs	r1, r5
 8000282:	0006      	movs	r6, r0
 8000284:	0020      	movs	r0, r4
 8000286:	f000 f8b5 	bl	80003f4 <__clzdi2>
 800028a:	1a33      	subs	r3, r6, r0
 800028c:	4698      	mov	r8, r3
 800028e:	3b20      	subs	r3, #32
 8000290:	d434      	bmi.n	80002fc <__udivmoddi4+0xa0>
 8000292:	469b      	mov	fp, r3
 8000294:	4653      	mov	r3, sl
 8000296:	465a      	mov	r2, fp
 8000298:	4093      	lsls	r3, r2
 800029a:	4642      	mov	r2, r8
 800029c:	001f      	movs	r7, r3
 800029e:	4653      	mov	r3, sl
 80002a0:	4093      	lsls	r3, r2
 80002a2:	001e      	movs	r6, r3
 80002a4:	42af      	cmp	r7, r5
 80002a6:	d83b      	bhi.n	8000320 <__udivmoddi4+0xc4>
 80002a8:	42af      	cmp	r7, r5
 80002aa:	d100      	bne.n	80002ae <__udivmoddi4+0x52>
 80002ac:	e079      	b.n	80003a2 <__udivmoddi4+0x146>
 80002ae:	465b      	mov	r3, fp
 80002b0:	1ba4      	subs	r4, r4, r6
 80002b2:	41bd      	sbcs	r5, r7
 80002b4:	2b00      	cmp	r3, #0
 80002b6:	da00      	bge.n	80002ba <__udivmoddi4+0x5e>
 80002b8:	e076      	b.n	80003a8 <__udivmoddi4+0x14c>
 80002ba:	2200      	movs	r2, #0
 80002bc:	2300      	movs	r3, #0
 80002be:	9200      	str	r2, [sp, #0]
 80002c0:	9301      	str	r3, [sp, #4]
 80002c2:	2301      	movs	r3, #1
 80002c4:	465a      	mov	r2, fp
 80002c6:	4093      	lsls	r3, r2
 80002c8:	9301      	str	r3, [sp, #4]
 80002ca:	2301      	movs	r3, #1
 80002cc:	4642      	mov	r2, r8
 80002ce:	4093      	lsls	r3, r2
 80002d0:	9300      	str	r3, [sp, #0]
 80002d2:	e029      	b.n	8000328 <__udivmoddi4+0xcc>
 80002d4:	4282      	cmp	r2, r0
 80002d6:	d9cf      	bls.n	8000278 <__udivmoddi4+0x1c>
 80002d8:	2200      	movs	r2, #0
 80002da:	2300      	movs	r3, #0
 80002dc:	9200      	str	r2, [sp, #0]
 80002de:	9301      	str	r3, [sp, #4]
 80002e0:	9b0c      	ldr	r3, [sp, #48]	@ 0x30
 80002e2:	2b00      	cmp	r3, #0
 80002e4:	d001      	beq.n	80002ea <__udivmoddi4+0x8e>
 80002e6:	601c      	str	r4, [r3, #0]
 80002e8:	605d      	str	r5, [r3, #4]
 80002ea:	9800      	ldr	r0, [sp, #0]
 80002ec:	9901      	ldr	r1, [sp, #4]
 80002ee:	b003      	add	sp, #12
 80002f0:	bcf0      	pop	{r4, r5, r6, r7}
 80002f2:	46bb      	mov	fp, r7
 80002f4:	46b2      	mov	sl, r6
 80002f6:	46a9      	mov	r9, r5
 80002f8:	46a0      	mov	r8, r4
 80002fa:	bdf0      	pop	{r4, r5, r6, r7, pc}
 80002fc:	4642      	mov	r2, r8
 80002fe:	469b      	mov	fp, r3
 8000300:	2320      	movs	r3, #32
 8000302:	1a9b      	subs	r3, r3, r2
 8000304:	4652      	mov	r2, sl
 8000306:	40da      	lsrs	r2, r3
 8000308:	4641      	mov	r1, r8
 800030a:	0013      	movs	r3, r2
 800030c:	464a      	mov	r2, r9
 800030e:	408a      	lsls	r2, r1
 8000310:	0017      	movs	r7, r2
 8000312:	4642      	mov	r2, r8
 8000314:	431f      	orrs	r7, r3
 8000316:	4653      	mov	r3, sl
 8000318:	4093      	lsls	r3, r2
 800031a:	001e      	movs	r6, r3
 800031c:	42af      	cmp	r7, r5
 800031e:	d9c3      	bls.n	80002a8 <__udivmoddi4+0x4c>
 8000320:	2200      	movs	r2, #0
 8000322:	2300      	movs	r3, #0
 8000324:	9200      	str	r2, [sp, #0]
 8000326:	9301      	str	r3, [sp, #4]
 8000328:	4643      	mov	r3, r8
 800032a:	2b00      	cmp	r3, #0
 800032c:	d0d8      	beq.n	80002e0 <__udivmoddi4+0x84>
 800032e:	07fb      	lsls	r3, r7, #31
 8000330:	0872      	lsrs	r2, r6, #1
 8000332:	431a      	orrs	r2, r3
 8000334:	4646      	mov	r6, r8
 8000336:	087b      	lsrs	r3, r7, #1
 8000338:	e00e      	b.n	8000358 <__udivmoddi4+0xfc>
 800033a:	42ab      	cmp	r3, r5
 800033c:	d101      	bne.n	8000342 <__udivmoddi4+0xe6>
 800033e:	42a2      	cmp	r2, r4
 8000340:	d80c      	bhi.n	800035c <__udivmoddi4+0x100>
 8000342:	1aa4      	subs	r4, r4, r2
 8000344:	419d      	sbcs	r5, r3
 8000346:	2001      	movs	r0, #1
 8000348:	1924      	adds	r4, r4, r4
 800034a:	416d      	adcs	r5, r5
 800034c:	2100      	movs	r1, #0
 800034e:	3e01      	subs	r6, #1
 8000350:	1824      	adds	r4, r4, r0
 8000352:	414d      	adcs	r5, r1
 8000354:	2e00      	cmp	r6, #0
 8000356:	d006      	beq.n	8000366 <__udivmoddi4+0x10a>
 8000358:	42ab      	cmp	r3, r5
 800035a:	d9ee      	bls.n	800033a <__udivmoddi4+0xde>
 800035c:	3e01      	subs	r6, #1
 800035e:	1924      	adds	r4, r4, r4
 8000360:	416d      	adcs	r5, r5
 8000362:	2e00      	cmp	r6, #0
 8000364:	d1f8      	bne.n	8000358 <__udivmoddi4+0xfc>
 8000366:	9800      	ldr	r0, [sp, #0]
 8000368:	9901      	ldr	r1, [sp, #4]
 800036a:	465b      	mov	r3, fp
 800036c:	1900      	adds	r0, r0, r4
 800036e:	4169      	adcs	r1, r5
 8000370:	2b00      	cmp	r3, #0
 8000372:	db24      	blt.n	80003be <__udivmoddi4+0x162>
 8000374:	002b      	movs	r3, r5
 8000376:	465a      	mov	r2, fp
 8000378:	4644      	mov	r4, r8
 800037a:	40d3      	lsrs	r3, r2
 800037c:	002a      	movs	r2, r5
 800037e:	40e2      	lsrs	r2, r4
 8000380:	001c      	movs	r4, r3
 8000382:	465b      	mov	r3, fp
 8000384:	0015      	movs	r5, r2
 8000386:	2b00      	cmp	r3, #0
 8000388:	db2a      	blt.n	80003e0 <__udivmoddi4+0x184>
 800038a:	0026      	movs	r6, r4
 800038c:	409e      	lsls	r6, r3
 800038e:	0033      	movs	r3, r6
 8000390:	0026      	movs	r6, r4
 8000392:	4647      	mov	r7, r8
 8000394:	40be      	lsls	r6, r7
 8000396:	0032      	movs	r2, r6
 8000398:	1a80      	subs	r0, r0, r2
 800039a:	4199      	sbcs	r1, r3
 800039c:	9000      	str	r0, [sp, #0]
 800039e:	9101      	str	r1, [sp, #4]
 80003a0:	e79e      	b.n	80002e0 <__udivmoddi4+0x84>
 80003a2:	42a3      	cmp	r3, r4
 80003a4:	d8bc      	bhi.n	8000320 <__udivmoddi4+0xc4>
 80003a6:	e782      	b.n	80002ae <__udivmoddi4+0x52>
 80003a8:	4642      	mov	r2, r8
 80003aa:	2320      	movs	r3, #32
 80003ac:	2100      	movs	r1, #0
 80003ae:	1a9b      	subs	r3, r3, r2
 80003b0:	2200      	movs	r2, #0
 80003b2:	9100      	str	r1, [sp, #0]
 80003b4:	9201      	str	r2, [sp, #4]
 80003b6:	2201      	movs	r2, #1
 80003b8:	40da      	lsrs	r2, r3
 80003ba:	9201      	str	r2, [sp, #4]
 80003bc:	e785      	b.n	80002ca <__udivmoddi4+0x6e>
 80003be:	4642      	mov	r2, r8
 80003c0:	2320      	movs	r3, #32
 80003c2:	1a9b      	subs	r3, r3, r2
 80003c4:	002a      	movs	r2, r5
 80003c6:	4646      	mov	r6, r8
 80003c8:	409a      	lsls	r2, r3
 80003ca:	0023      	movs	r3, r4
 80003cc:	40f3      	lsrs	r3, r6
 80003ce:	4644      	mov	r4, r8
 80003d0:	4313      	orrs	r3, r2
 80003d2:	002a      	movs	r2, r5
 80003d4:	40e2      	lsrs	r2, r4
 80003d6:	001c      	movs	r4, r3
 80003d8:	465b      	mov	r3, fp
 80003da:	0015      	movs	r5, r2
 80003dc:	2b00      	cmp	r3, #0
 80003de:	dad4      	bge.n	800038a <__udivmoddi4+0x12e>
 80003e0:	4642      	mov	r2, r8
 80003e2:	002f      	movs	r7, r5
 80003e4:	2320      	movs	r3, #32
 80003e6:	0026      	movs	r6, r4
 80003e8:	4097      	lsls	r7, r2
 80003ea:	1a9b      	subs	r3, r3, r2
 80003ec:	40de      	lsrs	r6, r3
 80003ee:	003b      	movs	r3, r7
 80003f0:	4333      	orrs	r3, r6
 80003f2:	e7cd      	b.n	8000390 <__udivmoddi4+0x134>

080003f4 <__clzdi2>:
 80003f4:	b510      	push	{r4, lr}
 80003f6:	2900      	cmp	r1, #0
 80003f8:	d103      	bne.n	8000402 <__clzdi2+0xe>
 80003fa:	f000 f807 	bl	800040c <__clzsi2>
 80003fe:	3020      	adds	r0, #32
 8000400:	e002      	b.n	8000408 <__clzdi2+0x14>
 8000402:	0008      	movs	r0, r1
 8000404:	f000 f802 	bl	800040c <__clzsi2>
 8000408:	bd10      	pop	{r4, pc}
 800040a:	46c0      	nop			@ (mov r8, r8)

0800040c <__clzsi2>:
 800040c:	211c      	movs	r1, #28
 800040e:	2301      	movs	r3, #1
 8000410:	041b      	lsls	r3, r3, #16
 8000412:	4298      	cmp	r0, r3
 8000414:	d301      	bcc.n	800041a <__clzsi2+0xe>
 8000416:	0c00      	lsrs	r0, r0, #16
 8000418:	3910      	subs	r1, #16
 800041a:	0a1b      	lsrs	r3, r3, #8
 800041c:	4298      	cmp	r0, r3
 800041e:	d301      	bcc.n	8000424 <__clzsi2+0x18>
 8000420:	0a00      	lsrs	r0, r0, #8
 8000422:	3908      	subs	r1, #8
 8000424:	091b      	lsrs	r3, r3, #4
 8000426:	4298      	cmp	r0, r3
 8000428:	d301      	bcc.n	800042e <__clzsi2+0x22>
 800042a:	0900      	lsrs	r0, r0, #4
 800042c:	3904      	subs	r1, #4
 800042e:	a202      	add	r2, pc, #8	@ (adr r2, 8000438 <__clzsi2+0x2c>)
 8000430:	5c10      	ldrb	r0, [r2, r0]
 8000432:	1840      	adds	r0, r0, r1
 8000434:	4770      	bx	lr
 8000436:	46c0      	nop			@ (mov r8, r8)
 8000438:	02020304 	.word	0x02020304
 800043c:	01010101 	.word	0x01010101
	...

08000448 <Start_UART_Receive>:
//VARIABLE DEFINITIONS
volatile char rx_buffer[1] = {0};
volatile enum Validate UART_DMA_TX_is_complete = YES;

//FUNCTION DEFINITIONS
uint8_t Start_UART_Receive(void){
 8000448:	b510      	push	{r4, lr}

	//START UART RECEIVE
	HAL_UART_Receive_DMA(&huart2, (uint8_t*)rx_buffer, sizeof(rx_buffer));
 800044a:	2201      	movs	r2, #1
 800044c:	4902      	ldr	r1, [pc, #8]	@ (8000458 <Start_UART_Receive+0x10>)
 800044e:	4803      	ldr	r0, [pc, #12]	@ (800045c <Start_UART_Receive+0x14>)
 8000450:	f005 fb38 	bl	8005ac4 <HAL_UART_Receive_DMA>

	return 1;
}
 8000454:	2001      	movs	r0, #1
 8000456:	bd10      	pop	{r4, pc}
 8000458:	20000434 	.word	0x20000434
 800045c:	20000554 	.word	0x20000554

08000460 <Speed_Pot_Check>:
#include "checking_functions.h"

//VARIABLE DEFINITIONS

//FUNCTION DEFINITIONS
uint8_t Speed_Pot_Check(struct Params* params_ptr){
 8000460:	b510      	push	{r4, lr}

	static uint16_t first_speed_measurement;

	static uint16_t second_speed_measurement;

	if(speed_pot_adc_measurement_num == 0){
 8000462:	4b1b      	ldr	r3, [pc, #108]	@ (80004d0 <Speed_Pot_Check+0x70>)
 8000464:	781a      	ldrb	r2, [r3, #0]
 8000466:	2a00      	cmp	r2, #0
 8000468:	d108      	bne.n	800047c <Speed_Pot_Check+0x1c>

		first_speed_measurement = params_ptr->speed;
 800046a:	8901      	ldrh	r1, [r0, #8]
 800046c:	4a19      	ldr	r2, [pc, #100]	@ (80004d4 <Speed_Pot_Check+0x74>)

		speed_pot_adc_measurement_num++;
	}
	else if(speed_pot_adc_measurement_num == 1){

		second_speed_measurement = params_ptr->speed;
 800046e:	8011      	strh	r1, [r2, #0]

		speed_pot_adc_measurement_num++;
 8000470:	781a      	ldrb	r2, [r3, #0]
 8000472:	3201      	adds	r2, #1
 8000474:	b2d2      	uxtb	r2, r2
 8000476:	701a      	strb	r2, [r3, #0]
				Clear_Status_Bit(&statuses, IP_CAP_Events_Detection_Timeout);
			}
		}
	}
	return 1;
}
 8000478:	2001      	movs	r0, #1
 800047a:	bd10      	pop	{r4, pc}
	else if(speed_pot_adc_measurement_num == 1){
 800047c:	781a      	ldrb	r2, [r3, #0]
 800047e:	2a01      	cmp	r2, #1
 8000480:	d012      	beq.n	80004a8 <Speed_Pot_Check+0x48>
	else if(speed_pot_adc_measurement_num == 2){
 8000482:	781a      	ldrb	r2, [r3, #0]
 8000484:	2a02      	cmp	r2, #2
 8000486:	d1f7      	bne.n	8000478 <Speed_Pot_Check+0x18>
		speed_pot_adc_measurement_num = 0;
 8000488:	2100      	movs	r1, #0
		if(first_speed_measurement > second_speed_measurement){
 800048a:	4a13      	ldr	r2, [pc, #76]	@ (80004d8 <Speed_Pot_Check+0x78>)
		speed_pot_adc_measurement_num = 0;
 800048c:	7019      	strb	r1, [r3, #0]
		if(first_speed_measurement > second_speed_measurement){
 800048e:	4b11      	ldr	r3, [pc, #68]	@ (80004d4 <Speed_Pot_Check+0x74>)
 8000490:	8812      	ldrh	r2, [r2, #0]
 8000492:	881b      	ldrh	r3, [r3, #0]
 8000494:	4293      	cmp	r3, r2
 8000496:	d90a      	bls.n	80004ae <Speed_Pot_Check+0x4e>
			if(first_speed_measurement - second_speed_measurement > SPEED_TOLERANCE){
 8000498:	1a9b      	subs	r3, r3, r2
 800049a:	2b06      	cmp	r3, #6
 800049c:	ddec      	ble.n	8000478 <Speed_Pot_Check+0x18>
				state = STATE_0;
 800049e:	4b0f      	ldr	r3, [pc, #60]	@ (80004dc <Speed_Pot_Check+0x7c>)
				Clear_Status_Bit(&statuses, First_Sync_Complete);
 80004a0:	4c0f      	ldr	r4, [pc, #60]	@ (80004e0 <Speed_Pot_Check+0x80>)
				state = STATE_0;
 80004a2:	7019      	strb	r1, [r3, #0]
				Clear_Status_Bit(&statuses, First_Sync_Complete);
 80004a4:	3108      	adds	r1, #8
 80004a6:	e00b      	b.n	80004c0 <Speed_Pot_Check+0x60>
		second_speed_measurement = params_ptr->speed;
 80004a8:	8901      	ldrh	r1, [r0, #8]
 80004aa:	4a0b      	ldr	r2, [pc, #44]	@ (80004d8 <Speed_Pot_Check+0x78>)
 80004ac:	e7df      	b.n	800046e <Speed_Pot_Check+0xe>
		else if(second_speed_measurement > first_speed_measurement){
 80004ae:	4293      	cmp	r3, r2
 80004b0:	d2e2      	bcs.n	8000478 <Speed_Pot_Check+0x18>
			if(second_speed_measurement - first_speed_measurement > SPEED_TOLERANCE){
 80004b2:	1ad2      	subs	r2, r2, r3
 80004b4:	2a06      	cmp	r2, #6
 80004b6:	dddf      	ble.n	8000478 <Speed_Pot_Check+0x18>
				state = STATE_0;
 80004b8:	4b08      	ldr	r3, [pc, #32]	@ (80004dc <Speed_Pot_Check+0x7c>)
				Clear_Status_Bit(&statuses, First_Sync_Complete);
 80004ba:	4c09      	ldr	r4, [pc, #36]	@ (80004e0 <Speed_Pot_Check+0x80>)
				state = STATE_0;
 80004bc:	7019      	strb	r1, [r3, #0]
				Clear_Status_Bit(&statuses, First_Sync_Complete);
 80004be:	2108      	movs	r1, #8
 80004c0:	0020      	movs	r0, r4
 80004c2:	f001 fd2b 	bl	8001f1c <Clear_Status_Bit>
				Clear_Status_Bit(&statuses, IP_CAP_Events_Detection_Timeout);
 80004c6:	2120      	movs	r1, #32
 80004c8:	0020      	movs	r0, r4
 80004ca:	f001 fd27 	bl	8001f1c <Clear_Status_Bit>
 80004ce:	e7d3      	b.n	8000478 <Speed_Pot_Check+0x18>
 80004d0:	2000043a 	.word	0x2000043a
 80004d4:	20000438 	.word	0x20000438
 80004d8:	20000436 	.word	0x20000436
 80004dc:	20000bf2 	.word	0x20000bf2
 80004e0:	20000b78 	.word	0x20000b78

080004e4 <Check_Tap_Tempo_Switch_State>:

uint8_t Check_Tap_Tempo_Switch_State(volatile struct Tap_Tempo_Switch_States *tap_tempo_switch_states_ptr){
 80004e4:	b510      	push	{r4, lr}

	static uint8_t extend_rising_edge = 0;
	static uint8_t tap_tempo_switch_state_counter = TAP_TEMPO_SWITCH_CONFIDENCE_COUNT;

	uint8_t switch_state = (uint8_t)HAL_GPIO_ReadPin(SW_IN_GPIO_Port, SW_IN_Pin);
 80004e6:	2180      	movs	r1, #128	@ 0x80
uint8_t Check_Tap_Tempo_Switch_State(volatile struct Tap_Tempo_Switch_States *tap_tempo_switch_states_ptr){
 80004e8:	0004      	movs	r4, r0
	uint8_t switch_state = (uint8_t)HAL_GPIO_ReadPin(SW_IN_GPIO_Port, SW_IN_Pin);
 80004ea:	20a0      	movs	r0, #160	@ 0xa0
 80004ec:	00c9      	lsls	r1, r1, #3
 80004ee:	05c0      	lsls	r0, r0, #23
 80004f0:	f002 fe02 	bl	80030f8 <HAL_GPIO_ReadPin>

	if(switch_state == 0){
 80004f4:	2800      	cmp	r0, #0
 80004f6:	d10d      	bne.n	8000514 <Check_Tap_Tempo_Switch_State+0x30>

		if(tap_tempo_switch_state_counter != 0){
 80004f8:	4a11      	ldr	r2, [pc, #68]	@ (8000540 <Check_Tap_Tempo_Switch_State+0x5c>)
 80004fa:	7813      	ldrb	r3, [r2, #0]
 80004fc:	2b00      	cmp	r3, #0
 80004fe:	d015      	beq.n	800052c <Check_Tap_Tempo_Switch_State+0x48>

			tap_tempo_switch_state_counter--;
 8000500:	3b01      	subs	r3, #1
 8000502:	b2db      	uxtb	r3, r3
 8000504:	7013      	strb	r3, [r2, #0]
				extend_rising_edge++;
			}
		}
	}

	if(tap_tempo_switch_state_counter == 0){
 8000506:	2b00      	cmp	r3, #0
 8000508:	d010      	beq.n	800052c <Check_Tap_Tempo_Switch_State+0x48>

		tap_tempo_switch_states_ptr->tap_tempo_switch_state = DEPRESSED;
	}
	else if(tap_tempo_switch_state_counter == TAP_TEMPO_SWITCH_CONFIDENCE_COUNT){
 800050a:	2b07      	cmp	r3, #7
 800050c:	d110      	bne.n	8000530 <Check_Tap_Tempo_Switch_State+0x4c>

		tap_tempo_switch_states_ptr->tap_tempo_switch_state = NOT_DEPRESSED;
 800050e:	2300      	movs	r3, #0
 8000510:	7023      	strb	r3, [r4, #0]
 8000512:	e00d      	b.n	8000530 <Check_Tap_Tempo_Switch_State+0x4c>
		if(tap_tempo_switch_state_counter != TAP_TEMPO_SWITCH_CONFIDENCE_COUNT){
 8000514:	490a      	ldr	r1, [pc, #40]	@ (8000540 <Check_Tap_Tempo_Switch_State+0x5c>)
 8000516:	780b      	ldrb	r3, [r1, #0]
 8000518:	2b07      	cmp	r3, #7
 800051a:	d0f8      	beq.n	800050e <Check_Tap_Tempo_Switch_State+0x2a>
			if(extend_rising_edge == COUNT_TO_DELAY_RISING_TAP_TEMPO_EDGE){
 800051c:	4809      	ldr	r0, [pc, #36]	@ (8000544 <Check_Tap_Tempo_Switch_State+0x60>)
 800051e:	7802      	ldrb	r2, [r0, #0]
 8000520:	2a23      	cmp	r2, #35	@ 0x23
 8000522:	d007      	beq.n	8000534 <Check_Tap_Tempo_Switch_State+0x50>
				extend_rising_edge++;
 8000524:	3201      	adds	r2, #1
 8000526:	7002      	strb	r2, [r0, #0]
	if(tap_tempo_switch_state_counter == 0){
 8000528:	2b00      	cmp	r3, #0
 800052a:	d101      	bne.n	8000530 <Check_Tap_Tempo_Switch_State+0x4c>
		tap_tempo_switch_states_ptr->tap_tempo_switch_state = DEPRESSED;
 800052c:	2301      	movs	r3, #1
 800052e:	7023      	strb	r3, [r4, #0]
	}

	return 1;
}
 8000530:	2001      	movs	r0, #1
 8000532:	bd10      	pop	{r4, pc}
				extend_rising_edge = 0;
 8000534:	2200      	movs	r2, #0
				tap_tempo_switch_state_counter++;
 8000536:	3301      	adds	r3, #1
 8000538:	b2db      	uxtb	r3, r3
 800053a:	700b      	strb	r3, [r1, #0]
				extend_rising_edge = 0;
 800053c:	7002      	strb	r2, [r0, #0]
 800053e:	e7e2      	b.n	8000506 <Check_Tap_Tempo_Switch_State+0x22>
 8000540:	20000001 	.word	0x20000001
 8000544:	20000435 	.word	0x20000435

08000548 <Start_Timeout_Timer>:

uint8_t Start_Timeout_Timer(void){

	__HAL_TIM_SET_COUNTER(&htim14, 0);
 8000548:	2200      	movs	r2, #0
uint8_t Start_Timeout_Timer(void){
 800054a:	b510      	push	{r4, lr}
	__HAL_TIM_SET_COUNTER(&htim14, 0);
 800054c:	4803      	ldr	r0, [pc, #12]	@ (800055c <Start_Timeout_Timer+0x14>)
	Start_OC_TIM(&htim14, TIM_CHANNEL_1);
 800054e:	2100      	movs	r1, #0
	__HAL_TIM_SET_COUNTER(&htim14, 0);
 8000550:	6803      	ldr	r3, [r0, #0]
 8000552:	625a      	str	r2, [r3, #36]	@ 0x24
	Start_OC_TIM(&htim14, TIM_CHANNEL_1);
 8000554:	f001 fca0 	bl	8001e98 <Start_OC_TIM>

	return 1;
}
 8000558:	2001      	movs	r0, #1
 800055a:	bd10      	pop	{r4, pc}
 800055c:	200009cc 	.word	0x200009cc

08000560 <Reset_Timeout_Timer>:

uint8_t Reset_Timeout_Timer(void){

	__HAL_TIM_SET_COUNTER(&htim14, 0);
 8000560:	2200      	movs	r2, #0
 8000562:	4b02      	ldr	r3, [pc, #8]	@ (800056c <Reset_Timeout_Timer+0xc>)

	return 1;
}
 8000564:	2001      	movs	r0, #1
	__HAL_TIM_SET_COUNTER(&htim14, 0);
 8000566:	681b      	ldr	r3, [r3, #0]
 8000568:	625a      	str	r2, [r3, #36]	@ 0x24
}
 800056a:	4770      	bx	lr
 800056c:	200009cc 	.word	0x200009cc

08000570 <Stop_Timeout_Timer>:

uint8_t Stop_Timeout_Timer(void){
 8000570:	b510      	push	{r4, lr}

	Stop_OC_TIM(&htim14, TIM_CHANNEL_1);
 8000572:	2100      	movs	r1, #0
 8000574:	4802      	ldr	r0, [pc, #8]	@ (8000580 <Stop_Timeout_Timer+0x10>)
 8000576:	f001 fc99 	bl	8001eac <Stop_OC_TIM>

	return 1;
}
 800057a:	2001      	movs	r0, #1
 800057c:	bd10      	pop	{r4, pc}
 800057e:	46c0      	nop			@ (mov r8, r8)
 8000580:	200009cc 	.word	0x200009cc

08000584 <SystemClock_Config>:

LPTIM_HandleTypeDef hlptim1;

//FUNCTIONS
void SystemClock_Config(void)
{
 8000584:	b500      	push	{lr}
 8000586:	b093      	sub	sp, #76	@ 0x4c
  RCC_OscInitTypeDef RCC_OscInitStruct = {0};
 8000588:	2238      	movs	r2, #56	@ 0x38
 800058a:	2100      	movs	r1, #0
 800058c:	a804      	add	r0, sp, #16
 800058e:	f006 f855 	bl	800663c <memset>
  RCC_ClkInitTypeDef RCC_ClkInitStruct = {0};
 8000592:	2210      	movs	r2, #16
 8000594:	2100      	movs	r1, #0
 8000596:	4668      	mov	r0, sp
 8000598:	f006 f850 	bl	800663c <memset>

  /** Configure the main internal regulator output voltage
  */
  HAL_PWREx_ControlVoltageScaling(PWR_REGULATOR_VOLTAGE_SCALE1);
 800059c:	2080      	movs	r0, #128	@ 0x80
 800059e:	0080      	lsls	r0, r0, #2
 80005a0:	f003 f83e 	bl	8003620 <HAL_PWREx_ControlVoltageScaling>

  /** Initializes the RCC Oscillators according to the specified parameters
  * in the RCC_OscInitTypeDef structure.
  */
  RCC_OscInitStruct.OscillatorType = RCC_OSCILLATORTYPE_HSI;
 80005a4:	2302      	movs	r3, #2
 80005a6:	9304      	str	r3, [sp, #16]
  RCC_OscInitStruct.HSIState = RCC_HSI_ON;
  RCC_OscInitStruct.HSIDiv = RCC_HSI_DIV1;
  RCC_OscInitStruct.HSICalibrationValue = RCC_HSICALIBRATION_DEFAULT;
  RCC_OscInitStruct.PLL.PLLState = RCC_PLL_ON;
 80005a8:	930b      	str	r3, [sp, #44]	@ 0x2c
  RCC_OscInitStruct.PLL.PLLSource = RCC_PLLSOURCE_HSI;
 80005aa:	930c      	str	r3, [sp, #48]	@ 0x30
  RCC_OscInitStruct.PLL.PLLM = RCC_PLLM_DIV1;
  RCC_OscInitStruct.PLL.PLLN = 8;
 80005ac:	3306      	adds	r3, #6
 80005ae:	930e      	str	r3, [sp, #56]	@ 0x38
  RCC_OscInitStruct.PLL.PLLP = RCC_PLLP_DIV2;
 80005b0:	2380      	movs	r3, #128	@ 0x80
 80005b2:	029b      	lsls	r3, r3, #10
 80005b4:	930f      	str	r3, [sp, #60]	@ 0x3c
  RCC_OscInitStruct.PLL.PLLQ = RCC_PLLQ_DIV4;
 80005b6:	23c0      	movs	r3, #192	@ 0xc0
  RCC_OscInitStruct.HSIState = RCC_HSI_ON;
 80005b8:	2280      	movs	r2, #128	@ 0x80
  RCC_OscInitStruct.PLL.PLLQ = RCC_PLLQ_DIV4;
 80005ba:	04db      	lsls	r3, r3, #19
  RCC_OscInitStruct.HSIState = RCC_HSI_ON;
 80005bc:	0052      	lsls	r2, r2, #1
  RCC_OscInitStruct.PLL.PLLQ = RCC_PLLQ_DIV4;
 80005be:	9310      	str	r3, [sp, #64]	@ 0x40
  RCC_OscInitStruct.PLL.PLLR = RCC_PLLR_DIV2;
 80005c0:	2380      	movs	r3, #128	@ 0x80
  RCC_OscInitStruct.HSICalibrationValue = RCC_HSICALIBRATION_DEFAULT;
 80005c2:	2140      	movs	r1, #64	@ 0x40
  RCC_OscInitStruct.HSIState = RCC_HSI_ON;
 80005c4:	9207      	str	r2, [sp, #28]
  RCC_OscInitStruct.HSIDiv = RCC_HSI_DIV1;
 80005c6:	2200      	movs	r2, #0
  RCC_OscInitStruct.PLL.PLLR = RCC_PLLR_DIV2;
 80005c8:	059b      	lsls	r3, r3, #22
  if (HAL_RCC_OscConfig(&RCC_OscInitStruct) != HAL_OK)
 80005ca:	a804      	add	r0, sp, #16
  RCC_OscInitStruct.HSIDiv = RCC_HSI_DIV1;
 80005cc:	9208      	str	r2, [sp, #32]
  RCC_OscInitStruct.HSICalibrationValue = RCC_HSICALIBRATION_DEFAULT;
 80005ce:	9109      	str	r1, [sp, #36]	@ 0x24
  RCC_OscInitStruct.PLL.PLLM = RCC_PLLM_DIV1;
 80005d0:	920d      	str	r2, [sp, #52]	@ 0x34
  RCC_OscInitStruct.PLL.PLLR = RCC_PLLR_DIV2;
 80005d2:	9311      	str	r3, [sp, #68]	@ 0x44
  if (HAL_RCC_OscConfig(&RCC_OscInitStruct) != HAL_OK)
 80005d4:	f003 f854 	bl	8003680 <HAL_RCC_OscConfig>
 80005d8:	2800      	cmp	r0, #0
 80005da:	d001      	beq.n	80005e0 <SystemClock_Config+0x5c>
  \details Disables IRQ interrupts by setting the I-bit in the CPSR.
           Can only be executed in Privileged modes.
 */
__STATIC_FORCEINLINE void __disable_irq(void)
{
  __ASM volatile ("cpsid i" : : : "memory");
 80005dc:	b672      	cpsid	i

void Error_Handler(void)
{
  /* User can add his own implementation to report the HAL error return state */
  __disable_irq();
  while (1)
 80005de:	e7fe      	b.n	80005de <SystemClock_Config+0x5a>
  RCC_ClkInitStruct.ClockType = RCC_CLOCKTYPE_HCLK|RCC_CLOCKTYPE_SYSCLK
 80005e0:	2207      	movs	r2, #7
 80005e2:	2302      	movs	r3, #2
 80005e4:	9200      	str	r2, [sp, #0]
 80005e6:	9301      	str	r3, [sp, #4]
 80005e8:	2200      	movs	r2, #0
 80005ea:	2300      	movs	r3, #0
  if (HAL_RCC_ClockConfig(&RCC_ClkInitStruct, FLASH_LATENCY_2) != HAL_OK)
 80005ec:	2102      	movs	r1, #2
 80005ee:	4668      	mov	r0, sp
  RCC_ClkInitStruct.ClockType = RCC_CLOCKTYPE_HCLK|RCC_CLOCKTYPE_SYSCLK
 80005f0:	9202      	str	r2, [sp, #8]
 80005f2:	9303      	str	r3, [sp, #12]
  if (HAL_RCC_ClockConfig(&RCC_ClkInitStruct, FLASH_LATENCY_2) != HAL_OK)
 80005f4:	f003 fafa 	bl	8003bec <HAL_RCC_ClockConfig>
 80005f8:	2800      	cmp	r0, #0
 80005fa:	d001      	beq.n	8000600 <SystemClock_Config+0x7c>
 80005fc:	b672      	cpsid	i
  while (1)
 80005fe:	e7fe      	b.n	80005fe <SystemClock_Config+0x7a>
}
 8000600:	b013      	add	sp, #76	@ 0x4c
 8000602:	bd00      	pop	{pc}

08000604 <MX_ADC1_Init>:
{
 8000604:	b530      	push	{r4, r5, lr}
 8000606:	b085      	sub	sp, #20
  ADC_ChannelConfTypeDef sConfig = {0};
 8000608:	220c      	movs	r2, #12
 800060a:	2100      	movs	r1, #0
 800060c:	a801      	add	r0, sp, #4
 800060e:	f006 f815 	bl	800663c <memset>
  hadc1.Instance = ADC1;
 8000612:	4c33      	ldr	r4, [pc, #204]	@ (80006e0 <MX_ADC1_Init+0xdc>)
 8000614:	4b33      	ldr	r3, [pc, #204]	@ (80006e4 <MX_ADC1_Init+0xe0>)
  hadc1.Init.ScanConvMode = ADC_SCAN_ENABLE;
 8000616:	2280      	movs	r2, #128	@ 0x80
  hadc1.Instance = ADC1;
 8000618:	6023      	str	r3, [r4, #0]
  hadc1.Init.ClockPrescaler = ADC_CLOCK_SYNC_PCLK_DIV2;
 800061a:	2380      	movs	r3, #128	@ 0x80
  hadc1.Init.NbrOfConversion = 5;
 800061c:	2105      	movs	r1, #5
  hadc1.Init.ScanConvMode = ADC_SCAN_ENABLE;
 800061e:	0392      	lsls	r2, r2, #14
 8000620:	6122      	str	r2, [r4, #16]
  hadc1.Init.LowPowerAutoWait = DISABLE;
 8000622:	2200      	movs	r2, #0
  hadc1.Init.ClockPrescaler = ADC_CLOCK_SYNC_PCLK_DIV2;
 8000624:	05db      	lsls	r3, r3, #23
  hadc1.Init.EOCSelection = ADC_EOC_SEQ_CONV;
 8000626:	2508      	movs	r5, #8
  hadc1.Init.ClockPrescaler = ADC_CLOCK_SYNC_PCLK_DIV2;
 8000628:	6063      	str	r3, [r4, #4]
  hadc1.Init.Resolution = ADC_RESOLUTION_12B;
 800062a:	2300      	movs	r3, #0
  hadc1.Init.NbrOfConversion = 5;
 800062c:	61e1      	str	r1, [r4, #28]
  hadc1.Init.DiscontinuousConvMode = DISABLE;
 800062e:	311b      	adds	r1, #27
 8000630:	5462      	strb	r2, [r4, r1]
  hadc1.Init.DMAContinuousRequests = DISABLE;
 8000632:	310c      	adds	r1, #12
 8000634:	5462      	strb	r2, [r4, r1]
  if (HAL_ADC_Init(&hadc1) != HAL_OK)
 8000636:	0020      	movs	r0, r4
  hadc1.Init.OversamplingMode = DISABLE;
 8000638:	3110      	adds	r1, #16
  hadc1.Init.Resolution = ADC_RESOLUTION_12B;
 800063a:	60a3      	str	r3, [r4, #8]
  hadc1.Init.DataAlign = ADC_DATAALIGN_RIGHT;
 800063c:	60e3      	str	r3, [r4, #12]
  hadc1.Init.EOCSelection = ADC_EOC_SEQ_CONV;
 800063e:	6165      	str	r5, [r4, #20]
  hadc1.Init.LowPowerAutoWait = DISABLE;
 8000640:	8323      	strh	r3, [r4, #24]
  hadc1.Init.ContinuousConvMode = DISABLE;
 8000642:	76a2      	strb	r2, [r4, #26]
  hadc1.Init.ExternalTrigConv = ADC_SOFTWARE_START;
 8000644:	6263      	str	r3, [r4, #36]	@ 0x24
  hadc1.Init.ExternalTrigConvEdge = ADC_EXTERNALTRIGCONVEDGE_NONE;
 8000646:	62a3      	str	r3, [r4, #40]	@ 0x28
  hadc1.Init.Overrun = ADC_OVR_DATA_PRESERVED;
 8000648:	6323      	str	r3, [r4, #48]	@ 0x30
  hadc1.Init.SamplingTimeCommon1 = ADC_SAMPLETIME_1CYCLE_5;
 800064a:	6363      	str	r3, [r4, #52]	@ 0x34
  hadc1.Init.SamplingTimeCommon2 = ADC_SAMPLETIME_1CYCLE_5;
 800064c:	63a3      	str	r3, [r4, #56]	@ 0x38
  hadc1.Init.OversamplingMode = DISABLE;
 800064e:	5462      	strb	r2, [r4, r1]
  hadc1.Init.TriggerFrequencyMode = ADC_TRIGGER_FREQ_HIGH;
 8000650:	64e3      	str	r3, [r4, #76]	@ 0x4c
  if (HAL_ADC_Init(&hadc1) != HAL_OK)
 8000652:	f001 fd39 	bl	80020c8 <HAL_ADC_Init>
 8000656:	2800      	cmp	r0, #0
 8000658:	d001      	beq.n	800065e <MX_ADC1_Init+0x5a>
 800065a:	b672      	cpsid	i
  while (1)
 800065c:	e7fe      	b.n	800065c <MX_ADC1_Init+0x58>
  sConfig.Channel = ADC_CHANNEL_0;
 800065e:	2301      	movs	r3, #1
  sConfig.Rank = ADC_REGULAR_RANK_1;
 8000660:	9002      	str	r0, [sp, #8]
  sConfig.SamplingTime = ADC_SAMPLINGTIME_COMMON_1;
 8000662:	9003      	str	r0, [sp, #12]
  if (HAL_ADC_ConfigChannel(&hadc1, &sConfig) != HAL_OK)
 8000664:	a901      	add	r1, sp, #4
 8000666:	0020      	movs	r0, r4
  sConfig.Channel = ADC_CHANNEL_0;
 8000668:	9301      	str	r3, [sp, #4]
  if (HAL_ADC_ConfigChannel(&hadc1, &sConfig) != HAL_OK)
 800066a:	f001 fea7 	bl	80023bc <HAL_ADC_ConfigChannel>
 800066e:	2800      	cmp	r0, #0
 8000670:	d001      	beq.n	8000676 <MX_ADC1_Init+0x72>
 8000672:	b672      	cpsid	i
  while (1)
 8000674:	e7fe      	b.n	8000674 <MX_ADC1_Init+0x70>
  sConfig.Channel = ADC_CHANNEL_1;
 8000676:	4b1c      	ldr	r3, [pc, #112]	@ (80006e8 <MX_ADC1_Init+0xe4>)
  sConfig.SamplingTime = ADC_SAMPLINGTIME_COMMON_1;
 8000678:	9003      	str	r0, [sp, #12]
  sConfig.Channel = ADC_CHANNEL_1;
 800067a:	9301      	str	r3, [sp, #4]
  sConfig.Rank = ADC_REGULAR_RANK_2;
 800067c:	2304      	movs	r3, #4
  if (HAL_ADC_ConfigChannel(&hadc1, &sConfig) != HAL_OK)
 800067e:	0020      	movs	r0, r4
 8000680:	a901      	add	r1, sp, #4
  sConfig.Rank = ADC_REGULAR_RANK_2;
 8000682:	9302      	str	r3, [sp, #8]
  if (HAL_ADC_ConfigChannel(&hadc1, &sConfig) != HAL_OK)
 8000684:	f001 fe9a 	bl	80023bc <HAL_ADC_ConfigChannel>
 8000688:	2800      	cmp	r0, #0
 800068a:	d001      	beq.n	8000690 <MX_ADC1_Init+0x8c>
 800068c:	b672      	cpsid	i
  while (1)
 800068e:	e7fe      	b.n	800068e <MX_ADC1_Init+0x8a>
  sConfig.Channel = ADC_CHANNEL_4;
 8000690:	4b16      	ldr	r3, [pc, #88]	@ (80006ec <MX_ADC1_Init+0xe8>)
  sConfig.SamplingTime = ADC_SAMPLINGTIME_COMMON_1;
 8000692:	9003      	str	r0, [sp, #12]
  if (HAL_ADC_ConfigChannel(&hadc1, &sConfig) != HAL_OK)
 8000694:	a901      	add	r1, sp, #4
 8000696:	0020      	movs	r0, r4
  sConfig.Channel = ADC_CHANNEL_4;
 8000698:	9301      	str	r3, [sp, #4]
  sConfig.Rank = ADC_REGULAR_RANK_3;
 800069a:	9502      	str	r5, [sp, #8]
  if (HAL_ADC_ConfigChannel(&hadc1, &sConfig) != HAL_OK)
 800069c:	f001 fe8e 	bl	80023bc <HAL_ADC_ConfigChannel>
 80006a0:	2800      	cmp	r0, #0
 80006a2:	d001      	beq.n	80006a8 <MX_ADC1_Init+0xa4>
 80006a4:	b672      	cpsid	i
  while (1)
 80006a6:	e7fe      	b.n	80006a6 <MX_ADC1_Init+0xa2>
  sConfig.Channel = ADC_CHANNEL_5;
 80006a8:	4b11      	ldr	r3, [pc, #68]	@ (80006f0 <MX_ADC1_Init+0xec>)
  sConfig.SamplingTime = ADC_SAMPLINGTIME_COMMON_1;
 80006aa:	9003      	str	r0, [sp, #12]
  sConfig.Channel = ADC_CHANNEL_5;
 80006ac:	9301      	str	r3, [sp, #4]
  sConfig.Rank = ADC_REGULAR_RANK_4;
 80006ae:	230c      	movs	r3, #12
  if (HAL_ADC_ConfigChannel(&hadc1, &sConfig) != HAL_OK)
 80006b0:	0020      	movs	r0, r4
 80006b2:	a901      	add	r1, sp, #4
  sConfig.Rank = ADC_REGULAR_RANK_4;
 80006b4:	9302      	str	r3, [sp, #8]
  if (HAL_ADC_ConfigChannel(&hadc1, &sConfig) != HAL_OK)
 80006b6:	f001 fe81 	bl	80023bc <HAL_ADC_ConfigChannel>
 80006ba:	2800      	cmp	r0, #0
 80006bc:	d001      	beq.n	80006c2 <MX_ADC1_Init+0xbe>
 80006be:	b672      	cpsid	i
  while (1)
 80006c0:	e7fe      	b.n	80006c0 <MX_ADC1_Init+0xbc>
  sConfig.Channel = ADC_CHANNEL_6;
 80006c2:	4b0c      	ldr	r3, [pc, #48]	@ (80006f4 <MX_ADC1_Init+0xf0>)
  sConfig.SamplingTime = ADC_SAMPLINGTIME_COMMON_1;
 80006c4:	9003      	str	r0, [sp, #12]
  sConfig.Channel = ADC_CHANNEL_6;
 80006c6:	9301      	str	r3, [sp, #4]
  sConfig.Rank = ADC_REGULAR_RANK_5;
 80006c8:	2310      	movs	r3, #16
  if (HAL_ADC_ConfigChannel(&hadc1, &sConfig) != HAL_OK)
 80006ca:	0020      	movs	r0, r4
 80006cc:	a901      	add	r1, sp, #4
  sConfig.Rank = ADC_REGULAR_RANK_5;
 80006ce:	9302      	str	r3, [sp, #8]
  if (HAL_ADC_ConfigChannel(&hadc1, &sConfig) != HAL_OK)
 80006d0:	f001 fe74 	bl	80023bc <HAL_ADC_ConfigChannel>
 80006d4:	2800      	cmp	r0, #0
 80006d6:	d001      	beq.n	80006dc <MX_ADC1_Init+0xd8>
 80006d8:	b672      	cpsid	i
  while (1)
 80006da:	e7fe      	b.n	80006da <MX_ADC1_Init+0xd6>
}
 80006dc:	b005      	add	sp, #20
 80006de:	bd30      	pop	{r4, r5, pc}
 80006e0:	20000ae4 	.word	0x20000ae4
 80006e4:	40012400 	.word	0x40012400
 80006e8:	04000002 	.word	0x04000002
 80006ec:	10000010 	.word	0x10000010
 80006f0:	14000020 	.word	0x14000020
 80006f4:	18000040 	.word	0x18000040

080006f8 <MX_TIM16_Init>:
{
 80006f8:	b530      	push	{r4, r5, lr}
 80006fa:	b097      	sub	sp, #92	@ 0x5c
  TIM_OC_InitTypeDef sConfigOC = {0};
 80006fc:	221c      	movs	r2, #28
 80006fe:	2100      	movs	r1, #0
 8000700:	4668      	mov	r0, sp
 8000702:	f005 ff9b 	bl	800663c <memset>
  TIM_BreakDeadTimeConfigTypeDef sBreakDeadTimeConfig = {0};
 8000706:	2234      	movs	r2, #52	@ 0x34
 8000708:	2100      	movs	r1, #0
 800070a:	a808      	add	r0, sp, #32
 800070c:	f005 ff96 	bl	800663c <memset>
  htim16.Instance = TIM16;
 8000710:	4c23      	ldr	r4, [pc, #140]	@ (80007a0 <MX_TIM16_Init+0xa8>)
 8000712:	4b24      	ldr	r3, [pc, #144]	@ (80007a4 <MX_TIM16_Init+0xac>)
  htim16.Init.ClockDivision = TIM_CLOCKDIVISION_DIV4;
 8000714:	2280      	movs	r2, #128	@ 0x80
  htim16.Instance = TIM16;
 8000716:	6023      	str	r3, [r4, #0]
  htim16.Init.Prescaler = 0;
 8000718:	2300      	movs	r3, #0
  htim16.Init.Period = 255;
 800071a:	25ff      	movs	r5, #255	@ 0xff
  htim16.Init.Prescaler = 0;
 800071c:	6063      	str	r3, [r4, #4]
  htim16.Init.CounterMode = TIM_COUNTERMODE_UP;
 800071e:	60a3      	str	r3, [r4, #8]
  htim16.Init.ClockDivision = TIM_CLOCKDIVISION_DIV4;
 8000720:	0092      	lsls	r2, r2, #2
  htim16.Init.RepetitionCounter = 0;
 8000722:	6163      	str	r3, [r4, #20]
  if (HAL_TIM_Base_Init(&htim16) != HAL_OK)
 8000724:	0020      	movs	r0, r4
  htim16.Init.AutoReloadPreload = TIM_AUTORELOAD_PRELOAD_ENABLE;
 8000726:	3380      	adds	r3, #128	@ 0x80
  htim16.Init.Period = 255;
 8000728:	60e5      	str	r5, [r4, #12]
  htim16.Init.ClockDivision = TIM_CLOCKDIVISION_DIV4;
 800072a:	6122      	str	r2, [r4, #16]
  htim16.Init.AutoReloadPreload = TIM_AUTORELOAD_PRELOAD_ENABLE;
 800072c:	61a3      	str	r3, [r4, #24]
  if (HAL_TIM_Base_Init(&htim16) != HAL_OK)
 800072e:	f003 fc4b 	bl	8003fc8 <HAL_TIM_Base_Init>
 8000732:	2800      	cmp	r0, #0
 8000734:	d001      	beq.n	800073a <MX_TIM16_Init+0x42>
 8000736:	b672      	cpsid	i
  while (1)
 8000738:	e7fe      	b.n	8000738 <MX_TIM16_Init+0x40>
  if (HAL_TIM_OC_Init(&htim16) != HAL_OK)
 800073a:	0020      	movs	r0, r4
 800073c:	f003 fd6c 	bl	8004218 <HAL_TIM_OC_Init>
 8000740:	2800      	cmp	r0, #0
 8000742:	d001      	beq.n	8000748 <MX_TIM16_Init+0x50>
 8000744:	b672      	cpsid	i
  while (1)
 8000746:	e7fe      	b.n	8000746 <MX_TIM16_Init+0x4e>
  sConfigOC.OCFastMode = TIM_OCFAST_DISABLE;
 8000748:	2200      	movs	r2, #0
 800074a:	2300      	movs	r3, #0
  sConfigOC.OCMode = TIM_OCMODE_TIMING;
 800074c:	9000      	str	r0, [sp, #0]
  sConfigOC.OCPolarity = TIM_OCPOLARITY_HIGH;
 800074e:	9002      	str	r0, [sp, #8]
  sConfigOC.OCNPolarity = TIM_OCNPOLARITY_HIGH;
 8000750:	9003      	str	r0, [sp, #12]
  sConfigOC.OCNIdleState = TIM_OCNIDLESTATE_RESET;
 8000752:	9006      	str	r0, [sp, #24]
  if (HAL_TIM_OC_ConfigChannel(&htim16, &sConfigOC, TIM_CHANNEL_1) != HAL_OK)
 8000754:	4669      	mov	r1, sp
 8000756:	0020      	movs	r0, r4
  sConfigOC.OCFastMode = TIM_OCFAST_DISABLE;
 8000758:	9204      	str	r2, [sp, #16]
 800075a:	9305      	str	r3, [sp, #20]
  sConfigOC.Pulse = 255;
 800075c:	9501      	str	r5, [sp, #4]
  if (HAL_TIM_OC_ConfigChannel(&htim16, &sConfigOC, TIM_CHANNEL_1) != HAL_OK)
 800075e:	f004 faab 	bl	8004cb8 <HAL_TIM_OC_ConfigChannel>
 8000762:	2800      	cmp	r0, #0
 8000764:	d001      	beq.n	800076a <MX_TIM16_Init+0x72>
 8000766:	b672      	cpsid	i
  while (1)
 8000768:	e7fe      	b.n	8000768 <MX_TIM16_Init+0x70>
  __HAL_TIM_DISABLE_OCxPRELOAD(&htim16, TIM_CHANNEL_1);
 800076a:	2108      	movs	r1, #8
 800076c:	6822      	ldr	r2, [r4, #0]
  sBreakDeadTimeConfig.OffStateRunMode = TIM_OSSR_DISABLE;
 800076e:	9008      	str	r0, [sp, #32]
  __HAL_TIM_DISABLE_OCxPRELOAD(&htim16, TIM_CHANNEL_1);
 8000770:	6993      	ldr	r3, [r2, #24]
  sBreakDeadTimeConfig.OffStateIDLEMode = TIM_OSSI_DISABLE;
 8000772:	9009      	str	r0, [sp, #36]	@ 0x24
  __HAL_TIM_DISABLE_OCxPRELOAD(&htim16, TIM_CHANNEL_1);
 8000774:	438b      	bics	r3, r1
 8000776:	6193      	str	r3, [r2, #24]
  sBreakDeadTimeConfig.BreakState = TIM_BREAK_DISABLE;
 8000778:	2380      	movs	r3, #128	@ 0x80
 800077a:	2200      	movs	r2, #0
  sBreakDeadTimeConfig.LockLevel = TIM_LOCKLEVEL_OFF;
 800077c:	900a      	str	r0, [sp, #40]	@ 0x28
  sBreakDeadTimeConfig.DeadTime = 0;
 800077e:	900b      	str	r0, [sp, #44]	@ 0x2c
  sBreakDeadTimeConfig.BreakState = TIM_BREAK_DISABLE;
 8000780:	019b      	lsls	r3, r3, #6
  sBreakDeadTimeConfig.BreakFilter = 0;
 8000782:	900e      	str	r0, [sp, #56]	@ 0x38
  sBreakDeadTimeConfig.AutomaticOutput = TIM_AUTOMATICOUTPUT_DISABLE;
 8000784:	9014      	str	r0, [sp, #80]	@ 0x50
  if (HAL_TIMEx_ConfigBreakDeadTime(&htim16, &sBreakDeadTimeConfig) != HAL_OK)
 8000786:	a908      	add	r1, sp, #32
 8000788:	0020      	movs	r0, r4
  sBreakDeadTimeConfig.BreakState = TIM_BREAK_DISABLE;
 800078a:	920c      	str	r2, [sp, #48]	@ 0x30
 800078c:	930d      	str	r3, [sp, #52]	@ 0x34
  if (HAL_TIMEx_ConfigBreakDeadTime(&htim16, &sBreakDeadTimeConfig) != HAL_OK)
 800078e:	f004 fff1 	bl	8005774 <HAL_TIMEx_ConfigBreakDeadTime>
 8000792:	2800      	cmp	r0, #0
 8000794:	d001      	beq.n	800079a <MX_TIM16_Init+0xa2>
 8000796:	b672      	cpsid	i
  while (1)
 8000798:	e7fe      	b.n	8000798 <MX_TIM16_Init+0xa0>
}
 800079a:	b017      	add	sp, #92	@ 0x5c
 800079c:	bd30      	pop	{r4, r5, pc}
 800079e:	46c0      	nop			@ (mov r8, r8)
 80007a0:	20000854 	.word	0x20000854
 80007a4:	40014400 	.word	0x40014400

080007a8 <MX_TIM2_Init>:
{
 80007a8:	b510      	push	{r4, lr}
 80007aa:	b08c      	sub	sp, #48	@ 0x30
  TIM_ClockConfigTypeDef sClockSourceConfig = {0};
 80007ac:	2210      	movs	r2, #16
 80007ae:	2100      	movs	r1, #0
 80007b0:	a808      	add	r0, sp, #32
 80007b2:	f005 ff43 	bl	800663c <memset>
  TIM_MasterConfigTypeDef sMasterConfig = {0};
 80007b6:	220c      	movs	r2, #12
 80007b8:	2100      	movs	r1, #0
 80007ba:	a801      	add	r0, sp, #4
 80007bc:	f005 ff3e 	bl	800663c <memset>
  TIM_IC_InitTypeDef sConfigIC = {0};
 80007c0:	2210      	movs	r2, #16
 80007c2:	2100      	movs	r1, #0
 80007c4:	a804      	add	r0, sp, #16
 80007c6:	f005 ff39 	bl	800663c <memset>
  htim2.Instance = TIM2;
 80007ca:	2380      	movs	r3, #128	@ 0x80
 80007cc:	4c22      	ldr	r4, [pc, #136]	@ (8000858 <MX_TIM2_Init+0xb0>)
 80007ce:	05db      	lsls	r3, r3, #23
 80007d0:	6023      	str	r3, [r4, #0]
  htim2.Init.Prescaler = 64 - 1;
 80007d2:	233f      	movs	r3, #63	@ 0x3f
 80007d4:	6063      	str	r3, [r4, #4]
  htim2.Init.CounterMode = TIM_COUNTERMODE_UP;
 80007d6:	2300      	movs	r3, #0
 80007d8:	60a3      	str	r3, [r4, #8]
  htim2.Init.Period = 2097152 - 1;
 80007da:	4b20      	ldr	r3, [pc, #128]	@ (800085c <MX_TIM2_Init+0xb4>)
  if (HAL_TIM_Base_Init(&htim2) != HAL_OK)
 80007dc:	0020      	movs	r0, r4
  htim2.Init.Period = 2097152 - 1;
 80007de:	60e3      	str	r3, [r4, #12]
  htim2.Init.ClockDivision = TIM_CLOCKDIVISION_DIV4;
 80007e0:	2380      	movs	r3, #128	@ 0x80
 80007e2:	009b      	lsls	r3, r3, #2
 80007e4:	6123      	str	r3, [r4, #16]
  htim2.Init.AutoReloadPreload = TIM_AUTORELOAD_PRELOAD_ENABLE;
 80007e6:	3b81      	subs	r3, #129	@ 0x81
 80007e8:	3bff      	subs	r3, #255	@ 0xff
 80007ea:	61a3      	str	r3, [r4, #24]
  if (HAL_TIM_Base_Init(&htim2) != HAL_OK)
 80007ec:	f003 fbec 	bl	8003fc8 <HAL_TIM_Base_Init>
 80007f0:	2800      	cmp	r0, #0
 80007f2:	d001      	beq.n	80007f8 <MX_TIM2_Init+0x50>
 80007f4:	b672      	cpsid	i
  while (1)
 80007f6:	e7fe      	b.n	80007f6 <MX_TIM2_Init+0x4e>
  sClockSourceConfig.ClockSource = TIM_CLOCKSOURCE_INTERNAL;
 80007f8:	2380      	movs	r3, #128	@ 0x80
  if (HAL_TIM_ConfigClockSource(&htim2, &sClockSourceConfig) != HAL_OK)
 80007fa:	0020      	movs	r0, r4
  sClockSourceConfig.ClockSource = TIM_CLOCKSOURCE_INTERNAL;
 80007fc:	015b      	lsls	r3, r3, #5
  if (HAL_TIM_ConfigClockSource(&htim2, &sClockSourceConfig) != HAL_OK)
 80007fe:	a908      	add	r1, sp, #32
  sClockSourceConfig.ClockSource = TIM_CLOCKSOURCE_INTERNAL;
 8000800:	9308      	str	r3, [sp, #32]
  if (HAL_TIM_ConfigClockSource(&htim2, &sClockSourceConfig) != HAL_OK)
 8000802:	f004 fe2d 	bl	8005460 <HAL_TIM_ConfigClockSource>
 8000806:	2800      	cmp	r0, #0
 8000808:	d001      	beq.n	800080e <MX_TIM2_Init+0x66>
 800080a:	b672      	cpsid	i
  while (1)
 800080c:	e7fe      	b.n	800080c <MX_TIM2_Init+0x64>
  if (HAL_TIM_IC_Init(&htim2) != HAL_OK)
 800080e:	0020      	movs	r0, r4
 8000810:	f003 fffc 	bl	800480c <HAL_TIM_IC_Init>
 8000814:	2800      	cmp	r0, #0
 8000816:	d001      	beq.n	800081c <MX_TIM2_Init+0x74>
 8000818:	b672      	cpsid	i
  while (1)
 800081a:	e7fe      	b.n	800081a <MX_TIM2_Init+0x72>
  sMasterConfig.MasterOutputTrigger = TIM_TRGO_RESET;
 800081c:	9001      	str	r0, [sp, #4]
  sMasterConfig.MasterSlaveMode = TIM_MASTERSLAVEMODE_DISABLE;
 800081e:	9003      	str	r0, [sp, #12]
  if (HAL_TIMEx_MasterConfigSynchronization(&htim2, &sMasterConfig) != HAL_OK)
 8000820:	a901      	add	r1, sp, #4
 8000822:	0020      	movs	r0, r4
 8000824:	f004 ff6e 	bl	8005704 <HAL_TIMEx_MasterConfigSynchronization>
 8000828:	2800      	cmp	r0, #0
 800082a:	d001      	beq.n	8000830 <MX_TIM2_Init+0x88>
 800082c:	b672      	cpsid	i
  while (1)
 800082e:	e7fe      	b.n	800082e <MX_TIM2_Init+0x86>
  sConfigIC.ICPolarity = TIM_INPUTCHANNELPOLARITY_FALLING;
 8000830:	2202      	movs	r2, #2
 8000832:	2301      	movs	r3, #1
 8000834:	9204      	str	r2, [sp, #16]
 8000836:	9305      	str	r3, [sp, #20]
 8000838:	2200      	movs	r2, #0
 800083a:	230f      	movs	r3, #15
  if (HAL_TIM_IC_ConfigChannel(&htim2, &sConfigIC, TIM_CHANNEL_1) != HAL_OK)
 800083c:	0020      	movs	r0, r4
  sConfigIC.ICPolarity = TIM_INPUTCHANNELPOLARITY_FALLING;
 800083e:	9206      	str	r2, [sp, #24]
 8000840:	9307      	str	r3, [sp, #28]
  if (HAL_TIM_IC_ConfigChannel(&htim2, &sConfigIC, TIM_CHANNEL_1) != HAL_OK)
 8000842:	a904      	add	r1, sp, #16
 8000844:	2200      	movs	r2, #0
 8000846:	f004 fb89 	bl	8004f5c <HAL_TIM_IC_ConfigChannel>
 800084a:	2800      	cmp	r0, #0
 800084c:	d001      	beq.n	8000852 <MX_TIM2_Init+0xaa>
 800084e:	b672      	cpsid	i
  while (1)
 8000850:	e7fe      	b.n	8000850 <MX_TIM2_Init+0xa8>
}
 8000852:	b00c      	add	sp, #48	@ 0x30
 8000854:	bd10      	pop	{r4, pc}
 8000856:	46c0      	nop			@ (mov r8, r8)
 8000858:	20000798 	.word	0x20000798
 800085c:	001fffff 	.word	0x001fffff

08000860 <MX_TIM3_Init>:
{
 8000860:	b510      	push	{r4, lr}
 8000862:	b090      	sub	sp, #64	@ 0x40
  TIM_ClockConfigTypeDef sClockSourceConfig = {0};
 8000864:	2210      	movs	r2, #16
 8000866:	2100      	movs	r1, #0
 8000868:	a804      	add	r0, sp, #16
 800086a:	f005 fee7 	bl	800663c <memset>
  TIM_MasterConfigTypeDef sMasterConfig = {0};
 800086e:	220c      	movs	r2, #12
 8000870:	2100      	movs	r1, #0
 8000872:	a801      	add	r0, sp, #4
 8000874:	f005 fee2 	bl	800663c <memset>
  TIM_OC_InitTypeDef sConfigOC = {0};
 8000878:	221c      	movs	r2, #28
 800087a:	2100      	movs	r1, #0
 800087c:	a808      	add	r0, sp, #32
 800087e:	f005 fedd 	bl	800663c <memset>
  htim3.Instance = TIM3;
 8000882:	4c23      	ldr	r4, [pc, #140]	@ (8000910 <MX_TIM3_Init+0xb0>)
 8000884:	4b23      	ldr	r3, [pc, #140]	@ (8000914 <MX_TIM3_Init+0xb4>)
  if (HAL_TIM_Base_Init(&htim3) != HAL_OK)
 8000886:	0020      	movs	r0, r4
  htim3.Instance = TIM3;
 8000888:	6023      	str	r3, [r4, #0]
  htim3.Init.Prescaler = (64 * 512) - 1;
 800088a:	4b23      	ldr	r3, [pc, #140]	@ (8000918 <MX_TIM3_Init+0xb8>)
 800088c:	6063      	str	r3, [r4, #4]
  htim3.Init.CounterMode = TIM_COUNTERMODE_UP;
 800088e:	2300      	movs	r3, #0
 8000890:	60a3      	str	r3, [r4, #8]
  htim3.Init.Period = 4096 - 1;
 8000892:	4b22      	ldr	r3, [pc, #136]	@ (800091c <MX_TIM3_Init+0xbc>)
 8000894:	60e3      	str	r3, [r4, #12]
  htim3.Init.ClockDivision = TIM_CLOCKDIVISION_DIV4;
 8000896:	2380      	movs	r3, #128	@ 0x80
 8000898:	009b      	lsls	r3, r3, #2
 800089a:	6123      	str	r3, [r4, #16]
  htim3.Init.AutoReloadPreload = TIM_AUTORELOAD_PRELOAD_ENABLE;
 800089c:	3b81      	subs	r3, #129	@ 0x81
 800089e:	3bff      	subs	r3, #255	@ 0xff
 80008a0:	61a3      	str	r3, [r4, #24]
  if (HAL_TIM_Base_Init(&htim3) != HAL_OK)
 80008a2:	f003 fb91 	bl	8003fc8 <HAL_TIM_Base_Init>
 80008a6:	2800      	cmp	r0, #0
 80008a8:	d001      	beq.n	80008ae <MX_TIM3_Init+0x4e>
 80008aa:	b672      	cpsid	i
  while (1)
 80008ac:	e7fe      	b.n	80008ac <MX_TIM3_Init+0x4c>
  sClockSourceConfig.ClockSource = TIM_CLOCKSOURCE_INTERNAL;
 80008ae:	2380      	movs	r3, #128	@ 0x80
  if (HAL_TIM_ConfigClockSource(&htim3, &sClockSourceConfig) != HAL_OK)
 80008b0:	0020      	movs	r0, r4
  sClockSourceConfig.ClockSource = TIM_CLOCKSOURCE_INTERNAL;
 80008b2:	015b      	lsls	r3, r3, #5
  if (HAL_TIM_ConfigClockSource(&htim3, &sClockSourceConfig) != HAL_OK)
 80008b4:	a904      	add	r1, sp, #16
  sClockSourceConfig.ClockSource = TIM_CLOCKSOURCE_INTERNAL;
 80008b6:	9304      	str	r3, [sp, #16]
  if (HAL_TIM_ConfigClockSource(&htim3, &sClockSourceConfig) != HAL_OK)
 80008b8:	f004 fdd2 	bl	8005460 <HAL_TIM_ConfigClockSource>
 80008bc:	2800      	cmp	r0, #0
 80008be:	d001      	beq.n	80008c4 <MX_TIM3_Init+0x64>
 80008c0:	b672      	cpsid	i
  while (1)
 80008c2:	e7fe      	b.n	80008c2 <MX_TIM3_Init+0x62>
  if (HAL_TIM_OC_Init(&htim3) != HAL_OK)
 80008c4:	0020      	movs	r0, r4
 80008c6:	f003 fca7 	bl	8004218 <HAL_TIM_OC_Init>
 80008ca:	2800      	cmp	r0, #0
 80008cc:	d001      	beq.n	80008d2 <MX_TIM3_Init+0x72>
 80008ce:	b672      	cpsid	i
  while (1)
 80008d0:	e7fe      	b.n	80008d0 <MX_TIM3_Init+0x70>
  sMasterConfig.MasterOutputTrigger = TIM_TRGO_RESET;
 80008d2:	9001      	str	r0, [sp, #4]
  sMasterConfig.MasterSlaveMode = TIM_MASTERSLAVEMODE_DISABLE;
 80008d4:	9003      	str	r0, [sp, #12]
  if (HAL_TIMEx_MasterConfigSynchronization(&htim3, &sMasterConfig) != HAL_OK)
 80008d6:	a901      	add	r1, sp, #4
 80008d8:	0020      	movs	r0, r4
 80008da:	f004 ff13 	bl	8005704 <HAL_TIMEx_MasterConfigSynchronization>
 80008de:	2800      	cmp	r0, #0
 80008e0:	d001      	beq.n	80008e6 <MX_TIM3_Init+0x86>
 80008e2:	b672      	cpsid	i
  while (1)
 80008e4:	e7fe      	b.n	80008e4 <MX_TIM3_Init+0x84>
  sConfigOC.OCMode = TIM_OCMODE_TIMING;
 80008e6:	2200      	movs	r2, #0
 80008e8:	2300      	movs	r3, #0
  sConfigOC.OCPolarity = TIM_OCPOLARITY_HIGH;
 80008ea:	900a      	str	r0, [sp, #40]	@ 0x28
  sConfigOC.OCFastMode = TIM_OCFAST_DISABLE;
 80008ec:	900c      	str	r0, [sp, #48]	@ 0x30
  if (HAL_TIM_OC_ConfigChannel(&htim3, &sConfigOC, TIM_CHANNEL_1) != HAL_OK)
 80008ee:	a908      	add	r1, sp, #32
 80008f0:	0020      	movs	r0, r4
  sConfigOC.OCMode = TIM_OCMODE_TIMING;
 80008f2:	9208      	str	r2, [sp, #32]
 80008f4:	9309      	str	r3, [sp, #36]	@ 0x24
  if (HAL_TIM_OC_ConfigChannel(&htim3, &sConfigOC, TIM_CHANNEL_1) != HAL_OK)
 80008f6:	f004 f9df 	bl	8004cb8 <HAL_TIM_OC_ConfigChannel>
 80008fa:	2800      	cmp	r0, #0
 80008fc:	d001      	beq.n	8000902 <MX_TIM3_Init+0xa2>
 80008fe:	b672      	cpsid	i
  while (1)
 8000900:	e7fe      	b.n	8000900 <MX_TIM3_Init+0xa0>
  __HAL_TIM_DISABLE_OCxPRELOAD(&htim3, TIM_CHANNEL_1);
 8000902:	2108      	movs	r1, #8
 8000904:	6822      	ldr	r2, [r4, #0]
 8000906:	6993      	ldr	r3, [r2, #24]
 8000908:	438b      	bics	r3, r1
 800090a:	6193      	str	r3, [r2, #24]
}
 800090c:	b010      	add	sp, #64	@ 0x40
 800090e:	bd10      	pop	{r4, pc}
 8000910:	200006dc 	.word	0x200006dc
 8000914:	40000400 	.word	0x40000400
 8000918:	00007fff 	.word	0x00007fff
 800091c:	00000fff 	.word	0x00000fff

08000920 <MX_TIM1_Init>:
{
 8000920:	b5d0      	push	{r4, r6, r7, lr}
 8000922:	b09c      	sub	sp, #112	@ 0x70
  TIM_ClockConfigTypeDef sClockSourceConfig = {0};
 8000924:	2210      	movs	r2, #16
 8000926:	2100      	movs	r1, #0
 8000928:	a804      	add	r0, sp, #16
 800092a:	f005 fe87 	bl	800663c <memset>
  TIM_MasterConfigTypeDef sMasterConfig = {0};
 800092e:	220c      	movs	r2, #12
 8000930:	2100      	movs	r1, #0
 8000932:	4668      	mov	r0, sp
 8000934:	f005 fe82 	bl	800663c <memset>
  TIM_OC_InitTypeDef sConfigOC = {0};
 8000938:	221c      	movs	r2, #28
 800093a:	2100      	movs	r1, #0
 800093c:	a808      	add	r0, sp, #32
 800093e:	f005 fe7d 	bl	800663c <memset>
  TIM_BreakDeadTimeConfigTypeDef sBreakDeadTimeConfig = {0};
 8000942:	2234      	movs	r2, #52	@ 0x34
 8000944:	2100      	movs	r1, #0
 8000946:	a80f      	add	r0, sp, #60	@ 0x3c
 8000948:	f005 fe78 	bl	800663c <memset>
  htim1.Instance = TIM1;
 800094c:	4c3a      	ldr	r4, [pc, #232]	@ (8000a38 <MX_TIM1_Init+0x118>)
 800094e:	4b3b      	ldr	r3, [pc, #236]	@ (8000a3c <MX_TIM1_Init+0x11c>)
  htim1.Init.Period = 1024 - 1;
 8000950:	4a3b      	ldr	r2, [pc, #236]	@ (8000a40 <MX_TIM1_Init+0x120>)
  htim1.Instance = TIM1;
 8000952:	6023      	str	r3, [r4, #0]
  htim1.Init.Period = 1024 - 1;
 8000954:	60e2      	str	r2, [r4, #12]
  htim1.Init.Prescaler = 0;
 8000956:	2300      	movs	r3, #0
  htim1.Init.ClockDivision = TIM_CLOCKDIVISION_DIV2;
 8000958:	2280      	movs	r2, #128	@ 0x80
  htim1.Init.Prescaler = 0;
 800095a:	6063      	str	r3, [r4, #4]
  htim1.Init.CounterMode = TIM_COUNTERMODE_UP;
 800095c:	60a3      	str	r3, [r4, #8]
  htim1.Init.ClockDivision = TIM_CLOCKDIVISION_DIV2;
 800095e:	0052      	lsls	r2, r2, #1
  htim1.Init.RepetitionCounter = 0;
 8000960:	6163      	str	r3, [r4, #20]
  if (HAL_TIM_Base_Init(&htim1) != HAL_OK)
 8000962:	0020      	movs	r0, r4
  htim1.Init.AutoReloadPreload = TIM_AUTORELOAD_PRELOAD_ENABLE;
 8000964:	3380      	adds	r3, #128	@ 0x80
  htim1.Init.ClockDivision = TIM_CLOCKDIVISION_DIV2;
 8000966:	6122      	str	r2, [r4, #16]
  htim1.Init.AutoReloadPreload = TIM_AUTORELOAD_PRELOAD_ENABLE;
 8000968:	61a3      	str	r3, [r4, #24]
  if (HAL_TIM_Base_Init(&htim1) != HAL_OK)
 800096a:	f003 fb2d 	bl	8003fc8 <HAL_TIM_Base_Init>
 800096e:	2800      	cmp	r0, #0
 8000970:	d001      	beq.n	8000976 <MX_TIM1_Init+0x56>
 8000972:	b672      	cpsid	i
  while (1)
 8000974:	e7fe      	b.n	8000974 <MX_TIM1_Init+0x54>
  sClockSourceConfig.ClockSource = TIM_CLOCKSOURCE_INTERNAL;
 8000976:	2380      	movs	r3, #128	@ 0x80
  if (HAL_TIM_ConfigClockSource(&htim1, &sClockSourceConfig) != HAL_OK)
 8000978:	0020      	movs	r0, r4
  sClockSourceConfig.ClockSource = TIM_CLOCKSOURCE_INTERNAL;
 800097a:	015b      	lsls	r3, r3, #5
  if (HAL_TIM_ConfigClockSource(&htim1, &sClockSourceConfig) != HAL_OK)
 800097c:	a904      	add	r1, sp, #16
  sClockSourceConfig.ClockSource = TIM_CLOCKSOURCE_INTERNAL;
 800097e:	9304      	str	r3, [sp, #16]
  if (HAL_TIM_ConfigClockSource(&htim1, &sClockSourceConfig) != HAL_OK)
 8000980:	f004 fd6e 	bl	8005460 <HAL_TIM_ConfigClockSource>
 8000984:	2800      	cmp	r0, #0
 8000986:	d001      	beq.n	800098c <MX_TIM1_Init+0x6c>
 8000988:	b672      	cpsid	i
  while (1)
 800098a:	e7fe      	b.n	800098a <MX_TIM1_Init+0x6a>
  if (HAL_TIM_PWM_Init(&htim1) != HAL_OK)
 800098c:	0020      	movs	r0, r4
 800098e:	f003 fe0d 	bl	80045ac <HAL_TIM_PWM_Init>
 8000992:	2800      	cmp	r0, #0
 8000994:	d001      	beq.n	800099a <MX_TIM1_Init+0x7a>
 8000996:	b672      	cpsid	i
  while (1)
 8000998:	e7fe      	b.n	8000998 <MX_TIM1_Init+0x78>
  sMasterConfig.MasterOutputTrigger = TIM_TRGO_RESET;
 800099a:	2600      	movs	r6, #0
 800099c:	2700      	movs	r7, #0
  sMasterConfig.MasterSlaveMode = TIM_MASTERSLAVEMODE_DISABLE;
 800099e:	9002      	str	r0, [sp, #8]
  if (HAL_TIMEx_MasterConfigSynchronization(&htim1, &sMasterConfig) != HAL_OK)
 80009a0:	4669      	mov	r1, sp
 80009a2:	0020      	movs	r0, r4
  sMasterConfig.MasterOutputTrigger = TIM_TRGO_RESET;
 80009a4:	9600      	str	r6, [sp, #0]
 80009a6:	9701      	str	r7, [sp, #4]
  if (HAL_TIMEx_MasterConfigSynchronization(&htim1, &sMasterConfig) != HAL_OK)
 80009a8:	f004 feac 	bl	8005704 <HAL_TIMEx_MasterConfigSynchronization>
 80009ac:	2800      	cmp	r0, #0
 80009ae:	d001      	beq.n	80009b4 <MX_TIM1_Init+0x94>
 80009b0:	b672      	cpsid	i
  while (1)
 80009b2:	e7fe      	b.n	80009b2 <MX_TIM1_Init+0x92>
  sConfigOC.OCMode = TIM_OCMODE_PWM1;
 80009b4:	2360      	movs	r3, #96	@ 0x60
  sConfigOC.Pulse = 0;
 80009b6:	9009      	str	r0, [sp, #36]	@ 0x24
  sConfigOC.OCPolarity = TIM_OCPOLARITY_HIGH;
 80009b8:	900a      	str	r0, [sp, #40]	@ 0x28
  sConfigOC.OCNPolarity = TIM_OCNPOLARITY_HIGH;
 80009ba:	900b      	str	r0, [sp, #44]	@ 0x2c
  sConfigOC.OCNIdleState = TIM_OCNIDLESTATE_RESET;
 80009bc:	900e      	str	r0, [sp, #56]	@ 0x38
  if (HAL_TIM_PWM_ConfigChannel(&htim1, &sConfigOC, TIM_CHANNEL_2) != HAL_OK)
 80009be:	2204      	movs	r2, #4
 80009c0:	0020      	movs	r0, r4
 80009c2:	a908      	add	r1, sp, #32
  sConfigOC.OCFastMode = TIM_OCFAST_DISABLE;
 80009c4:	960c      	str	r6, [sp, #48]	@ 0x30
 80009c6:	970d      	str	r7, [sp, #52]	@ 0x34
  sConfigOC.OCMode = TIM_OCMODE_PWM1;
 80009c8:	9308      	str	r3, [sp, #32]
  if (HAL_TIM_PWM_ConfigChannel(&htim1, &sConfigOC, TIM_CHANNEL_2) != HAL_OK)
 80009ca:	f004 fba5 	bl	8005118 <HAL_TIM_PWM_ConfigChannel>
 80009ce:	2800      	cmp	r0, #0
 80009d0:	d001      	beq.n	80009d6 <MX_TIM1_Init+0xb6>
 80009d2:	b672      	cpsid	i
  while (1)
 80009d4:	e7fe      	b.n	80009d4 <MX_TIM1_Init+0xb4>
  __HAL_TIM_DISABLE_OCxPRELOAD(&htim1, TIM_CHANNEL_2);
 80009d6:	6822      	ldr	r2, [r4, #0]
 80009d8:	4e1a      	ldr	r6, [pc, #104]	@ (8000a44 <MX_TIM1_Init+0x124>)
 80009da:	6993      	ldr	r3, [r2, #24]
  if (HAL_TIM_PWM_ConfigChannel(&htim1, &sConfigOC, TIM_CHANNEL_4) != HAL_OK)
 80009dc:	0020      	movs	r0, r4
  __HAL_TIM_DISABLE_OCxPRELOAD(&htim1, TIM_CHANNEL_2);
 80009de:	4033      	ands	r3, r6
 80009e0:	6193      	str	r3, [r2, #24]
  if (HAL_TIM_PWM_ConfigChannel(&htim1, &sConfigOC, TIM_CHANNEL_4) != HAL_OK)
 80009e2:	a908      	add	r1, sp, #32
 80009e4:	220c      	movs	r2, #12
 80009e6:	f004 fb97 	bl	8005118 <HAL_TIM_PWM_ConfigChannel>
 80009ea:	2800      	cmp	r0, #0
 80009ec:	d001      	beq.n	80009f2 <MX_TIM1_Init+0xd2>
 80009ee:	b672      	cpsid	i
  while (1)
 80009f0:	e7fe      	b.n	80009f0 <MX_TIM1_Init+0xd0>
  __HAL_TIM_DISABLE_OCxPRELOAD(&htim1, TIM_CHANNEL_4);
 80009f2:	6822      	ldr	r2, [r4, #0]
  sBreakDeadTimeConfig.OffStateRunMode = TIM_OSSR_DISABLE;
 80009f4:	900f      	str	r0, [sp, #60]	@ 0x3c
  __HAL_TIM_DISABLE_OCxPRELOAD(&htim1, TIM_CHANNEL_4);
 80009f6:	69d3      	ldr	r3, [r2, #28]
  sBreakDeadTimeConfig.OffStateIDLEMode = TIM_OSSI_DISABLE;
 80009f8:	9010      	str	r0, [sp, #64]	@ 0x40
  __HAL_TIM_DISABLE_OCxPRELOAD(&htim1, TIM_CHANNEL_4);
 80009fa:	4033      	ands	r3, r6
 80009fc:	61d3      	str	r3, [r2, #28]
  sBreakDeadTimeConfig.BreakPolarity = TIM_BREAKPOLARITY_HIGH;
 80009fe:	2380      	movs	r3, #128	@ 0x80
 8000a00:	019b      	lsls	r3, r3, #6
 8000a02:	9314      	str	r3, [sp, #80]	@ 0x50
  sBreakDeadTimeConfig.Break2Polarity = TIM_BREAK2POLARITY_HIGH;
 8000a04:	2380      	movs	r3, #128	@ 0x80
  sBreakDeadTimeConfig.LockLevel = TIM_LOCKLEVEL_OFF;
 8000a06:	9011      	str	r0, [sp, #68]	@ 0x44
  sBreakDeadTimeConfig.DeadTime = 0;
 8000a08:	9012      	str	r0, [sp, #72]	@ 0x48
  sBreakDeadTimeConfig.BreakState = TIM_BREAK_DISABLE;
 8000a0a:	9013      	str	r0, [sp, #76]	@ 0x4c
  sBreakDeadTimeConfig.BreakFilter = 0;
 8000a0c:	9015      	str	r0, [sp, #84]	@ 0x54
  sBreakDeadTimeConfig.BreakAFMode = TIM_BREAK_AFMODE_INPUT;
 8000a0e:	9016      	str	r0, [sp, #88]	@ 0x58
  sBreakDeadTimeConfig.Break2State = TIM_BREAK2_DISABLE;
 8000a10:	9017      	str	r0, [sp, #92]	@ 0x5c
  sBreakDeadTimeConfig.Break2Polarity = TIM_BREAK2POLARITY_HIGH;
 8000a12:	049b      	lsls	r3, r3, #18
  sBreakDeadTimeConfig.Break2Filter = 0;
 8000a14:	9019      	str	r0, [sp, #100]	@ 0x64
  sBreakDeadTimeConfig.Break2AFMode = TIM_BREAK_AFMODE_INPUT;
 8000a16:	901a      	str	r0, [sp, #104]	@ 0x68
  sBreakDeadTimeConfig.AutomaticOutput = TIM_AUTOMATICOUTPUT_DISABLE;
 8000a18:	901b      	str	r0, [sp, #108]	@ 0x6c
  if (HAL_TIMEx_ConfigBreakDeadTime(&htim1, &sBreakDeadTimeConfig) != HAL_OK)
 8000a1a:	a90f      	add	r1, sp, #60	@ 0x3c
 8000a1c:	0020      	movs	r0, r4
  sBreakDeadTimeConfig.Break2Polarity = TIM_BREAK2POLARITY_HIGH;
 8000a1e:	9318      	str	r3, [sp, #96]	@ 0x60
  if (HAL_TIMEx_ConfigBreakDeadTime(&htim1, &sBreakDeadTimeConfig) != HAL_OK)
 8000a20:	f004 fea8 	bl	8005774 <HAL_TIMEx_ConfigBreakDeadTime>
 8000a24:	2800      	cmp	r0, #0
 8000a26:	d001      	beq.n	8000a2c <MX_TIM1_Init+0x10c>
 8000a28:	b672      	cpsid	i
  while (1)
 8000a2a:	e7fe      	b.n	8000a2a <MX_TIM1_Init+0x10a>
  HAL_TIM_MspPostInit(&htim1);
 8000a2c:	0020      	movs	r0, r4
 8000a2e:	f000 ffd1 	bl	80019d4 <HAL_TIM_MspPostInit>
}
 8000a32:	b01c      	add	sp, #112	@ 0x70
 8000a34:	bdd0      	pop	{r4, r6, r7, pc}
 8000a36:	46c0      	nop			@ (mov r8, r8)
 8000a38:	20000620 	.word	0x20000620
 8000a3c:	40012c00 	.word	0x40012c00
 8000a40:	000003ff 	.word	0x000003ff
 8000a44:	fffff7ff 	.word	0xfffff7ff

08000a48 <MX_TIM17_Init>:
{
 8000a48:	b530      	push	{r4, r5, lr}
 8000a4a:	b097      	sub	sp, #92	@ 0x5c
  TIM_OC_InitTypeDef sConfigOC = {0};
 8000a4c:	221c      	movs	r2, #28
 8000a4e:	2100      	movs	r1, #0
 8000a50:	4668      	mov	r0, sp
 8000a52:	f005 fdf3 	bl	800663c <memset>
  TIM_BreakDeadTimeConfigTypeDef sBreakDeadTimeConfig = {0};
 8000a56:	2234      	movs	r2, #52	@ 0x34
 8000a58:	2100      	movs	r1, #0
 8000a5a:	a808      	add	r0, sp, #32
 8000a5c:	f005 fdee 	bl	800663c <memset>
  htim17.Instance = TIM17;
 8000a60:	4c23      	ldr	r4, [pc, #140]	@ (8000af0 <MX_TIM17_Init+0xa8>)
 8000a62:	4b24      	ldr	r3, [pc, #144]	@ (8000af4 <MX_TIM17_Init+0xac>)
  htim17.Init.ClockDivision = TIM_CLOCKDIVISION_DIV4;
 8000a64:	2280      	movs	r2, #128	@ 0x80
  htim17.Instance = TIM17;
 8000a66:	6023      	str	r3, [r4, #0]
  htim17.Init.Prescaler = (512*64)- 1;
 8000a68:	4b23      	ldr	r3, [pc, #140]	@ (8000af8 <MX_TIM17_Init+0xb0>)
  htim17.Init.Period = TIM17_OVERFLOW_LENGTH - 1;
 8000a6a:	2516      	movs	r5, #22
  htim17.Init.Prescaler = (512*64)- 1;
 8000a6c:	6063      	str	r3, [r4, #4]
  htim17.Init.CounterMode = TIM_COUNTERMODE_UP;
 8000a6e:	2300      	movs	r3, #0
  htim17.Init.ClockDivision = TIM_CLOCKDIVISION_DIV4;
 8000a70:	0092      	lsls	r2, r2, #2
  htim17.Init.CounterMode = TIM_COUNTERMODE_UP;
 8000a72:	60a3      	str	r3, [r4, #8]
  htim17.Init.RepetitionCounter = 0;
 8000a74:	6163      	str	r3, [r4, #20]
  if (HAL_TIM_Base_Init(&htim17) != HAL_OK)
 8000a76:	0020      	movs	r0, r4
  htim17.Init.AutoReloadPreload = TIM_AUTORELOAD_PRELOAD_ENABLE;
 8000a78:	3380      	adds	r3, #128	@ 0x80
  htim17.Init.Period = TIM17_OVERFLOW_LENGTH - 1;
 8000a7a:	60e5      	str	r5, [r4, #12]
  htim17.Init.ClockDivision = TIM_CLOCKDIVISION_DIV4;
 8000a7c:	6122      	str	r2, [r4, #16]
  htim17.Init.AutoReloadPreload = TIM_AUTORELOAD_PRELOAD_ENABLE;
 8000a7e:	61a3      	str	r3, [r4, #24]
  if (HAL_TIM_Base_Init(&htim17) != HAL_OK)
 8000a80:	f003 faa2 	bl	8003fc8 <HAL_TIM_Base_Init>
 8000a84:	2800      	cmp	r0, #0
 8000a86:	d001      	beq.n	8000a8c <MX_TIM17_Init+0x44>
 8000a88:	b672      	cpsid	i
  while (1)
 8000a8a:	e7fe      	b.n	8000a8a <MX_TIM17_Init+0x42>
  if (HAL_TIM_OC_Init(&htim17) != HAL_OK)
 8000a8c:	0020      	movs	r0, r4
 8000a8e:	f003 fbc3 	bl	8004218 <HAL_TIM_OC_Init>
 8000a92:	2800      	cmp	r0, #0
 8000a94:	d001      	beq.n	8000a9a <MX_TIM17_Init+0x52>
 8000a96:	b672      	cpsid	i
  while (1)
 8000a98:	e7fe      	b.n	8000a98 <MX_TIM17_Init+0x50>
  sConfigOC.OCFastMode = TIM_OCFAST_DISABLE;
 8000a9a:	2200      	movs	r2, #0
 8000a9c:	2300      	movs	r3, #0
  sConfigOC.OCMode = TIM_OCMODE_TIMING;
 8000a9e:	9000      	str	r0, [sp, #0]
  sConfigOC.OCPolarity = TIM_OCPOLARITY_HIGH;
 8000aa0:	9002      	str	r0, [sp, #8]
  sConfigOC.OCNPolarity = TIM_OCNPOLARITY_HIGH;
 8000aa2:	9003      	str	r0, [sp, #12]
  sConfigOC.OCNIdleState = TIM_OCNIDLESTATE_RESET;
 8000aa4:	9006      	str	r0, [sp, #24]
  if (HAL_TIM_OC_ConfigChannel(&htim17, &sConfigOC, TIM_CHANNEL_1) != HAL_OK)
 8000aa6:	4669      	mov	r1, sp
 8000aa8:	0020      	movs	r0, r4
  sConfigOC.OCFastMode = TIM_OCFAST_DISABLE;
 8000aaa:	9204      	str	r2, [sp, #16]
 8000aac:	9305      	str	r3, [sp, #20]
  sConfigOC.Pulse = TIM17_OVERFLOW_LENGTH - 1;
 8000aae:	9501      	str	r5, [sp, #4]
  if (HAL_TIM_OC_ConfigChannel(&htim17, &sConfigOC, TIM_CHANNEL_1) != HAL_OK)
 8000ab0:	f004 f902 	bl	8004cb8 <HAL_TIM_OC_ConfigChannel>
 8000ab4:	2800      	cmp	r0, #0
 8000ab6:	d001      	beq.n	8000abc <MX_TIM17_Init+0x74>
 8000ab8:	b672      	cpsid	i
  while (1)
 8000aba:	e7fe      	b.n	8000aba <MX_TIM17_Init+0x72>
  __HAL_TIM_ENABLE_OCxPRELOAD(&htim17, TIM_CHANNEL_1);
 8000abc:	2108      	movs	r1, #8
 8000abe:	6822      	ldr	r2, [r4, #0]
  sBreakDeadTimeConfig.OffStateRunMode = TIM_OSSR_DISABLE;
 8000ac0:	9008      	str	r0, [sp, #32]
  __HAL_TIM_ENABLE_OCxPRELOAD(&htim17, TIM_CHANNEL_1);
 8000ac2:	6993      	ldr	r3, [r2, #24]
  sBreakDeadTimeConfig.OffStateIDLEMode = TIM_OSSI_DISABLE;
 8000ac4:	9009      	str	r0, [sp, #36]	@ 0x24
  __HAL_TIM_ENABLE_OCxPRELOAD(&htim17, TIM_CHANNEL_1);
 8000ac6:	430b      	orrs	r3, r1
 8000ac8:	6193      	str	r3, [r2, #24]
  sBreakDeadTimeConfig.BreakState = TIM_BREAK_DISABLE;
 8000aca:	2380      	movs	r3, #128	@ 0x80
 8000acc:	2200      	movs	r2, #0
  sBreakDeadTimeConfig.LockLevel = TIM_LOCKLEVEL_OFF;
 8000ace:	900a      	str	r0, [sp, #40]	@ 0x28
  sBreakDeadTimeConfig.DeadTime = 0;
 8000ad0:	900b      	str	r0, [sp, #44]	@ 0x2c
  sBreakDeadTimeConfig.BreakState = TIM_BREAK_DISABLE;
 8000ad2:	019b      	lsls	r3, r3, #6
  sBreakDeadTimeConfig.BreakFilter = 0;
 8000ad4:	900e      	str	r0, [sp, #56]	@ 0x38
  sBreakDeadTimeConfig.AutomaticOutput = TIM_AUTOMATICOUTPUT_DISABLE;
 8000ad6:	9014      	str	r0, [sp, #80]	@ 0x50
  if (HAL_TIMEx_ConfigBreakDeadTime(&htim17, &sBreakDeadTimeConfig) != HAL_OK)
 8000ad8:	a908      	add	r1, sp, #32
 8000ada:	0020      	movs	r0, r4
  sBreakDeadTimeConfig.BreakState = TIM_BREAK_DISABLE;
 8000adc:	920c      	str	r2, [sp, #48]	@ 0x30
 8000ade:	930d      	str	r3, [sp, #52]	@ 0x34
  if (HAL_TIMEx_ConfigBreakDeadTime(&htim17, &sBreakDeadTimeConfig) != HAL_OK)
 8000ae0:	f004 fe48 	bl	8005774 <HAL_TIMEx_ConfigBreakDeadTime>
 8000ae4:	2800      	cmp	r0, #0
 8000ae6:	d001      	beq.n	8000aec <MX_TIM17_Init+0xa4>
 8000ae8:	b672      	cpsid	i
  while (1)
 8000aea:	e7fe      	b.n	8000aea <MX_TIM17_Init+0xa2>
}
 8000aec:	b017      	add	sp, #92	@ 0x5c
 8000aee:	bd30      	pop	{r4, r5, pc}
 8000af0:	20000910 	.word	0x20000910
 8000af4:	40014800 	.word	0x40014800
 8000af8:	00007fff 	.word	0x00007fff

08000afc <MX_TIM14_Init>:
{
 8000afc:	b510      	push	{r4, lr}
 8000afe:	b088      	sub	sp, #32
  TIM_OC_InitTypeDef sConfigOC = {0};
 8000b00:	221c      	movs	r2, #28
 8000b02:	2100      	movs	r1, #0
 8000b04:	4668      	mov	r0, sp
 8000b06:	f005 fd99 	bl	800663c <memset>
  htim14.Instance = TIM14;
 8000b0a:	4c16      	ldr	r4, [pc, #88]	@ (8000b64 <MX_TIM14_Init+0x68>)
 8000b0c:	4b16      	ldr	r3, [pc, #88]	@ (8000b68 <MX_TIM14_Init+0x6c>)
  htim14.Init.Period = TIM14_OVERFLOW_LENGTH - 1;
 8000b0e:	4a17      	ldr	r2, [pc, #92]	@ (8000b6c <MX_TIM14_Init+0x70>)
  htim14.Instance = TIM14;
 8000b10:	6023      	str	r3, [r4, #0]
  htim14.Init.Prescaler = (512 * 64) - 1;
 8000b12:	4b17      	ldr	r3, [pc, #92]	@ (8000b70 <MX_TIM14_Init+0x74>)
  htim14.Init.Period = TIM14_OVERFLOW_LENGTH - 1;
 8000b14:	60e2      	str	r2, [r4, #12]
  htim14.Init.ClockDivision = TIM_CLOCKDIVISION_DIV4;
 8000b16:	2280      	movs	r2, #128	@ 0x80
  htim14.Init.Prescaler = (512 * 64) - 1;
 8000b18:	6063      	str	r3, [r4, #4]
  htim14.Init.CounterMode = TIM_COUNTERMODE_UP;
 8000b1a:	2300      	movs	r3, #0
  htim14.Init.ClockDivision = TIM_CLOCKDIVISION_DIV4;
 8000b1c:	0092      	lsls	r2, r2, #2
  if (HAL_TIM_Base_Init(&htim14) != HAL_OK)
 8000b1e:	0020      	movs	r0, r4
  htim14.Init.CounterMode = TIM_COUNTERMODE_UP;
 8000b20:	60a3      	str	r3, [r4, #8]
  htim14.Init.ClockDivision = TIM_CLOCKDIVISION_DIV4;
 8000b22:	6122      	str	r2, [r4, #16]
  htim14.Init.AutoReloadPreload = TIM_AUTORELOAD_PRELOAD_DISABLE;
 8000b24:	61a3      	str	r3, [r4, #24]
  if (HAL_TIM_Base_Init(&htim14) != HAL_OK)
 8000b26:	f003 fa4f 	bl	8003fc8 <HAL_TIM_Base_Init>
 8000b2a:	2800      	cmp	r0, #0
 8000b2c:	d001      	beq.n	8000b32 <MX_TIM14_Init+0x36>
 8000b2e:	b672      	cpsid	i
  while (1)
 8000b30:	e7fe      	b.n	8000b30 <MX_TIM14_Init+0x34>
  if (HAL_TIM_OC_Init(&htim14) != HAL_OK)
 8000b32:	0020      	movs	r0, r4
 8000b34:	f003 fb70 	bl	8004218 <HAL_TIM_OC_Init>
 8000b38:	2800      	cmp	r0, #0
 8000b3a:	d001      	beq.n	8000b40 <MX_TIM14_Init+0x44>
 8000b3c:	b672      	cpsid	i
  while (1)
 8000b3e:	e7fe      	b.n	8000b3e <MX_TIM14_Init+0x42>
  sConfigOC.OCMode = TIM_OCMODE_TIMING;
 8000b40:	2200      	movs	r2, #0
 8000b42:	4b0a      	ldr	r3, [pc, #40]	@ (8000b6c <MX_TIM14_Init+0x70>)
  sConfigOC.OCPolarity = TIM_OCPOLARITY_HIGH;
 8000b44:	9002      	str	r0, [sp, #8]
  sConfigOC.OCMode = TIM_OCMODE_TIMING;
 8000b46:	9200      	str	r2, [sp, #0]
 8000b48:	9301      	str	r3, [sp, #4]
  sConfigOC.OCFastMode = TIM_OCFAST_DISABLE;
 8000b4a:	9004      	str	r0, [sp, #16]
  if (HAL_TIM_OC_ConfigChannel(&htim14, &sConfigOC, TIM_CHANNEL_1) != HAL_OK)
 8000b4c:	2200      	movs	r2, #0
 8000b4e:	4669      	mov	r1, sp
 8000b50:	0020      	movs	r0, r4
 8000b52:	f004 f8b1 	bl	8004cb8 <HAL_TIM_OC_ConfigChannel>
 8000b56:	2800      	cmp	r0, #0
 8000b58:	d001      	beq.n	8000b5e <MX_TIM14_Init+0x62>
 8000b5a:	b672      	cpsid	i
  while (1)
 8000b5c:	e7fe      	b.n	8000b5c <MX_TIM14_Init+0x60>
}
 8000b5e:	b008      	add	sp, #32
 8000b60:	bd10      	pop	{r4, pc}
 8000b62:	46c0      	nop			@ (mov r8, r8)
 8000b64:	200009cc 	.word	0x200009cc
 8000b68:	40002000 	.word	0x40002000
 8000b6c:	00000801 	.word	0x00000801
 8000b70:	00007fff 	.word	0x00007fff

08000b74 <MX_GPIO_Init>:
{
 8000b74:	b5f0      	push	{r4, r5, r6, r7, lr}
 8000b76:	46c6      	mov	lr, r8
 8000b78:	b500      	push	{lr}
 8000b7a:	b08a      	sub	sp, #40	@ 0x28
  GPIO_InitTypeDef GPIO_InitStruct = {0};
 8000b7c:	2214      	movs	r2, #20
 8000b7e:	2100      	movs	r1, #0
 8000b80:	a804      	add	r0, sp, #16
 8000b82:	f005 fd5b 	bl	800663c <memset>
  __HAL_RCC_GPIOC_CLK_ENABLE();
 8000b86:	2204      	movs	r2, #4
 8000b88:	4b41      	ldr	r3, [pc, #260]	@ (8000c90 <MX_GPIO_Init+0x11c>)
  __HAL_RCC_GPIOA_CLK_ENABLE();
 8000b8a:	2501      	movs	r5, #1
  __HAL_RCC_GPIOC_CLK_ENABLE();
 8000b8c:	6b59      	ldr	r1, [r3, #52]	@ 0x34
  GPIO_InitStruct.Pull = GPIO_NOPULL;
 8000b8e:	2400      	movs	r4, #0
  __HAL_RCC_GPIOC_CLK_ENABLE();
 8000b90:	4311      	orrs	r1, r2
 8000b92:	6359      	str	r1, [r3, #52]	@ 0x34
 8000b94:	6b59      	ldr	r1, [r3, #52]	@ 0x34
  HAL_GPIO_Init(SW_OUT_GPIO_Port, &GPIO_InitStruct);
 8000b96:	26a0      	movs	r6, #160	@ 0xa0
  __HAL_RCC_GPIOC_CLK_ENABLE();
 8000b98:	400a      	ands	r2, r1
 8000b9a:	9200      	str	r2, [sp, #0]
 8000b9c:	9a00      	ldr	r2, [sp, #0]
  __HAL_RCC_GPIOF_CLK_ENABLE();
 8000b9e:	2220      	movs	r2, #32
 8000ba0:	6b59      	ldr	r1, [r3, #52]	@ 0x34
  GPIO_InitStruct.Pin = LD3_Pin;
 8000ba2:	2740      	movs	r7, #64	@ 0x40
  __HAL_RCC_GPIOF_CLK_ENABLE();
 8000ba4:	4311      	orrs	r1, r2
 8000ba6:	6359      	str	r1, [r3, #52]	@ 0x34
 8000ba8:	6b59      	ldr	r1, [r3, #52]	@ 0x34
  HAL_GPIO_Init(SW_OUT_GPIO_Port, &GPIO_InitStruct);
 8000baa:	05f6      	lsls	r6, r6, #23
  __HAL_RCC_GPIOF_CLK_ENABLE();
 8000bac:	400a      	ands	r2, r1
 8000bae:	9201      	str	r2, [sp, #4]
 8000bb0:	9a01      	ldr	r2, [sp, #4]
  __HAL_RCC_GPIOA_CLK_ENABLE();
 8000bb2:	6b5a      	ldr	r2, [r3, #52]	@ 0x34
 8000bb4:	432a      	orrs	r2, r5
 8000bb6:	635a      	str	r2, [r3, #52]	@ 0x34
 8000bb8:	6b5a      	ldr	r2, [r3, #52]	@ 0x34
 8000bba:	402a      	ands	r2, r5
 8000bbc:	9202      	str	r2, [sp, #8]
 8000bbe:	9a02      	ldr	r2, [sp, #8]
  __HAL_RCC_GPIOB_CLK_ENABLE();
 8000bc0:	2202      	movs	r2, #2
 8000bc2:	6b59      	ldr	r1, [r3, #52]	@ 0x34
 8000bc4:	4311      	orrs	r1, r2
 8000bc6:	6359      	str	r1, [r3, #52]	@ 0x34
 8000bc8:	6b5b      	ldr	r3, [r3, #52]	@ 0x34
  HAL_GPIO_WritePin(LD3_GPIO_Port, LD3_Pin, GPIO_PIN_RESET);
 8000bca:	2140      	movs	r1, #64	@ 0x40
  __HAL_RCC_GPIOB_CLK_ENABLE();
 8000bcc:	401a      	ands	r2, r3
 8000bce:	9203      	str	r2, [sp, #12]
 8000bd0:	9b03      	ldr	r3, [sp, #12]
  HAL_GPIO_WritePin(LD3_GPIO_Port, LD3_Pin, GPIO_PIN_RESET);
 8000bd2:	4b30      	ldr	r3, [pc, #192]	@ (8000c94 <MX_GPIO_Init+0x120>)
 8000bd4:	2200      	movs	r2, #0
 8000bd6:	0018      	movs	r0, r3
 8000bd8:	4698      	mov	r8, r3
 8000bda:	f002 fa93 	bl	8003104 <HAL_GPIO_WritePin>
  GPIO_InitStruct.Pin = T_NRST_Pin;
 8000bde:	2388      	movs	r3, #136	@ 0x88
 8000be0:	2204      	movs	r2, #4
 8000be2:	035b      	lsls	r3, r3, #13
  HAL_GPIO_Init(T_NRST_GPIO_Port, &GPIO_InitStruct);
 8000be4:	a904      	add	r1, sp, #16
 8000be6:	482c      	ldr	r0, [pc, #176]	@ (8000c98 <MX_GPIO_Init+0x124>)
  GPIO_InitStruct.Pin = T_NRST_Pin;
 8000be8:	9204      	str	r2, [sp, #16]
 8000bea:	9305      	str	r3, [sp, #20]
  GPIO_InitStruct.Pull = GPIO_NOPULL;
 8000bec:	9406      	str	r4, [sp, #24]
  HAL_GPIO_Init(T_NRST_GPIO_Port, &GPIO_InitStruct);
 8000bee:	f002 f991 	bl	8002f14 <HAL_GPIO_Init>
  GPIO_InitStruct.Pin = SW_OUT_Pin;
 8000bf2:	2380      	movs	r3, #128	@ 0x80
  HAL_GPIO_Init(SW_OUT_GPIO_Port, &GPIO_InitStruct);
 8000bf4:	0030      	movs	r0, r6
  GPIO_InitStruct.Pin = SW_OUT_Pin;
 8000bf6:	009b      	lsls	r3, r3, #2
  HAL_GPIO_Init(SW_OUT_GPIO_Port, &GPIO_InitStruct);
 8000bf8:	a904      	add	r1, sp, #16
  GPIO_InitStruct.Pin = SW_OUT_Pin;
 8000bfa:	9304      	str	r3, [sp, #16]
  GPIO_InitStruct.Mode = GPIO_MODE_OUTPUT_PP;
 8000bfc:	9505      	str	r5, [sp, #20]
  GPIO_InitStruct.Pull = GPIO_NOPULL;
 8000bfe:	9406      	str	r4, [sp, #24]
  GPIO_InitStruct.Speed = GPIO_SPEED_FREQ_LOW;
 8000c00:	9407      	str	r4, [sp, #28]
  HAL_GPIO_Init(SW_OUT_GPIO_Port, &GPIO_InitStruct);
 8000c02:	f002 f987 	bl	8002f14 <HAL_GPIO_Init>
  HAL_GPIO_Init(LD3_GPIO_Port, &GPIO_InitStruct);
 8000c06:	4640      	mov	r0, r8
 8000c08:	a904      	add	r1, sp, #16
  GPIO_InitStruct.Pin = LD3_Pin;
 8000c0a:	9704      	str	r7, [sp, #16]
  GPIO_InitStruct.Mode = GPIO_MODE_OUTPUT_PP;
 8000c0c:	9505      	str	r5, [sp, #20]
  GPIO_InitStruct.Pull = GPIO_NOPULL;
 8000c0e:	9406      	str	r4, [sp, #24]
  GPIO_InitStruct.Speed = GPIO_SPEED_FREQ_LOW;
 8000c10:	9407      	str	r4, [sp, #28]
  HAL_GPIO_Init(LD3_GPIO_Port, &GPIO_InitStruct);
 8000c12:	f002 f97f 	bl	8002f14 <HAL_GPIO_Init>
  GPIO_InitStruct.Pin = SW_IN_Pin;
 8000c16:	2280      	movs	r2, #128	@ 0x80
 8000c18:	2300      	movs	r3, #0
 8000c1a:	00d2      	lsls	r2, r2, #3
  HAL_GPIO_Init(SW_IN_GPIO_Port, &GPIO_InitStruct);
 8000c1c:	0030      	movs	r0, r6
 8000c1e:	a904      	add	r1, sp, #16
  GPIO_InitStruct.Pin = SW_IN_Pin;
 8000c20:	9204      	str	r2, [sp, #16]
 8000c22:	9305      	str	r3, [sp, #20]
  GPIO_InitStruct.Pull = GPIO_PULLUP;
 8000c24:	9506      	str	r5, [sp, #24]
  HAL_GPIO_Init(SW_IN_GPIO_Port, &GPIO_InitStruct);
 8000c26:	f002 f975 	bl	8002f14 <HAL_GPIO_Init>
  HAL_GPIO_Init(MONITOR_GPIO_Port, &GPIO_InitStruct);
 8000c2a:	4b1c      	ldr	r3, [pc, #112]	@ (8000c9c <MX_GPIO_Init+0x128>)
 8000c2c:	a904      	add	r1, sp, #16
 8000c2e:	0018      	movs	r0, r3
 8000c30:	4698      	mov	r8, r3
  GPIO_InitStruct.Pin = MONITOR_Pin;
 8000c32:	9704      	str	r7, [sp, #16]
  GPIO_InitStruct.Mode = GPIO_MODE_OUTPUT_PP;
 8000c34:	9505      	str	r5, [sp, #20]
  GPIO_InitStruct.Pull = GPIO_NOPULL;
 8000c36:	9406      	str	r4, [sp, #24]
  GPIO_InitStruct.Speed = GPIO_SPEED_FREQ_LOW;
 8000c38:	9407      	str	r4, [sp, #28]
  HAL_GPIO_Init(MONITOR_GPIO_Port, &GPIO_InitStruct);
 8000c3a:	f002 f96b 	bl	8002f14 <HAL_GPIO_Init>
  GPIO_InitStruct.Mode = GPIO_MODE_IT_RISING_FALLING;
 8000c3e:	23c4      	movs	r3, #196	@ 0xc4
  HAL_GPIO_Init(MONITOR_GPIO_Port, &GPIO_InitStruct);
 8000c40:	4640      	mov	r0, r8
  GPIO_InitStruct.Pin = CLK_IN_Pin;
 8000c42:	3740      	adds	r7, #64	@ 0x40
  GPIO_InitStruct.Mode = GPIO_MODE_IT_RISING_FALLING;
 8000c44:	039b      	lsls	r3, r3, #14
  HAL_GPIO_Init(MONITOR_GPIO_Port, &GPIO_InitStruct);
 8000c46:	a904      	add	r1, sp, #16
  GPIO_InitStruct.Mode = GPIO_MODE_IT_RISING_FALLING;
 8000c48:	9305      	str	r3, [sp, #20]
  GPIO_InitStruct.Pin = CLK_IN_Pin;
 8000c4a:	9704      	str	r7, [sp, #16]
  GPIO_InitStruct.Pull = GPIO_NOPULL;
 8000c4c:	9406      	str	r4, [sp, #24]
  GPIO_InitStruct.Speed = GPIO_SPEED_FREQ_LOW;
 8000c4e:	9407      	str	r4, [sp, #28]
  HAL_GPIO_Init(MONITOR_GPIO_Port, &GPIO_InitStruct);
 8000c50:	f002 f960 	bl	8002f14 <HAL_GPIO_Init>
  GPIO_InitStruct.Pin = HACK_POT_HIGH_Pin;
 8000c54:	2380      	movs	r3, #128	@ 0x80
  HAL_GPIO_Init(HACK_POT_HIGH_GPIO_Port, &GPIO_InitStruct);
 8000c56:	0030      	movs	r0, r6
  GPIO_InitStruct.Pin = HACK_POT_HIGH_Pin;
 8000c58:	015b      	lsls	r3, r3, #5
  HAL_GPIO_Init(HACK_POT_HIGH_GPIO_Port, &GPIO_InitStruct);
 8000c5a:	a904      	add	r1, sp, #16
  GPIO_InitStruct.Pin = HACK_POT_HIGH_Pin;
 8000c5c:	9304      	str	r3, [sp, #16]
  GPIO_InitStruct.Mode = GPIO_MODE_OUTPUT_PP;
 8000c5e:	9505      	str	r5, [sp, #20]
  GPIO_InitStruct.Pull = GPIO_NOPULL;
 8000c60:	9406      	str	r4, [sp, #24]
  GPIO_InitStruct.Speed = GPIO_SPEED_FREQ_LOW;
 8000c62:	9407      	str	r4, [sp, #28]
  HAL_GPIO_Init(HACK_POT_HIGH_GPIO_Port, &GPIO_InitStruct);
 8000c64:	f002 f956 	bl	8002f14 <HAL_GPIO_Init>
  HAL_GPIO_Init(HACK_POT_LOW_GPIO_Port, &GPIO_InitStruct);
 8000c68:	0030      	movs	r0, r6
 8000c6a:	a904      	add	r1, sp, #16
  GPIO_InitStruct.Pin = HACK_POT_LOW_Pin;
 8000c6c:	9704      	str	r7, [sp, #16]
  GPIO_InitStruct.Mode = GPIO_MODE_OUTPUT_PP;
 8000c6e:	9505      	str	r5, [sp, #20]
  GPIO_InitStruct.Pull = GPIO_NOPULL;
 8000c70:	9406      	str	r4, [sp, #24]
  GPIO_InitStruct.Speed = GPIO_SPEED_FREQ_LOW;
 8000c72:	9407      	str	r4, [sp, #28]
  HAL_GPIO_Init(HACK_POT_LOW_GPIO_Port, &GPIO_InitStruct);
 8000c74:	f002 f94e 	bl	8002f14 <HAL_GPIO_Init>
  HAL_NVIC_SetPriority(EXTI4_15_IRQn, 2, 2);
 8000c78:	2202      	movs	r2, #2
 8000c7a:	2102      	movs	r1, #2
 8000c7c:	2007      	movs	r0, #7
 8000c7e:	f001 ff37 	bl	8002af0 <HAL_NVIC_SetPriority>
  HAL_NVIC_EnableIRQ(EXTI4_15_IRQn);
 8000c82:	2007      	movs	r0, #7
 8000c84:	f001 ff5e 	bl	8002b44 <HAL_NVIC_EnableIRQ>
}
 8000c88:	b00a      	add	sp, #40	@ 0x28
 8000c8a:	bc80      	pop	{r7}
 8000c8c:	46b8      	mov	r8, r7
 8000c8e:	bdf0      	pop	{r4, r5, r6, r7, pc}
 8000c90:	40021000 	.word	0x40021000
 8000c94:	50000800 	.word	0x50000800
 8000c98:	50001400 	.word	0x50001400
 8000c9c:	50000400 	.word	0x50000400

08000ca0 <Error_Handler>:
 8000ca0:	b672      	cpsid	i
  while (1)
 8000ca2:	e7fe      	b.n	8000ca2 <Error_Handler+0x2>

08000ca4 <System_Init>:
  {

  }
}

void System_Init(void){
 8000ca4:	b570      	push	{r4, r5, r6, lr}
 8000ca6:	b082      	sub	sp, #8
	/* MCU Configuration--------------------------------------------------------*/

	/* Reset of all peripherals, Initializes the Flash interface and the Systick. */
	HAL_Init();
 8000ca8:	f001 f98c 	bl	8001fc4 <HAL_Init>

	/* Configure the system clock */
	SystemClock_Config();
 8000cac:	f7ff fc6a 	bl	8000584 <SystemClock_Config>

	/* Initialize all configured peripherals */
	MX_GPIO_Init();
 8000cb0:	f7ff ff60 	bl	8000b74 <MX_GPIO_Init>
  __HAL_RCC_DMA1_CLK_ENABLE();
 8000cb4:	2301      	movs	r3, #1
 8000cb6:	4a4c      	ldr	r2, [pc, #304]	@ (8000de8 <System_Init+0x144>)
  HAL_NVIC_SetPriority(DMA1_Channel1_IRQn, 0, 0);
 8000cb8:	2009      	movs	r0, #9
  __HAL_RCC_DMA1_CLK_ENABLE();
 8000cba:	6b91      	ldr	r1, [r2, #56]	@ 0x38
 8000cbc:	4319      	orrs	r1, r3
 8000cbe:	6391      	str	r1, [r2, #56]	@ 0x38
 8000cc0:	6b92      	ldr	r2, [r2, #56]	@ 0x38
  HAL_NVIC_SetPriority(DMA1_Channel1_IRQn, 0, 0);
 8000cc2:	2100      	movs	r1, #0
  __HAL_RCC_DMA1_CLK_ENABLE();
 8000cc4:	4013      	ands	r3, r2
 8000cc6:	9301      	str	r3, [sp, #4]
  HAL_NVIC_SetPriority(DMA1_Channel1_IRQn, 0, 0);
 8000cc8:	2200      	movs	r2, #0
  __HAL_RCC_DMA1_CLK_ENABLE();
 8000cca:	9b01      	ldr	r3, [sp, #4]
  HAL_NVIC_SetPriority(DMA1_Channel1_IRQn, 0, 0);
 8000ccc:	f001 ff10 	bl	8002af0 <HAL_NVIC_SetPriority>
  HAL_NVIC_EnableIRQ(DMA1_Channel1_IRQn);
 8000cd0:	2009      	movs	r0, #9
 8000cd2:	f001 ff37 	bl	8002b44 <HAL_NVIC_EnableIRQ>
  HAL_NVIC_SetPriority(DMA1_Channel2_3_IRQn, 2, 2);
 8000cd6:	2202      	movs	r2, #2
 8000cd8:	2102      	movs	r1, #2
 8000cda:	200a      	movs	r0, #10
 8000cdc:	f001 ff08 	bl	8002af0 <HAL_NVIC_SetPriority>
  HAL_NVIC_EnableIRQ(DMA1_Channel2_3_IRQn);
 8000ce0:	200a      	movs	r0, #10
 8000ce2:	f001 ff2f 	bl	8002b44 <HAL_NVIC_EnableIRQ>
  huart2.Instance = USART2;
 8000ce6:	4c41      	ldr	r4, [pc, #260]	@ (8000dec <System_Init+0x148>)
 8000ce8:	4b41      	ldr	r3, [pc, #260]	@ (8000df0 <System_Init+0x14c>)
  huart2.Init.Mode = UART_MODE_TX_RX;
 8000cea:	220c      	movs	r2, #12
  huart2.Instance = USART2;
 8000cec:	6023      	str	r3, [r4, #0]
  huart2.Init.BaudRate = 9600;
 8000cee:	2396      	movs	r3, #150	@ 0x96
 8000cf0:	019b      	lsls	r3, r3, #6
 8000cf2:	6063      	str	r3, [r4, #4]
  huart2.Init.WordLength = UART_WORDLENGTH_8B;
 8000cf4:	2300      	movs	r3, #0
  if (HAL_UART_Init(&huart2) != HAL_OK)
 8000cf6:	0020      	movs	r0, r4
  huart2.Init.WordLength = UART_WORDLENGTH_8B;
 8000cf8:	60a3      	str	r3, [r4, #8]
  huart2.Init.StopBits = UART_STOPBITS_1;
 8000cfa:	60e3      	str	r3, [r4, #12]
  huart2.Init.Parity = UART_PARITY_NONE;
 8000cfc:	6123      	str	r3, [r4, #16]
  huart2.Init.Mode = UART_MODE_TX_RX;
 8000cfe:	6162      	str	r2, [r4, #20]
  huart2.Init.HwFlowCtl = UART_HWCONTROL_NONE;
 8000d00:	61a3      	str	r3, [r4, #24]
  huart2.Init.OverSampling = UART_OVERSAMPLING_16;
 8000d02:	61e3      	str	r3, [r4, #28]
  huart2.Init.OneBitSampling = UART_ONE_BIT_SAMPLE_DISABLE;
 8000d04:	6223      	str	r3, [r4, #32]
  huart2.Init.ClockPrescaler = UART_PRESCALER_DIV1;
 8000d06:	6263      	str	r3, [r4, #36]	@ 0x24
  huart2.AdvancedInit.AdvFeatureInit = UART_ADVFEATURE_NO_INIT;
 8000d08:	62a3      	str	r3, [r4, #40]	@ 0x28
  if (HAL_UART_Init(&huart2) != HAL_OK)
 8000d0a:	f005 faff 	bl	800630c <HAL_UART_Init>
 8000d0e:	1e05      	subs	r5, r0, #0
 8000d10:	d001      	beq.n	8000d16 <System_Init+0x72>
 8000d12:	b672      	cpsid	i
  while (1)
 8000d14:	e7fe      	b.n	8000d14 <System_Init+0x70>
	MX_DMA_Init();
	MX_USART2_UART_Init();
	MX_ADC1_Init();
 8000d16:	f7ff fc75 	bl	8000604 <MX_ADC1_Init>
	MX_TIM16_Init(); //Frequency Gen.
 8000d1a:	f7ff fced 	bl	80006f8 <MX_TIM16_Init>
	MX_TIM2_Init(); //I/P Capture Measurement is TIM2_ch1
 8000d1e:	f7ff fd43 	bl	80007a8 <MX_TIM2_Init>
	MX_TIM3_Init(); //I/P Capture Measurement Re-Elapse is TIM3_ch1
 8000d22:	f7ff fd9d 	bl	8000860 <MX_TIM3_Init>
	MX_TIM1_Init(); //PWM Gen. Main/Secondary Oscillator on ch2/ch4
 8000d26:	f7ff fdfb 	bl	8000920 <MX_TIM1_Init>
	MX_TIM17_Init();
 8000d2a:	f7ff fe8d 	bl	8000a48 <MX_TIM17_Init>
	MX_TIM14_Init();
 8000d2e:	f7ff fee5 	bl	8000afc <MX_TIM14_Init>
  hlptim1.Instance = LPTIM1;
 8000d32:	4e30      	ldr	r6, [pc, #192]	@ (8000df4 <System_Init+0x150>)
 8000d34:	4b30      	ldr	r3, [pc, #192]	@ (8000df8 <System_Init+0x154>)
  hlptim1.Init.OutputPolarity = LPTIM_OUTPUTPOLARITY_HIGH;
 8000d36:	2200      	movs	r2, #0
  hlptim1.Instance = LPTIM1;
 8000d38:	6033      	str	r3, [r6, #0]
  hlptim1.Init.Clock.Prescaler = LPTIM_PRESCALER_DIV128;
 8000d3a:	23e0      	movs	r3, #224	@ 0xe0
 8000d3c:	011b      	lsls	r3, r3, #4
 8000d3e:	60b3      	str	r3, [r6, #8]
  hlptim1.Init.Trigger.Source = LPTIM_TRIGSOURCE_SOFTWARE;
 8000d40:	4b2e      	ldr	r3, [pc, #184]	@ (8000dfc <System_Init+0x158>)
  if (HAL_LPTIM_Init(&hlptim1) != HAL_OK)
 8000d42:	0030      	movs	r0, r6
  hlptim1.Init.Trigger.Source = LPTIM_TRIGSOURCE_SOFTWARE;
 8000d44:	6173      	str	r3, [r6, #20]
  hlptim1.Init.OutputPolarity = LPTIM_OUTPUTPOLARITY_HIGH;
 8000d46:	2380      	movs	r3, #128	@ 0x80
 8000d48:	03db      	lsls	r3, r3, #15
 8000d4a:	6232      	str	r2, [r6, #32]
 8000d4c:	6273      	str	r3, [r6, #36]	@ 0x24
 8000d4e:	2200      	movs	r2, #0
 8000d50:	2300      	movs	r3, #0
  hlptim1.Init.Clock.Source = LPTIM_CLOCKSOURCE_APBCLOCK_LPOSC;
 8000d52:	6075      	str	r5, [r6, #4]
  hlptim1.Init.OutputPolarity = LPTIM_OUTPUTPOLARITY_HIGH;
 8000d54:	62b2      	str	r2, [r6, #40]	@ 0x28
 8000d56:	62f3      	str	r3, [r6, #44]	@ 0x2c
  hlptim1.Init.Input2Source = LPTIM_INPUT2SOURCE_GPIO;
 8000d58:	6335      	str	r5, [r6, #48]	@ 0x30
  if (HAL_LPTIM_Init(&hlptim1) != HAL_OK)
 8000d5a:	f002 fa01 	bl	8003160 <HAL_LPTIM_Init>
 8000d5e:	2800      	cmp	r0, #0
 8000d60:	d001      	beq.n	8000d66 <System_Init+0xc2>
 8000d62:	b672      	cpsid	i
  while (1)
 8000d64:	e7fe      	b.n	8000d64 <System_Init+0xc0>
  HAL_NVIC_SetPriority(LPTIM1_IRQn, 2, 2);
 8000d66:	2202      	movs	r2, #2
 8000d68:	2102      	movs	r1, #2
 8000d6a:	2011      	movs	r0, #17
 8000d6c:	f001 fec0 	bl	8002af0 <HAL_NVIC_SetPriority>
  HAL_NVIC_EnableIRQ(LPTIM1_IRQn);
 8000d70:	2011      	movs	r0, #17
 8000d72:	f001 fee7 	bl	8002b44 <HAL_NVIC_EnableIRQ>
	//MX_IWDG_Init(); fucks up stuff - to be config'd
	MX_LPTIM1_Init(); //Tap Tempo checking/debouncing timer

	//Calibrate ADC - DO NOT MOVE TO BEFORE OTHER CONFIG ABOVE
	HAL_ADCEx_Calibration_Start(&hadc1);
 8000d76:	4d22      	ldr	r5, [pc, #136]	@ (8000e00 <System_Init+0x15c>)
 8000d78:	0028      	movs	r0, r5
 8000d7a:	f001 fde5 	bl	8002948 <HAL_ADCEx_Calibration_Start>

	//Set custom callback function for TIM16 (freq. gen.) to the callback function in TIMx_callback.c for TIM16.
	//I believe the correct CallbackID is HAL_TIM_OC_DELAY_ELAPSED_CB_ID, but if this doesn't work maybe
	//HAL_TIM_PERIOD_ELAPSED_CB_ID will work. This should be basically the same because we've set up TIM16
	//in Output Compare mode, where the ARR and CRR are the same.
	HAL_TIM_RegisterCallback(&htim16, HAL_TIM_PERIOD_ELAPSED_CB_ID, &TIM16_callback);
 8000d7e:	210e      	movs	r1, #14
 8000d80:	4a20      	ldr	r2, [pc, #128]	@ (8000e04 <System_Init+0x160>)
 8000d82:	4821      	ldr	r0, [pc, #132]	@ (8000e08 <System_Init+0x164>)
 8000d84:	f004 fc3c 	bl	8005600 <HAL_TIM_RegisterCallback>

	//Set custom callback function for ADC (DMA) conversion complete.
	HAL_ADC_RegisterCallback(&hadc1, HAL_ADC_CONVERSION_COMPLETE_CB_ID, &ADC_DMA_conversion_complete_callback);
 8000d88:	2100      	movs	r1, #0
 8000d8a:	0028      	movs	r0, r5
 8000d8c:	4a1f      	ldr	r2, [pc, #124]	@ (8000e0c <System_Init+0x168>)
 8000d8e:	f001 fadd 	bl	800234c <HAL_ADC_RegisterCallback>

	//Set custom callback function for I/P capture input falling edge event
	HAL_TIM_RegisterCallback(&htim2, HAL_TIM_IC_CAPTURE_CB_ID, &TIM2_ch1_IP_capture_callback);
 8000d92:	4d1f      	ldr	r5, [pc, #124]	@ (8000e10 <System_Init+0x16c>)
 8000d94:	2112      	movs	r1, #18
 8000d96:	0028      	movs	r0, r5
 8000d98:	4a1e      	ldr	r2, [pc, #120]	@ (8000e14 <System_Init+0x170>)
 8000d9a:	f004 fc31 	bl	8005600 <HAL_TIM_RegisterCallback>

	//Set custom callback function for I/P capture timer overflow (Update event/overflow)
	HAL_TIM_RegisterCallback(&htim2, HAL_TIM_PERIOD_ELAPSED_CB_ID, &TIM2_ch1_overflow_callback);
 8000d9e:	210e      	movs	r1, #14
 8000da0:	0028      	movs	r0, r5
 8000da2:	4a1d      	ldr	r2, [pc, #116]	@ (8000e18 <System_Init+0x174>)
 8000da4:	f004 fc2c 	bl	8005600 <HAL_TIM_RegisterCallback>

	//Set custom callback function for TIM3_ch1 (Measurement Re-Elapse) (CCR match)
	HAL_TIM_RegisterCallback(&htim3, HAL_TIM_OC_DELAY_ELAPSED_CB_ID, &TIM3_ch1_IP_capture_measurement_reelapse_callback);
 8000da8:	2114      	movs	r1, #20
 8000daa:	4a1c      	ldr	r2, [pc, #112]	@ (8000e1c <System_Init+0x178>)
 8000dac:	481c      	ldr	r0, [pc, #112]	@ (8000e20 <System_Init+0x17c>)
 8000dae:	f004 fc27 	bl	8005600 <HAL_TIM_RegisterCallback>

	//Set custom callback function for DMA TX Transfer Complete
	HAL_UART_RegisterCallback(&huart2, HAL_UART_TX_COMPLETE_CB_ID, &UART2_TX_transfer_complete_callback);
 8000db2:	2101      	movs	r1, #1
 8000db4:	0020      	movs	r0, r4
 8000db6:	4a1b      	ldr	r2, [pc, #108]	@ (8000e24 <System_Init+0x180>)
 8000db8:	f004 fe32 	bl	8005a20 <HAL_UART_RegisterCallback>

	//Set custom callback function for DMA RX Transfer Complete
	HAL_UART_RegisterCallback(&huart2, HAL_UART_RX_COMPLETE_CB_ID, &UART2_RX_transfer_complete_callback);
 8000dbc:	2103      	movs	r1, #3
 8000dbe:	0020      	movs	r0, r4
 8000dc0:	4a19      	ldr	r2, [pc, #100]	@ (8000e28 <System_Init+0x184>)
 8000dc2:	f004 fe2d 	bl	8005a20 <HAL_UART_RegisterCallback>

	//Set custom callback for LPTIM1 (Tap Tempo SW state check)
	HAL_LPTIM_RegisterCallback(&hlptim1, HAL_LPTIM_COMPARE_MATCH_CB_ID, &LPTIM1_callback);
 8000dc6:	2102      	movs	r1, #2
 8000dc8:	0030      	movs	r0, r6
 8000dca:	4a18      	ldr	r2, [pc, #96]	@ (8000e2c <System_Init+0x188>)
 8000dcc:	f002 faa8 	bl	8003320 <HAL_LPTIM_RegisterCallback>

	//Set custom callback function for TIM17
	HAL_TIM_RegisterCallback(&htim17, HAL_TIM_OC_DELAY_ELAPSED_CB_ID, &TIM17_callback);
 8000dd0:	2114      	movs	r1, #20
 8000dd2:	4a17      	ldr	r2, [pc, #92]	@ (8000e30 <System_Init+0x18c>)
 8000dd4:	4817      	ldr	r0, [pc, #92]	@ (8000e34 <System_Init+0x190>)
 8000dd6:	f004 fc13 	bl	8005600 <HAL_TIM_RegisterCallback>

	//Set custom callback function for TIM14
	HAL_TIM_RegisterCallback(&htim14, HAL_TIM_OC_DELAY_ELAPSED_CB_ID, &TIM14_callback);
 8000dda:	2114      	movs	r1, #20
 8000ddc:	4a16      	ldr	r2, [pc, #88]	@ (8000e38 <System_Init+0x194>)
 8000dde:	4817      	ldr	r0, [pc, #92]	@ (8000e3c <System_Init+0x198>)
 8000de0:	f004 fc0e 	bl	8005600 <HAL_TIM_RegisterCallback>
}
 8000de4:	b002      	add	sp, #8
 8000de6:	bd70      	pop	{r4, r5, r6, pc}
 8000de8:	40021000 	.word	0x40021000
 8000dec:	20000554 	.word	0x20000554
 8000df0:	40004400 	.word	0x40004400
 8000df4:	20000440 	.word	0x20000440
 8000df8:	40007c00 	.word	0x40007c00
 8000dfc:	0000ffff 	.word	0x0000ffff
 8000e00:	20000ae4 	.word	0x20000ae4
 8000e04:	08000e41 	.word	0x08000e41
 8000e08:	20000854 	.word	0x20000854
 8000e0c:	08000e7d 	.word	0x08000e7d
 8000e10:	20000798 	.word	0x20000798
 8000e14:	08000f01 	.word	0x08000f01
 8000e18:	08000f6d 	.word	0x08000f6d
 8000e1c:	08000f9d 	.word	0x08000f9d
 8000e20:	200006dc 	.word	0x200006dc
 8000e24:	08001015 	.word	0x08001015
 8000e28:	08001021 	.word	0x08001021
 8000e2c:	080010b9 	.word	0x080010b9
 8000e30:	08001185 	.word	0x08001185
 8000e34:	20000910 	.word	0x20000910
 8000e38:	08001189 	.word	0x08001189
 8000e3c:	200009cc 	.word	0x200009cc

08000e40 <TIM16_callback>:
#include "custom_callbacks.h"

void TIM16_callback(TIM_HandleTypeDef *htim)
{
 8000e40:	b510      	push	{r4, lr}
	//HAL_GPIO_WritePin(MONITOR_GPIO_Port, MONITOR_Pin, 1);

	Set_Oscillator_Values(&params);
 8000e42:	4c09      	ldr	r4, [pc, #36]	@ (8000e68 <TIM16_callback+0x28>)
 8000e44:	0020      	movs	r0, r4
 8000e46:	f000 fa7d 	bl	8001344 <Set_Oscillator_Values>
	Calculate_Next_Main_Oscillator_Values(&params, (enum Next_Values_Processing_Mode)REGULAR_MODE);
 8000e4a:	2100      	movs	r1, #0
 8000e4c:	0020      	movs	r0, r4
 8000e4e:	f000 fa91 	bl	8001374 <Calculate_Next_Main_Oscillator_Values>
	Write_Next_Main_Oscillator_Values_to_Delay_Line(&params, &delay_line);
 8000e52:	0020      	movs	r0, r4
 8000e54:	4905      	ldr	r1, [pc, #20]	@ (8000e6c <TIM16_callback+0x2c>)
 8000e56:	f000 fb19 	bl	800148c <Write_Next_Main_Oscillator_Values_to_Delay_Line>
	HAL_ADC_Start_DMA(&hadc1, (uint32_t*)ADCResultsDMA, (uint32_t)num_ADC_conversions); //this function takes ages to execute!
 8000e5a:	4b05      	ldr	r3, [pc, #20]	@ (8000e70 <TIM16_callback+0x30>)
 8000e5c:	4905      	ldr	r1, [pc, #20]	@ (8000e74 <TIM16_callback+0x34>)
 8000e5e:	781a      	ldrb	r2, [r3, #0]
 8000e60:	4805      	ldr	r0, [pc, #20]	@ (8000e78 <TIM16_callback+0x38>)
 8000e62:	f001 fc8d 	bl	8002780 <HAL_ADC_Start_DMA>

	//HAL_GPIO_WritePin(MONITOR_GPIO_Port, MONITOR_Pin, 0);
}
 8000e66:	bd10      	pop	{r4, pc}
 8000e68:	20000bc4 	.word	0x20000bc4
 8000e6c:	20000004 	.word	0x20000004
 8000e70:	080066c0 	.word	0x080066c0
 8000e74:	20000be8 	.word	0x20000be8
 8000e78:	20000ae4 	.word	0x20000ae4

08000e7c <ADC_DMA_conversion_complete_callback>:

void ADC_DMA_conversion_complete_callback(ADC_HandleTypeDef *hadc)
{
 8000e7c:	b570      	push	{r4, r5, r6, lr}
	//HAL_GPIO_WritePin(MONITOR_GPIO_Port, MONITOR_Pin, 1);

	HAL_ADC_Stop_DMA(hadc); //disable ADC DMA
 8000e7e:	f001 fd1d 	bl	80028bc <HAL_ADC_Stop_DMA>
	Process_ADC_Conversion_Values(&params, &delay_line, ADCResultsDMA);
 8000e82:	4c19      	ldr	r4, [pc, #100]	@ (8000ee8 <ADC_DMA_conversion_complete_callback+0x6c>)
 8000e84:	4a19      	ldr	r2, [pc, #100]	@ (8000eec <ADC_DMA_conversion_complete_callback+0x70>)
 8000e86:	491a      	ldr	r1, [pc, #104]	@ (8000ef0 <ADC_DMA_conversion_complete_callback+0x74>)
 8000e88:	0020      	movs	r0, r4
 8000e8a:	f000 fb5b 	bl	8001544 <Process_ADC_Conversion_Values>

	enum Validate first_sync_complete = Get_Status_Bit(&statuses, First_Sync_Complete);
 8000e8e:	4d19      	ldr	r5, [pc, #100]	@ (8000ef4 <ADC_DMA_conversion_complete_callback+0x78>)
 8000e90:	2108      	movs	r1, #8
 8000e92:	0028      	movs	r0, r5
 8000e94:	f001 f838 	bl	8001f08 <Get_Status_Bit>

	if((state == STATE_0) || ((state != STATE_0) && first_sync_complete == NO)){
 8000e98:	4b17      	ldr	r3, [pc, #92]	@ (8000ef8 <ADC_DMA_conversion_complete_callback+0x7c>)
 8000e9a:	781a      	ldrb	r2, [r3, #0]
 8000e9c:	2a00      	cmp	r2, #0
 8000e9e:	d004      	beq.n	8000eaa <ADC_DMA_conversion_complete_callback+0x2e>
 8000ea0:	781a      	ldrb	r2, [r3, #0]
 8000ea2:	2a00      	cmp	r2, #0
 8000ea4:	d00e      	beq.n	8000ec4 <ADC_DMA_conversion_complete_callback+0x48>
 8000ea6:	2800      	cmp	r0, #0
 8000ea8:	d10c      	bne.n	8000ec4 <ADC_DMA_conversion_complete_callback+0x48>

		Process_TIM16_Raw_Start_Value_and_Raw_Prescaler(&params);
 8000eaa:	0020      	movs	r0, r4
 8000eac:	f000 fa32 	bl	8001314 <Process_TIM16_Raw_Start_Value_and_Raw_Prescaler>

		params.raw_start_value = params_working.raw_start_value;
		params.raw_prescaler = params_working.raw_prescaler;
	}

	Process_TIM16_Final_Start_Value_and_Final_Prescaler(&params);
 8000eb0:	0020      	movs	r0, r4
 8000eb2:	f000 fe9f 	bl	8001bf4 <Process_TIM16_Final_Start_Value_and_Final_Prescaler>

	//after initial conversion is complete, set the conversion complete flag - leave this after raw/final value processing rather than actually when ADC values are converted for startup routine reasons.
	if(Get_Status_Bit(&statuses, Initial_ADC_Conversion_Complete) == NO){
 8000eb6:	2110      	movs	r1, #16
 8000eb8:	0028      	movs	r0, r5
 8000eba:	f001 f825 	bl	8001f08 <Get_Status_Bit>
 8000ebe:	2800      	cmp	r0, #0
 8000ec0:	d00d      	beq.n	8000ede <ADC_DMA_conversion_complete_callback+0x62>
		Set_Status_Bit(&statuses, Initial_ADC_Conversion_Complete);
	}

	//HAL_GPIO_WritePin(MONITOR_GPIO_Port, MONITOR_Pin, 0);
}
 8000ec2:	bd70      	pop	{r4, r5, r6, pc}
	else if((state != STATE_0) && (first_sync_complete == YES)){
 8000ec4:	781b      	ldrb	r3, [r3, #0]
 8000ec6:	2b00      	cmp	r3, #0
 8000ec8:	d0f2      	beq.n	8000eb0 <ADC_DMA_conversion_complete_callback+0x34>
 8000eca:	2801      	cmp	r0, #1
 8000ecc:	d1f0      	bne.n	8000eb0 <ADC_DMA_conversion_complete_callback+0x34>
		params.raw_start_value = params_working.raw_start_value;
 8000ece:	4a0b      	ldr	r2, [pc, #44]	@ (8000efc <ADC_DMA_conversion_complete_callback+0x80>)
 8000ed0:	8a53      	ldrh	r3, [r2, #18]
 8000ed2:	b29b      	uxth	r3, r3
 8000ed4:	8263      	strh	r3, [r4, #18]
		params.raw_prescaler = params_working.raw_prescaler;
 8000ed6:	8b53      	ldrh	r3, [r2, #26]
 8000ed8:	b29b      	uxth	r3, r3
 8000eda:	8363      	strh	r3, [r4, #26]
 8000edc:	e7e8      	b.n	8000eb0 <ADC_DMA_conversion_complete_callback+0x34>
		Set_Status_Bit(&statuses, Initial_ADC_Conversion_Complete);
 8000ede:	2110      	movs	r1, #16
 8000ee0:	0028      	movs	r0, r5
 8000ee2:	f001 f817 	bl	8001f14 <Set_Status_Bit>
}
 8000ee6:	e7ec      	b.n	8000ec2 <ADC_DMA_conversion_complete_callback+0x46>
 8000ee8:	20000bc4 	.word	0x20000bc4
 8000eec:	20000be8 	.word	0x20000be8
 8000ef0:	20000004 	.word	0x20000004
 8000ef4:	20000b78 	.word	0x20000b78
 8000ef8:	20000bf2 	.word	0x20000bf2
 8000efc:	20000b7c 	.word	0x20000b7c

08000f00 <TIM2_ch1_IP_capture_callback>:

void TIM2_ch1_IP_capture_callback(TIM_HandleTypeDef *htim){
 8000f00:	b570      	push	{r4, r5, r6, lr}

	TIM2_ch1_input_capture_value = HAL_TIM_ReadCapturedValue(htim, TIM_CHANNEL_1);
 8000f02:	2100      	movs	r1, #0
 8000f04:	f004 fb64 	bl	80055d0 <HAL_TIM_ReadCapturedValue>
 8000f08:	4b14      	ldr	r3, [pc, #80]	@ (8000f5c <TIM2_ch1_IP_capture_callback+0x5c>)

	interrupt_period = TIM2_ch1_input_capture_value >> 9; //divided by 512
 8000f0a:	4d15      	ldr	r5, [pc, #84]	@ (8000f60 <TIM2_ch1_IP_capture_callback+0x60>)
	TIM2_ch1_input_capture_value = HAL_TIM_ReadCapturedValue(htim, TIM_CHANNEL_1);
 8000f0c:	6018      	str	r0, [r3, #0]
	interrupt_period = TIM2_ch1_input_capture_value >> 9; //divided by 512
 8000f0e:	681b      	ldr	r3, [r3, #0]

	//since the input capture measurement is z, and this is 512x the interrupt period, we just use the interrupt
	//period = z/512 as the 'elapse period value' if we also set the elapse timer prescaler to 512x less than the
	//input capture measurement timer

	if(input_capture_event == FIRST){ //edge detected is the first
 8000f10:	4c14      	ldr	r4, [pc, #80]	@ (8000f64 <TIM2_ch1_IP_capture_callback+0x64>)
	interrupt_period = TIM2_ch1_input_capture_value >> 9; //divided by 512
 8000f12:	0a5b      	lsrs	r3, r3, #9
 8000f14:	b29b      	uxth	r3, r3
 8000f16:	802b      	strh	r3, [r5, #0]
	if(input_capture_event == FIRST){ //edge detected is the first
 8000f18:	7823      	ldrb	r3, [r4, #0]
 8000f1a:	2b00      	cmp	r3, #0
 8000f1c:	d108      	bne.n	8000f30 <TIM2_ch1_IP_capture_callback+0x30>

		Begin_Input_Capture_Measurement();
 8000f1e:	f000 f9af 	bl	8001280 <Begin_Input_Capture_Measurement>

		Set_Status_Bit(&statuses, Input_Capture_Measurement_Is_Ongoing);
 8000f22:	2101      	movs	r1, #1
 8000f24:	4810      	ldr	r0, [pc, #64]	@ (8000f68 <TIM2_ch1_IP_capture_callback+0x68>)
 8000f26:	f000 fff5 	bl	8001f14 <Set_Status_Bit>

		input_capture_event = SECOND;
 8000f2a:	2301      	movs	r3, #1
 8000f2c:	7023      	strb	r3, [r4, #0]

			//begin processing
			Set_Status_Bit(&statuses, Input_Capture_Processing_Can_Be_Started);
		}
	}
}
 8000f2e:	bd70      	pop	{r4, r5, r6, pc}
		input_capture_event = FIRST; //reset event name
 8000f30:	2300      	movs	r3, #0
 8000f32:	7023      	strb	r3, [r4, #0]
		Clear_Status_Bit(&statuses, Input_Capture_Measurement_Is_Ongoing);
 8000f34:	4c0c      	ldr	r4, [pc, #48]	@ (8000f68 <TIM2_ch1_IP_capture_callback+0x68>)
 8000f36:	2101      	movs	r1, #1
 8000f38:	0020      	movs	r0, r4
 8000f3a:	f000 ffef 	bl	8001f1c <Clear_Status_Bit>
		if(interrupt_period >= HIGHEST_PRESCALER_TOP_SPEED_PERIOD){ //if the captured value/512 is >= than 129
 8000f3e:	882b      	ldrh	r3, [r5, #0]
 8000f40:	2b80      	cmp	r3, #128	@ 0x80
 8000f42:	d9f4      	bls.n	8000f2e <TIM2_ch1_IP_capture_callback+0x2e>
			Start_Measurement_Reelapse_Timer();
 8000f44:	f000 f98a 	bl	800125c <Start_Measurement_Reelapse_Timer>
			Set_Status_Bit(&statuses, Input_Capture_Measurement_Reelapse_Is_Ongoing);
 8000f48:	0020      	movs	r0, r4
 8000f4a:	2102      	movs	r1, #2
 8000f4c:	f000 ffe2 	bl	8001f14 <Set_Status_Bit>
			Set_Status_Bit(&statuses, Input_Capture_Processing_Can_Be_Started);
 8000f50:	2104      	movs	r1, #4
 8000f52:	0020      	movs	r0, r4
 8000f54:	f000 ffde 	bl	8001f14 <Set_Status_Bit>
}
 8000f58:	e7e9      	b.n	8000f2e <TIM2_ch1_IP_capture_callback+0x2e>
 8000f5a:	46c0      	nop			@ (mov r8, r8)
 8000f5c:	20000b70 	.word	0x20000b70
 8000f60:	20000b6e 	.word	0x20000b6e
 8000f64:	20000b74 	.word	0x20000b74
 8000f68:	20000b78 	.word	0x20000b78

08000f6c <TIM2_ch1_overflow_callback>:


void TIM2_ch1_overflow_callback(TIM_HandleTypeDef *htim){
 8000f6c:	b570      	push	{r4, r5, r6, lr}

	if(Get_Status_Bit(&statuses, Input_Capture_Measurement_Is_Ongoing) == YES && input_capture_event == SECOND){
 8000f6e:	4c09      	ldr	r4, [pc, #36]	@ (8000f94 <TIM2_ch1_overflow_callback+0x28>)
 8000f70:	2101      	movs	r1, #1
 8000f72:	0020      	movs	r0, r4
 8000f74:	f000 ffc8 	bl	8001f08 <Get_Status_Bit>
 8000f78:	2801      	cmp	r0, #1
 8000f7a:	d000      	beq.n	8000f7e <TIM2_ch1_overflow_callback+0x12>
		//Thus, reset everything requiring the user to press the switch again to start another capture

		Clear_Status_Bit(&statuses, Input_Capture_Measurement_Is_Ongoing);
		input_capture_event = FIRST;
	}
}
 8000f7c:	bd70      	pop	{r4, r5, r6, pc}
	if(Get_Status_Bit(&statuses, Input_Capture_Measurement_Is_Ongoing) == YES && input_capture_event == SECOND){
 8000f7e:	4d06      	ldr	r5, [pc, #24]	@ (8000f98 <TIM2_ch1_overflow_callback+0x2c>)
 8000f80:	782b      	ldrb	r3, [r5, #0]
 8000f82:	2b01      	cmp	r3, #1
 8000f84:	d1fa      	bne.n	8000f7c <TIM2_ch1_overflow_callback+0x10>
		Clear_Status_Bit(&statuses, Input_Capture_Measurement_Is_Ongoing);
 8000f86:	2101      	movs	r1, #1
 8000f88:	0020      	movs	r0, r4
 8000f8a:	f000 ffc7 	bl	8001f1c <Clear_Status_Bit>
		input_capture_event = FIRST;
 8000f8e:	2300      	movs	r3, #0
 8000f90:	702b      	strb	r3, [r5, #0]
}
 8000f92:	e7f3      	b.n	8000f7c <TIM2_ch1_overflow_callback+0x10>
 8000f94:	20000b78 	.word	0x20000b78
 8000f98:	20000b74 	.word	0x20000b74

08000f9c <TIM3_ch1_IP_capture_measurement_reelapse_callback>:

void TIM3_ch1_IP_capture_measurement_reelapse_callback(TIM_HandleTypeDef *htim){
 8000f9c:	b570      	push	{r4, r5, r6, lr}
	//force update of timers to sync the wave to the TIM3 reelapse interrupt

	//HAL_GPIO_WritePin(MONITOR_GPIO_Port, MONITOR_Pin, 1);

	// @TODO //WRITE CODE TO LOAD CORRECT DUTY DELAYED VALUE TO SECONDARY OSCILLATOR
	Set_Oscillator_Values(&params_to_be_loaded);
 8000f9e:	4e14      	ldr	r6, [pc, #80]	@ (8000ff0 <TIM3_ch1_IP_capture_measurement_reelapse_callback+0x54>)
 8000fa0:	0030      	movs	r0, r6
 8000fa2:	f000 f9cf 	bl	8001344 <Set_Oscillator_Values>

	Stop_OC_TIM(&htim3, TIM_CHANNEL_1);
 8000fa6:	2100      	movs	r1, #0
 8000fa8:	4812      	ldr	r0, [pc, #72]	@ (8000ff4 <TIM3_ch1_IP_capture_measurement_reelapse_callback+0x58>)
 8000faa:	f000 ff7f 	bl	8001eac <Stop_OC_TIM>

	Clear_Status_Bit(&statuses, Input_Capture_Measurement_Reelapse_Is_Ongoing);
 8000fae:	4c12      	ldr	r4, [pc, #72]	@ (8000ff8 <TIM3_ch1_IP_capture_measurement_reelapse_callback+0x5c>)
 8000fb0:	2102      	movs	r1, #2
 8000fb2:	0020      	movs	r0, r4
 8000fb4:	f000 ffb2 	bl	8001f1c <Clear_Status_Bit>

	Copy_Params_Structs(&params_to_be_loaded, &params_working);
 8000fb8:	0030      	movs	r0, r6
 8000fba:	4910      	ldr	r1, [pc, #64]	@ (8000ffc <TIM3_ch1_IP_capture_measurement_reelapse_callback+0x60>)
 8000fbc:	f000 f944 	bl	8001248 <Copy_Params_Structs>
	Copy_Params_Structs(&params_to_be_loaded, &params);
 8000fc0:	4d0f      	ldr	r5, [pc, #60]	@ (8001000 <TIM3_ch1_IP_capture_measurement_reelapse_callback+0x64>)
 8000fc2:	0030      	movs	r0, r6
 8000fc4:	0029      	movs	r1, r5
 8000fc6:	f000 f93f 	bl	8001248 <Copy_Params_Structs>

	Set_Status_Bit(&statuses, First_Sync_Complete);
 8000fca:	0020      	movs	r0, r4
 8000fcc:	2108      	movs	r1, #8
 8000fce:	f000 ffa1 	bl	8001f14 <Set_Status_Bit>

	Calculate_Next_Main_Oscillator_Values(&params, (enum Next_Values_Processing_Mode)REGULAR_MODE);
 8000fd2:	0028      	movs	r0, r5
 8000fd4:	2100      	movs	r1, #0
 8000fd6:	f000 f9cd 	bl	8001374 <Calculate_Next_Main_Oscillator_Values>
	Write_Next_Main_Oscillator_Values_to_Delay_Line(&params, &delay_line);
 8000fda:	0028      	movs	r0, r5
 8000fdc:	4909      	ldr	r1, [pc, #36]	@ (8001004 <TIM3_ch1_IP_capture_measurement_reelapse_callback+0x68>)
 8000fde:	f000 fa55 	bl	800148c <Write_Next_Main_Oscillator_Values_to_Delay_Line>
	HAL_ADC_Start_DMA(&hadc1, (uint32_t*)ADCResultsDMA, (uint32_t)num_ADC_conversions); //this function takes ages to execute!
 8000fe2:	4b09      	ldr	r3, [pc, #36]	@ (8001008 <TIM3_ch1_IP_capture_measurement_reelapse_callback+0x6c>)
 8000fe4:	4909      	ldr	r1, [pc, #36]	@ (800100c <TIM3_ch1_IP_capture_measurement_reelapse_callback+0x70>)
 8000fe6:	781a      	ldrb	r2, [r3, #0]
 8000fe8:	4809      	ldr	r0, [pc, #36]	@ (8001010 <TIM3_ch1_IP_capture_measurement_reelapse_callback+0x74>)
 8000fea:	f001 fbc9 	bl	8002780 <HAL_ADC_Start_DMA>

	//HAL_GPIO_WritePin(MONITOR_GPIO_Port, MONITOR_Pin, 0);
}
 8000fee:	bd70      	pop	{r4, r5, r6, pc}
 8000ff0:	20000ba0 	.word	0x20000ba0
 8000ff4:	200006dc 	.word	0x200006dc
 8000ff8:	20000b78 	.word	0x20000b78
 8000ffc:	20000b7c 	.word	0x20000b7c
 8001000:	20000bc4 	.word	0x20000bc4
 8001004:	20000004 	.word	0x20000004
 8001008:	080066c0 	.word	0x080066c0
 800100c:	20000be8 	.word	0x20000be8
 8001010:	20000ae4 	.word	0x20000ae4

08001014 <UART2_TX_transfer_complete_callback>:

void UART2_TX_transfer_complete_callback(UART_HandleTypeDef *huart){

	UART_DMA_TX_is_complete = YES;
 8001014:	2201      	movs	r2, #1
 8001016:	4b01      	ldr	r3, [pc, #4]	@ (800101c <UART2_TX_transfer_complete_callback+0x8>)
 8001018:	701a      	strb	r2, [r3, #0]
}
 800101a:	4770      	bx	lr
 800101c:	20000000 	.word	0x20000000

08001020 <UART2_RX_transfer_complete_callback>:

void UART2_RX_transfer_complete_callback(UART_HandleTypeDef *huart){
 8001020:	b510      	push	{r4, lr}

	if(rx_buffer[0] == 'y'){
 8001022:	4908      	ldr	r1, [pc, #32]	@ (8001044 <UART2_RX_transfer_complete_callback+0x24>)
 8001024:	780b      	ldrb	r3, [r1, #0]
 8001026:	2b79      	cmp	r3, #121	@ 0x79
 8001028:	d106      	bne.n	8001038 <UART2_RX_transfer_complete_callback+0x18>

		params.final_prescaler = 64;
 800102a:	2240      	movs	r2, #64	@ 0x40
 800102c:	4b06      	ldr	r3, [pc, #24]	@ (8001048 <UART2_RX_transfer_complete_callback+0x28>)
 800102e:	839a      	strh	r2, [r3, #28]
		params.final_start_value = 127;
 8001030:	323f      	adds	r2, #63	@ 0x3f
 8001032:	829a      	strh	r2, [r3, #20]
		rx_buffer[0] = 0;
 8001034:	2300      	movs	r3, #0
 8001036:	700b      	strb	r3, [r1, #0]
	}
	HAL_UART_Receive_DMA(&huart2, (uint8_t*)rx_buffer, sizeof(rx_buffer));
 8001038:	2201      	movs	r2, #1
 800103a:	4804      	ldr	r0, [pc, #16]	@ (800104c <UART2_RX_transfer_complete_callback+0x2c>)
 800103c:	f004 fd42 	bl	8005ac4 <HAL_UART_Receive_DMA>
}
 8001040:	bd10      	pop	{r4, pc}
 8001042:	46c0      	nop			@ (mov r8, r8)
 8001044:	20000434 	.word	0x20000434
 8001048:	20000bc4 	.word	0x20000bc4
 800104c:	20000554 	.word	0x20000554

08001050 <HAL_GPIO_EXTI_Falling_Callback>:

void HAL_GPIO_EXTI_Falling_Callback(uint16_t GPIO_Pin){
 8001050:	b510      	push	{r4, lr}

	if((GPIO_Pin == CLK_IN_Pin)){ //if specifically CLK IN pin with falling interrupt
 8001052:	2880      	cmp	r0, #128	@ 0x80
 8001054:	d000      	beq.n	8001058 <HAL_GPIO_EXTI_Falling_Callback+0x8>

		HAL_GPIO_WritePin(SW_OUT_GPIO_Port, SW_OUT_Pin, 1);
		HAL_GPIO_WritePin(LD3_GPIO_Port, LD3_Pin, 0);
	}
}
 8001056:	bd10      	pop	{r4, pc}
		HAL_GPIO_WritePin(SW_OUT_GPIO_Port, SW_OUT_Pin, 1);
 8001058:	2180      	movs	r1, #128	@ 0x80
 800105a:	20a0      	movs	r0, #160	@ 0xa0
 800105c:	2201      	movs	r2, #1
 800105e:	0089      	lsls	r1, r1, #2
 8001060:	05c0      	lsls	r0, r0, #23
 8001062:	f002 f84f 	bl	8003104 <HAL_GPIO_WritePin>
		HAL_GPIO_WritePin(LD3_GPIO_Port, LD3_Pin, 0);
 8001066:	2200      	movs	r2, #0
 8001068:	2140      	movs	r1, #64	@ 0x40
 800106a:	4802      	ldr	r0, [pc, #8]	@ (8001074 <HAL_GPIO_EXTI_Falling_Callback+0x24>)
 800106c:	f002 f84a 	bl	8003104 <HAL_GPIO_WritePin>
}
 8001070:	e7f1      	b.n	8001056 <HAL_GPIO_EXTI_Falling_Callback+0x6>
 8001072:	46c0      	nop			@ (mov r8, r8)
 8001074:	50000800 	.word	0x50000800

08001078 <HAL_GPIO_EXTI_Rising_Callback>:

void HAL_GPIO_EXTI_Rising_Callback(uint16_t GPIO_Pin){
 8001078:	b510      	push	{r4, lr}

	if((GPIO_Pin == CLK_IN_Pin)){ //if specifically CLK IN pin with rising interrupt
 800107a:	2880      	cmp	r0, #128	@ 0x80
 800107c:	d000      	beq.n	8001080 <HAL_GPIO_EXTI_Rising_Callback+0x8>
			state = STATE_2;

			Start_Timeout_Timer();
		}
	}
}
 800107e:	bd10      	pop	{r4, pc}
		HAL_GPIO_WritePin(SW_OUT_GPIO_Port, SW_OUT_Pin, 0);
 8001080:	2180      	movs	r1, #128	@ 0x80
 8001082:	20a0      	movs	r0, #160	@ 0xa0
 8001084:	2200      	movs	r2, #0
 8001086:	0089      	lsls	r1, r1, #2
 8001088:	05c0      	lsls	r0, r0, #23
 800108a:	f002 f83b 	bl	8003104 <HAL_GPIO_WritePin>
		HAL_GPIO_WritePin(LD3_GPIO_Port, LD3_Pin, 1);
 800108e:	2201      	movs	r2, #1
 8001090:	2140      	movs	r1, #64	@ 0x40
 8001092:	4807      	ldr	r0, [pc, #28]	@ (80010b0 <HAL_GPIO_EXTI_Rising_Callback+0x38>)
 8001094:	f002 f836 	bl	8003104 <HAL_GPIO_WritePin>
		if(state == STATE_2){
 8001098:	4b06      	ldr	r3, [pc, #24]	@ (80010b4 <HAL_GPIO_EXTI_Rising_Callback+0x3c>)
 800109a:	781a      	ldrb	r2, [r3, #0]
 800109c:	2a02      	cmp	r2, #2
 800109e:	d004      	beq.n	80010aa <HAL_GPIO_EXTI_Rising_Callback+0x32>
			state = STATE_2;
 80010a0:	2202      	movs	r2, #2
 80010a2:	701a      	strb	r2, [r3, #0]
			Start_Timeout_Timer();
 80010a4:	f7ff fa50 	bl	8000548 <Start_Timeout_Timer>
}
 80010a8:	e7e9      	b.n	800107e <HAL_GPIO_EXTI_Rising_Callback+0x6>
			Reset_Timeout_Timer();
 80010aa:	f7ff fa59 	bl	8000560 <Reset_Timeout_Timer>
 80010ae:	e7e6      	b.n	800107e <HAL_GPIO_EXTI_Rising_Callback+0x6>
 80010b0:	50000800 	.word	0x50000800
 80010b4:	20000bf2 	.word	0x20000bf2

080010b8 <LPTIM1_callback>:

void LPTIM1_callback(LPTIM_HandleTypeDef *hlptim){
 80010b8:	b570      	push	{r4, r5, r6, lr}

	static volatile struct Tap_Tempo_Switch_States tap_tempo_switch_states = {0};

	if((state == STATE_0) && (uint8_t)HAL_GPIO_ReadPin(SW_IN_GPIO_Port, SW_IN_Pin) == 0){ //can only go into state 1 if no other 'ip cap' source is active
 80010ba:	4c2c      	ldr	r4, [pc, #176]	@ (800116c <LPTIM1_callback+0xb4>)
 80010bc:	7823      	ldrb	r3, [r4, #0]
 80010be:	2b00      	cmp	r3, #0
 80010c0:	d012      	beq.n	80010e8 <LPTIM1_callback+0x30>
 80010c2:	4d2b      	ldr	r5, [pc, #172]	@ (8001170 <LPTIM1_callback+0xb8>)
		Clear_Status_Bit(&statuses, IP_CAP_Events_Detection_Timeout);
	}

	//don't add conditional for STATE_0

	if((Get_Status_Bit(&statuses, IP_CAP_Events_Detection_Timeout) == YES && (state == STATE_2)) || (state == STATE_1)){
 80010c4:	2120      	movs	r1, #32
 80010c6:	0028      	movs	r0, r5
 80010c8:	f000 ff1e 	bl	8001f08 <Get_Status_Bit>
 80010cc:	2801      	cmp	r0, #1
 80010ce:	d020      	beq.n	8001112 <LPTIM1_callback+0x5a>
 80010d0:	7823      	ldrb	r3, [r4, #0]
 80010d2:	2b01      	cmp	r3, #1
 80010d4:	d020      	beq.n	8001118 <LPTIM1_callback+0x60>

		Speed_Pot_Check(&params);
	}


	if(state == STATE_1){
 80010d6:	7823      	ldrb	r3, [r4, #0]
 80010d8:	2b01      	cmp	r3, #1
 80010da:	d023      	beq.n	8001124 <LPTIM1_callback+0x6c>

	//SET PREVIOUS STATE TO CURRENT STATE
	//tap_tempo_switch_states.tap_tempo_switch_prev_state = tap_tempo_switch_states.tap_tempo_switch_state;

	//SET TIMER TRIGGER
	HAL_LPTIM_SetOnce_Start_IT(&hlptim1, LPTIM1_CCR_CHECK, LPTIM1_CCR_CHECK);
 80010dc:	22fa      	movs	r2, #250	@ 0xfa
 80010de:	21fa      	movs	r1, #250	@ 0xfa
 80010e0:	4824      	ldr	r0, [pc, #144]	@ (8001174 <LPTIM1_callback+0xbc>)
 80010e2:	f002 fa39 	bl	8003558 <HAL_LPTIM_SetOnce_Start_IT>

}
 80010e6:	bd70      	pop	{r4, r5, r6, pc}
	if((state == STATE_0) && (uint8_t)HAL_GPIO_ReadPin(SW_IN_GPIO_Port, SW_IN_Pin) == 0){ //can only go into state 1 if no other 'ip cap' source is active
 80010e8:	2180      	movs	r1, #128	@ 0x80
 80010ea:	20a0      	movs	r0, #160	@ 0xa0
 80010ec:	00c9      	lsls	r1, r1, #3
 80010ee:	05c0      	lsls	r0, r0, #23
 80010f0:	f002 f802 	bl	80030f8 <HAL_GPIO_ReadPin>
 80010f4:	2800      	cmp	r0, #0
 80010f6:	d1e4      	bne.n	80010c2 <LPTIM1_callback+0xa>
		state = STATE_1;
 80010f8:	2301      	movs	r3, #1
		Clear_Status_Bit(&statuses, IP_CAP_Events_Detection_Timeout);
 80010fa:	4d1d      	ldr	r5, [pc, #116]	@ (8001170 <LPTIM1_callback+0xb8>)
 80010fc:	2120      	movs	r1, #32
 80010fe:	0028      	movs	r0, r5
		state = STATE_1;
 8001100:	7023      	strb	r3, [r4, #0]
		Clear_Status_Bit(&statuses, IP_CAP_Events_Detection_Timeout);
 8001102:	f000 ff0b 	bl	8001f1c <Clear_Status_Bit>
	if((Get_Status_Bit(&statuses, IP_CAP_Events_Detection_Timeout) == YES && (state == STATE_2)) || (state == STATE_1)){
 8001106:	2120      	movs	r1, #32
 8001108:	0028      	movs	r0, r5
 800110a:	f000 fefd 	bl	8001f08 <Get_Status_Bit>
 800110e:	2801      	cmp	r0, #1
 8001110:	d1de      	bne.n	80010d0 <LPTIM1_callback+0x18>
 8001112:	7823      	ldrb	r3, [r4, #0]
 8001114:	2b02      	cmp	r3, #2
 8001116:	d1db      	bne.n	80010d0 <LPTIM1_callback+0x18>
		Speed_Pot_Check(&params);
 8001118:	4817      	ldr	r0, [pc, #92]	@ (8001178 <LPTIM1_callback+0xc0>)
 800111a:	f7ff f9a1 	bl	8000460 <Speed_Pot_Check>
	if(state == STATE_1){
 800111e:	7823      	ldrb	r3, [r4, #0]
 8001120:	2b01      	cmp	r3, #1
 8001122:	d1db      	bne.n	80010dc <LPTIM1_callback+0x24>
		Check_Tap_Tempo_Switch_State(&tap_tempo_switch_states);
 8001124:	4c15      	ldr	r4, [pc, #84]	@ (800117c <LPTIM1_callback+0xc4>)
 8001126:	0020      	movs	r0, r4
 8001128:	f7ff f9dc 	bl	80004e4 <Check_Tap_Tempo_Switch_State>
		if(tap_tempo_switch_states.tap_tempo_switch_state == DEPRESSED){
 800112c:	7823      	ldrb	r3, [r4, #0]
 800112e:	2b01      	cmp	r3, #1
 8001130:	d00f      	beq.n	8001152 <LPTIM1_callback+0x9a>
		else if(tap_tempo_switch_states.tap_tempo_switch_state == NOT_DEPRESSED){
 8001132:	7823      	ldrb	r3, [r4, #0]
 8001134:	2b00      	cmp	r3, #0
 8001136:	d1d1      	bne.n	80010dc <LPTIM1_callback+0x24>
			HAL_GPIO_WritePin(SW_OUT_GPIO_Port, SW_OUT_Pin, 1); //reset
 8001138:	2180      	movs	r1, #128	@ 0x80
 800113a:	20a0      	movs	r0, #160	@ 0xa0
 800113c:	2201      	movs	r2, #1
 800113e:	0089      	lsls	r1, r1, #2
 8001140:	05c0      	lsls	r0, r0, #23
 8001142:	f001 ffdf 	bl	8003104 <HAL_GPIO_WritePin>
			HAL_GPIO_WritePin(LD3_GPIO_Port, LD3_Pin, 0);
 8001146:	2200      	movs	r2, #0
 8001148:	2140      	movs	r1, #64	@ 0x40
 800114a:	480d      	ldr	r0, [pc, #52]	@ (8001180 <LPTIM1_callback+0xc8>)
 800114c:	f001 ffda 	bl	8003104 <HAL_GPIO_WritePin>
 8001150:	e7c4      	b.n	80010dc <LPTIM1_callback+0x24>
			HAL_GPIO_WritePin(SW_OUT_GPIO_Port, SW_OUT_Pin, 0);
 8001152:	2180      	movs	r1, #128	@ 0x80
 8001154:	20a0      	movs	r0, #160	@ 0xa0
 8001156:	2200      	movs	r2, #0
 8001158:	0089      	lsls	r1, r1, #2
 800115a:	05c0      	lsls	r0, r0, #23
 800115c:	f001 ffd2 	bl	8003104 <HAL_GPIO_WritePin>
			HAL_GPIO_WritePin(LD3_GPIO_Port, LD3_Pin, 1);
 8001160:	2201      	movs	r2, #1
 8001162:	2140      	movs	r1, #64	@ 0x40
 8001164:	4806      	ldr	r0, [pc, #24]	@ (8001180 <LPTIM1_callback+0xc8>)
 8001166:	f001 ffcd 	bl	8003104 <HAL_GPIO_WritePin>
 800116a:	e7b7      	b.n	80010dc <LPTIM1_callback+0x24>
 800116c:	20000bf2 	.word	0x20000bf2
 8001170:	20000b78 	.word	0x20000b78
 8001174:	20000440 	.word	0x20000440
 8001178:	20000bc4 	.word	0x20000bc4
 800117c:	20000b6c 	.word	0x20000b6c
 8001180:	50000800 	.word	0x50000800

08001184 <TIM17_callback>:

void TIM17_callback(TIM_HandleTypeDef *htim){


}
 8001184:	4770      	bx	lr
 8001186:	46c0      	nop			@ (mov r8, r8)

08001188 <TIM14_callback>:

void TIM14_callback(TIM_HandleTypeDef *htim){
 8001188:	b510      	push	{r4, lr}

	Stop_Timeout_Timer();
 800118a:	f7ff f9f1 	bl	8000570 <Stop_Timeout_Timer>
	Set_Status_Bit(&statuses, IP_CAP_Events_Detection_Timeout);
 800118e:	2120      	movs	r1, #32
 8001190:	4801      	ldr	r0, [pc, #4]	@ (8001198 <TIM14_callback+0x10>)
 8001192:	f000 febf 	bl	8001f14 <Set_Status_Bit>
}
 8001196:	bd10      	pop	{r4, pc}
 8001198:	20000b78 	.word	0x20000b78

0800119c <Input_Capture_Processing>:
volatile uint32_t TIM2_ch1_input_capture_value;

volatile uint16_t interrupt_period = 0;

//FUNCTION DEFINITIONS
uint8_t Input_Capture_Processing(volatile uint16_t interrupt_period_value, struct Params *params_ptr){
 800119c:	b5f0      	push	{r4, r5, r6, r7, lr}
 800119e:	b083      	sub	sp, #12
 80011a0:	466b      	mov	r3, sp
 80011a2:	000f      	movs	r7, r1
 80011a4:	80d8      	strh	r0, [r3, #6]

	//HAL_GPIO_WritePin(MONITOR_GPIO_Port, MONITOR_Pin, 1);

	Clear_Status_Bit(&statuses, Input_Capture_Processing_Can_Be_Started); //reset flag
 80011a6:	2104      	movs	r1, #4
 80011a8:	481a      	ldr	r0, [pc, #104]	@ (8001214 <Input_Capture_Processing+0x78>)
uint8_t Input_Capture_Processing(volatile uint16_t interrupt_period_value, struct Params *params_ptr){
 80011aa:	1d9d      	adds	r5, r3, #6
	Clear_Status_Bit(&statuses, Input_Capture_Processing_Can_Be_Started); //reset flag
 80011ac:	f000 feb6 	bl	8001f1c <Clear_Status_Bit>

	//DETERMINE WHAT TO SET THE RAW_START_VALUE AND BASE_PRESCALER TO BASED ON THE I/P CAPTURE VALUE
	//CHECK FOR PRIMALITY
	if(isPrime(interrupt_period_value) == YES){
 80011b0:	8828      	ldrh	r0, [r5, #0]
 80011b2:	b280      	uxth	r0, r0
 80011b4:	f000 fe84 	bl	8001ec0 <isPrime>
 80011b8:	2801      	cmp	r0, #1
 80011ba:	d103      	bne.n	80011c4 <Input_Capture_Processing+0x28>

		interrupt_period_value += 1;
 80011bc:	882b      	ldrh	r3, [r5, #0]
 80011be:	3301      	adds	r3, #1
 80011c0:	b29b      	uxth	r3, r3
 80011c2:	802b      	strh	r3, [r5, #0]
	}

	//START FINDING FACTORS
	uint32_t N = interrupt_period_value << 6; //calculate the N-value which is prescaler_meas * interrupt_period_meas. The measurement prescaler is used which is 64. (TIM2 has a prescaler of 64*512, but since we divide this value by 512, the prescaler is then just 64).
 80011c4:	2480      	movs	r4, #128	@ 0x80
 80011c6:	882e      	ldrh	r6, [r5, #0]
 80011c8:	0064      	lsls	r4, r4, #1
 80011ca:	01b6      	lsls	r6, r6, #6

	for(uint8_t i = 0; i < 129; i++){ //check from period = 264 to 128 - there will be a prescaler for every non-prime value of N
 80011cc:	e003      	b.n	80011d6 <Input_Capture_Processing+0x3a>
 80011ce:	3c01      	subs	r4, #1
 80011d0:	b2a4      	uxth	r4, r4
 80011d2:	2c7f      	cmp	r4, #127	@ 0x7f
 80011d4:	d00e      	beq.n	80011f4 <Input_Capture_Processing+0x58>

		interrupt_period_value = 256 - i;
 80011d6:	802c      	strh	r4, [r5, #0]
		uint16_t remainder = N % interrupt_period_value;
 80011d8:	8829      	ldrh	r1, [r5, #0]
 80011da:	0030      	movs	r0, r6
 80011dc:	b289      	uxth	r1, r1
 80011de:	f7ff f817 	bl	8000210 <__aeabi_uidivmod>

		if(remainder == 0){ //check if no remainder -> integer
 80011e2:	2900      	cmp	r1, #0
 80011e4:	d1f3      	bne.n	80011ce <Input_Capture_Processing+0x32>

			params_ptr->raw_prescaler = N / interrupt_period_value;
 80011e6:	8829      	ldrh	r1, [r5, #0]
 80011e8:	0030      	movs	r0, r6
 80011ea:	b289      	uxth	r1, r1
 80011ec:	f7fe ff8a 	bl	8000104 <__udivsi3>
 80011f0:	b280      	uxth	r0, r0
 80011f2:	8378      	strh	r0, [r7, #26]
			break;
		}
	}

	params_ptr->raw_start_value = 256 - interrupt_period_value;
 80011f4:	2380      	movs	r3, #128	@ 0x80
 80011f6:	882a      	ldrh	r2, [r5, #0]
 80011f8:	005b      	lsls	r3, r3, #1
 80011fa:	1a9b      	subs	r3, r3, r2
 80011fc:	b29b      	uxth	r3, r3

	Calculate_Next_Main_Oscillator_Values(params_ptr, (enum Next_Values_Processing_Mode)IP_CAPTURE_MODE);
 80011fe:	2101      	movs	r1, #1
	params_ptr->raw_start_value = 256 - interrupt_period_value;
 8001200:	827b      	strh	r3, [r7, #18]
	Calculate_Next_Main_Oscillator_Values(params_ptr, (enum Next_Values_Processing_Mode)IP_CAPTURE_MODE);
 8001202:	0038      	movs	r0, r7
 8001204:	f000 f8b6 	bl	8001374 <Calculate_Next_Main_Oscillator_Values>
	Process_TIM16_Final_Start_Value_and_Final_Prescaler(params_ptr);
 8001208:	0038      	movs	r0, r7
 800120a:	f000 fcf3 	bl	8001bf4 <Process_TIM16_Final_Start_Value_and_Final_Prescaler>

	//HAL_GPIO_WritePin(MONITOR_GPIO_Port, MONITOR_Pin, 0);

	return 1;
}
 800120e:	2001      	movs	r0, #1
 8001210:	b003      	add	sp, #12
 8001212:	bdf0      	pop	{r4, r5, r6, r7, pc}
 8001214:	20000b78 	.word	0x20000b78

08001218 <Start_Input_Capture_Timer>:

uint8_t Start_Input_Capture_Timer(void){
 8001218:	b570      	push	{r4, r5, r6, lr}
	return ok;
}

uint8_t Start_IC_TIM(TIM_HandleTypeDef *TIM, uint32_t IC_TIM_channel){

	uint8_t ok_AND = HAL_TIM_Base_Start_IT(&htim2);
 800121a:	4d0a      	ldr	r5, [pc, #40]	@ (8001244 <Start_Input_Capture_Timer+0x2c>)
 800121c:	0028      	movs	r0, r5
 800121e:	f002 ffc9 	bl	80041b4 <HAL_TIM_Base_Start_IT>
	ok_AND &= HAL_TIM_IC_Start_IT(&htim2, IC_TIM_channel);
 8001222:	2100      	movs	r1, #0
	uint8_t ok_AND = HAL_TIM_Base_Start_IT(&htim2);
 8001224:	0004      	movs	r4, r0
	ok_AND &= HAL_TIM_IC_Start_IT(&htim2, IC_TIM_channel);
 8001226:	0028      	movs	r0, r5
 8001228:	f003 fbb8 	bl	800499c <HAL_TIM_IC_Start_IT>
 800122c:	4004      	ands	r4, r0
 800122e:	b2e4      	uxtb	r4, r4

	if(ok_AND != HAL_OK){
 8001230:	2c00      	cmp	r4, #0
 8001232:	d101      	bne.n	8001238 <Start_Input_Capture_Timer+0x20>
}
 8001234:	0020      	movs	r0, r4
 8001236:	bd70      	pop	{r4, r5, r6, pc}

		Error_Handler();
 8001238:	f7ff fd32 	bl	8000ca0 <Error_Handler>
		Error_Handler();
 800123c:	f7ff fd30 	bl	8000ca0 <Error_Handler>
 8001240:	e7f8      	b.n	8001234 <Start_Input_Capture_Timer+0x1c>
 8001242:	46c0      	nop			@ (mov r8, r8)
 8001244:	20000798 	.word	0x20000798

08001248 <Copy_Params_Structs>:
	}

	return ok_AND;
}

uint8_t Copy_Params_Structs(struct Params *src_ptr, struct Params *dst_ptr){
 8001248:	0003      	movs	r3, r0
 800124a:	b510      	push	{r4, lr}
 800124c:	0008      	movs	r0, r1

	*dst_ptr = *src_ptr;
 800124e:	2222      	movs	r2, #34	@ 0x22
 8001250:	0019      	movs	r1, r3
 8001252:	f005 fa1f 	bl	8006694 <memcpy>

	return 1;
}
 8001256:	2001      	movs	r0, #1
 8001258:	bd10      	pop	{r4, pc}
 800125a:	46c0      	nop			@ (mov r8, r8)

0800125c <Start_Measurement_Reelapse_Timer>:

uint8_t Start_Measurement_Reelapse_Timer(void){

	__HAL_TIM_SET_COUNTER(&htim3, 0);
 800125c:	2300      	movs	r3, #0
 800125e:	4806      	ldr	r0, [pc, #24]	@ (8001278 <Start_Measurement_Reelapse_Timer+0x1c>)
uint8_t Start_Measurement_Reelapse_Timer(void){
 8001260:	b510      	push	{r4, lr}
	__HAL_TIM_SET_COUNTER(&htim3, 0);
 8001262:	6802      	ldr	r2, [r0, #0]
	__HAL_TIM_SET_COMPARE(&htim3, TIM_CHANNEL_1, interrupt_period);
	Start_OC_TIM(&htim3, TIM_CHANNEL_1);
 8001264:	2100      	movs	r1, #0
	__HAL_TIM_SET_COUNTER(&htim3, 0);
 8001266:	6253      	str	r3, [r2, #36]	@ 0x24
	__HAL_TIM_SET_COMPARE(&htim3, TIM_CHANNEL_1, interrupt_period);
 8001268:	4b04      	ldr	r3, [pc, #16]	@ (800127c <Start_Measurement_Reelapse_Timer+0x20>)
 800126a:	881b      	ldrh	r3, [r3, #0]
 800126c:	b29b      	uxth	r3, r3
 800126e:	6353      	str	r3, [r2, #52]	@ 0x34
	Start_OC_TIM(&htim3, TIM_CHANNEL_1);
 8001270:	f000 fe12 	bl	8001e98 <Start_OC_TIM>

	return 1;
}
 8001274:	2001      	movs	r0, #1
 8001276:	bd10      	pop	{r4, pc}
 8001278:	200006dc 	.word	0x200006dc
 800127c:	20000b6e 	.word	0x20000b6e

08001280 <Begin_Input_Capture_Measurement>:

uint8_t Begin_Input_Capture_Measurement(void){

	__HAL_TIM_SET_COUNTER(&htim2, 0); //begin measurement
 8001280:	2200      	movs	r2, #0
 8001282:	4b02      	ldr	r3, [pc, #8]	@ (800128c <Begin_Input_Capture_Measurement+0xc>)

	return 1;
}
 8001284:	2001      	movs	r0, #1
	__HAL_TIM_SET_COUNTER(&htim2, 0); //begin measurement
 8001286:	681b      	ldr	r3, [r3, #0]
 8001288:	625a      	str	r2, [r3, #36]	@ 0x24
}
 800128a:	4770      	bx	lr
 800128c:	20000798 	.word	0x20000798

08001290 <main>:
//const char one_byte_data = 'j';

volatile uint32_t statuses = 0; //set of all status bits (to reduce memory usage)

int main(void)
{
 8001290:	b570      	push	{r4, r5, r6, lr}
	//SYSTEM INIT
	System_Init();
 8001292:	f7ff fd07 	bl	8000ca4 <System_Init>

	//STARTUP
	Startup();
 8001296:	f000 f97b 	bl	8001590 <Startup>
 800129a:	4c07      	ldr	r4, [pc, #28]	@ (80012b8 <main+0x28>)
 800129c:	4e07      	ldr	r6, [pc, #28]	@ (80012bc <main+0x2c>)
 800129e:	4d08      	ldr	r5, [pc, #32]	@ (80012c0 <main+0x30>)

			UART_DMA_TX_is_complete = NO;
			HAL_UART_Transmit_DMA(&huart2, (const uint8_t*)&one_byte_data, sizeof(one_byte_data));
		}*/

		if(Get_Status_Bit(&statuses, Input_Capture_Processing_Can_Be_Started) == YES){
 80012a0:	2104      	movs	r1, #4
 80012a2:	0020      	movs	r0, r4
 80012a4:	f000 fe30 	bl	8001f08 <Get_Status_Bit>
 80012a8:	2801      	cmp	r0, #1
 80012aa:	d1f9      	bne.n	80012a0 <main+0x10>

			Input_Capture_Processing(interrupt_period, &params_to_be_loaded);
 80012ac:	8830      	ldrh	r0, [r6, #0]
 80012ae:	0029      	movs	r1, r5
 80012b0:	b280      	uxth	r0, r0
 80012b2:	f7ff ff73 	bl	800119c <Input_Capture_Processing>
 80012b6:	e7f3      	b.n	80012a0 <main+0x10>
 80012b8:	20000b78 	.word	0x20000b78
 80012bc:	20000b6e 	.word	0x20000b6e
 80012c0:	20000ba0 	.word	0x20000ba0

080012c4 <Start_PWM_Gen_Timer_Main_and_Secondary_Oscillators>:
								.duty_delay_line_finish_offset = FINAL_INDEX + 1, //initial value is 512th index, one larger than the index of the final sample
								.duty_delay_line_read_pointer_offset = 0}; //determined in running

//FUNCTION DEFINITIONS
uint8_t Start_PWM_Gen_Timer_Main_and_Secondary_Oscillators(TIM_HandleTypeDef *TIM, uint32_t PWM_TIM_channel_1, uint32_t PWM_TIM_channel_2)
{
 80012c4:	b5f8      	push	{r3, r4, r5, r6, r7, lr}
 80012c6:	0016      	movs	r6, r2
 80012c8:	0005      	movs	r5, r0
 80012ca:	000f      	movs	r7, r1
	uint8_t ok_OR = 0;
	ok_OR |= HAL_TIM_Base_Start(TIM);
 80012cc:	f002 ff44 	bl	8004158 <HAL_TIM_Base_Start>
	ok_OR |= HAL_TIM_PWM_Start(TIM, PWM_TIM_channel_1); //start PWM
 80012d0:	0039      	movs	r1, r7
	ok_OR |= HAL_TIM_Base_Start(TIM);
 80012d2:	0004      	movs	r4, r0
	ok_OR |= HAL_TIM_PWM_Start(TIM, PWM_TIM_channel_1); //start PWM
 80012d4:	0028      	movs	r0, r5
 80012d6:	f003 fa31 	bl	800473c <HAL_TIM_PWM_Start>
	ok_OR |= HAL_TIM_PWM_Start(TIM, PWM_TIM_channel_2); //start PWM
 80012da:	0031      	movs	r1, r6
	ok_OR |= HAL_TIM_PWM_Start(TIM, PWM_TIM_channel_1); //start PWM
 80012dc:	4304      	orrs	r4, r0
	ok_OR |= HAL_TIM_PWM_Start(TIM, PWM_TIM_channel_2); //start PWM
 80012de:	0028      	movs	r0, r5
 80012e0:	f003 fa2c 	bl	800473c <HAL_TIM_PWM_Start>
	ok_OR |= HAL_TIM_PWM_Start(TIM, PWM_TIM_channel_1); //start PWM
 80012e4:	b2e4      	uxtb	r4, r4
	ok_OR |= HAL_TIM_PWM_Start(TIM, PWM_TIM_channel_2); //start PWM
 80012e6:	4304      	orrs	r4, r0
 80012e8:	b2e4      	uxtb	r4, r4

	if(ok_OR != HAL_OK){
 80012ea:	2c00      	cmp	r4, #0
 80012ec:	d101      	bne.n	80012f2 <Start_PWM_Gen_Timer_Main_and_Secondary_Oscillators+0x2e>

		Error_Handler();
	}

	return ok_OR;
}
 80012ee:	0020      	movs	r0, r4
 80012f0:	bdf8      	pop	{r3, r4, r5, r6, r7, pc}
		Error_Handler();
 80012f2:	f7ff fcd5 	bl	8000ca0 <Error_Handler>
 80012f6:	e7fa      	b.n	80012ee <Start_PWM_Gen_Timer_Main_and_Secondary_Oscillators+0x2a>

080012f8 <Start_Freq_Gen_Timer>:

uint8_t Start_Freq_Gen_Timer(void)
{
 80012f8:	b510      	push	{r4, lr}
	uint8_t ok = Start_OC_TIM(&htim16, TIM_CHANNEL_1); //start freq. gen.
 80012fa:	2100      	movs	r1, #0
 80012fc:	4804      	ldr	r0, [pc, #16]	@ (8001310 <Start_Freq_Gen_Timer+0x18>)
 80012fe:	f000 fdcb 	bl	8001e98 <Start_OC_TIM>
 8001302:	1e04      	subs	r4, r0, #0

	if(ok != HAL_OK){
 8001304:	d101      	bne.n	800130a <Start_Freq_Gen_Timer+0x12>

		Error_Handler();
	}

	return ok;
}
 8001306:	0020      	movs	r0, r4
 8001308:	bd10      	pop	{r4, pc}
		Error_Handler();
 800130a:	f7ff fcc9 	bl	8000ca0 <Error_Handler>
 800130e:	e7fa      	b.n	8001306 <Start_Freq_Gen_Timer+0xe>
 8001310:	20000854 	.word	0x20000854

08001314 <Process_TIM16_Raw_Start_Value_and_Raw_Prescaler>:

	uint32_t speed_control = 0;
	uint8_t how_many_128 = 0;

    //speed_control = (speed_adc_10_bit/1024)*'range macro'
    speed_control = params_ptr->speed * NUMBER_OF_FREQUENCY_STEPS;
 8001314:	8902      	ldrh	r2, [r0, #8]
 8001316:	0093      	lsls	r3, r2, #2
 8001318:	189b      	adds	r3, r3, r2
 800131a:	019b      	lsls	r3, r3, #6
 800131c:	189b      	adds	r3, r3, r2
 800131e:	005b      	lsls	r3, r3, #1
 8001320:	189b      	adds	r3, r3, r2
    speed_control = speed_control >> SPEED_ADC_RESOLUTION;

    how_many_128 = (uint8_t)(speed_control >> 7); //divide by 128, i.e. return how many 128s go into the speed_control
 8001322:	0c59      	lsrs	r1, r3, #17
    params_ptr->raw_start_value = (uint16_t)(speed_control - (uint16_t)(how_many_128 << 7)); //how_many_128*128
 8001324:	b2ca      	uxtb	r2, r1
 8001326:	01d2      	lsls	r2, r2, #7
    speed_control = speed_control >> SPEED_ADC_RESOLUTION;
 8001328:	0a9b      	lsrs	r3, r3, #10
    params_ptr->raw_start_value = (uint16_t)(speed_control - (uint16_t)(how_many_128 << 7)); //how_many_128*128
 800132a:	1a9b      	subs	r3, r3, r2
 800132c:	b29b      	uxth	r3, r3
 800132e:	8243      	strh	r3, [r0, #18]
    params_ptr->raw_prescaler = SLOWEST_SPEED_PRESCALER >> how_many_128;
 8001330:	22ff      	movs	r2, #255	@ 0xff
 8001332:	2380      	movs	r3, #128	@ 0x80
 8001334:	400a      	ands	r2, r1
 8001336:	00db      	lsls	r3, r3, #3
 8001338:	4113      	asrs	r3, r2
 800133a:	b29b      	uxth	r3, r3
 800133c:	8343      	strh	r3, [r0, #26]

    return 1;
}
 800133e:	2001      	movs	r0, #1
 8001340:	4770      	bx	lr
 8001342:	46c0      	nop			@ (mov r8, r8)

08001344 <Set_Oscillator_Values>:
uint8_t Set_Oscillator_Values(struct Params* params_ptr){

	////////////////////////////////////////////////////////
	//SET THE CURRENT(prev) VALUES FOR THE MAIN OSCILLATOR//
	////////////////////////////////////////////////////////
	__HAL_TIM_SET_AUTORELOAD(&htim16, params_ptr->final_ARR);
 8001344:	4909      	ldr	r1, [pc, #36]	@ (800136c <Set_Oscillator_Values+0x28>)
 8001346:	8b03      	ldrh	r3, [r0, #24]
 8001348:	680a      	ldr	r2, [r1, #0]
 800134a:	b29b      	uxth	r3, r3
 800134c:	62d3      	str	r3, [r2, #44]	@ 0x2c
 800134e:	8b03      	ldrh	r3, [r0, #24]
 8001350:	60cb      	str	r3, [r1, #12]
	__HAL_TIM_SET_PRESCALER(&htim16, params_ptr->final_prescaler_minus_one); //have to take one off the divisor
 8001352:	8bc3      	ldrh	r3, [r0, #30]
 8001354:	b29b      	uxth	r3, r3
 8001356:	6293      	str	r3, [r2, #40]	@ 0x28

	__HAL_TIM_SET_COMPARE(&htim1, TIM_CHANNEL_2, params_ptr->prev_duty); //updates the CCR register of TIM14, which sets duty, i.e. the ON time relative to the total period which is set by the ARR.
 8001358:	4a05      	ldr	r2, [pc, #20]	@ (8001370 <Set_Oscillator_Values+0x2c>)
 800135a:	8843      	ldrh	r3, [r0, #2]
 800135c:	6812      	ldr	r2, [r2, #0]
 800135e:	b29b      	uxth	r3, r3
 8001360:	6393      	str	r3, [r2, #56]	@ 0x38

	/////////////////////////////////////////////////////////////
	//SET THE CURRENT(prev) VALUES FOR THE SECONDARY OSCILLATOR//
	/////////////////////////////////////////////////////////////
	__HAL_TIM_SET_COMPARE(&htim1, TIM_CHANNEL_4, params_ptr->duty_delayed); //updates the CCR register of TIM14, which sets duty, i.e. the ON time relative to the total period which is set by the ARR.
 8001362:	8883      	ldrh	r3, [r0, #4]

	return 1;
}
 8001364:	2001      	movs	r0, #1
	__HAL_TIM_SET_COMPARE(&htim1, TIM_CHANNEL_4, params_ptr->duty_delayed); //updates the CCR register of TIM14, which sets duty, i.e. the ON time relative to the total period which is set by the ARR.
 8001366:	b29b      	uxth	r3, r3
 8001368:	6413      	str	r3, [r2, #64]	@ 0x40
}
 800136a:	4770      	bx	lr
 800136c:	20000854 	.word	0x20000854
 8001370:	20000620 	.word	0x20000620

08001374 <Calculate_Next_Main_Oscillator_Values>:

uint8_t Calculate_Next_Main_Oscillator_Values(struct Params* params_ptr, enum Next_Values_Processing_Mode mode){

	if(mode == REGULAR_MODE){
 8001374:	2900      	cmp	r1, #0
 8001376:	d11e      	bne.n	80013b6 <Calculate_Next_Main_Oscillator_Values+0x42>

		params_ptr->index++;
 8001378:	89c3      	ldrh	r3, [r0, #14]
 800137a:	3301      	adds	r3, #1
 800137c:	b29b      	uxth	r3, r3
 800137e:	81c3      	strh	r3, [r0, #14]

		if(params_ptr->index == FINAL_INDEX + 1){
 8001380:	2380      	movs	r3, #128	@ 0x80
 8001382:	89c2      	ldrh	r2, [r0, #14]
 8001384:	009b      	lsls	r3, r3, #2
 8001386:	429a      	cmp	r2, r3
 8001388:	d053      	beq.n	8001432 <Calculate_Next_Main_Oscillator_Values+0xbe>
			params_ptr->index = 0;
		}

		if(params_ptr->index == FIRST_QUADRANT_START_INDEX){
 800138a:	89c3      	ldrh	r3, [r0, #14]
 800138c:	b29a      	uxth	r2, r3
 800138e:	2b00      	cmp	r3, #0
 8001390:	d04c      	beq.n	800142c <Calculate_Next_Main_Oscillator_Values+0xb8>
			params_ptr->quadrant = FIRST_QUADRANT;
			params_ptr->halfcycle = FIRST_HALFCYCLE;
		}
		else if(params_ptr->index == SECOND_QUADRANT_START_INDEX){
 8001392:	89c3      	ldrh	r3, [r0, #14]
 8001394:	2b80      	cmp	r3, #128	@ 0x80
 8001396:	d04e      	beq.n	8001436 <Calculate_Next_Main_Oscillator_Values+0xc2>
			params_ptr->quadrant = SECOND_QUADRANT;
			params_ptr->halfcycle = FIRST_HALFCYCLE;
		}
		else if(params_ptr->index == THIRD_QUADRANT_START_INDEX){
 8001398:	2380      	movs	r3, #128	@ 0x80
 800139a:	89c2      	ldrh	r2, [r0, #14]
 800139c:	005b      	lsls	r3, r3, #1
 800139e:	429a      	cmp	r2, r3
 80013a0:	d051      	beq.n	8001446 <Calculate_Next_Main_Oscillator_Values+0xd2>
			params_ptr->quadrant = FIRST_QUADRANT;
			params_ptr->halfcycle = SECOND_HALFCYCLE;
		}
		else if(params_ptr->index == FOURTH_QUADRANT_START_INDEX){
 80013a2:	23c0      	movs	r3, #192	@ 0xc0
 80013a4:	89c2      	ldrh	r2, [r0, #14]
 80013a6:	005b      	lsls	r3, r3, #1
 80013a8:	429a      	cmp	r2, r3
 80013aa:	d108      	bne.n	80013be <Calculate_Next_Main_Oscillator_Values+0x4a>
			params_ptr->quadrant = SECOND_QUADRANT;
 80013ac:	3b80      	subs	r3, #128	@ 0x80
 80013ae:	3bff      	subs	r3, #255	@ 0xff
 80013b0:	7443      	strb	r3, [r0, #17]
			params_ptr->halfcycle = SECOND_HALFCYCLE;
 80013b2:	7403      	strb	r3, [r0, #16]
 80013b4:	e003      	b.n	80013be <Calculate_Next_Main_Oscillator_Values+0x4a>
		}
	}
	else if(mode == IP_CAPTURE_MODE){
 80013b6:	2901      	cmp	r1, #1
 80013b8:	d050      	beq.n	800145c <Calculate_Next_Main_Oscillator_Values+0xe8>
			params_ptr->index = 0;
			params_ptr->quadrant = FIRST_QUADRANT;
			params_ptr->halfcycle = FIRST_HALFCYCLE;
		}
	}
	else if(mode == STARTUP_MODE){
 80013ba:	2902      	cmp	r1, #2
 80013bc:	d032      	beq.n	8001424 <Calculate_Next_Main_Oscillator_Values+0xb0>
			params_ptr->halfcycle = FIRST_HALFCYCLE;
		}
	}

	//ONCE INDEX IS SET, FIND THE DUTY VALUE
	if(params_ptr->waveshape == TRIANGLE_MODE){
 80013be:	7983      	ldrb	r3, [r0, #6]
 80013c0:	2b00      	cmp	r3, #0
 80013c2:	d117      	bne.n	80013f4 <Calculate_Next_Main_Oscillator_Values+0x80>
		params_ptr->duty = tri_wavetable[params_ptr->index];
 80013c4:	89c2      	ldrh	r2, [r0, #14]
 80013c6:	4b2e      	ldr	r3, [pc, #184]	@ (8001480 <Calculate_Next_Main_Oscillator_Values+0x10c>)
 80013c8:	0052      	lsls	r2, r2, #1
 80013ca:	5ad3      	ldrh	r3, [r2, r3]
 80013cc:	8003      	strh	r3, [r0, #0]

	//APPLY DEPTH
	#if DEPTH_ON_OR_OFF == 1

		//Apply Depth
		if(params_ptr->depth == ((1 << DEPTH_ADC_RESOLUTION) - 1)){ //255
 80013ce:	7a83      	ldrb	r3, [r0, #10]
 80013d0:	2b7f      	cmp	r3, #127	@ 0x7f
 80013d2:	d01e      	beq.n	8001412 <Calculate_Next_Main_Oscillator_Values+0x9e>
			params_ptr->duty = PWM_DUTY_VALUE_MAX - params_ptr->duty;
		}
		else if(params_ptr->depth != 0){
 80013d4:	7a83      	ldrb	r3, [r0, #10]
 80013d6:	2b00      	cmp	r3, #0
 80013d8:	d021      	beq.n	800141e <Calculate_Next_Main_Oscillator_Values+0xaa>

			//duty = 1023 - duty*(current_depth >> 8);
			uint32_t multiply_product = 0;
			multiply_product = (params_ptr->duty) * (params_ptr->depth);
 80013da:	8803      	ldrh	r3, [r0, #0]
 80013dc:	7a82      	ldrb	r2, [r0, #10]
 80013de:	435a      	muls	r2, r3
			params_ptr->duty = PWM_DUTY_VALUE_MAX - (multiply_product >> DEPTH_ADC_RESOLUTION);
 80013e0:	4b28      	ldr	r3, [pc, #160]	@ (8001484 <Calculate_Next_Main_Oscillator_Values+0x110>)
 80013e2:	09d2      	lsrs	r2, r2, #7
 80013e4:	1a9b      	subs	r3, r3, r2
 80013e6:	b29b      	uxth	r3, r3
 80013e8:	8003      	strh	r3, [r0, #0]
		}

	#endif

	//SET THE NEXT VALUE FOR THE MAIN OSCILLATOR
	params_ptr->prev_duty = params_ptr->duty;
 80013ea:	8803      	ldrh	r3, [r0, #0]
 80013ec:	b29b      	uxth	r3, r3
 80013ee:	8043      	strh	r3, [r0, #2]

	return 1;
}
 80013f0:	2001      	movs	r0, #1
 80013f2:	4770      	bx	lr
	else if(params_ptr->waveshape == SINE_MODE){
 80013f4:	7983      	ldrb	r3, [r0, #6]
 80013f6:	2b01      	cmp	r3, #1
 80013f8:	d02a      	beq.n	8001450 <Calculate_Next_Main_Oscillator_Values+0xdc>
	else if((params_ptr->waveshape == SQUARE_MODE) && (params_ptr->index < THIRD_QUADRANT_START_INDEX)){
 80013fa:	7983      	ldrb	r3, [r0, #6]
 80013fc:	2b02      	cmp	r3, #2
 80013fe:	d039      	beq.n	8001474 <Calculate_Next_Main_Oscillator_Values+0x100>
	else if((params_ptr->waveshape == SQUARE_MODE) && (params_ptr->index >= THIRD_QUADRANT_START_INDEX)){
 8001400:	7983      	ldrb	r3, [r0, #6]
 8001402:	2b02      	cmp	r3, #2
 8001404:	d1e3      	bne.n	80013ce <Calculate_Next_Main_Oscillator_Values+0x5a>
 8001406:	89c3      	ldrh	r3, [r0, #14]
 8001408:	2bff      	cmp	r3, #255	@ 0xff
 800140a:	d9e0      	bls.n	80013ce <Calculate_Next_Main_Oscillator_Values+0x5a>
		params_ptr->duty = PWM_DUTY_VALUE_MIN;
 800140c:	2300      	movs	r3, #0
 800140e:	8003      	strh	r3, [r0, #0]
 8001410:	e7dd      	b.n	80013ce <Calculate_Next_Main_Oscillator_Values+0x5a>
			params_ptr->duty = PWM_DUTY_VALUE_MAX - params_ptr->duty;
 8001412:	8802      	ldrh	r2, [r0, #0]
 8001414:	4b1b      	ldr	r3, [pc, #108]	@ (8001484 <Calculate_Next_Main_Oscillator_Values+0x110>)
 8001416:	1a9b      	subs	r3, r3, r2
 8001418:	b29b      	uxth	r3, r3
 800141a:	8003      	strh	r3, [r0, #0]
 800141c:	e7e5      	b.n	80013ea <Calculate_Next_Main_Oscillator_Values+0x76>
			params_ptr->duty = PWM_DUTY_VALUE_MAX; //if depth is 0, just output 1023
 800141e:	4b19      	ldr	r3, [pc, #100]	@ (8001484 <Calculate_Next_Main_Oscillator_Values+0x110>)
 8001420:	8003      	strh	r3, [r0, #0]
 8001422:	e7e2      	b.n	80013ea <Calculate_Next_Main_Oscillator_Values+0x76>
		if(params_ptr->index == FIRST_QUADRANT_START_INDEX){
 8001424:	89c3      	ldrh	r3, [r0, #14]
 8001426:	b29a      	uxth	r2, r3
 8001428:	2b00      	cmp	r3, #0
 800142a:	d1c8      	bne.n	80013be <Calculate_Next_Main_Oscillator_Values+0x4a>
			params_ptr->quadrant = FIRST_QUADRANT;
 800142c:	7442      	strb	r2, [r0, #17]
			params_ptr->halfcycle = FIRST_HALFCYCLE;
 800142e:	7402      	strb	r2, [r0, #16]
 8001430:	e7c5      	b.n	80013be <Calculate_Next_Main_Oscillator_Values+0x4a>
			params_ptr->index = 0;
 8001432:	81c1      	strh	r1, [r0, #14]
 8001434:	e7a9      	b.n	800138a <Calculate_Next_Main_Oscillator_Values+0x16>
			params_ptr->quadrant = SECOND_QUADRANT;
 8001436:	3b7f      	subs	r3, #127	@ 0x7f
 8001438:	7443      	strb	r3, [r0, #17]
			params_ptr->halfcycle = FIRST_HALFCYCLE;
 800143a:	2300      	movs	r3, #0
 800143c:	7403      	strb	r3, [r0, #16]
 800143e:	e7be      	b.n	80013be <Calculate_Next_Main_Oscillator_Values+0x4a>
			params_ptr->index = SINE_OR_TRIANGLE_WAVE_TEMPO_PERCEIVED_APEX_INDEX;
 8001440:	23a7      	movs	r3, #167	@ 0xa7
 8001442:	005b      	lsls	r3, r3, #1
 8001444:	81c3      	strh	r3, [r0, #14]
			params_ptr->quadrant = CURRENT_QUADRANT_SINE_OR_TRI_SYNCED;
 8001446:	2300      	movs	r3, #0
 8001448:	7443      	strb	r3, [r0, #17]
			params_ptr->halfcycle = CURRENT_HALFCYCLE_SINE_OR_TRI_SYNCED;
 800144a:	3301      	adds	r3, #1
 800144c:	7403      	strb	r3, [r0, #16]
 800144e:	e7b6      	b.n	80013be <Calculate_Next_Main_Oscillator_Values+0x4a>
		params_ptr->duty = sine_wavetable[params_ptr->index];
 8001450:	89c2      	ldrh	r2, [r0, #14]
 8001452:	4b0d      	ldr	r3, [pc, #52]	@ (8001488 <Calculate_Next_Main_Oscillator_Values+0x114>)
 8001454:	0052      	lsls	r2, r2, #1
 8001456:	5ad3      	ldrh	r3, [r2, r3]
 8001458:	8003      	strh	r3, [r0, #0]
 800145a:	e7b8      	b.n	80013ce <Calculate_Next_Main_Oscillator_Values+0x5a>
		if(params_ptr->waveshape == SINE_MODE || params_ptr->waveshape == TRIANGLE_MODE){
 800145c:	7983      	ldrb	r3, [r0, #6]
 800145e:	2b01      	cmp	r3, #1
 8001460:	d0ee      	beq.n	8001440 <Calculate_Next_Main_Oscillator_Values+0xcc>
 8001462:	7983      	ldrb	r3, [r0, #6]
 8001464:	2b00      	cmp	r3, #0
 8001466:	d0eb      	beq.n	8001440 <Calculate_Next_Main_Oscillator_Values+0xcc>
			params_ptr->index = 0;
 8001468:	2300      	movs	r3, #0
 800146a:	2200      	movs	r2, #0
 800146c:	81c2      	strh	r2, [r0, #14]
			params_ptr->quadrant = FIRST_QUADRANT;
 800146e:	7443      	strb	r3, [r0, #17]
			params_ptr->halfcycle = FIRST_HALFCYCLE;
 8001470:	7403      	strb	r3, [r0, #16]
 8001472:	e7a4      	b.n	80013be <Calculate_Next_Main_Oscillator_Values+0x4a>
	else if((params_ptr->waveshape == SQUARE_MODE) && (params_ptr->index < THIRD_QUADRANT_START_INDEX)){
 8001474:	89c3      	ldrh	r3, [r0, #14]
 8001476:	2bff      	cmp	r3, #255	@ 0xff
 8001478:	d8c2      	bhi.n	8001400 <Calculate_Next_Main_Oscillator_Values+0x8c>
		params_ptr->duty = PWM_DUTY_VALUE_MAX;
 800147a:	4b02      	ldr	r3, [pc, #8]	@ (8001484 <Calculate_Next_Main_Oscillator_Values+0x110>)
 800147c:	8003      	strh	r3, [r0, #0]
 800147e:	e7a6      	b.n	80013ce <Calculate_Next_Main_Oscillator_Values+0x5a>
 8001480:	080066c4 	.word	0x080066c4
 8001484:	000003ff 	.word	0x000003ff
 8001488:	08006ac4 	.word	0x08006ac4

0800148c <Write_Next_Main_Oscillator_Values_to_Delay_Line>:

uint8_t Write_Next_Main_Oscillator_Values_to_Delay_Line(struct Params* params_ptr, struct Delay_Line* delay_line_ptr){
 800148c:	b530      	push	{r4, r5, lr}

	//STORE THE VALUES IN THE APPROPRIATE '0TH - 1' INDEX RELATIVE TO THE START POINTER
		if(delay_line_ptr->duty_delay_line_start_offset != 0){
 800148e:	4b29      	ldr	r3, [pc, #164]	@ (8001534 <Write_Next_Main_Oscillator_Values_to_Delay_Line+0xa8>)
 8001490:	5aca      	ldrh	r2, [r1, r3]
 8001492:	2a00      	cmp	r2, #0
 8001494:	d027      	beq.n	80014e6 <Write_Next_Main_Oscillator_Values_to_Delay_Line+0x5a>
			delay_line_ptr->duty_delay_line_storage_array[delay_line_ptr->duty_delay_line_start_offset - 1] = params_ptr->duty;
 8001496:	5acb      	ldrh	r3, [r1, r3]
 8001498:	8802      	ldrh	r2, [r0, #0]
 800149a:	3b01      	subs	r3, #1
 800149c:	b292      	uxth	r2, r2
 800149e:	005b      	lsls	r3, r3, #1
 80014a0:	525a      	strh	r2, [r3, r1]
		else{
			delay_line_ptr->duty_delay_line_storage_array[FINAL_INDEX + 1] = params_ptr->duty;
		}

		//DECREMENT THE START AND FINISH POINTERS
		if(delay_line_ptr->duty_delay_line_start_offset == 0){
 80014a2:	4b24      	ldr	r3, [pc, #144]	@ (8001534 <Write_Next_Main_Oscillator_Values_to_Delay_Line+0xa8>)
 80014a4:	5aca      	ldrh	r2, [r1, r3]
 80014a6:	2a00      	cmp	r2, #0
 80014a8:	d126      	bne.n	80014f8 <Write_Next_Main_Oscillator_Values_to_Delay_Line+0x6c>
			delay_line_ptr->duty_delay_line_start_offset = FINAL_INDEX + 1;
 80014aa:	2280      	movs	r2, #128	@ 0x80
 80014ac:	0092      	lsls	r2, r2, #2
 80014ae:	52ca      	strh	r2, [r1, r3]
			delay_line_ptr->duty_delay_line_finish_offset = delay_line_ptr->duty_delay_line_finish_offset - 1;
 80014b0:	4a21      	ldr	r2, [pc, #132]	@ (8001538 <Write_Next_Main_Oscillator_Values_to_Delay_Line+0xac>)
 80014b2:	5a8b      	ldrh	r3, [r1, r2]
 80014b4:	3b01      	subs	r3, #1
 80014b6:	b29b      	uxth	r3, r3
 80014b8:	528b      	strh	r3, [r1, r2]
			delay_line_ptr->duty_delay_line_start_offset = delay_line_ptr->duty_delay_line_start_offset - 1;
			delay_line_ptr->duty_delay_line_finish_offset = delay_line_ptr->duty_delay_line_finish_offset - 1;
		}

		//DETERMINE THE DELAYED WAVE'S VALUES
		if(delay_line_ptr->duty_delay_line_start_offset + delay_line_ptr->duty_delay_line_read_pointer_offset > FINAL_INDEX + 1){ //if the desired starting index falls off the end of the array
 80014ba:	4c1e      	ldr	r4, [pc, #120]	@ (8001534 <Write_Next_Main_Oscillator_Values_to_Delay_Line+0xa8>)
 80014bc:	4a1f      	ldr	r2, [pc, #124]	@ (800153c <Write_Next_Main_Oscillator_Values_to_Delay_Line+0xb0>)
 80014be:	5b0b      	ldrh	r3, [r1, r4]
 80014c0:	5a8d      	ldrh	r5, [r1, r2]
 80014c2:	195b      	adds	r3, r3, r5
 80014c4:	2580      	movs	r5, #128	@ 0x80
 80014c6:	00ad      	lsls	r5, r5, #2
 80014c8:	42ab      	cmp	r3, r5
 80014ca:	dd21      	ble.n	8001510 <Write_Next_Main_Oscillator_Values_to_Delay_Line+0x84>
			params_ptr->duty_delayed = *(delay_line_ptr->duty_delay_line_storage_array + (delay_line_ptr->duty_delay_line_start_offset + delay_line_ptr->duty_delay_line_read_pointer_offset - (FINAL_INDEX + 1)));
 80014cc:	5b0b      	ldrh	r3, [r1, r4]
 80014ce:	5a8a      	ldrh	r2, [r1, r2]
 80014d0:	189b      	adds	r3, r3, r2
 80014d2:	4a1b      	ldr	r2, [pc, #108]	@ (8001540 <Write_Next_Main_Oscillator_Values_to_Delay_Line+0xb4>)
 80014d4:	4694      	mov	ip, r2
 80014d6:	4463      	add	r3, ip
 80014d8:	005b      	lsls	r3, r3, #1
 80014da:	18cb      	adds	r3, r1, r3
 80014dc:	881b      	ldrh	r3, [r3, #0]
 80014de:	b29b      	uxth	r3, r3
 80014e0:	8083      	strh	r3, [r0, #4]
		else{
			params_ptr->duty_delayed = *(delay_line_ptr->duty_delay_line_storage_array + delay_line_ptr->duty_delay_line_start_offset + delay_line_ptr->duty_delay_line_read_pointer_offset);
		}

	return 1;
}
 80014e2:	2001      	movs	r0, #1
 80014e4:	bd30      	pop	{r4, r5, pc}
			delay_line_ptr->duty_delay_line_storage_array[FINAL_INDEX + 1] = params_ptr->duty;
 80014e6:	2280      	movs	r2, #128	@ 0x80
 80014e8:	8803      	ldrh	r3, [r0, #0]
 80014ea:	00d2      	lsls	r2, r2, #3
 80014ec:	b29b      	uxth	r3, r3
 80014ee:	528b      	strh	r3, [r1, r2]
		if(delay_line_ptr->duty_delay_line_start_offset == 0){
 80014f0:	4b10      	ldr	r3, [pc, #64]	@ (8001534 <Write_Next_Main_Oscillator_Values_to_Delay_Line+0xa8>)
 80014f2:	5aca      	ldrh	r2, [r1, r3]
 80014f4:	2a00      	cmp	r2, #0
 80014f6:	d0d8      	beq.n	80014aa <Write_Next_Main_Oscillator_Values_to_Delay_Line+0x1e>
		else if(delay_line_ptr->duty_delay_line_finish_offset == 0){
 80014f8:	4a0f      	ldr	r2, [pc, #60]	@ (8001538 <Write_Next_Main_Oscillator_Values_to_Delay_Line+0xac>)
 80014fa:	5a8c      	ldrh	r4, [r1, r2]
 80014fc:	2c00      	cmp	r4, #0
 80014fe:	d110      	bne.n	8001522 <Write_Next_Main_Oscillator_Values_to_Delay_Line+0x96>
			delay_line_ptr->duty_delay_line_finish_offset = FINAL_INDEX + 1;
 8001500:	2480      	movs	r4, #128	@ 0x80
 8001502:	00a4      	lsls	r4, r4, #2
 8001504:	528c      	strh	r4, [r1, r2]
			delay_line_ptr->duty_delay_line_start_offset = delay_line_ptr->duty_delay_line_start_offset - 1;
 8001506:	5aca      	ldrh	r2, [r1, r3]
 8001508:	3a01      	subs	r2, #1
 800150a:	b292      	uxth	r2, r2
 800150c:	52ca      	strh	r2, [r1, r3]
 800150e:	e7d4      	b.n	80014ba <Write_Next_Main_Oscillator_Values_to_Delay_Line+0x2e>
			params_ptr->duty_delayed = *(delay_line_ptr->duty_delay_line_storage_array + delay_line_ptr->duty_delay_line_start_offset + delay_line_ptr->duty_delay_line_read_pointer_offset);
 8001510:	5b0b      	ldrh	r3, [r1, r4]
 8001512:	5a8a      	ldrh	r2, [r1, r2]
 8001514:	189b      	adds	r3, r3, r2
 8001516:	005b      	lsls	r3, r3, #1
 8001518:	18c9      	adds	r1, r1, r3
 800151a:	880b      	ldrh	r3, [r1, #0]
 800151c:	b29b      	uxth	r3, r3
 800151e:	8083      	strh	r3, [r0, #4]
 8001520:	e7df      	b.n	80014e2 <Write_Next_Main_Oscillator_Values_to_Delay_Line+0x56>
			delay_line_ptr->duty_delay_line_start_offset = delay_line_ptr->duty_delay_line_start_offset - 1;
 8001522:	5acc      	ldrh	r4, [r1, r3]
 8001524:	3c01      	subs	r4, #1
 8001526:	b2a4      	uxth	r4, r4
 8001528:	52cc      	strh	r4, [r1, r3]
			delay_line_ptr->duty_delay_line_finish_offset = delay_line_ptr->duty_delay_line_finish_offset - 1;
 800152a:	5a8b      	ldrh	r3, [r1, r2]
 800152c:	3b01      	subs	r3, #1
 800152e:	b29b      	uxth	r3, r3
 8001530:	528b      	strh	r3, [r1, r2]
 8001532:	e7c2      	b.n	80014ba <Write_Next_Main_Oscillator_Values_to_Delay_Line+0x2e>
 8001534:	00000402 	.word	0x00000402
 8001538:	00000404 	.word	0x00000404
 800153c:	00000406 	.word	0x00000406
 8001540:	7ffffe00 	.word	0x7ffffe00

08001544 <Process_ADC_Conversion_Values>:

uint8_t Process_ADC_Conversion_Values(struct Params* params_ptr, struct Delay_Line* delay_line_ptr, volatile uint16_t* ADCResultsDMA_ptr){

	//GET WAVESHAPE
	uint16_t ADC_result = ADCResultsDMA_ptr[WAVESHAPE_ADC_RESULT_INDEX] >> 5; //set ADC_Result to waveshape index value, truncate to 7-bit
 8001544:	8813      	ldrh	r3, [r2, #0]
 8001546:	095b      	lsrs	r3, r3, #5

	if(ADC_result <= TRIANGLE_MODE_ADC_THRESHOLD){
 8001548:	2b2a      	cmp	r3, #42	@ 0x2a
 800154a:	d814      	bhi.n	8001576 <Process_ADC_Conversion_Values+0x32>
		params_ptr->waveshape = TRIANGLE_MODE; //triangle wave
 800154c:	2300      	movs	r3, #0
 800154e:	7183      	strb	r3, [r0, #6]
	else if (ADC_result <= SQUARE_MODE_ADC_THRESHOLD){
		params_ptr->waveshape = SQUARE_MODE; //square wave
	}

	//GET SPEED
	uint16_t temp_speed = ADCResultsDMA_ptr[SPEED_ADC_RESULT_INDEX] >> 5; //truncate to 7-bit
 8001550:	8853      	ldrh	r3, [r2, #2]
 8001552:	095b      	lsrs	r3, r3, #5
	temp_speed <<= 3; //convert to 10-bit
 8001554:	00db      	lsls	r3, r3, #3
	params_ptr->speed = temp_speed;
 8001556:	8103      	strh	r3, [r0, #8]

	//GET DEPTH
	#if DEPTH_ON_OR_OFF == ON

		uint8_t temp_depth = ADCResultsDMA_ptr[DEPTH_ADC_RESULT_INDEX] >> 5; //truncate to 7-bit
 8001558:	8893      	ldrh	r3, [r2, #4]
 800155a:	095b      	lsrs	r3, r3, #5
 800155c:	b2db      	uxtb	r3, r3
		params_ptr->depth = temp_depth;
 800155e:	7283      	strb	r3, [r0, #10]
	#endif

	//GET SYMMETRY
	#if SYMMETRY_ON_OR_OFF == ON

		uint16_t temp_symmetry = ADCResultsDMA_ptr[SYMMETRY_ADC_RESULT_INDEX] >> 5; //truncate to 7-bit
 8001560:	88d3      	ldrh	r3, [r2, #6]
 8001562:	095b      	lsrs	r3, r3, #5
		temp_symmetry <<= 1; //convert to 8-bit
 8001564:	005b      	lsls	r3, r3, #1
		params_ptr->symmetry = temp_symmetry;
 8001566:	8183      	strh	r3, [r0, #12]

	#endif

	//GET DELAY LINE READ POINTER OFFSET

	uint16_t temp_delay = ADCResultsDMA_ptr[DUTY_DELAY_LINE_READ_POINTER_OFFSET_ADC_RESULT_INDEX] >> 5; //truncate to 7-bit
 8001568:	8913      	ldrh	r3, [r2, #8]
	temp_delay <<= 2; //convert to 9-bit
	delay_line_ptr->duty_delay_line_read_pointer_offset = temp_delay;
 800156a:	4a08      	ldr	r2, [pc, #32]	@ (800158c <Process_ADC_Conversion_Values+0x48>)
	uint16_t temp_delay = ADCResultsDMA_ptr[DUTY_DELAY_LINE_READ_POINTER_OFFSET_ADC_RESULT_INDEX] >> 5; //truncate to 7-bit
 800156c:	095b      	lsrs	r3, r3, #5
	temp_delay <<= 2; //convert to 9-bit
 800156e:	009b      	lsls	r3, r3, #2

	return 1;
}
 8001570:	2001      	movs	r0, #1
	delay_line_ptr->duty_delay_line_read_pointer_offset = temp_delay;
 8001572:	528b      	strh	r3, [r1, r2]
}
 8001574:	4770      	bx	lr
	else if (ADC_result <= SINE_MODE_ADC_THRESHOLD){
 8001576:	2b55      	cmp	r3, #85	@ 0x55
 8001578:	d802      	bhi.n	8001580 <Process_ADC_Conversion_Values+0x3c>
		params_ptr->waveshape = SINE_MODE; //sine wave
 800157a:	2301      	movs	r3, #1
 800157c:	7183      	strb	r3, [r0, #6]
 800157e:	e7e7      	b.n	8001550 <Process_ADC_Conversion_Values+0xc>
	else if (ADC_result <= SQUARE_MODE_ADC_THRESHOLD){
 8001580:	2b7f      	cmp	r3, #127	@ 0x7f
 8001582:	d8e5      	bhi.n	8001550 <Process_ADC_Conversion_Values+0xc>
		params_ptr->waveshape = SQUARE_MODE; //square wave
 8001584:	2302      	movs	r3, #2
 8001586:	7183      	strb	r3, [r0, #6]
 8001588:	e7e2      	b.n	8001550 <Process_ADC_Conversion_Values+0xc>
 800158a:	46c0      	nop			@ (mov r8, r8)
 800158c:	00000406 	.word	0x00000406

08001590 <Startup>:
#include "startup.h"

#include "stm32g0xx_ll_lptim.h"

uint8_t Startup(void){
 8001590:	b570      	push	{r4, r5, r6, lr}

	HAL_NVIC_DisableIRQ(EXTI4_15_IRQn);
 8001592:	2007      	movs	r0, #7
 8001594:	f001 fae2 	bl	8002b5c <HAL_NVIC_DisableIRQ>

	__HAL_TIM_ENABLE_IT(&htim2, TIM_IT_UPDATE); //make sure the overflow (update) interrupt is enabled for TIM2
 8001598:	2101      	movs	r1, #1
 800159a:	4b35      	ldr	r3, [pc, #212]	@ (8001670 <Startup+0xe0>)
	__HAL_TIM_ENABLE_IT(&htim16, TIM_IT_UPDATE); //make sure the overflow (update) interrupt is enabled for TIM16


	//SET DEFAULT PIN STATES
	HAL_GPIO_WritePin(SW_OUT_GPIO_Port, SW_OUT_Pin, 1); //latch high the debounced o/p
 800159c:	20a0      	movs	r0, #160	@ 0xa0
	__HAL_TIM_ENABLE_IT(&htim2, TIM_IT_UPDATE); //make sure the overflow (update) interrupt is enabled for TIM2
 800159e:	681a      	ldr	r2, [r3, #0]
	HAL_GPIO_WritePin(SW_OUT_GPIO_Port, SW_OUT_Pin, 1); //latch high the debounced o/p
 80015a0:	05c0      	lsls	r0, r0, #23
	__HAL_TIM_ENABLE_IT(&htim2, TIM_IT_UPDATE); //make sure the overflow (update) interrupt is enabled for TIM2
 80015a2:	68d3      	ldr	r3, [r2, #12]
 80015a4:	430b      	orrs	r3, r1
 80015a6:	60d3      	str	r3, [r2, #12]
	__HAL_TIM_ENABLE_IT(&htim16, TIM_IT_UPDATE); //make sure the overflow (update) interrupt is enabled for TIM16
 80015a8:	4b32      	ldr	r3, [pc, #200]	@ (8001674 <Startup+0xe4>)
 80015aa:	681a      	ldr	r2, [r3, #0]
 80015ac:	68d3      	ldr	r3, [r2, #12]
 80015ae:	430b      	orrs	r3, r1
	HAL_GPIO_WritePin(SW_OUT_GPIO_Port, SW_OUT_Pin, 1); //latch high the debounced o/p
 80015b0:	2180      	movs	r1, #128	@ 0x80
	__HAL_TIM_ENABLE_IT(&htim16, TIM_IT_UPDATE); //make sure the overflow (update) interrupt is enabled for TIM16
 80015b2:	60d3      	str	r3, [r2, #12]
	HAL_GPIO_WritePin(SW_OUT_GPIO_Port, SW_OUT_Pin, 1); //latch high the debounced o/p
 80015b4:	0089      	lsls	r1, r1, #2
 80015b6:	2201      	movs	r2, #1
 80015b8:	f001 fda4 	bl	8003104 <HAL_GPIO_WritePin>
	HAL_GPIO_WritePin(HACK_POT_HIGH_GPIO_Port, HACK_POT_HIGH_Pin, 1);
 80015bc:	2180      	movs	r1, #128	@ 0x80
 80015be:	20a0      	movs	r0, #160	@ 0xa0
 80015c0:	2201      	movs	r2, #1
 80015c2:	0149      	lsls	r1, r1, #5
 80015c4:	05c0      	lsls	r0, r0, #23
 80015c6:	f001 fd9d 	bl	8003104 <HAL_GPIO_WritePin>
	HAL_GPIO_WritePin(HACK_POT_LOW_GPIO_Port, HACK_POT_LOW_Pin, 0);
 80015ca:	20a0      	movs	r0, #160	@ 0xa0
 80015cc:	2200      	movs	r2, #0
 80015ce:	2180      	movs	r1, #128	@ 0x80
 80015d0:	05c0      	lsls	r0, r0, #23
 80015d2:	f001 fd97 	bl	8003104 <HAL_GPIO_WritePin>


	//GET ADC VALUES
	HAL_ADC_Start_DMA(&hadc1, (uint32_t*)ADCResultsDMA, (uint32_t)num_ADC_conversions);
 80015d6:	4b28      	ldr	r3, [pc, #160]	@ (8001678 <Startup+0xe8>)
 80015d8:	4928      	ldr	r1, [pc, #160]	@ (800167c <Startup+0xec>)
 80015da:	781a      	ldrb	r2, [r3, #0]
 80015dc:	4828      	ldr	r0, [pc, #160]	@ (8001680 <Startup+0xf0>)
 80015de:	f001 f8cf 	bl	8002780 <HAL_ADC_Start_DMA>

	//WAIT
	while(Get_Status_Bit(&statuses, Initial_ADC_Conversion_Complete) == NO){}; //wait while first ADC conversion is ongoing - raw and final values will be computed within this time
 80015e2:	4c28      	ldr	r4, [pc, #160]	@ (8001684 <Startup+0xf4>)
 80015e4:	2110      	movs	r1, #16
 80015e6:	0020      	movs	r0, r4
 80015e8:	f000 fc8e 	bl	8001f08 <Get_Status_Bit>
 80015ec:	2800      	cmp	r0, #0
 80015ee:	d0f9      	beq.n	80015e4 <Startup+0x54>
 80015f0:	2200      	movs	r2, #0
 80015f2:	4c25      	ldr	r4, [pc, #148]	@ (8001688 <Startup+0xf8>)
 80015f4:	4d25      	ldr	r5, [pc, #148]	@ (800168c <Startup+0xfc>)

			delay_line.duty_delay_line_storage_array[i] = PWM_DUTY_VALUE_MAX - ((params.depth * PWM_DUTY_VALUE_MAX) >> DEPTH_ADC_RESOLUTION);
		}
		else{

			delay_line.duty_delay_line_storage_array[i] = PWM_DUTY_VALUE_MAX - (((params.depth * PWM_DUTY_VALUE_MAX) >> DEPTH_ADC_RESOLUTION) >> 1);
 80015f6:	4826      	ldr	r0, [pc, #152]	@ (8001690 <Startup+0x100>)
	for(uint16_t i = 0; i < FINAL_INDEX + 2; i++){ //513
 80015f8:	4926      	ldr	r1, [pc, #152]	@ (8001694 <Startup+0x104>)
 80015fa:	e009      	b.n	8001610 <Startup+0x80>
			delay_line.duty_delay_line_storage_array[i] = PWM_DUTY_VALUE_MAX - (((params.depth * PWM_DUTY_VALUE_MAX) >> DEPTH_ADC_RESOLUTION) >> 1);
 80015fc:	02b3      	lsls	r3, r6, #10
 80015fe:	1b9b      	subs	r3, r3, r6
 8001600:	121b      	asrs	r3, r3, #8
 8001602:	1ac3      	subs	r3, r0, r3
 8001604:	0056      	lsls	r6, r2, #1
 8001606:	b29b      	uxth	r3, r3
	for(uint16_t i = 0; i < FINAL_INDEX + 2; i++){ //513
 8001608:	3201      	adds	r2, #1
			delay_line.duty_delay_line_storage_array[i] = PWM_DUTY_VALUE_MAX - (((params.depth * PWM_DUTY_VALUE_MAX) >> DEPTH_ADC_RESOLUTION) >> 1);
 800160a:	53ab      	strh	r3, [r5, r6]
	for(uint16_t i = 0; i < FINAL_INDEX + 2; i++){ //513
 800160c:	428a      	cmp	r2, r1
 800160e:	d00d      	beq.n	800162c <Startup+0x9c>
		if(params.waveshape == SQUARE_MODE){
 8001610:	79a3      	ldrb	r3, [r4, #6]
			delay_line.duty_delay_line_storage_array[i] = PWM_DUTY_VALUE_MAX - ((params.depth * PWM_DUTY_VALUE_MAX) >> DEPTH_ADC_RESOLUTION);
 8001612:	7aa6      	ldrb	r6, [r4, #10]
		if(params.waveshape == SQUARE_MODE){
 8001614:	2b02      	cmp	r3, #2
 8001616:	d1f1      	bne.n	80015fc <Startup+0x6c>
			delay_line.duty_delay_line_storage_array[i] = PWM_DUTY_VALUE_MAX - ((params.depth * PWM_DUTY_VALUE_MAX) >> DEPTH_ADC_RESOLUTION);
 8001618:	02b3      	lsls	r3, r6, #10
 800161a:	1b9b      	subs	r3, r3, r6
 800161c:	11db      	asrs	r3, r3, #7
 800161e:	1ac3      	subs	r3, r0, r3
 8001620:	0056      	lsls	r6, r2, #1
 8001622:	b29b      	uxth	r3, r3
	for(uint16_t i = 0; i < FINAL_INDEX + 2; i++){ //513
 8001624:	3201      	adds	r2, #1
			delay_line.duty_delay_line_storage_array[i] = PWM_DUTY_VALUE_MAX - ((params.depth * PWM_DUTY_VALUE_MAX) >> DEPTH_ADC_RESOLUTION);
 8001626:	53ab      	strh	r3, [r5, r6]
	for(uint16_t i = 0; i < FINAL_INDEX + 2; i++){ //513
 8001628:	428a      	cmp	r2, r1
 800162a:	d1f1      	bne.n	8001610 <Startup+0x80>
		}
	}

	//PREPARE OSCILLATORS
	Calculate_Next_Main_Oscillator_Values(&params, (enum Next_Values_Processing_Mode)STARTUP_MODE);
 800162c:	2102      	movs	r1, #2
 800162e:	0020      	movs	r0, r4
 8001630:	f7ff fea0 	bl	8001374 <Calculate_Next_Main_Oscillator_Values>
	Write_Next_Main_Oscillator_Values_to_Delay_Line(&params, &delay_line);
 8001634:	0029      	movs	r1, r5
 8001636:	0020      	movs	r0, r4
 8001638:	f7ff ff28 	bl	800148c <Write_Next_Main_Oscillator_Values_to_Delay_Line>
	Set_Oscillator_Values(&params);
 800163c:	0020      	movs	r0, r4
 800163e:	f7ff fe81 	bl	8001344 <Set_Oscillator_Values>

	//START FREQ. GEN and PWM GEN TIMERS and ENABLE PWM OUTPUT
	Start_PWM_Gen_Timer_Main_and_Secondary_Oscillators(&htim1, TIM_CHANNEL_2, TIM_CHANNEL_4);
 8001642:	220c      	movs	r2, #12
 8001644:	2104      	movs	r1, #4
 8001646:	4814      	ldr	r0, [pc, #80]	@ (8001698 <Startup+0x108>)
 8001648:	f7ff fe3c 	bl	80012c4 <Start_PWM_Gen_Timer_Main_and_Secondary_Oscillators>
	Start_Freq_Gen_Timer();
 800164c:	f7ff fe54 	bl	80012f8 <Start_Freq_Gen_Timer>

	//ENABLE INTERRUPTS
	Global_Interrupt_Enable();
 8001650:	f000 fc56 	bl	8001f00 <Global_Interrupt_Enable>

	//START UART RECEIVE
	Start_UART_Receive();
 8001654:	f7fe fef8 	bl	8000448 <Start_UART_Receive>

	//START IP CAP
	Start_Input_Capture_Timer();
 8001658:	f7ff fdde 	bl	8001218 <Start_Input_Capture_Timer>


	#if TAPCLK_ON_OR_OFF == ON

		//ENABLE TAP-TEMPO SWITCH CHECKING
		HAL_LPTIM_SetOnce_Start_IT(&hlptim1, LPTIM1_CCR_CHECK, LPTIM1_CCR_CHECK);
 800165c:	22fa      	movs	r2, #250	@ 0xfa
 800165e:	21fa      	movs	r1, #250	@ 0xfa
 8001660:	480e      	ldr	r0, [pc, #56]	@ (800169c <Startup+0x10c>)
 8001662:	f001 ff79 	bl	8003558 <HAL_LPTIM_SetOnce_Start_IT>


	#endif

	//ENABLE EXTI
	HAL_NVIC_EnableIRQ(EXTI4_15_IRQn);
 8001666:	2007      	movs	r0, #7
 8001668:	f001 fa6c 	bl	8002b44 <HAL_NVIC_EnableIRQ>
	//DEBUG
	/*__HAL_TIM_SET_COUNTER(&htim14, 0);
	Start_OC_TIM(&htim14, TIM_CHANNEL_1);*/

	return 1;
}
 800166c:	2001      	movs	r0, #1
 800166e:	bd70      	pop	{r4, r5, r6, pc}
 8001670:	20000798 	.word	0x20000798
 8001674:	20000854 	.word	0x20000854
 8001678:	080066c0 	.word	0x080066c0
 800167c:	20000be8 	.word	0x20000be8
 8001680:	20000ae4 	.word	0x20000ae4
 8001684:	20000b78 	.word	0x20000b78
 8001688:	20000bc4 	.word	0x20000bc4
 800168c:	20000004 	.word	0x20000004
 8001690:	000003ff 	.word	0x000003ff
 8001694:	00000201 	.word	0x00000201
 8001698:	20000620 	.word	0x20000620
 800169c:	20000440 	.word	0x20000440

080016a0 <HAL_MspInit>:

  /* USER CODE BEGIN MspInit 0 */

  /* USER CODE END MspInit 0 */

  __HAL_RCC_SYSCFG_CLK_ENABLE();
 80016a0:	2201      	movs	r2, #1
 80016a2:	4b0a      	ldr	r3, [pc, #40]	@ (80016cc <HAL_MspInit+0x2c>)
{
 80016a4:	b082      	sub	sp, #8
  __HAL_RCC_SYSCFG_CLK_ENABLE();
 80016a6:	6c19      	ldr	r1, [r3, #64]	@ 0x40
 80016a8:	4311      	orrs	r1, r2
 80016aa:	6419      	str	r1, [r3, #64]	@ 0x40
 80016ac:	6c19      	ldr	r1, [r3, #64]	@ 0x40
 80016ae:	400a      	ands	r2, r1
  __HAL_RCC_PWR_CLK_ENABLE();
 80016b0:	2180      	movs	r1, #128	@ 0x80
  __HAL_RCC_SYSCFG_CLK_ENABLE();
 80016b2:	9200      	str	r2, [sp, #0]
 80016b4:	9a00      	ldr	r2, [sp, #0]
  __HAL_RCC_PWR_CLK_ENABLE();
 80016b6:	6bda      	ldr	r2, [r3, #60]	@ 0x3c
 80016b8:	0549      	lsls	r1, r1, #21
 80016ba:	430a      	orrs	r2, r1
 80016bc:	63da      	str	r2, [r3, #60]	@ 0x3c
 80016be:	6bdb      	ldr	r3, [r3, #60]	@ 0x3c
 80016c0:	400b      	ands	r3, r1
 80016c2:	9301      	str	r3, [sp, #4]
 80016c4:	9b01      	ldr	r3, [sp, #4]
  /* System interrupt init*/

  /* USER CODE BEGIN MspInit 1 */

  /* USER CODE END MspInit 1 */
}
 80016c6:	b002      	add	sp, #8
 80016c8:	4770      	bx	lr
 80016ca:	46c0      	nop			@ (mov r8, r8)
 80016cc:	40021000 	.word	0x40021000

080016d0 <HAL_ADC_MspInit>:
* This function configures the hardware resources used in this example
* @param hadc: ADC handle pointer
* @retval None
*/
void HAL_ADC_MspInit(ADC_HandleTypeDef* hadc)
{
 80016d0:	b530      	push	{r4, r5, lr}
 80016d2:	0004      	movs	r4, r0
 80016d4:	b089      	sub	sp, #36	@ 0x24
  GPIO_InitTypeDef GPIO_InitStruct = {0};
 80016d6:	2214      	movs	r2, #20
 80016d8:	2100      	movs	r1, #0
 80016da:	a802      	add	r0, sp, #8
 80016dc:	f004 ffae 	bl	800663c <memset>
  if(hadc->Instance==ADC1)
 80016e0:	4b1f      	ldr	r3, [pc, #124]	@ (8001760 <HAL_ADC_MspInit+0x90>)
 80016e2:	6822      	ldr	r2, [r4, #0]
 80016e4:	429a      	cmp	r2, r3
 80016e6:	d001      	beq.n	80016ec <HAL_ADC_MspInit+0x1c>

  /* USER CODE END ADC1_MspInit 1 */

  }

}
 80016e8:	b009      	add	sp, #36	@ 0x24
 80016ea:	bd30      	pop	{r4, r5, pc}
    __HAL_RCC_ADC_CLK_ENABLE();
 80016ec:	2180      	movs	r1, #128	@ 0x80
 80016ee:	4b1d      	ldr	r3, [pc, #116]	@ (8001764 <HAL_ADC_MspInit+0x94>)
 80016f0:	0349      	lsls	r1, r1, #13
 80016f2:	6c1a      	ldr	r2, [r3, #64]	@ 0x40
    HAL_GPIO_Init(GPIOA, &GPIO_InitStruct);
 80016f4:	20a0      	movs	r0, #160	@ 0xa0
    __HAL_RCC_ADC_CLK_ENABLE();
 80016f6:	430a      	orrs	r2, r1
 80016f8:	641a      	str	r2, [r3, #64]	@ 0x40
 80016fa:	6c1a      	ldr	r2, [r3, #64]	@ 0x40
    HAL_GPIO_Init(GPIOA, &GPIO_InitStruct);
 80016fc:	05c0      	lsls	r0, r0, #23
    __HAL_RCC_ADC_CLK_ENABLE();
 80016fe:	400a      	ands	r2, r1
 8001700:	9200      	str	r2, [sp, #0]
 8001702:	9a00      	ldr	r2, [sp, #0]
    __HAL_RCC_GPIOA_CLK_ENABLE();
 8001704:	2201      	movs	r2, #1
 8001706:	6b59      	ldr	r1, [r3, #52]	@ 0x34
 8001708:	4311      	orrs	r1, r2
 800170a:	6359      	str	r1, [r3, #52]	@ 0x34
 800170c:	6b5b      	ldr	r3, [r3, #52]	@ 0x34
    HAL_GPIO_Init(GPIOA, &GPIO_InitStruct);
 800170e:	a902      	add	r1, sp, #8
    __HAL_RCC_GPIOA_CLK_ENABLE();
 8001710:	401a      	ands	r2, r3
 8001712:	9201      	str	r2, [sp, #4]
 8001714:	9b01      	ldr	r3, [sp, #4]
    GPIO_InitStruct.Pin = GPIO_PIN_0|GPIO_PIN_1|GPIO_PIN_4|GPIO_PIN_5|GPIO_PIN_6;
 8001716:	2273      	movs	r2, #115	@ 0x73
 8001718:	2303      	movs	r3, #3
 800171a:	9202      	str	r2, [sp, #8]
 800171c:	9303      	str	r3, [sp, #12]
    HAL_GPIO_Init(GPIOA, &GPIO_InitStruct);
 800171e:	f001 fbf9 	bl	8002f14 <HAL_GPIO_Init>
    hdma_adc1.Instance = DMA1_Channel1;
 8001722:	4d11      	ldr	r5, [pc, #68]	@ (8001768 <HAL_ADC_MspInit+0x98>)
 8001724:	4b11      	ldr	r3, [pc, #68]	@ (800176c <HAL_ADC_MspInit+0x9c>)
    hdma_adc1.Init.MemInc = DMA_MINC_ENABLE;
 8001726:	2280      	movs	r2, #128	@ 0x80
    hdma_adc1.Instance = DMA1_Channel1;
 8001728:	602b      	str	r3, [r5, #0]
    hdma_adc1.Init.Request = DMA_REQUEST_ADC1;
 800172a:	2305      	movs	r3, #5
 800172c:	606b      	str	r3, [r5, #4]
    hdma_adc1.Init.Direction = DMA_PERIPH_TO_MEMORY;
 800172e:	2300      	movs	r3, #0
    hdma_adc1.Init.MemInc = DMA_MINC_ENABLE;
 8001730:	612a      	str	r2, [r5, #16]
    hdma_adc1.Init.PeriphDataAlignment = DMA_PDATAALIGN_HALFWORD;
 8001732:	3280      	adds	r2, #128	@ 0x80
    hdma_adc1.Init.Direction = DMA_PERIPH_TO_MEMORY;
 8001734:	60ab      	str	r3, [r5, #8]
    hdma_adc1.Init.PeriphInc = DMA_PINC_DISABLE;
 8001736:	60eb      	str	r3, [r5, #12]
    hdma_adc1.Init.PeriphDataAlignment = DMA_PDATAALIGN_HALFWORD;
 8001738:	616a      	str	r2, [r5, #20]
    hdma_adc1.Init.Mode = DMA_NORMAL;
 800173a:	61eb      	str	r3, [r5, #28]
    hdma_adc1.Init.MemDataAlignment = DMA_MDATAALIGN_HALFWORD;
 800173c:	2280      	movs	r2, #128	@ 0x80
    hdma_adc1.Init.Priority = DMA_PRIORITY_HIGH;
 800173e:	2380      	movs	r3, #128	@ 0x80
    hdma_adc1.Init.MemDataAlignment = DMA_MDATAALIGN_HALFWORD;
 8001740:	00d2      	lsls	r2, r2, #3
    hdma_adc1.Init.Priority = DMA_PRIORITY_HIGH;
 8001742:	019b      	lsls	r3, r3, #6
    if (HAL_DMA_Init(&hdma_adc1) != HAL_OK)
 8001744:	0028      	movs	r0, r5
    hdma_adc1.Init.MemDataAlignment = DMA_MDATAALIGN_HALFWORD;
 8001746:	61aa      	str	r2, [r5, #24]
    hdma_adc1.Init.Priority = DMA_PRIORITY_HIGH;
 8001748:	622b      	str	r3, [r5, #32]
    if (HAL_DMA_Init(&hdma_adc1) != HAL_OK)
 800174a:	f001 fa31 	bl	8002bb0 <HAL_DMA_Init>
 800174e:	2800      	cmp	r0, #0
 8001750:	d102      	bne.n	8001758 <HAL_ADC_MspInit+0x88>
    __HAL_LINKDMA(hadc,DMA_Handle,hdma_adc1);
 8001752:	6525      	str	r5, [r4, #80]	@ 0x50
 8001754:	62ac      	str	r4, [r5, #40]	@ 0x28
}
 8001756:	e7c7      	b.n	80016e8 <HAL_ADC_MspInit+0x18>
      Error_Handler();
 8001758:	f7ff faa2 	bl	8000ca0 <Error_Handler>
 800175c:	e7f9      	b.n	8001752 <HAL_ADC_MspInit+0x82>
 800175e:	46c0      	nop			@ (mov r8, r8)
 8001760:	40012400 	.word	0x40012400
 8001764:	40021000 	.word	0x40021000
 8001768:	20000a88 	.word	0x20000a88
 800176c:	40020008 	.word	0x40020008

08001770 <HAL_LPTIM_MspInit>:
* This function configures the hardware resources used in this example
* @param hlptim: LPTIM handle pointer
* @retval None
*/
void HAL_LPTIM_MspInit(LPTIM_HandleTypeDef* hlptim)
{
 8001770:	b510      	push	{r4, lr}
 8001772:	0004      	movs	r4, r0
 8001774:	b094      	sub	sp, #80	@ 0x50
  GPIO_InitTypeDef GPIO_InitStruct = {0};
 8001776:	2214      	movs	r2, #20
 8001778:	2100      	movs	r1, #0
 800177a:	a804      	add	r0, sp, #16
 800177c:	f004 ff5e 	bl	800663c <memset>
  RCC_PeriphCLKInitTypeDef PeriphClkInit = {0};
 8001780:	2228      	movs	r2, #40	@ 0x28
 8001782:	2100      	movs	r1, #0
 8001784:	a80a      	add	r0, sp, #40	@ 0x28
 8001786:	f004 ff59 	bl	800663c <memset>
  if(hlptim->Instance==LPTIM1)
 800178a:	6823      	ldr	r3, [r4, #0]
 800178c:	4a31      	ldr	r2, [pc, #196]	@ (8001854 <HAL_LPTIM_MspInit+0xe4>)
 800178e:	4293      	cmp	r3, r2
 8001790:	d004      	beq.n	800179c <HAL_LPTIM_MspInit+0x2c>

  /* USER CODE BEGIN LPTIM1_MspInit 1 */

  /* USER CODE END LPTIM1_MspInit 1 */
  }
  else if(hlptim->Instance==LPTIM2)
 8001792:	4a31      	ldr	r2, [pc, #196]	@ (8001858 <HAL_LPTIM_MspInit+0xe8>)
 8001794:	4293      	cmp	r3, r2
 8001796:	d02b      	beq.n	80017f0 <HAL_LPTIM_MspInit+0x80>
  /* USER CODE BEGIN LPTIM2_MspInit 1 */

  /* USER CODE END LPTIM2_MspInit 1 */
  }

}
 8001798:	b014      	add	sp, #80	@ 0x50
 800179a:	bd10      	pop	{r4, pc}
    PeriphClkInit.PeriphClockSelection = RCC_PERIPHCLK_LPTIM1;
 800179c:	2380      	movs	r3, #128	@ 0x80
    if (HAL_RCCEx_PeriphCLKConfig(&PeriphClkInit) != HAL_OK)
 800179e:	a80a      	add	r0, sp, #40	@ 0x28
    PeriphClkInit.PeriphClockSelection = RCC_PERIPHCLK_LPTIM1;
 80017a0:	009b      	lsls	r3, r3, #2
 80017a2:	930a      	str	r3, [sp, #40]	@ 0x28
    if (HAL_RCCEx_PeriphCLKConfig(&PeriphClkInit) != HAL_OK)
 80017a4:	f002 fafe 	bl	8003da4 <HAL_RCCEx_PeriphCLKConfig>
 80017a8:	2800      	cmp	r0, #0
 80017aa:	d14c      	bne.n	8001846 <HAL_LPTIM_MspInit+0xd6>
    __HAL_RCC_LPTIM1_CLK_ENABLE();
 80017ac:	2280      	movs	r2, #128	@ 0x80
 80017ae:	4b2b      	ldr	r3, [pc, #172]	@ (800185c <HAL_LPTIM_MspInit+0xec>)
 80017b0:	0612      	lsls	r2, r2, #24
 80017b2:	6bd9      	ldr	r1, [r3, #60]	@ 0x3c
    HAL_GPIO_Init(GPIOB, &GPIO_InitStruct);
 80017b4:	482a      	ldr	r0, [pc, #168]	@ (8001860 <HAL_LPTIM_MspInit+0xf0>)
    __HAL_RCC_LPTIM1_CLK_ENABLE();
 80017b6:	430a      	orrs	r2, r1
 80017b8:	63da      	str	r2, [r3, #60]	@ 0x3c
 80017ba:	6bda      	ldr	r2, [r3, #60]	@ 0x3c
 80017bc:	0fd2      	lsrs	r2, r2, #31
 80017be:	07d2      	lsls	r2, r2, #31
 80017c0:	9200      	str	r2, [sp, #0]
 80017c2:	9a00      	ldr	r2, [sp, #0]
    __HAL_RCC_GPIOB_CLK_ENABLE();
 80017c4:	2202      	movs	r2, #2
 80017c6:	6b59      	ldr	r1, [r3, #52]	@ 0x34
 80017c8:	4311      	orrs	r1, r2
 80017ca:	6359      	str	r1, [r3, #52]	@ 0x34
 80017cc:	6b5b      	ldr	r3, [r3, #52]	@ 0x34
    HAL_GPIO_Init(GPIOB, &GPIO_InitStruct);
 80017ce:	a904      	add	r1, sp, #16
    __HAL_RCC_GPIOB_CLK_ENABLE();
 80017d0:	401a      	ands	r2, r3
 80017d2:	9201      	str	r2, [sp, #4]
 80017d4:	9b01      	ldr	r3, [sp, #4]
    GPIO_InitStruct.Pin = GPIO_PIN_0;
 80017d6:	2201      	movs	r2, #1
 80017d8:	2302      	movs	r3, #2
 80017da:	9204      	str	r2, [sp, #16]
 80017dc:	9305      	str	r3, [sp, #20]
 80017de:	2200      	movs	r2, #0
 80017e0:	2300      	movs	r3, #0
 80017e2:	9206      	str	r2, [sp, #24]
 80017e4:	9307      	str	r3, [sp, #28]
    GPIO_InitStruct.Alternate = GPIO_AF5_LPTIM1;
 80017e6:	2305      	movs	r3, #5
 80017e8:	9308      	str	r3, [sp, #32]
    HAL_GPIO_Init(GPIOB, &GPIO_InitStruct);
 80017ea:	f001 fb93 	bl	8002f14 <HAL_GPIO_Init>
 80017ee:	e7d3      	b.n	8001798 <HAL_LPTIM_MspInit+0x28>
    PeriphClkInit.PeriphClockSelection = RCC_PERIPHCLK_LPTIM2;
 80017f0:	2380      	movs	r3, #128	@ 0x80
    if (HAL_RCCEx_PeriphCLKConfig(&PeriphClkInit) != HAL_OK)
 80017f2:	a80a      	add	r0, sp, #40	@ 0x28
    PeriphClkInit.PeriphClockSelection = RCC_PERIPHCLK_LPTIM2;
 80017f4:	00db      	lsls	r3, r3, #3
 80017f6:	930a      	str	r3, [sp, #40]	@ 0x28
    if (HAL_RCCEx_PeriphCLKConfig(&PeriphClkInit) != HAL_OK)
 80017f8:	f002 fad4 	bl	8003da4 <HAL_RCCEx_PeriphCLKConfig>
 80017fc:	2800      	cmp	r0, #0
 80017fe:	d125      	bne.n	800184c <HAL_LPTIM_MspInit+0xdc>
    __HAL_RCC_LPTIM2_CLK_ENABLE();
 8001800:	2180      	movs	r1, #128	@ 0x80
 8001802:	4b16      	ldr	r3, [pc, #88]	@ (800185c <HAL_LPTIM_MspInit+0xec>)
 8001804:	05c9      	lsls	r1, r1, #23
 8001806:	6bda      	ldr	r2, [r3, #60]	@ 0x3c
    HAL_GPIO_Init(GPIOA, &GPIO_InitStruct);
 8001808:	20a0      	movs	r0, #160	@ 0xa0
    __HAL_RCC_LPTIM2_CLK_ENABLE();
 800180a:	430a      	orrs	r2, r1
 800180c:	63da      	str	r2, [r3, #60]	@ 0x3c
 800180e:	6bda      	ldr	r2, [r3, #60]	@ 0x3c
    HAL_GPIO_Init(GPIOA, &GPIO_InitStruct);
 8001810:	05c0      	lsls	r0, r0, #23
    __HAL_RCC_LPTIM2_CLK_ENABLE();
 8001812:	400a      	ands	r2, r1
 8001814:	9202      	str	r2, [sp, #8]
 8001816:	9a02      	ldr	r2, [sp, #8]
    __HAL_RCC_GPIOA_CLK_ENABLE();
 8001818:	2201      	movs	r2, #1
 800181a:	6b59      	ldr	r1, [r3, #52]	@ 0x34
 800181c:	4311      	orrs	r1, r2
 800181e:	6359      	str	r1, [r3, #52]	@ 0x34
 8001820:	6b5b      	ldr	r3, [r3, #52]	@ 0x34
    HAL_GPIO_Init(GPIOA, &GPIO_InitStruct);
 8001822:	a904      	add	r1, sp, #16
    __HAL_RCC_GPIOA_CLK_ENABLE();
 8001824:	401a      	ands	r2, r3
 8001826:	9203      	str	r2, [sp, #12]
    GPIO_InitStruct.Pin = GPIO_PIN_8;
 8001828:	2280      	movs	r2, #128	@ 0x80
    __HAL_RCC_GPIOA_CLK_ENABLE();
 800182a:	9b03      	ldr	r3, [sp, #12]
    GPIO_InitStruct.Pin = GPIO_PIN_8;
 800182c:	2302      	movs	r3, #2
 800182e:	0052      	lsls	r2, r2, #1
 8001830:	9204      	str	r2, [sp, #16]
 8001832:	9305      	str	r3, [sp, #20]
 8001834:	2200      	movs	r2, #0
 8001836:	2300      	movs	r3, #0
 8001838:	9206      	str	r2, [sp, #24]
 800183a:	9307      	str	r3, [sp, #28]
    GPIO_InitStruct.Alternate = GPIO_AF5_LPTIM2;
 800183c:	2305      	movs	r3, #5
 800183e:	9308      	str	r3, [sp, #32]
    HAL_GPIO_Init(GPIOA, &GPIO_InitStruct);
 8001840:	f001 fb68 	bl	8002f14 <HAL_GPIO_Init>
}
 8001844:	e7a8      	b.n	8001798 <HAL_LPTIM_MspInit+0x28>
      Error_Handler();
 8001846:	f7ff fa2b 	bl	8000ca0 <Error_Handler>
 800184a:	e7af      	b.n	80017ac <HAL_LPTIM_MspInit+0x3c>
      Error_Handler();
 800184c:	f7ff fa28 	bl	8000ca0 <Error_Handler>
 8001850:	e7d6      	b.n	8001800 <HAL_LPTIM_MspInit+0x90>
 8001852:	46c0      	nop			@ (mov r8, r8)
 8001854:	40007c00 	.word	0x40007c00
 8001858:	40009400 	.word	0x40009400
 800185c:	40021000 	.word	0x40021000
 8001860:	50000400 	.word	0x50000400

08001864 <HAL_TIM_Base_MspInit>:
* @param htim_base: TIM_Base handle pointer
* @retval None
*/

void HAL_TIM_Base_MspInit(TIM_HandleTypeDef* htim_base)
{
 8001864:	b510      	push	{r4, lr}
 8001866:	0004      	movs	r4, r0
 8001868:	b098      	sub	sp, #96	@ 0x60
  GPIO_InitTypeDef GPIO_InitStruct = {0};
 800186a:	2214      	movs	r2, #20
 800186c:	2100      	movs	r1, #0
 800186e:	a808      	add	r0, sp, #32
 8001870:	f004 fee4 	bl	800663c <memset>
  RCC_PeriphCLKInitTypeDef PeriphClkInit = {0};
 8001874:	2228      	movs	r2, #40	@ 0x28
 8001876:	2100      	movs	r1, #0
 8001878:	a80e      	add	r0, sp, #56	@ 0x38
 800187a:	f004 fedf 	bl	800663c <memset>
  if(htim_base->Instance==TIM1)
 800187e:	6823      	ldr	r3, [r4, #0]
 8001880:	4a4e      	ldr	r2, [pc, #312]	@ (80019bc <HAL_TIM_Base_MspInit+0x158>)
 8001882:	4293      	cmp	r3, r2
 8001884:	d025      	beq.n	80018d2 <HAL_TIM_Base_MspInit+0x6e>
    __HAL_RCC_TIM1_CLK_ENABLE();
  /* USER CODE BEGIN TIM1_MspInit 1 */

  /* USER CODE END TIM1_MspInit 1 */
  }
  else if(htim_base->Instance==TIM2)
 8001886:	2280      	movs	r2, #128	@ 0x80
 8001888:	05d2      	lsls	r2, r2, #23
 800188a:	4293      	cmp	r3, r2
 800188c:	d034      	beq.n	80018f8 <HAL_TIM_Base_MspInit+0x94>
    HAL_NVIC_EnableIRQ(TIM2_IRQn);
    /* USER CODE BEGIN TIM2_MspInit 1 */

    /* USER CODE END TIM2_MspInit 1 */
    }
  else if(htim_base->Instance==TIM3)
 800188e:	4a4c      	ldr	r2, [pc, #304]	@ (80019c0 <HAL_TIM_Base_MspInit+0x15c>)
 8001890:	4293      	cmp	r3, r2
 8001892:	d057      	beq.n	8001944 <HAL_TIM_Base_MspInit+0xe0>
    HAL_NVIC_EnableIRQ(TIM3_IRQn);
  /* USER CODE BEGIN TIM3_MspInit 1 */

  /* USER CODE END TIM3_MspInit 1 */
  }
  else if(htim_base->Instance==TIM16)
 8001894:	4a4b      	ldr	r2, [pc, #300]	@ (80019c4 <HAL_TIM_Base_MspInit+0x160>)
 8001896:	4293      	cmp	r3, r2
 8001898:	d008      	beq.n	80018ac <HAL_TIM_Base_MspInit+0x48>
    HAL_NVIC_EnableIRQ(TIM16_IRQn);
  /* USER CODE BEGIN TIM16_MspInit 1 */

  /* USER CODE END TIM16_MspInit 1 */
  }
  else if(htim_base->Instance==TIM17)
 800189a:	4a4b      	ldr	r2, [pc, #300]	@ (80019c8 <HAL_TIM_Base_MspInit+0x164>)
 800189c:	4293      	cmp	r3, r2
 800189e:	d063      	beq.n	8001968 <HAL_TIM_Base_MspInit+0x104>
    HAL_NVIC_EnableIRQ(TIM17_IRQn);
  /* USER CODE BEGIN TIM17_MspInit 1 */

  /* USER CODE END TIM17_MspInit 1 */
  }
  else if(htim_base->Instance==TIM14)
 80018a0:	4a4a      	ldr	r2, [pc, #296]	@ (80019cc <HAL_TIM_Base_MspInit+0x168>)
 80018a2:	4293      	cmp	r3, r2
 80018a4:	d100      	bne.n	80018a8 <HAL_TIM_Base_MspInit+0x44>
 80018a6:	e072      	b.n	800198e <HAL_TIM_Base_MspInit+0x12a>
    /* USER CODE BEGIN TIM14_MspInit 1 */

    /* USER CODE END TIM14_MspInit 1 */
    }

}
 80018a8:	b018      	add	sp, #96	@ 0x60
 80018aa:	bd10      	pop	{r4, pc}
    __HAL_RCC_TIM16_CLK_ENABLE();
 80018ac:	2180      	movs	r1, #128	@ 0x80
 80018ae:	4b48      	ldr	r3, [pc, #288]	@ (80019d0 <HAL_TIM_Base_MspInit+0x16c>)
 80018b0:	0289      	lsls	r1, r1, #10
 80018b2:	6c1a      	ldr	r2, [r3, #64]	@ 0x40
    HAL_NVIC_SetPriority(TIM16_IRQn, 0, 0);
 80018b4:	2015      	movs	r0, #21
    __HAL_RCC_TIM16_CLK_ENABLE();
 80018b6:	430a      	orrs	r2, r1
 80018b8:	641a      	str	r2, [r3, #64]	@ 0x40
 80018ba:	6c1b      	ldr	r3, [r3, #64]	@ 0x40
    HAL_NVIC_SetPriority(TIM16_IRQn, 0, 0);
 80018bc:	2200      	movs	r2, #0
    __HAL_RCC_TIM16_CLK_ENABLE();
 80018be:	400b      	ands	r3, r1
 80018c0:	9305      	str	r3, [sp, #20]
    HAL_NVIC_SetPriority(TIM16_IRQn, 0, 0);
 80018c2:	2100      	movs	r1, #0
    __HAL_RCC_TIM16_CLK_ENABLE();
 80018c4:	9b05      	ldr	r3, [sp, #20]
    HAL_NVIC_SetPriority(TIM16_IRQn, 0, 0);
 80018c6:	f001 f913 	bl	8002af0 <HAL_NVIC_SetPriority>
    HAL_NVIC_EnableIRQ(TIM16_IRQn);
 80018ca:	2015      	movs	r0, #21
 80018cc:	f001 f93a 	bl	8002b44 <HAL_NVIC_EnableIRQ>
 80018d0:	e7ea      	b.n	80018a8 <HAL_TIM_Base_MspInit+0x44>
    PeriphClkInit.PeriphClockSelection = RCC_PERIPHCLK_TIM1;
 80018d2:	2380      	movs	r3, #128	@ 0x80
    if (HAL_RCCEx_PeriphCLKConfig(&PeriphClkInit) != HAL_OK)
 80018d4:	a80e      	add	r0, sp, #56	@ 0x38
    PeriphClkInit.PeriphClockSelection = RCC_PERIPHCLK_TIM1;
 80018d6:	039b      	lsls	r3, r3, #14
 80018d8:	930e      	str	r3, [sp, #56]	@ 0x38
    if (HAL_RCCEx_PeriphCLKConfig(&PeriphClkInit) != HAL_OK)
 80018da:	f002 fa63 	bl	8003da4 <HAL_RCCEx_PeriphCLKConfig>
 80018de:	2800      	cmp	r0, #0
 80018e0:	d168      	bne.n	80019b4 <HAL_TIM_Base_MspInit+0x150>
    __HAL_RCC_TIM1_CLK_ENABLE();
 80018e2:	2180      	movs	r1, #128	@ 0x80
 80018e4:	4b3a      	ldr	r3, [pc, #232]	@ (80019d0 <HAL_TIM_Base_MspInit+0x16c>)
 80018e6:	0109      	lsls	r1, r1, #4
 80018e8:	6c1a      	ldr	r2, [r3, #64]	@ 0x40
 80018ea:	430a      	orrs	r2, r1
 80018ec:	641a      	str	r2, [r3, #64]	@ 0x40
 80018ee:	6c1b      	ldr	r3, [r3, #64]	@ 0x40
 80018f0:	400b      	ands	r3, r1
 80018f2:	9301      	str	r3, [sp, #4]
 80018f4:	9b01      	ldr	r3, [sp, #4]
 80018f6:	e7d7      	b.n	80018a8 <HAL_TIM_Base_MspInit+0x44>
    __HAL_RCC_TIM2_CLK_ENABLE();
 80018f8:	2201      	movs	r2, #1
 80018fa:	4b35      	ldr	r3, [pc, #212]	@ (80019d0 <HAL_TIM_Base_MspInit+0x16c>)
    GPIO_InitStruct.Pin = IP_CAP_Pin;
 80018fc:	2080      	movs	r0, #128	@ 0x80
    __HAL_RCC_TIM2_CLK_ENABLE();
 80018fe:	6bd9      	ldr	r1, [r3, #60]	@ 0x3c
    GPIO_InitStruct.Pin = IP_CAP_Pin;
 8001900:	0200      	lsls	r0, r0, #8
    __HAL_RCC_TIM2_CLK_ENABLE();
 8001902:	4311      	orrs	r1, r2
 8001904:	63d9      	str	r1, [r3, #60]	@ 0x3c
 8001906:	6bd9      	ldr	r1, [r3, #60]	@ 0x3c
 8001908:	4011      	ands	r1, r2
 800190a:	9102      	str	r1, [sp, #8]
 800190c:	9902      	ldr	r1, [sp, #8]
    __HAL_RCC_GPIOA_CLK_ENABLE();
 800190e:	6b59      	ldr	r1, [r3, #52]	@ 0x34
 8001910:	4311      	orrs	r1, r2
 8001912:	6359      	str	r1, [r3, #52]	@ 0x34
    GPIO_InitStruct.Pin = IP_CAP_Pin;
 8001914:	2102      	movs	r1, #2
    __HAL_RCC_GPIOA_CLK_ENABLE();
 8001916:	6b5b      	ldr	r3, [r3, #52]	@ 0x34
    GPIO_InitStruct.Pin = IP_CAP_Pin;
 8001918:	9008      	str	r0, [sp, #32]
 800191a:	9109      	str	r1, [sp, #36]	@ 0x24
    __HAL_RCC_GPIOA_CLK_ENABLE();
 800191c:	4013      	ands	r3, r2
 800191e:	9303      	str	r3, [sp, #12]
    HAL_GPIO_Init(IP_CAP_GPIO_Port, &GPIO_InitStruct);
 8001920:	20a0      	movs	r0, #160	@ 0xa0
    __HAL_RCC_GPIOA_CLK_ENABLE();
 8001922:	9b03      	ldr	r3, [sp, #12]
    GPIO_InitStruct.Alternate = GPIO_AF2_TIM2;
 8001924:	2302      	movs	r3, #2
    HAL_GPIO_Init(IP_CAP_GPIO_Port, &GPIO_InitStruct);
 8001926:	a908      	add	r1, sp, #32
 8001928:	05c0      	lsls	r0, r0, #23
    GPIO_InitStruct.Pull = GPIO_PULLUP; //even though we do not 'technically' need a pullup as a push-pull O/P will be driving the I/P cap pin, I think it is better to ensure the I/P cap input properly idles
 800192a:	920a      	str	r2, [sp, #40]	@ 0x28
    GPIO_InitStruct.Alternate = GPIO_AF2_TIM2;
 800192c:	930c      	str	r3, [sp, #48]	@ 0x30
    HAL_GPIO_Init(IP_CAP_GPIO_Port, &GPIO_InitStruct);
 800192e:	f001 faf1 	bl	8002f14 <HAL_GPIO_Init>
    HAL_NVIC_SetPriority(TIM2_IRQn, 2, 2);
 8001932:	2202      	movs	r2, #2
 8001934:	2102      	movs	r1, #2
 8001936:	200f      	movs	r0, #15
 8001938:	f001 f8da 	bl	8002af0 <HAL_NVIC_SetPriority>
    HAL_NVIC_EnableIRQ(TIM2_IRQn);
 800193c:	200f      	movs	r0, #15
 800193e:	f001 f901 	bl	8002b44 <HAL_NVIC_EnableIRQ>
 8001942:	e7b1      	b.n	80018a8 <HAL_TIM_Base_MspInit+0x44>
    __HAL_RCC_TIM3_CLK_ENABLE();
 8001944:	2302      	movs	r3, #2
 8001946:	4a22      	ldr	r2, [pc, #136]	@ (80019d0 <HAL_TIM_Base_MspInit+0x16c>)
    HAL_NVIC_SetPriority(TIM3_IRQn, 0, 0);
 8001948:	2010      	movs	r0, #16
    __HAL_RCC_TIM3_CLK_ENABLE();
 800194a:	6bd1      	ldr	r1, [r2, #60]	@ 0x3c
 800194c:	4319      	orrs	r1, r3
 800194e:	63d1      	str	r1, [r2, #60]	@ 0x3c
 8001950:	6bd2      	ldr	r2, [r2, #60]	@ 0x3c
    HAL_NVIC_SetPriority(TIM3_IRQn, 0, 0);
 8001952:	2100      	movs	r1, #0
    __HAL_RCC_TIM3_CLK_ENABLE();
 8001954:	4013      	ands	r3, r2
 8001956:	9304      	str	r3, [sp, #16]
    HAL_NVIC_SetPriority(TIM3_IRQn, 0, 0);
 8001958:	2200      	movs	r2, #0
    __HAL_RCC_TIM3_CLK_ENABLE();
 800195a:	9b04      	ldr	r3, [sp, #16]
    HAL_NVIC_SetPriority(TIM3_IRQn, 0, 0);
 800195c:	f001 f8c8 	bl	8002af0 <HAL_NVIC_SetPriority>
    HAL_NVIC_EnableIRQ(TIM3_IRQn);
 8001960:	2010      	movs	r0, #16
 8001962:	f001 f8ef 	bl	8002b44 <HAL_NVIC_EnableIRQ>
 8001966:	e79f      	b.n	80018a8 <HAL_TIM_Base_MspInit+0x44>
    __HAL_RCC_TIM17_CLK_ENABLE();
 8001968:	2180      	movs	r1, #128	@ 0x80
 800196a:	4b19      	ldr	r3, [pc, #100]	@ (80019d0 <HAL_TIM_Base_MspInit+0x16c>)
 800196c:	02c9      	lsls	r1, r1, #11
 800196e:	6c1a      	ldr	r2, [r3, #64]	@ 0x40
    HAL_NVIC_SetPriority(TIM17_IRQn, 3, 3);
 8001970:	2016      	movs	r0, #22
    __HAL_RCC_TIM17_CLK_ENABLE();
 8001972:	430a      	orrs	r2, r1
 8001974:	641a      	str	r2, [r3, #64]	@ 0x40
 8001976:	6c1b      	ldr	r3, [r3, #64]	@ 0x40
    HAL_NVIC_SetPriority(TIM17_IRQn, 3, 3);
 8001978:	2203      	movs	r2, #3
    __HAL_RCC_TIM17_CLK_ENABLE();
 800197a:	400b      	ands	r3, r1
 800197c:	9306      	str	r3, [sp, #24]
    HAL_NVIC_SetPriority(TIM17_IRQn, 3, 3);
 800197e:	2103      	movs	r1, #3
    __HAL_RCC_TIM17_CLK_ENABLE();
 8001980:	9b06      	ldr	r3, [sp, #24]
    HAL_NVIC_SetPriority(TIM17_IRQn, 3, 3);
 8001982:	f001 f8b5 	bl	8002af0 <HAL_NVIC_SetPriority>
    HAL_NVIC_EnableIRQ(TIM17_IRQn);
 8001986:	2016      	movs	r0, #22
 8001988:	f001 f8dc 	bl	8002b44 <HAL_NVIC_EnableIRQ>
 800198c:	e78c      	b.n	80018a8 <HAL_TIM_Base_MspInit+0x44>
      __HAL_RCC_TIM14_CLK_ENABLE();
 800198e:	2180      	movs	r1, #128	@ 0x80
 8001990:	4b0f      	ldr	r3, [pc, #60]	@ (80019d0 <HAL_TIM_Base_MspInit+0x16c>)
 8001992:	0209      	lsls	r1, r1, #8
 8001994:	6c1a      	ldr	r2, [r3, #64]	@ 0x40
      HAL_NVIC_SetPriority(TIM14_IRQn, 3, 3);
 8001996:	2013      	movs	r0, #19
      __HAL_RCC_TIM14_CLK_ENABLE();
 8001998:	430a      	orrs	r2, r1
 800199a:	641a      	str	r2, [r3, #64]	@ 0x40
 800199c:	6c1b      	ldr	r3, [r3, #64]	@ 0x40
      HAL_NVIC_SetPriority(TIM14_IRQn, 3, 3);
 800199e:	2203      	movs	r2, #3
      __HAL_RCC_TIM14_CLK_ENABLE();
 80019a0:	400b      	ands	r3, r1
 80019a2:	9307      	str	r3, [sp, #28]
      HAL_NVIC_SetPriority(TIM14_IRQn, 3, 3);
 80019a4:	2103      	movs	r1, #3
      __HAL_RCC_TIM14_CLK_ENABLE();
 80019a6:	9b07      	ldr	r3, [sp, #28]
      HAL_NVIC_SetPriority(TIM14_IRQn, 3, 3);
 80019a8:	f001 f8a2 	bl	8002af0 <HAL_NVIC_SetPriority>
      HAL_NVIC_EnableIRQ(TIM14_IRQn);
 80019ac:	2013      	movs	r0, #19
 80019ae:	f001 f8c9 	bl	8002b44 <HAL_NVIC_EnableIRQ>
}
 80019b2:	e779      	b.n	80018a8 <HAL_TIM_Base_MspInit+0x44>
      Error_Handler();
 80019b4:	f7ff f974 	bl	8000ca0 <Error_Handler>
 80019b8:	e793      	b.n	80018e2 <HAL_TIM_Base_MspInit+0x7e>
 80019ba:	46c0      	nop			@ (mov r8, r8)
 80019bc:	40012c00 	.word	0x40012c00
 80019c0:	40000400 	.word	0x40000400
 80019c4:	40014400 	.word	0x40014400
 80019c8:	40014800 	.word	0x40014800
 80019cc:	40002000 	.word	0x40002000
 80019d0:	40021000 	.word	0x40021000

080019d4 <HAL_TIM_MspPostInit>:

void HAL_TIM_MspPostInit(TIM_HandleTypeDef* htim)
{
 80019d4:	b530      	push	{r4, r5, lr}
 80019d6:	0004      	movs	r4, r0
 80019d8:	b089      	sub	sp, #36	@ 0x24
  GPIO_InitTypeDef GPIO_InitStruct = {0};
 80019da:	2214      	movs	r2, #20
 80019dc:	2100      	movs	r1, #0
 80019de:	a802      	add	r0, sp, #8
 80019e0:	f004 fe2c 	bl	800663c <memset>
  if(htim->Instance==TIM1)
 80019e4:	4b16      	ldr	r3, [pc, #88]	@ (8001a40 <HAL_TIM_MspPostInit+0x6c>)
 80019e6:	6822      	ldr	r2, [r4, #0]
 80019e8:	429a      	cmp	r2, r3
 80019ea:	d001      	beq.n	80019f0 <HAL_TIM_MspPostInit+0x1c>
  /* USER CODE BEGIN TIM1_MspPostInit 1 */

  /* USER CODE END TIM1_MspPostInit 1 */
  }

}
 80019ec:	b009      	add	sp, #36	@ 0x24
 80019ee:	bd30      	pop	{r4, r5, pc}
    __HAL_RCC_GPIOA_CLK_ENABLE();
 80019f0:	2501      	movs	r5, #1
    __HAL_RCC_GPIOB_CLK_ENABLE();
 80019f2:	2402      	movs	r4, #2
    __HAL_RCC_GPIOA_CLK_ENABLE();
 80019f4:	4b13      	ldr	r3, [pc, #76]	@ (8001a44 <HAL_TIM_MspPostInit+0x70>)
    HAL_GPIO_Init(SECONDARY_OSCILLATOR_GPIO_Port, &GPIO_InitStruct);
 80019f6:	20a0      	movs	r0, #160	@ 0xa0
    __HAL_RCC_GPIOA_CLK_ENABLE();
 80019f8:	6b5a      	ldr	r2, [r3, #52]	@ 0x34
    HAL_GPIO_Init(SECONDARY_OSCILLATOR_GPIO_Port, &GPIO_InitStruct);
 80019fa:	a902      	add	r1, sp, #8
    __HAL_RCC_GPIOA_CLK_ENABLE();
 80019fc:	432a      	orrs	r2, r5
 80019fe:	635a      	str	r2, [r3, #52]	@ 0x34
 8001a00:	6b5a      	ldr	r2, [r3, #52]	@ 0x34
    HAL_GPIO_Init(SECONDARY_OSCILLATOR_GPIO_Port, &GPIO_InitStruct);
 8001a02:	05c0      	lsls	r0, r0, #23
    __HAL_RCC_GPIOA_CLK_ENABLE();
 8001a04:	402a      	ands	r2, r5
 8001a06:	9200      	str	r2, [sp, #0]
 8001a08:	9a00      	ldr	r2, [sp, #0]
    __HAL_RCC_GPIOB_CLK_ENABLE();
 8001a0a:	6b5a      	ldr	r2, [r3, #52]	@ 0x34
 8001a0c:	4322      	orrs	r2, r4
 8001a0e:	635a      	str	r2, [r3, #52]	@ 0x34
 8001a10:	6b5b      	ldr	r3, [r3, #52]	@ 0x34
    GPIO_InitStruct.Pin = SECONDARY_OSCILLATOR_Pin;
 8001a12:	2280      	movs	r2, #128	@ 0x80
    __HAL_RCC_GPIOB_CLK_ENABLE();
 8001a14:	4023      	ands	r3, r4
 8001a16:	9301      	str	r3, [sp, #4]
 8001a18:	9b01      	ldr	r3, [sp, #4]
    GPIO_InitStruct.Pin = SECONDARY_OSCILLATOR_Pin;
 8001a1a:	2302      	movs	r3, #2
 8001a1c:	0112      	lsls	r2, r2, #4
 8001a1e:	9202      	str	r2, [sp, #8]
 8001a20:	9303      	str	r3, [sp, #12]
    GPIO_InitStruct.Alternate = GPIO_AF2_TIM1;
 8001a22:	9406      	str	r4, [sp, #24]
    HAL_GPIO_Init(SECONDARY_OSCILLATOR_GPIO_Port, &GPIO_InitStruct);
 8001a24:	f001 fa76 	bl	8002f14 <HAL_GPIO_Init>
    GPIO_InitStruct.Pin = MAIN_OSCILLATOR_Pin;
 8001a28:	2308      	movs	r3, #8
 8001a2a:	9302      	str	r3, [sp, #8]
    GPIO_InitStruct.Pull = GPIO_NOPULL;
 8001a2c:	2300      	movs	r3, #0
    HAL_GPIO_Init(MAIN_OSCILLATOR_GPIO_Port, &GPIO_InitStruct);
 8001a2e:	4806      	ldr	r0, [pc, #24]	@ (8001a48 <HAL_TIM_MspPostInit+0x74>)
 8001a30:	a902      	add	r1, sp, #8
    GPIO_InitStruct.Mode = GPIO_MODE_AF_PP;
 8001a32:	9403      	str	r4, [sp, #12]
    GPIO_InitStruct.Pull = GPIO_NOPULL;
 8001a34:	9304      	str	r3, [sp, #16]
    GPIO_InitStruct.Speed = GPIO_SPEED_FREQ_LOW;
 8001a36:	9305      	str	r3, [sp, #20]
    GPIO_InitStruct.Alternate = GPIO_AF1_TIM1;
 8001a38:	9506      	str	r5, [sp, #24]
    HAL_GPIO_Init(MAIN_OSCILLATOR_GPIO_Port, &GPIO_InitStruct);
 8001a3a:	f001 fa6b 	bl	8002f14 <HAL_GPIO_Init>
}
 8001a3e:	e7d5      	b.n	80019ec <HAL_TIM_MspPostInit+0x18>
 8001a40:	40012c00 	.word	0x40012c00
 8001a44:	40021000 	.word	0x40021000
 8001a48:	50000400 	.word	0x50000400

08001a4c <HAL_UART_MspInit>:
* This function configures the hardware resources used in this example
* @param huart: UART handle pointer
* @retval None
*/
void HAL_UART_MspInit(UART_HandleTypeDef* huart)
{
 8001a4c:	b530      	push	{r4, r5, lr}
 8001a4e:	0004      	movs	r4, r0
 8001a50:	b089      	sub	sp, #36	@ 0x24
  GPIO_InitTypeDef GPIO_InitStruct = {0};
 8001a52:	2214      	movs	r2, #20
 8001a54:	2100      	movs	r1, #0
 8001a56:	a802      	add	r0, sp, #8
 8001a58:	f004 fdf0 	bl	800663c <memset>
  if(huart->Instance==USART2)
 8001a5c:	4b30      	ldr	r3, [pc, #192]	@ (8001b20 <HAL_UART_MspInit+0xd4>)
 8001a5e:	6822      	ldr	r2, [r4, #0]
 8001a60:	429a      	cmp	r2, r3
 8001a62:	d001      	beq.n	8001a68 <HAL_UART_MspInit+0x1c>

  /* USER CODE END USART2_MspInit 1 */

  }

}
 8001a64:	b009      	add	sp, #36	@ 0x24
 8001a66:	bd30      	pop	{r4, r5, pc}
    __HAL_RCC_USART2_CLK_ENABLE();
 8001a68:	2180      	movs	r1, #128	@ 0x80
 8001a6a:	4b2e      	ldr	r3, [pc, #184]	@ (8001b24 <HAL_UART_MspInit+0xd8>)
 8001a6c:	0289      	lsls	r1, r1, #10
 8001a6e:	6bda      	ldr	r2, [r3, #60]	@ 0x3c
    GPIO_InitStruct.Pin = T_VCP_TX_Pin|T_VCP_RX_Pin;
 8001a70:	200c      	movs	r0, #12
    __HAL_RCC_USART2_CLK_ENABLE();
 8001a72:	430a      	orrs	r2, r1
 8001a74:	63da      	str	r2, [r3, #60]	@ 0x3c
 8001a76:	6bda      	ldr	r2, [r3, #60]	@ 0x3c
 8001a78:	400a      	ands	r2, r1
 8001a7a:	9200      	str	r2, [sp, #0]
 8001a7c:	9a00      	ldr	r2, [sp, #0]
    __HAL_RCC_GPIOA_CLK_ENABLE();
 8001a7e:	2201      	movs	r2, #1
 8001a80:	6b59      	ldr	r1, [r3, #52]	@ 0x34
 8001a82:	4311      	orrs	r1, r2
 8001a84:	6359      	str	r1, [r3, #52]	@ 0x34
    GPIO_InitStruct.Pin = T_VCP_TX_Pin|T_VCP_RX_Pin;
 8001a86:	2102      	movs	r1, #2
    __HAL_RCC_GPIOA_CLK_ENABLE();
 8001a88:	6b5b      	ldr	r3, [r3, #52]	@ 0x34
    GPIO_InitStruct.Pin = T_VCP_TX_Pin|T_VCP_RX_Pin;
 8001a8a:	9002      	str	r0, [sp, #8]
 8001a8c:	9103      	str	r1, [sp, #12]
    HAL_GPIO_Init(GPIOA, &GPIO_InitStruct);
 8001a8e:	20a0      	movs	r0, #160	@ 0xa0
    __HAL_RCC_GPIOA_CLK_ENABLE();
 8001a90:	4013      	ands	r3, r2
 8001a92:	9301      	str	r3, [sp, #4]
    HAL_GPIO_Init(GPIOA, &GPIO_InitStruct);
 8001a94:	05c0      	lsls	r0, r0, #23
 8001a96:	a902      	add	r1, sp, #8
    __HAL_RCC_GPIOA_CLK_ENABLE();
 8001a98:	9b01      	ldr	r3, [sp, #4]
    GPIO_InitStruct.Pull = GPIO_PULLUP;
 8001a9a:	9204      	str	r2, [sp, #16]
    GPIO_InitStruct.Alternate = GPIO_AF1_USART2;
 8001a9c:	9206      	str	r2, [sp, #24]
    HAL_GPIO_Init(GPIOA, &GPIO_InitStruct);
 8001a9e:	f001 fa39 	bl	8002f14 <HAL_GPIO_Init>
    hdma_usart2_rx.Instance = DMA1_Channel2;
 8001aa2:	4d21      	ldr	r5, [pc, #132]	@ (8001b28 <HAL_UART_MspInit+0xdc>)
 8001aa4:	4b21      	ldr	r3, [pc, #132]	@ (8001b2c <HAL_UART_MspInit+0xe0>)
    hdma_usart2_rx.Init.MemInc = DMA_MINC_ENABLE;
 8001aa6:	2280      	movs	r2, #128	@ 0x80
    hdma_usart2_rx.Instance = DMA1_Channel2;
 8001aa8:	602b      	str	r3, [r5, #0]
    hdma_usart2_rx.Init.Request = DMA_REQUEST_USART2_RX;
 8001aaa:	2334      	movs	r3, #52	@ 0x34
 8001aac:	606b      	str	r3, [r5, #4]
    hdma_usart2_rx.Init.Direction = DMA_PERIPH_TO_MEMORY;
 8001aae:	2300      	movs	r3, #0
 8001ab0:	60ab      	str	r3, [r5, #8]
    hdma_usart2_rx.Init.PeriphInc = DMA_PINC_DISABLE;
 8001ab2:	60eb      	str	r3, [r5, #12]
    hdma_usart2_rx.Init.PeriphDataAlignment = DMA_PDATAALIGN_BYTE;
 8001ab4:	616b      	str	r3, [r5, #20]
    hdma_usart2_rx.Init.MemDataAlignment = DMA_MDATAALIGN_BYTE;
 8001ab6:	61ab      	str	r3, [r5, #24]
    hdma_usart2_rx.Init.Mode = DMA_NORMAL;
 8001ab8:	61eb      	str	r3, [r5, #28]
    hdma_usart2_rx.Init.Priority = DMA_PRIORITY_MEDIUM;
 8001aba:	2380      	movs	r3, #128	@ 0x80
    if (HAL_DMA_Init(&hdma_usart2_rx) != HAL_OK)
 8001abc:	0028      	movs	r0, r5
    hdma_usart2_rx.Init.Priority = DMA_PRIORITY_MEDIUM;
 8001abe:	015b      	lsls	r3, r3, #5
    hdma_usart2_rx.Init.MemInc = DMA_MINC_ENABLE;
 8001ac0:	612a      	str	r2, [r5, #16]
    hdma_usart2_rx.Init.Priority = DMA_PRIORITY_MEDIUM;
 8001ac2:	622b      	str	r3, [r5, #32]
    if (HAL_DMA_Init(&hdma_usart2_rx) != HAL_OK)
 8001ac4:	f001 f874 	bl	8002bb0 <HAL_DMA_Init>
 8001ac8:	2800      	cmp	r0, #0
 8001aca:	d122      	bne.n	8001b12 <HAL_UART_MspInit+0xc6>
    __HAL_LINKDMA(huart,hdmarx,hdma_usart2_rx);
 8001acc:	2280      	movs	r2, #128	@ 0x80
    hdma_usart2_tx.Instance = DMA1_Channel3;
 8001ace:	4b18      	ldr	r3, [pc, #96]	@ (8001b30 <HAL_UART_MspInit+0xe4>)
    __HAL_LINKDMA(huart,hdmarx,hdma_usart2_rx);
 8001ad0:	50a5      	str	r5, [r4, r2]
 8001ad2:	62ac      	str	r4, [r5, #40]	@ 0x28
    hdma_usart2_tx.Instance = DMA1_Channel3;
 8001ad4:	4d17      	ldr	r5, [pc, #92]	@ (8001b34 <HAL_UART_MspInit+0xe8>)
 8001ad6:	602b      	str	r3, [r5, #0]
    hdma_usart2_tx.Init.Request = DMA_REQUEST_USART2_TX;
 8001ad8:	2335      	movs	r3, #53	@ 0x35
 8001ada:	606b      	str	r3, [r5, #4]
    hdma_usart2_tx.Init.Direction = DMA_MEMORY_TO_PERIPH;
 8001adc:	3b25      	subs	r3, #37	@ 0x25
 8001ade:	60ab      	str	r3, [r5, #8]
    hdma_usart2_tx.Init.PeriphInc = DMA_PINC_DISABLE;
 8001ae0:	2300      	movs	r3, #0
 8001ae2:	60eb      	str	r3, [r5, #12]
    hdma_usart2_tx.Init.PeriphDataAlignment = DMA_PDATAALIGN_BYTE;
 8001ae4:	616b      	str	r3, [r5, #20]
    hdma_usart2_tx.Init.MemDataAlignment = DMA_MDATAALIGN_BYTE;
 8001ae6:	61ab      	str	r3, [r5, #24]
    hdma_usart2_tx.Init.Mode = DMA_NORMAL;
 8001ae8:	61eb      	str	r3, [r5, #28]
    hdma_usart2_tx.Init.Priority = DMA_PRIORITY_MEDIUM;
 8001aea:	2380      	movs	r3, #128	@ 0x80
    if (HAL_DMA_Init(&hdma_usart2_tx) != HAL_OK)
 8001aec:	0028      	movs	r0, r5
    hdma_usart2_tx.Init.Priority = DMA_PRIORITY_MEDIUM;
 8001aee:	015b      	lsls	r3, r3, #5
    hdma_usart2_tx.Init.MemInc = DMA_MINC_ENABLE;
 8001af0:	612a      	str	r2, [r5, #16]
    hdma_usart2_tx.Init.Priority = DMA_PRIORITY_MEDIUM;
 8001af2:	622b      	str	r3, [r5, #32]
    if (HAL_DMA_Init(&hdma_usart2_tx) != HAL_OK)
 8001af4:	f001 f85c 	bl	8002bb0 <HAL_DMA_Init>
 8001af8:	2800      	cmp	r0, #0
 8001afa:	d10d      	bne.n	8001b18 <HAL_UART_MspInit+0xcc>
    HAL_NVIC_SetPriority(USART2_IRQn, 1, 1);
 8001afc:	2201      	movs	r2, #1
 8001afe:	2101      	movs	r1, #1
 8001b00:	201c      	movs	r0, #28
    __HAL_LINKDMA(huart,hdmatx,hdma_usart2_tx);
 8001b02:	67e5      	str	r5, [r4, #124]	@ 0x7c
 8001b04:	62ac      	str	r4, [r5, #40]	@ 0x28
    HAL_NVIC_SetPriority(USART2_IRQn, 1, 1);
 8001b06:	f000 fff3 	bl	8002af0 <HAL_NVIC_SetPriority>
    HAL_NVIC_EnableIRQ(USART2_IRQn);
 8001b0a:	201c      	movs	r0, #28
 8001b0c:	f001 f81a 	bl	8002b44 <HAL_NVIC_EnableIRQ>
}
 8001b10:	e7a8      	b.n	8001a64 <HAL_UART_MspInit+0x18>
      Error_Handler();
 8001b12:	f7ff f8c5 	bl	8000ca0 <Error_Handler>
 8001b16:	e7d9      	b.n	8001acc <HAL_UART_MspInit+0x80>
      Error_Handler();
 8001b18:	f7ff f8c2 	bl	8000ca0 <Error_Handler>
 8001b1c:	e7ee      	b.n	8001afc <HAL_UART_MspInit+0xb0>
 8001b1e:	46c0      	nop			@ (mov r8, r8)
 8001b20:	40004400 	.word	0x40004400
 8001b24:	40021000 	.word	0x40021000
 8001b28:	200004f8 	.word	0x200004f8
 8001b2c:	4002001c 	.word	0x4002001c
 8001b30:	40020030 	.word	0x40020030
 8001b34:	2000049c 	.word	0x2000049c

08001b38 <NMI_Handler>:
{
  /* USER CODE BEGIN NonMaskableInt_IRQn 0 */

  /* USER CODE END NonMaskableInt_IRQn 0 */
  /* USER CODE BEGIN NonMaskableInt_IRQn 1 */
   while (1)
 8001b38:	e7fe      	b.n	8001b38 <NMI_Handler>
 8001b3a:	46c0      	nop			@ (mov r8, r8)

08001b3c <HardFault_Handler>:
void HardFault_Handler(void)
{
  /* USER CODE BEGIN HardFault_IRQn 0 */

  /* USER CODE END HardFault_IRQn 0 */
  while (1)
 8001b3c:	e7fe      	b.n	8001b3c <HardFault_Handler>
 8001b3e:	46c0      	nop			@ (mov r8, r8)

08001b40 <SVC_Handler>:

  /* USER CODE END SVC_IRQn 0 */
  /* USER CODE BEGIN SVC_IRQn 1 */

  /* USER CODE END SVC_IRQn 1 */
}
 8001b40:	4770      	bx	lr
 8001b42:	46c0      	nop			@ (mov r8, r8)

08001b44 <PendSV_Handler>:

/**
  * @brief This function handles Pendable request for system service.
  */
void PendSV_Handler(void)
 8001b44:	4770      	bx	lr
 8001b46:	46c0      	nop			@ (mov r8, r8)

08001b48 <SysTick_Handler>:

/**
  * @brief This function handles System tick timer.
  */
void SysTick_Handler(void)
{
 8001b48:	b510      	push	{r4, lr}
  /* USER CODE BEGIN SysTick_IRQn 0 */

  /* USER CODE END SysTick_IRQn 0 */
  HAL_IncTick();
 8001b4a:	f000 fa4f 	bl	8001fec <HAL_IncTick>
  /* USER CODE BEGIN SysTick_IRQn 1 */

  /* USER CODE END SysTick_IRQn 1 */
}
 8001b4e:	bd10      	pop	{r4, pc}

08001b50 <EXTI4_15_IRQHandler>:

/**
  * @brief This function handles EXTI line 4 to 15 interrupts.
  */
void EXTI4_15_IRQHandler(void)
{
 8001b50:	b510      	push	{r4, lr}
  /* USER CODE BEGIN EXTI4_15_IRQn 0 */

  /* USER CODE END EXTI4_15_IRQn 0 */

	HAL_GPIO_EXTI_IRQHandler(CLK_IN_Pin);
 8001b52:	2080      	movs	r0, #128	@ 0x80
 8001b54:	f001 fadc 	bl	8003110 <HAL_GPIO_EXTI_IRQHandler>
	//HAL_GPIO_EXTI_IRQHandler(SW_IN_Pin);

  /* USER CODE BEGIN EXTI4_15_IRQn 1 */

  /* USER CODE END EXTI4_15_IRQn 1 */
}
 8001b58:	bd10      	pop	{r4, pc}
 8001b5a:	46c0      	nop			@ (mov r8, r8)

08001b5c <DMA1_Channel1_IRQHandler>:

/**
  * @brief This function handles DMA1 channel 1 interrupt.
  */
void DMA1_Channel1_IRQHandler(void)
{
 8001b5c:	b510      	push	{r4, lr}
  /* USER CODE BEGIN DMA1_Channel1_IRQn 0 */

  /* USER CODE END DMA1_Channel1_IRQn 0 */
  HAL_DMA_IRQHandler(&hdma_adc1);
 8001b5e:	4802      	ldr	r0, [pc, #8]	@ (8001b68 <DMA1_Channel1_IRQHandler+0xc>)
 8001b60:	f001 f97c 	bl	8002e5c <HAL_DMA_IRQHandler>
  /* USER CODE BEGIN DMA1_Channel1_IRQn 1 */

  /* USER CODE END DMA1_Channel1_IRQn 1 */
}
 8001b64:	bd10      	pop	{r4, pc}
 8001b66:	46c0      	nop			@ (mov r8, r8)
 8001b68:	20000a88 	.word	0x20000a88

08001b6c <DMA1_Channel2_3_IRQHandler>:

/**
  * @brief This function handles DMA1 channel 2 and channel 3 interrupts.
  */
void DMA1_Channel2_3_IRQHandler(void)
{
 8001b6c:	b510      	push	{r4, lr}
  /* USER CODE BEGIN DMA1_Channel2_3_IRQn 0 */

  /* USER CODE END DMA1_Channel2_3_IRQn 0 */
  HAL_DMA_IRQHandler(&hdma_usart2_rx);
 8001b6e:	4803      	ldr	r0, [pc, #12]	@ (8001b7c <DMA1_Channel2_3_IRQHandler+0x10>)
 8001b70:	f001 f974 	bl	8002e5c <HAL_DMA_IRQHandler>
  HAL_DMA_IRQHandler(&hdma_usart2_tx);
 8001b74:	4802      	ldr	r0, [pc, #8]	@ (8001b80 <DMA1_Channel2_3_IRQHandler+0x14>)
 8001b76:	f001 f971 	bl	8002e5c <HAL_DMA_IRQHandler>
  /* USER CODE BEGIN DMA1_Channel2_3_IRQn 1 */

  /* USER CODE END DMA1_Channel2_3_IRQn 1 */
}
 8001b7a:	bd10      	pop	{r4, pc}
 8001b7c:	200004f8 	.word	0x200004f8
 8001b80:	2000049c 	.word	0x2000049c

08001b84 <TIM2_IRQHandler>:

/**
  * @brief This function handles TIM2 global interrupt.
  */
void TIM2_IRQHandler(void)
{
 8001b84:	b510      	push	{r4, lr}
  /* USER CODE BEGIN TIM2_IRQn 0 */

  /* USER CODE END TIM2_IRQn 0 */
  HAL_TIM_IRQHandler(&htim2);
 8001b86:	4802      	ldr	r0, [pc, #8]	@ (8001b90 <TIM2_IRQHandler+0xc>)
 8001b88:	f002 ffbc 	bl	8004b04 <HAL_TIM_IRQHandler>
  /* USER CODE BEGIN TIM2_IRQn 1 */

  /* USER CODE END TIM2_IRQn 1 */
}
 8001b8c:	bd10      	pop	{r4, pc}
 8001b8e:	46c0      	nop			@ (mov r8, r8)
 8001b90:	20000798 	.word	0x20000798

08001b94 <TIM3_IRQHandler>:

/**
  * @brief This function handles TIM3 global interrupt.
  */
void TIM3_IRQHandler(void)
{
 8001b94:	b510      	push	{r4, lr}
  /* USER CODE BEGIN TIM3_IRQn 0 */

  /* USER CODE END TIM3_IRQn 0 */
  HAL_TIM_IRQHandler(&htim3);
 8001b96:	4802      	ldr	r0, [pc, #8]	@ (8001ba0 <TIM3_IRQHandler+0xc>)
 8001b98:	f002 ffb4 	bl	8004b04 <HAL_TIM_IRQHandler>
  /* USER CODE BEGIN TIM3_IRQn 1 */

  /* USER CODE END TIM3_IRQn 1 */
}
 8001b9c:	bd10      	pop	{r4, pc}
 8001b9e:	46c0      	nop			@ (mov r8, r8)
 8001ba0:	200006dc 	.word	0x200006dc

08001ba4 <TIM16_IRQHandler>:

/**
  * @brief This function handles TIM16 global interrupt.
  */
void TIM16_IRQHandler(void)
{
 8001ba4:	b510      	push	{r4, lr}
  /* USER CODE BEGIN TIM16_IRQn 0 */

  /* USER CODE END TIM16_IRQn 0 */
  HAL_TIM_IRQHandler(&htim16);
 8001ba6:	4802      	ldr	r0, [pc, #8]	@ (8001bb0 <TIM16_IRQHandler+0xc>)
 8001ba8:	f002 ffac 	bl	8004b04 <HAL_TIM_IRQHandler>
  /* USER CODE BEGIN TIM16_IRQn 1 */

  /* USER CODE END TIM16_IRQn 1 */
}
 8001bac:	bd10      	pop	{r4, pc}
 8001bae:	46c0      	nop			@ (mov r8, r8)
 8001bb0:	20000854 	.word	0x20000854

08001bb4 <USART2_IRQHandler>:

/**
  * @brief This function handles USART2 global interrupt / USART2 wake-up interrupt through EXTI line 26.
  */
void USART2_IRQHandler(void)
{
 8001bb4:	b510      	push	{r4, lr}
  /* USER CODE BEGIN USART2_IRQn 0 */

  /* USER CODE END USART2_IRQn 0 */
  HAL_UART_IRQHandler(&huart2);
 8001bb6:	4802      	ldr	r0, [pc, #8]	@ (8001bc0 <USART2_IRQHandler+0xc>)
 8001bb8:	f004 f804 	bl	8005bc4 <HAL_UART_IRQHandler>
  /* USER CODE BEGIN USART2_IRQn 1 */

  /* USER CODE END USART2_IRQn 1 */
}
 8001bbc:	bd10      	pop	{r4, pc}
 8001bbe:	46c0      	nop			@ (mov r8, r8)
 8001bc0:	20000554 	.word	0x20000554

08001bc4 <LPTIM1_IRQHandler>:
/* USER CODE BEGIN 1 */

/* USER CODE END 1 */

void LPTIM1_IRQHandler(void)
{
 8001bc4:	b510      	push	{r4, lr}
  HAL_LPTIM_IRQHandler(&hlptim1);
 8001bc6:	4802      	ldr	r0, [pc, #8]	@ (8001bd0 <LPTIM1_IRQHandler+0xc>)
 8001bc8:	f001 fb4e 	bl	8003268 <HAL_LPTIM_IRQHandler>
}
 8001bcc:	bd10      	pop	{r4, pc}
 8001bce:	46c0      	nop			@ (mov r8, r8)
 8001bd0:	20000440 	.word	0x20000440

08001bd4 <TIM17_IRQHandler>:


void TIM17_IRQHandler(void)
{
 8001bd4:	b510      	push	{r4, lr}
  /* USER CODE BEGIN TIM17_IRQn 0 */

  /* USER CODE END TIM17_IRQn 0 */
  HAL_TIM_IRQHandler(&htim17);
 8001bd6:	4802      	ldr	r0, [pc, #8]	@ (8001be0 <TIM17_IRQHandler+0xc>)
 8001bd8:	f002 ff94 	bl	8004b04 <HAL_TIM_IRQHandler>
  /* USER CODE BEGIN TIM17_IRQn 1 */

  /* USER CODE END TIM17_IRQn 1 */
}
 8001bdc:	bd10      	pop	{r4, pc}
 8001bde:	46c0      	nop			@ (mov r8, r8)
 8001be0:	20000910 	.word	0x20000910

08001be4 <TIM14_IRQHandler>:

/**
  * @brief This function handles TIM14 global interrupt.
  */
void TIM14_IRQHandler(void)
{
 8001be4:	b510      	push	{r4, lr}
  /* USER CODE BEGIN TIM14_IRQn 0 */

  /* USER CODE END TIM14_IRQn 0 */
  HAL_TIM_IRQHandler(&htim14);
 8001be6:	4802      	ldr	r0, [pc, #8]	@ (8001bf0 <TIM14_IRQHandler+0xc>)
 8001be8:	f002 ff8c 	bl	8004b04 <HAL_TIM_IRQHandler>
  /* USER CODE BEGIN TIM14_IRQn 1 */

  /* USER CODE END TIM14_IRQn 1 */
}
 8001bec:	bd10      	pop	{r4, pc}
 8001bee:	46c0      	nop			@ (mov r8, r8)
 8001bf0:	200009cc 	.word	0x200009cc

08001bf4 <Process_TIM16_Final_Start_Value_and_Final_Prescaler>:
    	params_ptr->final_prescaler = params_ptr->raw_prescaler;
    }
    return 1;
}

uint8_t Process_TIM16_Final_Start_Value_and_Final_Prescaler(struct Params* params_ptr){
 8001bf4:	b5f0      	push	{r4, r5, r6, r7, lr}
 8001bf6:	46d6      	mov	lr, sl
 8001bf8:	464f      	mov	r7, r9
 8001bfa:	4646      	mov	r6, r8
 8001bfc:	b5c0      	push	{r6, r7, lr}

			uint8_t pot_rotation_corrected = 0;
			enum Symmetry_Status symmetry_status = CW;

			//DETERMINE IF CW OR CCW SYMMETRY POT ROTATION
			if(params_ptr->symmetry < SYMMETRY_ADC_HALF_SCALE){ //adc = 0-127
 8001bfe:	8982      	ldrh	r2, [r0, #12]
			else{ //adc is 128-255
				symmetry_status = CCW;
			}

			//DETERMINE WHETHER TO SHORTEN OR LENGTHEN BASED ON CURRENT INDEX AND SYMMETRY POT POSITION
			if((params_ptr->waveshape == SINE_MODE) || (params_ptr->waveshape == TRIANGLE_MODE)){
 8001c00:	7983      	ldrb	r3, [r0, #6]
uint8_t Process_TIM16_Final_Start_Value_and_Final_Prescaler(struct Params* params_ptr){
 8001c02:	0004      	movs	r4, r0
			if(params_ptr->symmetry < SYMMETRY_ADC_HALF_SCALE){ //adc = 0-127
 8001c04:	b292      	uxth	r2, r2
			if((params_ptr->waveshape == SINE_MODE) || (params_ptr->waveshape == TRIANGLE_MODE)){
 8001c06:	2b01      	cmp	r3, #1
 8001c08:	d054      	beq.n	8001cb4 <Process_TIM16_Final_Start_Value_and_Final_Prescaler+0xc0>
 8001c0a:	7983      	ldrb	r3, [r0, #6]
 8001c0c:	2b00      	cmp	r3, #0
 8001c0e:	d051      	beq.n	8001cb4 <Process_TIM16_Final_Start_Value_and_Final_Prescaler+0xc0>

						symmetry_type_for_halfcycle = LENGTHEN;
					}
				}
			}
			else if(params_ptr->waveshape == SQUARE_MODE){
 8001c10:	7983      	ldrb	r3, [r0, #6]
 8001c12:	2b02      	cmp	r3, #2
 8001c14:	d100      	bne.n	8001c18 <Process_TIM16_Final_Start_Value_and_Final_Prescaler+0x24>
 8001c16:	e0ce      	b.n	8001db6 <Process_TIM16_Final_Start_Value_and_Final_Prescaler+0x1c2>
						symmetry_type_for_halfcycle = LENGTHEN;
					}
				}
			}

			if(symmetry_status == CW){
 8001c18:	2700      	movs	r7, #0
 8001c1a:	2a7f      	cmp	r2, #127	@ 0x7f
 8001c1c:	d854      	bhi.n	8001cc8 <Process_TIM16_Final_Start_Value_and_Final_Prescaler+0xd4>

				pot_rotation_corrected = SYMMETRY_ADC_HALF_SCALE - 1 - params_ptr->symmetry;
 8001c1e:	227f      	movs	r2, #127	@ 0x7f
 8001c20:	89a3      	ldrh	r3, [r4, #12]
 8001c22:	1ad2      	subs	r2, r2, r3
 8001c24:	b2d2      	uxtb	r2, r2

				pot_rotation_corrected = SYMMETRY_ADC_HALF_SCALE - 1 - (SYMMETRY_ADC_FULL_SCALE - params_ptr->symmetry);
			}

			//HAVE TO BE uin16_t FOR 1ST AND 3RD VARIABLES HERE BECAUSE A uint8_t IS LIMITED TO 255!
			uint16_t two_fifty_six_minus_TIM16_raw_start_value = 256 - params_ptr->raw_start_value;
 8001c26:	8a65      	ldrh	r5, [r4, #18]
 8001c28:	b2ab      	uxth	r3, r5
 8001c2a:	4698      	mov	r8, r3
 8001c2c:	2380      	movs	r3, #128	@ 0x80
 8001c2e:	005b      	lsls	r3, r3, #1
 8001c30:	1b5d      	subs	r5, r3, r5
 8001c32:	b2ad      	uxth	r5, r5

			//uint16_t two_fifty_six_minus_TIM16_raw_start_value_multiplied_by_PRC = (two_fifty_six_minus_TIM16_raw_start_value * pot_rotation_corrected);
			//COMMENT LINE BELOW IN AND LINE ABOVE OUT TO EXPERIMENT WITH MORE EXTREME SYMMETRY ADJUSTMENT
			uint16_t two_fifty_six_minus_TIM16_raw_start_value_multiplied_by_PRC = ((two_fifty_six_minus_TIM16_raw_start_value * pot_rotation_corrected) * 12) >> 3; //x(12/8) - 12/8 is the absolute maximum we can get away with
 8001c34:	436a      	muls	r2, r5
 8001c36:	0056      	lsls	r6, r2, #1
 8001c38:	18b6      	adds	r6, r6, r2
 8001c3a:	1076      	asrs	r6, r6, #1

			uint16_t two_fifty_six_minus_TIM16_raw_start_value_multiplied_by_PRC_and_shifted_by_ADC_bits = (uint16_t)(two_fifty_six_minus_TIM16_raw_start_value_multiplied_by_PRC >> SYMMETRY_ADC_NUM_BITS);
 8001c3c:	b2b2      	uxth	r2, r6
 8001c3e:	0a12      	lsrs	r2, r2, #8
 8001c40:	4691      	mov	r9, r2


			//HAVE TO BE uin16_t HERE BECAUSE A uint8_t IS LIMITED TO 255!
			uint16_t manipulated_period_shorten = two_fifty_six_minus_TIM16_raw_start_value - two_fifty_six_minus_TIM16_raw_start_value_multiplied_by_PRC_and_shifted_by_ADC_bits; //manipulated shorten will always be less than 256
 8001c42:	1aaa      	subs	r2, r5, r2

			uint16_t manipulated_period_lengthen = two_fifty_six_minus_TIM16_raw_start_value + two_fifty_six_minus_TIM16_raw_start_value_multiplied_by_PRC_and_shifted_by_ADC_bits; //manipulated lengthen can be greater than 256 up to 381
 8001c44:	444d      	add	r5, r9
			uint16_t manipulated_period_shorten = two_fifty_six_minus_TIM16_raw_start_value - two_fifty_six_minus_TIM16_raw_start_value_multiplied_by_PRC_and_shifted_by_ADC_bits; //manipulated shorten will always be less than 256
 8001c46:	b292      	uxth	r2, r2


			if((manipulated_period_lengthen < 256) || ((manipulated_period_lengthen == 256) && (unsigned_bitwise_modulo(two_fifty_six_minus_TIM16_raw_start_value_multiplied_by_PRC, 8) == 0))){

				if(unsigned_bitwise_modulo(two_fifty_six_minus_TIM16_raw_start_value_multiplied_by_PRC, 8) == 128){
 8001c48:	0436      	lsls	r6, r6, #16
			uint16_t manipulated_period_lengthen = two_fifty_six_minus_TIM16_raw_start_value + two_fifty_six_minus_TIM16_raw_start_value_multiplied_by_PRC_and_shifted_by_ADC_bits; //manipulated lengthen can be greater than 256 up to 381
 8001c4a:	b2ad      	uxth	r5, r5
			uint16_t manipulated_period_shorten = two_fifty_six_minus_TIM16_raw_start_value - two_fifty_six_minus_TIM16_raw_start_value_multiplied_by_PRC_and_shifted_by_ADC_bits; //manipulated shorten will always be less than 256
 8001c4c:	4692      	mov	sl, r2
				if(unsigned_bitwise_modulo(two_fifty_six_minus_TIM16_raw_start_value_multiplied_by_PRC, 8) == 128){
 8001c4e:	0c36      	lsrs	r6, r6, #16
			if((manipulated_period_lengthen < 256) || ((manipulated_period_lengthen == 256) && (unsigned_bitwise_modulo(two_fifty_six_minus_TIM16_raw_start_value_multiplied_by_PRC, 8) == 0))){
 8001c50:	2dff      	cmp	r5, #255	@ 0xff
 8001c52:	d800      	bhi.n	8001c56 <Process_TIM16_Final_Start_Value_and_Final_Prescaler+0x62>
 8001c54:	e07f      	b.n	8001d56 <Process_TIM16_Final_Start_Value_and_Final_Prescaler+0x162>
 8001c56:	429d      	cmp	r5, r3
 8001c58:	d100      	bne.n	8001c5c <Process_TIM16_Final_Start_Value_and_Final_Prescaler+0x68>
 8001c5a:	e0db      	b.n	8001e14 <Process_TIM16_Final_Start_Value_and_Final_Prescaler+0x220>
				}
			}

			else if((manipulated_period_lengthen > 256) || ((manipulated_period_lengthen == 256) && (unsigned_bitwise_modulo(two_fifty_six_minus_TIM16_raw_start_value_multiplied_by_PRC, 8) > 0))){

				if(unsigned_bitwise_modulo(two_fifty_six_minus_TIM16_raw_start_value_multiplied_by_PRC, 8) == 128){
 8001c5c:	2108      	movs	r1, #8
 8001c5e:	0030      	movs	r0, r6
 8001c60:	f000 f948 	bl	8001ef4 <unsigned_bitwise_modulo>
 8001c64:	2880      	cmp	r0, #128	@ 0x80
 8001c66:	d100      	bne.n	8001c6a <Process_TIM16_Final_Start_Value_and_Final_Prescaler+0x76>
 8001c68:	e0c1      	b.n	8001dee <Process_TIM16_Final_Start_Value_and_Final_Prescaler+0x1fa>
							TIM16_final_start_value_oscillation_mode = OSCILLATE_UPWARDS;
							params_ptr->prescaler_adjust = MULTIPLY_BY_TWO;
						}
					}
				}
				else if(unsigned_bitwise_modulo(two_fifty_six_minus_TIM16_raw_start_value_multiplied_by_PRC, 8) == 0){
 8001c6a:	2108      	movs	r1, #8
 8001c6c:	0030      	movs	r0, r6
 8001c6e:	f000 f941 	bl	8001ef4 <unsigned_bitwise_modulo>
 8001c72:	2800      	cmp	r0, #0
 8001c74:	d040      	beq.n	8001cf8 <Process_TIM16_Final_Start_Value_and_Final_Prescaler+0x104>
							TIM16_final_start_value_oscillation_mode = OSCILLATE_UPWARDS;
							params_ptr->prescaler_adjust = MULTIPLY_BY_TWO;
						}
					}
				}
				else if(unsigned_bitwise_modulo(two_fifty_six_minus_TIM16_raw_start_value_multiplied_by_PRC, 8) < 128){
 8001c76:	2108      	movs	r1, #8
 8001c78:	0030      	movs	r0, r6
 8001c7a:	f000 f93b 	bl	8001ef4 <unsigned_bitwise_modulo>
 8001c7e:	287f      	cmp	r0, #127	@ 0x7f
 8001c80:	d93a      	bls.n	8001cf8 <Process_TIM16_Final_Start_Value_and_Final_Prescaler+0x104>
							TIM16_final_start_value_oscillation_mode = OSCILLATE_UPWARDS;
							params_ptr->prescaler_adjust = MULTIPLY_BY_TWO;
						}
					}
				}
				else if(unsigned_bitwise_modulo(two_fifty_six_minus_TIM16_raw_start_value_multiplied_by_PRC, 8) > 128){
 8001c82:	2108      	movs	r1, #8
 8001c84:	0030      	movs	r0, r6
 8001c86:	f000 f935 	bl	8001ef4 <unsigned_bitwise_modulo>
 8001c8a:	2880      	cmp	r0, #128	@ 0x80
 8001c8c:	d900      	bls.n	8001c90 <Process_TIM16_Final_Start_Value_and_Final_Prescaler+0x9c>
 8001c8e:	e0ae      	b.n	8001dee <Process_TIM16_Final_Start_Value_and_Final_Prescaler+0x1fa>
			}

	        //DETERMINE THE TIM16_FINAL_START_VALUE FROM MANIPULATED_PERIOD_LENGTHEN/SHORTEN CALCULATED
	        //NOTE INVERSE RELATIONSHIP BETWEEN TIM16_FINAL_START_VALUE AND MANIPULATED_PERIOD_LENGTHEN/SHORTEN BECAUSE 256-TIM16_FINAL_START_VALUE = MANIPULATED_PERIOD_LENGTHEN/SHORTEN
	        //ODD VALUES OF CURRENT_INDEX WILL FEATURE THE ADJUSTED(OSCILLATED) VALUE
	        if(symmetry_type_for_halfcycle == SHORTEN){
 8001c90:	2f00      	cmp	r7, #0
 8001c92:	d000      	beq.n	8001c96 <Process_TIM16_Final_Start_Value_and_Final_Prescaler+0xa2>
 8001c94:	e0a6      	b.n	8001de4 <Process_TIM16_Final_Start_Value_and_Final_Prescaler+0x1f0>

	            if(TIM16_final_start_value_oscillation_mode == DO_NOT_OSCILLATE){

	                params_ptr->final_start_value = 256 - manipulated_period_shorten;
 8001c96:	2380      	movs	r3, #128	@ 0x80
 8001c98:	4652      	mov	r2, sl
 8001c9a:	005b      	lsls	r3, r3, #1
 8001c9c:	1a9b      	subs	r3, r3, r2
 8001c9e:	b29b      	uxth	r3, r3
 8001ca0:	82a3      	strh	r3, [r4, #20]
    if(params_ptr->prescaler_adjust == MULTIPLY_BY_TWO){
 8001ca2:	2320      	movs	r3, #32
 8001ca4:	5ce2      	ldrb	r2, [r4, r3]
 8001ca6:	2a01      	cmp	r2, #1
 8001ca8:	d13b      	bne.n	8001d22 <Process_TIM16_Final_Start_Value_and_Final_Prescaler+0x12e>
    	params_ptr->final_prescaler = params_ptr->raw_prescaler << 1;
 8001caa:	8b63      	ldrh	r3, [r4, #26]
 8001cac:	005b      	lsls	r3, r3, #1
 8001cae:	b29b      	uxth	r3, r3
 8001cb0:	83a3      	strh	r3, [r4, #28]
 8001cb2:	e03c      	b.n	8001d2e <Process_TIM16_Final_Start_Value_and_Final_Prescaler+0x13a>
				if((params_ptr->halfcycle == FIRST_HALFCYCLE && params_ptr->quadrant == FIRST_QUADRANT) || (params_ptr->halfcycle == SECOND_HALFCYCLE && params_ptr->quadrant == SECOND_QUADRANT)){
 8001cb4:	7c23      	ldrb	r3, [r4, #16]
 8001cb6:	2b00      	cmp	r3, #0
 8001cb8:	d10a      	bne.n	8001cd0 <Process_TIM16_Final_Start_Value_and_Final_Prescaler+0xdc>
 8001cba:	7c63      	ldrb	r3, [r4, #17]
 8001cbc:	2b00      	cmp	r3, #0
 8001cbe:	d107      	bne.n	8001cd0 <Process_TIM16_Final_Start_Value_and_Final_Prescaler+0xdc>
					if(symmetry_status == CW){
 8001cc0:	2700      	movs	r7, #0
 8001cc2:	2a7f      	cmp	r2, #127	@ 0x7f
 8001cc4:	d800      	bhi.n	8001cc8 <Process_TIM16_Final_Start_Value_and_Final_Prescaler+0xd4>
 8001cc6:	e07d      	b.n	8001dc4 <Process_TIM16_Final_Start_Value_and_Final_Prescaler+0x1d0>
				pot_rotation_corrected = SYMMETRY_ADC_HALF_SCALE - 1 - (SYMMETRY_ADC_FULL_SCALE - params_ptr->symmetry);
 8001cc8:	89a2      	ldrh	r2, [r4, #12]
 8001cca:	3a80      	subs	r2, #128	@ 0x80
 8001ccc:	b2d2      	uxtb	r2, r2
 8001cce:	e7aa      	b.n	8001c26 <Process_TIM16_Final_Start_Value_and_Final_Prescaler+0x32>
				if((params_ptr->halfcycle == FIRST_HALFCYCLE && params_ptr->quadrant == FIRST_QUADRANT) || (params_ptr->halfcycle == SECOND_HALFCYCLE && params_ptr->quadrant == SECOND_QUADRANT)){
 8001cd0:	7c23      	ldrb	r3, [r4, #16]
 8001cd2:	2b01      	cmp	r3, #1
 8001cd4:	d05a      	beq.n	8001d8c <Process_TIM16_Final_Start_Value_and_Final_Prescaler+0x198>
				else if((params_ptr->halfcycle == FIRST_HALFCYCLE && params_ptr->quadrant == SECOND_QUADRANT) || (params_ptr->halfcycle == SECOND_HALFCYCLE && params_ptr->quadrant == FIRST_QUADRANT)){
 8001cd6:	7c23      	ldrb	r3, [r4, #16]
 8001cd8:	2b00      	cmp	r3, #0
 8001cda:	d102      	bne.n	8001ce2 <Process_TIM16_Final_Start_Value_and_Final_Prescaler+0xee>
 8001cdc:	7c63      	ldrb	r3, [r4, #17]
 8001cde:	2b01      	cmp	r3, #1
 8001ce0:	d005      	beq.n	8001cee <Process_TIM16_Final_Start_Value_and_Final_Prescaler+0xfa>
 8001ce2:	7c23      	ldrb	r3, [r4, #16]
 8001ce4:	2b01      	cmp	r3, #1
 8001ce6:	d197      	bne.n	8001c18 <Process_TIM16_Final_Start_Value_and_Final_Prescaler+0x24>
 8001ce8:	7c63      	ldrb	r3, [r4, #17]
 8001cea:	2b00      	cmp	r3, #0
 8001cec:	d194      	bne.n	8001c18 <Process_TIM16_Final_Start_Value_and_Final_Prescaler+0x24>
						symmetry_type_for_halfcycle = LENGTHEN;
 8001cee:	2701      	movs	r7, #1
					if(symmetry_status == CW){
 8001cf0:	2a7f      	cmp	r2, #127	@ 0x7f
 8001cf2:	d8e9      	bhi.n	8001cc8 <Process_TIM16_Final_Start_Value_and_Final_Prescaler+0xd4>
 8001cf4:	2700      	movs	r7, #0
 8001cf6:	e792      	b.n	8001c1e <Process_TIM16_Final_Start_Value_and_Final_Prescaler+0x2a>
					if(unsigned_bitwise_modulo(manipulated_period_lengthen, 1) == 0){
 8001cf8:	0028      	movs	r0, r5
 8001cfa:	2101      	movs	r1, #1
 8001cfc:	f000 f8fa 	bl	8001ef4 <unsigned_bitwise_modulo>
						manipulated_period_lengthen = manipulated_period_lengthen >> 1; //DONE
 8001d00:	086d      	lsrs	r5, r5, #1
							params_ptr->prescaler_adjust = DO_NOTHING;
 8001d02:	2320      	movs	r3, #32
					if(unsigned_bitwise_modulo(manipulated_period_lengthen, 1) == 0){
 8001d04:	2800      	cmp	r0, #0
 8001d06:	d145      	bne.n	8001d94 <Process_TIM16_Final_Start_Value_and_Final_Prescaler+0x1a0>
						if(symmetry_type_for_halfcycle == SHORTEN){
 8001d08:	2f00      	cmp	r7, #0
 8001d0a:	d100      	bne.n	8001d0e <Process_TIM16_Final_Start_Value_and_Final_Prescaler+0x11a>
 8001d0c:	e094      	b.n	8001e38 <Process_TIM16_Final_Start_Value_and_Final_Prescaler+0x244>
							params_ptr->prescaler_adjust = MULTIPLY_BY_TWO;
 8001d0e:	2201      	movs	r2, #1
 8001d10:	54e2      	strb	r2, [r4, r3]
	        }
	        else if(symmetry_type_for_halfcycle == LENGTHEN){

	            if(TIM16_final_start_value_oscillation_mode == DO_NOT_OSCILLATE){

	                params_ptr->final_start_value = 256 - manipulated_period_lengthen;
 8001d12:	33e0      	adds	r3, #224	@ 0xe0
 8001d14:	1b5b      	subs	r3, r3, r5
 8001d16:	b29b      	uxth	r3, r3

	                    params_ptr->final_start_value = 256 - manipulated_period_lengthen;
	                }
	                else{ //if current index is odd

	                    params_ptr->final_start_value = 256 - manipulated_period_lengthen - 1;
 8001d18:	82a3      	strh	r3, [r4, #20]
    if(params_ptr->prescaler_adjust == MULTIPLY_BY_TWO){
 8001d1a:	2320      	movs	r3, #32
 8001d1c:	5ce2      	ldrb	r2, [r4, r3]
 8001d1e:	2a01      	cmp	r2, #1
 8001d20:	d0c3      	beq.n	8001caa <Process_TIM16_Final_Start_Value_and_Final_Prescaler+0xb6>
    else if(params_ptr->prescaler_adjust == DO_NOTHING){
 8001d22:	5ce3      	ldrb	r3, [r4, r3]
 8001d24:	2b00      	cmp	r3, #0
 8001d26:	d102      	bne.n	8001d2e <Process_TIM16_Final_Start_Value_and_Final_Prescaler+0x13a>
    	params_ptr->final_prescaler = params_ptr->raw_prescaler;
 8001d28:	8b63      	ldrh	r3, [r4, #26]
 8001d2a:	b29b      	uxth	r3, r3
 8001d2c:	83a3      	strh	r3, [r4, #28]
		params_ptr->final_start_value = params_ptr->raw_start_value;
		params_ptr->prescaler_adjust = DO_NOTHING;
        Adjust_TIM16_Prescaler(params_ptr);
    #endif

    params_ptr->final_period = 256 - params_ptr->final_start_value;
 8001d2e:	2380      	movs	r3, #128	@ 0x80
 8001d30:	8aa2      	ldrh	r2, [r4, #20]
 8001d32:	005b      	lsls	r3, r3, #1
 8001d34:	1a9b      	subs	r3, r3, r2
 8001d36:	b29b      	uxth	r3, r3
 8001d38:	82e3      	strh	r3, [r4, #22]
    params_ptr->final_ARR = params_ptr->final_period - 1;
 8001d3a:	8ae3      	ldrh	r3, [r4, #22]
    params_ptr->final_prescaler_minus_one = params_ptr->final_prescaler - 1;

    return 1;
}
 8001d3c:	2001      	movs	r0, #1
    params_ptr->final_ARR = params_ptr->final_period - 1;
 8001d3e:	3b01      	subs	r3, #1
 8001d40:	b29b      	uxth	r3, r3
 8001d42:	8323      	strh	r3, [r4, #24]
    params_ptr->final_prescaler_minus_one = params_ptr->final_prescaler - 1;
 8001d44:	8ba3      	ldrh	r3, [r4, #28]
 8001d46:	3b01      	subs	r3, #1
 8001d48:	b29b      	uxth	r3, r3
 8001d4a:	83e3      	strh	r3, [r4, #30]
}
 8001d4c:	bce0      	pop	{r5, r6, r7}
 8001d4e:	46ba      	mov	sl, r7
 8001d50:	46b1      	mov	r9, r6
 8001d52:	46a8      	mov	r8, r5
 8001d54:	bdf0      	pop	{r4, r5, r6, r7, pc}
				if(unsigned_bitwise_modulo(two_fifty_six_minus_TIM16_raw_start_value_multiplied_by_PRC, 8) == 128){
 8001d56:	2108      	movs	r1, #8
 8001d58:	0030      	movs	r0, r6
 8001d5a:	f000 f8cb 	bl	8001ef4 <unsigned_bitwise_modulo>
 8001d5e:	2880      	cmp	r0, #128	@ 0x80
 8001d60:	d135      	bne.n	8001dce <Process_TIM16_Final_Start_Value_and_Final_Prescaler+0x1da>
					params_ptr->prescaler_adjust = DO_NOTHING;
 8001d62:	2320      	movs	r3, #32
					if(symmetry_type_for_halfcycle == SHORTEN){
 8001d64:	2f00      	cmp	r7, #0
 8001d66:	d12f      	bne.n	8001dc8 <Process_TIM16_Final_Start_Value_and_Final_Prescaler+0x1d4>
					params_ptr->prescaler_adjust = DO_NOTHING;
 8001d68:	54e7      	strb	r7, [r4, r3]
	                if(unsigned_bitwise_modulo(params_ptr->index, 1) == 0){ //if current index is even
 8001d6a:	89e0      	ldrh	r0, [r4, #14]
 8001d6c:	2101      	movs	r1, #1
 8001d6e:	b280      	uxth	r0, r0
 8001d70:	f000 f8c0 	bl	8001ef4 <unsigned_bitwise_modulo>
 8001d74:	4643      	mov	r3, r8
 8001d76:	3b01      	subs	r3, #1
 8001d78:	3bff      	subs	r3, #255	@ 0xff
 8001d7a:	444b      	add	r3, r9
 8001d7c:	b29b      	uxth	r3, r3
 8001d7e:	2800      	cmp	r0, #0
 8001d80:	d165      	bne.n	8001e4e <Process_TIM16_Final_Start_Value_and_Final_Prescaler+0x25a>
	                    params_ptr->final_start_value = 256 - manipulated_period_shorten;
 8001d82:	3301      	adds	r3, #1
 8001d84:	33ff      	adds	r3, #255	@ 0xff
 8001d86:	b29b      	uxth	r3, r3
 8001d88:	82a3      	strh	r3, [r4, #20]
 8001d8a:	e7c6      	b.n	8001d1a <Process_TIM16_Final_Start_Value_and_Final_Prescaler+0x126>
				if((params_ptr->halfcycle == FIRST_HALFCYCLE && params_ptr->quadrant == FIRST_QUADRANT) || (params_ptr->halfcycle == SECOND_HALFCYCLE && params_ptr->quadrant == SECOND_QUADRANT)){
 8001d8c:	7c63      	ldrb	r3, [r4, #17]
 8001d8e:	2b01      	cmp	r3, #1
 8001d90:	d1a1      	bne.n	8001cd6 <Process_TIM16_Final_Start_Value_and_Final_Prescaler+0xe2>
 8001d92:	e795      	b.n	8001cc0 <Process_TIM16_Final_Start_Value_and_Final_Prescaler+0xcc>
						if(symmetry_type_for_halfcycle == SHORTEN){
 8001d94:	2f00      	cmp	r7, #0
 8001d96:	d04f      	beq.n	8001e38 <Process_TIM16_Final_Start_Value_and_Final_Prescaler+0x244>
							params_ptr->prescaler_adjust = MULTIPLY_BY_TWO;
 8001d98:	2201      	movs	r2, #1
 8001d9a:	54e2      	strb	r2, [r4, r3]
	                if(unsigned_bitwise_modulo(params_ptr->index, 1) == 0){ //if current index is even
 8001d9c:	89e0      	ldrh	r0, [r4, #14]
 8001d9e:	2101      	movs	r1, #1
 8001da0:	b280      	uxth	r0, r0
 8001da2:	f000 f8a7 	bl	8001ef4 <unsigned_bitwise_modulo>
 8001da6:	2800      	cmp	r0, #0
 8001da8:	d16f      	bne.n	8001e8a <Process_TIM16_Final_Start_Value_and_Final_Prescaler+0x296>
	                    params_ptr->final_start_value = 256 - manipulated_period_lengthen;
 8001daa:	2380      	movs	r3, #128	@ 0x80
 8001dac:	005b      	lsls	r3, r3, #1
 8001dae:	1b5b      	subs	r3, r3, r5
 8001db0:	b29b      	uxth	r3, r3
 8001db2:	82a3      	strh	r3, [r4, #20]
 8001db4:	e7b1      	b.n	8001d1a <Process_TIM16_Final_Start_Value_and_Final_Prescaler+0x126>
				if(params_ptr->halfcycle == FIRST_HALFCYCLE){
 8001db6:	7c03      	ldrb	r3, [r0, #16]
 8001db8:	b2df      	uxtb	r7, r3
 8001dba:	2b00      	cmp	r3, #0
 8001dbc:	d197      	bne.n	8001cee <Process_TIM16_Final_Start_Value_and_Final_Prescaler+0xfa>
					if(symmetry_status == CW){
 8001dbe:	2a7f      	cmp	r2, #127	@ 0x7f
 8001dc0:	d900      	bls.n	8001dc4 <Process_TIM16_Final_Start_Value_and_Final_Prescaler+0x1d0>
 8001dc2:	e781      	b.n	8001cc8 <Process_TIM16_Final_Start_Value_and_Final_Prescaler+0xd4>
						symmetry_type_for_halfcycle = LENGTHEN;
 8001dc4:	2701      	movs	r7, #1
 8001dc6:	e72a      	b.n	8001c1e <Process_TIM16_Final_Start_Value_and_Final_Prescaler+0x2a>
					params_ptr->prescaler_adjust = DO_NOTHING;
 8001dc8:	2200      	movs	r2, #0
 8001dca:	54e2      	strb	r2, [r4, r3]
	        if(symmetry_type_for_halfcycle == SHORTEN){
 8001dcc:	e7e6      	b.n	8001d9c <Process_TIM16_Final_Start_Value_and_Final_Prescaler+0x1a8>
				else if(unsigned_bitwise_modulo(two_fifty_six_minus_TIM16_raw_start_value_multiplied_by_PRC, 8) == 0){
 8001dce:	2108      	movs	r1, #8
 8001dd0:	0030      	movs	r0, r6
 8001dd2:	f000 f88f 	bl	8001ef4 <unsigned_bitwise_modulo>
 8001dd6:	2800      	cmp	r0, #0
 8001dd8:	d13e      	bne.n	8001e58 <Process_TIM16_Final_Start_Value_and_Final_Prescaler+0x264>
					params_ptr->prescaler_adjust = DO_NOTHING;
 8001dda:	2320      	movs	r3, #32
 8001ddc:	54e0      	strb	r0, [r4, r3]
	        if(symmetry_type_for_halfcycle == SHORTEN){
 8001dde:	2f00      	cmp	r7, #0
 8001de0:	d100      	bne.n	8001de4 <Process_TIM16_Final_Start_Value_and_Final_Prescaler+0x1f0>
 8001de2:	e758      	b.n	8001c96 <Process_TIM16_Final_Start_Value_and_Final_Prescaler+0xa2>
	                params_ptr->final_start_value = 256 - manipulated_period_lengthen;
 8001de4:	2380      	movs	r3, #128	@ 0x80
 8001de6:	005b      	lsls	r3, r3, #1
 8001de8:	1b5b      	subs	r3, r3, r5
 8001dea:	b29b      	uxth	r3, r3
 8001dec:	e794      	b.n	8001d18 <Process_TIM16_Final_Start_Value_and_Final_Prescaler+0x124>
					manipulated_period_lengthen = manipulated_period_lengthen + 1; //DONE
 8001dee:	3501      	adds	r5, #1
 8001df0:	b2ad      	uxth	r5, r5
					if(unsigned_bitwise_modulo(manipulated_period_lengthen, 1) == 0){
 8001df2:	0028      	movs	r0, r5
 8001df4:	2101      	movs	r1, #1
 8001df6:	f000 f87d 	bl	8001ef4 <unsigned_bitwise_modulo>
						manipulated_period_lengthen = manipulated_period_lengthen >> 1; //DONE
 8001dfa:	086d      	lsrs	r5, r5, #1
							params_ptr->prescaler_adjust = DO_NOTHING;
 8001dfc:	2320      	movs	r3, #32
					if(unsigned_bitwise_modulo(manipulated_period_lengthen, 1) == 0){
 8001dfe:	2800      	cmp	r0, #0
 8001e00:	d122      	bne.n	8001e48 <Process_TIM16_Final_Start_Value_and_Final_Prescaler+0x254>
						if(symmetry_type_for_halfcycle == SHORTEN){
 8001e02:	2f00      	cmp	r7, #0
 8001e04:	d000      	beq.n	8001e08 <Process_TIM16_Final_Start_Value_and_Final_Prescaler+0x214>
 8001e06:	e782      	b.n	8001d0e <Process_TIM16_Final_Start_Value_and_Final_Prescaler+0x11a>
							params_ptr->prescaler_adjust = DO_NOTHING;
 8001e08:	54e7      	strb	r7, [r4, r3]
					manipulated_period_shorten = manipulated_period_shorten - 1; //DONE
 8001e0a:	4653      	mov	r3, sl
 8001e0c:	3b01      	subs	r3, #1
 8001e0e:	b29b      	uxth	r3, r3
 8001e10:	469a      	mov	sl, r3
 8001e12:	e740      	b.n	8001c96 <Process_TIM16_Final_Start_Value_and_Final_Prescaler+0xa2>
			if((manipulated_period_lengthen < 256) || ((manipulated_period_lengthen == 256) && (unsigned_bitwise_modulo(two_fifty_six_minus_TIM16_raw_start_value_multiplied_by_PRC, 8) == 0))){
 8001e14:	2108      	movs	r1, #8
 8001e16:	0030      	movs	r0, r6
 8001e18:	f000 f86c 	bl	8001ef4 <unsigned_bitwise_modulo>
 8001e1c:	2800      	cmp	r0, #0
 8001e1e:	d09a      	beq.n	8001d56 <Process_TIM16_Final_Start_Value_and_Final_Prescaler+0x162>
			else if((manipulated_period_lengthen > 256) || ((manipulated_period_lengthen == 256) && (unsigned_bitwise_modulo(two_fifty_six_minus_TIM16_raw_start_value_multiplied_by_PRC, 8) > 0))){
 8001e20:	2108      	movs	r1, #8
 8001e22:	0030      	movs	r0, r6
 8001e24:	f000 f866 	bl	8001ef4 <unsigned_bitwise_modulo>
 8001e28:	2800      	cmp	r0, #0
 8001e2a:	d000      	beq.n	8001e2e <Process_TIM16_Final_Start_Value_and_Final_Prescaler+0x23a>
 8001e2c:	e716      	b.n	8001c5c <Process_TIM16_Final_Start_Value_and_Final_Prescaler+0x68>
	        if(symmetry_type_for_halfcycle == SHORTEN){
 8001e2e:	2300      	movs	r3, #0
 8001e30:	2f00      	cmp	r7, #0
 8001e32:	d000      	beq.n	8001e36 <Process_TIM16_Final_Start_Value_and_Final_Prescaler+0x242>
 8001e34:	e770      	b.n	8001d18 <Process_TIM16_Final_Start_Value_and_Final_Prescaler+0x124>
 8001e36:	e72e      	b.n	8001c96 <Process_TIM16_Final_Start_Value_and_Final_Prescaler+0xa2>
							params_ptr->prescaler_adjust = DO_NOTHING;
 8001e38:	54e7      	strb	r7, [r4, r3]
	                params_ptr->final_start_value = 256 - manipulated_period_shorten;
 8001e3a:	2380      	movs	r3, #128	@ 0x80
 8001e3c:	4652      	mov	r2, sl
 8001e3e:	005b      	lsls	r3, r3, #1
 8001e40:	1a9b      	subs	r3, r3, r2
 8001e42:	b29b      	uxth	r3, r3
 8001e44:	82a3      	strh	r3, [r4, #20]
 8001e46:	e72c      	b.n	8001ca2 <Process_TIM16_Final_Start_Value_and_Final_Prescaler+0xae>
						if(symmetry_type_for_halfcycle == SHORTEN){
 8001e48:	2f00      	cmp	r7, #0
 8001e4a:	d1a5      	bne.n	8001d98 <Process_TIM16_Final_Start_Value_and_Final_Prescaler+0x1a4>
 8001e4c:	e7dc      	b.n	8001e08 <Process_TIM16_Final_Start_Value_and_Final_Prescaler+0x214>
	                    params_ptr->final_start_value = 256 - manipulated_period_shorten + 1;
 8001e4e:	3302      	adds	r3, #2
 8001e50:	33ff      	adds	r3, #255	@ 0xff
 8001e52:	b29b      	uxth	r3, r3
 8001e54:	82a3      	strh	r3, [r4, #20]
 8001e56:	e760      	b.n	8001d1a <Process_TIM16_Final_Start_Value_and_Final_Prescaler+0x126>
				else if(unsigned_bitwise_modulo(two_fifty_six_minus_TIM16_raw_start_value_multiplied_by_PRC, 8) < 128){
 8001e58:	2108      	movs	r1, #8
 8001e5a:	0030      	movs	r0, r6
 8001e5c:	f000 f84a 	bl	8001ef4 <unsigned_bitwise_modulo>
 8001e60:	287f      	cmp	r0, #127	@ 0x7f
 8001e62:	d806      	bhi.n	8001e72 <Process_TIM16_Final_Start_Value_and_Final_Prescaler+0x27e>
					params_ptr->prescaler_adjust = DO_NOTHING;
 8001e64:	2320      	movs	r3, #32
 8001e66:	2200      	movs	r2, #0
 8001e68:	54e2      	strb	r2, [r4, r3]
	        if(symmetry_type_for_halfcycle == SHORTEN){
 8001e6a:	2f00      	cmp	r7, #0
 8001e6c:	d100      	bne.n	8001e70 <Process_TIM16_Final_Start_Value_and_Final_Prescaler+0x27c>
 8001e6e:	e712      	b.n	8001c96 <Process_TIM16_Final_Start_Value_and_Final_Prescaler+0xa2>
 8001e70:	e74f      	b.n	8001d12 <Process_TIM16_Final_Start_Value_and_Final_Prescaler+0x11e>
				else if(unsigned_bitwise_modulo(two_fifty_six_minus_TIM16_raw_start_value_multiplied_by_PRC, 8) > 128){
 8001e72:	2108      	movs	r1, #8
 8001e74:	0030      	movs	r0, r6
 8001e76:	f000 f83d 	bl	8001ef4 <unsigned_bitwise_modulo>
 8001e7a:	2880      	cmp	r0, #128	@ 0x80
 8001e7c:	d800      	bhi.n	8001e80 <Process_TIM16_Final_Start_Value_and_Final_Prescaler+0x28c>
 8001e7e:	e707      	b.n	8001c90 <Process_TIM16_Final_Start_Value_and_Final_Prescaler+0x9c>
					params_ptr->prescaler_adjust = DO_NOTHING;
 8001e80:	2320      	movs	r3, #32
 8001e82:	2200      	movs	r2, #0
 8001e84:	54e2      	strb	r2, [r4, r3]
	        if(symmetry_type_for_halfcycle == SHORTEN){
 8001e86:	2f00      	cmp	r7, #0
 8001e88:	d0bf      	beq.n	8001e0a <Process_TIM16_Final_Start_Value_and_Final_Prescaler+0x216>
	                    params_ptr->final_start_value = 256 - manipulated_period_lengthen - 1;
 8001e8a:	23ff      	movs	r3, #255	@ 0xff
 8001e8c:	1b5b      	subs	r3, r3, r5
 8001e8e:	b29b      	uxth	r3, r3
 8001e90:	e742      	b.n	8001d18 <Process_TIM16_Final_Start_Value_and_Final_Prescaler+0x124>
 8001e92:	46c0      	nop			@ (mov r8, r8)

08001e94 <SystemInit>:
{
  /* Configure the Vector Table location -------------------------------------*/
#if defined(USER_VECT_TAB_ADDRESS)
  SCB->VTOR = VECT_TAB_BASE_ADDRESS | VECT_TAB_OFFSET; /* Vector Table Relocation */
#endif /* USER_VECT_TAB_ADDRESS */
}
 8001e94:	4770      	bx	lr
 8001e96:	46c0      	nop			@ (mov r8, r8)

08001e98 <Start_OC_TIM>:
//INCLUDES
#include "timers.h"

//FUNCTION DEFINITIONS
uint8_t Start_OC_TIM(TIM_HandleTypeDef *TIM, uint32_t OC_TIM_channel){
 8001e98:	b510      	push	{r4, lr}

	uint8_t ok = HAL_TIM_OC_Start_IT(TIM, OC_TIM_channel); //_IT variant of function
 8001e9a:	f002 fa85 	bl	80043a8 <HAL_TIM_OC_Start_IT>
 8001e9e:	1e04      	subs	r4, r0, #0
	//means the timer will generate an interrupt on delay_elapsed (CNT = CCR) condition

	if(ok != HAL_OK){
 8001ea0:	d101      	bne.n	8001ea6 <Start_OC_TIM+0xe>

		Error_Handler();
	}

	return ok;
}
 8001ea2:	0020      	movs	r0, r4
 8001ea4:	bd10      	pop	{r4, pc}
		Error_Handler();
 8001ea6:	f7fe fefb 	bl	8000ca0 <Error_Handler>
 8001eaa:	e7fa      	b.n	8001ea2 <Start_OC_TIM+0xa>

08001eac <Stop_OC_TIM>:

uint8_t Stop_OC_TIM(TIM_HandleTypeDef *TIM, uint32_t OC_TIM_channel){
 8001eac:	b510      	push	{r4, lr}

	uint8_t ok = HAL_TIM_OC_Stop_IT(TIM, OC_TIM_channel);
 8001eae:	f002 fafd 	bl	80044ac <HAL_TIM_OC_Stop_IT>
 8001eb2:	1e04      	subs	r4, r0, #0

	if(ok != HAL_OK){
 8001eb4:	d101      	bne.n	8001eba <Stop_OC_TIM+0xe>

		Error_Handler();
	}

	return ok;
}
 8001eb6:	0020      	movs	r0, r4
 8001eb8:	bd10      	pop	{r4, pc}
		Error_Handler();
 8001eba:	f7fe fef1 	bl	8000ca0 <Error_Handler>
 8001ebe:	e7fa      	b.n	8001eb6 <Stop_OC_TIM+0xa>

08001ec0 <isPrime>:
#include "utility.h"

enum Validate isPrime(uint16_t x){
 8001ec0:	b570      	push	{r4, r5, r6, lr}
 8001ec2:	0005      	movs	r5, r0
    for (uint16_t d = 2; d * d <= x; d++) {
 8001ec4:	2803      	cmp	r0, #3
 8001ec6:	d910      	bls.n	8001eea <isPrime+0x2a>
        if (x % d == 0)
 8001ec8:	07c3      	lsls	r3, r0, #31
 8001eca:	d510      	bpl.n	8001eee <isPrime+0x2e>
    for (uint16_t d = 2; d * d <= x; d++) {
 8001ecc:	2402      	movs	r4, #2
 8001ece:	e006      	b.n	8001ede <isPrime+0x1e>
        if (x % d == 0)
 8001ed0:	0021      	movs	r1, r4
 8001ed2:	0028      	movs	r0, r5
 8001ed4:	f7fe f99c 	bl	8000210 <__aeabi_uidivmod>
 8001ed8:	b289      	uxth	r1, r1
 8001eda:	2900      	cmp	r1, #0
 8001edc:	d007      	beq.n	8001eee <isPrime+0x2e>
    for (uint16_t d = 2; d * d <= x; d++) {
 8001ede:	3401      	adds	r4, #1
 8001ee0:	b2a4      	uxth	r4, r4
 8001ee2:	0023      	movs	r3, r4
 8001ee4:	4363      	muls	r3, r4
 8001ee6:	42ab      	cmp	r3, r5
 8001ee8:	ddf2      	ble.n	8001ed0 <isPrime+0x10>
            return NO;
    }
    return YES;
 8001eea:	2001      	movs	r0, #1
}
 8001eec:	bd70      	pop	{r4, r5, r6, pc}
            return NO;
 8001eee:	2000      	movs	r0, #0
 8001ef0:	e7fc      	b.n	8001eec <isPrime+0x2c>
 8001ef2:	46c0      	nop			@ (mov r8, r8)

08001ef4 <unsigned_bitwise_modulo>:

uint32_t unsigned_bitwise_modulo(uint32_t dividend, uint8_t base_2_exponent){

    return dividend & ((1 << base_2_exponent) - 1);
 8001ef4:	2301      	movs	r3, #1
 8001ef6:	408b      	lsls	r3, r1
 8001ef8:	3b01      	subs	r3, #1
 8001efa:	4018      	ands	r0, r3
}
 8001efc:	4770      	bx	lr
 8001efe:	46c0      	nop			@ (mov r8, r8)

08001f00 <Global_Interrupt_Enable>:
  __ASM volatile ("cpsie i" : : : "memory");
 8001f00:	b662      	cpsie	i

uint8_t Global_Interrupt_Enable(void){

	__enable_irq();
	return 1;
}
 8001f02:	2001      	movs	r0, #1
 8001f04:	4770      	bx	lr
 8001f06:	46c0      	nop			@ (mov r8, r8)

08001f08 <Get_Status_Bit>:
	return 1;
}

enum Validate Get_Status_Bit(volatile uint32_t *bits, enum Status_Bit bit){

    if(*bits & bit){
 8001f08:	6800      	ldr	r0, [r0, #0]
 8001f0a:	4008      	ands	r0, r1
 8001f0c:	1e43      	subs	r3, r0, #1
 8001f0e:	4198      	sbcs	r0, r3

    else{

        return (enum Validate) NO;
    }
}
 8001f10:	b2c0      	uxtb	r0, r0
 8001f12:	4770      	bx	lr

08001f14 <Set_Status_Bit>:

void Set_Status_Bit(volatile uint32_t *bits, enum Status_Bit bit){

	*bits |= bit;
 8001f14:	6803      	ldr	r3, [r0, #0]
 8001f16:	4319      	orrs	r1, r3
 8001f18:	6001      	str	r1, [r0, #0]
}
 8001f1a:	4770      	bx	lr

08001f1c <Clear_Status_Bit>:

void Clear_Status_Bit(volatile uint32_t *bits, enum Status_Bit bit){

	*bits &= ~bit;
 8001f1c:	6803      	ldr	r3, [r0, #0]
 8001f1e:	438b      	bics	r3, r1
 8001f20:	6003      	str	r3, [r0, #0]
}
 8001f22:	4770      	bx	lr

08001f24 <Reset_Handler>:

  .section .text.Reset_Handler
  .weak Reset_Handler
  .type Reset_Handler, %function
Reset_Handler:
  ldr   r0, =_estack
 8001f24:	480d      	ldr	r0, [pc, #52]	@ (8001f5c <LoopForever+0x2>)
  mov   sp, r0          /* set stack pointer */
 8001f26:	4685      	mov	sp, r0

/* Call the clock system initialization function.*/
  bl  SystemInit
 8001f28:	f7ff ffb4 	bl	8001e94 <SystemInit>

/* Copy the data segment initializers from flash to SRAM */
  ldr r0, =_sdata
 8001f2c:	480c      	ldr	r0, [pc, #48]	@ (8001f60 <LoopForever+0x6>)
  ldr r1, =_edata
 8001f2e:	490d      	ldr	r1, [pc, #52]	@ (8001f64 <LoopForever+0xa>)
  ldr r2, =_sidata
 8001f30:	4a0d      	ldr	r2, [pc, #52]	@ (8001f68 <LoopForever+0xe>)
  movs r3, #0
 8001f32:	2300      	movs	r3, #0
  b LoopCopyDataInit
 8001f34:	e002      	b.n	8001f3c <LoopCopyDataInit>

08001f36 <CopyDataInit>:

CopyDataInit:
  ldr r4, [r2, r3]
 8001f36:	58d4      	ldr	r4, [r2, r3]
  str r4, [r0, r3]
 8001f38:	50c4      	str	r4, [r0, r3]
  adds r3, r3, #4
 8001f3a:	3304      	adds	r3, #4

08001f3c <LoopCopyDataInit>:

LoopCopyDataInit:
  adds r4, r0, r3
 8001f3c:	18c4      	adds	r4, r0, r3
  cmp r4, r1
 8001f3e:	428c      	cmp	r4, r1
  bcc CopyDataInit
 8001f40:	d3f9      	bcc.n	8001f36 <CopyDataInit>

/* Zero fill the bss segment. */
  ldr r2, =_sbss
 8001f42:	4a0a      	ldr	r2, [pc, #40]	@ (8001f6c <LoopForever+0x12>)
  ldr r4, =_ebss
 8001f44:	4c0a      	ldr	r4, [pc, #40]	@ (8001f70 <LoopForever+0x16>)
  movs r3, #0
 8001f46:	2300      	movs	r3, #0
  b LoopFillZerobss
 8001f48:	e001      	b.n	8001f4e <LoopFillZerobss>

08001f4a <FillZerobss>:

FillZerobss:
  str  r3, [r2]
 8001f4a:	6013      	str	r3, [r2, #0]
  adds r2, r2, #4
 8001f4c:	3204      	adds	r2, #4

08001f4e <LoopFillZerobss>:

LoopFillZerobss:
  cmp r2, r4
 8001f4e:	42a2      	cmp	r2, r4
  bcc FillZerobss
 8001f50:	d3fb      	bcc.n	8001f4a <FillZerobss>

/* Call static constructors */
  bl __libc_init_array
 8001f52:	f004 fb7b 	bl	800664c <__libc_init_array>
/* Call the application s entry point.*/
  bl main
 8001f56:	f7ff f99b 	bl	8001290 <main>

08001f5a <LoopForever>:

LoopForever:
  b LoopForever
 8001f5a:	e7fe      	b.n	8001f5a <LoopForever>
  ldr   r0, =_estack
 8001f5c:	20002000 	.word	0x20002000
  ldr r0, =_sdata
 8001f60:	20000000 	.word	0x20000000
  ldr r1, =_edata
 8001f64:	20000418 	.word	0x20000418
  ldr r2, =_sidata
 8001f68:	08007220 	.word	0x08007220
  ldr r2, =_sbss
 8001f6c:	20000418 	.word	0x20000418
  ldr r4, =_ebss
 8001f70:	20000bf8 	.word	0x20000bf8

08001f74 <ADC1_IRQHandler>:
 * @retval None
*/
  .section .text.Default_Handler,"ax",%progbits
Default_Handler:
Infinite_Loop:
  b Infinite_Loop
 8001f74:	e7fe      	b.n	8001f74 <ADC1_IRQHandler>
	...

08001f78 <HAL_InitTick>:
  *       implementation  in user file.
  * @param TickPriority Tick interrupt priority.
  * @retval HAL status
  */
__weak HAL_StatusTypeDef HAL_InitTick(uint32_t TickPriority)
{
 8001f78:	b570      	push	{r4, r5, r6, lr}
  HAL_StatusTypeDef  status = HAL_OK;

  /* Check uwTickFreq for MisraC 2012 (even if uwTickFreq is a enum type that doesn't take the value zero)*/ 
  if ((uint32_t)uwTickFreq != 0U)
 8001f7a:	4b0f      	ldr	r3, [pc, #60]	@ (8001fb8 <HAL_InitTick+0x40>)
{
 8001f7c:	0004      	movs	r4, r0
  if ((uint32_t)uwTickFreq != 0U)
 8001f7e:	7819      	ldrb	r1, [r3, #0]
 8001f80:	2900      	cmp	r1, #0
 8001f82:	d101      	bne.n	8001f88 <HAL_InitTick+0x10>
        status = HAL_ERROR;
      }
    }
    else
    {
      status = HAL_ERROR;
 8001f84:	2001      	movs	r0, #1
    status = HAL_ERROR;
  }

  /* Return function status */
  return status;
}
 8001f86:	bd70      	pop	{r4, r5, r6, pc}
    if (HAL_SYSTICK_Config(SystemCoreClock / (1000U /(uint32_t)uwTickFreq)) == 0U)
 8001f88:	20fa      	movs	r0, #250	@ 0xfa
 8001f8a:	0080      	lsls	r0, r0, #2
 8001f8c:	f7fe f8ba 	bl	8000104 <__udivsi3>
 8001f90:	4d0a      	ldr	r5, [pc, #40]	@ (8001fbc <HAL_InitTick+0x44>)
 8001f92:	0001      	movs	r1, r0
 8001f94:	6828      	ldr	r0, [r5, #0]
 8001f96:	f7fe f8b5 	bl	8000104 <__udivsi3>
 8001f9a:	f000 fdef 	bl	8002b7c <HAL_SYSTICK_Config>
 8001f9e:	2800      	cmp	r0, #0
 8001fa0:	d1f0      	bne.n	8001f84 <HAL_InitTick+0xc>
      if (TickPriority < (1UL << __NVIC_PRIO_BITS))
 8001fa2:	2c03      	cmp	r4, #3
 8001fa4:	d8ee      	bhi.n	8001f84 <HAL_InitTick+0xc>
        HAL_NVIC_SetPriority(SysTick_IRQn, TickPriority, 0U);
 8001fa6:	3801      	subs	r0, #1
 8001fa8:	2200      	movs	r2, #0
 8001faa:	0021      	movs	r1, r4
 8001fac:	f000 fda0 	bl	8002af0 <HAL_NVIC_SetPriority>
        uwTickPrio = TickPriority;
 8001fb0:	4b03      	ldr	r3, [pc, #12]	@ (8001fc0 <HAL_InitTick+0x48>)
 8001fb2:	2000      	movs	r0, #0
 8001fb4:	601c      	str	r4, [r3, #0]
  return status;
 8001fb6:	e7e6      	b.n	8001f86 <HAL_InitTick+0xe>
 8001fb8:	20000410 	.word	0x20000410
 8001fbc:	2000040c 	.word	0x2000040c
 8001fc0:	20000414 	.word	0x20000414

08001fc4 <HAL_Init>:
  __HAL_FLASH_PREFETCH_BUFFER_ENABLE();
 8001fc4:	2380      	movs	r3, #128	@ 0x80
 8001fc6:	4a08      	ldr	r2, [pc, #32]	@ (8001fe8 <HAL_Init+0x24>)
 8001fc8:	005b      	lsls	r3, r3, #1
 8001fca:	6811      	ldr	r1, [r2, #0]
{
 8001fcc:	b510      	push	{r4, lr}
  __HAL_FLASH_PREFETCH_BUFFER_ENABLE();
 8001fce:	430b      	orrs	r3, r1
  if (HAL_InitTick(TICK_INT_PRIORITY) != HAL_OK)
 8001fd0:	2000      	movs	r0, #0
  __HAL_FLASH_PREFETCH_BUFFER_ENABLE();
 8001fd2:	6013      	str	r3, [r2, #0]
  if (HAL_InitTick(TICK_INT_PRIORITY) != HAL_OK)
 8001fd4:	f7ff ffd0 	bl	8001f78 <HAL_InitTick>
 8001fd8:	1e04      	subs	r4, r0, #0
 8001fda:	d002      	beq.n	8001fe2 <HAL_Init+0x1e>
    status = HAL_ERROR;
 8001fdc:	2401      	movs	r4, #1
}
 8001fde:	0020      	movs	r0, r4
 8001fe0:	bd10      	pop	{r4, pc}
  HAL_MspInit();
 8001fe2:	f7ff fb5d 	bl	80016a0 <HAL_MspInit>
 8001fe6:	e7fa      	b.n	8001fde <HAL_Init+0x1a>
 8001fe8:	40022000 	.word	0x40022000

08001fec <HAL_IncTick>:
  *      implementations in user file.
  * @retval None
  */
__weak void HAL_IncTick(void)
{
  uwTick += (uint32_t)uwTickFreq;
 8001fec:	4a03      	ldr	r2, [pc, #12]	@ (8001ffc <HAL_IncTick+0x10>)
 8001fee:	4b04      	ldr	r3, [pc, #16]	@ (8002000 <HAL_IncTick+0x14>)
 8001ff0:	6811      	ldr	r1, [r2, #0]
 8001ff2:	781b      	ldrb	r3, [r3, #0]
 8001ff4:	185b      	adds	r3, r3, r1
 8001ff6:	6013      	str	r3, [r2, #0]
}
 8001ff8:	4770      	bx	lr
 8001ffa:	46c0      	nop			@ (mov r8, r8)
 8001ffc:	20000bf4 	.word	0x20000bf4
 8002000:	20000410 	.word	0x20000410

08002004 <HAL_GetTick>:
  *       implementations in user file.
  * @retval tick value
  */
__weak uint32_t HAL_GetTick(void)
{
  return uwTick;
 8002004:	4b01      	ldr	r3, [pc, #4]	@ (800200c <HAL_GetTick+0x8>)
 8002006:	6818      	ldr	r0, [r3, #0]
}
 8002008:	4770      	bx	lr
 800200a:	46c0      	nop			@ (mov r8, r8)
 800200c:	20000bf4 	.word	0x20000bf4

08002010 <ADC_DMAConvCplt>:
{
  /* Retrieve ADC handle corresponding to current DMA handle */
  ADC_HandleTypeDef *hadc = (ADC_HandleTypeDef *)((DMA_HandleTypeDef *)hdma)->Parent;

  /* Update state machine on conversion status if not in error state */
  if ((hadc->State & (HAL_ADC_STATE_ERROR_INTERNAL | HAL_ADC_STATE_ERROR_DMA)) == 0UL)
 8002010:	2150      	movs	r1, #80	@ 0x50
{
 8002012:	0003      	movs	r3, r0
  ADC_HandleTypeDef *hadc = (ADC_HandleTypeDef *)((DMA_HandleTypeDef *)hdma)->Parent;
 8002014:	6a80      	ldr	r0, [r0, #40]	@ 0x28
{
 8002016:	b510      	push	{r4, lr}
  if ((hadc->State & (HAL_ADC_STATE_ERROR_INTERNAL | HAL_ADC_STATE_ERROR_DMA)) == 0UL)
 8002018:	6d82      	ldr	r2, [r0, #88]	@ 0x58
 800201a:	4211      	tst	r1, r2
 800201c:	d10d      	bne.n	800203a <ADC_DMAConvCplt+0x2a>
  {
    /* Set ADC state */
    SET_BIT(hadc->State, HAL_ADC_STATE_REG_EOC);
 800201e:	2380      	movs	r3, #128	@ 0x80
 8002020:	6d82      	ldr	r2, [r0, #88]	@ 0x58
 8002022:	009b      	lsls	r3, r3, #2
 8002024:	4313      	orrs	r3, r2
  * @retval Value "0" if trigger source external trigger
  *         Value "1" if trigger source SW start.
  */
__STATIC_INLINE uint32_t LL_ADC_REG_IsTriggerSourceSWStart(const ADC_TypeDef *ADCx)
{
  return ((READ_BIT(ADCx->CFGR1, ADC_CFGR1_EXTEN) == (LL_ADC_REG_TRIG_SOFTWARE & ADC_CFGR1_EXTEN)) ? 1UL : 0UL);
 8002026:	22c0      	movs	r2, #192	@ 0xc0
 8002028:	6583      	str	r3, [r0, #88]	@ 0x58

    /* Determine whether any further conversion upcoming on group regular     */
    /* by external trigger, continuous mode or scan sequence on going         */
    /* to disable interruption.                                               */
    if ((LL_ADC_REG_IsTriggerSourceSWStart(hadc->Instance) != 0UL)
 800202a:	6803      	ldr	r3, [r0, #0]
 800202c:	0112      	lsls	r2, r2, #4
 800202e:	68d9      	ldr	r1, [r3, #12]
 8002030:	4211      	tst	r1, r2
 8002032:	d00d      	beq.n	8002050 <ADC_DMAConvCplt+0x40>
      }
    }

    /* Conversion complete callback */
#if (USE_HAL_ADC_REGISTER_CALLBACKS == 1)
    hadc->ConvCpltCallback(hadc);
 8002034:	6e43      	ldr	r3, [r0, #100]	@ 0x64
 8002036:	4798      	blx	r3
    {
      /* Call ADC DMA error callback */
      hadc->DMA_Handle->XferErrorCallback(hdma);
    }
  }
}
 8002038:	bd10      	pop	{r4, pc}
    if ((hadc->State & HAL_ADC_STATE_ERROR_INTERNAL) != 0UL)
 800203a:	6d82      	ldr	r2, [r0, #88]	@ 0x58
 800203c:	06d2      	lsls	r2, r2, #27
 800203e:	d502      	bpl.n	8002046 <ADC_DMAConvCplt+0x36>
      hadc->ErrorCallback(hadc);
 8002040:	6f03      	ldr	r3, [r0, #112]	@ 0x70
 8002042:	4798      	blx	r3
 8002044:	e7f8      	b.n	8002038 <ADC_DMAConvCplt+0x28>
      hadc->DMA_Handle->XferErrorCallback(hdma);
 8002046:	6d02      	ldr	r2, [r0, #80]	@ 0x50
 8002048:	0018      	movs	r0, r3
 800204a:	6b52      	ldr	r2, [r2, #52]	@ 0x34
 800204c:	4790      	blx	r2
}
 800204e:	e7f3      	b.n	8002038 <ADC_DMAConvCplt+0x28>
        && (hadc->Init.ContinuousConvMode == DISABLE)
 8002050:	7e82      	ldrb	r2, [r0, #26]
 8002052:	2a00      	cmp	r2, #0
 8002054:	d1ee      	bne.n	8002034 <ADC_DMAConvCplt+0x24>
      if (__HAL_ADC_GET_FLAG(hadc, ADC_FLAG_EOS))
 8002056:	681a      	ldr	r2, [r3, #0]
 8002058:	0712      	lsls	r2, r2, #28
 800205a:	d5eb      	bpl.n	8002034 <ADC_DMAConvCplt+0x24>
  * @param  ADCx ADC instance
  * @retval 0: no conversion is on going on ADC group regular.
  */
__STATIC_INLINE uint32_t LL_ADC_REG_IsConversionOngoing(const ADC_TypeDef *ADCx)
{
  return ((READ_BIT(ADCx->CR, ADC_CR_ADSTART) == (ADC_CR_ADSTART)) ? 1UL : 0UL);
 800205c:	689a      	ldr	r2, [r3, #8]
 800205e:	0752      	lsls	r2, r2, #29
 8002060:	d508      	bpl.n	8002074 <ADC_DMAConvCplt+0x64>
          SET_BIT(hadc->State, HAL_ADC_STATE_ERROR_CONFIG);
 8002062:	2220      	movs	r2, #32
 8002064:	6d83      	ldr	r3, [r0, #88]	@ 0x58
 8002066:	4313      	orrs	r3, r2
 8002068:	6583      	str	r3, [r0, #88]	@ 0x58
          SET_BIT(hadc->ErrorCode, HAL_ADC_ERROR_INTERNAL);
 800206a:	6dc3      	ldr	r3, [r0, #92]	@ 0x5c
 800206c:	3a1f      	subs	r2, #31
 800206e:	4313      	orrs	r3, r2
 8002070:	65c3      	str	r3, [r0, #92]	@ 0x5c
 8002072:	e7df      	b.n	8002034 <ADC_DMAConvCplt+0x24>
          __HAL_ADC_DISABLE_IT(hadc, ADC_IT_EOC | ADC_IT_EOS);
 8002074:	210c      	movs	r1, #12
 8002076:	685a      	ldr	r2, [r3, #4]
 8002078:	438a      	bics	r2, r1
 800207a:	605a      	str	r2, [r3, #4]
          ADC_STATE_CLR_SET(hadc->State,
 800207c:	6d83      	ldr	r3, [r0, #88]	@ 0x58
 800207e:	4a03      	ldr	r2, [pc, #12]	@ (800208c <ADC_DMAConvCplt+0x7c>)
 8002080:	4013      	ands	r3, r2
 8002082:	3204      	adds	r2, #4
 8002084:	32ff      	adds	r2, #255	@ 0xff
 8002086:	4313      	orrs	r3, r2
 8002088:	6583      	str	r3, [r0, #88]	@ 0x58
 800208a:	e7d3      	b.n	8002034 <ADC_DMAConvCplt+0x24>
 800208c:	fffffefe 	.word	0xfffffefe

08002090 <ADC_DMAHalfConvCplt>:
  * @brief  DMA half transfer complete callback.
  * @param hdma pointer to DMA handle.
  * @retval None
  */
static void ADC_DMAHalfConvCplt(DMA_HandleTypeDef *hdma)
{
 8002090:	b510      	push	{r4, lr}
  /* Retrieve ADC handle corresponding to current DMA handle */
  ADC_HandleTypeDef *hadc = (ADC_HandleTypeDef *)((DMA_HandleTypeDef *)hdma)->Parent;
 8002092:	6a80      	ldr	r0, [r0, #40]	@ 0x28

  /* Half conversion callback */
#if (USE_HAL_ADC_REGISTER_CALLBACKS == 1)
  hadc->ConvHalfCpltCallback(hadc);
 8002094:	6e83      	ldr	r3, [r0, #104]	@ 0x68
 8002096:	4798      	blx	r3
#else
  HAL_ADC_ConvHalfCpltCallback(hadc);
#endif /* USE_HAL_ADC_REGISTER_CALLBACKS */
}
 8002098:	bd10      	pop	{r4, pc}
 800209a:	46c0      	nop			@ (mov r8, r8)

0800209c <ADC_DMAError>:
{
  /* Retrieve ADC handle corresponding to current DMA handle */
  ADC_HandleTypeDef *hadc = (ADC_HandleTypeDef *)((DMA_HandleTypeDef *)hdma)->Parent;

  /* Set ADC state */
  SET_BIT(hadc->State, HAL_ADC_STATE_ERROR_DMA);
 800209c:	2240      	movs	r2, #64	@ 0x40
  ADC_HandleTypeDef *hadc = (ADC_HandleTypeDef *)((DMA_HandleTypeDef *)hdma)->Parent;
 800209e:	6a80      	ldr	r0, [r0, #40]	@ 0x28
{
 80020a0:	b510      	push	{r4, lr}
  SET_BIT(hadc->State, HAL_ADC_STATE_ERROR_DMA);
 80020a2:	6d83      	ldr	r3, [r0, #88]	@ 0x58
 80020a4:	4313      	orrs	r3, r2
 80020a6:	6583      	str	r3, [r0, #88]	@ 0x58

  /* Set ADC error code to DMA error */
  SET_BIT(hadc->ErrorCode, HAL_ADC_ERROR_DMA);
 80020a8:	6dc3      	ldr	r3, [r0, #92]	@ 0x5c
 80020aa:	3a3c      	subs	r2, #60	@ 0x3c
 80020ac:	4313      	orrs	r3, r2
 80020ae:	65c3      	str	r3, [r0, #92]	@ 0x5c

  /* Error callback */
#if (USE_HAL_ADC_REGISTER_CALLBACKS == 1)
  hadc->ErrorCallback(hadc);
 80020b0:	6f03      	ldr	r3, [r0, #112]	@ 0x70
 80020b2:	4798      	blx	r3
#else
  HAL_ADC_ErrorCallback(hadc);
#endif /* USE_HAL_ADC_REGISTER_CALLBACKS */
}
 80020b4:	bd10      	pop	{r4, pc}
 80020b6:	46c0      	nop			@ (mov r8, r8)

080020b8 <HAL_ADC_ErrorCallback>:
__weak void HAL_ADC_ErrorCallback(ADC_HandleTypeDef *hadc)
 80020b8:	4770      	bx	lr
 80020ba:	46c0      	nop			@ (mov r8, r8)

080020bc <HAL_ADC_ConvCpltCallback>:
__weak void HAL_ADC_ConvCpltCallback(ADC_HandleTypeDef *hadc)
 80020bc:	4770      	bx	lr
 80020be:	46c0      	nop			@ (mov r8, r8)

080020c0 <HAL_ADC_ConvHalfCpltCallback>:
__weak void HAL_ADC_ConvHalfCpltCallback(ADC_HandleTypeDef *hadc)
 80020c0:	4770      	bx	lr
 80020c2:	46c0      	nop			@ (mov r8, r8)

080020c4 <HAL_ADC_LevelOutOfWindowCallback>:
__weak void HAL_ADC_LevelOutOfWindowCallback(ADC_HandleTypeDef *hadc)
 80020c4:	4770      	bx	lr
 80020c6:	46c0      	nop			@ (mov r8, r8)

080020c8 <HAL_ADC_Init>:
{
 80020c8:	b5f0      	push	{r4, r5, r6, r7, lr}
 80020ca:	46d6      	mov	lr, sl
 80020cc:	464f      	mov	r7, r9
 80020ce:	4646      	mov	r6, r8
  __IO uint32_t wait_loop_index = 0UL;
 80020d0:	2300      	movs	r3, #0
{
 80020d2:	b5c0      	push	{r6, r7, lr}
 80020d4:	b082      	sub	sp, #8
 80020d6:	1e04      	subs	r4, r0, #0
  __IO uint32_t wait_loop_index = 0UL;
 80020d8:	9301      	str	r3, [sp, #4]
  if (hadc == NULL)
 80020da:	d044      	beq.n	8002166 <HAL_ADC_Init+0x9e>
  if (hadc->State == HAL_ADC_STATE_RESET)
 80020dc:	6d83      	ldr	r3, [r0, #88]	@ 0x58
 80020de:	2b00      	cmp	r3, #0
 80020e0:	d118      	bne.n	8002114 <HAL_ADC_Init+0x4c>
    if (hadc->MspInitCallback == NULL)
 80020e2:	2280      	movs	r2, #128	@ 0x80
    hadc->ConvCpltCallback              = HAL_ADC_ConvCpltCallback;                 /* Legacy weak callback */
 80020e4:	4b89      	ldr	r3, [pc, #548]	@ (800230c <HAL_ADC_Init+0x244>)
 80020e6:	6643      	str	r3, [r0, #100]	@ 0x64
    hadc->ConvHalfCpltCallback          = HAL_ADC_ConvHalfCpltCallback;             /* Legacy weak callback */
 80020e8:	4b89      	ldr	r3, [pc, #548]	@ (8002310 <HAL_ADC_Init+0x248>)
 80020ea:	6683      	str	r3, [r0, #104]	@ 0x68
    hadc->LevelOutOfWindowCallback      = HAL_ADC_LevelOutOfWindowCallback;         /* Legacy weak callback */
 80020ec:	4b89      	ldr	r3, [pc, #548]	@ (8002314 <HAL_ADC_Init+0x24c>)
 80020ee:	66c3      	str	r3, [r0, #108]	@ 0x6c
    hadc->ErrorCallback                 = HAL_ADC_ErrorCallback;                    /* Legacy weak callback */
 80020f0:	4b89      	ldr	r3, [pc, #548]	@ (8002318 <HAL_ADC_Init+0x250>)
 80020f2:	6703      	str	r3, [r0, #112]	@ 0x70
    hadc->LevelOutOfWindow2Callback     = HAL_ADCEx_LevelOutOfWindow2Callback;      /* Legacy weak callback */
 80020f4:	4b89      	ldr	r3, [pc, #548]	@ (800231c <HAL_ADC_Init+0x254>)
 80020f6:	6743      	str	r3, [r0, #116]	@ 0x74
    hadc->LevelOutOfWindow3Callback     = HAL_ADCEx_LevelOutOfWindow3Callback;      /* Legacy weak callback */
 80020f8:	4b89      	ldr	r3, [pc, #548]	@ (8002320 <HAL_ADC_Init+0x258>)
 80020fa:	6783      	str	r3, [r0, #120]	@ 0x78
    hadc->EndOfSamplingCallback         = HAL_ADCEx_EndOfSamplingCallback;          /* Legacy weak callback */
 80020fc:	4b89      	ldr	r3, [pc, #548]	@ (8002324 <HAL_ADC_Init+0x25c>)
 80020fe:	67c3      	str	r3, [r0, #124]	@ 0x7c
    if (hadc->MspInitCallback == NULL)
 8002100:	5883      	ldr	r3, [r0, r2]
 8002102:	2b00      	cmp	r3, #0
 8002104:	d100      	bne.n	8002108 <HAL_ADC_Init+0x40>
 8002106:	e0e3      	b.n	80022d0 <HAL_ADC_Init+0x208>
    hadc->MspInitCallback(hadc);
 8002108:	0020      	movs	r0, r4
 800210a:	4798      	blx	r3
    ADC_CLEAR_ERRORCODE(hadc);
 800210c:	2300      	movs	r3, #0
    hadc->Lock = HAL_UNLOCKED;
 800210e:	2254      	movs	r2, #84	@ 0x54
    ADC_CLEAR_ERRORCODE(hadc);
 8002110:	65e3      	str	r3, [r4, #92]	@ 0x5c
    hadc->Lock = HAL_UNLOCKED;
 8002112:	54a3      	strb	r3, [r4, r2]
  return ((READ_BIT(ADCx->CR, ADC_CR_ADVREGEN) == (ADC_CR_ADVREGEN)) ? 1UL : 0UL);
 8002114:	2380      	movs	r3, #128	@ 0x80
  if (LL_ADC_IsInternalRegulatorEnabled(hadc->Instance) == 0UL)
 8002116:	6825      	ldr	r5, [r4, #0]
 8002118:	055b      	lsls	r3, r3, #21
 800211a:	68aa      	ldr	r2, [r5, #8]
 800211c:	421a      	tst	r2, r3
 800211e:	d115      	bne.n	800214c <HAL_ADC_Init+0x84>
  MODIFY_REG(ADCx->CR,
 8002120:	68aa      	ldr	r2, [r5, #8]
 8002122:	4981      	ldr	r1, [pc, #516]	@ (8002328 <HAL_ADC_Init+0x260>)
 8002124:	400a      	ands	r2, r1
 8002126:	4313      	orrs	r3, r2
 8002128:	60ab      	str	r3, [r5, #8]
    wait_loop_index = ((LL_ADC_DELAY_INTERNAL_REGUL_STAB_US / 10UL) * ((SystemCoreClock / (100000UL * 2UL)) + 1UL));
 800212a:	4b80      	ldr	r3, [pc, #512]	@ (800232c <HAL_ADC_Init+0x264>)
 800212c:	4980      	ldr	r1, [pc, #512]	@ (8002330 <HAL_ADC_Init+0x268>)
 800212e:	6818      	ldr	r0, [r3, #0]
 8002130:	f7fd ffe8 	bl	8000104 <__udivsi3>
 8002134:	3001      	adds	r0, #1
 8002136:	0040      	lsls	r0, r0, #1
 8002138:	9001      	str	r0, [sp, #4]
    while (wait_loop_index != 0UL)
 800213a:	9b01      	ldr	r3, [sp, #4]
 800213c:	2b00      	cmp	r3, #0
 800213e:	d005      	beq.n	800214c <HAL_ADC_Init+0x84>
      wait_loop_index--;
 8002140:	9b01      	ldr	r3, [sp, #4]
 8002142:	3b01      	subs	r3, #1
 8002144:	9301      	str	r3, [sp, #4]
    while (wait_loop_index != 0UL)
 8002146:	9b01      	ldr	r3, [sp, #4]
 8002148:	2b00      	cmp	r3, #0
 800214a:	d1f9      	bne.n	8002140 <HAL_ADC_Init+0x78>
  return ((READ_BIT(ADCx->CR, ADC_CR_ADVREGEN) == (ADC_CR_ADVREGEN)) ? 1UL : 0UL);
 800214c:	68ab      	ldr	r3, [r5, #8]
  HAL_StatusTypeDef tmp_hal_status = HAL_OK;
 800214e:	2000      	movs	r0, #0
 8002150:	00db      	lsls	r3, r3, #3
 8002152:	d400      	bmi.n	8002156 <HAL_ADC_Init+0x8e>
 8002154:	e09d      	b.n	8002292 <HAL_ADC_Init+0x1ca>
  return ((READ_BIT(ADCx->CR, ADC_CR_ADSTART) == (ADC_CR_ADSTART)) ? 1UL : 0UL);
 8002156:	68ab      	ldr	r3, [r5, #8]
 8002158:	075b      	lsls	r3, r3, #29
 800215a:	d50b      	bpl.n	8002174 <HAL_ADC_Init+0xac>
  if (((hadc->State & HAL_ADC_STATE_ERROR_INTERNAL) == 0UL)
 800215c:	6da3      	ldr	r3, [r4, #88]	@ 0x58
    SET_BIT(hadc->State, HAL_ADC_STATE_ERROR_INTERNAL);
 800215e:	2210      	movs	r2, #16
 8002160:	6da3      	ldr	r3, [r4, #88]	@ 0x58
 8002162:	4313      	orrs	r3, r2
 8002164:	65a3      	str	r3, [r4, #88]	@ 0x58
    return HAL_ERROR;
 8002166:	2001      	movs	r0, #1
}
 8002168:	b002      	add	sp, #8
 800216a:	bce0      	pop	{r5, r6, r7}
 800216c:	46ba      	mov	sl, r7
 800216e:	46b1      	mov	r9, r6
 8002170:	46a8      	mov	r8, r5
 8002172:	bdf0      	pop	{r4, r5, r6, r7, pc}
  if (((hadc->State & HAL_ADC_STATE_ERROR_INTERNAL) == 0UL)
 8002174:	6da3      	ldr	r3, [r4, #88]	@ 0x58
 8002176:	06db      	lsls	r3, r3, #27
 8002178:	d4f1      	bmi.n	800215e <HAL_ADC_Init+0x96>
    ADC_STATE_CLR_SET(hadc->State,
 800217a:	6da3      	ldr	r3, [r4, #88]	@ 0x58
 800217c:	4a6d      	ldr	r2, [pc, #436]	@ (8002334 <HAL_ADC_Init+0x26c>)
                    ADC_SCAN_SEQ_MODE(hadc->Init.ScanConvMode)                     |
 800217e:	6921      	ldr	r1, [r4, #16]
    ADC_STATE_CLR_SET(hadc->State,
 8002180:	4013      	ands	r3, r2
 8002182:	3206      	adds	r2, #6
 8002184:	32ff      	adds	r2, #255	@ 0xff
 8002186:	4313      	orrs	r3, r2
 8002188:	65a3      	str	r3, [r4, #88]	@ 0x58
  return ((READ_BIT(ADCx->CR, ADC_CR_ADEN) == (ADC_CR_ADEN)) ? 1UL : 0UL);
 800218a:	68ab      	ldr	r3, [r5, #8]
 800218c:	07db      	lsls	r3, r3, #31
 800218e:	d45c      	bmi.n	800224a <HAL_ADC_Init+0x182>
                    ADC_CFGR1_OVERRUN(hadc->Init.Overrun)                          |
 8002190:	6b27      	ldr	r7, [r4, #48]	@ 0x30
 8002192:	68a2      	ldr	r2, [r4, #8]
 8002194:	1e7b      	subs	r3, r7, #1
 8002196:	419f      	sbcs	r7, r3
 8002198:	68e3      	ldr	r3, [r4, #12]
                    ADC_CFGR1_CONTINUOUS((uint32_t)hadc->Init.ContinuousConvMode)  |
 800219a:	7ea6      	ldrb	r6, [r4, #26]
 800219c:	431a      	orrs	r2, r3
                    ADC_CFGR1_AUTOWAIT((uint32_t)hadc->Init.LowPowerAutoWait)      |
 800219e:	7e23      	ldrb	r3, [r4, #24]
                    ADC_CFGR1_OVERRUN(hadc->Init.Overrun)                          |
 80021a0:	033f      	lsls	r7, r7, #12
                    ADC_CFGR1_AUTOWAIT((uint32_t)hadc->Init.LowPowerAutoWait)      |
 80021a2:	039b      	lsls	r3, r3, #14
 80021a4:	431a      	orrs	r2, r3
                    ADC_CFGR1_AUTOOFF((uint32_t)hadc->Init.LowPowerAutoPowerOff)   |
 80021a6:	7e63      	ldrb	r3, [r4, #25]
 80021a8:	03db      	lsls	r3, r3, #15
 80021aa:	431a      	orrs	r2, r3
                    ADC_CFGR1_CONTINUOUS((uint32_t)hadc->Init.ContinuousConvMode)  |
 80021ac:	0373      	lsls	r3, r6, #13
 80021ae:	431a      	orrs	r2, r3
                    ADC_SCAN_SEQ_MODE(hadc->Init.ScanConvMode)                     |
 80021b0:	2900      	cmp	r1, #0
 80021b2:	da00      	bge.n	80021b6 <HAL_ADC_Init+0xee>
 80021b4:	e098      	b.n	80022e8 <HAL_ADC_Init+0x220>
 80021b6:	2380      	movs	r3, #128	@ 0x80
 80021b8:	039b      	lsls	r3, r3, #14
 80021ba:	469c      	mov	ip, r3
                    ADC_CFGR1_DMACONTREQ((uint32_t)hadc->Init.DMAContinuousRequests));
 80021bc:	232c      	movs	r3, #44	@ 0x2c
 80021be:	5ce3      	ldrb	r3, [r4, r3]
 80021c0:	005b      	lsls	r3, r3, #1
                    ADC_SCAN_SEQ_MODE(hadc->Init.ScanConvMode)                     |
 80021c2:	4313      	orrs	r3, r2
 80021c4:	433b      	orrs	r3, r7
 80021c6:	4662      	mov	r2, ip
      if (hadc->Init.DiscontinuousConvMode == ENABLE)
 80021c8:	2720      	movs	r7, #32
                    ADC_SCAN_SEQ_MODE(hadc->Init.ScanConvMode)                     |
 80021ca:	4313      	orrs	r3, r2
      if (hadc->Init.DiscontinuousConvMode == ENABLE)
 80021cc:	5de2      	ldrb	r2, [r4, r7]
 80021ce:	2a01      	cmp	r2, #1
 80021d0:	d100      	bne.n	80021d4 <HAL_ADC_Init+0x10c>
 80021d2:	e08d      	b.n	80022f0 <HAL_ADC_Init+0x228>
      if (hadc->Init.ExternalTrigConv != ADC_SOFTWARE_START)
 80021d4:	6a62      	ldr	r2, [r4, #36]	@ 0x24
 80021d6:	2a00      	cmp	r2, #0
 80021d8:	d005      	beq.n	80021e6 <HAL_ADC_Init+0x11e>
        tmp_cfgr1 |= ((hadc->Init.ExternalTrigConv & ADC_CFGR1_EXTSEL) |
 80021da:	26e0      	movs	r6, #224	@ 0xe0
 80021dc:	0076      	lsls	r6, r6, #1
 80021de:	4032      	ands	r2, r6
 80021e0:	6aa6      	ldr	r6, [r4, #40]	@ 0x28
 80021e2:	4332      	orrs	r2, r6
 80021e4:	4313      	orrs	r3, r2
      if (hadc->Init.OversamplingMode == ENABLE)
 80021e6:	273c      	movs	r7, #60	@ 0x3c
      MODIFY_REG(hadc->Instance->CFGR1,
 80021e8:	68ea      	ldr	r2, [r5, #12]
 80021ea:	4e53      	ldr	r6, [pc, #332]	@ (8002338 <HAL_ADC_Init+0x270>)
 80021ec:	4032      	ands	r2, r6
 80021ee:	4313      	orrs	r3, r2
      tmp_cfgr2 |= ((hadc->Init.ClockPrescaler & ADC_CFGR2_CKMODE) |
 80021f0:	6866      	ldr	r6, [r4, #4]
      MODIFY_REG(hadc->Instance->CFGR1,
 80021f2:	60eb      	str	r3, [r5, #12]
      tmp_cfgr2 |= ((hadc->Init.ClockPrescaler & ADC_CFGR2_CKMODE) |
 80021f4:	6ce2      	ldr	r2, [r4, #76]	@ 0x4c
      if (hadc->Init.OversamplingMode == ENABLE)
 80021f6:	5de7      	ldrb	r7, [r4, r7]
      tmp_cfgr2 |= ((hadc->Init.ClockPrescaler & ADC_CFGR2_CKMODE) |
 80021f8:	0fb3      	lsrs	r3, r6, #30
 80021fa:	079b      	lsls	r3, r3, #30
 80021fc:	469a      	mov	sl, r3
      if (hadc->Init.OversamplingMode == ENABLE)
 80021fe:	46bc      	mov	ip, r7
      tmp_cfgr2 |= ((hadc->Init.ClockPrescaler & ADC_CFGR2_CKMODE) |
 8002200:	431a      	orrs	r2, r3
      if (hadc->Init.OversamplingMode == ENABLE)
 8002202:	2f01      	cmp	r7, #1
 8002204:	d109      	bne.n	800221a <HAL_ADC_Init+0x152>
        tmp_cfgr2 |= (ADC_CFGR2_OVSE |
 8002206:	6c67      	ldr	r7, [r4, #68]	@ 0x44
 8002208:	6c23      	ldr	r3, [r4, #64]	@ 0x40
 800220a:	433b      	orrs	r3, r7
 800220c:	431a      	orrs	r2, r3
 800220e:	4653      	mov	r3, sl
 8002210:	6ca7      	ldr	r7, [r4, #72]	@ 0x48
 8002212:	433a      	orrs	r2, r7
 8002214:	431a      	orrs	r2, r3
 8002216:	4663      	mov	r3, ip
 8002218:	431a      	orrs	r2, r3
      MODIFY_REG(hadc->Instance->CFGR2,
 800221a:	692b      	ldr	r3, [r5, #16]
 800221c:	4f47      	ldr	r7, [pc, #284]	@ (800233c <HAL_ADC_Init+0x274>)
 800221e:	403b      	ands	r3, r7
 8002220:	4313      	orrs	r3, r2
      if (((hadc->Init.ClockPrescaler) != ADC_CLOCK_SYNC_PCLK_DIV1) &&
 8002222:	2280      	movs	r2, #128	@ 0x80
      MODIFY_REG(hadc->Instance->CFGR2,
 8002224:	612b      	str	r3, [r5, #16]
      if (((hadc->Init.ClockPrescaler) != ADC_CLOCK_SYNC_PCLK_DIV1) &&
 8002226:	0073      	lsls	r3, r6, #1
 8002228:	085b      	lsrs	r3, r3, #1
 800222a:	05d2      	lsls	r2, r2, #23
 800222c:	4293      	cmp	r3, r2
 800222e:	d00c      	beq.n	800224a <HAL_ADC_Init+0x182>
          ((hadc->Init.ClockPrescaler) != ADC_CLOCK_SYNC_PCLK_DIV2) &&
 8002230:	2380      	movs	r3, #128	@ 0x80
 8002232:	061b      	lsls	r3, r3, #24
 8002234:	429e      	cmp	r6, r3
 8002236:	d008      	beq.n	800224a <HAL_ADC_Init+0x182>
        MODIFY_REG(ADC1_COMMON->CCR,
 8002238:	4a41      	ldr	r2, [pc, #260]	@ (8002340 <HAL_ADC_Init+0x278>)
 800223a:	4f42      	ldr	r7, [pc, #264]	@ (8002344 <HAL_ADC_Init+0x27c>)
 800223c:	6813      	ldr	r3, [r2, #0]
 800223e:	403b      	ands	r3, r7
 8002240:	27f0      	movs	r7, #240	@ 0xf0
 8002242:	03bf      	lsls	r7, r7, #14
 8002244:	403e      	ands	r6, r7
 8002246:	4333      	orrs	r3, r6
 8002248:	6013      	str	r3, [r2, #0]
  MODIFY_REG(ADCx->SMPR,
 800224a:	2607      	movs	r6, #7
 800224c:	2770      	movs	r7, #112	@ 0x70
 800224e:	696b      	ldr	r3, [r5, #20]
    LL_ADC_SetSamplingTimeCommonChannels(hadc->Instance, LL_ADC_SAMPLINGTIME_COMMON_1, hadc->Init.SamplingTimeCommon1);
 8002250:	6b62      	ldr	r2, [r4, #52]	@ 0x34
 8002252:	43b3      	bics	r3, r6
 8002254:	4313      	orrs	r3, r2
 8002256:	616b      	str	r3, [r5, #20]
 8002258:	696e      	ldr	r6, [r5, #20]
 800225a:	6ba3      	ldr	r3, [r4, #56]	@ 0x38
 800225c:	43be      	bics	r6, r7
 800225e:	011b      	lsls	r3, r3, #4
 8002260:	4333      	orrs	r3, r6
 8002262:	616b      	str	r3, [r5, #20]
    if (hadc->Init.ScanConvMode == ADC_SCAN_DISABLE)
 8002264:	2900      	cmp	r1, #0
 8002266:	d122      	bne.n	80022ae <HAL_ADC_Init+0x1e6>
      SET_BIT(hadc->Instance->CHSELR,
 8002268:	2310      	movs	r3, #16
 800226a:	6aa9      	ldr	r1, [r5, #40]	@ 0x28
 800226c:	425b      	negs	r3, r3
 800226e:	430b      	orrs	r3, r1
 8002270:	62ab      	str	r3, [r5, #40]	@ 0x28
  return (uint32_t)((READ_BIT(ADCx->SMPR, ADC_SMPR_SMP1 << (SamplingTimeY & ADC_SAMPLING_TIME_SMP_SHIFT_MASK)))
 8002272:	2307      	movs	r3, #7
 8002274:	6969      	ldr	r1, [r5, #20]
 8002276:	400b      	ands	r3, r1
    if (LL_ADC_GetSamplingTimeCommonChannels(hadc->Instance, LL_ADC_SAMPLINGTIME_COMMON_1)
 8002278:	429a      	cmp	r2, r3
 800227a:	d02c      	beq.n	80022d6 <HAL_ADC_Init+0x20e>
      ADC_STATE_CLR_SET(hadc->State,
 800227c:	2212      	movs	r2, #18
 800227e:	6da3      	ldr	r3, [r4, #88]	@ 0x58
 8002280:	4393      	bics	r3, r2
 8002282:	3a02      	subs	r2, #2
 8002284:	4313      	orrs	r3, r2
 8002286:	65a3      	str	r3, [r4, #88]	@ 0x58
      SET_BIT(hadc->ErrorCode, HAL_ADC_ERROR_INTERNAL);
 8002288:	6de3      	ldr	r3, [r4, #92]	@ 0x5c
 800228a:	3a0f      	subs	r2, #15
 800228c:	4313      	orrs	r3, r2
 800228e:	65e3      	str	r3, [r4, #92]	@ 0x5c
      tmp_hal_status = HAL_ERROR;
 8002290:	e769      	b.n	8002166 <HAL_ADC_Init+0x9e>
    SET_BIT(hadc->State, HAL_ADC_STATE_ERROR_INTERNAL);
 8002292:	2210      	movs	r2, #16
 8002294:	6da3      	ldr	r3, [r4, #88]	@ 0x58
    tmp_hal_status = HAL_ERROR;
 8002296:	2001      	movs	r0, #1
    SET_BIT(hadc->State, HAL_ADC_STATE_ERROR_INTERNAL);
 8002298:	4313      	orrs	r3, r2
 800229a:	65a3      	str	r3, [r4, #88]	@ 0x58
    SET_BIT(hadc->ErrorCode, HAL_ADC_ERROR_INTERNAL);
 800229c:	6de3      	ldr	r3, [r4, #92]	@ 0x5c
 800229e:	3a0f      	subs	r2, #15
 80022a0:	4313      	orrs	r3, r2
 80022a2:	65e3      	str	r3, [r4, #92]	@ 0x5c
  return ((READ_BIT(ADCx->CR, ADC_CR_ADSTART) == (ADC_CR_ADSTART)) ? 1UL : 0UL);
 80022a4:	68ab      	ldr	r3, [r5, #8]
 80022a6:	075b      	lsls	r3, r3, #29
 80022a8:	d400      	bmi.n	80022ac <HAL_ADC_Init+0x1e4>
 80022aa:	e763      	b.n	8002174 <HAL_ADC_Init+0xac>
 80022ac:	e756      	b.n	800215c <HAL_ADC_Init+0x94>
    else if (hadc->Init.ScanConvMode == ADC_SCAN_ENABLE)
 80022ae:	2380      	movs	r3, #128	@ 0x80
 80022b0:	039b      	lsls	r3, r3, #14
 80022b2:	4299      	cmp	r1, r3
 80022b4:	d1dd      	bne.n	8002272 <HAL_ADC_Init+0x1aa>
      MODIFY_REG(hadc->Instance->CHSELR,
 80022b6:	211c      	movs	r1, #28
 80022b8:	6aab      	ldr	r3, [r5, #40]	@ 0x28
 80022ba:	69e3      	ldr	r3, [r4, #28]
 80022bc:	3b01      	subs	r3, #1
 80022be:	009b      	lsls	r3, r3, #2
 80022c0:	4019      	ands	r1, r3
 80022c2:	2310      	movs	r3, #16
 80022c4:	425b      	negs	r3, r3
 80022c6:	408b      	lsls	r3, r1
 80022c8:	6e21      	ldr	r1, [r4, #96]	@ 0x60
 80022ca:	430b      	orrs	r3, r1
 80022cc:	62ab      	str	r3, [r5, #40]	@ 0x28
 80022ce:	e7d0      	b.n	8002272 <HAL_ADC_Init+0x1aa>
      hadc->MspInitCallback = HAL_ADC_MspInit; /* Legacy weak MspInit  */
 80022d0:	4b1d      	ldr	r3, [pc, #116]	@ (8002348 <HAL_ADC_Init+0x280>)
 80022d2:	5083      	str	r3, [r0, r2]
 80022d4:	e718      	b.n	8002108 <HAL_ADC_Init+0x40>
      ADC_CLEAR_ERRORCODE(hadc);
 80022d6:	2300      	movs	r3, #0
      ADC_STATE_CLR_SET(hadc->State,
 80022d8:	2203      	movs	r2, #3
      ADC_CLEAR_ERRORCODE(hadc);
 80022da:	65e3      	str	r3, [r4, #92]	@ 0x5c
      ADC_STATE_CLR_SET(hadc->State,
 80022dc:	6da3      	ldr	r3, [r4, #88]	@ 0x58
 80022de:	4393      	bics	r3, r2
 80022e0:	3a02      	subs	r2, #2
 80022e2:	4313      	orrs	r3, r2
 80022e4:	65a3      	str	r3, [r4, #88]	@ 0x58
 80022e6:	e73f      	b.n	8002168 <HAL_ADC_Init+0xa0>
                    ADC_SCAN_SEQ_MODE(hadc->Init.ScanConvMode)                     |
 80022e8:	004b      	lsls	r3, r1, #1
 80022ea:	085b      	lsrs	r3, r3, #1
 80022ec:	469c      	mov	ip, r3
 80022ee:	e765      	b.n	80021bc <HAL_ADC_Init+0xf4>
        if (hadc->Init.ContinuousConvMode == DISABLE)
 80022f0:	2e00      	cmp	r6, #0
 80022f2:	d103      	bne.n	80022fc <HAL_ADC_Init+0x234>
          tmp_cfgr1 |= ADC_CFGR1_DISCEN;
 80022f4:	2280      	movs	r2, #128	@ 0x80
 80022f6:	0252      	lsls	r2, r2, #9
 80022f8:	4313      	orrs	r3, r2
 80022fa:	e76b      	b.n	80021d4 <HAL_ADC_Init+0x10c>
          SET_BIT(hadc->State, HAL_ADC_STATE_ERROR_CONFIG);
 80022fc:	6da6      	ldr	r6, [r4, #88]	@ 0x58
 80022fe:	433e      	orrs	r6, r7
 8002300:	65a6      	str	r6, [r4, #88]	@ 0x58
          SET_BIT(hadc->ErrorCode, HAL_ADC_ERROR_INTERNAL);
 8002302:	6de6      	ldr	r6, [r4, #92]	@ 0x5c
 8002304:	4332      	orrs	r2, r6
 8002306:	65e2      	str	r2, [r4, #92]	@ 0x5c
 8002308:	e764      	b.n	80021d4 <HAL_ADC_Init+0x10c>
 800230a:	46c0      	nop			@ (mov r8, r8)
 800230c:	080020bd 	.word	0x080020bd
 8002310:	080020c1 	.word	0x080020c1
 8002314:	080020c5 	.word	0x080020c5
 8002318:	080020b9 	.word	0x080020b9
 800231c:	08002ae5 	.word	0x08002ae5
 8002320:	08002ae9 	.word	0x08002ae9
 8002324:	08002aed 	.word	0x08002aed
 8002328:	6fffffe8 	.word	0x6fffffe8
 800232c:	2000040c 	.word	0x2000040c
 8002330:	00030d40 	.word	0x00030d40
 8002334:	fffffefd 	.word	0xfffffefd
 8002338:	ffde0201 	.word	0xffde0201
 800233c:	1ffffc02 	.word	0x1ffffc02
 8002340:	40012708 	.word	0x40012708
 8002344:	ffc3ffff 	.word	0xffc3ffff
 8002348:	080016d1 	.word	0x080016d1

0800234c <HAL_ADC_RegisterCallback>:
  if (pCallback == NULL)
 800234c:	2a00      	cmp	r2, #0
 800234e:	d00f      	beq.n	8002370 <HAL_ADC_RegisterCallback+0x24>
  if ((hadc->State & HAL_ADC_STATE_READY) != 0UL)
 8002350:	6d83      	ldr	r3, [r0, #88]	@ 0x58
 8002352:	07db      	lsls	r3, r3, #31
 8002354:	d505      	bpl.n	8002362 <HAL_ADC_RegisterCallback+0x16>
    switch (CallbackID)
 8002356:	290a      	cmp	r1, #10
 8002358:	d80a      	bhi.n	8002370 <HAL_ADC_RegisterCallback+0x24>
 800235a:	4b17      	ldr	r3, [pc, #92]	@ (80023b8 <HAL_ADC_RegisterCallback+0x6c>)
 800235c:	0089      	lsls	r1, r1, #2
 800235e:	585b      	ldr	r3, [r3, r1]
 8002360:	469f      	mov	pc, r3
  else if (HAL_ADC_STATE_RESET == hadc->State)
 8002362:	6d83      	ldr	r3, [r0, #88]	@ 0x58
 8002364:	2b00      	cmp	r3, #0
 8002366:	d103      	bne.n	8002370 <HAL_ADC_RegisterCallback+0x24>
    switch (CallbackID)
 8002368:	2909      	cmp	r1, #9
 800236a:	d00b      	beq.n	8002384 <HAL_ADC_RegisterCallback+0x38>
 800236c:	290a      	cmp	r1, #10
 800236e:	d005      	beq.n	800237c <HAL_ADC_RegisterCallback+0x30>
        hadc->ErrorCode |= HAL_ADC_ERROR_INVALID_CALLBACK;
 8002370:	2210      	movs	r2, #16
 8002372:	6dc3      	ldr	r3, [r0, #92]	@ 0x5c
 8002374:	4313      	orrs	r3, r2
 8002376:	65c3      	str	r3, [r0, #92]	@ 0x5c
    return HAL_ERROR;
 8002378:	2001      	movs	r0, #1
}
 800237a:	4770      	bx	lr
        hadc->MspDeInitCallback = pCallback;
 800237c:	2384      	movs	r3, #132	@ 0x84
 800237e:	50c2      	str	r2, [r0, r3]
  HAL_StatusTypeDef status = HAL_OK;
 8002380:	2000      	movs	r0, #0
 8002382:	e7fa      	b.n	800237a <HAL_ADC_RegisterCallback+0x2e>
        hadc->MspInitCallback = pCallback;
 8002384:	2380      	movs	r3, #128	@ 0x80
 8002386:	50c2      	str	r2, [r0, r3]
  HAL_StatusTypeDef status = HAL_OK;
 8002388:	2000      	movs	r0, #0
 800238a:	e7f6      	b.n	800237a <HAL_ADC_RegisterCallback+0x2e>
        hadc->ErrorCallback = pCallback;
 800238c:	6702      	str	r2, [r0, #112]	@ 0x70
  HAL_StatusTypeDef status = HAL_OK;
 800238e:	2000      	movs	r0, #0
 8002390:	e7f3      	b.n	800237a <HAL_ADC_RegisterCallback+0x2e>
        hadc->LevelOutOfWindow2Callback = pCallback;
 8002392:	6742      	str	r2, [r0, #116]	@ 0x74
  HAL_StatusTypeDef status = HAL_OK;
 8002394:	2000      	movs	r0, #0
 8002396:	e7f0      	b.n	800237a <HAL_ADC_RegisterCallback+0x2e>
        hadc->LevelOutOfWindow3Callback = pCallback;
 8002398:	6782      	str	r2, [r0, #120]	@ 0x78
  HAL_StatusTypeDef status = HAL_OK;
 800239a:	2000      	movs	r0, #0
 800239c:	e7ed      	b.n	800237a <HAL_ADC_RegisterCallback+0x2e>
        hadc->EndOfSamplingCallback = pCallback;
 800239e:	67c2      	str	r2, [r0, #124]	@ 0x7c
  HAL_StatusTypeDef status = HAL_OK;
 80023a0:	2000      	movs	r0, #0
 80023a2:	e7ea      	b.n	800237a <HAL_ADC_RegisterCallback+0x2e>
        hadc->ConvHalfCpltCallback = pCallback;
 80023a4:	6682      	str	r2, [r0, #104]	@ 0x68
  HAL_StatusTypeDef status = HAL_OK;
 80023a6:	2000      	movs	r0, #0
 80023a8:	e7e7      	b.n	800237a <HAL_ADC_RegisterCallback+0x2e>
        hadc->LevelOutOfWindowCallback = pCallback;
 80023aa:	66c2      	str	r2, [r0, #108]	@ 0x6c
  HAL_StatusTypeDef status = HAL_OK;
 80023ac:	2000      	movs	r0, #0
 80023ae:	e7e4      	b.n	800237a <HAL_ADC_RegisterCallback+0x2e>
        hadc->ConvCpltCallback = pCallback;
 80023b0:	6642      	str	r2, [r0, #100]	@ 0x64
  HAL_StatusTypeDef status = HAL_OK;
 80023b2:	2000      	movs	r0, #0
 80023b4:	e7e1      	b.n	800237a <HAL_ADC_RegisterCallback+0x2e>
 80023b6:	46c0      	nop			@ (mov r8, r8)
 80023b8:	08006f24 	.word	0x08006f24

080023bc <HAL_ADC_ConfigChannel>:
{
 80023bc:	b5f0      	push	{r4, r5, r6, r7, lr}
 80023be:	46de      	mov	lr, fp
 80023c0:	4657      	mov	r7, sl
 80023c2:	464e      	mov	r6, r9
 80023c4:	4645      	mov	r5, r8
  __IO uint32_t wait_loop_index = 0UL;
 80023c6:	2300      	movs	r3, #0
{
 80023c8:	0004      	movs	r4, r0
 80023ca:	b5e0      	push	{r5, r6, r7, lr}
 80023cc:	b085      	sub	sp, #20
  __IO uint32_t wait_loop_index = 0UL;
 80023ce:	9303      	str	r3, [sp, #12]
  __HAL_LOCK(hadc);
 80023d0:	3354      	adds	r3, #84	@ 0x54
 80023d2:	5ce2      	ldrb	r2, [r4, r3]
  if ((hadc->Init.ScanConvMode == ADC_SCAN_SEQ_FIXED)       ||
 80023d4:	6900      	ldr	r0, [r0, #16]
  __HAL_LOCK(hadc);
 80023d6:	2a01      	cmp	r2, #1
 80023d8:	d100      	bne.n	80023dc <HAL_ADC_ConfigChannel+0x20>
 80023da:	e09a      	b.n	8002512 <HAL_ADC_ConfigChannel+0x156>
 80023dc:	2201      	movs	r2, #1
 80023de:	54e2      	strb	r2, [r4, r3]
  if (LL_ADC_REG_IsConversionOngoing(hadc->Instance) == 0UL)
 80023e0:	6823      	ldr	r3, [r4, #0]
 80023e2:	3203      	adds	r2, #3
 80023e4:	689e      	ldr	r6, [r3, #8]
 80023e6:	4232      	tst	r2, r6
 80023e8:	d00e      	beq.n	8002408 <HAL_ADC_ConfigChannel+0x4c>
    tmp_hal_status = HAL_ERROR;
 80023ea:	2001      	movs	r0, #1
    SET_BIT(hadc->State, HAL_ADC_STATE_ERROR_CONFIG);
 80023ec:	6da3      	ldr	r3, [r4, #88]	@ 0x58
 80023ee:	321c      	adds	r2, #28
 80023f0:	4313      	orrs	r3, r2
 80023f2:	65a3      	str	r3, [r4, #88]	@ 0x58
  __HAL_UNLOCK(hadc);
 80023f4:	2354      	movs	r3, #84	@ 0x54
 80023f6:	2200      	movs	r2, #0
 80023f8:	54e2      	strb	r2, [r4, r3]
}
 80023fa:	b005      	add	sp, #20
 80023fc:	bcf0      	pop	{r4, r5, r6, r7}
 80023fe:	46bb      	mov	fp, r7
 8002400:	46b2      	mov	sl, r6
 8002402:	46a9      	mov	r9, r5
 8002404:	46a0      	mov	r8, r4
 8002406:	bdf0      	pop	{r4, r5, r6, r7, pc}
    if (pConfig->Rank != ADC_RANK_NONE)
 8002408:	684e      	ldr	r6, [r1, #4]
      if ((hadc->Init.ScanConvMode == ADC_SCAN_SEQ_FIXED)       ||
 800240a:	4390      	bics	r0, r2
 800240c:	4684      	mov	ip, r0
        LL_ADC_REG_SetSequencerChAdd(hadc->Instance, pConfig->Channel);
 800240e:	6808      	ldr	r0, [r1, #0]
    if (pConfig->Rank != ADC_RANK_NONE)
 8002410:	2e02      	cmp	r6, #2
 8002412:	d05e      	beq.n	80024d2 <HAL_ADC_ConfigChannel+0x116>
  SET_BIT(ADCx->CHSELR, (Channel & ADC_CHANNEL_ID_BITFIELD_MASK));
 8002414:	0347      	lsls	r7, r0, #13
 8002416:	0b7d      	lsrs	r5, r7, #13
      if ((hadc->Init.ScanConvMode == ADC_SCAN_SEQ_FIXED)       ||
 8002418:	2780      	movs	r7, #128	@ 0x80
 800241a:	9500      	str	r5, [sp, #0]
 800241c:	063f      	lsls	r7, r7, #24
 800241e:	45bc      	cmp	ip, r7
 8002420:	d053      	beq.n	80024ca <HAL_ADC_ConfigChannel+0x10e>
        MODIFY_REG(hadc->ADCGroupRegularSequencerRanks,
 8002422:	6e27      	ldr	r7, [r4, #96]	@ 0x60
 8002424:	46bb      	mov	fp, r7
 8002426:	271f      	movs	r7, #31
 8002428:	46b8      	mov	r8, r7
 800242a:	4037      	ands	r7, r6
 800242c:	46ba      	mov	sl, r7
 800242e:	270f      	movs	r7, #15
 8002430:	4655      	mov	r5, sl
 8002432:	40af      	lsls	r7, r5
 8002434:	43fd      	mvns	r5, r7
 8002436:	46bc      	mov	ip, r7
 8002438:	9501      	str	r5, [sp, #4]
 800243a:	465f      	mov	r7, fp
 800243c:	4665      	mov	r5, ip
 800243e:	43af      	bics	r7, r5
 8002440:	9d00      	ldr	r5, [sp, #0]
 8002442:	46b9      	mov	r9, r7
 8002444:	2d00      	cmp	r5, #0
 8002446:	d166      	bne.n	8002516 <HAL_ADC_ConfigChannel+0x15a>
 8002448:	4645      	mov	r5, r8
 800244a:	0e82      	lsrs	r2, r0, #26
 800244c:	4015      	ands	r5, r2
 800244e:	002a      	movs	r2, r5
 8002450:	4655      	mov	r5, sl
 8002452:	40aa      	lsls	r2, r5
 8002454:	464d      	mov	r5, r9
 8002456:	4315      	orrs	r5, r2
 8002458:	46a9      	mov	r9, r5
 800245a:	464a      	mov	r2, r9
        if (((pConfig->Rank >> 2UL) + 1UL) <= hadc->Init.NbrOfConversion)
 800245c:	08b6      	lsrs	r6, r6, #2
        MODIFY_REG(hadc->ADCGroupRegularSequencerRanks,
 800245e:	6622      	str	r2, [r4, #96]	@ 0x60
        if (((pConfig->Rank >> 2UL) + 1UL) <= hadc->Init.NbrOfConversion)
 8002460:	69e2      	ldr	r2, [r4, #28]
 8002462:	3601      	adds	r6, #1
 8002464:	4296      	cmp	r6, r2
 8002466:	d808      	bhi.n	800247a <HAL_ADC_ConfigChannel+0xbe>
  MODIFY_REG(ADCx->CHSELR,
 8002468:	4656      	mov	r6, sl
 800246a:	0082      	lsls	r2, r0, #2
 800246c:	0f12      	lsrs	r2, r2, #28
 800246e:	40b2      	lsls	r2, r6
 8002470:	6a9d      	ldr	r5, [r3, #40]	@ 0x28
 8002472:	9e01      	ldr	r6, [sp, #4]
 8002474:	4035      	ands	r5, r6
 8002476:	432a      	orrs	r2, r5
 8002478:	629a      	str	r2, [r3, #40]	@ 0x28
  MODIFY_REG(ADCx->SMPR,
 800247a:	0205      	lsls	r5, r0, #8
 800247c:	688a      	ldr	r2, [r1, #8]
 800247e:	0029      	movs	r1, r5
 8002480:	695e      	ldr	r6, [r3, #20]
 8002482:	402a      	ands	r2, r5
 8002484:	4d66      	ldr	r5, [pc, #408]	@ (8002620 <HAL_ADC_ConfigChannel+0x264>)
 8002486:	438e      	bics	r6, r1
 8002488:	402a      	ands	r2, r5
 800248a:	4332      	orrs	r2, r6
 800248c:	615a      	str	r2, [r3, #20]
      if (__LL_ADC_IS_CHANNEL_INTERNAL(pConfig->Channel))
 800248e:	2800      	cmp	r0, #0
 8002490:	db01      	blt.n	8002496 <HAL_ADC_ConfigChannel+0xda>
  HAL_StatusTypeDef tmp_hal_status = HAL_OK;
 8002492:	2000      	movs	r0, #0
 8002494:	e7ae      	b.n	80023f4 <HAL_ADC_ConfigChannel+0x38>
  return (uint32_t)(READ_BIT(ADCxy_COMMON->CCR, ADC_CCR_VREFEN | ADC_CCR_TSEN | ADC_CCR_VBATEN));
 8002496:	21e0      	movs	r1, #224	@ 0xe0
 8002498:	4d62      	ldr	r5, [pc, #392]	@ (8002624 <HAL_ADC_ConfigChannel+0x268>)
        if ((pConfig->Channel == ADC_CHANNEL_TEMPSENSOR) &&
 800249a:	4a63      	ldr	r2, [pc, #396]	@ (8002628 <HAL_ADC_ConfigChannel+0x26c>)
 800249c:	682b      	ldr	r3, [r5, #0]
 800249e:	0449      	lsls	r1, r1, #17
 80024a0:	4019      	ands	r1, r3
 80024a2:	4290      	cmp	r0, r2
 80024a4:	d04c      	beq.n	8002540 <HAL_ADC_ConfigChannel+0x184>
        else if ((pConfig->Channel == ADC_CHANNEL_VBAT)
 80024a6:	4a61      	ldr	r2, [pc, #388]	@ (800262c <HAL_ADC_ConfigChannel+0x270>)
 80024a8:	4290      	cmp	r0, r2
 80024aa:	d040      	beq.n	800252e <HAL_ADC_ConfigChannel+0x172>
        else if ((pConfig->Channel == ADC_CHANNEL_VREFINT) &&
 80024ac:	4a60      	ldr	r2, [pc, #384]	@ (8002630 <HAL_ADC_ConfigChannel+0x274>)
 80024ae:	4290      	cmp	r0, r2
 80024b0:	d1ef      	bne.n	8002492 <HAL_ADC_ConfigChannel+0xd6>
                 ((tmp_config_internal_channel & LL_ADC_PATH_INTERNAL_VREFINT) == 0UL))
 80024b2:	2280      	movs	r2, #128	@ 0x80
 80024b4:	03d2      	lsls	r2, r2, #15
        else if ((pConfig->Channel == ADC_CHANNEL_VREFINT) &&
 80024b6:	4213      	tst	r3, r2
 80024b8:	d1eb      	bne.n	8002492 <HAL_ADC_ConfigChannel+0xd6>
  MODIFY_REG(ADCxy_COMMON->CCR, ADC_CCR_VREFEN | ADC_CCR_TSEN | ADC_CCR_VBATEN, PathInternal);
 80024ba:	682b      	ldr	r3, [r5, #0]
 80024bc:	485d      	ldr	r0, [pc, #372]	@ (8002634 <HAL_ADC_ConfigChannel+0x278>)
 80024be:	4003      	ands	r3, r0
 80024c0:	430b      	orrs	r3, r1
 80024c2:	431a      	orrs	r2, r3
  HAL_StatusTypeDef tmp_hal_status = HAL_OK;
 80024c4:	2000      	movs	r0, #0
 80024c6:	602a      	str	r2, [r5, #0]
 80024c8:	e794      	b.n	80023f4 <HAL_ADC_ConfigChannel+0x38>
  SET_BIT(ADCx->CHSELR, (Channel & ADC_CHANNEL_ID_BITFIELD_MASK));
 80024ca:	6a9a      	ldr	r2, [r3, #40]	@ 0x28
 80024cc:	432a      	orrs	r2, r5
 80024ce:	629a      	str	r2, [r3, #40]	@ 0x28
}
 80024d0:	e7d3      	b.n	800247a <HAL_ADC_ConfigChannel+0xbe>
      if ((hadc->Init.ScanConvMode == ADC_SCAN_SEQ_FIXED)       ||
 80024d2:	2280      	movs	r2, #128	@ 0x80
 80024d4:	0612      	lsls	r2, r2, #24
 80024d6:	4594      	cmp	ip, r2
 80024d8:	d104      	bne.n	80024e4 <HAL_ADC_ConfigChannel+0x128>
  CLEAR_BIT(ADCx->CHSELR, (Channel & ADC_CHANNEL_ID_BITFIELD_MASK));
 80024da:	6a9a      	ldr	r2, [r3, #40]	@ 0x28
 80024dc:	0341      	lsls	r1, r0, #13
 80024de:	0b49      	lsrs	r1, r1, #13
 80024e0:	438a      	bics	r2, r1
 80024e2:	629a      	str	r2, [r3, #40]	@ 0x28
      if (__LL_ADC_IS_CHANNEL_INTERNAL(pConfig->Channel))
 80024e4:	2800      	cmp	r0, #0
 80024e6:	dad4      	bge.n	8002492 <HAL_ADC_ConfigChannel+0xd6>
  return (uint32_t)(READ_BIT(ADCxy_COMMON->CCR, ADC_CCR_VREFEN | ADC_CCR_TSEN | ADC_CCR_VBATEN));
 80024e8:	4a4e      	ldr	r2, [pc, #312]	@ (8002624 <HAL_ADC_ConfigChannel+0x268>)
        if (pConfig->Channel == ADC_CHANNEL_TEMPSENSOR)
 80024ea:	494f      	ldr	r1, [pc, #316]	@ (8002628 <HAL_ADC_ConfigChannel+0x26c>)
 80024ec:	6813      	ldr	r3, [r2, #0]
 80024ee:	4288      	cmp	r0, r1
 80024f0:	d023      	beq.n	800253a <HAL_ADC_ConfigChannel+0x17e>
        else if (pConfig->Channel == ADC_CHANNEL_VBAT)
 80024f2:	494e      	ldr	r1, [pc, #312]	@ (800262c <HAL_ADC_ConfigChannel+0x270>)
 80024f4:	4288      	cmp	r0, r1
 80024f6:	d04a      	beq.n	800258e <HAL_ADC_ConfigChannel+0x1d2>
        else if (pConfig->Channel == ADC_CHANNEL_VREFINT)
 80024f8:	494d      	ldr	r1, [pc, #308]	@ (8002630 <HAL_ADC_ConfigChannel+0x274>)
 80024fa:	4288      	cmp	r0, r1
 80024fc:	d1c9      	bne.n	8002492 <HAL_ADC_ConfigChannel+0xd6>
          LL_ADC_SetCommonPathInternalCh(__LL_ADC_COMMON_INSTANCE(hadc->Instance),
 80024fe:	20c0      	movs	r0, #192	@ 0xc0
  MODIFY_REG(ADCxy_COMMON->CCR, ADC_CCR_VREFEN | ADC_CCR_TSEN | ADC_CCR_VBATEN, PathInternal);
 8002500:	6811      	ldr	r1, [r2, #0]
 8002502:	0440      	lsls	r0, r0, #17
 8002504:	4003      	ands	r3, r0
 8002506:	484b      	ldr	r0, [pc, #300]	@ (8002634 <HAL_ADC_ConfigChannel+0x278>)
 8002508:	4001      	ands	r1, r0
 800250a:	430b      	orrs	r3, r1
  HAL_StatusTypeDef tmp_hal_status = HAL_OK;
 800250c:	2000      	movs	r0, #0
 800250e:	6013      	str	r3, [r2, #0]
 8002510:	e770      	b.n	80023f4 <HAL_ADC_ConfigChannel+0x38>
  __HAL_LOCK(hadc);
 8002512:	2002      	movs	r0, #2
 8002514:	e771      	b.n	80023fa <HAL_ADC_ConfigChannel+0x3e>
        MODIFY_REG(hadc->ADCGroupRegularSequencerRanks,
 8002516:	2501      	movs	r5, #1
 8002518:	4205      	tst	r5, r0
 800251a:	d19e      	bne.n	800245a <HAL_ADC_ConfigChannel+0x9e>
 800251c:	2702      	movs	r7, #2
 800251e:	4207      	tst	r7, r0
 8002520:	d02d      	beq.n	800257e <HAL_ADC_ConfigChannel+0x1c2>
 8002522:	4652      	mov	r2, sl
 8002524:	4095      	lsls	r5, r2
 8002526:	464a      	mov	r2, r9
 8002528:	432a      	orrs	r2, r5
 800252a:	4691      	mov	r9, r2
 800252c:	e795      	b.n	800245a <HAL_ADC_ConfigChannel+0x9e>
                 && ((tmp_config_internal_channel & LL_ADC_PATH_INTERNAL_VBAT) == 0UL))
 800252e:	2280      	movs	r2, #128	@ 0x80
 8002530:	0452      	lsls	r2, r2, #17
 8002532:	4213      	tst	r3, r2
 8002534:	d0c1      	beq.n	80024ba <HAL_ADC_ConfigChannel+0xfe>
  HAL_StatusTypeDef tmp_hal_status = HAL_OK;
 8002536:	2000      	movs	r0, #0
 8002538:	e75c      	b.n	80023f4 <HAL_ADC_ConfigChannel+0x38>
          LL_ADC_SetCommonPathInternalCh(__LL_ADC_COMMON_INSTANCE(hadc->Instance),
 800253a:	20a0      	movs	r0, #160	@ 0xa0
 800253c:	6811      	ldr	r1, [r2, #0]
 800253e:	e7e0      	b.n	8002502 <HAL_ADC_ConfigChannel+0x146>
            ((tmp_config_internal_channel & LL_ADC_PATH_INTERNAL_TEMPSENSOR) == 0UL))
 8002540:	2280      	movs	r2, #128	@ 0x80
 8002542:	0412      	lsls	r2, r2, #16
        if ((pConfig->Channel == ADC_CHANNEL_TEMPSENSOR) &&
 8002544:	4213      	tst	r3, r2
 8002546:	d1a4      	bne.n	8002492 <HAL_ADC_ConfigChannel+0xd6>
 8002548:	682b      	ldr	r3, [r5, #0]
 800254a:	483a      	ldr	r0, [pc, #232]	@ (8002634 <HAL_ADC_ConfigChannel+0x278>)
 800254c:	4003      	ands	r3, r0
 800254e:	430b      	orrs	r3, r1
 8002550:	431a      	orrs	r2, r3
          wait_loop_index = ((LL_ADC_DELAY_TEMPSENSOR_STAB_US / 10UL) * ((SystemCoreClock / (100000UL * 2UL)) + 1UL));
 8002552:	4b39      	ldr	r3, [pc, #228]	@ (8002638 <HAL_ADC_ConfigChannel+0x27c>)
 8002554:	602a      	str	r2, [r5, #0]
 8002556:	6818      	ldr	r0, [r3, #0]
 8002558:	4938      	ldr	r1, [pc, #224]	@ (800263c <HAL_ADC_ConfigChannel+0x280>)
 800255a:	f7fd fdd3 	bl	8000104 <__udivsi3>
 800255e:	3001      	adds	r0, #1
 8002560:	0043      	lsls	r3, r0, #1
 8002562:	181b      	adds	r3, r3, r0
 8002564:	009b      	lsls	r3, r3, #2
 8002566:	9303      	str	r3, [sp, #12]
          while (wait_loop_index != 0UL)
 8002568:	9b03      	ldr	r3, [sp, #12]
 800256a:	2b00      	cmp	r3, #0
 800256c:	d091      	beq.n	8002492 <HAL_ADC_ConfigChannel+0xd6>
            wait_loop_index--;
 800256e:	9b03      	ldr	r3, [sp, #12]
 8002570:	3b01      	subs	r3, #1
 8002572:	9303      	str	r3, [sp, #12]
          while (wait_loop_index != 0UL)
 8002574:	9b03      	ldr	r3, [sp, #12]
 8002576:	2b00      	cmp	r3, #0
 8002578:	d1f9      	bne.n	800256e <HAL_ADC_ConfigChannel+0x1b2>
  HAL_StatusTypeDef tmp_hal_status = HAL_OK;
 800257a:	2000      	movs	r0, #0
 800257c:	e73a      	b.n	80023f4 <HAL_ADC_ConfigChannel+0x38>
        MODIFY_REG(hadc->ADCGroupRegularSequencerRanks,
 800257e:	4202      	tst	r2, r0
 8002580:	d009      	beq.n	8002596 <HAL_ADC_ConfigChannel+0x1da>
 8002582:	4652      	mov	r2, sl
 8002584:	4097      	lsls	r7, r2
 8002586:	464a      	mov	r2, r9
 8002588:	433a      	orrs	r2, r7
 800258a:	4691      	mov	r9, r2
 800258c:	e765      	b.n	800245a <HAL_ADC_ConfigChannel+0x9e>
          LL_ADC_SetCommonPathInternalCh(__LL_ADC_COMMON_INSTANCE(hadc->Instance),
 800258e:	20c0      	movs	r0, #192	@ 0xc0
 8002590:	6811      	ldr	r1, [r2, #0]
 8002592:	0400      	lsls	r0, r0, #16
 8002594:	e7b6      	b.n	8002504 <HAL_ADC_ConfigChannel+0x148>
        MODIFY_REG(hadc->ADCGroupRegularSequencerRanks,
 8002596:	0702      	lsls	r2, r0, #28
 8002598:	d501      	bpl.n	800259e <HAL_ADC_ConfigChannel+0x1e2>
 800259a:	2203      	movs	r2, #3
 800259c:	e758      	b.n	8002450 <HAL_ADC_ConfigChannel+0x94>
 800259e:	06c2      	lsls	r2, r0, #27
 80025a0:	d501      	bpl.n	80025a6 <HAL_ADC_ConfigChannel+0x1ea>
 80025a2:	2204      	movs	r2, #4
 80025a4:	e754      	b.n	8002450 <HAL_ADC_ConfigChannel+0x94>
 80025a6:	0682      	lsls	r2, r0, #26
 80025a8:	d501      	bpl.n	80025ae <HAL_ADC_ConfigChannel+0x1f2>
 80025aa:	2205      	movs	r2, #5
 80025ac:	e750      	b.n	8002450 <HAL_ADC_ConfigChannel+0x94>
 80025ae:	0642      	lsls	r2, r0, #25
 80025b0:	d501      	bpl.n	80025b6 <HAL_ADC_ConfigChannel+0x1fa>
 80025b2:	2206      	movs	r2, #6
 80025b4:	e74c      	b.n	8002450 <HAL_ADC_ConfigChannel+0x94>
 80025b6:	0602      	lsls	r2, r0, #24
 80025b8:	d501      	bpl.n	80025be <HAL_ADC_ConfigChannel+0x202>
 80025ba:	2207      	movs	r2, #7
 80025bc:	e748      	b.n	8002450 <HAL_ADC_ConfigChannel+0x94>
 80025be:	05c2      	lsls	r2, r0, #23
 80025c0:	d501      	bpl.n	80025c6 <HAL_ADC_ConfigChannel+0x20a>
 80025c2:	2208      	movs	r2, #8
 80025c4:	e744      	b.n	8002450 <HAL_ADC_ConfigChannel+0x94>
 80025c6:	0582      	lsls	r2, r0, #22
 80025c8:	d501      	bpl.n	80025ce <HAL_ADC_ConfigChannel+0x212>
 80025ca:	2209      	movs	r2, #9
 80025cc:	e740      	b.n	8002450 <HAL_ADC_ConfigChannel+0x94>
 80025ce:	0542      	lsls	r2, r0, #21
 80025d0:	d501      	bpl.n	80025d6 <HAL_ADC_ConfigChannel+0x21a>
 80025d2:	220a      	movs	r2, #10
 80025d4:	e73c      	b.n	8002450 <HAL_ADC_ConfigChannel+0x94>
 80025d6:	0502      	lsls	r2, r0, #20
 80025d8:	d501      	bpl.n	80025de <HAL_ADC_ConfigChannel+0x222>
 80025da:	220b      	movs	r2, #11
 80025dc:	e738      	b.n	8002450 <HAL_ADC_ConfigChannel+0x94>
 80025de:	04c2      	lsls	r2, r0, #19
 80025e0:	d501      	bpl.n	80025e6 <HAL_ADC_ConfigChannel+0x22a>
 80025e2:	220c      	movs	r2, #12
 80025e4:	e734      	b.n	8002450 <HAL_ADC_ConfigChannel+0x94>
 80025e6:	0482      	lsls	r2, r0, #18
 80025e8:	d501      	bpl.n	80025ee <HAL_ADC_ConfigChannel+0x232>
 80025ea:	220d      	movs	r2, #13
 80025ec:	e730      	b.n	8002450 <HAL_ADC_ConfigChannel+0x94>
 80025ee:	0442      	lsls	r2, r0, #17
 80025f0:	d501      	bpl.n	80025f6 <HAL_ADC_ConfigChannel+0x23a>
 80025f2:	220e      	movs	r2, #14
 80025f4:	e72c      	b.n	8002450 <HAL_ADC_ConfigChannel+0x94>
 80025f6:	0402      	lsls	r2, r0, #16
 80025f8:	d504      	bpl.n	8002604 <HAL_ADC_ConfigChannel+0x248>
 80025fa:	465a      	mov	r2, fp
 80025fc:	4665      	mov	r5, ip
 80025fe:	432a      	orrs	r2, r5
 8002600:	4691      	mov	r9, r2
 8002602:	e72a      	b.n	800245a <HAL_ADC_ConfigChannel+0x9e>
 8002604:	03c2      	lsls	r2, r0, #15
 8002606:	d501      	bpl.n	800260c <HAL_ADC_ConfigChannel+0x250>
 8002608:	2210      	movs	r2, #16
 800260a:	e721      	b.n	8002450 <HAL_ADC_ConfigChannel+0x94>
 800260c:	0382      	lsls	r2, r0, #14
 800260e:	d501      	bpl.n	8002614 <HAL_ADC_ConfigChannel+0x258>
 8002610:	2211      	movs	r2, #17
 8002612:	e71d      	b.n	8002450 <HAL_ADC_ConfigChannel+0x94>
 8002614:	0342      	lsls	r2, r0, #13
 8002616:	d400      	bmi.n	800261a <HAL_ADC_ConfigChannel+0x25e>
 8002618:	e71f      	b.n	800245a <HAL_ADC_ConfigChannel+0x9e>
 800261a:	2212      	movs	r2, #18
 800261c:	e718      	b.n	8002450 <HAL_ADC_ConfigChannel+0x94>
 800261e:	46c0      	nop			@ (mov r8, r8)
 8002620:	07ffff00 	.word	0x07ffff00
 8002624:	40012708 	.word	0x40012708
 8002628:	b0001000 	.word	0xb0001000
 800262c:	b8004000 	.word	0xb8004000
 8002630:	b4002000 	.word	0xb4002000
 8002634:	fe3fffff 	.word	0xfe3fffff
 8002638:	2000040c 	.word	0x2000040c
 800263c:	00030d40 	.word	0x00030d40

08002640 <ADC_ConversionStop>:
  if (LL_ADC_REG_IsConversionOngoing(hadc->Instance) != 0UL)
 8002640:	6802      	ldr	r2, [r0, #0]
{
 8002642:	b570      	push	{r4, r5, r6, lr}
  return ((READ_BIT(ADCx->CR, ADC_CR_ADSTART) == (ADC_CR_ADSTART)) ? 1UL : 0UL);
 8002644:	6893      	ldr	r3, [r2, #8]
 8002646:	0004      	movs	r4, r0
 8002648:	075b      	lsls	r3, r3, #29
 800264a:	d516      	bpl.n	800267a <ADC_ConversionStop+0x3a>
  return ((READ_BIT(ADCx->CR, ADC_CR_ADDIS) == (ADC_CR_ADDIS)) ? 1UL : 0UL);
 800264c:	6893      	ldr	r3, [r2, #8]
 800264e:	079b      	lsls	r3, r3, #30
 8002650:	d515      	bpl.n	800267e <ADC_ConversionStop+0x3e>
    tickstart = HAL_GetTick();
 8002652:	f7ff fcd7 	bl	8002004 <HAL_GetTick>
    while ((hadc->Instance->CR & ADC_CR_ADSTART) != 0UL)
 8002656:	6823      	ldr	r3, [r4, #0]
    tickstart = HAL_GetTick();
 8002658:	0006      	movs	r6, r0
    while ((hadc->Instance->CR & ADC_CR_ADSTART) != 0UL)
 800265a:	689b      	ldr	r3, [r3, #8]
 800265c:	075b      	lsls	r3, r3, #29
 800265e:	d50c      	bpl.n	800267a <ADC_ConversionStop+0x3a>
        if ((hadc->Instance->CR & ADC_CR_ADSTART) != 0UL)
 8002660:	2504      	movs	r5, #4
      if ((HAL_GetTick() - tickstart) > ADC_STOP_CONVERSION_TIMEOUT)
 8002662:	f7ff fccf 	bl	8002004 <HAL_GetTick>
        if ((hadc->Instance->CR & ADC_CR_ADSTART) != 0UL)
 8002666:	6823      	ldr	r3, [r4, #0]
      if ((HAL_GetTick() - tickstart) > ADC_STOP_CONVERSION_TIMEOUT)
 8002668:	1b80      	subs	r0, r0, r6
 800266a:	2802      	cmp	r0, #2
 800266c:	d902      	bls.n	8002674 <ADC_ConversionStop+0x34>
        if ((hadc->Instance->CR & ADC_CR_ADSTART) != 0UL)
 800266e:	689a      	ldr	r2, [r3, #8]
 8002670:	4215      	tst	r5, r2
 8002672:	d112      	bne.n	800269a <ADC_ConversionStop+0x5a>
    while ((hadc->Instance->CR & ADC_CR_ADSTART) != 0UL)
 8002674:	689b      	ldr	r3, [r3, #8]
 8002676:	421d      	tst	r5, r3
 8002678:	d1f3      	bne.n	8002662 <ADC_ConversionStop+0x22>
  return HAL_OK;
 800267a:	2000      	movs	r0, #0
}
 800267c:	bd70      	pop	{r4, r5, r6, pc}
  MODIFY_REG(ADCx->CR,
 800267e:	6893      	ldr	r3, [r2, #8]
 8002680:	490b      	ldr	r1, [pc, #44]	@ (80026b0 <ADC_ConversionStop+0x70>)
 8002682:	400b      	ands	r3, r1
 8002684:	2110      	movs	r1, #16
 8002686:	430b      	orrs	r3, r1
 8002688:	6093      	str	r3, [r2, #8]
    tickstart = HAL_GetTick();
 800268a:	f7ff fcbb 	bl	8002004 <HAL_GetTick>
    while ((hadc->Instance->CR & ADC_CR_ADSTART) != 0UL)
 800268e:	6823      	ldr	r3, [r4, #0]
    tickstart = HAL_GetTick();
 8002690:	0006      	movs	r6, r0
    while ((hadc->Instance->CR & ADC_CR_ADSTART) != 0UL)
 8002692:	689b      	ldr	r3, [r3, #8]
 8002694:	075b      	lsls	r3, r3, #29
 8002696:	d4e3      	bmi.n	8002660 <ADC_ConversionStop+0x20>
 8002698:	e7ef      	b.n	800267a <ADC_ConversionStop+0x3a>
          SET_BIT(hadc->State, HAL_ADC_STATE_ERROR_INTERNAL);
 800269a:	2210      	movs	r2, #16
 800269c:	6da3      	ldr	r3, [r4, #88]	@ 0x58
          SET_BIT(hadc->ErrorCode, HAL_ADC_ERROR_INTERNAL);
 800269e:	2001      	movs	r0, #1
          SET_BIT(hadc->State, HAL_ADC_STATE_ERROR_INTERNAL);
 80026a0:	4313      	orrs	r3, r2
 80026a2:	65a3      	str	r3, [r4, #88]	@ 0x58
          SET_BIT(hadc->ErrorCode, HAL_ADC_ERROR_INTERNAL);
 80026a4:	6de3      	ldr	r3, [r4, #92]	@ 0x5c
 80026a6:	3a0f      	subs	r2, #15
 80026a8:	4313      	orrs	r3, r2
 80026aa:	65e3      	str	r3, [r4, #92]	@ 0x5c
          return HAL_ERROR;
 80026ac:	e7e6      	b.n	800267c <ADC_ConversionStop+0x3c>
 80026ae:	46c0      	nop			@ (mov r8, r8)
 80026b0:	7fffffe8 	.word	0x7fffffe8

080026b4 <ADC_Enable>:
  __IO uint32_t wait_loop_index = 0UL;
 80026b4:	2300      	movs	r3, #0
  return ((READ_BIT(ADCx->CR, ADC_CR_ADEN) == (ADC_CR_ADEN)) ? 1UL : 0UL);
 80026b6:	2201      	movs	r2, #1
{
 80026b8:	b5f0      	push	{r4, r5, r6, r7, lr}
 80026ba:	b083      	sub	sp, #12
  __IO uint32_t wait_loop_index = 0UL;
 80026bc:	9301      	str	r3, [sp, #4]
  if (LL_ADC_IsEnabled(hadc->Instance) == 0UL)
 80026be:	6803      	ldr	r3, [r0, #0]
{
 80026c0:	0004      	movs	r4, r0
 80026c2:	6899      	ldr	r1, [r3, #8]
 80026c4:	420a      	tst	r2, r1
 80026c6:	d11f      	bne.n	8002708 <ADC_Enable+0x54>
    if ((hadc->Instance->CR & (ADC_CR_ADCAL | ADC_CR_ADSTP | ADC_CR_ADSTART | ADC_CR_ADDIS | ADC_CR_ADEN)) != 0UL)
 80026c8:	6898      	ldr	r0, [r3, #8]
 80026ca:	4928      	ldr	r1, [pc, #160]	@ (800276c <ADC_Enable+0xb8>)
 80026cc:	4208      	tst	r0, r1
 80026ce:	d11e      	bne.n	800270e <ADC_Enable+0x5a>
  MODIFY_REG(ADCx->CR,
 80026d0:	6899      	ldr	r1, [r3, #8]
 80026d2:	4827      	ldr	r0, [pc, #156]	@ (8002770 <ADC_Enable+0xbc>)
 80026d4:	4001      	ands	r1, r0
 80026d6:	430a      	orrs	r2, r1
 80026d8:	609a      	str	r2, [r3, #8]
  return (uint32_t)(READ_BIT(ADCxy_COMMON->CCR, ADC_CCR_VREFEN | ADC_CCR_TSEN | ADC_CCR_VBATEN));
 80026da:	4b26      	ldr	r3, [pc, #152]	@ (8002774 <ADC_Enable+0xc0>)
 80026dc:	681b      	ldr	r3, [r3, #0]
    if ((LL_ADC_GetCommonPathInternalCh(__LL_ADC_COMMON_INSTANCE(hadc->Instance)) & LL_ADC_PATH_INTERNAL_TEMPSENSOR)
 80026de:	021b      	lsls	r3, r3, #8
 80026e0:	d50f      	bpl.n	8002702 <ADC_Enable+0x4e>
                         * ((SystemCoreClock / (100000UL * 2UL)) + 1UL));
 80026e2:	4b25      	ldr	r3, [pc, #148]	@ (8002778 <ADC_Enable+0xc4>)
 80026e4:	4925      	ldr	r1, [pc, #148]	@ (800277c <ADC_Enable+0xc8>)
 80026e6:	6818      	ldr	r0, [r3, #0]
 80026e8:	f7fd fd0c 	bl	8000104 <__udivsi3>
 80026ec:	3001      	adds	r0, #1
      wait_loop_index = ((LL_ADC_DELAY_TEMPSENSOR_BUFFER_STAB_US / 10UL)
 80026ee:	9001      	str	r0, [sp, #4]
      while (wait_loop_index != 0UL)
 80026f0:	9b01      	ldr	r3, [sp, #4]
 80026f2:	2b00      	cmp	r3, #0
 80026f4:	d005      	beq.n	8002702 <ADC_Enable+0x4e>
        wait_loop_index--;
 80026f6:	9b01      	ldr	r3, [sp, #4]
 80026f8:	3b01      	subs	r3, #1
 80026fa:	9301      	str	r3, [sp, #4]
      while (wait_loop_index != 0UL)
 80026fc:	9b01      	ldr	r3, [sp, #4]
 80026fe:	2b00      	cmp	r3, #0
 8002700:	d1f9      	bne.n	80026f6 <ADC_Enable+0x42>
    if (hadc->Init.LowPowerAutoPowerOff != ENABLE)
 8002702:	7e63      	ldrb	r3, [r4, #25]
 8002704:	2b01      	cmp	r3, #1
 8002706:	d10b      	bne.n	8002720 <ADC_Enable+0x6c>
  return HAL_OK;
 8002708:	2000      	movs	r0, #0
}
 800270a:	b003      	add	sp, #12
 800270c:	bdf0      	pop	{r4, r5, r6, r7, pc}
      SET_BIT(hadc->State, HAL_ADC_STATE_ERROR_INTERNAL);
 800270e:	2110      	movs	r1, #16
 8002710:	6da3      	ldr	r3, [r4, #88]	@ 0x58
      return HAL_ERROR;
 8002712:	2001      	movs	r0, #1
      SET_BIT(hadc->State, HAL_ADC_STATE_ERROR_INTERNAL);
 8002714:	430b      	orrs	r3, r1
 8002716:	65a3      	str	r3, [r4, #88]	@ 0x58
      SET_BIT(hadc->ErrorCode, HAL_ADC_ERROR_INTERNAL);
 8002718:	6de3      	ldr	r3, [r4, #92]	@ 0x5c
 800271a:	4313      	orrs	r3, r2
 800271c:	65e3      	str	r3, [r4, #92]	@ 0x5c
      return HAL_ERROR;
 800271e:	e7f4      	b.n	800270a <ADC_Enable+0x56>
      tickstart = HAL_GetTick();
 8002720:	f7ff fc70 	bl	8002004 <HAL_GetTick>
      while (__HAL_ADC_GET_FLAG(hadc, ADC_FLAG_RDY) == 0UL)
 8002724:	6823      	ldr	r3, [r4, #0]
      tickstart = HAL_GetTick();
 8002726:	0006      	movs	r6, r0
      while (__HAL_ADC_GET_FLAG(hadc, ADC_FLAG_RDY) == 0UL)
 8002728:	681a      	ldr	r2, [r3, #0]
 800272a:	07d2      	lsls	r2, r2, #31
 800272c:	d4ec      	bmi.n	8002708 <ADC_Enable+0x54>
  return ((READ_BIT(ADCx->CR, ADC_CR_ADEN) == (ADC_CR_ADEN)) ? 1UL : 0UL);
 800272e:	2501      	movs	r5, #1
  MODIFY_REG(ADCx->CR,
 8002730:	4f0f      	ldr	r7, [pc, #60]	@ (8002770 <ADC_Enable+0xbc>)
  return ((READ_BIT(ADCx->CR, ADC_CR_ADEN) == (ADC_CR_ADEN)) ? 1UL : 0UL);
 8002732:	689a      	ldr	r2, [r3, #8]
 8002734:	4215      	tst	r5, r2
 8002736:	d103      	bne.n	8002740 <ADC_Enable+0x8c>
  MODIFY_REG(ADCx->CR,
 8002738:	689a      	ldr	r2, [r3, #8]
 800273a:	403a      	ands	r2, r7
 800273c:	432a      	orrs	r2, r5
 800273e:	609a      	str	r2, [r3, #8]
        if ((HAL_GetTick() - tickstart) > ADC_ENABLE_TIMEOUT)
 8002740:	f7ff fc60 	bl	8002004 <HAL_GetTick>
          if (__HAL_ADC_GET_FLAG(hadc, ADC_FLAG_RDY) == 0UL)
 8002744:	6823      	ldr	r3, [r4, #0]
        if ((HAL_GetTick() - tickstart) > ADC_ENABLE_TIMEOUT)
 8002746:	1b80      	subs	r0, r0, r6
 8002748:	2802      	cmp	r0, #2
 800274a:	d902      	bls.n	8002752 <ADC_Enable+0x9e>
          if (__HAL_ADC_GET_FLAG(hadc, ADC_FLAG_RDY) == 0UL)
 800274c:	681a      	ldr	r2, [r3, #0]
 800274e:	4215      	tst	r5, r2
 8002750:	d003      	beq.n	800275a <ADC_Enable+0xa6>
      while (__HAL_ADC_GET_FLAG(hadc, ADC_FLAG_RDY) == 0UL)
 8002752:	681a      	ldr	r2, [r3, #0]
 8002754:	4215      	tst	r5, r2
 8002756:	d0ec      	beq.n	8002732 <ADC_Enable+0x7e>
 8002758:	e7d6      	b.n	8002708 <ADC_Enable+0x54>
            SET_BIT(hadc->State, HAL_ADC_STATE_ERROR_INTERNAL);
 800275a:	2210      	movs	r2, #16
 800275c:	6da3      	ldr	r3, [r4, #88]	@ 0x58
      return HAL_ERROR;
 800275e:	2001      	movs	r0, #1
            SET_BIT(hadc->State, HAL_ADC_STATE_ERROR_INTERNAL);
 8002760:	4313      	orrs	r3, r2
 8002762:	65a3      	str	r3, [r4, #88]	@ 0x58
            SET_BIT(hadc->ErrorCode, HAL_ADC_ERROR_INTERNAL);
 8002764:	6de3      	ldr	r3, [r4, #92]	@ 0x5c
 8002766:	432b      	orrs	r3, r5
 8002768:	65e3      	str	r3, [r4, #92]	@ 0x5c
            return HAL_ERROR;
 800276a:	e7ce      	b.n	800270a <ADC_Enable+0x56>
 800276c:	80000017 	.word	0x80000017
 8002770:	7fffffe8 	.word	0x7fffffe8
 8002774:	40012708 	.word	0x40012708
 8002778:	2000040c 	.word	0x2000040c
 800277c:	00030d40 	.word	0x00030d40

08002780 <HAL_ADC_Start_DMA>:
{
 8002780:	b5f0      	push	{r4, r5, r6, r7, lr}
 8002782:	46c6      	mov	lr, r8
  if (LL_ADC_REG_IsConversionOngoing(hadc->Instance) == 0UL)
 8002784:	6805      	ldr	r5, [r0, #0]
{
 8002786:	0004      	movs	r4, r0
  return ((READ_BIT(ADCx->CR, ADC_CR_ADSTART) == (ADC_CR_ADSTART)) ? 1UL : 0UL);
 8002788:	68ae      	ldr	r6, [r5, #8]
 800278a:	4688      	mov	r8, r1
 800278c:	0017      	movs	r7, r2
    __HAL_LOCK(hadc);
 800278e:	2002      	movs	r0, #2
{
 8002790:	b500      	push	{lr}
 8002792:	0776      	lsls	r6, r6, #29
 8002794:	d414      	bmi.n	80027c0 <HAL_ADC_Start_DMA+0x40>
    __HAL_LOCK(hadc);
 8002796:	2254      	movs	r2, #84	@ 0x54
 8002798:	5ca3      	ldrb	r3, [r4, r2]
 800279a:	2b01      	cmp	r3, #1
 800279c:	d010      	beq.n	80027c0 <HAL_ADC_Start_DMA+0x40>
 800279e:	2301      	movs	r3, #1
 80027a0:	54a3      	strb	r3, [r4, r2]
    if ((hadc->Instance->CFGR1 & ADC_CFGR1_DMAEN) == 0UL)
 80027a2:	68ea      	ldr	r2, [r5, #12]
 80027a4:	4213      	tst	r3, r2
 80027a6:	d106      	bne.n	80027b6 <HAL_ADC_Start_DMA+0x36>
  return ((READ_BIT(ADCx->CR, ADC_CR_ADEN) == (ADC_CR_ADEN)) ? 1UL : 0UL);
 80027a8:	68aa      	ldr	r2, [r5, #8]
 80027aa:	4213      	tst	r3, r2
 80027ac:	d131      	bne.n	8002812 <HAL_ADC_Start_DMA+0x92>
      hadc->Instance->CFGR1 |= ADC_CFGR1_DMAEN;
 80027ae:	2201      	movs	r2, #1
 80027b0:	68eb      	ldr	r3, [r5, #12]
 80027b2:	4313      	orrs	r3, r2
 80027b4:	60eb      	str	r3, [r5, #12]
    tmp_hal_status = ADC_Enable(hadc);
 80027b6:	0020      	movs	r0, r4
 80027b8:	f7ff ff7c 	bl	80026b4 <ADC_Enable>
    if (tmp_hal_status == HAL_OK)
 80027bc:	2800      	cmp	r0, #0
 80027be:	d002      	beq.n	80027c6 <HAL_ADC_Start_DMA+0x46>
}
 80027c0:	bc80      	pop	{r7}
 80027c2:	46b8      	mov	r8, r7
 80027c4:	bdf0      	pop	{r4, r5, r6, r7, pc}
      ADC_STATE_CLR_SET(hadc->State,
 80027c6:	6da2      	ldr	r2, [r4, #88]	@ 0x58
 80027c8:	4b15      	ldr	r3, [pc, #84]	@ (8002820 <HAL_ADC_Start_DMA+0xa0>)
      hadc->DMA_Handle->XferCpltCallback = ADC_DMAConvCplt;
 80027ca:	6d25      	ldr	r5, [r4, #80]	@ 0x50
      ADC_STATE_CLR_SET(hadc->State,
 80027cc:	401a      	ands	r2, r3
 80027ce:	2380      	movs	r3, #128	@ 0x80
 80027d0:	005b      	lsls	r3, r3, #1
 80027d2:	4313      	orrs	r3, r2
 80027d4:	65a3      	str	r3, [r4, #88]	@ 0x58
      hadc->DMA_Handle->XferCpltCallback = ADC_DMAConvCplt;
 80027d6:	4b13      	ldr	r3, [pc, #76]	@ (8002824 <HAL_ADC_Start_DMA+0xa4>)
      ADC_CLEAR_ERRORCODE(hadc);
 80027d8:	65e0      	str	r0, [r4, #92]	@ 0x5c
      hadc->DMA_Handle->XferCpltCallback = ADC_DMAConvCplt;
 80027da:	62eb      	str	r3, [r5, #44]	@ 0x2c
      hadc->DMA_Handle->XferHalfCpltCallback = ADC_DMAHalfConvCplt;
 80027dc:	4b12      	ldr	r3, [pc, #72]	@ (8002828 <HAL_ADC_Start_DMA+0xa8>)
      __HAL_ADC_ENABLE_IT(hadc, ADC_IT_OVR);
 80027de:	2210      	movs	r2, #16
      hadc->DMA_Handle->XferHalfCpltCallback = ADC_DMAHalfConvCplt;
 80027e0:	632b      	str	r3, [r5, #48]	@ 0x30
      hadc->DMA_Handle->XferErrorCallback = ADC_DMAError;
 80027e2:	4b12      	ldr	r3, [pc, #72]	@ (800282c <HAL_ADC_Start_DMA+0xac>)
      __HAL_ADC_CLEAR_FLAG(hadc, (ADC_FLAG_EOC | ADC_FLAG_EOS | ADC_FLAG_OVR));
 80027e4:	6821      	ldr	r1, [r4, #0]
      hadc->DMA_Handle->XferErrorCallback = ADC_DMAError;
 80027e6:	636b      	str	r3, [r5, #52]	@ 0x34
      __HAL_ADC_CLEAR_FLAG(hadc, (ADC_FLAG_EOC | ADC_FLAG_EOS | ADC_FLAG_OVR));
 80027e8:	231c      	movs	r3, #28
 80027ea:	600b      	str	r3, [r1, #0]
      __HAL_UNLOCK(hadc);
 80027ec:	3338      	adds	r3, #56	@ 0x38
 80027ee:	54e0      	strb	r0, [r4, r3]
      __HAL_ADC_ENABLE_IT(hadc, ADC_IT_OVR);
 80027f0:	684b      	ldr	r3, [r1, #4]
      tmp_hal_status = HAL_DMA_Start_IT(hadc->DMA_Handle, (uint32_t)&hadc->Instance->DR, (uint32_t)pData, Length);
 80027f2:	0028      	movs	r0, r5
      __HAL_ADC_ENABLE_IT(hadc, ADC_IT_OVR);
 80027f4:	4313      	orrs	r3, r2
 80027f6:	604b      	str	r3, [r1, #4]
      tmp_hal_status = HAL_DMA_Start_IT(hadc->DMA_Handle, (uint32_t)&hadc->Instance->DR, (uint32_t)pData, Length);
 80027f8:	4642      	mov	r2, r8
 80027fa:	003b      	movs	r3, r7
 80027fc:	3140      	adds	r1, #64	@ 0x40
 80027fe:	f000 fa4d 	bl	8002c9c <HAL_DMA_Start_IT>
      LL_ADC_REG_StartConversion(hadc->Instance);
 8002802:	6822      	ldr	r2, [r4, #0]
  MODIFY_REG(ADCx->CR,
 8002804:	490a      	ldr	r1, [pc, #40]	@ (8002830 <HAL_ADC_Start_DMA+0xb0>)
 8002806:	6893      	ldr	r3, [r2, #8]
 8002808:	400b      	ands	r3, r1
 800280a:	2104      	movs	r1, #4
 800280c:	430b      	orrs	r3, r1
 800280e:	6093      	str	r3, [r2, #8]
}
 8002810:	e7d6      	b.n	80027c0 <HAL_ADC_Start_DMA+0x40>
  MODIFY_REG(ADCx->CR,
 8002812:	68ab      	ldr	r3, [r5, #8]
 8002814:	4a06      	ldr	r2, [pc, #24]	@ (8002830 <HAL_ADC_Start_DMA+0xb0>)
 8002816:	4013      	ands	r3, r2
 8002818:	4303      	orrs	r3, r0
 800281a:	60ab      	str	r3, [r5, #8]
}
 800281c:	e7c7      	b.n	80027ae <HAL_ADC_Start_DMA+0x2e>
 800281e:	46c0      	nop			@ (mov r8, r8)
 8002820:	fffff0fe 	.word	0xfffff0fe
 8002824:	08002011 	.word	0x08002011
 8002828:	08002091 	.word	0x08002091
 800282c:	0800209d 	.word	0x0800209d
 8002830:	7fffffe8 	.word	0x7fffffe8

08002834 <ADC_Disable>:
  return ((READ_BIT(ADCx->CR, ADC_CR_ADDIS) == (ADC_CR_ADDIS)) ? 1UL : 0UL);
 8002834:	2202      	movs	r2, #2
{
 8002836:	b5f8      	push	{r3, r4, r5, r6, r7, lr}
  const uint32_t tmp_adc_is_disable_on_going = LL_ADC_IsDisableOngoing(hadc->Instance);
 8002838:	6803      	ldr	r3, [r0, #0]
{
 800283a:	0004      	movs	r4, r0
 800283c:	6899      	ldr	r1, [r3, #8]
 800283e:	420a      	tst	r2, r1
 8002840:	d002      	beq.n	8002848 <ADC_Disable+0x14>
  return ((READ_BIT(ADCx->CR, ADC_CR_ADEN) == (ADC_CR_ADEN)) ? 1UL : 0UL);
 8002842:	689b      	ldr	r3, [r3, #8]
  return HAL_OK;
 8002844:	2000      	movs	r0, #0
}
 8002846:	bdf8      	pop	{r3, r4, r5, r6, r7, pc}
 8002848:	2101      	movs	r1, #1
 800284a:	6898      	ldr	r0, [r3, #8]
 800284c:	4201      	tst	r1, r0
 800284e:	d0f9      	beq.n	8002844 <ADC_Disable+0x10>
    if ((hadc->Instance->CR & (ADC_CR_ADSTART | ADC_CR_ADEN)) == ADC_CR_ADEN)
 8002850:	2705      	movs	r7, #5
 8002852:	6898      	ldr	r0, [r3, #8]
 8002854:	4007      	ands	r7, r0
 8002856:	2f01      	cmp	r7, #1
 8002858:	d008      	beq.n	800286c <ADC_Disable+0x38>
      SET_BIT(hadc->State, HAL_ADC_STATE_ERROR_INTERNAL);
 800285a:	2210      	movs	r2, #16
 800285c:	6da3      	ldr	r3, [r4, #88]	@ 0x58
      return HAL_ERROR;
 800285e:	2001      	movs	r0, #1
      SET_BIT(hadc->State, HAL_ADC_STATE_ERROR_INTERNAL);
 8002860:	4313      	orrs	r3, r2
 8002862:	65a3      	str	r3, [r4, #88]	@ 0x58
      SET_BIT(hadc->ErrorCode, HAL_ADC_ERROR_INTERNAL);
 8002864:	6de3      	ldr	r3, [r4, #92]	@ 0x5c
 8002866:	430b      	orrs	r3, r1
 8002868:	65e3      	str	r3, [r4, #92]	@ 0x5c
      return HAL_ERROR;
 800286a:	e7ec      	b.n	8002846 <ADC_Disable+0x12>
  MODIFY_REG(ADCx->CR,
 800286c:	6899      	ldr	r1, [r3, #8]
 800286e:	4812      	ldr	r0, [pc, #72]	@ (80028b8 <ADC_Disable+0x84>)
        if ((hadc->Instance->CR & ADC_CR_ADEN) != 0UL)
 8002870:	2501      	movs	r5, #1
 8002872:	4001      	ands	r1, r0
 8002874:	430a      	orrs	r2, r1
 8002876:	609a      	str	r2, [r3, #8]
      __HAL_ADC_CLEAR_FLAG(hadc, (ADC_FLAG_EOSMP | ADC_FLAG_RDY));
 8002878:	2203      	movs	r2, #3
 800287a:	601a      	str	r2, [r3, #0]
    tickstart = HAL_GetTick();
 800287c:	f7ff fbc2 	bl	8002004 <HAL_GetTick>
    while ((hadc->Instance->CR & ADC_CR_ADEN) != 0UL)
 8002880:	6823      	ldr	r3, [r4, #0]
    tickstart = HAL_GetTick();
 8002882:	0006      	movs	r6, r0
    while ((hadc->Instance->CR & ADC_CR_ADEN) != 0UL)
 8002884:	689b      	ldr	r3, [r3, #8]
 8002886:	421f      	tst	r7, r3
 8002888:	d0dc      	beq.n	8002844 <ADC_Disable+0x10>
      if ((HAL_GetTick() - tickstart) > ADC_DISABLE_TIMEOUT)
 800288a:	f7ff fbbb 	bl	8002004 <HAL_GetTick>
        if ((hadc->Instance->CR & ADC_CR_ADEN) != 0UL)
 800288e:	6823      	ldr	r3, [r4, #0]
      if ((HAL_GetTick() - tickstart) > ADC_DISABLE_TIMEOUT)
 8002890:	1b80      	subs	r0, r0, r6
 8002892:	2802      	cmp	r0, #2
 8002894:	d902      	bls.n	800289c <ADC_Disable+0x68>
        if ((hadc->Instance->CR & ADC_CR_ADEN) != 0UL)
 8002896:	689a      	ldr	r2, [r3, #8]
 8002898:	4215      	tst	r5, r2
 800289a:	d103      	bne.n	80028a4 <ADC_Disable+0x70>
    while ((hadc->Instance->CR & ADC_CR_ADEN) != 0UL)
 800289c:	689b      	ldr	r3, [r3, #8]
 800289e:	421d      	tst	r5, r3
 80028a0:	d1f3      	bne.n	800288a <ADC_Disable+0x56>
 80028a2:	e7cf      	b.n	8002844 <ADC_Disable+0x10>
          SET_BIT(hadc->State, HAL_ADC_STATE_ERROR_INTERNAL);
 80028a4:	2210      	movs	r2, #16
 80028a6:	6da3      	ldr	r3, [r4, #88]	@ 0x58
      return HAL_ERROR;
 80028a8:	2001      	movs	r0, #1
          SET_BIT(hadc->State, HAL_ADC_STATE_ERROR_INTERNAL);
 80028aa:	4313      	orrs	r3, r2
 80028ac:	65a3      	str	r3, [r4, #88]	@ 0x58
          SET_BIT(hadc->ErrorCode, HAL_ADC_ERROR_INTERNAL);
 80028ae:	6de3      	ldr	r3, [r4, #92]	@ 0x5c
 80028b0:	432b      	orrs	r3, r5
 80028b2:	65e3      	str	r3, [r4, #92]	@ 0x5c
          return HAL_ERROR;
 80028b4:	e7c7      	b.n	8002846 <ADC_Disable+0x12>
 80028b6:	46c0      	nop			@ (mov r8, r8)
 80028b8:	7fffffe8 	.word	0x7fffffe8

080028bc <HAL_ADC_Stop_DMA>:
  __HAL_LOCK(hadc);
 80028bc:	2354      	movs	r3, #84	@ 0x54
{
 80028be:	b570      	push	{r4, r5, r6, lr}
  __HAL_LOCK(hadc);
 80028c0:	5cc2      	ldrb	r2, [r0, r3]
{
 80028c2:	0004      	movs	r4, r0
  __HAL_LOCK(hadc);
 80028c4:	2a01      	cmp	r2, #1
 80028c6:	d025      	beq.n	8002914 <HAL_ADC_Stop_DMA+0x58>
 80028c8:	2201      	movs	r2, #1
 80028ca:	54c2      	strb	r2, [r0, r3]
  tmp_hal_status = ADC_ConversionStop(hadc);
 80028cc:	f7ff feb8 	bl	8002640 <ADC_ConversionStop>
 80028d0:	1e05      	subs	r5, r0, #0
  if (tmp_hal_status == HAL_OK)
 80028d2:	d11a      	bne.n	800290a <HAL_ADC_Stop_DMA+0x4e>
    if (hadc->DMA_Handle->State == HAL_DMA_STATE_BUSY)
 80028d4:	2325      	movs	r3, #37	@ 0x25
 80028d6:	6d20      	ldr	r0, [r4, #80]	@ 0x50
 80028d8:	5cc3      	ldrb	r3, [r0, r3]
 80028da:	2b02      	cmp	r3, #2
 80028dc:	d01c      	beq.n	8002918 <HAL_ADC_Stop_DMA+0x5c>
    __HAL_ADC_DISABLE_IT(hadc, ADC_IT_OVR);
 80028de:	2110      	movs	r1, #16
 80028e0:	6822      	ldr	r2, [r4, #0]
      tmp_hal_status = ADC_Disable(hadc);
 80028e2:	0020      	movs	r0, r4
    __HAL_ADC_DISABLE_IT(hadc, ADC_IT_OVR);
 80028e4:	6853      	ldr	r3, [r2, #4]
 80028e6:	438b      	bics	r3, r1
 80028e8:	6053      	str	r3, [r2, #4]
      tmp_hal_status = ADC_Disable(hadc);
 80028ea:	f7ff ffa3 	bl	8002834 <ADC_Disable>
 80028ee:	1e05      	subs	r5, r0, #0
    if (tmp_hal_status == HAL_OK)
 80028f0:	d106      	bne.n	8002900 <HAL_ADC_Stop_DMA+0x44>
      ADC_STATE_CLR_SET(hadc->State,
 80028f2:	6da3      	ldr	r3, [r4, #88]	@ 0x58
 80028f4:	4a13      	ldr	r2, [pc, #76]	@ (8002944 <HAL_ADC_Stop_DMA+0x88>)
 80028f6:	4013      	ands	r3, r2
 80028f8:	3204      	adds	r2, #4
 80028fa:	32ff      	adds	r2, #255	@ 0xff
 80028fc:	4313      	orrs	r3, r2
 80028fe:	65a3      	str	r3, [r4, #88]	@ 0x58
    CLEAR_BIT(hadc->Instance->CFGR1, ADC_CFGR1_DMAEN);
 8002900:	2101      	movs	r1, #1
 8002902:	6822      	ldr	r2, [r4, #0]
 8002904:	68d3      	ldr	r3, [r2, #12]
 8002906:	438b      	bics	r3, r1
 8002908:	60d3      	str	r3, [r2, #12]
  __HAL_UNLOCK(hadc);
 800290a:	2354      	movs	r3, #84	@ 0x54
 800290c:	2200      	movs	r2, #0
 800290e:	54e2      	strb	r2, [r4, r3]
}
 8002910:	0028      	movs	r0, r5
 8002912:	bd70      	pop	{r4, r5, r6, pc}
  __HAL_LOCK(hadc);
 8002914:	2502      	movs	r5, #2
 8002916:	e7fb      	b.n	8002910 <HAL_ADC_Stop_DMA+0x54>
      tmp_hal_status = HAL_DMA_Abort(hadc->DMA_Handle);
 8002918:	f000 fa28 	bl	8002d6c <HAL_DMA_Abort>
 800291c:	1e05      	subs	r5, r0, #0
      if (tmp_hal_status != HAL_OK)
 800291e:	d0de      	beq.n	80028de <HAL_ADC_Stop_DMA+0x22>
        SET_BIT(hadc->State, HAL_ADC_STATE_ERROR_DMA);
 8002920:	2240      	movs	r2, #64	@ 0x40
    __HAL_ADC_DISABLE_IT(hadc, ADC_IT_OVR);
 8002922:	2110      	movs	r1, #16
        SET_BIT(hadc->State, HAL_ADC_STATE_ERROR_DMA);
 8002924:	6da3      	ldr	r3, [r4, #88]	@ 0x58
      (void)ADC_Disable(hadc);
 8002926:	0020      	movs	r0, r4
        SET_BIT(hadc->State, HAL_ADC_STATE_ERROR_DMA);
 8002928:	4313      	orrs	r3, r2
    __HAL_ADC_DISABLE_IT(hadc, ADC_IT_OVR);
 800292a:	6822      	ldr	r2, [r4, #0]
        SET_BIT(hadc->State, HAL_ADC_STATE_ERROR_DMA);
 800292c:	65a3      	str	r3, [r4, #88]	@ 0x58
    __HAL_ADC_DISABLE_IT(hadc, ADC_IT_OVR);
 800292e:	6853      	ldr	r3, [r2, #4]
 8002930:	438b      	bics	r3, r1
 8002932:	6053      	str	r3, [r2, #4]
      (void)ADC_Disable(hadc);
 8002934:	f7ff ff7e 	bl	8002834 <ADC_Disable>
    CLEAR_BIT(hadc->Instance->CFGR1, ADC_CFGR1_DMAEN);
 8002938:	2101      	movs	r1, #1
 800293a:	6822      	ldr	r2, [r4, #0]
 800293c:	68d3      	ldr	r3, [r2, #12]
 800293e:	438b      	bics	r3, r1
 8002940:	60d3      	str	r3, [r2, #12]
 8002942:	e7e2      	b.n	800290a <HAL_ADC_Stop_DMA+0x4e>
 8002944:	fffffefe 	.word	0xfffffefe

08002948 <HAL_ADCEx_Calibration_Start>:
  *         HAL_ADC_GetValue() (value on 7 bits: from DR[6;0]).
  * @param  hadc       ADC handle
  * @retval HAL status
  */
HAL_StatusTypeDef HAL_ADCEx_Calibration_Start(ADC_HandleTypeDef *hadc)
{
 8002948:	b5f0      	push	{r4, r5, r6, r7, lr}
 800294a:	46de      	mov	lr, fp
 800294c:	4657      	mov	r7, sl
 800294e:	464e      	mov	r6, r9
 8002950:	4645      	mov	r5, r8
  HAL_StatusTypeDef tmp_hal_status;
  __IO uint32_t wait_loop_index = 0UL;
 8002952:	2300      	movs	r3, #0
{
 8002954:	b5e0      	push	{r5, r6, r7, lr}
 8002956:	b085      	sub	sp, #20
  __IO uint32_t wait_loop_index = 0UL;
 8002958:	9302      	str	r3, [sp, #8]
  __IO uint32_t delay_cpu_cycles;

  /* Check the parameters */
  assert_param(IS_ADC_ALL_INSTANCE(hadc->Instance));

  __HAL_LOCK(hadc);
 800295a:	3354      	adds	r3, #84	@ 0x54
 800295c:	5cc2      	ldrb	r2, [r0, r3]
{
 800295e:	0004      	movs	r4, r0
  __HAL_LOCK(hadc);
 8002960:	2a01      	cmp	r2, #1
 8002962:	d100      	bne.n	8002966 <HAL_ADCEx_Calibration_Start+0x1e>
 8002964:	e0af      	b.n	8002ac6 <HAL_ADCEx_Calibration_Start+0x17e>
 8002966:	2701      	movs	r7, #1
 8002968:	54c7      	strb	r7, [r0, r3]

  /* Calibration prerequisite: ADC must be disabled. */

  /* Disable the ADC (if not already disabled) */
  tmp_hal_status = ADC_Disable(hadc);
 800296a:	f7ff ff63 	bl	8002834 <ADC_Disable>
  return ((READ_BIT(ADCx->CR, ADC_CR_ADEN) == (ADC_CR_ADEN)) ? 1UL : 0UL);
 800296e:	003d      	movs	r5, r7

  /* Check if ADC is effectively disabled */
  if (LL_ADC_IsEnabled(hadc->Instance) == 0UL)
 8002970:	6823      	ldr	r3, [r4, #0]
  tmp_hal_status = ADC_Disable(hadc);
 8002972:	9001      	str	r0, [sp, #4]
 8002974:	689a      	ldr	r2, [r3, #8]
 8002976:	4015      	ands	r5, r2
 8002978:	4217      	tst	r7, r2
 800297a:	d136      	bne.n	80029ea <HAL_ADCEx_Calibration_Start+0xa2>
  {
    /* Set ADC state */
    ADC_STATE_CLR_SET(hadc->State,
 800297c:	6da2      	ldr	r2, [r4, #88]	@ 0x58
 800297e:	4953      	ldr	r1, [pc, #332]	@ (8002acc <HAL_ADCEx_Calibration_Start+0x184>)
  MODIFY_REG(ADCx->CR,
 8002980:	2080      	movs	r0, #128	@ 0x80
 8002982:	400a      	ands	r2, r1
 8002984:	3106      	adds	r1, #6
 8002986:	31ff      	adds	r1, #255	@ 0xff
 8002988:	430a      	orrs	r2, r1
 800298a:	65a2      	str	r2, [r4, #88]	@ 0x58
    /* Note: Specificity of this STM32 series: Calibration factor is          */
    /*       available in data register and also transferred by DMA.          */
    /*       To not insert ADC calibration factor among ADC conversion data   */
    /*       in array variable, DMA transfer must be disabled during          */
    /*       calibration.                                                     */
    backup_setting_cfgr1 = READ_BIT(hadc->Instance->CFGR1, ADC_CFGR1_DMAEN | ADC_CFGR1_DMACFG | ADC_CFGR1_AUTOFF);
 800298c:	68da      	ldr	r2, [r3, #12]
    CLEAR_BIT(hadc->Instance->CFGR1, ADC_CFGR1_DMAEN | ADC_CFGR1_DMACFG | ADC_CFGR1_AUTOFF);
 800298e:	4950      	ldr	r1, [pc, #320]	@ (8002ad0 <HAL_ADCEx_Calibration_Start+0x188>)
    backup_setting_cfgr1 = READ_BIT(hadc->Instance->CFGR1, ADC_CFGR1_DMAEN | ADC_CFGR1_DMACFG | ADC_CFGR1_AUTOFF);
 8002990:	4693      	mov	fp, r2
    CLEAR_BIT(hadc->Instance->CFGR1, ADC_CFGR1_DMAEN | ADC_CFGR1_DMACFG | ADC_CFGR1_AUTOFF);
 8002992:	68da      	ldr	r2, [r3, #12]
  return (uint32_t)(READ_BIT(ADCx->CALFACT, ADC_CALFACT_CALFACT));
 8002994:	277f      	movs	r7, #127	@ 0x7f
 8002996:	400a      	ands	r2, r1
 8002998:	60da      	str	r2, [r3, #12]
  MODIFY_REG(ADCx->CR,
 800299a:	4a4e      	ldr	r2, [pc, #312]	@ (8002ad4 <HAL_ADCEx_Calibration_Start+0x18c>)
 800299c:	2108      	movs	r1, #8
 800299e:	4694      	mov	ip, r2

      /* Wait for calibration completion */
      while (LL_ADC_IsCalibrationOnGoing(hadc->Instance) != 0UL)
      {
        wait_loop_index++;
        if (wait_loop_index >= ADC_CALIBRATION_TIMEOUT)
 80029a0:	4a4d      	ldr	r2, [pc, #308]	@ (8002ad8 <HAL_ADCEx_Calibration_Start+0x190>)
 80029a2:	0600      	lsls	r0, r0, #24
 80029a4:	4692      	mov	sl, r2
  return (uint32_t)(READ_BIT(ADCx->CALFACT, ADC_CALFACT_CALFACT));
 80029a6:	22b4      	movs	r2, #180	@ 0xb4
 80029a8:	4691      	mov	r9, r2
 80029aa:	e006      	b.n	80029ba <HAL_ADCEx_Calibration_Start+0x72>
 80029ac:	464a      	mov	r2, r9
 80029ae:	589a      	ldr	r2, [r3, r2]
    for (calibration_index = 0UL; calibration_index < 8UL; calibration_index++)
 80029b0:	3901      	subs	r1, #1
 80029b2:	403a      	ands	r2, r7

          return HAL_ERROR;
        }
      }

      calibration_factor_accumulated += LL_ADC_GetCalibrationFactor(hadc->Instance);
 80029b4:	18ad      	adds	r5, r5, r2
    for (calibration_index = 0UL; calibration_index < 8UL; calibration_index++)
 80029b6:	2900      	cmp	r1, #0
 80029b8:	d026      	beq.n	8002a08 <HAL_ADCEx_Calibration_Start+0xc0>
  MODIFY_REG(ADCx->CR,
 80029ba:	4666      	mov	r6, ip
 80029bc:	689a      	ldr	r2, [r3, #8]
 80029be:	4032      	ands	r2, r6
 80029c0:	4302      	orrs	r2, r0
 80029c2:	609a      	str	r2, [r3, #8]
  return ((READ_BIT(ADCx->CR, ADC_CR_ADCAL) == (ADC_CR_ADCAL)) ? 1UL : 0UL);
 80029c4:	689a      	ldr	r2, [r3, #8]
 80029c6:	2a00      	cmp	r2, #0
 80029c8:	daf0      	bge.n	80029ac <HAL_ADCEx_Calibration_Start+0x64>
        wait_loop_index++;
 80029ca:	9a02      	ldr	r2, [sp, #8]
 80029cc:	3201      	adds	r2, #1
 80029ce:	9202      	str	r2, [sp, #8]
        if (wait_loop_index >= ADC_CALIBRATION_TIMEOUT)
 80029d0:	9a02      	ldr	r2, [sp, #8]
 80029d2:	4552      	cmp	r2, sl
 80029d4:	d9f6      	bls.n	80029c4 <HAL_ADCEx_Calibration_Start+0x7c>
          ADC_STATE_CLR_SET(hadc->State,
 80029d6:	2212      	movs	r2, #18
 80029d8:	6da3      	ldr	r3, [r4, #88]	@ 0x58
 80029da:	4393      	bics	r3, r2
 80029dc:	3a02      	subs	r2, #2
 80029de:	4313      	orrs	r3, r2
 80029e0:	65a3      	str	r3, [r4, #88]	@ 0x58
          __HAL_UNLOCK(hadc);
 80029e2:	2200      	movs	r2, #0
 80029e4:	2354      	movs	r3, #84	@ 0x54
 80029e6:	54e2      	strb	r2, [r4, r3]
          return HAL_ERROR;
 80029e8:	e059      	b.n	8002a9e <HAL_ADCEx_Calibration_Start+0x156>
                      HAL_ADC_STATE_BUSY_INTERNAL,
                      HAL_ADC_STATE_READY);
  }
  else
  {
    SET_BIT(hadc->State, HAL_ADC_STATE_ERROR_INTERNAL);
 80029ea:	2210      	movs	r2, #16
 80029ec:	6da3      	ldr	r3, [r4, #88]	@ 0x58
 80029ee:	4313      	orrs	r3, r2
 80029f0:	65a3      	str	r3, [r4, #88]	@ 0x58

    /* Note: No need to update variable "tmp_hal_status" here: already set    */
    /*       to state "HAL_ERROR" by function disabling the ADC.              */
  }

  __HAL_UNLOCK(hadc);
 80029f2:	2354      	movs	r3, #84	@ 0x54
 80029f4:	2200      	movs	r2, #0
 80029f6:	54e2      	strb	r2, [r4, r3]

  return tmp_hal_status;
}
 80029f8:	9801      	ldr	r0, [sp, #4]
 80029fa:	b005      	add	sp, #20
 80029fc:	bcf0      	pop	{r4, r5, r6, r7}
 80029fe:	46bb      	mov	fp, r7
 8002a00:	46b2      	mov	sl, r6
 8002a02:	46a9      	mov	r9, r5
 8002a04:	46a0      	mov	r8, r4
 8002a06:	bdf0      	pop	{r4, r5, r6, r7, pc}
  MODIFY_REG(ADCx->CR,
 8002a08:	689a      	ldr	r2, [r3, #8]
 8002a0a:	4832      	ldr	r0, [pc, #200]	@ (8002ad4 <HAL_ADCEx_Calibration_Start+0x18c>)
    calibration_factor_accumulated /= calibration_index;
 8002a0c:	08e9      	lsrs	r1, r5, #3
 8002a0e:	4002      	ands	r2, r0
 8002a10:	2001      	movs	r0, #1
 8002a12:	4302      	orrs	r2, r0
 8002a14:	609a      	str	r2, [r3, #8]
    if (LL_ADC_GetClock(hadc->Instance) == LL_ADC_CLOCK_ASYNC)
 8002a16:	2280      	movs	r2, #128	@ 0x80
  return (uint32_t)(READ_BIT(ADCx->CFGR2, ADC_CFGR2_CKMODE));
 8002a18:	691d      	ldr	r5, [r3, #16]
 8002a1a:	05d2      	lsls	r2, r2, #23
 8002a1c:	4295      	cmp	r5, r2
 8002a1e:	d218      	bcs.n	8002a52 <HAL_ADCEx_Calibration_Start+0x10a>
  return (uint32_t)(READ_BIT(ADCxy_COMMON->CCR, ADC_CCR_PRESC));
 8002a20:	25f0      	movs	r5, #240	@ 0xf0
 8002a22:	4a2e      	ldr	r2, [pc, #184]	@ (8002adc <HAL_ADCEx_Calibration_Start+0x194>)
 8002a24:	03ad      	lsls	r5, r5, #14
 8002a26:	6812      	ldr	r2, [r2, #0]
 8002a28:	402a      	ands	r2, r5
      if (adc_clk_async_presc >= LL_ADC_CLOCK_ASYNC_DIV16)
 8002a2a:	25e0      	movs	r5, #224	@ 0xe0
 8002a2c:	036d      	lsls	r5, r5, #13
 8002a2e:	42aa      	cmp	r2, r5
 8002a30:	d30f      	bcc.n	8002a52 <HAL_ADCEx_Calibration_Start+0x10a>
        delay_cpu_cycles = (1UL << ((adc_clk_async_presc >> ADC_CCR_PRESC_Pos) - 3UL));
 8002a32:	0c92      	lsrs	r2, r2, #18
 8002a34:	3a03      	subs	r2, #3
 8002a36:	4090      	lsls	r0, r2
 8002a38:	9003      	str	r0, [sp, #12]
        delay_cpu_cycles >>= 1UL;
 8002a3a:	9a03      	ldr	r2, [sp, #12]
 8002a3c:	0852      	lsrs	r2, r2, #1
 8002a3e:	9203      	str	r2, [sp, #12]
        while (delay_cpu_cycles != 0UL)
 8002a40:	9a03      	ldr	r2, [sp, #12]
 8002a42:	2a00      	cmp	r2, #0
 8002a44:	d005      	beq.n	8002a52 <HAL_ADCEx_Calibration_Start+0x10a>
          delay_cpu_cycles--;
 8002a46:	9a03      	ldr	r2, [sp, #12]
 8002a48:	3a01      	subs	r2, #1
 8002a4a:	9203      	str	r2, [sp, #12]
        while (delay_cpu_cycles != 0UL)
 8002a4c:	9a03      	ldr	r2, [sp, #12]
 8002a4e:	2a00      	cmp	r2, #0
 8002a50:	d1f9      	bne.n	8002a46 <HAL_ADCEx_Calibration_Start+0xfe>
  MODIFY_REG(ADCx->CALFACT,
 8002a52:	22b4      	movs	r2, #180	@ 0xb4
 8002a54:	207f      	movs	r0, #127	@ 0x7f
 8002a56:	589d      	ldr	r5, [r3, r2]
 8002a58:	4385      	bics	r5, r0
 8002a5a:	430d      	orrs	r5, r1
 8002a5c:	509d      	str	r5, [r3, r2]
  MODIFY_REG(ADCx->CR,
 8002a5e:	689a      	ldr	r2, [r3, #8]
 8002a60:	491c      	ldr	r1, [pc, #112]	@ (8002ad4 <HAL_ADCEx_Calibration_Start+0x18c>)
 8002a62:	400a      	ands	r2, r1
 8002a64:	2102      	movs	r1, #2
 8002a66:	430a      	orrs	r2, r1
 8002a68:	609a      	str	r2, [r3, #8]
    tickstart = HAL_GetTick();
 8002a6a:	f7ff facb 	bl	8002004 <HAL_GetTick>
    while (LL_ADC_IsEnabled(hadc->Instance) != 0UL)
 8002a6e:	6823      	ldr	r3, [r4, #0]
    tickstart = HAL_GetTick();
 8002a70:	0005      	movs	r5, r0
  return ((READ_BIT(ADCx->CR, ADC_CR_ADEN) == (ADC_CR_ADEN)) ? 1UL : 0UL);
 8002a72:	689a      	ldr	r2, [r3, #8]
 8002a74:	07d2      	lsls	r2, r2, #31
 8002a76:	d519      	bpl.n	8002aac <HAL_ADCEx_Calibration_Start+0x164>
 8002a78:	2301      	movs	r3, #1
 8002a7a:	4698      	mov	r8, r3
      if ((HAL_GetTick() - tickstart) > ADC_DISABLE_TIMEOUT)
 8002a7c:	f7ff fac2 	bl	8002004 <HAL_GetTick>
        if (LL_ADC_IsEnabled(hadc->Instance) != 0UL)
 8002a80:	6823      	ldr	r3, [r4, #0]
      if ((HAL_GetTick() - tickstart) > ADC_DISABLE_TIMEOUT)
 8002a82:	1b40      	subs	r0, r0, r5
 8002a84:	2802      	cmp	r0, #2
 8002a86:	d90d      	bls.n	8002aa4 <HAL_ADCEx_Calibration_Start+0x15c>
 8002a88:	2201      	movs	r2, #1
 8002a8a:	6899      	ldr	r1, [r3, #8]
 8002a8c:	420a      	tst	r2, r1
 8002a8e:	d009      	beq.n	8002aa4 <HAL_ADCEx_Calibration_Start+0x15c>
          SET_BIT(hadc->State, HAL_ADC_STATE_ERROR_INTERNAL);
 8002a90:	2110      	movs	r1, #16
 8002a92:	6da3      	ldr	r3, [r4, #88]	@ 0x58
 8002a94:	430b      	orrs	r3, r1
 8002a96:	65a3      	str	r3, [r4, #88]	@ 0x58
          SET_BIT(hadc->ErrorCode, HAL_ADC_ERROR_INTERNAL);
 8002a98:	6de3      	ldr	r3, [r4, #92]	@ 0x5c
 8002a9a:	4313      	orrs	r3, r2
 8002a9c:	65e3      	str	r3, [r4, #92]	@ 0x5c
          return HAL_ERROR;
 8002a9e:	2301      	movs	r3, #1
 8002aa0:	9301      	str	r3, [sp, #4]
 8002aa2:	e7a9      	b.n	80029f8 <HAL_ADCEx_Calibration_Start+0xb0>
 8002aa4:	4641      	mov	r1, r8
 8002aa6:	689a      	ldr	r2, [r3, #8]
 8002aa8:	4211      	tst	r1, r2
 8002aaa:	d1e7      	bne.n	8002a7c <HAL_ADCEx_Calibration_Start+0x134>
    backup_setting_cfgr1 = READ_BIT(hadc->Instance->CFGR1, ADC_CFGR1_DMAEN | ADC_CFGR1_DMACFG | ADC_CFGR1_AUTOFF);
 8002aac:	465f      	mov	r7, fp
 8002aae:	490c      	ldr	r1, [pc, #48]	@ (8002ae0 <HAL_ADCEx_Calibration_Start+0x198>)
    SET_BIT(hadc->Instance->CFGR1, backup_setting_cfgr1);
 8002ab0:	68da      	ldr	r2, [r3, #12]
    backup_setting_cfgr1 = READ_BIT(hadc->Instance->CFGR1, ADC_CFGR1_DMAEN | ADC_CFGR1_DMACFG | ADC_CFGR1_AUTOFF);
 8002ab2:	400f      	ands	r7, r1
    SET_BIT(hadc->Instance->CFGR1, backup_setting_cfgr1);
 8002ab4:	4317      	orrs	r7, r2
    ADC_STATE_CLR_SET(hadc->State,
 8002ab6:	2203      	movs	r2, #3
    SET_BIT(hadc->Instance->CFGR1, backup_setting_cfgr1);
 8002ab8:	60df      	str	r7, [r3, #12]
    ADC_STATE_CLR_SET(hadc->State,
 8002aba:	6da3      	ldr	r3, [r4, #88]	@ 0x58
 8002abc:	4393      	bics	r3, r2
 8002abe:	3a02      	subs	r2, #2
 8002ac0:	4313      	orrs	r3, r2
 8002ac2:	65a3      	str	r3, [r4, #88]	@ 0x58
 8002ac4:	e795      	b.n	80029f2 <HAL_ADCEx_Calibration_Start+0xaa>
  __HAL_LOCK(hadc);
 8002ac6:	2302      	movs	r3, #2
 8002ac8:	9301      	str	r3, [sp, #4]
 8002aca:	e795      	b.n	80029f8 <HAL_ADCEx_Calibration_Start+0xb0>
 8002acc:	fffffefd 	.word	0xfffffefd
 8002ad0:	ffff7ffc 	.word	0xffff7ffc
 8002ad4:	7fffffe8 	.word	0x7fffffe8
 8002ad8:	0002f1ff 	.word	0x0002f1ff
 8002adc:	40012708 	.word	0x40012708
 8002ae0:	00008003 	.word	0x00008003

08002ae4 <HAL_ADCEx_LevelOutOfWindow2Callback>:
  UNUSED(hadc);

  /* NOTE : This function should not be modified. When the callback is needed,
            function HAL_ADCEx_LevelOutOfWindow2Callback must be implemented in the user file.
  */
}
 8002ae4:	4770      	bx	lr
 8002ae6:	46c0      	nop			@ (mov r8, r8)

08002ae8 <HAL_ADCEx_LevelOutOfWindow3Callback>:
/**
  * @brief  Analog watchdog 3 callback in non-blocking mode.
  * @param hadc ADC handle
  * @retval None
  */
__weak void HAL_ADCEx_LevelOutOfWindow3Callback(ADC_HandleTypeDef *hadc)
 8002ae8:	4770      	bx	lr
 8002aea:	46c0      	nop			@ (mov r8, r8)

08002aec <HAL_ADCEx_EndOfSamplingCallback>:
/**
  * @brief  End Of Sampling callback in non-blocking mode.
  * @param hadc ADC handle
  * @retval None
  */
__weak void HAL_ADCEx_EndOfSamplingCallback(ADC_HandleTypeDef *hadc)
 8002aec:	4770      	bx	lr
 8002aee:	46c0      	nop			@ (mov r8, r8)

08002af0 <HAL_NVIC_SetPriority>:
 */
__STATIC_INLINE void __NVIC_SetPriority(IRQn_Type IRQn, uint32_t priority)
{
  if ((int32_t)(IRQn) >= 0)
  {
    NVIC->IP[_IP_IDX(IRQn)]  = ((uint32_t)(NVIC->IP[_IP_IDX(IRQn)]  & ~(0xFFUL << _BIT_SHIFT(IRQn))) |
 8002af0:	22ff      	movs	r2, #255	@ 0xff
 8002af2:	2303      	movs	r3, #3
  *         with stm32g0xx devices, this parameter is a dummy value and it is ignored, because
  *         no subpriority supported in Cortex M0+ based products.
  * @retval None
  */
void HAL_NVIC_SetPriority(IRQn_Type IRQn, uint32_t PreemptPriority, uint32_t SubPriority)
{
 8002af4:	b510      	push	{r4, lr}
 8002af6:	0014      	movs	r4, r2
 8002af8:	4003      	ands	r3, r0
 8002afa:	00db      	lsls	r3, r3, #3
 8002afc:	409c      	lsls	r4, r3
       (((priority << (8U - __NVIC_PRIO_BITS)) & (uint32_t)0xFFUL) << _BIT_SHIFT(IRQn)));
 8002afe:	0189      	lsls	r1, r1, #6
 8002b00:	400a      	ands	r2, r1
    NVIC->IP[_IP_IDX(IRQn)]  = ((uint32_t)(NVIC->IP[_IP_IDX(IRQn)]  & ~(0xFFUL << _BIT_SHIFT(IRQn))) |
 8002b02:	43e4      	mvns	r4, r4
       (((priority << (8U - __NVIC_PRIO_BITS)) & (uint32_t)0xFFUL) << _BIT_SHIFT(IRQn)));
 8002b04:	409a      	lsls	r2, r3
  if ((int32_t)(IRQn) >= 0)
 8002b06:	2800      	cmp	r0, #0
 8002b08:	db0b      	blt.n	8002b22 <HAL_NVIC_SetPriority+0x32>
    NVIC->IP[_IP_IDX(IRQn)]  = ((uint32_t)(NVIC->IP[_IP_IDX(IRQn)]  & ~(0xFFUL << _BIT_SHIFT(IRQn))) |
 8002b0a:	4b0c      	ldr	r3, [pc, #48]	@ (8002b3c <HAL_NVIC_SetPriority+0x4c>)
 8002b0c:	21c0      	movs	r1, #192	@ 0xc0
 8002b0e:	469c      	mov	ip, r3
 8002b10:	0880      	lsrs	r0, r0, #2
 8002b12:	0080      	lsls	r0, r0, #2
 8002b14:	4460      	add	r0, ip
 8002b16:	0089      	lsls	r1, r1, #2
 8002b18:	5843      	ldr	r3, [r0, r1]
 8002b1a:	4023      	ands	r3, r4
 8002b1c:	4313      	orrs	r3, r2
 8002b1e:	5043      	str	r3, [r0, r1]
  UNUSED(SubPriority);

  /* Check the parameters */
  assert_param(IS_NVIC_PREEMPTION_PRIORITY(PreemptPriority));
  NVIC_SetPriority(IRQn, PreemptPriority);
}
 8002b20:	bd10      	pop	{r4, pc}
  }
  else
  {
    SCB->SHP[_SHP_IDX(IRQn)] = ((uint32_t)(SCB->SHP[_SHP_IDX(IRQn)] & ~(0xFFUL << _BIT_SHIFT(IRQn))) |
 8002b22:	230f      	movs	r3, #15
 8002b24:	4906      	ldr	r1, [pc, #24]	@ (8002b40 <HAL_NVIC_SetPriority+0x50>)
 8002b26:	4003      	ands	r3, r0
 8002b28:	468c      	mov	ip, r1
 8002b2a:	3b08      	subs	r3, #8
 8002b2c:	089b      	lsrs	r3, r3, #2
 8002b2e:	009b      	lsls	r3, r3, #2
 8002b30:	4463      	add	r3, ip
 8002b32:	69d9      	ldr	r1, [r3, #28]
 8002b34:	400c      	ands	r4, r1
 8002b36:	4314      	orrs	r4, r2
 8002b38:	61dc      	str	r4, [r3, #28]
 8002b3a:	e7f1      	b.n	8002b20 <HAL_NVIC_SetPriority+0x30>
 8002b3c:	e000e100 	.word	0xe000e100
 8002b40:	e000ed00 	.word	0xe000ed00

08002b44 <HAL_NVIC_EnableIRQ>:
  if ((int32_t)(IRQn) >= 0)
 8002b44:	2800      	cmp	r0, #0
 8002b46:	db05      	blt.n	8002b54 <HAL_NVIC_EnableIRQ+0x10>
    NVIC->ISER[0U] = (uint32_t)(1UL << (((uint32_t)IRQn) & 0x1FUL));
 8002b48:	221f      	movs	r2, #31
 8002b4a:	2301      	movs	r3, #1
 8002b4c:	4002      	ands	r2, r0
 8002b4e:	4093      	lsls	r3, r2
 8002b50:	4a01      	ldr	r2, [pc, #4]	@ (8002b58 <HAL_NVIC_EnableIRQ+0x14>)
 8002b52:	6013      	str	r3, [r2, #0]
  /* Check the parameters */
  assert_param(IS_NVIC_DEVICE_IRQ(IRQn));

  /* Enable interrupt */
  NVIC_EnableIRQ(IRQn);
}
 8002b54:	4770      	bx	lr
 8002b56:	46c0      	nop			@ (mov r8, r8)
 8002b58:	e000e100 	.word	0xe000e100

08002b5c <HAL_NVIC_DisableIRQ>:
  if ((int32_t)(IRQn) >= 0)
 8002b5c:	2800      	cmp	r0, #0
 8002b5e:	db0a      	blt.n	8002b76 <HAL_NVIC_DisableIRQ+0x1a>
    NVIC->ICER[0U] = (uint32_t)(1UL << (((uint32_t)IRQn) & 0x1FUL));
 8002b60:	221f      	movs	r2, #31
 8002b62:	2301      	movs	r3, #1
 8002b64:	4002      	ands	r2, r0
 8002b66:	4093      	lsls	r3, r2
 8002b68:	2280      	movs	r2, #128	@ 0x80
 8002b6a:	4903      	ldr	r1, [pc, #12]	@ (8002b78 <HAL_NVIC_DisableIRQ+0x1c>)
 8002b6c:	508b      	str	r3, [r1, r2]
  \details Acts as a special kind of Data Memory Barrier.
           It completes when all explicit memory accesses before this instruction complete.
 */
__STATIC_FORCEINLINE void __DSB(void)
{
  __ASM volatile ("dsb 0xF":::"memory");
 8002b6e:	f3bf 8f4f 	dsb	sy
  __ASM volatile ("isb 0xF":::"memory");
 8002b72:	f3bf 8f6f 	isb	sy
  /* Check the parameters */
  assert_param(IS_NVIC_DEVICE_IRQ(IRQn));

  /* Disable interrupt */
  NVIC_DisableIRQ(IRQn);
}
 8002b76:	4770      	bx	lr
 8002b78:	e000e100 	.word	0xe000e100

08002b7c <HAL_SYSTICK_Config>:
           function <b>SysTick_Config</b> is not included. In this case, the file <b><i>device</i>.h</b>
           must contain a vendor-specific implementation of this function.
 */
__STATIC_INLINE uint32_t SysTick_Config(uint32_t ticks)
{
  if ((ticks - 1UL) > SysTick_LOAD_RELOAD_Msk)
 8002b7c:	2280      	movs	r2, #128	@ 0x80
 8002b7e:	1e43      	subs	r3, r0, #1
 8002b80:	0452      	lsls	r2, r2, #17
  {
    return (1UL);                                                   /* Reload value impossible */
 8002b82:	2001      	movs	r0, #1
  if ((ticks - 1UL) > SysTick_LOAD_RELOAD_Msk)
 8002b84:	4293      	cmp	r3, r2
 8002b86:	d20e      	bcs.n	8002ba6 <HAL_SYSTICK_Config+0x2a>
    SCB->SHP[_SHP_IDX(IRQn)] = ((uint32_t)(SCB->SHP[_SHP_IDX(IRQn)] & ~(0xFFUL << _BIT_SHIFT(IRQn))) |
 8002b88:	21c0      	movs	r1, #192	@ 0xc0
  }

  SysTick->LOAD  = (uint32_t)(ticks - 1UL);                         /* set reload register */
 8002b8a:	4a07      	ldr	r2, [pc, #28]	@ (8002ba8 <HAL_SYSTICK_Config+0x2c>)
    SCB->SHP[_SHP_IDX(IRQn)] = ((uint32_t)(SCB->SHP[_SHP_IDX(IRQn)] & ~(0xFFUL << _BIT_SHIFT(IRQn))) |
 8002b8c:	4807      	ldr	r0, [pc, #28]	@ (8002bac <HAL_SYSTICK_Config+0x30>)
  SysTick->LOAD  = (uint32_t)(ticks - 1UL);                         /* set reload register */
 8002b8e:	6053      	str	r3, [r2, #4]
    SCB->SHP[_SHP_IDX(IRQn)] = ((uint32_t)(SCB->SHP[_SHP_IDX(IRQn)] & ~(0xFFUL << _BIT_SHIFT(IRQn))) |
 8002b90:	6a03      	ldr	r3, [r0, #32]
 8002b92:	0609      	lsls	r1, r1, #24
 8002b94:	021b      	lsls	r3, r3, #8
 8002b96:	0a1b      	lsrs	r3, r3, #8
 8002b98:	430b      	orrs	r3, r1
 8002b9a:	6203      	str	r3, [r0, #32]
  NVIC_SetPriority (SysTick_IRQn, (1UL << __NVIC_PRIO_BITS) - 1UL); /* set Priority for Systick Interrupt */
  SysTick->VAL   = 0UL;                                             /* Load the SysTick Counter Value */
 8002b9c:	2300      	movs	r3, #0
  SysTick->CTRL  = SysTick_CTRL_CLKSOURCE_Msk |
                   SysTick_CTRL_TICKINT_Msk   |
                   SysTick_CTRL_ENABLE_Msk;                         /* Enable SysTick IRQ and SysTick Timer */
  return (0UL);                                                     /* Function successful */
 8002b9e:	2000      	movs	r0, #0
  SysTick->VAL   = 0UL;                                             /* Load the SysTick Counter Value */
 8002ba0:	6093      	str	r3, [r2, #8]
  SysTick->CTRL  = SysTick_CTRL_CLKSOURCE_Msk |
 8002ba2:	3307      	adds	r3, #7
 8002ba4:	6013      	str	r3, [r2, #0]
  *                  - 1  Function failed.
  */
uint32_t HAL_SYSTICK_Config(uint32_t TicksNumb)
{
  return SysTick_Config(TicksNumb);
}
 8002ba6:	4770      	bx	lr
 8002ba8:	e000e010 	.word	0xe000e010
 8002bac:	e000ed00 	.word	0xe000ed00

08002bb0 <HAL_DMA_Init>:
  * @param hdma Pointer to a DMA_HandleTypeDef structure that contains
  *             the configuration information for the specified DMA Channel.
  * @retval HAL status
  */
HAL_StatusTypeDef HAL_DMA_Init(DMA_HandleTypeDef *hdma)
{
 8002bb0:	b5f0      	push	{r4, r5, r6, r7, lr}
 8002bb2:	46c6      	mov	lr, r8
 8002bb4:	0004      	movs	r4, r0
 8002bb6:	b500      	push	{lr}
  /* Check the DMA handle allocation */
  if (hdma == NULL)
 8002bb8:	2800      	cmp	r0, #0
 8002bba:	d060      	beq.n	8002c7e <HAL_DMA_Init+0xce>
    /* DMA2 */
    hdma->ChannelIndex = (((uint32_t)hdma->Instance - (uint32_t)DMA2_Channel1) / ((uint32_t)DMA2_Channel2 - (uint32_t)DMA2_Channel1)) << 2U;
    hdma->DmaBaseAddress = DMA2;
  }
#else
  hdma->ChannelIndex = (((uint32_t)hdma->Instance - (uint32_t)DMA1_Channel1) / ((uint32_t)DMA1_Channel2 - (uint32_t)DMA1_Channel1)) << 2U;
 8002bbc:	6805      	ldr	r5, [r0, #0]
 8002bbe:	4b31      	ldr	r3, [pc, #196]	@ (8002c84 <HAL_DMA_Init+0xd4>)
 8002bc0:	2114      	movs	r1, #20
 8002bc2:	18e8      	adds	r0, r5, r3
 8002bc4:	f7fd fa9e 	bl	8000104 <__udivsi3>
 8002bc8:	0083      	lsls	r3, r0, #2
 8002bca:	6423      	str	r3, [r4, #64]	@ 0x40
#endif /* DMA2 */

  /* Change DMA peripheral state */
  hdma->State = HAL_DMA_STATE_BUSY;
 8002bcc:	2202      	movs	r2, #2
 8002bce:	2325      	movs	r3, #37	@ 0x25
 8002bd0:	54e2      	strb	r2, [r4, r3]

  /* Clear PL, MSIZE, PSIZE, MINC, PINC, CIRC, DIR and MEM2MEM bits */
  CLEAR_BIT(hdma->Instance->CCR, (DMA_CCR_PL    | DMA_CCR_MSIZE  | DMA_CCR_PSIZE  | \
 8002bd2:	682b      	ldr	r3, [r5, #0]
 8002bd4:	4a2c      	ldr	r2, [pc, #176]	@ (8002c88 <HAL_DMA_Init+0xd8>)
                                  DMA_CCR_MINC  | DMA_CCR_PINC   | DMA_CCR_CIRC   | \
                                  DMA_CCR_DIR   | DMA_CCR_MEM2MEM));

  /* Set the DMA Channel configuration */
  SET_BIT(hdma->Instance->CCR, (hdma->Init.Direction           |                               \
 8002bd6:	68a6      	ldr	r6, [r4, #8]
  CLEAR_BIT(hdma->Instance->CCR, (DMA_CCR_PL    | DMA_CCR_MSIZE  | DMA_CCR_PSIZE  | \
 8002bd8:	4013      	ands	r3, r2
 8002bda:	602b      	str	r3, [r5, #0]
  SET_BIT(hdma->Instance->CCR, (hdma->Init.Direction           |                               \
 8002bdc:	68e3      	ldr	r3, [r4, #12]
 8002bde:	6921      	ldr	r1, [r4, #16]
 8002be0:	4333      	orrs	r3, r6
 8002be2:	430b      	orrs	r3, r1
 8002be4:	6961      	ldr	r1, [r4, #20]
 8002be6:	682a      	ldr	r2, [r5, #0]
 8002be8:	430b      	orrs	r3, r1
 8002bea:	69a1      	ldr	r1, [r4, #24]
 8002bec:	430b      	orrs	r3, r1
 8002bee:	69e1      	ldr	r1, [r4, #28]
 8002bf0:	430b      	orrs	r3, r1
 8002bf2:	6a21      	ldr	r1, [r4, #32]
 8002bf4:	430b      	orrs	r3, r1
 8002bf6:	4313      	orrs	r3, r2
 8002bf8:	602b      	str	r3, [r5, #0]
    /* Prepare channel_number used for DMAmuxChannelStatusMask computation */
    channel_number = (((((uint32_t)hdma->Instance & 0xFFU) - 8U) / 20U) + 7U);
  }
#else
  /* Associate a DMA Channel to a DMAMUX channel */
  hdma->DMAmuxChannel = (DMAMUX_Channel_TypeDef *)(uint32_t)((uint32_t)DMAMUX1_Channel0 + ((hdma->ChannelIndex >> 2U) * ((uint32_t)DMAMUX1_Channel1 - (uint32_t)DMAMUX1_Channel0)));
 8002bfa:	4b24      	ldr	r3, [pc, #144]	@ (8002c8c <HAL_DMA_Init+0xdc>)

  /* Prepare channel_number used for DMAmuxChannelStatusMask computation */
  channel_number = (((uint32_t)hdma->Instance & 0xFFU) - 8U) / 20U;
 8002bfc:	2114      	movs	r1, #20
  hdma->DMAmuxChannel = (DMAMUX_Channel_TypeDef *)(uint32_t)((uint32_t)DMAMUX1_Channel0 + ((hdma->ChannelIndex >> 2U) * ((uint32_t)DMAMUX1_Channel1 - (uint32_t)DMAMUX1_Channel0)));
 8002bfe:	469c      	mov	ip, r3
 8002c00:	4460      	add	r0, ip
 8002c02:	0087      	lsls	r7, r0, #2
  channel_number = (((uint32_t)hdma->Instance & 0xFFU) - 8U) / 20U;
 8002c04:	20ff      	movs	r0, #255	@ 0xff
#endif /* DMA2 */

  /* Initialize the field DMAmuxChannelStatus to DMAMUX1_ChannelStatus base */
  hdma->DMAmuxChannelStatus = DMAMUX1_ChannelStatus;
 8002c06:	4b22      	ldr	r3, [pc, #136]	@ (8002c90 <HAL_DMA_Init+0xe0>)
  channel_number = (((uint32_t)hdma->Instance & 0xFFU) - 8U) / 20U;
 8002c08:	4028      	ands	r0, r5
  hdma->DMAmuxChannelStatus = DMAMUX1_ChannelStatus;
 8002c0a:	64a3      	str	r3, [r4, #72]	@ 0x48
  hdma->DMAmuxChannel = (DMAMUX_Channel_TypeDef *)(uint32_t)((uint32_t)DMAMUX1_Channel0 + ((hdma->ChannelIndex >> 2U) * ((uint32_t)DMAMUX1_Channel1 - (uint32_t)DMAMUX1_Channel0)));
 8002c0c:	6467      	str	r7, [r4, #68]	@ 0x44
  channel_number = (((uint32_t)hdma->Instance & 0xFFU) - 8U) / 20U;
 8002c0e:	3808      	subs	r0, #8
  hdma->DMAmuxChannelStatus = DMAMUX1_ChannelStatus;
 8002c10:	4698      	mov	r8, r3
  channel_number = (((uint32_t)hdma->Instance & 0xFFU) - 8U) / 20U;
 8002c12:	f7fd fa77 	bl	8000104 <__udivsi3>

  /* Initialize the field DMAmuxChannelStatusMask with the corresponding index of the DMAMUX channel selected for the current ChannelIndex */
  hdma->DMAmuxChannelStatusMask = 1UL << (channel_number & 0x1FU);
 8002c16:	231f      	movs	r3, #31
 8002c18:	2201      	movs	r2, #1
 8002c1a:	4003      	ands	r3, r0
 8002c1c:	0010      	movs	r0, r2
 8002c1e:	4098      	lsls	r0, r3
  if (hdma->Init.Direction == DMA_MEMORY_TO_MEMORY)
 8002c20:	2380      	movs	r3, #128	@ 0x80
  hdma->DMAmuxChannelStatusMask = 1UL << (channel_number & 0x1FU);
 8002c22:	64e0      	str	r0, [r4, #76]	@ 0x4c
  if (hdma->Init.Direction == DMA_MEMORY_TO_MEMORY)
 8002c24:	01db      	lsls	r3, r3, #7
 8002c26:	429e      	cmp	r6, r3
 8002c28:	d01f      	beq.n	8002c6a <HAL_DMA_Init+0xba>
  hdma->DMAmuxChannel->CCR = (hdma->Init.Request & DMAMUX_CxCR_DMAREQ_ID);
 8002c2a:	233f      	movs	r3, #63	@ 0x3f
  hdma->DMAmuxChannelStatus->CFR = hdma->DMAmuxChannelStatusMask;
 8002c2c:	4645      	mov	r5, r8
  hdma->DMAmuxChannel->CCR = (hdma->Init.Request & DMAMUX_CxCR_DMAREQ_ID);
 8002c2e:	6861      	ldr	r1, [r4, #4]
 8002c30:	400b      	ands	r3, r1
  if (((hdma->Init.Request >  0UL) && (hdma->Init.Request <= DMA_REQUEST_GENERATOR3)))
 8002c32:	3901      	subs	r1, #1
  hdma->DMAmuxChannel->CCR = (hdma->Init.Request & DMAMUX_CxCR_DMAREQ_ID);
 8002c34:	603b      	str	r3, [r7, #0]
  hdma->DMAmuxChannelStatus->CFR = hdma->DMAmuxChannelStatusMask;
 8002c36:	6068      	str	r0, [r5, #4]
  if (((hdma->Init.Request >  0UL) && (hdma->Init.Request <= DMA_REQUEST_GENERATOR3)))
 8002c38:	2903      	cmp	r1, #3
 8002c3a:	d81b      	bhi.n	8002c74 <HAL_DMA_Init+0xc4>
static void DMA_CalcDMAMUXRequestGenBaseAndMask(DMA_HandleTypeDef *hdma)
{
  uint32_t request =  hdma->Init.Request & DMAMUX_CxCR_DMAREQ_ID;

  /* DMA Channels are connected to DMAMUX1 request generator blocks*/
  hdma->DMAmuxRequestGen = (DMAMUX_RequestGen_TypeDef *)((uint32_t)(((uint32_t)DMAMUX1_RequestGenerator0) + ((request - 1U) * 4U)));
 8002c3c:	4915      	ldr	r1, [pc, #84]	@ (8002c94 <HAL_DMA_Init+0xe4>)

  hdma->DMAmuxRequestGenStatus = DMAMUX1_RequestGenStatus;
 8002c3e:	4816      	ldr	r0, [pc, #88]	@ (8002c98 <HAL_DMA_Init+0xe8>)
  hdma->DMAmuxRequestGen = (DMAMUX_RequestGen_TypeDef *)((uint32_t)(((uint32_t)DMAMUX1_RequestGenerator0) + ((request - 1U) * 4U)));
 8002c40:	1859      	adds	r1, r3, r1

  /* here "Request" is either DMA_REQUEST_GENERATOR0 to DMA_REQUEST_GENERATOR3, i.e. <= 4*/
  hdma->DMAmuxRequestGenStatusMask = 1UL << ((request - 1U) & 0x3U);
 8002c42:	3b01      	subs	r3, #1
 8002c44:	409a      	lsls	r2, r3
    hdma->DMAmuxRequestGen->RGCR = 0U;
 8002c46:	2300      	movs	r3, #0
  hdma->DMAmuxRequestGen = (DMAMUX_RequestGen_TypeDef *)((uint32_t)(((uint32_t)DMAMUX1_RequestGenerator0) + ((request - 1U) * 4U)));
 8002c48:	0089      	lsls	r1, r1, #2
 8002c4a:	6521      	str	r1, [r4, #80]	@ 0x50
  hdma->DMAmuxRequestGenStatus = DMAMUX1_RequestGenStatus;
 8002c4c:	6560      	str	r0, [r4, #84]	@ 0x54
  hdma->DMAmuxRequestGenStatusMask = 1UL << ((request - 1U) & 0x3U);
 8002c4e:	65a2      	str	r2, [r4, #88]	@ 0x58
    hdma->DMAmuxRequestGen->RGCR = 0U;
 8002c50:	600b      	str	r3, [r1, #0]
    hdma->DMAmuxRequestGenStatus->RGCFR = hdma->DMAmuxRequestGenStatusMask;
 8002c52:	6042      	str	r2, [r0, #4]
  hdma->ErrorCode = HAL_DMA_ERROR_NONE;
 8002c54:	2300      	movs	r3, #0
  hdma->State = HAL_DMA_STATE_READY;
 8002c56:	2225      	movs	r2, #37	@ 0x25
 8002c58:	2101      	movs	r1, #1
  return HAL_OK;
 8002c5a:	2000      	movs	r0, #0
  hdma->ErrorCode = HAL_DMA_ERROR_NONE;
 8002c5c:	63e3      	str	r3, [r4, #60]	@ 0x3c
  hdma->State = HAL_DMA_STATE_READY;
 8002c5e:	54a1      	strb	r1, [r4, r2]
  __HAL_UNLOCK(hdma);
 8002c60:	3a01      	subs	r2, #1
 8002c62:	54a3      	strb	r3, [r4, r2]
}
 8002c64:	bc80      	pop	{r7}
 8002c66:	46b8      	mov	r8, r7
 8002c68:	bdf0      	pop	{r4, r5, r6, r7, pc}
    hdma->Init.Request = DMA_REQUEST_MEM2MEM;
 8002c6a:	2300      	movs	r3, #0
 8002c6c:	6063      	str	r3, [r4, #4]
  hdma->DMAmuxChannel->CCR = (hdma->Init.Request & DMAMUX_CxCR_DMAREQ_ID);
 8002c6e:	603b      	str	r3, [r7, #0]
  hdma->DMAmuxChannelStatus->CFR = hdma->DMAmuxChannelStatusMask;
 8002c70:	4643      	mov	r3, r8
 8002c72:	6058      	str	r0, [r3, #4]
    hdma->DMAmuxRequestGen = 0U;
 8002c74:	2300      	movs	r3, #0
 8002c76:	6523      	str	r3, [r4, #80]	@ 0x50
    hdma->DMAmuxRequestGenStatus = 0U;
 8002c78:	6563      	str	r3, [r4, #84]	@ 0x54
    hdma->DMAmuxRequestGenStatusMask = 0U;
 8002c7a:	65a3      	str	r3, [r4, #88]	@ 0x58
 8002c7c:	e7ea      	b.n	8002c54 <HAL_DMA_Init+0xa4>
    return HAL_ERROR;
 8002c7e:	2001      	movs	r0, #1
 8002c80:	e7f0      	b.n	8002c64 <HAL_DMA_Init+0xb4>
 8002c82:	46c0      	nop			@ (mov r8, r8)
 8002c84:	bffdfff8 	.word	0xbffdfff8
 8002c88:	ffff800f 	.word	0xffff800f
 8002c8c:	10008200 	.word	0x10008200
 8002c90:	40020880 	.word	0x40020880
 8002c94:	1000823f 	.word	0x1000823f
 8002c98:	40020940 	.word	0x40020940

08002c9c <HAL_DMA_Start_IT>:
{
 8002c9c:	b5f0      	push	{r4, r5, r6, r7, lr}
 8002c9e:	46c6      	mov	lr, r8
  __HAL_LOCK(hdma);
 8002ca0:	2424      	movs	r4, #36	@ 0x24
{
 8002ca2:	b500      	push	{lr}
  __HAL_LOCK(hdma);
 8002ca4:	5d05      	ldrb	r5, [r0, r4]
 8002ca6:	2d01      	cmp	r5, #1
 8002ca8:	d04f      	beq.n	8002d4a <HAL_DMA_Start_IT+0xae>
 8002caa:	2501      	movs	r5, #1
  if (hdma->State == HAL_DMA_STATE_READY)
 8002cac:	2625      	movs	r6, #37	@ 0x25
  __HAL_LOCK(hdma);
 8002cae:	5505      	strb	r5, [r0, r4]
  if (hdma->State == HAL_DMA_STATE_READY)
 8002cb0:	5d85      	ldrb	r5, [r0, r6]
 8002cb2:	b2ef      	uxtb	r7, r5
 8002cb4:	2d01      	cmp	r5, #1
 8002cb6:	d007      	beq.n	8002cc8 <HAL_DMA_Start_IT+0x2c>
    hdma->ErrorCode = HAL_DMA_ERROR_BUSY;
 8002cb8:	2380      	movs	r3, #128	@ 0x80
 8002cba:	63c3      	str	r3, [r0, #60]	@ 0x3c
    __HAL_UNLOCK(hdma);
 8002cbc:	2300      	movs	r3, #0
 8002cbe:	5503      	strb	r3, [r0, r4]
    status = HAL_ERROR;
 8002cc0:	2001      	movs	r0, #1
}
 8002cc2:	bc80      	pop	{r7}
 8002cc4:	46b8      	mov	r8, r7
 8002cc6:	bdf0      	pop	{r4, r5, r6, r7, pc}
    hdma->State = HAL_DMA_STATE_BUSY;
 8002cc8:	3c22      	subs	r4, #34	@ 0x22
 8002cca:	5584      	strb	r4, [r0, r6]
    hdma->ErrorCode = HAL_DMA_ERROR_NONE;
 8002ccc:	2400      	movs	r4, #0
 8002cce:	63c4      	str	r4, [r0, #60]	@ 0x3c
    __HAL_DMA_DISABLE(hdma);
 8002cd0:	6804      	ldr	r4, [r0, #0]
  hdma->DMAmuxChannelStatus->CFR = hdma->DMAmuxChannelStatusMask;
 8002cd2:	6cc6      	ldr	r6, [r0, #76]	@ 0x4c
    __HAL_DMA_DISABLE(hdma);
 8002cd4:	6825      	ldr	r5, [r4, #0]
 8002cd6:	43bd      	bics	r5, r7
 8002cd8:	6025      	str	r5, [r4, #0]
  hdma->DMAmuxChannelStatus->CFR = hdma->DMAmuxChannelStatusMask;
 8002cda:	6c85      	ldr	r5, [r0, #72]	@ 0x48
 8002cdc:	606e      	str	r6, [r5, #4]
  if (hdma->DMAmuxRequestGen != 0U)
 8002cde:	6d06      	ldr	r6, [r0, #80]	@ 0x50
 8002ce0:	2e00      	cmp	r6, #0
 8002ce2:	d002      	beq.n	8002cea <HAL_DMA_Start_IT+0x4e>
    hdma->DMAmuxRequestGenStatus->RGCFR = hdma->DMAmuxRequestGenStatusMask;
 8002ce4:	6d45      	ldr	r5, [r0, #84]	@ 0x54
 8002ce6:	6d87      	ldr	r7, [r0, #88]	@ 0x58
 8002ce8:	606f      	str	r7, [r5, #4]
  __HAL_DMA_CLEAR_FLAG(hdma, (DMA_FLAG_GI1 << (hdma->ChannelIndex & 0x1CU)));
 8002cea:	4d1f      	ldr	r5, [pc, #124]	@ (8002d68 <HAL_DMA_Start_IT+0xcc>)
 8002cec:	6c07      	ldr	r7, [r0, #64]	@ 0x40
 8002cee:	46ac      	mov	ip, r5
 8002cf0:	686d      	ldr	r5, [r5, #4]
 8002cf2:	46a8      	mov	r8, r5
 8002cf4:	251c      	movs	r5, #28
 8002cf6:	402f      	ands	r7, r5
 8002cf8:	3d1b      	subs	r5, #27
 8002cfa:	40bd      	lsls	r5, r7
 8002cfc:	4647      	mov	r7, r8
 8002cfe:	433d      	orrs	r5, r7
 8002d00:	4667      	mov	r7, ip
 8002d02:	607d      	str	r5, [r7, #4]
  hdma->Instance->CNDTR = DataLength;
 8002d04:	6063      	str	r3, [r4, #4]
  if ((hdma->Init.Direction) == DMA_MEMORY_TO_PERIPH)
 8002d06:	6883      	ldr	r3, [r0, #8]
 8002d08:	2b10      	cmp	r3, #16
 8002d0a:	d020      	beq.n	8002d4e <HAL_DMA_Start_IT+0xb2>
    hdma->Instance->CPAR = SrcAddress;
 8002d0c:	60a1      	str	r1, [r4, #8]
    hdma->Instance->CMAR = DstAddress;
 8002d0e:	60e2      	str	r2, [r4, #12]
    if (NULL != hdma->XferHalfCpltCallback)
 8002d10:	6b03      	ldr	r3, [r0, #48]	@ 0x30
 8002d12:	2b00      	cmp	r3, #0
 8002d14:	d01e      	beq.n	8002d54 <HAL_DMA_Start_IT+0xb8>
      __HAL_DMA_ENABLE_IT(hdma, (DMA_IT_TC | DMA_IT_HT | DMA_IT_TE));
 8002d16:	220e      	movs	r2, #14
 8002d18:	6823      	ldr	r3, [r4, #0]
 8002d1a:	4313      	orrs	r3, r2
 8002d1c:	6023      	str	r3, [r4, #0]
    if ((hdma->DMAmuxChannel->CCR & DMAMUX_CxCR_SE) != 0U)
 8002d1e:	6c42      	ldr	r2, [r0, #68]	@ 0x44
 8002d20:	6813      	ldr	r3, [r2, #0]
 8002d22:	03db      	lsls	r3, r3, #15
 8002d24:	d504      	bpl.n	8002d30 <HAL_DMA_Start_IT+0x94>
      hdma->DMAmuxChannel->CCR |= DMAMUX_CxCR_SOIE;
 8002d26:	2380      	movs	r3, #128	@ 0x80
 8002d28:	6811      	ldr	r1, [r2, #0]
 8002d2a:	005b      	lsls	r3, r3, #1
 8002d2c:	430b      	orrs	r3, r1
 8002d2e:	6013      	str	r3, [r2, #0]
    if (hdma->DMAmuxRequestGen != 0U)
 8002d30:	2e00      	cmp	r6, #0
 8002d32:	d004      	beq.n	8002d3e <HAL_DMA_Start_IT+0xa2>
      hdma->DMAmuxRequestGen->RGCR |= DMAMUX_RGxCR_OIE;
 8002d34:	2380      	movs	r3, #128	@ 0x80
 8002d36:	6832      	ldr	r2, [r6, #0]
 8002d38:	005b      	lsls	r3, r3, #1
 8002d3a:	4313      	orrs	r3, r2
 8002d3c:	6033      	str	r3, [r6, #0]
    __HAL_DMA_ENABLE(hdma);
 8002d3e:	2201      	movs	r2, #1
 8002d40:	6823      	ldr	r3, [r4, #0]
  HAL_StatusTypeDef status = HAL_OK;
 8002d42:	2000      	movs	r0, #0
    __HAL_DMA_ENABLE(hdma);
 8002d44:	4313      	orrs	r3, r2
 8002d46:	6023      	str	r3, [r4, #0]
 8002d48:	e7bb      	b.n	8002cc2 <HAL_DMA_Start_IT+0x26>
  __HAL_LOCK(hdma);
 8002d4a:	2002      	movs	r0, #2
 8002d4c:	e7b9      	b.n	8002cc2 <HAL_DMA_Start_IT+0x26>
    hdma->Instance->CPAR = DstAddress;
 8002d4e:	60a2      	str	r2, [r4, #8]
    hdma->Instance->CMAR = SrcAddress;
 8002d50:	60e1      	str	r1, [r4, #12]
 8002d52:	e7dd      	b.n	8002d10 <HAL_DMA_Start_IT+0x74>
      __HAL_DMA_DISABLE_IT(hdma, DMA_IT_HT);
 8002d54:	2204      	movs	r2, #4
 8002d56:	6823      	ldr	r3, [r4, #0]
 8002d58:	4393      	bics	r3, r2
 8002d5a:	6023      	str	r3, [r4, #0]
      __HAL_DMA_ENABLE_IT(hdma, (DMA_IT_TC | DMA_IT_TE));
 8002d5c:	6823      	ldr	r3, [r4, #0]
 8002d5e:	3206      	adds	r2, #6
 8002d60:	4313      	orrs	r3, r2
 8002d62:	6023      	str	r3, [r4, #0]
 8002d64:	e7db      	b.n	8002d1e <HAL_DMA_Start_IT+0x82>
 8002d66:	46c0      	nop			@ (mov r8, r8)
 8002d68:	40020000 	.word	0x40020000

08002d6c <HAL_DMA_Abort>:
{
 8002d6c:	b570      	push	{r4, r5, r6, lr}
  if (NULL == hdma)
 8002d6e:	2800      	cmp	r0, #0
 8002d70:	d032      	beq.n	8002dd8 <HAL_DMA_Abort+0x6c>
  if (hdma->State != HAL_DMA_STATE_BUSY)
 8002d72:	2325      	movs	r3, #37	@ 0x25
 8002d74:	5cc3      	ldrb	r3, [r0, r3]
 8002d76:	2b02      	cmp	r3, #2
 8002d78:	d129      	bne.n	8002dce <HAL_DMA_Abort+0x62>
    __HAL_DMA_DISABLE_IT(hdma, (DMA_IT_TC | DMA_IT_HT | DMA_IT_TE));
 8002d7a:	210e      	movs	r1, #14
 8002d7c:	6802      	ldr	r2, [r0, #0]
    hdma->DMAmuxChannel->CCR &= ~DMAMUX_CxCR_SOIE;
 8002d7e:	4c17      	ldr	r4, [pc, #92]	@ (8002ddc <HAL_DMA_Abort+0x70>)
    __HAL_DMA_DISABLE_IT(hdma, (DMA_IT_TC | DMA_IT_HT | DMA_IT_TE));
 8002d80:	6813      	ldr	r3, [r2, #0]
    __HAL_DMA_CLEAR_FLAG(hdma, ((DMA_FLAG_GI1) << (hdma->ChannelIndex  & 0x1CU)));
 8002d82:	261c      	movs	r6, #28
    __HAL_DMA_DISABLE_IT(hdma, (DMA_IT_TC | DMA_IT_HT | DMA_IT_TE));
 8002d84:	438b      	bics	r3, r1
    hdma->DMAmuxChannel->CCR &= ~DMAMUX_CxCR_SOIE;
 8002d86:	6c41      	ldr	r1, [r0, #68]	@ 0x44
    __HAL_DMA_DISABLE_IT(hdma, (DMA_IT_TC | DMA_IT_HT | DMA_IT_TE));
 8002d88:	6013      	str	r3, [r2, #0]
    hdma->DMAmuxChannel->CCR &= ~DMAMUX_CxCR_SOIE;
 8002d8a:	680b      	ldr	r3, [r1, #0]
 8002d8c:	4023      	ands	r3, r4
 8002d8e:	600b      	str	r3, [r1, #0]
    __HAL_DMA_DISABLE(hdma);
 8002d90:	2301      	movs	r3, #1
 8002d92:	6811      	ldr	r1, [r2, #0]
 8002d94:	4399      	bics	r1, r3
 8002d96:	6011      	str	r1, [r2, #0]
    __HAL_DMA_CLEAR_FLAG(hdma, ((DMA_FLAG_GI1) << (hdma->ChannelIndex  & 0x1CU)));
 8002d98:	6c02      	ldr	r2, [r0, #64]	@ 0x40
 8002d9a:	4911      	ldr	r1, [pc, #68]	@ (8002de0 <HAL_DMA_Abort+0x74>)
 8002d9c:	4032      	ands	r2, r6
 8002d9e:	4093      	lsls	r3, r2
 8002da0:	684d      	ldr	r5, [r1, #4]
 8002da2:	432b      	orrs	r3, r5
 8002da4:	604b      	str	r3, [r1, #4]
    hdma->DMAmuxChannelStatus->CFR = hdma->DMAmuxChannelStatusMask;
 8002da6:	6cc2      	ldr	r2, [r0, #76]	@ 0x4c
 8002da8:	6c83      	ldr	r3, [r0, #72]	@ 0x48
 8002daa:	605a      	str	r2, [r3, #4]
    if (hdma->DMAmuxRequestGen != 0U)
 8002dac:	6d03      	ldr	r3, [r0, #80]	@ 0x50
 8002dae:	2b00      	cmp	r3, #0
 8002db0:	d005      	beq.n	8002dbe <HAL_DMA_Abort+0x52>
      hdma->DMAmuxRequestGen->RGCR &= ~DMAMUX_RGxCR_OIE;
 8002db2:	681a      	ldr	r2, [r3, #0]
 8002db4:	4022      	ands	r2, r4
 8002db6:	601a      	str	r2, [r3, #0]
      hdma->DMAmuxRequestGenStatus->RGCFR = hdma->DMAmuxRequestGenStatusMask;
 8002db8:	6d43      	ldr	r3, [r0, #84]	@ 0x54
 8002dba:	6d82      	ldr	r2, [r0, #88]	@ 0x58
 8002dbc:	605a      	str	r2, [r3, #4]
    hdma->State = HAL_DMA_STATE_READY;
 8002dbe:	2325      	movs	r3, #37	@ 0x25
 8002dc0:	2201      	movs	r2, #1
 8002dc2:	54c2      	strb	r2, [r0, r3]
    __HAL_UNLOCK(hdma);
 8002dc4:	2200      	movs	r2, #0
 8002dc6:	3b01      	subs	r3, #1
 8002dc8:	54c2      	strb	r2, [r0, r3]
  return HAL_OK;
 8002dca:	2000      	movs	r0, #0
}
 8002dcc:	bd70      	pop	{r4, r5, r6, pc}
    hdma->ErrorCode = HAL_DMA_ERROR_NO_XFER;
 8002dce:	2304      	movs	r3, #4
    __HAL_UNLOCK(hdma);
 8002dd0:	2200      	movs	r2, #0
    hdma->ErrorCode = HAL_DMA_ERROR_NO_XFER;
 8002dd2:	63c3      	str	r3, [r0, #60]	@ 0x3c
    __HAL_UNLOCK(hdma);
 8002dd4:	3320      	adds	r3, #32
 8002dd6:	54c2      	strb	r2, [r0, r3]
    return HAL_ERROR;
 8002dd8:	2001      	movs	r0, #1
 8002dda:	e7f7      	b.n	8002dcc <HAL_DMA_Abort+0x60>
 8002ddc:	fffffeff 	.word	0xfffffeff
 8002de0:	40020000 	.word	0x40020000

08002de4 <HAL_DMA_Abort_IT>:
  if (hdma->State != HAL_DMA_STATE_BUSY)
 8002de4:	2325      	movs	r3, #37	@ 0x25
{
 8002de6:	b570      	push	{r4, r5, r6, lr}
  if (hdma->State != HAL_DMA_STATE_BUSY)
 8002de8:	5cc3      	ldrb	r3, [r0, r3]
 8002dea:	2b02      	cmp	r3, #2
 8002dec:	d003      	beq.n	8002df6 <HAL_DMA_Abort_IT+0x12>
    hdma->ErrorCode = HAL_DMA_ERROR_NO_XFER;
 8002dee:	2304      	movs	r3, #4
 8002df0:	63c3      	str	r3, [r0, #60]	@ 0x3c
    status = HAL_ERROR;
 8002df2:	2001      	movs	r0, #1
}
 8002df4:	bd70      	pop	{r4, r5, r6, pc}
    __HAL_DMA_DISABLE_IT(hdma, (DMA_IT_TC | DMA_IT_HT | DMA_IT_TE));
 8002df6:	210e      	movs	r1, #14
 8002df8:	6802      	ldr	r2, [r0, #0]
    __HAL_DMA_CLEAR_FLAG(hdma, ((DMA_FLAG_GI1) << (hdma->ChannelIndex & 0x1CU)));
 8002dfa:	261c      	movs	r6, #28
    __HAL_DMA_DISABLE_IT(hdma, (DMA_IT_TC | DMA_IT_HT | DMA_IT_TE));
 8002dfc:	6813      	ldr	r3, [r2, #0]
    hdma->DMAmuxChannel->CCR &= ~DMAMUX_CxCR_SOIE;
 8002dfe:	4c15      	ldr	r4, [pc, #84]	@ (8002e54 <HAL_DMA_Abort_IT+0x70>)
    __HAL_DMA_DISABLE_IT(hdma, (DMA_IT_TC | DMA_IT_HT | DMA_IT_TE));
 8002e00:	438b      	bics	r3, r1
 8002e02:	6013      	str	r3, [r2, #0]
    __HAL_DMA_DISABLE(hdma);
 8002e04:	2301      	movs	r3, #1
 8002e06:	6811      	ldr	r1, [r2, #0]
 8002e08:	4399      	bics	r1, r3
 8002e0a:	6011      	str	r1, [r2, #0]
    hdma->DMAmuxChannel->CCR &= ~DMAMUX_CxCR_SOIE;
 8002e0c:	6c41      	ldr	r1, [r0, #68]	@ 0x44
 8002e0e:	680a      	ldr	r2, [r1, #0]
 8002e10:	4022      	ands	r2, r4
 8002e12:	600a      	str	r2, [r1, #0]
    __HAL_DMA_CLEAR_FLAG(hdma, ((DMA_FLAG_GI1) << (hdma->ChannelIndex & 0x1CU)));
 8002e14:	6c02      	ldr	r2, [r0, #64]	@ 0x40
 8002e16:	4910      	ldr	r1, [pc, #64]	@ (8002e58 <HAL_DMA_Abort_IT+0x74>)
 8002e18:	4032      	ands	r2, r6
 8002e1a:	4093      	lsls	r3, r2
 8002e1c:	684d      	ldr	r5, [r1, #4]
 8002e1e:	432b      	orrs	r3, r5
 8002e20:	604b      	str	r3, [r1, #4]
    hdma->DMAmuxChannelStatus->CFR = hdma->DMAmuxChannelStatusMask;
 8002e22:	6cc2      	ldr	r2, [r0, #76]	@ 0x4c
 8002e24:	6c83      	ldr	r3, [r0, #72]	@ 0x48
 8002e26:	605a      	str	r2, [r3, #4]
    if (hdma->DMAmuxRequestGen != 0U)
 8002e28:	6d03      	ldr	r3, [r0, #80]	@ 0x50
 8002e2a:	2b00      	cmp	r3, #0
 8002e2c:	d005      	beq.n	8002e3a <HAL_DMA_Abort_IT+0x56>
      hdma->DMAmuxRequestGen->RGCR &= ~DMAMUX_RGxCR_OIE;
 8002e2e:	681a      	ldr	r2, [r3, #0]
 8002e30:	4022      	ands	r2, r4
 8002e32:	601a      	str	r2, [r3, #0]
      hdma->DMAmuxRequestGenStatus->RGCFR = hdma->DMAmuxRequestGenStatusMask;
 8002e34:	6d43      	ldr	r3, [r0, #84]	@ 0x54
 8002e36:	6d82      	ldr	r2, [r0, #88]	@ 0x58
 8002e38:	605a      	str	r2, [r3, #4]
    hdma->State = HAL_DMA_STATE_READY;
 8002e3a:	2325      	movs	r3, #37	@ 0x25
 8002e3c:	2201      	movs	r2, #1
 8002e3e:	54c2      	strb	r2, [r0, r3]
    __HAL_UNLOCK(hdma);
 8002e40:	2200      	movs	r2, #0
 8002e42:	3b01      	subs	r3, #1
 8002e44:	54c2      	strb	r2, [r0, r3]
    if (hdma->XferAbortCallback != NULL)
 8002e46:	6b83      	ldr	r3, [r0, #56]	@ 0x38
 8002e48:	2b00      	cmp	r3, #0
 8002e4a:	d000      	beq.n	8002e4e <HAL_DMA_Abort_IT+0x6a>
      hdma->XferAbortCallback(hdma);
 8002e4c:	4798      	blx	r3
  HAL_StatusTypeDef status = HAL_OK;
 8002e4e:	2000      	movs	r0, #0
 8002e50:	e7d0      	b.n	8002df4 <HAL_DMA_Abort_IT+0x10>
 8002e52:	46c0      	nop			@ (mov r8, r8)
 8002e54:	fffffeff 	.word	0xfffffeff
 8002e58:	40020000 	.word	0x40020000

08002e5c <HAL_DMA_IRQHandler>:
{
 8002e5c:	b570      	push	{r4, r5, r6, lr}
  if (((flag_it & (DMA_FLAG_HT1 << (hdma->ChannelIndex & 0x1CU))) != 0U) && ((source_it & DMA_IT_HT) != 0U))
 8002e5e:	211c      	movs	r1, #28
 8002e60:	2404      	movs	r4, #4
  uint32_t flag_it = DMA1->ISR;
 8002e62:	4b2b      	ldr	r3, [pc, #172]	@ (8002f10 <HAL_DMA_IRQHandler+0xb4>)
  uint32_t source_it = hdma->Instance->CCR;
 8002e64:	6806      	ldr	r6, [r0, #0]
  uint32_t flag_it = DMA1->ISR;
 8002e66:	681a      	ldr	r2, [r3, #0]
  if (((flag_it & (DMA_FLAG_HT1 << (hdma->ChannelIndex & 0x1CU))) != 0U) && ((source_it & DMA_IT_HT) != 0U))
 8002e68:	6c03      	ldr	r3, [r0, #64]	@ 0x40
  uint32_t source_it = hdma->Instance->CCR;
 8002e6a:	6835      	ldr	r5, [r6, #0]
  if (((flag_it & (DMA_FLAG_HT1 << (hdma->ChannelIndex & 0x1CU))) != 0U) && ((source_it & DMA_IT_HT) != 0U))
 8002e6c:	400b      	ands	r3, r1
 8002e6e:	0021      	movs	r1, r4
 8002e70:	4099      	lsls	r1, r3
 8002e72:	420a      	tst	r2, r1
 8002e74:	d010      	beq.n	8002e98 <HAL_DMA_IRQHandler+0x3c>
 8002e76:	422c      	tst	r4, r5
 8002e78:	d00e      	beq.n	8002e98 <HAL_DMA_IRQHandler+0x3c>
      if ((hdma->Instance->CCR & DMA_CCR_CIRC) == 0U)
 8002e7a:	6833      	ldr	r3, [r6, #0]
 8002e7c:	069b      	lsls	r3, r3, #26
 8002e7e:	d402      	bmi.n	8002e86 <HAL_DMA_IRQHandler+0x2a>
        __HAL_DMA_DISABLE_IT(hdma, DMA_IT_HT);
 8002e80:	6833      	ldr	r3, [r6, #0]
 8002e82:	43a3      	bics	r3, r4
 8002e84:	6033      	str	r3, [r6, #0]
      __HAL_DMA_CLEAR_FLAG(hdma, (DMA_FLAG_HT1 << (hdma->ChannelIndex & 0x1CU)));
 8002e86:	4b22      	ldr	r3, [pc, #136]	@ (8002f10 <HAL_DMA_IRQHandler+0xb4>)
 8002e88:	685a      	ldr	r2, [r3, #4]
 8002e8a:	4311      	orrs	r1, r2
 8002e8c:	6059      	str	r1, [r3, #4]
      if (hdma->XferHalfCpltCallback != NULL)
 8002e8e:	6b03      	ldr	r3, [r0, #48]	@ 0x30
 8002e90:	2b00      	cmp	r3, #0
 8002e92:	d000      	beq.n	8002e96 <HAL_DMA_IRQHandler+0x3a>
      hdma->XferErrorCallback(hdma);
 8002e94:	4798      	blx	r3
}
 8002e96:	bd70      	pop	{r4, r5, r6, pc}
  else if ((0U != (flag_it & (DMA_FLAG_TC1 << (hdma->ChannelIndex & 0x1CU)))) && (0U != (source_it & DMA_IT_TC)))
 8002e98:	2402      	movs	r4, #2
 8002e9a:	0021      	movs	r1, r4
 8002e9c:	4099      	lsls	r1, r3
 8002e9e:	420a      	tst	r2, r1
 8002ea0:	d017      	beq.n	8002ed2 <HAL_DMA_IRQHandler+0x76>
 8002ea2:	422c      	tst	r4, r5
 8002ea4:	d015      	beq.n	8002ed2 <HAL_DMA_IRQHandler+0x76>
      if ((hdma->Instance->CCR & DMA_CCR_CIRC) == 0U)
 8002ea6:	6833      	ldr	r3, [r6, #0]
 8002ea8:	069b      	lsls	r3, r3, #26
 8002eaa:	d406      	bmi.n	8002eba <HAL_DMA_IRQHandler+0x5e>
        __HAL_DMA_DISABLE_IT(hdma, DMA_IT_TE | DMA_IT_TC);
 8002eac:	220a      	movs	r2, #10
 8002eae:	6833      	ldr	r3, [r6, #0]
 8002eb0:	4393      	bics	r3, r2
 8002eb2:	6033      	str	r3, [r6, #0]
        hdma->State = HAL_DMA_STATE_READY;
 8002eb4:	2325      	movs	r3, #37	@ 0x25
 8002eb6:	3a09      	subs	r2, #9
 8002eb8:	54c2      	strb	r2, [r0, r3]
      __HAL_DMA_CLEAR_FLAG(hdma, (DMA_FLAG_TC1 << (hdma->ChannelIndex & 0x1CU)));
 8002eba:	4b15      	ldr	r3, [pc, #84]	@ (8002f10 <HAL_DMA_IRQHandler+0xb4>)
 8002ebc:	685a      	ldr	r2, [r3, #4]
 8002ebe:	4311      	orrs	r1, r2
 8002ec0:	6059      	str	r1, [r3, #4]
      __HAL_UNLOCK(hdma);
 8002ec2:	2200      	movs	r2, #0
 8002ec4:	2324      	movs	r3, #36	@ 0x24
 8002ec6:	54c2      	strb	r2, [r0, r3]
      if (hdma->XferCpltCallback != NULL)
 8002ec8:	6ac3      	ldr	r3, [r0, #44]	@ 0x2c
 8002eca:	2b00      	cmp	r3, #0
 8002ecc:	d0e3      	beq.n	8002e96 <HAL_DMA_IRQHandler+0x3a>
      hdma->XferErrorCallback(hdma);
 8002ece:	4798      	blx	r3
  return;
 8002ed0:	e7e1      	b.n	8002e96 <HAL_DMA_IRQHandler+0x3a>
  else if (((flag_it & (DMA_FLAG_TE1 << (hdma->ChannelIndex & 0x1CU))) != 0U) && ((source_it & DMA_IT_TE) != 0U))
 8002ed2:	2108      	movs	r1, #8
 8002ed4:	000c      	movs	r4, r1
 8002ed6:	409c      	lsls	r4, r3
 8002ed8:	4222      	tst	r2, r4
 8002eda:	d0dc      	beq.n	8002e96 <HAL_DMA_IRQHandler+0x3a>
 8002edc:	4229      	tst	r1, r5
 8002ede:	d0da      	beq.n	8002e96 <HAL_DMA_IRQHandler+0x3a>
    __HAL_DMA_DISABLE_IT(hdma, (DMA_IT_TC | DMA_IT_HT | DMA_IT_TE));
 8002ee0:	6832      	ldr	r2, [r6, #0]
 8002ee2:	3106      	adds	r1, #6
 8002ee4:	438a      	bics	r2, r1
 8002ee6:	6032      	str	r2, [r6, #0]
    __HAL_DMA_CLEAR_FLAG(hdma, (DMA_FLAG_GI1 << (hdma->ChannelIndex & 0x1CU)));
 8002ee8:	2201      	movs	r2, #1
 8002eea:	0015      	movs	r5, r2
 8002eec:	409d      	lsls	r5, r3
 8002eee:	002b      	movs	r3, r5
 8002ef0:	4907      	ldr	r1, [pc, #28]	@ (8002f10 <HAL_DMA_IRQHandler+0xb4>)
 8002ef2:	684c      	ldr	r4, [r1, #4]
 8002ef4:	4323      	orrs	r3, r4
 8002ef6:	604b      	str	r3, [r1, #4]
    hdma->State = HAL_DMA_STATE_READY;
 8002ef8:	2325      	movs	r3, #37	@ 0x25
    hdma->ErrorCode = HAL_DMA_ERROR_TE;
 8002efa:	63c2      	str	r2, [r0, #60]	@ 0x3c
    hdma->State = HAL_DMA_STATE_READY;
 8002efc:	54c2      	strb	r2, [r0, r3]
    __HAL_UNLOCK(hdma);
 8002efe:	2200      	movs	r2, #0
 8002f00:	3b01      	subs	r3, #1
 8002f02:	54c2      	strb	r2, [r0, r3]
    if (hdma->XferErrorCallback != NULL)
 8002f04:	6b43      	ldr	r3, [r0, #52]	@ 0x34
 8002f06:	2b00      	cmp	r3, #0
 8002f08:	d0c5      	beq.n	8002e96 <HAL_DMA_IRQHandler+0x3a>
      hdma->XferErrorCallback(hdma);
 8002f0a:	4798      	blx	r3
  return;
 8002f0c:	e7c3      	b.n	8002e96 <HAL_DMA_IRQHandler+0x3a>
 8002f0e:	46c0      	nop			@ (mov r8, r8)
 8002f10:	40020000 	.word	0x40020000

08002f14 <HAL_GPIO_Init>:
  * @param  GPIO_Init pointer to a GPIO_InitTypeDef structure that contains
  *         the configuration information for the specified GPIO peripheral.
  * @retval None
  */
void HAL_GPIO_Init(GPIO_TypeDef  *GPIOx, GPIO_InitTypeDef *GPIO_Init)
{
 8002f14:	b5f0      	push	{r4, r5, r6, r7, lr}
 8002f16:	46de      	mov	lr, fp
 8002f18:	4657      	mov	r7, sl
 8002f1a:	464e      	mov	r6, r9
 8002f1c:	4645      	mov	r5, r8
 8002f1e:	b5e0      	push	{r5, r6, r7, lr}
  assert_param(IS_GPIO_ALL_INSTANCE(GPIOx));
  assert_param(IS_GPIO_PIN(GPIO_Init->Pin));
  assert_param(IS_GPIO_MODE(GPIO_Init->Mode));

  /* Configure the port pins */
  while (((GPIO_Init->Pin) >> position) != 0x00u)
 8002f20:	680c      	ldr	r4, [r1, #0]
{
 8002f22:	468b      	mov	fp, r1
  uint32_t position = 0x00u;
 8002f24:	2300      	movs	r3, #0
{
 8002f26:	b083      	sub	sp, #12
  while (((GPIO_Init->Pin) >> position) != 0x00u)
 8002f28:	2c00      	cmp	r4, #0
 8002f2a:	d068      	beq.n	8002ffe <HAL_GPIO_Init+0xea>
  {
    /* Get current io position */
    iocurrent = (GPIO_Init->Pin) & (1uL << position);
 8002f2c:	2201      	movs	r2, #1
 8002f2e:	409a      	lsls	r2, r3
 8002f30:	4694      	mov	ip, r2
 8002f32:	4022      	ands	r2, r4
 8002f34:	4692      	mov	sl, r2

    if (iocurrent != 0x00u)
 8002f36:	4662      	mov	r2, ip
 8002f38:	4214      	tst	r4, r2
 8002f3a:	d05c      	beq.n	8002ff6 <HAL_GPIO_Init+0xe2>
        /* Check the Speed parameter */
        assert_param(IS_GPIO_SPEED(GPIO_Init->Speed));

        /* Configure the IO Speed */
        temp = GPIOx->OSPEEDR;
        temp &= ~(GPIO_OSPEEDR_OSPEED0 << (position * 2u));
 8002f3c:	2103      	movs	r1, #3
      if (((GPIO_Init->Mode & GPIO_MODE) == MODE_OUTPUT) || ((GPIO_Init->Mode & GPIO_MODE) == MODE_AF))
 8002f3e:	465a      	mov	r2, fp
 8002f40:	005f      	lsls	r7, r3, #1
        temp &= ~(GPIO_OSPEEDR_OSPEED0 << (position * 2u));
 8002f42:	40b9      	lsls	r1, r7
      if (((GPIO_Init->Mode & GPIO_MODE) == MODE_OUTPUT) || ((GPIO_Init->Mode & GPIO_MODE) == MODE_AF))
 8002f44:	6855      	ldr	r5, [r2, #4]
 8002f46:	2203      	movs	r2, #3
        temp &= ~(GPIO_OSPEEDR_OSPEED0 << (position * 2u));
 8002f48:	43c9      	mvns	r1, r1
      if (((GPIO_Init->Mode & GPIO_MODE) == MODE_OUTPUT) || ((GPIO_Init->Mode & GPIO_MODE) == MODE_AF))
 8002f4a:	402a      	ands	r2, r5
 8002f4c:	1e56      	subs	r6, r2, #1
        temp &= ~(GPIO_OSPEEDR_OSPEED0 << (position * 2u));
 8002f4e:	9100      	str	r1, [sp, #0]
      if (((GPIO_Init->Mode & GPIO_MODE) == MODE_OUTPUT) || ((GPIO_Init->Mode & GPIO_MODE) == MODE_AF))
 8002f50:	2e01      	cmp	r6, #1
 8002f52:	d95b      	bls.n	800300c <HAL_GPIO_Init+0xf8>
        temp &= ~(GPIO_OTYPER_OT0 << position) ;
        temp |= (((GPIO_Init->Mode & OUTPUT_TYPE) >> OUTPUT_TYPE_Pos) << position);
        GPIOx->OTYPER = temp;
      }

      if ((GPIO_Init->Mode & GPIO_MODE) != MODE_ANALOG)
 8002f54:	2a03      	cmp	r2, #3
 8002f56:	d000      	beq.n	8002f5a <HAL_GPIO_Init+0x46>
 8002f58:	e0ad      	b.n	80030b6 <HAL_GPIO_Init+0x1a2>
      }

      /* Configure IO Direction mode (Input, Output, Alternate or Analog) */
      temp = GPIOx->MODER;
      temp &= ~(GPIO_MODER_MODE0 << (position * 2u));
      temp |= ((GPIO_Init->Mode & GPIO_MODE) << (position * 2u));
 8002f5a:	40ba      	lsls	r2, r7
      temp = GPIOx->MODER;
 8002f5c:	6806      	ldr	r6, [r0, #0]
      temp &= ~(GPIO_MODER_MODE0 << (position * 2u));
 8002f5e:	9900      	ldr	r1, [sp, #0]
 8002f60:	4031      	ands	r1, r6
      temp |= ((GPIO_Init->Mode & GPIO_MODE) << (position * 2u));
 8002f62:	430a      	orrs	r2, r1
      GPIOx->MODER = temp;
 8002f64:	6002      	str	r2, [r0, #0]

      /*--------------------- EXTI Mode Configuration ------------------------*/
      /* Configure the External Interrupt or event for the current IO */
      if ((GPIO_Init->Mode & EXTI_MODE) != 0x00u)
 8002f66:	22c0      	movs	r2, #192	@ 0xc0
 8002f68:	0292      	lsls	r2, r2, #10
 8002f6a:	4215      	tst	r5, r2
 8002f6c:	d043      	beq.n	8002ff6 <HAL_GPIO_Init+0xe2>
      {
        temp = EXTI->EXTICR[position >> 2u];
        temp &= ~(0x0FuL << (8u * (position & 0x03u)));
 8002f6e:	2703      	movs	r7, #3
 8002f70:	260f      	movs	r6, #15
 8002f72:	495d      	ldr	r1, [pc, #372]	@ (80030e8 <HAL_GPIO_Init+0x1d4>)
 8002f74:	401f      	ands	r7, r3
 8002f76:	468c      	mov	ip, r1
 8002f78:	00ff      	lsls	r7, r7, #3
 8002f7a:	40be      	lsls	r6, r7
        temp = EXTI->EXTICR[position >> 2u];
 8002f7c:	089a      	lsrs	r2, r3, #2
 8002f7e:	0092      	lsls	r2, r2, #2
 8002f80:	4462      	add	r2, ip
 8002f82:	6e11      	ldr	r1, [r2, #96]	@ 0x60
        temp &= ~(0x0FuL << (8u * (position & 0x03u)));
 8002f84:	43b1      	bics	r1, r6
        temp |= (GPIO_GET_INDEX(GPIOx) << (8u * (position & 0x03u)));
 8002f86:	26a0      	movs	r6, #160	@ 0xa0
 8002f88:	05f6      	lsls	r6, r6, #23
 8002f8a:	42b0      	cmp	r0, r6
 8002f8c:	d00e      	beq.n	8002fac <HAL_GPIO_Init+0x98>
 8002f8e:	4e57      	ldr	r6, [pc, #348]	@ (80030ec <HAL_GPIO_Init+0x1d8>)
 8002f90:	42b0      	cmp	r0, r6
 8002f92:	d100      	bne.n	8002f96 <HAL_GPIO_Init+0x82>
 8002f94:	e0a0      	b.n	80030d8 <HAL_GPIO_Init+0x1c4>
 8002f96:	4e56      	ldr	r6, [pc, #344]	@ (80030f0 <HAL_GPIO_Init+0x1dc>)
 8002f98:	42b0      	cmp	r0, r6
 8002f9a:	d100      	bne.n	8002f9e <HAL_GPIO_Init+0x8a>
 8002f9c:	e0a0      	b.n	80030e0 <HAL_GPIO_Init+0x1cc>
 8002f9e:	4e55      	ldr	r6, [pc, #340]	@ (80030f4 <HAL_GPIO_Init+0x1e0>)
 8002fa0:	42b0      	cmp	r0, r6
 8002fa2:	d100      	bne.n	8002fa6 <HAL_GPIO_Init+0x92>
 8002fa4:	e094      	b.n	80030d0 <HAL_GPIO_Init+0x1bc>
 8002fa6:	2605      	movs	r6, #5
 8002fa8:	40be      	lsls	r6, r7
 8002faa:	4331      	orrs	r1, r6
        EXTI->EXTICR[position >> 2u] = temp;

        /* Clear Rising Falling edge configuration */
        temp = EXTI->RTSR1;
        temp &= ~(iocurrent);
        if ((GPIO_Init->Mode & TRIGGER_RISING) != 0x00u)
 8002fac:	2680      	movs	r6, #128	@ 0x80
        EXTI->EXTICR[position >> 2u] = temp;
 8002fae:	6611      	str	r1, [r2, #96]	@ 0x60
        temp &= ~(iocurrent);
 8002fb0:	4651      	mov	r1, sl
        temp = EXTI->RTSR1;
 8002fb2:	4a4d      	ldr	r2, [pc, #308]	@ (80030e8 <HAL_GPIO_Init+0x1d4>)
        if ((GPIO_Init->Mode & TRIGGER_RISING) != 0x00u)
 8002fb4:	0376      	lsls	r6, r6, #13
        temp &= ~(iocurrent);
 8002fb6:	43c9      	mvns	r1, r1
        temp = EXTI->RTSR1;
 8002fb8:	6812      	ldr	r2, [r2, #0]
        if ((GPIO_Init->Mode & TRIGGER_RISING) != 0x00u)
 8002fba:	4235      	tst	r5, r6
 8002fbc:	d000      	beq.n	8002fc0 <HAL_GPIO_Init+0xac>
 8002fbe:	e077      	b.n	80030b0 <HAL_GPIO_Init+0x19c>
        temp &= ~(iocurrent);
 8002fc0:	400a      	ands	r2, r1
        {
          temp |= iocurrent;
        }
        EXTI->RTSR1 = temp;
 8002fc2:	4e49      	ldr	r6, [pc, #292]	@ (80030e8 <HAL_GPIO_Init+0x1d4>)
 8002fc4:	6032      	str	r2, [r6, #0]

        temp = EXTI->FTSR1;
 8002fc6:	6872      	ldr	r2, [r6, #4]
        temp &= ~(iocurrent);
        if ((GPIO_Init->Mode & TRIGGER_FALLING) != 0x00u)
 8002fc8:	2680      	movs	r6, #128	@ 0x80
 8002fca:	03b6      	lsls	r6, r6, #14
 8002fcc:	4235      	tst	r5, r6
 8002fce:	d16c      	bne.n	80030aa <HAL_GPIO_Init+0x196>
        temp &= ~(iocurrent);
 8002fd0:	400a      	ands	r2, r1
        {
          temp |= iocurrent;
        }
        EXTI->FTSR1 = temp;
 8002fd2:	4e45      	ldr	r6, [pc, #276]	@ (80030e8 <HAL_GPIO_Init+0x1d4>)
 8002fd4:	6072      	str	r2, [r6, #4]

        /* Clear EXTI line configuration */
        temp = EXTI->EMR1;
 8002fd6:	2284      	movs	r2, #132	@ 0x84
 8002fd8:	58b2      	ldr	r2, [r6, r2]
        temp &= ~(iocurrent);
        if ((GPIO_Init->Mode & EXTI_EVT) != 0x00u)
 8002fda:	03af      	lsls	r7, r5, #14
 8002fdc:	d462      	bmi.n	80030a4 <HAL_GPIO_Init+0x190>
        temp &= ~(iocurrent);
 8002fde:	400a      	ands	r2, r1
        {
          temp |= iocurrent;
        }
        EXTI->EMR1 = temp;
 8002fe0:	2784      	movs	r7, #132	@ 0x84
 8002fe2:	4e41      	ldr	r6, [pc, #260]	@ (80030e8 <HAL_GPIO_Init+0x1d4>)
 8002fe4:	51f2      	str	r2, [r6, r7]

        temp = EXTI->IMR1;
 8002fe6:	2280      	movs	r2, #128	@ 0x80
 8002fe8:	58b2      	ldr	r2, [r6, r2]
        temp &= ~(iocurrent);
        if ((GPIO_Init->Mode & EXTI_IT) != 0x00u)
 8002fea:	03ed      	lsls	r5, r5, #15
 8002fec:	d456      	bmi.n	800309c <HAL_GPIO_Init+0x188>
        temp &= ~(iocurrent);
 8002fee:	400a      	ands	r2, r1
        {
          temp |= iocurrent;
        }
        EXTI->IMR1 = temp;
 8002ff0:	2180      	movs	r1, #128	@ 0x80
 8002ff2:	4d3d      	ldr	r5, [pc, #244]	@ (80030e8 <HAL_GPIO_Init+0x1d4>)
 8002ff4:	506a      	str	r2, [r5, r1]
  while (((GPIO_Init->Pin) >> position) != 0x00u)
 8002ff6:	0022      	movs	r2, r4
      }
    }

    position++;
 8002ff8:	3301      	adds	r3, #1
  while (((GPIO_Init->Pin) >> position) != 0x00u)
 8002ffa:	40da      	lsrs	r2, r3
 8002ffc:	d196      	bne.n	8002f2c <HAL_GPIO_Init+0x18>
  }
}
 8002ffe:	b003      	add	sp, #12
 8003000:	bcf0      	pop	{r4, r5, r6, r7}
 8003002:	46bb      	mov	fp, r7
 8003004:	46b2      	mov	sl, r6
 8003006:	46a9      	mov	r9, r5
 8003008:	46a0      	mov	r8, r4
 800300a:	bdf0      	pop	{r4, r5, r6, r7, pc}
        temp = GPIOx->OSPEEDR;
 800300c:	6881      	ldr	r1, [r0, #8]
        temp &= ~(GPIO_OSPEEDR_OSPEED0 << (position * 2u));
 800300e:	000e      	movs	r6, r1
 8003010:	9900      	ldr	r1, [sp, #0]
 8003012:	400e      	ands	r6, r1
        temp |= (GPIO_Init->Speed << (position * 2u));
 8003014:	4659      	mov	r1, fp
 8003016:	68c9      	ldr	r1, [r1, #12]
        temp &= ~(GPIO_OSPEEDR_OSPEED0 << (position * 2u));
 8003018:	46b1      	mov	r9, r6
        temp |= (GPIO_Init->Speed << (position * 2u));
 800301a:	000e      	movs	r6, r1
 800301c:	40be      	lsls	r6, r7
 800301e:	46b0      	mov	r8, r6
 8003020:	464e      	mov	r6, r9
 8003022:	4641      	mov	r1, r8
 8003024:	430e      	orrs	r6, r1
        GPIOx->OSPEEDR = temp;
 8003026:	6086      	str	r6, [r0, #8]
        temp = GPIOx->OTYPER;
 8003028:	6841      	ldr	r1, [r0, #4]
        temp &= ~(GPIO_OTYPER_OT0 << position) ;
 800302a:	000e      	movs	r6, r1
 800302c:	4661      	mov	r1, ip
 800302e:	438e      	bics	r6, r1
        temp |= (((GPIO_Init->Mode & OUTPUT_TYPE) >> OUTPUT_TYPE_Pos) << position);
 8003030:	0929      	lsrs	r1, r5, #4
        temp &= ~(GPIO_OTYPER_OT0 << position) ;
 8003032:	46b0      	mov	r8, r6
        temp |= (((GPIO_Init->Mode & OUTPUT_TYPE) >> OUTPUT_TYPE_Pos) << position);
 8003034:	000e      	movs	r6, r1
 8003036:	2101      	movs	r1, #1
 8003038:	400e      	ands	r6, r1
 800303a:	409e      	lsls	r6, r3
 800303c:	46b4      	mov	ip, r6
 800303e:	4646      	mov	r6, r8
 8003040:	4661      	mov	r1, ip
 8003042:	430e      	orrs	r6, r1
        GPIOx->OTYPER = temp;
 8003044:	6046      	str	r6, [r0, #4]
        temp = GPIOx->PUPDR;
 8003046:	68c1      	ldr	r1, [r0, #12]
        temp &= ~(GPIO_PUPDR_PUPD0 << (position * 2u));
 8003048:	000e      	movs	r6, r1
 800304a:	9900      	ldr	r1, [sp, #0]
 800304c:	400e      	ands	r6, r1
        temp |= ((GPIO_Init->Pull) << (position * 2u));
 800304e:	4659      	mov	r1, fp
 8003050:	6889      	ldr	r1, [r1, #8]
        temp &= ~(GPIO_PUPDR_PUPD0 << (position * 2u));
 8003052:	46b0      	mov	r8, r6
        temp |= ((GPIO_Init->Pull) << (position * 2u));
 8003054:	000e      	movs	r6, r1
 8003056:	40be      	lsls	r6, r7
 8003058:	46b4      	mov	ip, r6
 800305a:	4646      	mov	r6, r8
 800305c:	4661      	mov	r1, ip
 800305e:	430e      	orrs	r6, r1
        GPIOx->PUPDR = temp;
 8003060:	60c6      	str	r6, [r0, #12]
      if ((GPIO_Init->Mode & GPIO_MODE) == MODE_AF)
 8003062:	2a02      	cmp	r2, #2
 8003064:	d000      	beq.n	8003068 <HAL_GPIO_Init+0x154>
 8003066:	e778      	b.n	8002f5a <HAL_GPIO_Init+0x46>
        temp = GPIOx->AFR[position >> 3u];
 8003068:	08d9      	lsrs	r1, r3, #3
 800306a:	0089      	lsls	r1, r1, #2
 800306c:	468c      	mov	ip, r1
 800306e:	4484      	add	ip, r0
 8003070:	4661      	mov	r1, ip
 8003072:	6a0e      	ldr	r6, [r1, #32]
        temp &= ~(0xFu << ((position & 0x07u) * 4u));
 8003074:	2107      	movs	r1, #7
 8003076:	4019      	ands	r1, r3
 8003078:	0089      	lsls	r1, r1, #2
 800307a:	4688      	mov	r8, r1
        temp = GPIOx->AFR[position >> 3u];
 800307c:	9601      	str	r6, [sp, #4]
        temp &= ~(0xFu << ((position & 0x07u) * 4u));
 800307e:	210f      	movs	r1, #15
 8003080:	4646      	mov	r6, r8
 8003082:	40b1      	lsls	r1, r6
 8003084:	9e01      	ldr	r6, [sp, #4]
 8003086:	438e      	bics	r6, r1
        temp |= ((GPIO_Init->Alternate) << ((position & 0x07u) * 4u));
 8003088:	4659      	mov	r1, fp
        temp &= ~(0xFu << ((position & 0x07u) * 4u));
 800308a:	9601      	str	r6, [sp, #4]
        temp |= ((GPIO_Init->Alternate) << ((position & 0x07u) * 4u));
 800308c:	4646      	mov	r6, r8
 800308e:	6909      	ldr	r1, [r1, #16]
 8003090:	40b1      	lsls	r1, r6
 8003092:	9e01      	ldr	r6, [sp, #4]
 8003094:	430e      	orrs	r6, r1
        GPIOx->AFR[position >> 3u] = temp;
 8003096:	4661      	mov	r1, ip
 8003098:	620e      	str	r6, [r1, #32]
 800309a:	e75e      	b.n	8002f5a <HAL_GPIO_Init+0x46>
          temp |= iocurrent;
 800309c:	4651      	mov	r1, sl
 800309e:	4311      	orrs	r1, r2
 80030a0:	000a      	movs	r2, r1
 80030a2:	e7a5      	b.n	8002ff0 <HAL_GPIO_Init+0xdc>
          temp |= iocurrent;
 80030a4:	4656      	mov	r6, sl
 80030a6:	4332      	orrs	r2, r6
 80030a8:	e79a      	b.n	8002fe0 <HAL_GPIO_Init+0xcc>
          temp |= iocurrent;
 80030aa:	4656      	mov	r6, sl
 80030ac:	4332      	orrs	r2, r6
 80030ae:	e790      	b.n	8002fd2 <HAL_GPIO_Init+0xbe>
          temp |= iocurrent;
 80030b0:	4656      	mov	r6, sl
 80030b2:	4332      	orrs	r2, r6
 80030b4:	e785      	b.n	8002fc2 <HAL_GPIO_Init+0xae>
 80030b6:	000e      	movs	r6, r1
        temp = GPIOx->PUPDR;
 80030b8:	68c1      	ldr	r1, [r0, #12]
        temp &= ~(GPIO_PUPDR_PUPD0 << (position * 2u));
 80030ba:	4031      	ands	r1, r6
 80030bc:	4688      	mov	r8, r1
        temp |= ((GPIO_Init->Pull) << (position * 2u));
 80030be:	4659      	mov	r1, fp
 80030c0:	6889      	ldr	r1, [r1, #8]
 80030c2:	40b9      	lsls	r1, r7
 80030c4:	468c      	mov	ip, r1
 80030c6:	4641      	mov	r1, r8
 80030c8:	4666      	mov	r6, ip
 80030ca:	4331      	orrs	r1, r6
        GPIOx->PUPDR = temp;
 80030cc:	60c1      	str	r1, [r0, #12]
      if ((GPIO_Init->Mode & GPIO_MODE) == MODE_AF)
 80030ce:	e744      	b.n	8002f5a <HAL_GPIO_Init+0x46>
        temp |= (GPIO_GET_INDEX(GPIOx) << (8u * (position & 0x03u)));
 80030d0:	2603      	movs	r6, #3
 80030d2:	40be      	lsls	r6, r7
 80030d4:	4331      	orrs	r1, r6
 80030d6:	e769      	b.n	8002fac <HAL_GPIO_Init+0x98>
 80030d8:	2601      	movs	r6, #1
 80030da:	40be      	lsls	r6, r7
 80030dc:	4331      	orrs	r1, r6
 80030de:	e765      	b.n	8002fac <HAL_GPIO_Init+0x98>
 80030e0:	2602      	movs	r6, #2
 80030e2:	40be      	lsls	r6, r7
 80030e4:	4331      	orrs	r1, r6
 80030e6:	e761      	b.n	8002fac <HAL_GPIO_Init+0x98>
 80030e8:	40021800 	.word	0x40021800
 80030ec:	50000400 	.word	0x50000400
 80030f0:	50000800 	.word	0x50000800
 80030f4:	50000c00 	.word	0x50000c00

080030f8 <HAL_GPIO_ReadPin>:
  GPIO_PinState bitstatus;

  /* Check the parameters */
  assert_param(IS_GPIO_PIN(GPIO_Pin));

  if ((GPIOx->IDR & GPIO_Pin) != 0x00u)
 80030f8:	6900      	ldr	r0, [r0, #16]
 80030fa:	4008      	ands	r0, r1
 80030fc:	1e43      	subs	r3, r0, #1
 80030fe:	4198      	sbcs	r0, r3
  }
  else
  {
    bitstatus = GPIO_PIN_RESET;
  }
  return bitstatus;
 8003100:	b2c0      	uxtb	r0, r0
}
 8003102:	4770      	bx	lr

08003104 <HAL_GPIO_WritePin>:
{
  /* Check the parameters */
  assert_param(IS_GPIO_PIN(GPIO_Pin));
  assert_param(IS_GPIO_PIN_ACTION(PinState));

  if (PinState != GPIO_PIN_RESET)
 8003104:	2a00      	cmp	r2, #0
 8003106:	d001      	beq.n	800310c <HAL_GPIO_WritePin+0x8>
  {
    GPIOx->BSRR = (uint32_t)GPIO_Pin;
 8003108:	6181      	str	r1, [r0, #24]
  }
  else
  {
    GPIOx->BRR = (uint32_t)GPIO_Pin;
  }
}
 800310a:	4770      	bx	lr
    GPIOx->BRR = (uint32_t)GPIO_Pin;
 800310c:	6281      	str	r1, [r0, #40]	@ 0x28
}
 800310e:	e7fc      	b.n	800310a <HAL_GPIO_WritePin+0x6>

08003110 <HAL_GPIO_EXTI_IRQHandler>:
  * @retval None
  */
void HAL_GPIO_EXTI_IRQHandler(uint16_t GPIO_Pin)
{
  /* EXTI line interrupt detected */
  if (__HAL_GPIO_EXTI_GET_RISING_IT(GPIO_Pin) != 0x00u)
 8003110:	4b0b      	ldr	r3, [pc, #44]	@ (8003140 <HAL_GPIO_EXTI_IRQHandler+0x30>)
{
 8003112:	b510      	push	{r4, lr}
  if (__HAL_GPIO_EXTI_GET_RISING_IT(GPIO_Pin) != 0x00u)
 8003114:	68da      	ldr	r2, [r3, #12]
{
 8003116:	0004      	movs	r4, r0
  if (__HAL_GPIO_EXTI_GET_RISING_IT(GPIO_Pin) != 0x00u)
 8003118:	4210      	tst	r0, r2
 800311a:	d104      	bne.n	8003126 <HAL_GPIO_EXTI_IRQHandler+0x16>
  {
    __HAL_GPIO_EXTI_CLEAR_RISING_IT(GPIO_Pin);
    HAL_GPIO_EXTI_Rising_Callback(GPIO_Pin);
  }

  if (__HAL_GPIO_EXTI_GET_FALLING_IT(GPIO_Pin) != 0x00u)
 800311c:	4b08      	ldr	r3, [pc, #32]	@ (8003140 <HAL_GPIO_EXTI_IRQHandler+0x30>)
 800311e:	691a      	ldr	r2, [r3, #16]
 8003120:	4222      	tst	r2, r4
 8003122:	d107      	bne.n	8003134 <HAL_GPIO_EXTI_IRQHandler+0x24>
  {
    __HAL_GPIO_EXTI_CLEAR_FALLING_IT(GPIO_Pin);
    HAL_GPIO_EXTI_Falling_Callback(GPIO_Pin);
  }
}
 8003124:	bd10      	pop	{r4, pc}
    __HAL_GPIO_EXTI_CLEAR_RISING_IT(GPIO_Pin);
 8003126:	60d8      	str	r0, [r3, #12]
    HAL_GPIO_EXTI_Rising_Callback(GPIO_Pin);
 8003128:	f7fd ffa6 	bl	8001078 <HAL_GPIO_EXTI_Rising_Callback>
  if (__HAL_GPIO_EXTI_GET_FALLING_IT(GPIO_Pin) != 0x00u)
 800312c:	4b04      	ldr	r3, [pc, #16]	@ (8003140 <HAL_GPIO_EXTI_IRQHandler+0x30>)
 800312e:	691a      	ldr	r2, [r3, #16]
 8003130:	4222      	tst	r2, r4
 8003132:	d0f7      	beq.n	8003124 <HAL_GPIO_EXTI_IRQHandler+0x14>
    HAL_GPIO_EXTI_Falling_Callback(GPIO_Pin);
 8003134:	0020      	movs	r0, r4
    __HAL_GPIO_EXTI_CLEAR_FALLING_IT(GPIO_Pin);
 8003136:	611c      	str	r4, [r3, #16]
    HAL_GPIO_EXTI_Falling_Callback(GPIO_Pin);
 8003138:	f7fd ff8a 	bl	8001050 <HAL_GPIO_EXTI_Falling_Callback>
}
 800313c:	e7f2      	b.n	8003124 <HAL_GPIO_EXTI_IRQHandler+0x14>
 800313e:	46c0      	nop			@ (mov r8, r8)
 8003140:	40021800 	.word	0x40021800

08003144 <HAL_LPTIM_DirectionDownCallback>:
/**
  * @brief  Direction counter changed from Up to Down callback in non-blocking mode.
  * @param  hlptim LPTIM handle
  * @retval None
  */
__weak void HAL_LPTIM_DirectionDownCallback(LPTIM_HandleTypeDef *hlptim)
 8003144:	4770      	bx	lr
 8003146:	46c0      	nop			@ (mov r8, r8)

08003148 <HAL_LPTIM_CompareMatchCallback>:
__weak void HAL_LPTIM_CompareMatchCallback(LPTIM_HandleTypeDef *hlptim)
 8003148:	4770      	bx	lr
 800314a:	46c0      	nop			@ (mov r8, r8)

0800314c <HAL_LPTIM_AutoReloadMatchCallback>:
__weak void HAL_LPTIM_AutoReloadMatchCallback(LPTIM_HandleTypeDef *hlptim)
 800314c:	4770      	bx	lr
 800314e:	46c0      	nop			@ (mov r8, r8)

08003150 <HAL_LPTIM_TriggerCallback>:
__weak void HAL_LPTIM_TriggerCallback(LPTIM_HandleTypeDef *hlptim)
 8003150:	4770      	bx	lr
 8003152:	46c0      	nop			@ (mov r8, r8)

08003154 <HAL_LPTIM_CompareWriteCallback>:
__weak void HAL_LPTIM_CompareWriteCallback(LPTIM_HandleTypeDef *hlptim)
 8003154:	4770      	bx	lr
 8003156:	46c0      	nop			@ (mov r8, r8)

08003158 <HAL_LPTIM_AutoReloadWriteCallback>:
__weak void HAL_LPTIM_AutoReloadWriteCallback(LPTIM_HandleTypeDef *hlptim)
 8003158:	4770      	bx	lr
 800315a:	46c0      	nop			@ (mov r8, r8)

0800315c <HAL_LPTIM_DirectionUpCallback>:
__weak void HAL_LPTIM_DirectionUpCallback(LPTIM_HandleTypeDef *hlptim)
 800315c:	4770      	bx	lr
 800315e:	46c0      	nop			@ (mov r8, r8)

08003160 <HAL_LPTIM_Init>:
{
 8003160:	b5f8      	push	{r3, r4, r5, r6, r7, lr}
 8003162:	1e04      	subs	r4, r0, #0
  if (hlptim == NULL)
 8003164:	d062      	beq.n	800322c <HAL_LPTIM_Init+0xcc>
  if (hlptim->State == HAL_LPTIM_STATE_RESET)
 8003166:	2336      	movs	r3, #54	@ 0x36
 8003168:	5cc3      	ldrb	r3, [r0, r3]
 800316a:	b2da      	uxtb	r2, r3
 800316c:	2b00      	cmp	r3, #0
 800316e:	d114      	bne.n	800319a <HAL_LPTIM_Init+0x3a>
    hlptim->Lock = HAL_UNLOCKED;
 8003170:	3335      	adds	r3, #53	@ 0x35
 8003172:	54c2      	strb	r2, [r0, r3]
  * @retval None
  */
static void LPTIM_ResetCallback(LPTIM_HandleTypeDef *lptim)
{
  /* Reset the LPTIM callback to the legacy weak callbacks */
  lptim->CompareMatchCallback    = HAL_LPTIM_CompareMatchCallback;
 8003174:	4b30      	ldr	r3, [pc, #192]	@ (8003238 <HAL_LPTIM_Init+0xd8>)
 8003176:	6403      	str	r3, [r0, #64]	@ 0x40
  lptim->AutoReloadMatchCallback = HAL_LPTIM_AutoReloadMatchCallback;
 8003178:	4b30      	ldr	r3, [pc, #192]	@ (800323c <HAL_LPTIM_Init+0xdc>)
 800317a:	6443      	str	r3, [r0, #68]	@ 0x44
  lptim->TriggerCallback         = HAL_LPTIM_TriggerCallback;
 800317c:	4b30      	ldr	r3, [pc, #192]	@ (8003240 <HAL_LPTIM_Init+0xe0>)
 800317e:	6483      	str	r3, [r0, #72]	@ 0x48
  lptim->CompareWriteCallback    = HAL_LPTIM_CompareWriteCallback;
 8003180:	4b30      	ldr	r3, [pc, #192]	@ (8003244 <HAL_LPTIM_Init+0xe4>)
 8003182:	64c3      	str	r3, [r0, #76]	@ 0x4c
  lptim->AutoReloadWriteCallback = HAL_LPTIM_AutoReloadWriteCallback;
 8003184:	4b30      	ldr	r3, [pc, #192]	@ (8003248 <HAL_LPTIM_Init+0xe8>)
 8003186:	6503      	str	r3, [r0, #80]	@ 0x50
  lptim->DirectionUpCallback     = HAL_LPTIM_DirectionUpCallback;
 8003188:	4b30      	ldr	r3, [pc, #192]	@ (800324c <HAL_LPTIM_Init+0xec>)
 800318a:	6543      	str	r3, [r0, #84]	@ 0x54
  lptim->DirectionDownCallback   = HAL_LPTIM_DirectionDownCallback;
 800318c:	4b30      	ldr	r3, [pc, #192]	@ (8003250 <HAL_LPTIM_Init+0xf0>)
 800318e:	6583      	str	r3, [r0, #88]	@ 0x58
    if (hlptim->MspInitCallback == NULL)
 8003190:	6b83      	ldr	r3, [r0, #56]	@ 0x38
 8003192:	2b00      	cmp	r3, #0
 8003194:	d04c      	beq.n	8003230 <HAL_LPTIM_Init+0xd0>
    hlptim->MspInitCallback(hlptim);
 8003196:	0020      	movs	r0, r4
 8003198:	4798      	blx	r3
  hlptim->State = HAL_LPTIM_STATE_BUSY;
 800319a:	2336      	movs	r3, #54	@ 0x36
 800319c:	2202      	movs	r2, #2
 800319e:	54e2      	strb	r2, [r4, r3]
  tmpcfgr = hlptim->Instance->CFGR;
 80031a0:	6820      	ldr	r0, [r4, #0]
  if ((hlptim->Init.Clock.Source == LPTIM_CLOCKSOURCE_ULPTIM)
 80031a2:	6865      	ldr	r5, [r4, #4]
  tmpcfgr = hlptim->Instance->CFGR;
 80031a4:	68c3      	ldr	r3, [r0, #12]
      || (hlptim->Init.CounterSource == LPTIM_COUNTERSOURCE_EXTERNAL))
 80031a6:	6aa6      	ldr	r6, [r4, #40]	@ 0x28
  if ((hlptim->Init.Clock.Source == LPTIM_CLOCKSOURCE_ULPTIM)
 80031a8:	2d01      	cmp	r5, #1
 80031aa:	d038      	beq.n	800321e <HAL_LPTIM_Init+0xbe>
      || (hlptim->Init.CounterSource == LPTIM_COUNTERSOURCE_EXTERNAL))
 80031ac:	2280      	movs	r2, #128	@ 0x80
 80031ae:	0412      	lsls	r2, r2, #16
 80031b0:	4296      	cmp	r6, r2
 80031b2:	d034      	beq.n	800321e <HAL_LPTIM_Init+0xbe>
  if (hlptim->Init.Trigger.Source != LPTIM_TRIGSOURCE_SOFTWARE)
 80031b4:	6961      	ldr	r1, [r4, #20]
 80031b6:	4a27      	ldr	r2, [pc, #156]	@ (8003254 <HAL_LPTIM_Init+0xf4>)
 80031b8:	4291      	cmp	r1, r2
 80031ba:	d001      	beq.n	80031c0 <HAL_LPTIM_Init+0x60>
    tmpcfgr &= (uint32_t)(~(LPTIM_CFGR_TRGFLT | LPTIM_CFGR_TRIGSEL));
 80031bc:	4a26      	ldr	r2, [pc, #152]	@ (8003258 <HAL_LPTIM_Init+0xf8>)
 80031be:	4013      	ands	r3, r2
  tmpcfgr &= (uint32_t)(~(LPTIM_CFGR_CKSEL | LPTIM_CFGR_TRIGEN | LPTIM_CFGR_PRELOAD |
 80031c0:	4a26      	ldr	r2, [pc, #152]	@ (800325c <HAL_LPTIM_Init+0xfc>)
              hlptim->Init.UpdateMode      |
 80031c2:	68a7      	ldr	r7, [r4, #8]
  tmpcfgr &= (uint32_t)(~(LPTIM_CFGR_CKSEL | LPTIM_CFGR_TRIGEN | LPTIM_CFGR_PRELOAD |
 80031c4:	401a      	ands	r2, r3
              hlptim->Init.UpdateMode      |
 80031c6:	002b      	movs	r3, r5
 80031c8:	4333      	orrs	r3, r6
 80031ca:	433b      	orrs	r3, r7
 80031cc:	6a27      	ldr	r7, [r4, #32]
 80031ce:	433b      	orrs	r3, r7
 80031d0:	6a67      	ldr	r7, [r4, #36]	@ 0x24
 80031d2:	433b      	orrs	r3, r7
  tmpcfgr |= (hlptim->Init.Clock.Source    |
 80031d4:	4313      	orrs	r3, r2
  if (hlptim->Init.Clock.Source == LPTIM_CLOCKSOURCE_APBCLOCK_LPOSC)
 80031d6:	2d00      	cmp	r5, #0
 80031d8:	d018      	beq.n	800320c <HAL_LPTIM_Init+0xac>
  if ((hlptim->Init.Clock.Source == LPTIM_CLOCKSOURCE_ULPTIM)
 80031da:	2d01      	cmp	r5, #1
 80031dc:	d11a      	bne.n	8003214 <HAL_LPTIM_Init+0xb4>
    tmpcfgr |= (hlptim->Init.UltraLowPowerClock.Polarity |
 80031de:	68e2      	ldr	r2, [r4, #12]
 80031e0:	6925      	ldr	r5, [r4, #16]
 80031e2:	432a      	orrs	r2, r5
 80031e4:	4313      	orrs	r3, r2
  if (hlptim->Init.Trigger.Source != LPTIM_TRIGSOURCE_SOFTWARE)
 80031e6:	4a1b      	ldr	r2, [pc, #108]	@ (8003254 <HAL_LPTIM_Init+0xf4>)
 80031e8:	4291      	cmp	r1, r2
 80031ea:	d004      	beq.n	80031f6 <HAL_LPTIM_Init+0x96>
    tmpcfgr |= (hlptim->Init.Trigger.Source     |
 80031ec:	69a2      	ldr	r2, [r4, #24]
 80031ee:	4311      	orrs	r1, r2
                hlptim->Init.Trigger.ActiveEdge |
 80031f0:	69e2      	ldr	r2, [r4, #28]
 80031f2:	4311      	orrs	r1, r2
    tmpcfgr |= (hlptim->Init.Trigger.Source     |
 80031f4:	430b      	orrs	r3, r1
  if (hlptim->Instance == LPTIM1)
 80031f6:	4a1a      	ldr	r2, [pc, #104]	@ (8003260 <HAL_LPTIM_Init+0x100>)
  hlptim->Instance->CFGR = tmpcfgr;
 80031f8:	60c3      	str	r3, [r0, #12]
    hlptim->Instance->CFGR2 = (hlptim->Init.Input1Source | hlptim->Init.Input2Source);
 80031fa:	6ae3      	ldr	r3, [r4, #44]	@ 0x2c
  if (hlptim->Instance == LPTIM1)
 80031fc:	4290      	cmp	r0, r2
 80031fe:	d011      	beq.n	8003224 <HAL_LPTIM_Init+0xc4>
    hlptim->Instance->CFGR2 = hlptim->Init.Input1Source;
 8003200:	6243      	str	r3, [r0, #36]	@ 0x24
  hlptim->State = HAL_LPTIM_STATE_READY;
 8003202:	2336      	movs	r3, #54	@ 0x36
 8003204:	2201      	movs	r2, #1
  return HAL_OK;
 8003206:	2000      	movs	r0, #0
  hlptim->State = HAL_LPTIM_STATE_READY;
 8003208:	54e2      	strb	r2, [r4, r3]
}
 800320a:	bdf8      	pop	{r3, r4, r5, r6, r7, pc}
    tmpcfgr |= (hlptim->Init.Trigger.SampleTime |
 800320c:	69e2      	ldr	r2, [r4, #28]
 800320e:	6925      	ldr	r5, [r4, #16]
 8003210:	432a      	orrs	r2, r5
 8003212:	4313      	orrs	r3, r2
      || (hlptim->Init.CounterSource == LPTIM_COUNTERSOURCE_EXTERNAL))
 8003214:	2280      	movs	r2, #128	@ 0x80
 8003216:	0412      	lsls	r2, r2, #16
 8003218:	4296      	cmp	r6, r2
 800321a:	d1e4      	bne.n	80031e6 <HAL_LPTIM_Init+0x86>
 800321c:	e7df      	b.n	80031de <HAL_LPTIM_Init+0x7e>
    tmpcfgr &= (uint32_t)(~(LPTIM_CFGR_CKPOL | LPTIM_CFGR_CKFLT));
 800321e:	221e      	movs	r2, #30
 8003220:	4393      	bics	r3, r2
 8003222:	e7c7      	b.n	80031b4 <HAL_LPTIM_Init+0x54>
    hlptim->Instance->CFGR2 = (hlptim->Init.Input1Source | hlptim->Init.Input2Source);
 8003224:	6b22      	ldr	r2, [r4, #48]	@ 0x30
 8003226:	4313      	orrs	r3, r2
 8003228:	6243      	str	r3, [r0, #36]	@ 0x24
 800322a:	e7ea      	b.n	8003202 <HAL_LPTIM_Init+0xa2>
    return HAL_ERROR;
 800322c:	2001      	movs	r0, #1
 800322e:	e7ec      	b.n	800320a <HAL_LPTIM_Init+0xaa>
      hlptim->MspInitCallback = HAL_LPTIM_MspInit;
 8003230:	4b0c      	ldr	r3, [pc, #48]	@ (8003264 <HAL_LPTIM_Init+0x104>)
 8003232:	6383      	str	r3, [r0, #56]	@ 0x38
 8003234:	e7af      	b.n	8003196 <HAL_LPTIM_Init+0x36>
 8003236:	46c0      	nop			@ (mov r8, r8)
 8003238:	08003149 	.word	0x08003149
 800323c:	0800314d 	.word	0x0800314d
 8003240:	08003151 	.word	0x08003151
 8003244:	08003155 	.word	0x08003155
 8003248:	08003159 	.word	0x08003159
 800324c:	0800315d 	.word	0x0800315d
 8003250:	08003145 	.word	0x08003145
 8003254:	0000ffff 	.word	0x0000ffff
 8003258:	ffff1f3f 	.word	0xffff1f3f
 800325c:	ff19f1fe 	.word	0xff19f1fe
 8003260:	40007c00 	.word	0x40007c00
 8003264:	08001771 	.word	0x08001771

08003268 <HAL_LPTIM_IRQHandler>:
  if (__HAL_LPTIM_GET_FLAG(hlptim, LPTIM_FLAG_CMPM) != RESET)
 8003268:	2201      	movs	r2, #1
 800326a:	6803      	ldr	r3, [r0, #0]
{
 800326c:	b510      	push	{r4, lr}
  if (__HAL_LPTIM_GET_FLAG(hlptim, LPTIM_FLAG_CMPM) != RESET)
 800326e:	6819      	ldr	r1, [r3, #0]
{
 8003270:	0004      	movs	r4, r0
  if (__HAL_LPTIM_GET_FLAG(hlptim, LPTIM_FLAG_CMPM) != RESET)
 8003272:	420a      	tst	r2, r1
 8003274:	d002      	beq.n	800327c <HAL_LPTIM_IRQHandler+0x14>
    if (__HAL_LPTIM_GET_IT_SOURCE(hlptim, LPTIM_IT_CMPM) != RESET)
 8003276:	6899      	ldr	r1, [r3, #8]
 8003278:	420a      	tst	r2, r1
 800327a:	d14c      	bne.n	8003316 <HAL_LPTIM_IRQHandler+0xae>
  if (__HAL_LPTIM_GET_FLAG(hlptim, LPTIM_FLAG_ARRM) != RESET)
 800327c:	2202      	movs	r2, #2
 800327e:	6819      	ldr	r1, [r3, #0]
 8003280:	420a      	tst	r2, r1
 8003282:	d002      	beq.n	800328a <HAL_LPTIM_IRQHandler+0x22>
    if (__HAL_LPTIM_GET_IT_SOURCE(hlptim, LPTIM_IT_ARRM) != RESET)
 8003284:	6899      	ldr	r1, [r3, #8]
 8003286:	420a      	tst	r2, r1
 8003288:	d13f      	bne.n	800330a <HAL_LPTIM_IRQHandler+0xa2>
  if (__HAL_LPTIM_GET_FLAG(hlptim, LPTIM_FLAG_EXTTRIG) != RESET)
 800328a:	2204      	movs	r2, #4
 800328c:	6819      	ldr	r1, [r3, #0]
 800328e:	420a      	tst	r2, r1
 8003290:	d002      	beq.n	8003298 <HAL_LPTIM_IRQHandler+0x30>
    if (__HAL_LPTIM_GET_IT_SOURCE(hlptim, LPTIM_IT_EXTTRIG) != RESET)
 8003292:	6899      	ldr	r1, [r3, #8]
 8003294:	420a      	tst	r2, r1
 8003296:	d132      	bne.n	80032fe <HAL_LPTIM_IRQHandler+0x96>
  if (__HAL_LPTIM_GET_FLAG(hlptim, LPTIM_FLAG_CMPOK) != RESET)
 8003298:	2208      	movs	r2, #8
 800329a:	6819      	ldr	r1, [r3, #0]
 800329c:	420a      	tst	r2, r1
 800329e:	d002      	beq.n	80032a6 <HAL_LPTIM_IRQHandler+0x3e>
    if (__HAL_LPTIM_GET_IT_SOURCE(hlptim, LPTIM_IT_CMPOK) != RESET)
 80032a0:	6899      	ldr	r1, [r3, #8]
 80032a2:	420a      	tst	r2, r1
 80032a4:	d125      	bne.n	80032f2 <HAL_LPTIM_IRQHandler+0x8a>
  if (__HAL_LPTIM_GET_FLAG(hlptim, LPTIM_FLAG_ARROK) != RESET)
 80032a6:	2210      	movs	r2, #16
 80032a8:	6819      	ldr	r1, [r3, #0]
 80032aa:	420a      	tst	r2, r1
 80032ac:	d002      	beq.n	80032b4 <HAL_LPTIM_IRQHandler+0x4c>
    if (__HAL_LPTIM_GET_IT_SOURCE(hlptim, LPTIM_IT_ARROK) != RESET)
 80032ae:	6899      	ldr	r1, [r3, #8]
 80032b0:	420a      	tst	r2, r1
 80032b2:	d118      	bne.n	80032e6 <HAL_LPTIM_IRQHandler+0x7e>
  if (__HAL_LPTIM_GET_FLAG(hlptim, LPTIM_FLAG_UP) != RESET)
 80032b4:	2220      	movs	r2, #32
 80032b6:	6819      	ldr	r1, [r3, #0]
 80032b8:	420a      	tst	r2, r1
 80032ba:	d002      	beq.n	80032c2 <HAL_LPTIM_IRQHandler+0x5a>
    if (__HAL_LPTIM_GET_IT_SOURCE(hlptim, LPTIM_IT_UP) != RESET)
 80032bc:	6899      	ldr	r1, [r3, #8]
 80032be:	420a      	tst	r2, r1
 80032c0:	d10b      	bne.n	80032da <HAL_LPTIM_IRQHandler+0x72>
  if (__HAL_LPTIM_GET_FLAG(hlptim, LPTIM_FLAG_DOWN) != RESET)
 80032c2:	2240      	movs	r2, #64	@ 0x40
 80032c4:	6819      	ldr	r1, [r3, #0]
 80032c6:	420a      	tst	r2, r1
 80032c8:	d006      	beq.n	80032d8 <HAL_LPTIM_IRQHandler+0x70>
    if (__HAL_LPTIM_GET_IT_SOURCE(hlptim, LPTIM_IT_DOWN) != RESET)
 80032ca:	6899      	ldr	r1, [r3, #8]
 80032cc:	420a      	tst	r2, r1
 80032ce:	d003      	beq.n	80032d8 <HAL_LPTIM_IRQHandler+0x70>
      __HAL_LPTIM_CLEAR_FLAG(hlptim, LPTIM_FLAG_DOWN);
 80032d0:	605a      	str	r2, [r3, #4]
      hlptim->DirectionDownCallback(hlptim);
 80032d2:	0020      	movs	r0, r4
 80032d4:	6da3      	ldr	r3, [r4, #88]	@ 0x58
 80032d6:	4798      	blx	r3
}
 80032d8:	bd10      	pop	{r4, pc}
      __HAL_LPTIM_CLEAR_FLAG(hlptim, LPTIM_FLAG_UP);
 80032da:	605a      	str	r2, [r3, #4]
      hlptim->DirectionUpCallback(hlptim);
 80032dc:	0020      	movs	r0, r4
 80032de:	6d63      	ldr	r3, [r4, #84]	@ 0x54
 80032e0:	4798      	blx	r3
  if (__HAL_LPTIM_GET_FLAG(hlptim, LPTIM_FLAG_DOWN) != RESET)
 80032e2:	6823      	ldr	r3, [r4, #0]
 80032e4:	e7ed      	b.n	80032c2 <HAL_LPTIM_IRQHandler+0x5a>
      __HAL_LPTIM_CLEAR_FLAG(hlptim, LPTIM_FLAG_ARROK);
 80032e6:	605a      	str	r2, [r3, #4]
      hlptim->AutoReloadWriteCallback(hlptim);
 80032e8:	0020      	movs	r0, r4
 80032ea:	6d23      	ldr	r3, [r4, #80]	@ 0x50
 80032ec:	4798      	blx	r3
  if (__HAL_LPTIM_GET_FLAG(hlptim, LPTIM_FLAG_UP) != RESET)
 80032ee:	6823      	ldr	r3, [r4, #0]
 80032f0:	e7e0      	b.n	80032b4 <HAL_LPTIM_IRQHandler+0x4c>
      __HAL_LPTIM_CLEAR_FLAG(hlptim, LPTIM_FLAG_CMPOK);
 80032f2:	605a      	str	r2, [r3, #4]
      hlptim->CompareWriteCallback(hlptim);
 80032f4:	0020      	movs	r0, r4
 80032f6:	6ce3      	ldr	r3, [r4, #76]	@ 0x4c
 80032f8:	4798      	blx	r3
  if (__HAL_LPTIM_GET_FLAG(hlptim, LPTIM_FLAG_ARROK) != RESET)
 80032fa:	6823      	ldr	r3, [r4, #0]
 80032fc:	e7d3      	b.n	80032a6 <HAL_LPTIM_IRQHandler+0x3e>
      __HAL_LPTIM_CLEAR_FLAG(hlptim, LPTIM_FLAG_EXTTRIG);
 80032fe:	605a      	str	r2, [r3, #4]
      hlptim->TriggerCallback(hlptim);
 8003300:	0020      	movs	r0, r4
 8003302:	6ca3      	ldr	r3, [r4, #72]	@ 0x48
 8003304:	4798      	blx	r3
  if (__HAL_LPTIM_GET_FLAG(hlptim, LPTIM_FLAG_CMPOK) != RESET)
 8003306:	6823      	ldr	r3, [r4, #0]
 8003308:	e7c6      	b.n	8003298 <HAL_LPTIM_IRQHandler+0x30>
      __HAL_LPTIM_CLEAR_FLAG(hlptim, LPTIM_FLAG_ARRM);
 800330a:	605a      	str	r2, [r3, #4]
      hlptim->AutoReloadMatchCallback(hlptim);
 800330c:	0020      	movs	r0, r4
 800330e:	6c63      	ldr	r3, [r4, #68]	@ 0x44
 8003310:	4798      	blx	r3
  if (__HAL_LPTIM_GET_FLAG(hlptim, LPTIM_FLAG_EXTTRIG) != RESET)
 8003312:	6823      	ldr	r3, [r4, #0]
 8003314:	e7b9      	b.n	800328a <HAL_LPTIM_IRQHandler+0x22>
      __HAL_LPTIM_CLEAR_FLAG(hlptim, LPTIM_FLAG_CMPM);
 8003316:	605a      	str	r2, [r3, #4]
      hlptim->CompareMatchCallback(hlptim);
 8003318:	6c03      	ldr	r3, [r0, #64]	@ 0x40
 800331a:	4798      	blx	r3
  if (__HAL_LPTIM_GET_FLAG(hlptim, LPTIM_FLAG_ARRM) != RESET)
 800331c:	6823      	ldr	r3, [r4, #0]
 800331e:	e7ad      	b.n	800327c <HAL_LPTIM_IRQHandler+0x14>

08003320 <HAL_LPTIM_RegisterCallback>:
{
 8003320:	0003      	movs	r3, r0
 8003322:	b530      	push	{r4, r5, lr}
  if (pCallback == NULL)
 8003324:	2a00      	cmp	r2, #0
 8003326:	d019      	beq.n	800335c <HAL_LPTIM_RegisterCallback+0x3c>
  if (hlptim->State == HAL_LPTIM_STATE_READY)
 8003328:	2536      	movs	r5, #54	@ 0x36
 800332a:	5d44      	ldrb	r4, [r0, r5]
 800332c:	b2e0      	uxtb	r0, r4
 800332e:	2c01      	cmp	r4, #1
 8003330:	d008      	beq.n	8003344 <HAL_LPTIM_RegisterCallback+0x24>
  else if (hlptim->State == HAL_LPTIM_STATE_RESET)
 8003332:	5d5c      	ldrb	r4, [r3, r5]
    return HAL_ERROR;
 8003334:	2001      	movs	r0, #1
  else if (hlptim->State == HAL_LPTIM_STATE_RESET)
 8003336:	2c00      	cmp	r4, #0
 8003338:	d103      	bne.n	8003342 <HAL_LPTIM_RegisterCallback+0x22>
    switch (CallbackID)
 800333a:	2900      	cmp	r1, #0
 800333c:	d00b      	beq.n	8003356 <HAL_LPTIM_RegisterCallback+0x36>
 800333e:	2901      	cmp	r1, #1
 8003340:	d006      	beq.n	8003350 <HAL_LPTIM_RegisterCallback+0x30>
}
 8003342:	bd30      	pop	{r4, r5, pc}
    switch (CallbackID)
 8003344:	2908      	cmp	r1, #8
 8003346:	d8fc      	bhi.n	8003342 <HAL_LPTIM_RegisterCallback+0x22>
 8003348:	4810      	ldr	r0, [pc, #64]	@ (800338c <HAL_LPTIM_RegisterCallback+0x6c>)
 800334a:	0089      	lsls	r1, r1, #2
 800334c:	5841      	ldr	r1, [r0, r1]
 800334e:	468f      	mov	pc, r1
  HAL_StatusTypeDef status = HAL_OK;
 8003350:	2000      	movs	r0, #0
        hlptim->MspDeInitCallback = pCallback;
 8003352:	63da      	str	r2, [r3, #60]	@ 0x3c
        break;
 8003354:	e7f5      	b.n	8003342 <HAL_LPTIM_RegisterCallback+0x22>
  HAL_StatusTypeDef status = HAL_OK;
 8003356:	2000      	movs	r0, #0
        hlptim->MspInitCallback = pCallback;
 8003358:	639a      	str	r2, [r3, #56]	@ 0x38
        break;
 800335a:	e7f2      	b.n	8003342 <HAL_LPTIM_RegisterCallback+0x22>
    return HAL_ERROR;
 800335c:	2001      	movs	r0, #1
 800335e:	e7f0      	b.n	8003342 <HAL_LPTIM_RegisterCallback+0x22>
  HAL_StatusTypeDef status = HAL_OK;
 8003360:	2000      	movs	r0, #0
        hlptim->DirectionDownCallback = pCallback;
 8003362:	659a      	str	r2, [r3, #88]	@ 0x58
        break;
 8003364:	e7ed      	b.n	8003342 <HAL_LPTIM_RegisterCallback+0x22>
  HAL_StatusTypeDef status = HAL_OK;
 8003366:	2000      	movs	r0, #0
        hlptim->CompareMatchCallback = pCallback;
 8003368:	641a      	str	r2, [r3, #64]	@ 0x40
        break;
 800336a:	e7ea      	b.n	8003342 <HAL_LPTIM_RegisterCallback+0x22>
  HAL_StatusTypeDef status = HAL_OK;
 800336c:	2000      	movs	r0, #0
        hlptim->AutoReloadMatchCallback = pCallback;
 800336e:	645a      	str	r2, [r3, #68]	@ 0x44
        break;
 8003370:	e7e7      	b.n	8003342 <HAL_LPTIM_RegisterCallback+0x22>
  HAL_StatusTypeDef status = HAL_OK;
 8003372:	2000      	movs	r0, #0
        hlptim->TriggerCallback = pCallback;
 8003374:	649a      	str	r2, [r3, #72]	@ 0x48
        break;
 8003376:	e7e4      	b.n	8003342 <HAL_LPTIM_RegisterCallback+0x22>
  HAL_StatusTypeDef status = HAL_OK;
 8003378:	2000      	movs	r0, #0
        hlptim->CompareWriteCallback = pCallback;
 800337a:	64da      	str	r2, [r3, #76]	@ 0x4c
        break;
 800337c:	e7e1      	b.n	8003342 <HAL_LPTIM_RegisterCallback+0x22>
  HAL_StatusTypeDef status = HAL_OK;
 800337e:	2000      	movs	r0, #0
        hlptim->AutoReloadWriteCallback = pCallback;
 8003380:	651a      	str	r2, [r3, #80]	@ 0x50
        break;
 8003382:	e7de      	b.n	8003342 <HAL_LPTIM_RegisterCallback+0x22>
  HAL_StatusTypeDef status = HAL_OK;
 8003384:	2000      	movs	r0, #0
        hlptim->DirectionUpCallback = pCallback;
 8003386:	655a      	str	r2, [r3, #84]	@ 0x54
        break;
 8003388:	e7db      	b.n	8003342 <HAL_LPTIM_RegisterCallback+0x22>
 800338a:	46c0      	nop			@ (mov r8, r8)
 800338c:	08006f50 	.word	0x08006f50

08003390 <LPTIM_Disable>:
  *         Please check Errata Sheet ES0335 for more details under "MCU may remain
  *         stuck in LPTIM interrupt when entering Stop mode" section.
  * @retval None
  */
void LPTIM_Disable(LPTIM_HandleTypeDef *hlptim)
{
 8003390:	b5f8      	push	{r3, r4, r5, r6, r7, lr}
 8003392:	4645      	mov	r5, r8
 8003394:	46de      	mov	lr, fp
 8003396:	4657      	mov	r7, sl
 8003398:	464e      	mov	r6, r9
 800339a:	b5e0      	push	{r5, r6, r7, lr}
 800339c:	0005      	movs	r5, r0
  __ASM volatile ("MRS %0, primask" : "=r" (result) :: "memory");
 800339e:	f3ef 8710 	mrs	r7, PRIMASK
  __ASM volatile ("MSR primask, %0" : : "r" (priMask) : "memory");
 80033a2:	2301      	movs	r3, #1
 80033a4:	f383 8810 	msr	PRIMASK, r3
  primask_bit = __get_PRIMASK();
  __set_PRIMASK(1) ;

  /*********** Save LPTIM Config ***********/
  /* Save LPTIM source clock */
  switch ((uint32_t)hlptim->Instance)
 80033a8:	4b63      	ldr	r3, [pc, #396]	@ (8003538 <LPTIM_Disable+0x1a8>)
 80033aa:	6804      	ldr	r4, [r0, #0]
 80033ac:	429c      	cmp	r4, r3
 80033ae:	d067      	beq.n	8003480 <LPTIM_Disable+0xf0>
 80033b0:	4b62      	ldr	r3, [pc, #392]	@ (800353c <LPTIM_Disable+0x1ac>)
 80033b2:	429c      	cmp	r4, r3
 80033b4:	d100      	bne.n	80033b8 <LPTIM_Disable+0x28>
 80033b6:	e08e      	b.n	80034d6 <LPTIM_Disable+0x146>
    default:
      break;
  }

  /* Save LPTIM configuration registers */
  tmpIER = hlptim->Instance->IER;
 80033b8:	68a3      	ldr	r3, [r4, #8]
 80033ba:	469a      	mov	sl, r3
  tmpCFGR = hlptim->Instance->CFGR;
 80033bc:	68e3      	ldr	r3, [r4, #12]
  tmpCMP = hlptim->Instance->CMP;
 80033be:	6966      	ldr	r6, [r4, #20]
  tmpCFGR = hlptim->Instance->CFGR;
 80033c0:	4699      	mov	r9, r3
  tmpARR = hlptim->Instance->ARR;
 80033c2:	69a3      	ldr	r3, [r4, #24]
 80033c4:	469b      	mov	fp, r3
  tmpCFGR2 = hlptim->Instance->CFGR2;
 80033c6:	6a63      	ldr	r3, [r4, #36]	@ 0x24
 80033c8:	4698      	mov	r8, r3
    default:
      break;
  }

  /*********** Restore LPTIM Config ***********/
  if ((tmpCMP != 0UL) || (tmpARR != 0UL))
 80033ca:	465b      	mov	r3, fp
 80033cc:	4333      	orrs	r3, r6
 80033ce:	d045      	beq.n	800345c <LPTIM_Disable+0xcc>
#endif /* LPTIM2 */
      default:
        break;
    }

    if (tmpCMP != 0UL)
 80033d0:	2e00      	cmp	r6, #0
 80033d2:	d01a      	beq.n	800340a <LPTIM_Disable+0x7a>
  tmpCMP = hlptim->Instance->CMP;
 80033d4:	0032      	movs	r2, r6
  uint32_t tmpclksource = 0;
 80033d6:	2600      	movs	r6, #0
    {
      /* Restore CMP register (LPTIM should be enabled first) */
      hlptim->Instance->CR |= LPTIM_CR_ENABLE;
 80033d8:	2101      	movs	r1, #1
 80033da:	6923      	ldr	r3, [r4, #16]
 80033dc:	430b      	orrs	r3, r1
 80033de:	6123      	str	r3, [r4, #16]
  uint32_t count = TIMEOUT * (SystemCoreClock / 20UL / 1000UL);
 80033e0:	4b57      	ldr	r3, [pc, #348]	@ (8003540 <LPTIM_Disable+0x1b0>)
 80033e2:	4958      	ldr	r1, [pc, #352]	@ (8003544 <LPTIM_Disable+0x1b4>)
 80033e4:	6818      	ldr	r0, [r3, #0]
      hlptim->Instance->CMP = tmpCMP;
 80033e6:	6162      	str	r2, [r4, #20]
  uint32_t count = TIMEOUT * (SystemCoreClock / 20UL / 1000UL);
 80033e8:	f7fc fe8c 	bl	8000104 <__udivsi3>
  } while ((!(__HAL_LPTIM_GET_FLAG((hlptim), (flag)))) && (count != 0UL));
 80033ec:	2108      	movs	r1, #8
  uint32_t count = TIMEOUT * (SystemCoreClock / 20UL / 1000UL);
 80033ee:	0143      	lsls	r3, r0, #5
 80033f0:	1a1b      	subs	r3, r3, r0
 80033f2:	009b      	lsls	r3, r3, #2
 80033f4:	181b      	adds	r3, r3, r0
 80033f6:	00db      	lsls	r3, r3, #3
    count--;
 80033f8:	3b01      	subs	r3, #1
    if (count == 0UL)
 80033fa:	2b00      	cmp	r3, #0
 80033fc:	d100      	bne.n	8003400 <LPTIM_Disable+0x70>
 80033fe:	e095      	b.n	800352c <LPTIM_Disable+0x19c>
  } while ((!(__HAL_LPTIM_GET_FLAG((hlptim), (flag)))) && (count != 0UL));
 8003400:	6822      	ldr	r2, [r4, #0]
 8003402:	4211      	tst	r1, r2
 8003404:	d0f8      	beq.n	80033f8 <LPTIM_Disable+0x68>
      /* Wait for the completion of the write operation to the LPTIM_CMP register */
      if (LPTIM_WaitForFlag(hlptim, LPTIM_FLAG_CMPOK) == HAL_TIMEOUT)
      {
        hlptim->State = HAL_LPTIM_STATE_TIMEOUT;
      }
      __HAL_LPTIM_CLEAR_FLAG(hlptim, LPTIM_FLAG_CMPOK);
 8003406:	2308      	movs	r3, #8
 8003408:	6063      	str	r3, [r4, #4]
    }

    if (tmpARR != 0UL)
 800340a:	465b      	mov	r3, fp
 800340c:	2b00      	cmp	r3, #0
 800340e:	d019      	beq.n	8003444 <LPTIM_Disable+0xb4>
    {
      /* Restore ARR register (LPTIM should be enabled first) */
      hlptim->Instance->CR |= LPTIM_CR_ENABLE;
 8003410:	2201      	movs	r2, #1
 8003412:	6923      	ldr	r3, [r4, #16]
  uint32_t count = TIMEOUT * (SystemCoreClock / 20UL / 1000UL);
 8003414:	494b      	ldr	r1, [pc, #300]	@ (8003544 <LPTIM_Disable+0x1b4>)
      hlptim->Instance->CR |= LPTIM_CR_ENABLE;
 8003416:	4313      	orrs	r3, r2
 8003418:	6123      	str	r3, [r4, #16]
      hlptim->Instance->ARR = tmpARR;
 800341a:	465b      	mov	r3, fp
 800341c:	61a3      	str	r3, [r4, #24]
  uint32_t count = TIMEOUT * (SystemCoreClock / 20UL / 1000UL);
 800341e:	4b48      	ldr	r3, [pc, #288]	@ (8003540 <LPTIM_Disable+0x1b0>)
 8003420:	6818      	ldr	r0, [r3, #0]
 8003422:	f7fc fe6f 	bl	8000104 <__udivsi3>
  } while ((!(__HAL_LPTIM_GET_FLAG((hlptim), (flag)))) && (count != 0UL));
 8003426:	2110      	movs	r1, #16
  uint32_t count = TIMEOUT * (SystemCoreClock / 20UL / 1000UL);
 8003428:	0143      	lsls	r3, r0, #5
 800342a:	1a1b      	subs	r3, r3, r0
 800342c:	009b      	lsls	r3, r3, #2
 800342e:	181b      	adds	r3, r3, r0
 8003430:	00db      	lsls	r3, r3, #3
    count--;
 8003432:	3b01      	subs	r3, #1
    if (count == 0UL)
 8003434:	2b00      	cmp	r3, #0
 8003436:	d100      	bne.n	800343a <LPTIM_Disable+0xaa>
 8003438:	e073      	b.n	8003522 <LPTIM_Disable+0x192>
  } while ((!(__HAL_LPTIM_GET_FLAG((hlptim), (flag)))) && (count != 0UL));
 800343a:	6822      	ldr	r2, [r4, #0]
 800343c:	4211      	tst	r1, r2
 800343e:	d0f8      	beq.n	8003432 <LPTIM_Disable+0xa2>
      if (LPTIM_WaitForFlag(hlptim, LPTIM_FLAG_ARROK) == HAL_TIMEOUT)
      {
        hlptim->State = HAL_LPTIM_STATE_TIMEOUT;
      }

      __HAL_LPTIM_CLEAR_FLAG(hlptim, LPTIM_FLAG_ARROK);
 8003440:	2310      	movs	r3, #16
 8003442:	6063      	str	r3, [r4, #4]
    }

    /* Restore LPTIM source kernel clock */
    switch ((uint32_t)hlptim->Instance)
 8003444:	4b3c      	ldr	r3, [pc, #240]	@ (8003538 <LPTIM_Disable+0x1a8>)
 8003446:	429c      	cmp	r4, r3
 8003448:	d03e      	beq.n	80034c8 <LPTIM_Disable+0x138>
 800344a:	4b3c      	ldr	r3, [pc, #240]	@ (800353c <LPTIM_Disable+0x1ac>)
 800344c:	429c      	cmp	r4, r3
 800344e:	d105      	bne.n	800345c <LPTIM_Disable+0xcc>
      case LPTIM1_BASE:
        __HAL_RCC_LPTIM1_CONFIG(tmpclksource);
        break;
#if defined(LPTIM2)
      case LPTIM2_BASE:
        __HAL_RCC_LPTIM2_CONFIG(tmpclksource);
 8003450:	4a3d      	ldr	r2, [pc, #244]	@ (8003548 <LPTIM_Disable+0x1b8>)
 8003452:	493e      	ldr	r1, [pc, #248]	@ (800354c <LPTIM_Disable+0x1bc>)
 8003454:	6d53      	ldr	r3, [r2, #84]	@ 0x54
 8003456:	400b      	ands	r3, r1
 8003458:	4333      	orrs	r3, r6
 800345a:	6553      	str	r3, [r2, #84]	@ 0x54
        break;
    }
  }

  /* Restore configuration registers (LPTIM should be disabled first) */
  hlptim->Instance->CR &= ~(LPTIM_CR_ENABLE);
 800345c:	2201      	movs	r2, #1
 800345e:	6923      	ldr	r3, [r4, #16]
 8003460:	4393      	bics	r3, r2
 8003462:	6123      	str	r3, [r4, #16]
  hlptim->Instance->IER = tmpIER;
 8003464:	4653      	mov	r3, sl
 8003466:	60a3      	str	r3, [r4, #8]
  hlptim->Instance->CFGR = tmpCFGR;
 8003468:	464b      	mov	r3, r9
 800346a:	60e3      	str	r3, [r4, #12]
  hlptim->Instance->CFGR2 = tmpCFGR2;
 800346c:	4643      	mov	r3, r8
 800346e:	6263      	str	r3, [r4, #36]	@ 0x24
 8003470:	f387 8810 	msr	PRIMASK, r7

  /* Exit critical section: restore previous priority mask */
  __set_PRIMASK(primask_bit);
}
 8003474:	bcf0      	pop	{r4, r5, r6, r7}
 8003476:	46bb      	mov	fp, r7
 8003478:	46b2      	mov	sl, r6
 800347a:	46a9      	mov	r9, r5
 800347c:	46a0      	mov	r8, r4
 800347e:	bdf8      	pop	{r3, r4, r5, r6, r7, pc}
      tmpclksource = __HAL_RCC_GET_LPTIM1_SOURCE();
 8003480:	4b31      	ldr	r3, [pc, #196]	@ (8003548 <LPTIM_Disable+0x1b8>)
 8003482:	6d5e      	ldr	r6, [r3, #84]	@ 0x54
  tmpIER = hlptim->Instance->IER;
 8003484:	68a2      	ldr	r2, [r4, #8]
 8003486:	4692      	mov	sl, r2
  tmpCFGR = hlptim->Instance->CFGR;
 8003488:	68e2      	ldr	r2, [r4, #12]
 800348a:	4691      	mov	r9, r2
  tmpCMP = hlptim->Instance->CMP;
 800348c:	6962      	ldr	r2, [r4, #20]
  tmpARR = hlptim->Instance->ARR;
 800348e:	69a1      	ldr	r1, [r4, #24]
 8003490:	468b      	mov	fp, r1
  tmpCFGR2 = hlptim->Instance->CFGR2;
 8003492:	6a61      	ldr	r1, [r4, #36]	@ 0x24
      __HAL_RCC_LPTIM1_FORCE_RESET();
 8003494:	6ad8      	ldr	r0, [r3, #44]	@ 0x2c
  tmpCFGR2 = hlptim->Instance->CFGR2;
 8003496:	4688      	mov	r8, r1
      __HAL_RCC_LPTIM1_FORCE_RESET();
 8003498:	2180      	movs	r1, #128	@ 0x80
 800349a:	0609      	lsls	r1, r1, #24
 800349c:	4301      	orrs	r1, r0
 800349e:	62d9      	str	r1, [r3, #44]	@ 0x2c
      __HAL_RCC_LPTIM1_RELEASE_RESET();
 80034a0:	6ad9      	ldr	r1, [r3, #44]	@ 0x2c
 80034a2:	0049      	lsls	r1, r1, #1
 80034a4:	0849      	lsrs	r1, r1, #1
 80034a6:	62d9      	str	r1, [r3, #44]	@ 0x2c
  if ((tmpCMP != 0UL) || (tmpARR != 0UL))
 80034a8:	4659      	mov	r1, fp
 80034aa:	4311      	orrs	r1, r2
 80034ac:	d0d6      	beq.n	800345c <LPTIM_Disable+0xcc>
      tmpclksource = __HAL_RCC_GET_LPTIM1_SOURCE();
 80034ae:	21c0      	movs	r1, #192	@ 0xc0
 80034b0:	0309      	lsls	r1, r1, #12
        __HAL_RCC_LPTIM1_CONFIG(RCC_LPTIM1CLKSOURCE_PCLK1);
 80034b2:	4827      	ldr	r0, [pc, #156]	@ (8003550 <LPTIM_Disable+0x1c0>)
      tmpclksource = __HAL_RCC_GET_LPTIM1_SOURCE();
 80034b4:	400e      	ands	r6, r1
        __HAL_RCC_LPTIM1_CONFIG(RCC_LPTIM1CLKSOURCE_PCLK1);
 80034b6:	6d59      	ldr	r1, [r3, #84]	@ 0x54
 80034b8:	4001      	ands	r1, r0
 80034ba:	6559      	str	r1, [r3, #84]	@ 0x54
    if (tmpCMP != 0UL)
 80034bc:	2a00      	cmp	r2, #0
 80034be:	d000      	beq.n	80034c2 <LPTIM_Disable+0x132>
 80034c0:	e78a      	b.n	80033d8 <LPTIM_Disable+0x48>
    if (tmpARR != 0UL)
 80034c2:	465b      	mov	r3, fp
 80034c4:	2b00      	cmp	r3, #0
 80034c6:	d1a3      	bne.n	8003410 <LPTIM_Disable+0x80>
        __HAL_RCC_LPTIM1_CONFIG(tmpclksource);
 80034c8:	4a1f      	ldr	r2, [pc, #124]	@ (8003548 <LPTIM_Disable+0x1b8>)
 80034ca:	4921      	ldr	r1, [pc, #132]	@ (8003550 <LPTIM_Disable+0x1c0>)
 80034cc:	6d53      	ldr	r3, [r2, #84]	@ 0x54
 80034ce:	400b      	ands	r3, r1
 80034d0:	4333      	orrs	r3, r6
 80034d2:	6553      	str	r3, [r2, #84]	@ 0x54
        break;
 80034d4:	e7c2      	b.n	800345c <LPTIM_Disable+0xcc>
      tmpclksource = __HAL_RCC_GET_LPTIM2_SOURCE();
 80034d6:	4b1c      	ldr	r3, [pc, #112]	@ (8003548 <LPTIM_Disable+0x1b8>)
 80034d8:	6d5e      	ldr	r6, [r3, #84]	@ 0x54
  tmpIER = hlptim->Instance->IER;
 80034da:	68a2      	ldr	r2, [r4, #8]
 80034dc:	4692      	mov	sl, r2
  tmpCFGR = hlptim->Instance->CFGR;
 80034de:	68e2      	ldr	r2, [r4, #12]
 80034e0:	4691      	mov	r9, r2
  tmpCMP = hlptim->Instance->CMP;
 80034e2:	6962      	ldr	r2, [r4, #20]
  tmpARR = hlptim->Instance->ARR;
 80034e4:	69a1      	ldr	r1, [r4, #24]
 80034e6:	468b      	mov	fp, r1
  tmpCFGR2 = hlptim->Instance->CFGR2;
 80034e8:	6a61      	ldr	r1, [r4, #36]	@ 0x24
      __HAL_RCC_LPTIM2_FORCE_RESET();
 80034ea:	6ad8      	ldr	r0, [r3, #44]	@ 0x2c
  tmpCFGR2 = hlptim->Instance->CFGR2;
 80034ec:	4688      	mov	r8, r1
      __HAL_RCC_LPTIM2_FORCE_RESET();
 80034ee:	2180      	movs	r1, #128	@ 0x80
 80034f0:	05c9      	lsls	r1, r1, #23
 80034f2:	4301      	orrs	r1, r0
 80034f4:	62d9      	str	r1, [r3, #44]	@ 0x2c
      __HAL_RCC_LPTIM2_RELEASE_RESET();
 80034f6:	6ad9      	ldr	r1, [r3, #44]	@ 0x2c
 80034f8:	4816      	ldr	r0, [pc, #88]	@ (8003554 <LPTIM_Disable+0x1c4>)
 80034fa:	4001      	ands	r1, r0
 80034fc:	62d9      	str	r1, [r3, #44]	@ 0x2c
  if ((tmpCMP != 0UL) || (tmpARR != 0UL))
 80034fe:	4659      	mov	r1, fp
 8003500:	4311      	orrs	r1, r2
 8003502:	d0ab      	beq.n	800345c <LPTIM_Disable+0xcc>
      tmpclksource = __HAL_RCC_GET_LPTIM2_SOURCE();
 8003504:	21c0      	movs	r1, #192	@ 0xc0
 8003506:	0389      	lsls	r1, r1, #14
        __HAL_RCC_LPTIM2_CONFIG(RCC_LPTIM2CLKSOURCE_PCLK1);
 8003508:	4810      	ldr	r0, [pc, #64]	@ (800354c <LPTIM_Disable+0x1bc>)
      tmpclksource = __HAL_RCC_GET_LPTIM2_SOURCE();
 800350a:	400e      	ands	r6, r1
        __HAL_RCC_LPTIM2_CONFIG(RCC_LPTIM2CLKSOURCE_PCLK1);
 800350c:	6d59      	ldr	r1, [r3, #84]	@ 0x54
 800350e:	4001      	ands	r1, r0
 8003510:	6559      	str	r1, [r3, #84]	@ 0x54
    if (tmpCMP != 0UL)
 8003512:	2a00      	cmp	r2, #0
 8003514:	d000      	beq.n	8003518 <LPTIM_Disable+0x188>
 8003516:	e75f      	b.n	80033d8 <LPTIM_Disable+0x48>
    if (tmpARR != 0UL)
 8003518:	465b      	mov	r3, fp
 800351a:	2b00      	cmp	r3, #0
 800351c:	d000      	beq.n	8003520 <LPTIM_Disable+0x190>
 800351e:	e777      	b.n	8003410 <LPTIM_Disable+0x80>
 8003520:	e796      	b.n	8003450 <LPTIM_Disable+0xc0>
  } while ((!(__HAL_LPTIM_GET_FLAG((hlptim), (flag)))) && (count != 0UL));
 8003522:	6823      	ldr	r3, [r4, #0]
        hlptim->State = HAL_LPTIM_STATE_TIMEOUT;
 8003524:	2203      	movs	r2, #3
 8003526:	2336      	movs	r3, #54	@ 0x36
 8003528:	54ea      	strb	r2, [r5, r3]
 800352a:	e789      	b.n	8003440 <LPTIM_Disable+0xb0>
  } while ((!(__HAL_LPTIM_GET_FLAG((hlptim), (flag)))) && (count != 0UL));
 800352c:	6823      	ldr	r3, [r4, #0]
        hlptim->State = HAL_LPTIM_STATE_TIMEOUT;
 800352e:	2203      	movs	r2, #3
 8003530:	2336      	movs	r3, #54	@ 0x36
 8003532:	54ea      	strb	r2, [r5, r3]
 8003534:	e767      	b.n	8003406 <LPTIM_Disable+0x76>
 8003536:	46c0      	nop			@ (mov r8, r8)
 8003538:	40007c00 	.word	0x40007c00
 800353c:	40009400 	.word	0x40009400
 8003540:	2000040c 	.word	0x2000040c
 8003544:	00004e20 	.word	0x00004e20
 8003548:	40021000 	.word	0x40021000
 800354c:	ffcfffff 	.word	0xffcfffff
 8003550:	fff3ffff 	.word	0xfff3ffff
 8003554:	bfffffff 	.word	0xbfffffff

08003558 <HAL_LPTIM_SetOnce_Start_IT>:
{
 8003558:	b570      	push	{r4, r5, r6, lr}
  hlptim->State = HAL_LPTIM_STATE_BUSY;
 800355a:	2336      	movs	r3, #54	@ 0x36
{
 800355c:	0016      	movs	r6, r2
  hlptim->State = HAL_LPTIM_STATE_BUSY;
 800355e:	2202      	movs	r2, #2
 8003560:	54c2      	strb	r2, [r0, r3]
  hlptim->Instance->CFGR |= LPTIM_CFGR_WAVE;
 8003562:	2380      	movs	r3, #128	@ 0x80
 8003564:	6804      	ldr	r4, [r0, #0]
 8003566:	035b      	lsls	r3, r3, #13
 8003568:	68e2      	ldr	r2, [r4, #12]
{
 800356a:	0005      	movs	r5, r0
  hlptim->Instance->CFGR |= LPTIM_CFGR_WAVE;
 800356c:	4313      	orrs	r3, r2
  __HAL_LPTIM_ENABLE(hlptim);
 800356e:	2201      	movs	r2, #1
  hlptim->Instance->CFGR |= LPTIM_CFGR_WAVE;
 8003570:	60e3      	str	r3, [r4, #12]
  __HAL_LPTIM_ENABLE(hlptim);
 8003572:	6923      	ldr	r3, [r4, #16]
 8003574:	4313      	orrs	r3, r2
 8003576:	6123      	str	r3, [r4, #16]
  __HAL_LPTIM_CLEAR_FLAG(hlptim, LPTIM_FLAG_ARROK);
 8003578:	2310      	movs	r3, #16
 800357a:	6063      	str	r3, [r4, #4]
  uint32_t count = TIMEOUT * (SystemCoreClock / 20UL / 1000UL);
 800357c:	4b25      	ldr	r3, [pc, #148]	@ (8003614 <HAL_LPTIM_SetOnce_Start_IT+0xbc>)
  __HAL_LPTIM_AUTORELOAD_SET(hlptim, Period);
 800357e:	61a1      	str	r1, [r4, #24]
  uint32_t count = TIMEOUT * (SystemCoreClock / 20UL / 1000UL);
 8003580:	6818      	ldr	r0, [r3, #0]
 8003582:	4925      	ldr	r1, [pc, #148]	@ (8003618 <HAL_LPTIM_SetOnce_Start_IT+0xc0>)
 8003584:	f7fc fdbe 	bl	8000104 <__udivsi3>
 8003588:	0143      	lsls	r3, r0, #5
 800358a:	1a1b      	subs	r3, r3, r0
 800358c:	009b      	lsls	r3, r3, #2
 800358e:	181b      	adds	r3, r3, r0
 8003590:	00db      	lsls	r3, r3, #3
 8003592:	001a      	movs	r2, r3
  } while ((!(__HAL_LPTIM_GET_FLAG((hlptim), (flag)))) && (count != 0UL));
 8003594:	2010      	movs	r0, #16
    count--;
 8003596:	3a01      	subs	r2, #1
    if (count == 0UL)
 8003598:	2a00      	cmp	r2, #0
 800359a:	d037      	beq.n	800360c <HAL_LPTIM_SetOnce_Start_IT+0xb4>
  } while ((!(__HAL_LPTIM_GET_FLAG((hlptim), (flag)))) && (count != 0UL));
 800359c:	6821      	ldr	r1, [r4, #0]
 800359e:	4208      	tst	r0, r1
 80035a0:	d0f9      	beq.n	8003596 <HAL_LPTIM_SetOnce_Start_IT+0x3e>
  __HAL_LPTIM_CLEAR_FLAG(hlptim, LPTIM_FLAG_CMPOK);
 80035a2:	2208      	movs	r2, #8
 80035a4:	6062      	str	r2, [r4, #4]
  __HAL_LPTIM_COMPARE_SET(hlptim, Pulse);
 80035a6:	6166      	str	r6, [r4, #20]
  } while ((!(__HAL_LPTIM_GET_FLAG((hlptim), (flag)))) && (count != 0UL));
 80035a8:	2608      	movs	r6, #8
    count--;
 80035aa:	3b01      	subs	r3, #1
    if (count == 0UL)
 80035ac:	2b00      	cmp	r3, #0
 80035ae:	d02d      	beq.n	800360c <HAL_LPTIM_SetOnce_Start_IT+0xb4>
  } while ((!(__HAL_LPTIM_GET_FLAG((hlptim), (flag)))) && (count != 0UL));
 80035b0:	6822      	ldr	r2, [r4, #0]
 80035b2:	4216      	tst	r6, r2
 80035b4:	d0f9      	beq.n	80035aa <HAL_LPTIM_SetOnce_Start_IT+0x52>
  __HAL_LPTIM_DISABLE(hlptim);
 80035b6:	0028      	movs	r0, r5
 80035b8:	f7ff feea 	bl	8003390 <LPTIM_Disable>
  return hlptim->State;
 80035bc:	2336      	movs	r3, #54	@ 0x36
 80035be:	5ceb      	ldrb	r3, [r5, r3]
  if (HAL_LPTIM_GetState(hlptim) == HAL_LPTIM_STATE_TIMEOUT)
 80035c0:	2b03      	cmp	r3, #3
 80035c2:	d024      	beq.n	800360e <HAL_LPTIM_SetOnce_Start_IT+0xb6>
  __HAL_LPTIM_ENABLE_IT(hlptim, LPTIM_IT_ARROK);
 80035c4:	2110      	movs	r1, #16
 80035c6:	682b      	ldr	r3, [r5, #0]
 80035c8:	689a      	ldr	r2, [r3, #8]
 80035ca:	430a      	orrs	r2, r1
 80035cc:	609a      	str	r2, [r3, #8]
  __HAL_LPTIM_ENABLE_IT(hlptim, LPTIM_IT_CMPOK);
 80035ce:	689a      	ldr	r2, [r3, #8]
  __HAL_LPTIM_ENABLE_IT(hlptim, LPTIM_IT_ARRM);
 80035d0:	390e      	subs	r1, #14
  __HAL_LPTIM_ENABLE_IT(hlptim, LPTIM_IT_CMPOK);
 80035d2:	4332      	orrs	r2, r6
 80035d4:	609a      	str	r2, [r3, #8]
  __HAL_LPTIM_ENABLE_IT(hlptim, LPTIM_IT_ARRM);
 80035d6:	689a      	ldr	r2, [r3, #8]
 80035d8:	430a      	orrs	r2, r1
 80035da:	609a      	str	r2, [r3, #8]
  __HAL_LPTIM_ENABLE_IT(hlptim, LPTIM_IT_CMPM);
 80035dc:	689a      	ldr	r2, [r3, #8]
 80035de:	3901      	subs	r1, #1
 80035e0:	430a      	orrs	r2, r1
 80035e2:	609a      	str	r2, [r3, #8]
  if ((hlptim->Init.Trigger.Source) != LPTIM_TRIGSOURCE_SOFTWARE)
 80035e4:	6969      	ldr	r1, [r5, #20]
 80035e6:	4a0d      	ldr	r2, [pc, #52]	@ (800361c <HAL_LPTIM_SetOnce_Start_IT+0xc4>)
 80035e8:	4291      	cmp	r1, r2
 80035ea:	d003      	beq.n	80035f4 <HAL_LPTIM_SetOnce_Start_IT+0x9c>
    __HAL_LPTIM_ENABLE_IT(hlptim, LPTIM_IT_EXTTRIG);
 80035ec:	2104      	movs	r1, #4
 80035ee:	689a      	ldr	r2, [r3, #8]
 80035f0:	430a      	orrs	r2, r1
 80035f2:	609a      	str	r2, [r3, #8]
  __HAL_LPTIM_ENABLE(hlptim);
 80035f4:	2101      	movs	r1, #1
  __HAL_LPTIM_START_SINGLE(hlptim);
 80035f6:	2002      	movs	r0, #2
  __HAL_LPTIM_ENABLE(hlptim);
 80035f8:	691a      	ldr	r2, [r3, #16]
 80035fa:	430a      	orrs	r2, r1
 80035fc:	611a      	str	r2, [r3, #16]
  __HAL_LPTIM_START_SINGLE(hlptim);
 80035fe:	691a      	ldr	r2, [r3, #16]
 8003600:	4302      	orrs	r2, r0
 8003602:	611a      	str	r2, [r3, #16]
  hlptim->State = HAL_LPTIM_STATE_READY;
 8003604:	2336      	movs	r3, #54	@ 0x36
  return HAL_OK;
 8003606:	2000      	movs	r0, #0
  hlptim->State = HAL_LPTIM_STATE_READY;
 8003608:	54e9      	strb	r1, [r5, r3]
}
 800360a:	bd70      	pop	{r4, r5, r6, pc}
  } while ((!(__HAL_LPTIM_GET_FLAG((hlptim), (flag)))) && (count != 0UL));
 800360c:	6823      	ldr	r3, [r4, #0]
    return HAL_TIMEOUT;
 800360e:	2003      	movs	r0, #3
 8003610:	e7fb      	b.n	800360a <HAL_LPTIM_SetOnce_Start_IT+0xb2>
 8003612:	46c0      	nop			@ (mov r8, r8)
 8003614:	2000040c 	.word	0x2000040c
 8003618:	00004e20 	.word	0x00004e20
 800361c:	0000ffff 	.word	0x0000ffff

08003620 <HAL_PWREx_ControlVoltageScaling>:
  *        cleared before returning the status. If the flag is not cleared within
  *        6 microseconds, HAL_TIMEOUT status is reported.
  * @retval HAL Status
  */
HAL_StatusTypeDef HAL_PWREx_ControlVoltageScaling(uint32_t VoltageScaling)
{
 8003620:	b570      	push	{r4, r5, r6, lr}
  uint32_t wait_loop_index;

  assert_param(IS_PWR_VOLTAGE_SCALING_RANGE(VoltageScaling));

  /* Modify voltage scaling range */
  MODIFY_REG(PWR->CR1, PWR_CR1_VOS, VoltageScaling);
 8003622:	4c13      	ldr	r4, [pc, #76]	@ (8003670 <HAL_PWREx_ControlVoltageScaling+0x50>)
 8003624:	4a13      	ldr	r2, [pc, #76]	@ (8003674 <HAL_PWREx_ControlVoltageScaling+0x54>)
 8003626:	6823      	ldr	r3, [r4, #0]
        return HAL_TIMEOUT;
      }
    }
  }

  return HAL_OK;
 8003628:	2500      	movs	r5, #0
  MODIFY_REG(PWR->CR1, PWR_CR1_VOS, VoltageScaling);
 800362a:	4013      	ands	r3, r2
 800362c:	4303      	orrs	r3, r0
 800362e:	6023      	str	r3, [r4, #0]
  if (VoltageScaling == PWR_REGULATOR_VOLTAGE_SCALE1)
 8003630:	2380      	movs	r3, #128	@ 0x80
 8003632:	009b      	lsls	r3, r3, #2
 8003634:	4298      	cmp	r0, r3
 8003636:	d001      	beq.n	800363c <HAL_PWREx_ControlVoltageScaling+0x1c>
}
 8003638:	0028      	movs	r0, r5
 800363a:	bd70      	pop	{r4, r5, r6, pc}
    wait_loop_index = ((PWR_VOSF_SETTING_DELAY_6_US * SystemCoreClock) / 1000000U) + 1U;
 800363c:	4b0e      	ldr	r3, [pc, #56]	@ (8003678 <HAL_PWREx_ControlVoltageScaling+0x58>)
 800363e:	490f      	ldr	r1, [pc, #60]	@ (800367c <HAL_PWREx_ControlVoltageScaling+0x5c>)
 8003640:	681b      	ldr	r3, [r3, #0]
 8003642:	0058      	lsls	r0, r3, #1
 8003644:	18c0      	adds	r0, r0, r3
 8003646:	0040      	lsls	r0, r0, #1
 8003648:	f7fc fd5c 	bl	8000104 <__udivsi3>
    while (HAL_IS_BIT_SET(PWR->SR2, PWR_SR2_VOSF))
 800364c:	2280      	movs	r2, #128	@ 0x80
 800364e:	6963      	ldr	r3, [r4, #20]
 8003650:	00d2      	lsls	r2, r2, #3
    wait_loop_index = ((PWR_VOSF_SETTING_DELAY_6_US * SystemCoreClock) / 1000000U) + 1U;
 8003652:	3001      	adds	r0, #1
    while (HAL_IS_BIT_SET(PWR->SR2, PWR_SR2_VOSF))
 8003654:	4213      	tst	r3, r2
 8003656:	d102      	bne.n	800365e <HAL_PWREx_ControlVoltageScaling+0x3e>
 8003658:	e7ee      	b.n	8003638 <HAL_PWREx_ControlVoltageScaling+0x18>
      if (wait_loop_index != 0U)
 800365a:	2800      	cmp	r0, #0
 800365c:	d005      	beq.n	800366a <HAL_PWREx_ControlVoltageScaling+0x4a>
    while (HAL_IS_BIT_SET(PWR->SR2, PWR_SR2_VOSF))
 800365e:	6963      	ldr	r3, [r4, #20]
        wait_loop_index--;
 8003660:	3801      	subs	r0, #1
    while (HAL_IS_BIT_SET(PWR->SR2, PWR_SR2_VOSF))
 8003662:	4213      	tst	r3, r2
 8003664:	d1f9      	bne.n	800365a <HAL_PWREx_ControlVoltageScaling+0x3a>
  return HAL_OK;
 8003666:	2500      	movs	r5, #0
 8003668:	e7e6      	b.n	8003638 <HAL_PWREx_ControlVoltageScaling+0x18>
        return HAL_TIMEOUT;
 800366a:	2503      	movs	r5, #3
 800366c:	e7e4      	b.n	8003638 <HAL_PWREx_ControlVoltageScaling+0x18>
 800366e:	46c0      	nop			@ (mov r8, r8)
 8003670:	40007000 	.word	0x40007000
 8003674:	fffff9ff 	.word	0xfffff9ff
 8003678:	2000040c 	.word	0x2000040c
 800367c:	000f4240 	.word	0x000f4240

08003680 <HAL_RCC_OscConfig>:
  *         supported by this function. User should request a transition to LSE Off
  *         first and then to LSE On or LSE Bypass.
  * @retval HAL status
  */
HAL_StatusTypeDef HAL_RCC_OscConfig(RCC_OscInitTypeDef  *RCC_OscInitStruct)
{
 8003680:	b5f0      	push	{r4, r5, r6, r7, lr}
 8003682:	46ce      	mov	lr, r9
 8003684:	4647      	mov	r7, r8
 8003686:	b580      	push	{r7, lr}
 8003688:	0004      	movs	r4, r0
 800368a:	b083      	sub	sp, #12
  uint32_t tickstart;
  uint32_t temp_sysclksrc;
  uint32_t temp_pllckcfg;

  /* Check Null pointer */
  if (RCC_OscInitStruct == NULL)
 800368c:	2800      	cmp	r0, #0
 800368e:	d027      	beq.n	80036e0 <HAL_RCC_OscConfig+0x60>

  /* Check the parameters */
  assert_param(IS_RCC_OSCILLATORTYPE(RCC_OscInitStruct->OscillatorType));

  /*------------------------------- HSE Configuration ------------------------*/
  if (((RCC_OscInitStruct->OscillatorType) & RCC_OSCILLATORTYPE_HSE) == RCC_OSCILLATORTYPE_HSE)
 8003690:	6803      	ldr	r3, [r0, #0]
 8003692:	07da      	lsls	r2, r3, #31
 8003694:	d511      	bpl.n	80036ba <HAL_RCC_OscConfig+0x3a>
  {
    /* Check the parameters */
    assert_param(IS_RCC_HSE(RCC_OscInitStruct->HSEState));

    temp_sysclksrc = __HAL_RCC_GET_SYSCLK_SOURCE();
 8003696:	2238      	movs	r2, #56	@ 0x38
 8003698:	49c0      	ldr	r1, [pc, #768]	@ (800399c <HAL_RCC_OscConfig+0x31c>)
 800369a:	6888      	ldr	r0, [r1, #8]
    temp_pllckcfg = __HAL_RCC_GET_PLL_OSCSOURCE();
 800369c:	68c9      	ldr	r1, [r1, #12]
    temp_sysclksrc = __HAL_RCC_GET_SYSCLK_SOURCE();
 800369e:	4002      	ands	r2, r0

    /* When the HSE is used as system clock or clock source for PLL in these cases it is not allowed to be disabled */
    if (((temp_sysclksrc == RCC_SYSCLKSOURCE_STATUS_PLLCLK) && (temp_pllckcfg == RCC_PLLSOURCE_HSE))
 80036a0:	2a10      	cmp	r2, #16
 80036a2:	d100      	bne.n	80036a6 <HAL_RCC_OscConfig+0x26>
 80036a4:	e0cc      	b.n	8003840 <HAL_RCC_OscConfig+0x1c0>
        || (temp_sysclksrc == RCC_SYSCLKSOURCE_STATUS_HSE))
 80036a6:	2a08      	cmp	r2, #8
 80036a8:	d000      	beq.n	80036ac <HAL_RCC_OscConfig+0x2c>
 80036aa:	e0cd      	b.n	8003848 <HAL_RCC_OscConfig+0x1c8>
    {
      if ((READ_BIT(RCC->CR, RCC_CR_HSERDY) != 0U) && (RCC_OscInitStruct->HSEState == RCC_HSE_OFF))
 80036ac:	4abb      	ldr	r2, [pc, #748]	@ (800399c <HAL_RCC_OscConfig+0x31c>)
 80036ae:	6812      	ldr	r2, [r2, #0]
 80036b0:	0392      	lsls	r2, r2, #14
 80036b2:	d502      	bpl.n	80036ba <HAL_RCC_OscConfig+0x3a>
 80036b4:	6862      	ldr	r2, [r4, #4]
 80036b6:	2a00      	cmp	r2, #0
 80036b8:	d012      	beq.n	80036e0 <HAL_RCC_OscConfig+0x60>
        }
      }
    }
  }
  /*----------------------------- HSI Configuration --------------------------*/
  if (((RCC_OscInitStruct->OscillatorType) & RCC_OSCILLATORTYPE_HSI) == RCC_OSCILLATORTYPE_HSI)
 80036ba:	079a      	lsls	r2, r3, #30
 80036bc:	d532      	bpl.n	8003724 <HAL_RCC_OscConfig+0xa4>
    assert_param(IS_RCC_HSI(RCC_OscInitStruct->HSIState));
    assert_param(IS_RCC_HSI_CALIBRATION_VALUE(RCC_OscInitStruct->HSICalibrationValue));
    assert_param(IS_RCC_HSIDIV(RCC_OscInitStruct->HSIDiv));

    /* Check if HSI16 is used as system clock or as PLL source when PLL is selected as system clock */
    temp_sysclksrc = __HAL_RCC_GET_SYSCLK_SOURCE();
 80036be:	2338      	movs	r3, #56	@ 0x38
 80036c0:	4ab6      	ldr	r2, [pc, #728]	@ (800399c <HAL_RCC_OscConfig+0x31c>)
 80036c2:	6891      	ldr	r1, [r2, #8]
 80036c4:	400b      	ands	r3, r1
    temp_pllckcfg = __HAL_RCC_GET_PLL_OSCSOURCE();
 80036c6:	68d1      	ldr	r1, [r2, #12]
    if (((temp_sysclksrc == RCC_SYSCLKSOURCE_STATUS_PLLCLK) && (temp_pllckcfg == RCC_PLLSOURCE_HSI))
 80036c8:	2b10      	cmp	r3, #16
 80036ca:	d100      	bne.n	80036ce <HAL_RCC_OscConfig+0x4e>
 80036cc:	e10b      	b.n	80038e6 <HAL_RCC_OscConfig+0x266>
        || (temp_sysclksrc == RCC_SYSCLKSOURCE_STATUS_HSI))
 80036ce:	2b00      	cmp	r3, #0
 80036d0:	d000      	beq.n	80036d4 <HAL_RCC_OscConfig+0x54>
 80036d2:	e10d      	b.n	80038f0 <HAL_RCC_OscConfig+0x270>
    {
      /* When HSI is used as system clock or as PLL input clock it can not be disabled */
      if ((READ_BIT(RCC->CR, RCC_CR_HSIRDY) != 0U) && (RCC_OscInitStruct->HSIState == RCC_HSI_OFF))
 80036d4:	6813      	ldr	r3, [r2, #0]
 80036d6:	055b      	lsls	r3, r3, #21
 80036d8:	d508      	bpl.n	80036ec <HAL_RCC_OscConfig+0x6c>
 80036da:	68e3      	ldr	r3, [r4, #12]
 80036dc:	2b00      	cmp	r3, #0
 80036de:	d105      	bne.n	80036ec <HAL_RCC_OscConfig+0x6c>
    return HAL_ERROR;
 80036e0:	2001      	movs	r0, #1
        }
      }
    }
  }
  return HAL_OK;
}
 80036e2:	b003      	add	sp, #12
 80036e4:	bcc0      	pop	{r6, r7}
 80036e6:	46b9      	mov	r9, r7
 80036e8:	46b0      	mov	r8, r6
 80036ea:	bdf0      	pop	{r4, r5, r6, r7, pc}
        __HAL_RCC_HSI_CALIBRATIONVALUE_ADJUST(RCC_OscInitStruct->HSICalibrationValue);
 80036ec:	6851      	ldr	r1, [r2, #4]
 80036ee:	6963      	ldr	r3, [r4, #20]
 80036f0:	48ab      	ldr	r0, [pc, #684]	@ (80039a0 <HAL_RCC_OscConfig+0x320>)
 80036f2:	021b      	lsls	r3, r3, #8
 80036f4:	4001      	ands	r1, r0
 80036f6:	430b      	orrs	r3, r1
 80036f8:	6053      	str	r3, [r2, #4]
          __HAL_RCC_HSI_CONFIG(RCC_OscInitStruct->HSIDiv);
 80036fa:	4aa8      	ldr	r2, [pc, #672]	@ (800399c <HAL_RCC_OscConfig+0x31c>)
 80036fc:	49a9      	ldr	r1, [pc, #676]	@ (80039a4 <HAL_RCC_OscConfig+0x324>)
 80036fe:	6813      	ldr	r3, [r2, #0]
 8003700:	400b      	ands	r3, r1
 8003702:	6921      	ldr	r1, [r4, #16]
 8003704:	430b      	orrs	r3, r1
 8003706:	6013      	str	r3, [r2, #0]
          SystemCoreClock = (HSI_VALUE / (1UL << ((READ_BIT(RCC->CR, RCC_CR_HSIDIV)) >> RCC_CR_HSIDIV_Pos)));
 8003708:	6813      	ldr	r3, [r2, #0]
 800370a:	4aa7      	ldr	r2, [pc, #668]	@ (80039a8 <HAL_RCC_OscConfig+0x328>)
 800370c:	049b      	lsls	r3, r3, #18
 800370e:	0f5b      	lsrs	r3, r3, #29
 8003710:	40da      	lsrs	r2, r3
 8003712:	49a6      	ldr	r1, [pc, #664]	@ (80039ac <HAL_RCC_OscConfig+0x32c>)
 8003714:	600a      	str	r2, [r1, #0]
        if (HAL_InitTick(uwTickPrio) != HAL_OK)
 8003716:	4ba6      	ldr	r3, [pc, #664]	@ (80039b0 <HAL_RCC_OscConfig+0x330>)
 8003718:	6818      	ldr	r0, [r3, #0]
 800371a:	f7fe fc2d 	bl	8001f78 <HAL_InitTick>
 800371e:	2800      	cmp	r0, #0
 8003720:	d1de      	bne.n	80036e0 <HAL_RCC_OscConfig+0x60>
  if (((RCC_OscInitStruct->OscillatorType) & RCC_OSCILLATORTYPE_LSI) == RCC_OSCILLATORTYPE_LSI)
 8003722:	6823      	ldr	r3, [r4, #0]
 8003724:	071a      	lsls	r2, r3, #28
 8003726:	d46d      	bmi.n	8003804 <HAL_RCC_OscConfig+0x184>
  if (((RCC_OscInitStruct->OscillatorType) & RCC_OSCILLATORTYPE_LSE) == RCC_OSCILLATORTYPE_LSE)
 8003728:	075b      	lsls	r3, r3, #29
 800372a:	d545      	bpl.n	80037b8 <HAL_RCC_OscConfig+0x138>
    if (__HAL_RCC_GET_SYSCLK_SOURCE() == RCC_SYSCLKSOURCE_STATUS_LSE)
 800372c:	2338      	movs	r3, #56	@ 0x38
 800372e:	4a9b      	ldr	r2, [pc, #620]	@ (800399c <HAL_RCC_OscConfig+0x31c>)
 8003730:	6891      	ldr	r1, [r2, #8]
 8003732:	400b      	ands	r3, r1
 8003734:	2b20      	cmp	r3, #32
 8003736:	d100      	bne.n	800373a <HAL_RCC_OscConfig+0xba>
 8003738:	e0cc      	b.n	80038d4 <HAL_RCC_OscConfig+0x254>
      if (__HAL_RCC_PWR_IS_CLK_DISABLED() != 0U)
 800373a:	2380      	movs	r3, #128	@ 0x80
    FlagStatus       pwrclkchanged = RESET;
 800373c:	2000      	movs	r0, #0
      if (__HAL_RCC_PWR_IS_CLK_DISABLED() != 0U)
 800373e:	6bd1      	ldr	r1, [r2, #60]	@ 0x3c
 8003740:	055b      	lsls	r3, r3, #21
    FlagStatus       pwrclkchanged = RESET;
 8003742:	4681      	mov	r9, r0
      if (__HAL_RCC_PWR_IS_CLK_DISABLED() != 0U)
 8003744:	4219      	tst	r1, r3
 8003746:	d108      	bne.n	800375a <HAL_RCC_OscConfig+0xda>
        __HAL_RCC_PWR_CLK_ENABLE();
 8003748:	6bd1      	ldr	r1, [r2, #60]	@ 0x3c
 800374a:	4319      	orrs	r1, r3
 800374c:	63d1      	str	r1, [r2, #60]	@ 0x3c
 800374e:	6bd2      	ldr	r2, [r2, #60]	@ 0x3c
 8003750:	4013      	ands	r3, r2
 8003752:	9301      	str	r3, [sp, #4]
 8003754:	9b01      	ldr	r3, [sp, #4]
        pwrclkchanged = SET;
 8003756:	2301      	movs	r3, #1
 8003758:	4699      	mov	r9, r3
      if (HAL_IS_BIT_CLR(PWR->CR1, PWR_CR1_DBP))
 800375a:	2780      	movs	r7, #128	@ 0x80
 800375c:	4e95      	ldr	r6, [pc, #596]	@ (80039b4 <HAL_RCC_OscConfig+0x334>)
 800375e:	007f      	lsls	r7, r7, #1
 8003760:	6833      	ldr	r3, [r6, #0]
 8003762:	423b      	tst	r3, r7
 8003764:	d100      	bne.n	8003768 <HAL_RCC_OscConfig+0xe8>
 8003766:	e0ff      	b.n	8003968 <HAL_RCC_OscConfig+0x2e8>
      __HAL_RCC_LSE_CONFIG(RCC_OscInitStruct->LSEState);
 8003768:	68a3      	ldr	r3, [r4, #8]
 800376a:	2b01      	cmp	r3, #1
 800376c:	d100      	bne.n	8003770 <HAL_RCC_OscConfig+0xf0>
 800376e:	e0e5      	b.n	800393c <HAL_RCC_OscConfig+0x2bc>
 8003770:	2b05      	cmp	r3, #5
 8003772:	d100      	bne.n	8003776 <HAL_RCC_OscConfig+0xf6>
 8003774:	e1d1      	b.n	8003b1a <HAL_RCC_OscConfig+0x49a>
 8003776:	2101      	movs	r1, #1
 8003778:	4e88      	ldr	r6, [pc, #544]	@ (800399c <HAL_RCC_OscConfig+0x31c>)
 800377a:	6df2      	ldr	r2, [r6, #92]	@ 0x5c
 800377c:	438a      	bics	r2, r1
 800377e:	65f2      	str	r2, [r6, #92]	@ 0x5c
 8003780:	6df2      	ldr	r2, [r6, #92]	@ 0x5c
 8003782:	3103      	adds	r1, #3
 8003784:	438a      	bics	r2, r1
 8003786:	65f2      	str	r2, [r6, #92]	@ 0x5c
      if (RCC_OscInitStruct->LSEState != RCC_LSE_OFF)
 8003788:	2b00      	cmp	r3, #0
 800378a:	d000      	beq.n	800378e <HAL_RCC_OscConfig+0x10e>
 800378c:	e0da      	b.n	8003944 <HAL_RCC_OscConfig+0x2c4>
        tickstart = HAL_GetTick();
 800378e:	f7fe fc39 	bl	8002004 <HAL_GetTick>
        while (READ_BIT(RCC->BDCR, RCC_BDCR_LSERDY) != 0U)
 8003792:	2302      	movs	r3, #2
        tickstart = HAL_GetTick();
 8003794:	0007      	movs	r7, r0
        while (READ_BIT(RCC->BDCR, RCC_BDCR_LSERDY) != 0U)
 8003796:	4698      	mov	r8, r3
          if ((HAL_GetTick() - tickstart) > RCC_LSE_TIMEOUT_VALUE)
 8003798:	4d87      	ldr	r5, [pc, #540]	@ (80039b8 <HAL_RCC_OscConfig+0x338>)
        while (READ_BIT(RCC->BDCR, RCC_BDCR_LSERDY) != 0U)
 800379a:	e005      	b.n	80037a8 <HAL_RCC_OscConfig+0x128>
          if ((HAL_GetTick() - tickstart) > RCC_LSE_TIMEOUT_VALUE)
 800379c:	f7fe fc32 	bl	8002004 <HAL_GetTick>
 80037a0:	1bc0      	subs	r0, r0, r7
 80037a2:	42a8      	cmp	r0, r5
 80037a4:	d900      	bls.n	80037a8 <HAL_RCC_OscConfig+0x128>
 80037a6:	e0ee      	b.n	8003986 <HAL_RCC_OscConfig+0x306>
        while (READ_BIT(RCC->BDCR, RCC_BDCR_LSERDY) != 0U)
 80037a8:	4642      	mov	r2, r8
 80037aa:	6df3      	ldr	r3, [r6, #92]	@ 0x5c
 80037ac:	421a      	tst	r2, r3
 80037ae:	d1f5      	bne.n	800379c <HAL_RCC_OscConfig+0x11c>
      if (pwrclkchanged == SET)
 80037b0:	464b      	mov	r3, r9
 80037b2:	2b01      	cmp	r3, #1
 80037b4:	d100      	bne.n	80037b8 <HAL_RCC_OscConfig+0x138>
 80037b6:	e16a      	b.n	8003a8e <HAL_RCC_OscConfig+0x40e>
  if (RCC_OscInitStruct->PLL.PLLState != RCC_PLL_NONE)
 80037b8:	69e3      	ldr	r3, [r4, #28]
 80037ba:	2b00      	cmp	r3, #0
 80037bc:	d020      	beq.n	8003800 <HAL_RCC_OscConfig+0x180>
    if (__HAL_RCC_GET_SYSCLK_SOURCE() != RCC_SYSCLKSOURCE_STATUS_PLLCLK)
 80037be:	2238      	movs	r2, #56	@ 0x38
 80037c0:	4d76      	ldr	r5, [pc, #472]	@ (800399c <HAL_RCC_OscConfig+0x31c>)
 80037c2:	68a9      	ldr	r1, [r5, #8]
 80037c4:	400a      	ands	r2, r1
 80037c6:	2a10      	cmp	r2, #16
 80037c8:	d100      	bne.n	80037cc <HAL_RCC_OscConfig+0x14c>
 80037ca:	e11d      	b.n	8003a08 <HAL_RCC_OscConfig+0x388>
      if (RCC_OscInitStruct->PLL.PLLState == RCC_PLL_ON)
 80037cc:	2b02      	cmp	r3, #2
 80037ce:	d100      	bne.n	80037d2 <HAL_RCC_OscConfig+0x152>
 80037d0:	e163      	b.n	8003a9a <HAL_RCC_OscConfig+0x41a>
        __HAL_RCC_PLL_DISABLE();
 80037d2:	682b      	ldr	r3, [r5, #0]
 80037d4:	4a79      	ldr	r2, [pc, #484]	@ (80039bc <HAL_RCC_OscConfig+0x33c>)
        while (READ_BIT(RCC->CR, RCC_CR_PLLRDY) != 0U)
 80037d6:	2680      	movs	r6, #128	@ 0x80
        __HAL_RCC_PLL_DISABLE();
 80037d8:	4013      	ands	r3, r2
 80037da:	602b      	str	r3, [r5, #0]
        tickstart = HAL_GetTick();
 80037dc:	f7fe fc12 	bl	8002004 <HAL_GetTick>
        while (READ_BIT(RCC->CR, RCC_CR_PLLRDY) != 0U)
 80037e0:	04b6      	lsls	r6, r6, #18
        tickstart = HAL_GetTick();
 80037e2:	0004      	movs	r4, r0
        while (READ_BIT(RCC->CR, RCC_CR_PLLRDY) != 0U)
 80037e4:	e005      	b.n	80037f2 <HAL_RCC_OscConfig+0x172>
          if ((HAL_GetTick() - tickstart) > PLL_TIMEOUT_VALUE)
 80037e6:	f7fe fc0d 	bl	8002004 <HAL_GetTick>
 80037ea:	1b00      	subs	r0, r0, r4
 80037ec:	2802      	cmp	r0, #2
 80037ee:	d900      	bls.n	80037f2 <HAL_RCC_OscConfig+0x172>
 80037f0:	e0c9      	b.n	8003986 <HAL_RCC_OscConfig+0x306>
        while (READ_BIT(RCC->CR, RCC_CR_PLLRDY) != 0U)
 80037f2:	682b      	ldr	r3, [r5, #0]
 80037f4:	4233      	tst	r3, r6
 80037f6:	d1f6      	bne.n	80037e6 <HAL_RCC_OscConfig+0x166>
        RCC->PLLCFGR &= ~(RCC_PLLCFGR_PLLSRC | RCC_PLLCFGR_PLLPEN | RCC_PLLCFGR_PLLQEN | RCC_PLLCFGR_PLLREN);
 80037f8:	68eb      	ldr	r3, [r5, #12]
 80037fa:	4a71      	ldr	r2, [pc, #452]	@ (80039c0 <HAL_RCC_OscConfig+0x340>)
 80037fc:	4013      	ands	r3, r2
 80037fe:	60eb      	str	r3, [r5, #12]
  return HAL_OK;
 8003800:	2000      	movs	r0, #0
 8003802:	e76e      	b.n	80036e2 <HAL_RCC_OscConfig+0x62>
    if (__HAL_RCC_GET_SYSCLK_SOURCE() == RCC_SYSCLKSOURCE_STATUS_LSI)
 8003804:	2238      	movs	r2, #56	@ 0x38
 8003806:	4d65      	ldr	r5, [pc, #404]	@ (800399c <HAL_RCC_OscConfig+0x31c>)
 8003808:	68a9      	ldr	r1, [r5, #8]
 800380a:	400a      	ands	r2, r1
 800380c:	2a18      	cmp	r2, #24
 800380e:	d043      	beq.n	8003898 <HAL_RCC_OscConfig+0x218>
      if (RCC_OscInitStruct->LSIState != RCC_LSI_OFF)
 8003810:	69a3      	ldr	r3, [r4, #24]
 8003812:	2b00      	cmp	r3, #0
 8003814:	d100      	bne.n	8003818 <HAL_RCC_OscConfig+0x198>
 8003816:	e0b8      	b.n	800398a <HAL_RCC_OscConfig+0x30a>
        __HAL_RCC_LSI_ENABLE();
 8003818:	2201      	movs	r2, #1
 800381a:	6e2b      	ldr	r3, [r5, #96]	@ 0x60
        while (READ_BIT(RCC->CSR, RCC_CSR_LSIRDY) == 0U)
 800381c:	2702      	movs	r7, #2
        __HAL_RCC_LSI_ENABLE();
 800381e:	4313      	orrs	r3, r2
 8003820:	662b      	str	r3, [r5, #96]	@ 0x60
        tickstart = HAL_GetTick();
 8003822:	f7fe fbef 	bl	8002004 <HAL_GetTick>
 8003826:	0006      	movs	r6, r0
        while (READ_BIT(RCC->CSR, RCC_CSR_LSIRDY) == 0U)
 8003828:	e005      	b.n	8003836 <HAL_RCC_OscConfig+0x1b6>
          if ((HAL_GetTick() - tickstart) > LSI_TIMEOUT_VALUE)
 800382a:	f7fe fbeb 	bl	8002004 <HAL_GetTick>
 800382e:	1b80      	subs	r0, r0, r6
 8003830:	2802      	cmp	r0, #2
 8003832:	d900      	bls.n	8003836 <HAL_RCC_OscConfig+0x1b6>
 8003834:	e0a7      	b.n	8003986 <HAL_RCC_OscConfig+0x306>
        while (READ_BIT(RCC->CSR, RCC_CSR_LSIRDY) == 0U)
 8003836:	6e2b      	ldr	r3, [r5, #96]	@ 0x60
 8003838:	421f      	tst	r7, r3
 800383a:	d0f6      	beq.n	800382a <HAL_RCC_OscConfig+0x1aa>
  if (((RCC_OscInitStruct->OscillatorType) & RCC_OSCILLATORTYPE_LSE) == RCC_OSCILLATORTYPE_LSE)
 800383c:	6823      	ldr	r3, [r4, #0]
 800383e:	e773      	b.n	8003728 <HAL_RCC_OscConfig+0xa8>
    temp_pllckcfg = __HAL_RCC_GET_PLL_OSCSOURCE();
 8003840:	43c9      	mvns	r1, r1
    if (((temp_sysclksrc == RCC_SYSCLKSOURCE_STATUS_PLLCLK) && (temp_pllckcfg == RCC_PLLSOURCE_HSE))
 8003842:	0789      	lsls	r1, r1, #30
 8003844:	d100      	bne.n	8003848 <HAL_RCC_OscConfig+0x1c8>
 8003846:	e731      	b.n	80036ac <HAL_RCC_OscConfig+0x2c>
      __HAL_RCC_HSE_CONFIG(RCC_OscInitStruct->HSEState);
 8003848:	2280      	movs	r2, #128	@ 0x80
 800384a:	6863      	ldr	r3, [r4, #4]
 800384c:	0252      	lsls	r2, r2, #9
 800384e:	4293      	cmp	r3, r2
 8003850:	d02b      	beq.n	80038aa <HAL_RCC_OscConfig+0x22a>
 8003852:	21a0      	movs	r1, #160	@ 0xa0
 8003854:	02c9      	lsls	r1, r1, #11
 8003856:	428b      	cmp	r3, r1
 8003858:	d100      	bne.n	800385c <HAL_RCC_OscConfig+0x1dc>
 800385a:	e103      	b.n	8003a64 <HAL_RCC_OscConfig+0x3e4>
 800385c:	4d4f      	ldr	r5, [pc, #316]	@ (800399c <HAL_RCC_OscConfig+0x31c>)
 800385e:	4959      	ldr	r1, [pc, #356]	@ (80039c4 <HAL_RCC_OscConfig+0x344>)
 8003860:	682a      	ldr	r2, [r5, #0]
 8003862:	400a      	ands	r2, r1
 8003864:	602a      	str	r2, [r5, #0]
 8003866:	682a      	ldr	r2, [r5, #0]
 8003868:	4957      	ldr	r1, [pc, #348]	@ (80039c8 <HAL_RCC_OscConfig+0x348>)
 800386a:	400a      	ands	r2, r1
 800386c:	602a      	str	r2, [r5, #0]
      if (RCC_OscInitStruct->HSEState != RCC_HSE_OFF)
 800386e:	2b00      	cmp	r3, #0
 8003870:	d11f      	bne.n	80038b2 <HAL_RCC_OscConfig+0x232>
        tickstart = HAL_GetTick();
 8003872:	f7fe fbc7 	bl	8002004 <HAL_GetTick>
        while (READ_BIT(RCC->CR, RCC_CR_HSERDY) != 0U)
 8003876:	2780      	movs	r7, #128	@ 0x80
        tickstart = HAL_GetTick();
 8003878:	0006      	movs	r6, r0
        while (READ_BIT(RCC->CR, RCC_CR_HSERDY) != 0U)
 800387a:	02bf      	lsls	r7, r7, #10
 800387c:	e004      	b.n	8003888 <HAL_RCC_OscConfig+0x208>
          if ((HAL_GetTick() - tickstart) > HSE_TIMEOUT_VALUE)
 800387e:	f7fe fbc1 	bl	8002004 <HAL_GetTick>
 8003882:	1b80      	subs	r0, r0, r6
 8003884:	2864      	cmp	r0, #100	@ 0x64
 8003886:	d87e      	bhi.n	8003986 <HAL_RCC_OscConfig+0x306>
        while (READ_BIT(RCC->CR, RCC_CR_HSERDY) != 0U)
 8003888:	682b      	ldr	r3, [r5, #0]
 800388a:	423b      	tst	r3, r7
 800388c:	d1f7      	bne.n	800387e <HAL_RCC_OscConfig+0x1fe>
  if (((RCC_OscInitStruct->OscillatorType) & RCC_OSCILLATORTYPE_HSI) == RCC_OSCILLATORTYPE_HSI)
 800388e:	6823      	ldr	r3, [r4, #0]
 8003890:	079a      	lsls	r2, r3, #30
 8003892:	d400      	bmi.n	8003896 <HAL_RCC_OscConfig+0x216>
 8003894:	e746      	b.n	8003724 <HAL_RCC_OscConfig+0xa4>
 8003896:	e712      	b.n	80036be <HAL_RCC_OscConfig+0x3e>
      if ((((RCC->CSR) & RCC_CSR_LSIRDY) != 0U) && (RCC_OscInitStruct->LSIState == RCC_LSI_OFF))
 8003898:	6e2a      	ldr	r2, [r5, #96]	@ 0x60
 800389a:	0792      	lsls	r2, r2, #30
 800389c:	d400      	bmi.n	80038a0 <HAL_RCC_OscConfig+0x220>
 800389e:	e743      	b.n	8003728 <HAL_RCC_OscConfig+0xa8>
 80038a0:	69a2      	ldr	r2, [r4, #24]
 80038a2:	2a00      	cmp	r2, #0
 80038a4:	d000      	beq.n	80038a8 <HAL_RCC_OscConfig+0x228>
 80038a6:	e73f      	b.n	8003728 <HAL_RCC_OscConfig+0xa8>
 80038a8:	e71a      	b.n	80036e0 <HAL_RCC_OscConfig+0x60>
      __HAL_RCC_HSE_CONFIG(RCC_OscInitStruct->HSEState);
 80038aa:	4a3c      	ldr	r2, [pc, #240]	@ (800399c <HAL_RCC_OscConfig+0x31c>)
 80038ac:	6811      	ldr	r1, [r2, #0]
 80038ae:	430b      	orrs	r3, r1
 80038b0:	6013      	str	r3, [r2, #0]
        tickstart = HAL_GetTick();
 80038b2:	f7fe fba7 	bl	8002004 <HAL_GetTick>
        while (READ_BIT(RCC->CR, RCC_CR_HSERDY) == 0U)
 80038b6:	2680      	movs	r6, #128	@ 0x80
        tickstart = HAL_GetTick();
 80038b8:	0005      	movs	r5, r0
        while (READ_BIT(RCC->CR, RCC_CR_HSERDY) == 0U)
 80038ba:	4f38      	ldr	r7, [pc, #224]	@ (800399c <HAL_RCC_OscConfig+0x31c>)
 80038bc:	02b6      	lsls	r6, r6, #10
 80038be:	e004      	b.n	80038ca <HAL_RCC_OscConfig+0x24a>
          if ((HAL_GetTick() - tickstart) > HSE_TIMEOUT_VALUE)
 80038c0:	f7fe fba0 	bl	8002004 <HAL_GetTick>
 80038c4:	1b40      	subs	r0, r0, r5
 80038c6:	2864      	cmp	r0, #100	@ 0x64
 80038c8:	d85d      	bhi.n	8003986 <HAL_RCC_OscConfig+0x306>
        while (READ_BIT(RCC->CR, RCC_CR_HSERDY) == 0U)
 80038ca:	683b      	ldr	r3, [r7, #0]
 80038cc:	4233      	tst	r3, r6
 80038ce:	d0f7      	beq.n	80038c0 <HAL_RCC_OscConfig+0x240>
  if (((RCC_OscInitStruct->OscillatorType) & RCC_OSCILLATORTYPE_HSI) == RCC_OSCILLATORTYPE_HSI)
 80038d0:	6823      	ldr	r3, [r4, #0]
 80038d2:	e7dd      	b.n	8003890 <HAL_RCC_OscConfig+0x210>
      if ((((RCC->BDCR) & RCC_BDCR_LSERDY) != 0U) && (RCC_OscInitStruct->LSEState == RCC_LSE_OFF))
 80038d4:	6dd3      	ldr	r3, [r2, #92]	@ 0x5c
 80038d6:	079b      	lsls	r3, r3, #30
 80038d8:	d400      	bmi.n	80038dc <HAL_RCC_OscConfig+0x25c>
 80038da:	e76d      	b.n	80037b8 <HAL_RCC_OscConfig+0x138>
 80038dc:	68a3      	ldr	r3, [r4, #8]
 80038de:	2b00      	cmp	r3, #0
 80038e0:	d000      	beq.n	80038e4 <HAL_RCC_OscConfig+0x264>
 80038e2:	e769      	b.n	80037b8 <HAL_RCC_OscConfig+0x138>
 80038e4:	e6fc      	b.n	80036e0 <HAL_RCC_OscConfig+0x60>
    temp_pllckcfg = __HAL_RCC_GET_PLL_OSCSOURCE();
 80038e6:	3b0d      	subs	r3, #13
 80038e8:	400b      	ands	r3, r1
    if (((temp_sysclksrc == RCC_SYSCLKSOURCE_STATUS_PLLCLK) && (temp_pllckcfg == RCC_PLLSOURCE_HSI))
 80038ea:	2b02      	cmp	r3, #2
 80038ec:	d100      	bne.n	80038f0 <HAL_RCC_OscConfig+0x270>
 80038ee:	e0c3      	b.n	8003a78 <HAL_RCC_OscConfig+0x3f8>
      if (RCC_OscInitStruct->HSIState != RCC_HSI_OFF)
 80038f0:	68e3      	ldr	r3, [r4, #12]
        __HAL_RCC_HSI_CONFIG(RCC_OscInitStruct->HSIDiv);
 80038f2:	4d2a      	ldr	r5, [pc, #168]	@ (800399c <HAL_RCC_OscConfig+0x31c>)
      if (RCC_OscInitStruct->HSIState != RCC_HSI_OFF)
 80038f4:	2b00      	cmp	r3, #0
 80038f6:	d073      	beq.n	80039e0 <HAL_RCC_OscConfig+0x360>
        __HAL_RCC_HSI_CONFIG(RCC_OscInitStruct->HSIDiv);
 80038f8:	682b      	ldr	r3, [r5, #0]
 80038fa:	4a2a      	ldr	r2, [pc, #168]	@ (80039a4 <HAL_RCC_OscConfig+0x324>)
        while (READ_BIT(RCC->CR, RCC_CR_HSIRDY) == 0U)
 80038fc:	2780      	movs	r7, #128	@ 0x80
        __HAL_RCC_HSI_CONFIG(RCC_OscInitStruct->HSIDiv);
 80038fe:	4013      	ands	r3, r2
 8003900:	6922      	ldr	r2, [r4, #16]
        while (READ_BIT(RCC->CR, RCC_CR_HSIRDY) == 0U)
 8003902:	00ff      	lsls	r7, r7, #3
        __HAL_RCC_HSI_CONFIG(RCC_OscInitStruct->HSIDiv);
 8003904:	4313      	orrs	r3, r2
 8003906:	602b      	str	r3, [r5, #0]
        __HAL_RCC_HSI_ENABLE();
 8003908:	2380      	movs	r3, #128	@ 0x80
 800390a:	682a      	ldr	r2, [r5, #0]
 800390c:	005b      	lsls	r3, r3, #1
 800390e:	4313      	orrs	r3, r2
 8003910:	602b      	str	r3, [r5, #0]
        tickstart = HAL_GetTick();
 8003912:	f7fe fb77 	bl	8002004 <HAL_GetTick>
 8003916:	0006      	movs	r6, r0
        while (READ_BIT(RCC->CR, RCC_CR_HSIRDY) == 0U)
 8003918:	e004      	b.n	8003924 <HAL_RCC_OscConfig+0x2a4>
          if ((HAL_GetTick() - tickstart) > HSI_TIMEOUT_VALUE)
 800391a:	f7fe fb73 	bl	8002004 <HAL_GetTick>
 800391e:	1b80      	subs	r0, r0, r6
 8003920:	2802      	cmp	r0, #2
 8003922:	d830      	bhi.n	8003986 <HAL_RCC_OscConfig+0x306>
        while (READ_BIT(RCC->CR, RCC_CR_HSIRDY) == 0U)
 8003924:	682b      	ldr	r3, [r5, #0]
 8003926:	423b      	tst	r3, r7
 8003928:	d0f7      	beq.n	800391a <HAL_RCC_OscConfig+0x29a>
        __HAL_RCC_HSI_CALIBRATIONVALUE_ADJUST(RCC_OscInitStruct->HSICalibrationValue);
 800392a:	686a      	ldr	r2, [r5, #4]
 800392c:	6963      	ldr	r3, [r4, #20]
 800392e:	491c      	ldr	r1, [pc, #112]	@ (80039a0 <HAL_RCC_OscConfig+0x320>)
 8003930:	021b      	lsls	r3, r3, #8
 8003932:	400a      	ands	r2, r1
 8003934:	4313      	orrs	r3, r2
 8003936:	606b      	str	r3, [r5, #4]
  if (((RCC_OscInitStruct->OscillatorType) & RCC_OSCILLATORTYPE_LSI) == RCC_OSCILLATORTYPE_LSI)
 8003938:	6823      	ldr	r3, [r4, #0]
 800393a:	e6f3      	b.n	8003724 <HAL_RCC_OscConfig+0xa4>
      __HAL_RCC_LSE_CONFIG(RCC_OscInitStruct->LSEState);
 800393c:	4917      	ldr	r1, [pc, #92]	@ (800399c <HAL_RCC_OscConfig+0x31c>)
 800393e:	6dca      	ldr	r2, [r1, #92]	@ 0x5c
 8003940:	4313      	orrs	r3, r2
 8003942:	65cb      	str	r3, [r1, #92]	@ 0x5c
        tickstart = HAL_GetTick();
 8003944:	f7fe fb5e 	bl	8002004 <HAL_GetTick>
        while (READ_BIT(RCC->BDCR, RCC_BDCR_LSERDY) == 0U)
 8003948:	4b14      	ldr	r3, [pc, #80]	@ (800399c <HAL_RCC_OscConfig+0x31c>)
        tickstart = HAL_GetTick();
 800394a:	0006      	movs	r6, r0
        while (READ_BIT(RCC->BDCR, RCC_BDCR_LSERDY) == 0U)
 800394c:	4698      	mov	r8, r3
 800394e:	2702      	movs	r7, #2
          if ((HAL_GetTick() - tickstart) > RCC_LSE_TIMEOUT_VALUE)
 8003950:	4d19      	ldr	r5, [pc, #100]	@ (80039b8 <HAL_RCC_OscConfig+0x338>)
        while (READ_BIT(RCC->BDCR, RCC_BDCR_LSERDY) == 0U)
 8003952:	e004      	b.n	800395e <HAL_RCC_OscConfig+0x2de>
          if ((HAL_GetTick() - tickstart) > RCC_LSE_TIMEOUT_VALUE)
 8003954:	f7fe fb56 	bl	8002004 <HAL_GetTick>
 8003958:	1b80      	subs	r0, r0, r6
 800395a:	42a8      	cmp	r0, r5
 800395c:	d813      	bhi.n	8003986 <HAL_RCC_OscConfig+0x306>
        while (READ_BIT(RCC->BDCR, RCC_BDCR_LSERDY) == 0U)
 800395e:	4643      	mov	r3, r8
 8003960:	6ddb      	ldr	r3, [r3, #92]	@ 0x5c
 8003962:	421f      	tst	r7, r3
 8003964:	d0f6      	beq.n	8003954 <HAL_RCC_OscConfig+0x2d4>
 8003966:	e723      	b.n	80037b0 <HAL_RCC_OscConfig+0x130>
        SET_BIT(PWR->CR1, PWR_CR1_DBP);
 8003968:	6833      	ldr	r3, [r6, #0]
 800396a:	433b      	orrs	r3, r7
 800396c:	6033      	str	r3, [r6, #0]
        tickstart = HAL_GetTick();
 800396e:	f7fe fb49 	bl	8002004 <HAL_GetTick>
 8003972:	0005      	movs	r5, r0
        while (HAL_IS_BIT_CLR(PWR->CR1, PWR_CR1_DBP))
 8003974:	6833      	ldr	r3, [r6, #0]
 8003976:	423b      	tst	r3, r7
 8003978:	d000      	beq.n	800397c <HAL_RCC_OscConfig+0x2fc>
 800397a:	e6f5      	b.n	8003768 <HAL_RCC_OscConfig+0xe8>
          if ((HAL_GetTick() - tickstart) > RCC_DBP_TIMEOUT_VALUE)
 800397c:	f7fe fb42 	bl	8002004 <HAL_GetTick>
 8003980:	1b40      	subs	r0, r0, r5
 8003982:	2802      	cmp	r0, #2
 8003984:	d9f6      	bls.n	8003974 <HAL_RCC_OscConfig+0x2f4>
            return HAL_TIMEOUT;
 8003986:	2003      	movs	r0, #3
 8003988:	e6ab      	b.n	80036e2 <HAL_RCC_OscConfig+0x62>
        __HAL_RCC_LSI_DISABLE();
 800398a:	2201      	movs	r2, #1
 800398c:	6e2b      	ldr	r3, [r5, #96]	@ 0x60
        while (READ_BIT(RCC->CSR, RCC_CSR_LSIRDY) != 0U)
 800398e:	2702      	movs	r7, #2
        __HAL_RCC_LSI_DISABLE();
 8003990:	4393      	bics	r3, r2
 8003992:	662b      	str	r3, [r5, #96]	@ 0x60
        tickstart = HAL_GetTick();
 8003994:	f7fe fb36 	bl	8002004 <HAL_GetTick>
 8003998:	0006      	movs	r6, r0
        while (READ_BIT(RCC->CSR, RCC_CSR_LSIRDY) != 0U)
 800399a:	e01c      	b.n	80039d6 <HAL_RCC_OscConfig+0x356>
 800399c:	40021000 	.word	0x40021000
 80039a0:	ffff80ff 	.word	0xffff80ff
 80039a4:	ffffc7ff 	.word	0xffffc7ff
 80039a8:	00f42400 	.word	0x00f42400
 80039ac:	2000040c 	.word	0x2000040c
 80039b0:	20000414 	.word	0x20000414
 80039b4:	40007000 	.word	0x40007000
 80039b8:	00001388 	.word	0x00001388
 80039bc:	feffffff 	.word	0xfeffffff
 80039c0:	eefefffc 	.word	0xeefefffc
 80039c4:	fffeffff 	.word	0xfffeffff
 80039c8:	fffbffff 	.word	0xfffbffff
          if ((HAL_GetTick() - tickstart) > LSI_TIMEOUT_VALUE)
 80039cc:	f7fe fb1a 	bl	8002004 <HAL_GetTick>
 80039d0:	1b80      	subs	r0, r0, r6
 80039d2:	2802      	cmp	r0, #2
 80039d4:	d8d7      	bhi.n	8003986 <HAL_RCC_OscConfig+0x306>
        while (READ_BIT(RCC->CSR, RCC_CSR_LSIRDY) != 0U)
 80039d6:	6e2b      	ldr	r3, [r5, #96]	@ 0x60
 80039d8:	421f      	tst	r7, r3
 80039da:	d1f7      	bne.n	80039cc <HAL_RCC_OscConfig+0x34c>
  if (((RCC_OscInitStruct->OscillatorType) & RCC_OSCILLATORTYPE_LSE) == RCC_OSCILLATORTYPE_LSE)
 80039dc:	6823      	ldr	r3, [r4, #0]
 80039de:	e6a3      	b.n	8003728 <HAL_RCC_OscConfig+0xa8>
        __HAL_RCC_HSI_DISABLE();
 80039e0:	682b      	ldr	r3, [r5, #0]
 80039e2:	4a55      	ldr	r2, [pc, #340]	@ (8003b38 <HAL_RCC_OscConfig+0x4b8>)
        while (READ_BIT(RCC->CR, RCC_CR_HSIRDY) != 0U)
 80039e4:	2780      	movs	r7, #128	@ 0x80
        __HAL_RCC_HSI_DISABLE();
 80039e6:	4013      	ands	r3, r2
 80039e8:	602b      	str	r3, [r5, #0]
        tickstart = HAL_GetTick();
 80039ea:	f7fe fb0b 	bl	8002004 <HAL_GetTick>
        while (READ_BIT(RCC->CR, RCC_CR_HSIRDY) != 0U)
 80039ee:	00ff      	lsls	r7, r7, #3
        tickstart = HAL_GetTick();
 80039f0:	0006      	movs	r6, r0
        while (READ_BIT(RCC->CR, RCC_CR_HSIRDY) != 0U)
 80039f2:	e004      	b.n	80039fe <HAL_RCC_OscConfig+0x37e>
          if ((HAL_GetTick() - tickstart) > HSI_TIMEOUT_VALUE)
 80039f4:	f7fe fb06 	bl	8002004 <HAL_GetTick>
 80039f8:	1b80      	subs	r0, r0, r6
 80039fa:	2802      	cmp	r0, #2
 80039fc:	d8c3      	bhi.n	8003986 <HAL_RCC_OscConfig+0x306>
        while (READ_BIT(RCC->CR, RCC_CR_HSIRDY) != 0U)
 80039fe:	682b      	ldr	r3, [r5, #0]
 8003a00:	423b      	tst	r3, r7
 8003a02:	d1f7      	bne.n	80039f4 <HAL_RCC_OscConfig+0x374>
  if (((RCC_OscInitStruct->OscillatorType) & RCC_OSCILLATORTYPE_LSI) == RCC_OSCILLATORTYPE_LSI)
 8003a04:	6823      	ldr	r3, [r4, #0]
 8003a06:	e68d      	b.n	8003724 <HAL_RCC_OscConfig+0xa4>
      if ((RCC_OscInitStruct->PLL.PLLState) == RCC_PLL_OFF)
 8003a08:	2b01      	cmp	r3, #1
 8003a0a:	d100      	bne.n	8003a0e <HAL_RCC_OscConfig+0x38e>
 8003a0c:	e668      	b.n	80036e0 <HAL_RCC_OscConfig+0x60>
        if ((READ_BIT(temp_pllckcfg, RCC_PLLCFGR_PLLSRC) != RCC_OscInitStruct->PLL.PLLSource) ||
 8003a0e:	2203      	movs	r2, #3
        temp_pllckcfg = RCC->PLLCFGR;
 8003a10:	68e8      	ldr	r0, [r5, #12]
        if ((READ_BIT(temp_pllckcfg, RCC_PLLCFGR_PLLSRC) != RCC_OscInitStruct->PLL.PLLSource) ||
 8003a12:	6a21      	ldr	r1, [r4, #32]
 8003a14:	4002      	ands	r2, r0
 8003a16:	428a      	cmp	r2, r1
 8003a18:	d000      	beq.n	8003a1c <HAL_RCC_OscConfig+0x39c>
 8003a1a:	e661      	b.n	80036e0 <HAL_RCC_OscConfig+0x60>
            (READ_BIT(temp_pllckcfg, RCC_PLLCFGR_PLLM) != RCC_OscInitStruct->PLL.PLLM) ||
 8003a1c:	2270      	movs	r2, #112	@ 0x70
        if ((READ_BIT(temp_pllckcfg, RCC_PLLCFGR_PLLSRC) != RCC_OscInitStruct->PLL.PLLSource) ||
 8003a1e:	6a61      	ldr	r1, [r4, #36]	@ 0x24
            (READ_BIT(temp_pllckcfg, RCC_PLLCFGR_PLLM) != RCC_OscInitStruct->PLL.PLLM) ||
 8003a20:	4002      	ands	r2, r0
        if ((READ_BIT(temp_pllckcfg, RCC_PLLCFGR_PLLSRC) != RCC_OscInitStruct->PLL.PLLSource) ||
 8003a22:	428a      	cmp	r2, r1
 8003a24:	d000      	beq.n	8003a28 <HAL_RCC_OscConfig+0x3a8>
 8003a26:	e65b      	b.n	80036e0 <HAL_RCC_OscConfig+0x60>
            (READ_BIT(temp_pllckcfg, RCC_PLLCFGR_PLLN) != (RCC_OscInitStruct->PLL.PLLN << RCC_PLLCFGR_PLLN_Pos)) ||
 8003a28:	21fe      	movs	r1, #254	@ 0xfe
 8003a2a:	6aa2      	ldr	r2, [r4, #40]	@ 0x28
 8003a2c:	01c9      	lsls	r1, r1, #7
 8003a2e:	4001      	ands	r1, r0
 8003a30:	0212      	lsls	r2, r2, #8
            (READ_BIT(temp_pllckcfg, RCC_PLLCFGR_PLLM) != RCC_OscInitStruct->PLL.PLLM) ||
 8003a32:	4291      	cmp	r1, r2
 8003a34:	d000      	beq.n	8003a38 <HAL_RCC_OscConfig+0x3b8>
 8003a36:	e653      	b.n	80036e0 <HAL_RCC_OscConfig+0x60>
            (READ_BIT(temp_pllckcfg, RCC_PLLCFGR_PLLP) != RCC_OscInitStruct->PLL.PLLP) ||
 8003a38:	22f8      	movs	r2, #248	@ 0xf8
            (READ_BIT(temp_pllckcfg, RCC_PLLCFGR_PLLN) != (RCC_OscInitStruct->PLL.PLLN << RCC_PLLCFGR_PLLN_Pos)) ||
 8003a3a:	6ae1      	ldr	r1, [r4, #44]	@ 0x2c
            (READ_BIT(temp_pllckcfg, RCC_PLLCFGR_PLLP) != RCC_OscInitStruct->PLL.PLLP) ||
 8003a3c:	0392      	lsls	r2, r2, #14
 8003a3e:	4002      	ands	r2, r0
            (READ_BIT(temp_pllckcfg, RCC_PLLCFGR_PLLN) != (RCC_OscInitStruct->PLL.PLLN << RCC_PLLCFGR_PLLN_Pos)) ||
 8003a40:	428a      	cmp	r2, r1
 8003a42:	d000      	beq.n	8003a46 <HAL_RCC_OscConfig+0x3c6>
 8003a44:	e64c      	b.n	80036e0 <HAL_RCC_OscConfig+0x60>
            (READ_BIT(temp_pllckcfg, RCC_PLLCFGR_PLLQ) != RCC_OscInitStruct->PLL.PLLQ) ||
 8003a46:	22e0      	movs	r2, #224	@ 0xe0
            (READ_BIT(temp_pllckcfg, RCC_PLLCFGR_PLLP) != RCC_OscInitStruct->PLL.PLLP) ||
 8003a48:	6b21      	ldr	r1, [r4, #48]	@ 0x30
            (READ_BIT(temp_pllckcfg, RCC_PLLCFGR_PLLQ) != RCC_OscInitStruct->PLL.PLLQ) ||
 8003a4a:	0512      	lsls	r2, r2, #20
 8003a4c:	4002      	ands	r2, r0
            (READ_BIT(temp_pllckcfg, RCC_PLLCFGR_PLLP) != RCC_OscInitStruct->PLL.PLLP) ||
 8003a4e:	428a      	cmp	r2, r1
 8003a50:	d000      	beq.n	8003a54 <HAL_RCC_OscConfig+0x3d4>
 8003a52:	e645      	b.n	80036e0 <HAL_RCC_OscConfig+0x60>
            (READ_BIT(temp_pllckcfg, RCC_PLLCFGR_PLLQ) != RCC_OscInitStruct->PLL.PLLQ) ||
 8003a54:	6b63      	ldr	r3, [r4, #52]	@ 0x34
            (READ_BIT(temp_pllckcfg, RCC_PLLCFGR_PLLR) != RCC_OscInitStruct->PLL.PLLR))
 8003a56:	0f40      	lsrs	r0, r0, #29
 8003a58:	0740      	lsls	r0, r0, #29
            (READ_BIT(temp_pllckcfg, RCC_PLLCFGR_PLLQ) != RCC_OscInitStruct->PLL.PLLQ) ||
 8003a5a:	1ac0      	subs	r0, r0, r3
 8003a5c:	1e43      	subs	r3, r0, #1
 8003a5e:	4198      	sbcs	r0, r3
 8003a60:	b2c0      	uxtb	r0, r0
 8003a62:	e63e      	b.n	80036e2 <HAL_RCC_OscConfig+0x62>
      __HAL_RCC_HSE_CONFIG(RCC_OscInitStruct->HSEState);
 8003a64:	2180      	movs	r1, #128	@ 0x80
 8003a66:	4b35      	ldr	r3, [pc, #212]	@ (8003b3c <HAL_RCC_OscConfig+0x4bc>)
 8003a68:	02c9      	lsls	r1, r1, #11
 8003a6a:	6818      	ldr	r0, [r3, #0]
 8003a6c:	4301      	orrs	r1, r0
 8003a6e:	6019      	str	r1, [r3, #0]
 8003a70:	6819      	ldr	r1, [r3, #0]
 8003a72:	430a      	orrs	r2, r1
 8003a74:	601a      	str	r2, [r3, #0]
      if (RCC_OscInitStruct->HSEState != RCC_HSE_OFF)
 8003a76:	e71c      	b.n	80038b2 <HAL_RCC_OscConfig+0x232>
      if ((READ_BIT(RCC->CR, RCC_CR_HSIRDY) != 0U) && (RCC_OscInitStruct->HSIState == RCC_HSI_OFF))
 8003a78:	6813      	ldr	r3, [r2, #0]
 8003a7a:	055b      	lsls	r3, r3, #21
 8003a7c:	d457      	bmi.n	8003b2e <HAL_RCC_OscConfig+0x4ae>
        __HAL_RCC_HSI_CALIBRATIONVALUE_ADJUST(RCC_OscInitStruct->HSICalibrationValue);
 8003a7e:	6851      	ldr	r1, [r2, #4]
 8003a80:	6963      	ldr	r3, [r4, #20]
 8003a82:	482f      	ldr	r0, [pc, #188]	@ (8003b40 <HAL_RCC_OscConfig+0x4c0>)
 8003a84:	021b      	lsls	r3, r3, #8
 8003a86:	4001      	ands	r1, r0
 8003a88:	430b      	orrs	r3, r1
 8003a8a:	6053      	str	r3, [r2, #4]
        if (temp_sysclksrc == RCC_SYSCLKSOURCE_STATUS_HSI)
 8003a8c:	e643      	b.n	8003716 <HAL_RCC_OscConfig+0x96>
        __HAL_RCC_PWR_CLK_DISABLE();
 8003a8e:	4a2b      	ldr	r2, [pc, #172]	@ (8003b3c <HAL_RCC_OscConfig+0x4bc>)
 8003a90:	492c      	ldr	r1, [pc, #176]	@ (8003b44 <HAL_RCC_OscConfig+0x4c4>)
 8003a92:	6bd3      	ldr	r3, [r2, #60]	@ 0x3c
 8003a94:	400b      	ands	r3, r1
 8003a96:	63d3      	str	r3, [r2, #60]	@ 0x3c
 8003a98:	e68e      	b.n	80037b8 <HAL_RCC_OscConfig+0x138>
        __HAL_RCC_PLL_DISABLE();
 8003a9a:	682b      	ldr	r3, [r5, #0]
 8003a9c:	4a2a      	ldr	r2, [pc, #168]	@ (8003b48 <HAL_RCC_OscConfig+0x4c8>)
        while (READ_BIT(RCC->CR, RCC_CR_PLLRDY) != 0U)
 8003a9e:	2780      	movs	r7, #128	@ 0x80
        __HAL_RCC_PLL_DISABLE();
 8003aa0:	4013      	ands	r3, r2
 8003aa2:	602b      	str	r3, [r5, #0]
        tickstart = HAL_GetTick();
 8003aa4:	f7fe faae 	bl	8002004 <HAL_GetTick>
        while (READ_BIT(RCC->CR, RCC_CR_PLLRDY) != 0U)
 8003aa8:	04bf      	lsls	r7, r7, #18
        tickstart = HAL_GetTick();
 8003aaa:	0006      	movs	r6, r0
        while (READ_BIT(RCC->CR, RCC_CR_PLLRDY) != 0U)
 8003aac:	e005      	b.n	8003aba <HAL_RCC_OscConfig+0x43a>
          if ((HAL_GetTick() - tickstart) > PLL_TIMEOUT_VALUE)
 8003aae:	f7fe faa9 	bl	8002004 <HAL_GetTick>
 8003ab2:	1b80      	subs	r0, r0, r6
 8003ab4:	2802      	cmp	r0, #2
 8003ab6:	d900      	bls.n	8003aba <HAL_RCC_OscConfig+0x43a>
 8003ab8:	e765      	b.n	8003986 <HAL_RCC_OscConfig+0x306>
        while (READ_BIT(RCC->CR, RCC_CR_PLLRDY) != 0U)
 8003aba:	682b      	ldr	r3, [r5, #0]
 8003abc:	423b      	tst	r3, r7
 8003abe:	d1f6      	bne.n	8003aae <HAL_RCC_OscConfig+0x42e>
        __HAL_RCC_PLL_CONFIG(RCC_OscInitStruct->PLL.PLLSource,
 8003ac0:	6a61      	ldr	r1, [r4, #36]	@ 0x24
 8003ac2:	6a23      	ldr	r3, [r4, #32]
 8003ac4:	68ea      	ldr	r2, [r5, #12]
 8003ac6:	430b      	orrs	r3, r1
 8003ac8:	4920      	ldr	r1, [pc, #128]	@ (8003b4c <HAL_RCC_OscConfig+0x4cc>)
        while (READ_BIT(RCC->CR, RCC_CR_PLLRDY) == 0U)
 8003aca:	4e1c      	ldr	r6, [pc, #112]	@ (8003b3c <HAL_RCC_OscConfig+0x4bc>)
        __HAL_RCC_PLL_CONFIG(RCC_OscInitStruct->PLL.PLLSource,
 8003acc:	400a      	ands	r2, r1
 8003ace:	4313      	orrs	r3, r2
 8003ad0:	6ae2      	ldr	r2, [r4, #44]	@ 0x2c
 8003ad2:	4313      	orrs	r3, r2
 8003ad4:	6b22      	ldr	r2, [r4, #48]	@ 0x30
 8003ad6:	4313      	orrs	r3, r2
 8003ad8:	6b62      	ldr	r2, [r4, #52]	@ 0x34
 8003ada:	4313      	orrs	r3, r2
 8003adc:	6aa2      	ldr	r2, [r4, #40]	@ 0x28
 8003ade:	0212      	lsls	r2, r2, #8
 8003ae0:	4313      	orrs	r3, r2
 8003ae2:	60eb      	str	r3, [r5, #12]
        __HAL_RCC_PLL_ENABLE();
 8003ae4:	2380      	movs	r3, #128	@ 0x80
 8003ae6:	682a      	ldr	r2, [r5, #0]
 8003ae8:	045b      	lsls	r3, r3, #17
 8003aea:	4313      	orrs	r3, r2
 8003aec:	602b      	str	r3, [r5, #0]
        __HAL_RCC_PLLCLKOUT_ENABLE(RCC_PLLRCLK);
 8003aee:	2380      	movs	r3, #128	@ 0x80
 8003af0:	68ea      	ldr	r2, [r5, #12]
 8003af2:	055b      	lsls	r3, r3, #21
 8003af4:	4313      	orrs	r3, r2
 8003af6:	60eb      	str	r3, [r5, #12]
        tickstart = HAL_GetTick();
 8003af8:	f7fe fa84 	bl	8002004 <HAL_GetTick>
        while (READ_BIT(RCC->CR, RCC_CR_PLLRDY) == 0U)
 8003afc:	2580      	movs	r5, #128	@ 0x80
        tickstart = HAL_GetTick();
 8003afe:	0004      	movs	r4, r0
        while (READ_BIT(RCC->CR, RCC_CR_PLLRDY) == 0U)
 8003b00:	04ad      	lsls	r5, r5, #18
 8003b02:	e005      	b.n	8003b10 <HAL_RCC_OscConfig+0x490>
          if ((HAL_GetTick() - tickstart) > PLL_TIMEOUT_VALUE)
 8003b04:	f7fe fa7e 	bl	8002004 <HAL_GetTick>
 8003b08:	1b00      	subs	r0, r0, r4
 8003b0a:	2802      	cmp	r0, #2
 8003b0c:	d900      	bls.n	8003b10 <HAL_RCC_OscConfig+0x490>
 8003b0e:	e73a      	b.n	8003986 <HAL_RCC_OscConfig+0x306>
        while (READ_BIT(RCC->CR, RCC_CR_PLLRDY) == 0U)
 8003b10:	6833      	ldr	r3, [r6, #0]
 8003b12:	422b      	tst	r3, r5
 8003b14:	d0f6      	beq.n	8003b04 <HAL_RCC_OscConfig+0x484>
  return HAL_OK;
 8003b16:	2000      	movs	r0, #0
 8003b18:	e5e3      	b.n	80036e2 <HAL_RCC_OscConfig+0x62>
      __HAL_RCC_LSE_CONFIG(RCC_OscInitStruct->LSEState);
 8003b1a:	2104      	movs	r1, #4
 8003b1c:	4b07      	ldr	r3, [pc, #28]	@ (8003b3c <HAL_RCC_OscConfig+0x4bc>)
 8003b1e:	6dda      	ldr	r2, [r3, #92]	@ 0x5c
 8003b20:	430a      	orrs	r2, r1
 8003b22:	65da      	str	r2, [r3, #92]	@ 0x5c
 8003b24:	6dda      	ldr	r2, [r3, #92]	@ 0x5c
 8003b26:	3903      	subs	r1, #3
 8003b28:	430a      	orrs	r2, r1
 8003b2a:	65da      	str	r2, [r3, #92]	@ 0x5c
      if (RCC_OscInitStruct->LSEState != RCC_LSE_OFF)
 8003b2c:	e70a      	b.n	8003944 <HAL_RCC_OscConfig+0x2c4>
      if ((READ_BIT(RCC->CR, RCC_CR_HSIRDY) != 0U) && (RCC_OscInitStruct->HSIState == RCC_HSI_OFF))
 8003b2e:	68e3      	ldr	r3, [r4, #12]
 8003b30:	2b00      	cmp	r3, #0
 8003b32:	d1a4      	bne.n	8003a7e <HAL_RCC_OscConfig+0x3fe>
 8003b34:	e5d4      	b.n	80036e0 <HAL_RCC_OscConfig+0x60>
 8003b36:	46c0      	nop			@ (mov r8, r8)
 8003b38:	fffffeff 	.word	0xfffffeff
 8003b3c:	40021000 	.word	0x40021000
 8003b40:	ffff80ff 	.word	0xffff80ff
 8003b44:	efffffff 	.word	0xefffffff
 8003b48:	feffffff 	.word	0xfeffffff
 8003b4c:	11c1808c 	.word	0x11c1808c

08003b50 <HAL_RCC_GetSysClockFreq>:
uint32_t HAL_RCC_GetSysClockFreq(void)
{
  uint32_t pllvco, pllsource, pllr, pllm, hsidiv;
  uint32_t sysclockfreq;

  if (__HAL_RCC_GET_SYSCLK_SOURCE() == RCC_SYSCLKSOURCE_STATUS_HSI)
 8003b50:	2338      	movs	r3, #56	@ 0x38
 8003b52:	4a22      	ldr	r2, [pc, #136]	@ (8003bdc <HAL_RCC_GetSysClockFreq+0x8c>)
{
 8003b54:	b510      	push	{r4, lr}
  if (__HAL_RCC_GET_SYSCLK_SOURCE() == RCC_SYSCLKSOURCE_STATUS_HSI)
 8003b56:	6891      	ldr	r1, [r2, #8]
 8003b58:	420b      	tst	r3, r1
 8003b5a:	d105      	bne.n	8003b68 <HAL_RCC_GetSysClockFreq+0x18>
  {
    /* HSISYS can be derived for HSI16 */
    hsidiv = (1UL << ((READ_BIT(RCC->CR, RCC_CR_HSIDIV)) >> RCC_CR_HSIDIV_Pos));
 8003b5c:	6813      	ldr	r3, [r2, #0]

    /* HSI used as system clock source */
    sysclockfreq = (HSI_VALUE / hsidiv);
 8003b5e:	4820      	ldr	r0, [pc, #128]	@ (8003be0 <HAL_RCC_GetSysClockFreq+0x90>)
    hsidiv = (1UL << ((READ_BIT(RCC->CR, RCC_CR_HSIDIV)) >> RCC_CR_HSIDIV_Pos));
 8003b60:	049b      	lsls	r3, r3, #18
 8003b62:	0f5b      	lsrs	r3, r3, #29
    sysclockfreq = (HSI_VALUE / hsidiv);
 8003b64:	40d8      	lsrs	r0, r3
  {
    sysclockfreq = 0U;
  }

  return sysclockfreq;
}
 8003b66:	bd10      	pop	{r4, pc}
  else if (__HAL_RCC_GET_SYSCLK_SOURCE() == RCC_SYSCLKSOURCE_STATUS_HSE)
 8003b68:	6891      	ldr	r1, [r2, #8]
 8003b6a:	4019      	ands	r1, r3
 8003b6c:	2908      	cmp	r1, #8
 8003b6e:	d014      	beq.n	8003b9a <HAL_RCC_GetSysClockFreq+0x4a>
  else if (__HAL_RCC_GET_SYSCLK_SOURCE() == RCC_SYSCLKSOURCE_STATUS_PLLCLK)
 8003b70:	6891      	ldr	r1, [r2, #8]
 8003b72:	4019      	ands	r1, r3
 8003b74:	2910      	cmp	r1, #16
 8003b76:	d012      	beq.n	8003b9e <HAL_RCC_GetSysClockFreq+0x4e>
  else if (__HAL_RCC_GET_SYSCLK_SOURCE() == RCC_SYSCLKSOURCE_STATUS_LSE)
 8003b78:	6891      	ldr	r1, [r2, #8]
 8003b7a:	4019      	ands	r1, r3
 8003b7c:	2920      	cmp	r1, #32
 8003b7e:	d024      	beq.n	8003bca <HAL_RCC_GetSysClockFreq+0x7a>
  else if (__HAL_RCC_GET_SYSCLK_SOURCE() == RCC_SYSCLKSOURCE_STATUS_LSI)
 8003b80:	6890      	ldr	r0, [r2, #8]
 8003b82:	4018      	ands	r0, r3
    sysclockfreq = LSI_VALUE;
 8003b84:	3818      	subs	r0, #24
 8003b86:	1e43      	subs	r3, r0, #1
 8003b88:	4198      	sbcs	r0, r3
 8003b8a:	4b16      	ldr	r3, [pc, #88]	@ (8003be4 <HAL_RCC_GetSysClockFreq+0x94>)
 8003b8c:	4240      	negs	r0, r0
 8003b8e:	4018      	ands	r0, r3
 8003b90:	23fa      	movs	r3, #250	@ 0xfa
 8003b92:	01db      	lsls	r3, r3, #7
 8003b94:	469c      	mov	ip, r3
 8003b96:	4460      	add	r0, ip
 8003b98:	e7e5      	b.n	8003b66 <HAL_RCC_GetSysClockFreq+0x16>
    sysclockfreq = HSE_VALUE;
 8003b9a:	4813      	ldr	r0, [pc, #76]	@ (8003be8 <HAL_RCC_GetSysClockFreq+0x98>)
 8003b9c:	e7e3      	b.n	8003b66 <HAL_RCC_GetSysClockFreq+0x16>
    pllsource = (RCC->PLLCFGR & RCC_PLLCFGR_PLLSRC);
 8003b9e:	68d3      	ldr	r3, [r2, #12]
    pllm = ((RCC->PLLCFGR & RCC_PLLCFGR_PLLM) >> RCC_PLLCFGR_PLLM_Pos) + 1U ;
 8003ba0:	68d1      	ldr	r1, [r2, #12]
    pllsource = (RCC->PLLCFGR & RCC_PLLCFGR_PLLSRC);
 8003ba2:	43db      	mvns	r3, r3
        pllvco = (HSI_VALUE / pllm) * ((RCC->PLLCFGR & RCC_PLLCFGR_PLLN) >> RCC_PLLCFGR_PLLN_Pos) ;
 8003ba4:	68d4      	ldr	r4, [r2, #12]
    pllm = ((RCC->PLLCFGR & RCC_PLLCFGR_PLLM) >> RCC_PLLCFGR_PLLM_Pos) + 1U ;
 8003ba6:	0649      	lsls	r1, r1, #25
 8003ba8:	0f49      	lsrs	r1, r1, #29
        pllvco = (HSI_VALUE / pllm) * ((RCC->PLLCFGR & RCC_PLLCFGR_PLLN) >> RCC_PLLCFGR_PLLN_Pos) ;
 8003baa:	0464      	lsls	r4, r4, #17
    pllm = ((RCC->PLLCFGR & RCC_PLLCFGR_PLLM) >> RCC_PLLCFGR_PLLM_Pos) + 1U ;
 8003bac:	3101      	adds	r1, #1
        pllvco = (HSI_VALUE / pllm) * ((RCC->PLLCFGR & RCC_PLLCFGR_PLLN) >> RCC_PLLCFGR_PLLN_Pos) ;
 8003bae:	0e64      	lsrs	r4, r4, #25
    switch (pllsource)
 8003bb0:	079b      	lsls	r3, r3, #30
 8003bb2:	d00d      	beq.n	8003bd0 <HAL_RCC_GetSysClockFreq+0x80>
        pllvco = (HSI_VALUE / pllm) * ((RCC->PLLCFGR & RCC_PLLCFGR_PLLN) >> RCC_PLLCFGR_PLLN_Pos) ;
 8003bb4:	480a      	ldr	r0, [pc, #40]	@ (8003be0 <HAL_RCC_GetSysClockFreq+0x90>)
 8003bb6:	f7fc faa5 	bl	8000104 <__udivsi3>
 8003bba:	4360      	muls	r0, r4
    pllr = (((RCC->PLLCFGR & RCC_PLLCFGR_PLLR) >> RCC_PLLCFGR_PLLR_Pos) + 1U);
 8003bbc:	4b07      	ldr	r3, [pc, #28]	@ (8003bdc <HAL_RCC_GetSysClockFreq+0x8c>)
 8003bbe:	68d9      	ldr	r1, [r3, #12]
 8003bc0:	0f49      	lsrs	r1, r1, #29
 8003bc2:	3101      	adds	r1, #1
    sysclockfreq = pllvco / pllr;
 8003bc4:	f7fc fa9e 	bl	8000104 <__udivsi3>
  return sysclockfreq;
 8003bc8:	e7cd      	b.n	8003b66 <HAL_RCC_GetSysClockFreq+0x16>
    sysclockfreq = LSE_VALUE;
 8003bca:	2080      	movs	r0, #128	@ 0x80
 8003bcc:	0200      	lsls	r0, r0, #8
 8003bce:	e7ca      	b.n	8003b66 <HAL_RCC_GetSysClockFreq+0x16>
        pllvco = (HSE_VALUE / pllm) * ((RCC->PLLCFGR & RCC_PLLCFGR_PLLN) >> RCC_PLLCFGR_PLLN_Pos);
 8003bd0:	4805      	ldr	r0, [pc, #20]	@ (8003be8 <HAL_RCC_GetSysClockFreq+0x98>)
 8003bd2:	f7fc fa97 	bl	8000104 <__udivsi3>
 8003bd6:	4360      	muls	r0, r4
        break;
 8003bd8:	e7f0      	b.n	8003bbc <HAL_RCC_GetSysClockFreq+0x6c>
 8003bda:	46c0      	nop			@ (mov r8, r8)
 8003bdc:	40021000 	.word	0x40021000
 8003be0:	00f42400 	.word	0x00f42400
 8003be4:	ffff8300 	.word	0xffff8300
 8003be8:	007a1200 	.word	0x007a1200

08003bec <HAL_RCC_ClockConfig>:
{
 8003bec:	b5f8      	push	{r3, r4, r5, r6, r7, lr}
 8003bee:	46ce      	mov	lr, r9
 8003bf0:	4647      	mov	r7, r8
 8003bf2:	0005      	movs	r5, r0
 8003bf4:	000c      	movs	r4, r1
 8003bf6:	b580      	push	{r7, lr}
  if (RCC_ClkInitStruct == NULL)
 8003bf8:	2800      	cmp	r0, #0
 8003bfa:	d026      	beq.n	8003c4a <HAL_RCC_ClockConfig+0x5e>
  if (FLatency > __HAL_FLASH_GET_LATENCY())
 8003bfc:	2207      	movs	r2, #7
 8003bfe:	4e57      	ldr	r6, [pc, #348]	@ (8003d5c <HAL_RCC_ClockConfig+0x170>)
 8003c00:	6833      	ldr	r3, [r6, #0]
 8003c02:	4013      	ands	r3, r2
 8003c04:	428b      	cmp	r3, r1
 8003c06:	d35e      	bcc.n	8003cc6 <HAL_RCC_ClockConfig+0xda>
  if (((RCC_ClkInitStruct->ClockType) & RCC_CLOCKTYPE_HCLK) == RCC_CLOCKTYPE_HCLK)
 8003c08:	682b      	ldr	r3, [r5, #0]
 8003c0a:	079a      	lsls	r2, r3, #30
 8003c0c:	d50e      	bpl.n	8003c2c <HAL_RCC_ClockConfig+0x40>
    if (((RCC_ClkInitStruct->ClockType) & RCC_CLOCKTYPE_PCLK1) == RCC_CLOCKTYPE_PCLK1)
 8003c0e:	075a      	lsls	r2, r3, #29
 8003c10:	d505      	bpl.n	8003c1e <HAL_RCC_ClockConfig+0x32>
      MODIFY_REG(RCC->CFGR, RCC_CFGR_PPRE, RCC_HCLK_DIV16);
 8003c12:	22e0      	movs	r2, #224	@ 0xe0
 8003c14:	4952      	ldr	r1, [pc, #328]	@ (8003d60 <HAL_RCC_ClockConfig+0x174>)
 8003c16:	01d2      	lsls	r2, r2, #7
 8003c18:	6888      	ldr	r0, [r1, #8]
 8003c1a:	4302      	orrs	r2, r0
 8003c1c:	608a      	str	r2, [r1, #8]
    MODIFY_REG(RCC->CFGR, RCC_CFGR_HPRE, RCC_ClkInitStruct->AHBCLKDivider);
 8003c1e:	4950      	ldr	r1, [pc, #320]	@ (8003d60 <HAL_RCC_ClockConfig+0x174>)
 8003c20:	4850      	ldr	r0, [pc, #320]	@ (8003d64 <HAL_RCC_ClockConfig+0x178>)
 8003c22:	688a      	ldr	r2, [r1, #8]
 8003c24:	4002      	ands	r2, r0
 8003c26:	68a8      	ldr	r0, [r5, #8]
 8003c28:	4302      	orrs	r2, r0
 8003c2a:	608a      	str	r2, [r1, #8]
  if (((RCC_ClkInitStruct->ClockType) & RCC_CLOCKTYPE_SYSCLK) == RCC_CLOCKTYPE_SYSCLK)
 8003c2c:	07db      	lsls	r3, r3, #31
 8003c2e:	d52b      	bpl.n	8003c88 <HAL_RCC_ClockConfig+0x9c>
    if (RCC_ClkInitStruct->SYSCLKSource == RCC_SYSCLKSOURCE_HSE)
 8003c30:	686b      	ldr	r3, [r5, #4]
      if (READ_BIT(RCC->CR, RCC_CR_HSERDY) == 0U)
 8003c32:	4a4b      	ldr	r2, [pc, #300]	@ (8003d60 <HAL_RCC_ClockConfig+0x174>)
    if (RCC_ClkInitStruct->SYSCLKSource == RCC_SYSCLKSOURCE_HSE)
 8003c34:	2b01      	cmp	r3, #1
 8003c36:	d100      	bne.n	8003c3a <HAL_RCC_ClockConfig+0x4e>
 8003c38:	e07c      	b.n	8003d34 <HAL_RCC_ClockConfig+0x148>
    else if (RCC_ClkInitStruct->SYSCLKSource == RCC_SYSCLKSOURCE_PLLCLK)
 8003c3a:	2b02      	cmp	r3, #2
 8003c3c:	d007      	beq.n	8003c4e <HAL_RCC_ClockConfig+0x62>
    else if (RCC_ClkInitStruct->SYSCLKSource == RCC_SYSCLKSOURCE_HSI)
 8003c3e:	2b00      	cmp	r3, #0
 8003c40:	d000      	beq.n	8003c44 <HAL_RCC_ClockConfig+0x58>
 8003c42:	e07d      	b.n	8003d40 <HAL_RCC_ClockConfig+0x154>
      if (READ_BIT(RCC->CR, RCC_CR_HSIRDY) == 0U)
 8003c44:	6812      	ldr	r2, [r2, #0]
 8003c46:	0552      	lsls	r2, r2, #21
 8003c48:	d404      	bmi.n	8003c54 <HAL_RCC_ClockConfig+0x68>
    return HAL_ERROR;
 8003c4a:	2001      	movs	r0, #1
 8003c4c:	e037      	b.n	8003cbe <HAL_RCC_ClockConfig+0xd2>
      if (READ_BIT(RCC->CR, RCC_CR_PLLRDY) == 0U)
 8003c4e:	6812      	ldr	r2, [r2, #0]
 8003c50:	0192      	lsls	r2, r2, #6
 8003c52:	d5fa      	bpl.n	8003c4a <HAL_RCC_ClockConfig+0x5e>
    MODIFY_REG(RCC->CFGR, RCC_CFGR_SW, RCC_ClkInitStruct->SYSCLKSource);
 8003c54:	2107      	movs	r1, #7
 8003c56:	4e42      	ldr	r6, [pc, #264]	@ (8003d60 <HAL_RCC_ClockConfig+0x174>)
 8003c58:	68b2      	ldr	r2, [r6, #8]
 8003c5a:	438a      	bics	r2, r1
 8003c5c:	4313      	orrs	r3, r2
 8003c5e:	60b3      	str	r3, [r6, #8]
    tickstart = HAL_GetTick();
 8003c60:	f7fe f9d0 	bl	8002004 <HAL_GetTick>
    while (__HAL_RCC_GET_SYSCLK_SOURCE() != (RCC_ClkInitStruct->SYSCLKSource << RCC_CFGR_SWS_Pos))
 8003c64:	2338      	movs	r3, #56	@ 0x38
 8003c66:	4698      	mov	r8, r3
      if ((HAL_GetTick() - tickstart) > CLOCKSWITCH_TIMEOUT_VALUE)
 8003c68:	4b3f      	ldr	r3, [pc, #252]	@ (8003d68 <HAL_RCC_ClockConfig+0x17c>)
    tickstart = HAL_GetTick();
 8003c6a:	0007      	movs	r7, r0
      if ((HAL_GetTick() - tickstart) > CLOCKSWITCH_TIMEOUT_VALUE)
 8003c6c:	4699      	mov	r9, r3
    while (__HAL_RCC_GET_SYSCLK_SOURCE() != (RCC_ClkInitStruct->SYSCLKSource << RCC_CFGR_SWS_Pos))
 8003c6e:	e004      	b.n	8003c7a <HAL_RCC_ClockConfig+0x8e>
      if ((HAL_GetTick() - tickstart) > CLOCKSWITCH_TIMEOUT_VALUE)
 8003c70:	f7fe f9c8 	bl	8002004 <HAL_GetTick>
 8003c74:	1bc0      	subs	r0, r0, r7
 8003c76:	4548      	cmp	r0, r9
 8003c78:	d83b      	bhi.n	8003cf2 <HAL_RCC_ClockConfig+0x106>
    while (__HAL_RCC_GET_SYSCLK_SOURCE() != (RCC_ClkInitStruct->SYSCLKSource << RCC_CFGR_SWS_Pos))
 8003c7a:	4643      	mov	r3, r8
 8003c7c:	68b2      	ldr	r2, [r6, #8]
 8003c7e:	401a      	ands	r2, r3
 8003c80:	686b      	ldr	r3, [r5, #4]
 8003c82:	00db      	lsls	r3, r3, #3
 8003c84:	429a      	cmp	r2, r3
 8003c86:	d1f3      	bne.n	8003c70 <HAL_RCC_ClockConfig+0x84>
  if (FLatency < __HAL_FLASH_GET_LATENCY())
 8003c88:	2207      	movs	r2, #7
 8003c8a:	4e34      	ldr	r6, [pc, #208]	@ (8003d5c <HAL_RCC_ClockConfig+0x170>)
 8003c8c:	6833      	ldr	r3, [r6, #0]
 8003c8e:	4013      	ands	r3, r2
 8003c90:	42a3      	cmp	r3, r4
 8003c92:	d838      	bhi.n	8003d06 <HAL_RCC_ClockConfig+0x11a>
  if (((RCC_ClkInitStruct->ClockType) & RCC_CLOCKTYPE_PCLK1) == RCC_CLOCKTYPE_PCLK1)
 8003c94:	682b      	ldr	r3, [r5, #0]
 8003c96:	075b      	lsls	r3, r3, #29
 8003c98:	d42d      	bmi.n	8003cf6 <HAL_RCC_ClockConfig+0x10a>
  SystemCoreClock = (HAL_RCC_GetSysClockFreq() >> ((AHBPrescTable[(RCC->CFGR & RCC_CFGR_HPRE) >> RCC_CFGR_HPRE_Pos]) & 0x1FU));
 8003c9a:	f7ff ff59 	bl	8003b50 <HAL_RCC_GetSysClockFreq>
 8003c9e:	4b30      	ldr	r3, [pc, #192]	@ (8003d60 <HAL_RCC_ClockConfig+0x174>)
 8003ca0:	4a32      	ldr	r2, [pc, #200]	@ (8003d6c <HAL_RCC_ClockConfig+0x180>)
 8003ca2:	689b      	ldr	r3, [r3, #8]
 8003ca4:	4932      	ldr	r1, [pc, #200]	@ (8003d70 <HAL_RCC_ClockConfig+0x184>)
 8003ca6:	051b      	lsls	r3, r3, #20
 8003ca8:	0f1b      	lsrs	r3, r3, #28
 8003caa:	009b      	lsls	r3, r3, #2
 8003cac:	589b      	ldr	r3, [r3, r2]
 8003cae:	221f      	movs	r2, #31
 8003cb0:	4013      	ands	r3, r2
 8003cb2:	40d8      	lsrs	r0, r3
  return HAL_InitTick(uwTickPrio);
 8003cb4:	4b2f      	ldr	r3, [pc, #188]	@ (8003d74 <HAL_RCC_ClockConfig+0x188>)
  SystemCoreClock = (HAL_RCC_GetSysClockFreq() >> ((AHBPrescTable[(RCC->CFGR & RCC_CFGR_HPRE) >> RCC_CFGR_HPRE_Pos]) & 0x1FU));
 8003cb6:	6008      	str	r0, [r1, #0]
  return HAL_InitTick(uwTickPrio);
 8003cb8:	6818      	ldr	r0, [r3, #0]
 8003cba:	f7fe f95d 	bl	8001f78 <HAL_InitTick>
}
 8003cbe:	bcc0      	pop	{r6, r7}
 8003cc0:	46b9      	mov	r9, r7
 8003cc2:	46b0      	mov	r8, r6
 8003cc4:	bdf8      	pop	{r3, r4, r5, r6, r7, pc}
    __HAL_FLASH_SET_LATENCY(FLatency);
 8003cc6:	6833      	ldr	r3, [r6, #0]
 8003cc8:	4393      	bics	r3, r2
 8003cca:	430b      	orrs	r3, r1
 8003ccc:	6033      	str	r3, [r6, #0]
    tickstart = HAL_GetTick();
 8003cce:	f7fe f999 	bl	8002004 <HAL_GetTick>
    while ((FLASH->ACR & FLASH_ACR_LATENCY) != FLatency)
 8003cd2:	2307      	movs	r3, #7
 8003cd4:	4698      	mov	r8, r3
      if ((HAL_GetTick() - tickstart) > CLOCKSWITCH_TIMEOUT_VALUE)
 8003cd6:	4b24      	ldr	r3, [pc, #144]	@ (8003d68 <HAL_RCC_ClockConfig+0x17c>)
    tickstart = HAL_GetTick();
 8003cd8:	0007      	movs	r7, r0
      if ((HAL_GetTick() - tickstart) > CLOCKSWITCH_TIMEOUT_VALUE)
 8003cda:	4699      	mov	r9, r3
    while ((FLASH->ACR & FLASH_ACR_LATENCY) != FLatency)
 8003cdc:	4642      	mov	r2, r8
 8003cde:	6833      	ldr	r3, [r6, #0]
 8003ce0:	4013      	ands	r3, r2
 8003ce2:	42a3      	cmp	r3, r4
 8003ce4:	d100      	bne.n	8003ce8 <HAL_RCC_ClockConfig+0xfc>
 8003ce6:	e78f      	b.n	8003c08 <HAL_RCC_ClockConfig+0x1c>
      if ((HAL_GetTick() - tickstart) > CLOCKSWITCH_TIMEOUT_VALUE)
 8003ce8:	f7fe f98c 	bl	8002004 <HAL_GetTick>
 8003cec:	1bc0      	subs	r0, r0, r7
 8003cee:	4548      	cmp	r0, r9
 8003cf0:	d9f4      	bls.n	8003cdc <HAL_RCC_ClockConfig+0xf0>
        return HAL_TIMEOUT;
 8003cf2:	2003      	movs	r0, #3
 8003cf4:	e7e3      	b.n	8003cbe <HAL_RCC_ClockConfig+0xd2>
    MODIFY_REG(RCC->CFGR, RCC_CFGR_PPRE, RCC_ClkInitStruct->APB1CLKDivider);
 8003cf6:	4a1a      	ldr	r2, [pc, #104]	@ (8003d60 <HAL_RCC_ClockConfig+0x174>)
 8003cf8:	491f      	ldr	r1, [pc, #124]	@ (8003d78 <HAL_RCC_ClockConfig+0x18c>)
 8003cfa:	6893      	ldr	r3, [r2, #8]
 8003cfc:	400b      	ands	r3, r1
 8003cfe:	68e9      	ldr	r1, [r5, #12]
 8003d00:	430b      	orrs	r3, r1
 8003d02:	6093      	str	r3, [r2, #8]
 8003d04:	e7c9      	b.n	8003c9a <HAL_RCC_ClockConfig+0xae>
    __HAL_FLASH_SET_LATENCY(FLatency);
 8003d06:	6833      	ldr	r3, [r6, #0]
 8003d08:	4393      	bics	r3, r2
 8003d0a:	4323      	orrs	r3, r4
 8003d0c:	6033      	str	r3, [r6, #0]
    tickstart = HAL_GetTick();
 8003d0e:	f7fe f979 	bl	8002004 <HAL_GetTick>
    while ((FLASH->ACR & FLASH_ACR_LATENCY) != FLatency)
 8003d12:	2307      	movs	r3, #7
 8003d14:	4698      	mov	r8, r3
      if ((HAL_GetTick() - tickstart) > CLOCKSWITCH_TIMEOUT_VALUE)
 8003d16:	4b14      	ldr	r3, [pc, #80]	@ (8003d68 <HAL_RCC_ClockConfig+0x17c>)
    tickstart = HAL_GetTick();
 8003d18:	0007      	movs	r7, r0
      if ((HAL_GetTick() - tickstart) > CLOCKSWITCH_TIMEOUT_VALUE)
 8003d1a:	4699      	mov	r9, r3
    while ((FLASH->ACR & FLASH_ACR_LATENCY) != FLatency)
 8003d1c:	4642      	mov	r2, r8
 8003d1e:	6833      	ldr	r3, [r6, #0]
 8003d20:	4013      	ands	r3, r2
 8003d22:	42a3      	cmp	r3, r4
 8003d24:	d0b6      	beq.n	8003c94 <HAL_RCC_ClockConfig+0xa8>
      if ((HAL_GetTick() - tickstart) > CLOCKSWITCH_TIMEOUT_VALUE)
 8003d26:	f7fe f96d 	bl	8002004 <HAL_GetTick>
 8003d2a:	1bc0      	subs	r0, r0, r7
 8003d2c:	4548      	cmp	r0, r9
 8003d2e:	d9f5      	bls.n	8003d1c <HAL_RCC_ClockConfig+0x130>
        return HAL_TIMEOUT;
 8003d30:	2003      	movs	r0, #3
 8003d32:	e7c4      	b.n	8003cbe <HAL_RCC_ClockConfig+0xd2>
      if (READ_BIT(RCC->CR, RCC_CR_HSERDY) == 0U)
 8003d34:	6812      	ldr	r2, [r2, #0]
 8003d36:	0392      	lsls	r2, r2, #14
 8003d38:	d500      	bpl.n	8003d3c <HAL_RCC_ClockConfig+0x150>
 8003d3a:	e78b      	b.n	8003c54 <HAL_RCC_ClockConfig+0x68>
    return HAL_ERROR;
 8003d3c:	2001      	movs	r0, #1
 8003d3e:	e7be      	b.n	8003cbe <HAL_RCC_ClockConfig+0xd2>
    else if (RCC_ClkInitStruct->SYSCLKSource == RCC_SYSCLKSOURCE_LSI)
 8003d40:	2b03      	cmp	r3, #3
 8003d42:	d005      	beq.n	8003d50 <HAL_RCC_ClockConfig+0x164>
      if (READ_BIT(RCC->BDCR, RCC_BDCR_LSERDY) == 0U)
 8003d44:	6dd2      	ldr	r2, [r2, #92]	@ 0x5c
 8003d46:	0792      	lsls	r2, r2, #30
 8003d48:	d500      	bpl.n	8003d4c <HAL_RCC_ClockConfig+0x160>
 8003d4a:	e783      	b.n	8003c54 <HAL_RCC_ClockConfig+0x68>
    return HAL_ERROR;
 8003d4c:	2001      	movs	r0, #1
 8003d4e:	e7b6      	b.n	8003cbe <HAL_RCC_ClockConfig+0xd2>
      if (READ_BIT(RCC->CSR, RCC_CSR_LSIRDY) == 0U)
 8003d50:	6e12      	ldr	r2, [r2, #96]	@ 0x60
 8003d52:	0792      	lsls	r2, r2, #30
 8003d54:	d500      	bpl.n	8003d58 <HAL_RCC_ClockConfig+0x16c>
 8003d56:	e77d      	b.n	8003c54 <HAL_RCC_ClockConfig+0x68>
    return HAL_ERROR;
 8003d58:	2001      	movs	r0, #1
 8003d5a:	e7b0      	b.n	8003cbe <HAL_RCC_ClockConfig+0xd2>
 8003d5c:	40022000 	.word	0x40022000
 8003d60:	40021000 	.word	0x40021000
 8003d64:	fffff0ff 	.word	0xfffff0ff
 8003d68:	00001388 	.word	0x00001388
 8003d6c:	08006ee4 	.word	0x08006ee4
 8003d70:	2000040c 	.word	0x2000040c
 8003d74:	20000414 	.word	0x20000414
 8003d78:	ffff8fff 	.word	0xffff8fff

08003d7c <HAL_RCC_GetPCLK1Freq>:
  *         @arg @ref LL_RCC_APB1_DIV_8
  *         @arg @ref LL_RCC_APB1_DIV_16
  */
__STATIC_INLINE uint32_t LL_RCC_GetAPB1Prescaler(void)
{
  return (uint32_t)(READ_BIT(RCC->CFGR, RCC_CFGR_PPRE));
 8003d7c:	4b06      	ldr	r3, [pc, #24]	@ (8003d98 <HAL_RCC_GetPCLK1Freq+0x1c>)
  * @retval PCLK1 frequency in Hz
  */
uint32_t HAL_RCC_GetPCLK1Freq(void)
{
  /* Get HCLK source and Compute PCLK1 frequency ---------------------------*/
  return ((uint32_t)(__LL_RCC_CALC_PCLK1_FREQ(HAL_RCC_GetHCLKFreq(), LL_RCC_GetAPB1Prescaler())));
 8003d7e:	4907      	ldr	r1, [pc, #28]	@ (8003d9c <HAL_RCC_GetPCLK1Freq+0x20>)
 8003d80:	689b      	ldr	r3, [r3, #8]
  return SystemCoreClock;
 8003d82:	4a07      	ldr	r2, [pc, #28]	@ (8003da0 <HAL_RCC_GetPCLK1Freq+0x24>)
  return ((uint32_t)(__LL_RCC_CALC_PCLK1_FREQ(HAL_RCC_GetHCLKFreq(), LL_RCC_GetAPB1Prescaler())));
 8003d84:	045b      	lsls	r3, r3, #17
 8003d86:	0f5b      	lsrs	r3, r3, #29
 8003d88:	009b      	lsls	r3, r3, #2
 8003d8a:	585b      	ldr	r3, [r3, r1]
 8003d8c:	211f      	movs	r1, #31
 8003d8e:	6810      	ldr	r0, [r2, #0]
 8003d90:	400b      	ands	r3, r1
 8003d92:	40d8      	lsrs	r0, r3
}
 8003d94:	4770      	bx	lr
 8003d96:	46c0      	nop			@ (mov r8, r8)
 8003d98:	40021000 	.word	0x40021000
 8003d9c:	08006ec4 	.word	0x08006ec4
 8003da0:	2000040c 	.word	0x2000040c

08003da4 <HAL_RCCEx_PeriphCLKConfig>:
  *         the RTC clock source: in this case the access to Backup domain is enabled.
  *
  * @retval HAL status
  */
HAL_StatusTypeDef HAL_RCCEx_PeriphCLKConfig(RCC_PeriphCLKInitTypeDef  *PeriphClkInit)
{
 8003da4:	b5f0      	push	{r4, r5, r6, r7, lr}
 8003da6:	46d6      	mov	lr, sl
 8003da8:	464f      	mov	r7, r9
 8003daa:	4646      	mov	r6, r8
 8003dac:	b5c0      	push	{r6, r7, lr}

  /* Check the parameters */
  assert_param(IS_RCC_PERIPHCLOCK(PeriphClkInit->PeriphClockSelection));

  /*-------------------------- RTC clock source configuration ----------------------*/
  if ((PeriphClkInit->PeriphClockSelection & RCC_PERIPHCLK_RTC) == RCC_PERIPHCLK_RTC)
 8003dae:	6803      	ldr	r3, [r0, #0]
{
 8003db0:	0004      	movs	r4, r0
 8003db2:	b082      	sub	sp, #8
  HAL_StatusTypeDef status = HAL_OK;   /* Final status */
 8003db4:	2000      	movs	r0, #0
  if ((PeriphClkInit->PeriphClockSelection & RCC_PERIPHCLK_RTC) == RCC_PERIPHCLK_RTC)
 8003db6:	039a      	lsls	r2, r3, #14
 8003db8:	d552      	bpl.n	8003e60 <HAL_RCCEx_PeriphCLKConfig+0xbc>

    /* Check for RTC Parameters used to output RTCCLK */
    assert_param(IS_RCC_RTCCLKSOURCE(PeriphClkInit->RTCClockSelection));

    /* Enable Power Clock */
    if (__HAL_RCC_PWR_IS_CLK_DISABLED())
 8003dba:	2280      	movs	r2, #128	@ 0x80
 8003dbc:	4b69      	ldr	r3, [pc, #420]	@ (8003f64 <HAL_RCCEx_PeriphCLKConfig+0x1c0>)
 8003dbe:	0552      	lsls	r2, r2, #21
 8003dc0:	6bd9      	ldr	r1, [r3, #60]	@ 0x3c
    FlagStatus       pwrclkchanged = RESET;
 8003dc2:	4682      	mov	sl, r0
    if (__HAL_RCC_PWR_IS_CLK_DISABLED())
 8003dc4:	4211      	tst	r1, r2
 8003dc6:	d100      	bne.n	8003dca <HAL_RCCEx_PeriphCLKConfig+0x26>
 8003dc8:	e0a4      	b.n	8003f14 <HAL_RCCEx_PeriphCLKConfig+0x170>
      __HAL_RCC_PWR_CLK_ENABLE();
      pwrclkchanged = SET;
    }

    /* Enable write access to Backup domain */
    SET_BIT(PWR->CR1, PWR_CR1_DBP);
 8003dca:	2780      	movs	r7, #128	@ 0x80
 8003dcc:	4d66      	ldr	r5, [pc, #408]	@ (8003f68 <HAL_RCCEx_PeriphCLKConfig+0x1c4>)
 8003dce:	007f      	lsls	r7, r7, #1
 8003dd0:	682b      	ldr	r3, [r5, #0]
 8003dd2:	433b      	orrs	r3, r7
 8003dd4:	602b      	str	r3, [r5, #0]

    /* Wait for Backup domain Write protection disable */
    tickstart = HAL_GetTick();
 8003dd6:	f7fe f915 	bl	8002004 <HAL_GetTick>
 8003dda:	0006      	movs	r6, r0

    while ((PWR->CR1 & PWR_CR1_DBP) == 0U)
 8003ddc:	e005      	b.n	8003dea <HAL_RCCEx_PeriphCLKConfig+0x46>
    {
      if ((HAL_GetTick() - tickstart) > RCC_DBP_TIMEOUT_VALUE)
 8003dde:	f7fe f911 	bl	8002004 <HAL_GetTick>
 8003de2:	1b80      	subs	r0, r0, r6
 8003de4:	2802      	cmp	r0, #2
 8003de6:	d900      	bls.n	8003dea <HAL_RCCEx_PeriphCLKConfig+0x46>
 8003de8:	e09e      	b.n	8003f28 <HAL_RCCEx_PeriphCLKConfig+0x184>
    while ((PWR->CR1 & PWR_CR1_DBP) == 0U)
 8003dea:	682b      	ldr	r3, [r5, #0]
 8003dec:	423b      	tst	r3, r7
 8003dee:	d0f6      	beq.n	8003dde <HAL_RCCEx_PeriphCLKConfig+0x3a>
    }

    if (ret == HAL_OK)
    {
      /* Reset the Backup domain only if the RTC Clock source selection is modified from default */
      tmpregister = READ_BIT(RCC->BDCR, RCC_BDCR_RTCSEL);
 8003df0:	4d5c      	ldr	r5, [pc, #368]	@ (8003f64 <HAL_RCCEx_PeriphCLKConfig+0x1c0>)
 8003df2:	23c0      	movs	r3, #192	@ 0xc0
 8003df4:	6dea      	ldr	r2, [r5, #92]	@ 0x5c
 8003df6:	009b      	lsls	r3, r3, #2
 8003df8:	0010      	movs	r0, r2

      /* Reset the Backup domain only if the RTC Clock source selection is modified */
      if ((tmpregister != RCC_RTCCLKSOURCE_NONE) && (tmpregister != PeriphClkInit->RTCClockSelection))
 8003dfa:	6a61      	ldr	r1, [r4, #36]	@ 0x24
      tmpregister = READ_BIT(RCC->BDCR, RCC_BDCR_RTCSEL);
 8003dfc:	4018      	ands	r0, r3
      if ((tmpregister != RCC_RTCCLKSOURCE_NONE) && (tmpregister != PeriphClkInit->RTCClockSelection))
 8003dfe:	421a      	tst	r2, r3
 8003e00:	d023      	beq.n	8003e4a <HAL_RCCEx_PeriphCLKConfig+0xa6>
 8003e02:	4288      	cmp	r0, r1
 8003e04:	d021      	beq.n	8003e4a <HAL_RCCEx_PeriphCLKConfig+0xa6>
      {
        /* Store the content of BDCR register before the reset of Backup Domain */
        tmpregister = READ_BIT(RCC->BDCR, ~(RCC_BDCR_RTCSEL));
        /* RTC Clock selection can be changed only if the Backup Domain is reset */
        __HAL_RCC_BACKUPRESET_FORCE();
 8003e06:	2080      	movs	r0, #128	@ 0x80
        tmpregister = READ_BIT(RCC->BDCR, ~(RCC_BDCR_RTCSEL));
 8003e08:	6deb      	ldr	r3, [r5, #92]	@ 0x5c
        __HAL_RCC_BACKUPRESET_FORCE();
 8003e0a:	6dee      	ldr	r6, [r5, #92]	@ 0x5c
 8003e0c:	0240      	lsls	r0, r0, #9
 8003e0e:	4330      	orrs	r0, r6
 8003e10:	65e8      	str	r0, [r5, #92]	@ 0x5c
        __HAL_RCC_BACKUPRESET_RELEASE();
 8003e12:	6de8      	ldr	r0, [r5, #92]	@ 0x5c
        tmpregister = READ_BIT(RCC->BDCR, ~(RCC_BDCR_RTCSEL));
 8003e14:	4a55      	ldr	r2, [pc, #340]	@ (8003f6c <HAL_RCCEx_PeriphCLKConfig+0x1c8>)
        __HAL_RCC_BACKUPRESET_RELEASE();
 8003e16:	4e56      	ldr	r6, [pc, #344]	@ (8003f70 <HAL_RCCEx_PeriphCLKConfig+0x1cc>)
        tmpregister = READ_BIT(RCC->BDCR, ~(RCC_BDCR_RTCSEL));
 8003e18:	401a      	ands	r2, r3
        __HAL_RCC_BACKUPRESET_RELEASE();
 8003e1a:	4030      	ands	r0, r6
 8003e1c:	65e8      	str	r0, [r5, #92]	@ 0x5c
        /* Restore the Content of BDCR register */
        RCC->BDCR = tmpregister;
 8003e1e:	65ea      	str	r2, [r5, #92]	@ 0x5c
      }

      /* Wait for LSE reactivation if LSE was enable prior to Backup Domain reset */
      if (HAL_IS_BIT_SET(tmpregister, RCC_BDCR_LSEON))
 8003e20:	07db      	lsls	r3, r3, #31
 8003e22:	d512      	bpl.n	8003e4a <HAL_RCCEx_PeriphCLKConfig+0xa6>
      {
        /* Get Start Tick*/
        tickstart = HAL_GetTick();
 8003e24:	f7fe f8ee 	bl	8002004 <HAL_GetTick>

        /* Wait till LSE is ready */
        while (READ_BIT(RCC->BDCR, RCC_BDCR_LSERDY) == 0U)
 8003e28:	2302      	movs	r3, #2
 8003e2a:	4698      	mov	r8, r3
        {
          if ((HAL_GetTick() - tickstart) > RCC_LSE_TIMEOUT_VALUE)
 8003e2c:	4b51      	ldr	r3, [pc, #324]	@ (8003f74 <HAL_RCCEx_PeriphCLKConfig+0x1d0>)
        tickstart = HAL_GetTick();
 8003e2e:	0006      	movs	r6, r0
          if ((HAL_GetTick() - tickstart) > RCC_LSE_TIMEOUT_VALUE)
 8003e30:	4699      	mov	r9, r3
        while (READ_BIT(RCC->BDCR, RCC_BDCR_LSERDY) == 0U)
 8003e32:	e005      	b.n	8003e40 <HAL_RCCEx_PeriphCLKConfig+0x9c>
          if ((HAL_GetTick() - tickstart) > RCC_LSE_TIMEOUT_VALUE)
 8003e34:	f7fe f8e6 	bl	8002004 <HAL_GetTick>
 8003e38:	1b80      	subs	r0, r0, r6
 8003e3a:	4548      	cmp	r0, r9
 8003e3c:	d900      	bls.n	8003e40 <HAL_RCCEx_PeriphCLKConfig+0x9c>
 8003e3e:	e073      	b.n	8003f28 <HAL_RCCEx_PeriphCLKConfig+0x184>
        while (READ_BIT(RCC->BDCR, RCC_BDCR_LSERDY) == 0U)
 8003e40:	4642      	mov	r2, r8
 8003e42:	6deb      	ldr	r3, [r5, #92]	@ 0x5c
 8003e44:	421a      	tst	r2, r3
 8003e46:	d0f5      	beq.n	8003e34 <HAL_RCCEx_PeriphCLKConfig+0x90>
      }

      if (ret == HAL_OK)
      {
        /* Apply new RTC clock source selection */
        __HAL_RCC_RTC_CONFIG(PeriphClkInit->RTCClockSelection);
 8003e48:	6a61      	ldr	r1, [r4, #36]	@ 0x24
 8003e4a:	4a46      	ldr	r2, [pc, #280]	@ (8003f64 <HAL_RCCEx_PeriphCLKConfig+0x1c0>)
 8003e4c:	4847      	ldr	r0, [pc, #284]	@ (8003f6c <HAL_RCCEx_PeriphCLKConfig+0x1c8>)
 8003e4e:	6dd3      	ldr	r3, [r2, #92]	@ 0x5c
 8003e50:	4003      	ands	r3, r0
 8003e52:	430b      	orrs	r3, r1
 8003e54:	65d3      	str	r3, [r2, #92]	@ 0x5c
      /* set overall return value */
      status = ret;
    }

    /* Restore clock configuration if changed */
    if (pwrclkchanged == SET)
 8003e56:	4652      	mov	r2, sl
  HAL_StatusTypeDef status = HAL_OK;   /* Final status */
 8003e58:	2000      	movs	r0, #0
      __HAL_RCC_PWR_CLK_DISABLE();
    }
  }

  /*-------------------------- USART1 clock source configuration -------------------*/
  if (((PeriphClkInit->PeriphClockSelection) & RCC_PERIPHCLK_USART1) == RCC_PERIPHCLK_USART1)
 8003e5a:	6823      	ldr	r3, [r4, #0]
    if (pwrclkchanged == SET)
 8003e5c:	2a01      	cmp	r2, #1
 8003e5e:	d068      	beq.n	8003f32 <HAL_RCCEx_PeriphCLKConfig+0x18e>
  if (((PeriphClkInit->PeriphClockSelection) & RCC_PERIPHCLK_USART1) == RCC_PERIPHCLK_USART1)
 8003e60:	07da      	lsls	r2, r3, #31
 8003e62:	d506      	bpl.n	8003e72 <HAL_RCCEx_PeriphCLKConfig+0xce>
  {
    /* Check the parameters */
    assert_param(IS_RCC_USART1CLKSOURCE(PeriphClkInit->Usart1ClockSelection));

    /* Configure the USART1 clock source */
    __HAL_RCC_USART1_CONFIG(PeriphClkInit->Usart1ClockSelection);
 8003e64:	2503      	movs	r5, #3
 8003e66:	493f      	ldr	r1, [pc, #252]	@ (8003f64 <HAL_RCCEx_PeriphCLKConfig+0x1c0>)
 8003e68:	6d4a      	ldr	r2, [r1, #84]	@ 0x54
 8003e6a:	43aa      	bics	r2, r5
 8003e6c:	6865      	ldr	r5, [r4, #4]
 8003e6e:	432a      	orrs	r2, r5
 8003e70:	654a      	str	r2, [r1, #84]	@ 0x54
  }
#endif /* RCC_CCIPR_USART3SEL */

#if defined(LPUART1)
  /*-------------------------- LPUART1 clock source configuration ------------------*/
  if (((PeriphClkInit->PeriphClockSelection) & RCC_PERIPHCLK_LPUART1) == RCC_PERIPHCLK_LPUART1)
 8003e72:	06da      	lsls	r2, r3, #27
 8003e74:	d506      	bpl.n	8003e84 <HAL_RCCEx_PeriphCLKConfig+0xe0>
  {
    /* Check the parameters */
    assert_param(IS_RCC_LPUART1CLKSOURCE(PeriphClkInit->Lpuart1ClockSelection));

    /* Configure the LPUART1 clock source */
    __HAL_RCC_LPUART1_CONFIG(PeriphClkInit->Lpuart1ClockSelection);
 8003e76:	493b      	ldr	r1, [pc, #236]	@ (8003f64 <HAL_RCCEx_PeriphCLKConfig+0x1c0>)
 8003e78:	4d3f      	ldr	r5, [pc, #252]	@ (8003f78 <HAL_RCCEx_PeriphCLKConfig+0x1d4>)
 8003e7a:	6d4a      	ldr	r2, [r1, #84]	@ 0x54
 8003e7c:	402a      	ands	r2, r5
 8003e7e:	68a5      	ldr	r5, [r4, #8]
 8003e80:	432a      	orrs	r2, r5
 8003e82:	654a      	str	r2, [r1, #84]	@ 0x54
  }
#endif /* LPUART2 */

#if defined(RCC_CCIPR_LPTIM1SEL)
  /*-------------------------- LPTIM1 clock source configuration -------------------*/
  if (((PeriphClkInit->PeriphClockSelection) & RCC_PERIPHCLK_LPTIM1) == (RCC_PERIPHCLK_LPTIM1))
 8003e84:	059a      	lsls	r2, r3, #22
 8003e86:	d506      	bpl.n	8003e96 <HAL_RCCEx_PeriphCLKConfig+0xf2>
  {
    assert_param(IS_RCC_LPTIM1CLKSOURCE(PeriphClkInit->Lptim1ClockSelection));
    __HAL_RCC_LPTIM1_CONFIG(PeriphClkInit->Lptim1ClockSelection);
 8003e88:	4936      	ldr	r1, [pc, #216]	@ (8003f64 <HAL_RCCEx_PeriphCLKConfig+0x1c0>)
 8003e8a:	4d3c      	ldr	r5, [pc, #240]	@ (8003f7c <HAL_RCCEx_PeriphCLKConfig+0x1d8>)
 8003e8c:	6d4a      	ldr	r2, [r1, #84]	@ 0x54
 8003e8e:	402a      	ands	r2, r5
 8003e90:	6965      	ldr	r5, [r4, #20]
 8003e92:	432a      	orrs	r2, r5
 8003e94:	654a      	str	r2, [r1, #84]	@ 0x54
  }
#endif /* RCC_CCIPR_LPTIM1SEL */

#if defined(RCC_CCIPR_LPTIM2SEL)
  /*-------------------------- LPTIM2 clock source configuration -------------------*/
  if (((PeriphClkInit->PeriphClockSelection) & RCC_PERIPHCLK_LPTIM2) == (RCC_PERIPHCLK_LPTIM2))
 8003e96:	055a      	lsls	r2, r3, #21
 8003e98:	d506      	bpl.n	8003ea8 <HAL_RCCEx_PeriphCLKConfig+0x104>
  {
    assert_param(IS_RCC_LPTIM2CLKSOURCE(PeriphClkInit->Lptim2ClockSelection));
    __HAL_RCC_LPTIM2_CONFIG(PeriphClkInit->Lptim2ClockSelection);
 8003e9a:	4932      	ldr	r1, [pc, #200]	@ (8003f64 <HAL_RCCEx_PeriphCLKConfig+0x1c0>)
 8003e9c:	4d38      	ldr	r5, [pc, #224]	@ (8003f80 <HAL_RCCEx_PeriphCLKConfig+0x1dc>)
 8003e9e:	6d4a      	ldr	r2, [r1, #84]	@ 0x54
 8003ea0:	402a      	ands	r2, r5
 8003ea2:	69a5      	ldr	r5, [r4, #24]
 8003ea4:	432a      	orrs	r2, r5
 8003ea6:	654a      	str	r2, [r1, #84]	@ 0x54
  }
#endif /* RCC_CCIPR_LPTIM2SEL */

  /*-------------------------- I2C1 clock source configuration ---------------------*/
  if (((PeriphClkInit->PeriphClockSelection) & RCC_PERIPHCLK_I2C1) == RCC_PERIPHCLK_I2C1)
 8003ea8:	069a      	lsls	r2, r3, #26
 8003eaa:	d506      	bpl.n	8003eba <HAL_RCCEx_PeriphCLKConfig+0x116>
  {
    /* Check the parameters */
    assert_param(IS_RCC_I2C1CLKSOURCE(PeriphClkInit->I2c1ClockSelection));

    /* Configure the I2C1 clock source */
    __HAL_RCC_I2C1_CONFIG(PeriphClkInit->I2c1ClockSelection);
 8003eac:	492d      	ldr	r1, [pc, #180]	@ (8003f64 <HAL_RCCEx_PeriphCLKConfig+0x1c0>)
 8003eae:	4d35      	ldr	r5, [pc, #212]	@ (8003f84 <HAL_RCCEx_PeriphCLKConfig+0x1e0>)
 8003eb0:	6d4a      	ldr	r2, [r1, #84]	@ 0x54
 8003eb2:	402a      	ands	r2, r5
 8003eb4:	68e5      	ldr	r5, [r4, #12]
 8003eb6:	432a      	orrs	r2, r5
 8003eb8:	654a      	str	r2, [r1, #84]	@ 0x54
      __HAL_RCC_PLLCLKOUT_ENABLE(RCC_PLLQCLK);
    }
  }
#endif /* RNG */
  /*-------------------------- ADC clock source configuration ----------------------*/
  if (((PeriphClkInit->PeriphClockSelection) & RCC_PERIPHCLK_ADC) == RCC_PERIPHCLK_ADC)
 8003eba:	045a      	lsls	r2, r3, #17
 8003ebc:	d50a      	bpl.n	8003ed4 <HAL_RCCEx_PeriphCLKConfig+0x130>
  {
    /* Check the parameters */
    assert_param(IS_RCC_ADCCLKSOURCE(PeriphClkInit->AdcClockSelection));

    /* Configure the ADC interface clock source */
    __HAL_RCC_ADC_CONFIG(PeriphClkInit->AdcClockSelection);
 8003ebe:	4929      	ldr	r1, [pc, #164]	@ (8003f64 <HAL_RCCEx_PeriphCLKConfig+0x1c0>)
 8003ec0:	69e5      	ldr	r5, [r4, #28]
 8003ec2:	6d4a      	ldr	r2, [r1, #84]	@ 0x54
 8003ec4:	0092      	lsls	r2, r2, #2
 8003ec6:	0892      	lsrs	r2, r2, #2
 8003ec8:	432a      	orrs	r2, r5
 8003eca:	654a      	str	r2, [r1, #84]	@ 0x54

    if (PeriphClkInit->AdcClockSelection == RCC_ADCCLKSOURCE_PLLADC)
 8003ecc:	2280      	movs	r2, #128	@ 0x80
 8003ece:	05d2      	lsls	r2, r2, #23
 8003ed0:	4295      	cmp	r5, r2
 8003ed2:	d034      	beq.n	8003f3e <HAL_RCCEx_PeriphCLKConfig+0x19a>
  }
#endif /* CEC */

#if defined(RCC_CCIPR_TIM1SEL)
  /*-------------------------- TIM1 clock source configuration ---------------------*/
  if (((PeriphClkInit->PeriphClockSelection) & RCC_PERIPHCLK_TIM1) == RCC_PERIPHCLK_TIM1)
 8003ed4:	029a      	lsls	r2, r3, #10
 8003ed6:	d50a      	bpl.n	8003eee <HAL_RCCEx_PeriphCLKConfig+0x14a>
  {
    /* Check the parameters */
    assert_param(IS_RCC_TIM1CLKSOURCE(PeriphClkInit->Tim1ClockSelection));

    /* Configure the TIM1 clock source */
    __HAL_RCC_TIM1_CONFIG(PeriphClkInit->Tim1ClockSelection);
 8003ed8:	4922      	ldr	r1, [pc, #136]	@ (8003f64 <HAL_RCCEx_PeriphCLKConfig+0x1c0>)
 8003eda:	4e2b      	ldr	r6, [pc, #172]	@ (8003f88 <HAL_RCCEx_PeriphCLKConfig+0x1e4>)
 8003edc:	6d4a      	ldr	r2, [r1, #84]	@ 0x54
 8003ede:	6a25      	ldr	r5, [r4, #32]
 8003ee0:	4032      	ands	r2, r6
 8003ee2:	432a      	orrs	r2, r5
 8003ee4:	654a      	str	r2, [r1, #84]	@ 0x54

    if (PeriphClkInit->Tim1ClockSelection == RCC_TIM1CLKSOURCE_PLL)
 8003ee6:	2280      	movs	r2, #128	@ 0x80
 8003ee8:	03d2      	lsls	r2, r2, #15
 8003eea:	4295      	cmp	r5, r2
 8003eec:	d02d      	beq.n	8003f4a <HAL_RCCEx_PeriphCLKConfig+0x1a6>
    }
  }
#endif /* RCC_CCIPR_TIM15SEL */

  /*-------------------------- I2S1 clock source configuration ---------------------*/
  if (((PeriphClkInit->PeriphClockSelection) & RCC_PERIPHCLK_I2S1) == RCC_PERIPHCLK_I2S1)
 8003eee:	051b      	lsls	r3, r3, #20
 8003ef0:	d50a      	bpl.n	8003f08 <HAL_RCCEx_PeriphCLKConfig+0x164>
  {
    /* Check the parameters */
    assert_param(IS_RCC_I2S1CLKSOURCE(PeriphClkInit->I2s1ClockSelection));

    /* Configure the I2S1 clock source */
    __HAL_RCC_I2S1_CONFIG(PeriphClkInit->I2s1ClockSelection);
 8003ef2:	4a1c      	ldr	r2, [pc, #112]	@ (8003f64 <HAL_RCCEx_PeriphCLKConfig+0x1c0>)
 8003ef4:	6921      	ldr	r1, [r4, #16]
 8003ef6:	6d53      	ldr	r3, [r2, #84]	@ 0x54
 8003ef8:	4c24      	ldr	r4, [pc, #144]	@ (8003f8c <HAL_RCCEx_PeriphCLKConfig+0x1e8>)
 8003efa:	4023      	ands	r3, r4
 8003efc:	430b      	orrs	r3, r1
 8003efe:	6553      	str	r3, [r2, #84]	@ 0x54

    if (PeriphClkInit->I2s1ClockSelection == RCC_I2S1CLKSOURCE_PLL)
 8003f00:	2380      	movs	r3, #128	@ 0x80
 8003f02:	01db      	lsls	r3, r3, #7
 8003f04:	4299      	cmp	r1, r3
 8003f06:	d026      	beq.n	8003f56 <HAL_RCCEx_PeriphCLKConfig+0x1b2>
    }
  }
#endif /* FDCAN1 || FDCAN2 */

  return status;
}
 8003f08:	b002      	add	sp, #8
 8003f0a:	bce0      	pop	{r5, r6, r7}
 8003f0c:	46ba      	mov	sl, r7
 8003f0e:	46b1      	mov	r9, r6
 8003f10:	46a8      	mov	r8, r5
 8003f12:	bdf0      	pop	{r4, r5, r6, r7, pc}
      __HAL_RCC_PWR_CLK_ENABLE();
 8003f14:	6bd9      	ldr	r1, [r3, #60]	@ 0x3c
 8003f16:	4311      	orrs	r1, r2
 8003f18:	63d9      	str	r1, [r3, #60]	@ 0x3c
 8003f1a:	6bdb      	ldr	r3, [r3, #60]	@ 0x3c
 8003f1c:	4013      	ands	r3, r2
 8003f1e:	9301      	str	r3, [sp, #4]
 8003f20:	9b01      	ldr	r3, [sp, #4]
      pwrclkchanged = SET;
 8003f22:	2301      	movs	r3, #1
 8003f24:	469a      	mov	sl, r3
 8003f26:	e750      	b.n	8003dca <HAL_RCCEx_PeriphCLKConfig+0x26>
    if (pwrclkchanged == SET)
 8003f28:	4652      	mov	r2, sl
        status = ret;
 8003f2a:	2003      	movs	r0, #3
  if (((PeriphClkInit->PeriphClockSelection) & RCC_PERIPHCLK_USART1) == RCC_PERIPHCLK_USART1)
 8003f2c:	6823      	ldr	r3, [r4, #0]
    if (pwrclkchanged == SET)
 8003f2e:	2a01      	cmp	r2, #1
 8003f30:	d196      	bne.n	8003e60 <HAL_RCCEx_PeriphCLKConfig+0xbc>
      __HAL_RCC_PWR_CLK_DISABLE();
 8003f32:	490c      	ldr	r1, [pc, #48]	@ (8003f64 <HAL_RCCEx_PeriphCLKConfig+0x1c0>)
 8003f34:	4d16      	ldr	r5, [pc, #88]	@ (8003f90 <HAL_RCCEx_PeriphCLKConfig+0x1ec>)
 8003f36:	6bca      	ldr	r2, [r1, #60]	@ 0x3c
 8003f38:	402a      	ands	r2, r5
 8003f3a:	63ca      	str	r2, [r1, #60]	@ 0x3c
 8003f3c:	e790      	b.n	8003e60 <HAL_RCCEx_PeriphCLKConfig+0xbc>
      __HAL_RCC_PLLCLKOUT_ENABLE(RCC_PLLPCLK);
 8003f3e:	2280      	movs	r2, #128	@ 0x80
 8003f40:	68cd      	ldr	r5, [r1, #12]
 8003f42:	0252      	lsls	r2, r2, #9
 8003f44:	432a      	orrs	r2, r5
 8003f46:	60ca      	str	r2, [r1, #12]
 8003f48:	e7c4      	b.n	8003ed4 <HAL_RCCEx_PeriphCLKConfig+0x130>
      __HAL_RCC_PLLCLKOUT_ENABLE(RCC_PLLQCLK);
 8003f4a:	2280      	movs	r2, #128	@ 0x80
 8003f4c:	68cd      	ldr	r5, [r1, #12]
 8003f4e:	0452      	lsls	r2, r2, #17
 8003f50:	432a      	orrs	r2, r5
 8003f52:	60ca      	str	r2, [r1, #12]
 8003f54:	e7cb      	b.n	8003eee <HAL_RCCEx_PeriphCLKConfig+0x14a>
      __HAL_RCC_PLLCLKOUT_ENABLE(RCC_PLLPCLK);
 8003f56:	2380      	movs	r3, #128	@ 0x80
 8003f58:	68d1      	ldr	r1, [r2, #12]
 8003f5a:	025b      	lsls	r3, r3, #9
 8003f5c:	430b      	orrs	r3, r1
 8003f5e:	60d3      	str	r3, [r2, #12]
  return status;
 8003f60:	e7d2      	b.n	8003f08 <HAL_RCCEx_PeriphCLKConfig+0x164>
 8003f62:	46c0      	nop			@ (mov r8, r8)
 8003f64:	40021000 	.word	0x40021000
 8003f68:	40007000 	.word	0x40007000
 8003f6c:	fffffcff 	.word	0xfffffcff
 8003f70:	fffeffff 	.word	0xfffeffff
 8003f74:	00001388 	.word	0x00001388
 8003f78:	fffff3ff 	.word	0xfffff3ff
 8003f7c:	fff3ffff 	.word	0xfff3ffff
 8003f80:	ffcfffff 	.word	0xffcfffff
 8003f84:	ffffcfff 	.word	0xffffcfff
 8003f88:	ffbfffff 	.word	0xffbfffff
 8003f8c:	ffff3fff 	.word	0xffff3fff
 8003f90:	efffffff 	.word	0xefffffff

08003f94 <HAL_TIM_OC_MspInit>:
/**
  * @brief  Initializes the TIM Output Compare MSP.
  * @param  htim TIM Output Compare handle
  * @retval None
  */
__weak void HAL_TIM_OC_MspInit(TIM_HandleTypeDef *htim)
 8003f94:	4770      	bx	lr
 8003f96:	46c0      	nop			@ (mov r8, r8)

08003f98 <HAL_TIM_PWM_MspInit>:
/**
  * @brief  Initializes the TIM PWM MSP.
  * @param  htim TIM PWM handle
  * @retval None
  */
__weak void HAL_TIM_PWM_MspInit(TIM_HandleTypeDef *htim)
 8003f98:	4770      	bx	lr
 8003f9a:	46c0      	nop			@ (mov r8, r8)

08003f9c <HAL_TIM_IC_MspInit>:
/**
  * @brief  Initializes the TIM Input Capture MSP.
  * @param  htim TIM Input Capture handle
  * @retval None
  */
__weak void HAL_TIM_IC_MspInit(TIM_HandleTypeDef *htim)
 8003f9c:	4770      	bx	lr
 8003f9e:	46c0      	nop			@ (mov r8, r8)

08003fa0 <HAL_TIM_PeriodElapsedCallback>:
/**
  * @brief  Period elapsed callback in non-blocking mode
  * @param  htim TIM handle
  * @retval None
  */
__weak void HAL_TIM_PeriodElapsedCallback(TIM_HandleTypeDef *htim)
 8003fa0:	4770      	bx	lr
 8003fa2:	46c0      	nop			@ (mov r8, r8)

08003fa4 <HAL_TIM_PeriodElapsedHalfCpltCallback>:
/**
  * @brief  Period elapsed half complete callback in non-blocking mode
  * @param  htim TIM handle
  * @retval None
  */
__weak void HAL_TIM_PeriodElapsedHalfCpltCallback(TIM_HandleTypeDef *htim)
 8003fa4:	4770      	bx	lr
 8003fa6:	46c0      	nop			@ (mov r8, r8)

08003fa8 <HAL_TIM_OC_DelayElapsedCallback>:
/**
  * @brief  Output Compare callback in non-blocking mode
  * @param  htim TIM OC handle
  * @retval None
  */
__weak void HAL_TIM_OC_DelayElapsedCallback(TIM_HandleTypeDef *htim)
 8003fa8:	4770      	bx	lr
 8003faa:	46c0      	nop			@ (mov r8, r8)

08003fac <HAL_TIM_IC_CaptureCallback>:
/**
  * @brief  Input Capture callback in non-blocking mode
  * @param  htim TIM IC handle
  * @retval None
  */
__weak void HAL_TIM_IC_CaptureCallback(TIM_HandleTypeDef *htim)
 8003fac:	4770      	bx	lr
 8003fae:	46c0      	nop			@ (mov r8, r8)

08003fb0 <HAL_TIM_IC_CaptureHalfCpltCallback>:
/**
  * @brief  Input Capture half complete callback in non-blocking mode
  * @param  htim TIM IC handle
  * @retval None
  */
__weak void HAL_TIM_IC_CaptureHalfCpltCallback(TIM_HandleTypeDef *htim)
 8003fb0:	4770      	bx	lr
 8003fb2:	46c0      	nop			@ (mov r8, r8)

08003fb4 <HAL_TIM_PWM_PulseFinishedCallback>:
/**
  * @brief  PWM Pulse finished callback in non-blocking mode
  * @param  htim TIM handle
  * @retval None
  */
__weak void HAL_TIM_PWM_PulseFinishedCallback(TIM_HandleTypeDef *htim)
 8003fb4:	4770      	bx	lr
 8003fb6:	46c0      	nop			@ (mov r8, r8)

08003fb8 <HAL_TIM_PWM_PulseFinishedHalfCpltCallback>:
/**
  * @brief  PWM Pulse finished half complete callback in non-blocking mode
  * @param  htim TIM handle
  * @retval None
  */
__weak void HAL_TIM_PWM_PulseFinishedHalfCpltCallback(TIM_HandleTypeDef *htim)
 8003fb8:	4770      	bx	lr
 8003fba:	46c0      	nop			@ (mov r8, r8)

08003fbc <HAL_TIM_TriggerCallback>:
/**
  * @brief  Hall Trigger detection callback in non-blocking mode
  * @param  htim TIM handle
  * @retval None
  */
__weak void HAL_TIM_TriggerCallback(TIM_HandleTypeDef *htim)
 8003fbc:	4770      	bx	lr
 8003fbe:	46c0      	nop			@ (mov r8, r8)

08003fc0 <HAL_TIM_TriggerHalfCpltCallback>:
/**
  * @brief  Hall Trigger detection half complete callback in non-blocking mode
  * @param  htim TIM handle
  * @retval None
  */
__weak void HAL_TIM_TriggerHalfCpltCallback(TIM_HandleTypeDef *htim)
 8003fc0:	4770      	bx	lr
 8003fc2:	46c0      	nop			@ (mov r8, r8)

08003fc4 <HAL_TIM_ErrorCallback>:
/**
  * @brief  Timer error callback in non-blocking mode
  * @param  htim TIM handle
  * @retval None
  */
__weak void HAL_TIM_ErrorCallback(TIM_HandleTypeDef *htim)
 8003fc4:	4770      	bx	lr
 8003fc6:	46c0      	nop			@ (mov r8, r8)

08003fc8 <HAL_TIM_Base_Init>:
{
 8003fc8:	b570      	push	{r4, r5, r6, lr}
 8003fca:	1e04      	subs	r4, r0, #0
  if (htim == NULL)
 8003fcc:	d100      	bne.n	8003fd0 <HAL_TIM_Base_Init+0x8>
 8003fce:	e093      	b.n	80040f8 <HAL_TIM_Base_Init+0x130>
  if (htim->State == HAL_TIM_STATE_RESET)
 8003fd0:	233d      	movs	r3, #61	@ 0x3d
 8003fd2:	5cc3      	ldrb	r3, [r0, r3]
 8003fd4:	b2da      	uxtb	r2, r3
 8003fd6:	2b00      	cmp	r3, #0
 8003fd8:	d130      	bne.n	800403c <HAL_TIM_Base_Init+0x74>
    htim->Lock = HAL_UNLOCKED;
 8003fda:	333c      	adds	r3, #60	@ 0x3c
 8003fdc:	54c2      	strb	r2, [r0, r3]
  * @retval None
  */
void TIM_ResetCallback(TIM_HandleTypeDef *htim)
{
  /* Reset the TIM callback to the legacy weak callbacks */
  htim->PeriodElapsedCallback             = HAL_TIM_PeriodElapsedCallback;
 8003fde:	2284      	movs	r2, #132	@ 0x84
 8003fe0:	4b48      	ldr	r3, [pc, #288]	@ (8004104 <HAL_TIM_Base_Init+0x13c>)
 8003fe2:	5083      	str	r3, [r0, r2]
  htim->PeriodElapsedHalfCpltCallback     = HAL_TIM_PeriodElapsedHalfCpltCallback;
 8003fe4:	4b48      	ldr	r3, [pc, #288]	@ (8004108 <HAL_TIM_Base_Init+0x140>)
 8003fe6:	3204      	adds	r2, #4
 8003fe8:	5083      	str	r3, [r0, r2]
  htim->TriggerCallback                   = HAL_TIM_TriggerCallback;
 8003fea:	4b48      	ldr	r3, [pc, #288]	@ (800410c <HAL_TIM_Base_Init+0x144>)
 8003fec:	3204      	adds	r2, #4
 8003fee:	5083      	str	r3, [r0, r2]
  htim->TriggerHalfCpltCallback           = HAL_TIM_TriggerHalfCpltCallback;
 8003ff0:	4b47      	ldr	r3, [pc, #284]	@ (8004110 <HAL_TIM_Base_Init+0x148>)
 8003ff2:	3204      	adds	r2, #4
 8003ff4:	5083      	str	r3, [r0, r2]
  htim->IC_CaptureCallback                = HAL_TIM_IC_CaptureCallback;
 8003ff6:	4b47      	ldr	r3, [pc, #284]	@ (8004114 <HAL_TIM_Base_Init+0x14c>)
 8003ff8:	3204      	adds	r2, #4
 8003ffa:	5083      	str	r3, [r0, r2]
  htim->IC_CaptureHalfCpltCallback        = HAL_TIM_IC_CaptureHalfCpltCallback;
 8003ffc:	4b46      	ldr	r3, [pc, #280]	@ (8004118 <HAL_TIM_Base_Init+0x150>)
 8003ffe:	3204      	adds	r2, #4
 8004000:	5083      	str	r3, [r0, r2]
  htim->OC_DelayElapsedCallback           = HAL_TIM_OC_DelayElapsedCallback;
 8004002:	4b46      	ldr	r3, [pc, #280]	@ (800411c <HAL_TIM_Base_Init+0x154>)
 8004004:	3204      	adds	r2, #4
 8004006:	5083      	str	r3, [r0, r2]
  htim->PWM_PulseFinishedCallback         = HAL_TIM_PWM_PulseFinishedCallback;
 8004008:	4b45      	ldr	r3, [pc, #276]	@ (8004120 <HAL_TIM_Base_Init+0x158>)
 800400a:	3204      	adds	r2, #4
 800400c:	5083      	str	r3, [r0, r2]
  htim->PWM_PulseFinishedHalfCpltCallback = HAL_TIM_PWM_PulseFinishedHalfCpltCallback;
 800400e:	4b45      	ldr	r3, [pc, #276]	@ (8004124 <HAL_TIM_Base_Init+0x15c>)
 8004010:	3204      	adds	r2, #4
 8004012:	5083      	str	r3, [r0, r2]
  htim->ErrorCallback                     = HAL_TIM_ErrorCallback;
 8004014:	4b44      	ldr	r3, [pc, #272]	@ (8004128 <HAL_TIM_Base_Init+0x160>)
 8004016:	3204      	adds	r2, #4
 8004018:	5083      	str	r3, [r0, r2]
  htim->CommutationCallback               = HAL_TIMEx_CommutCallback;
 800401a:	4b44      	ldr	r3, [pc, #272]	@ (800412c <HAL_TIM_Base_Init+0x164>)
 800401c:	3204      	adds	r2, #4
 800401e:	5083      	str	r3, [r0, r2]
  htim->CommutationHalfCpltCallback       = HAL_TIMEx_CommutHalfCpltCallback;
 8004020:	4b43      	ldr	r3, [pc, #268]	@ (8004130 <HAL_TIM_Base_Init+0x168>)
 8004022:	3204      	adds	r2, #4
 8004024:	5083      	str	r3, [r0, r2]
  htim->BreakCallback                     = HAL_TIMEx_BreakCallback;
 8004026:	4b43      	ldr	r3, [pc, #268]	@ (8004134 <HAL_TIM_Base_Init+0x16c>)
 8004028:	3204      	adds	r2, #4
 800402a:	5083      	str	r3, [r0, r2]
  htim->Break2Callback                    = HAL_TIMEx_Break2Callback;
 800402c:	4b42      	ldr	r3, [pc, #264]	@ (8004138 <HAL_TIM_Base_Init+0x170>)
 800402e:	3204      	adds	r2, #4
 8004030:	5083      	str	r3, [r0, r2]
    if (htim->Base_MspInitCallback == NULL)
 8004032:	6cc3      	ldr	r3, [r0, #76]	@ 0x4c
 8004034:	2b00      	cmp	r3, #0
 8004036:	d061      	beq.n	80040fc <HAL_TIM_Base_Init+0x134>
    htim->Base_MspInitCallback(htim);
 8004038:	0020      	movs	r0, r4
 800403a:	4798      	blx	r3
  htim->State = HAL_TIM_STATE_BUSY;
 800403c:	233d      	movs	r3, #61	@ 0x3d
 800403e:	2202      	movs	r2, #2
 8004040:	54e2      	strb	r2, [r4, r3]
  TIM_Base_SetConfig(htim->Instance, &htim->Init);
 8004042:	6823      	ldr	r3, [r4, #0]
  if (IS_TIM_COUNTER_MODE_SELECT_INSTANCE(TIMx))
 8004044:	4e3d      	ldr	r6, [pc, #244]	@ (800413c <HAL_TIM_Base_Init+0x174>)
  tmpcr1 = TIMx->CR1;
 8004046:	681a      	ldr	r2, [r3, #0]
  MODIFY_REG(tmpcr1, TIM_CR1_ARPE, Structure->AutoReloadPreload);
 8004048:	69a5      	ldr	r5, [r4, #24]
  TIMx->PSC = Structure->Prescaler;
 800404a:	6861      	ldr	r1, [r4, #4]
  TIMx->ARR = (uint32_t)Structure->Period ;
 800404c:	68e0      	ldr	r0, [r4, #12]
  if (IS_TIM_COUNTER_MODE_SELECT_INSTANCE(TIMx))
 800404e:	42b3      	cmp	r3, r6
 8004050:	d041      	beq.n	80040d6 <HAL_TIM_Base_Init+0x10e>
 8004052:	2680      	movs	r6, #128	@ 0x80
 8004054:	05f6      	lsls	r6, r6, #23
 8004056:	42b3      	cmp	r3, r6
 8004058:	d034      	beq.n	80040c4 <HAL_TIM_Base_Init+0xfc>
 800405a:	4e39      	ldr	r6, [pc, #228]	@ (8004140 <HAL_TIM_Base_Init+0x178>)
 800405c:	42b3      	cmp	r3, r6
 800405e:	d031      	beq.n	80040c4 <HAL_TIM_Base_Init+0xfc>
  if (IS_TIM_CLOCK_DIVISION_INSTANCE(TIMx))
 8004060:	4e38      	ldr	r6, [pc, #224]	@ (8004144 <HAL_TIM_Base_Init+0x17c>)
 8004062:	42b3      	cmp	r3, r6
 8004064:	d032      	beq.n	80040cc <HAL_TIM_Base_Init+0x104>
 8004066:	4e38      	ldr	r6, [pc, #224]	@ (8004148 <HAL_TIM_Base_Init+0x180>)
 8004068:	42b3      	cmp	r3, r6
 800406a:	d038      	beq.n	80040de <HAL_TIM_Base_Init+0x116>
 800406c:	4e37      	ldr	r6, [pc, #220]	@ (800414c <HAL_TIM_Base_Init+0x184>)
 800406e:	42b3      	cmp	r3, r6
 8004070:	d035      	beq.n	80040de <HAL_TIM_Base_Init+0x116>
  MODIFY_REG(tmpcr1, TIM_CR1_ARPE, Structure->AutoReloadPreload);
 8004072:	2680      	movs	r6, #128	@ 0x80
 8004074:	43b2      	bics	r2, r6
 8004076:	432a      	orrs	r2, r5
  TIMx->CR1 = tmpcr1;
 8004078:	601a      	str	r2, [r3, #0]
  TIMx->ARR = (uint32_t)Structure->Period ;
 800407a:	62d8      	str	r0, [r3, #44]	@ 0x2c
  TIMx->PSC = Structure->Prescaler;
 800407c:	6299      	str	r1, [r3, #40]	@ 0x28
  TIMx->EGR = TIM_EGR_UG;
 800407e:	2201      	movs	r2, #1
 8004080:	615a      	str	r2, [r3, #20]
  if (HAL_IS_BIT_SET(TIMx->SR, TIM_FLAG_UPDATE))
 8004082:	6919      	ldr	r1, [r3, #16]
 8004084:	420a      	tst	r2, r1
 8004086:	d002      	beq.n	800408e <HAL_TIM_Base_Init+0xc6>
    CLEAR_BIT(TIMx->SR, TIM_FLAG_UPDATE);
 8004088:	6919      	ldr	r1, [r3, #16]
 800408a:	4391      	bics	r1, r2
 800408c:	6119      	str	r1, [r3, #16]
  htim->DMABurstState = HAL_DMA_BURST_STATE_READY;
 800408e:	2301      	movs	r3, #1
 8004090:	2248      	movs	r2, #72	@ 0x48
  return HAL_OK;
 8004092:	2000      	movs	r0, #0
  htim->DMABurstState = HAL_DMA_BURST_STATE_READY;
 8004094:	54a3      	strb	r3, [r4, r2]
  TIM_CHANNEL_STATE_SET_ALL(htim, HAL_TIM_CHANNEL_STATE_READY);
 8004096:	3a0a      	subs	r2, #10
 8004098:	54a3      	strb	r3, [r4, r2]
 800409a:	3201      	adds	r2, #1
 800409c:	54a3      	strb	r3, [r4, r2]
 800409e:	3201      	adds	r2, #1
 80040a0:	54a3      	strb	r3, [r4, r2]
 80040a2:	3201      	adds	r2, #1
 80040a4:	54a3      	strb	r3, [r4, r2]
 80040a6:	3201      	adds	r2, #1
 80040a8:	54a3      	strb	r3, [r4, r2]
 80040aa:	3201      	adds	r2, #1
 80040ac:	54a3      	strb	r3, [r4, r2]
  TIM_CHANNEL_N_STATE_SET_ALL(htim, HAL_TIM_CHANNEL_STATE_READY);
 80040ae:	3201      	adds	r2, #1
 80040b0:	54a3      	strb	r3, [r4, r2]
 80040b2:	3201      	adds	r2, #1
 80040b4:	54a3      	strb	r3, [r4, r2]
 80040b6:	3201      	adds	r2, #1
 80040b8:	54a3      	strb	r3, [r4, r2]
 80040ba:	3201      	adds	r2, #1
 80040bc:	54a3      	strb	r3, [r4, r2]
  htim->State = HAL_TIM_STATE_READY;
 80040be:	3a0a      	subs	r2, #10
 80040c0:	54a3      	strb	r3, [r4, r2]
}
 80040c2:	bd70      	pop	{r4, r5, r6, pc}
    tmpcr1 &= ~(TIM_CR1_DIR | TIM_CR1_CMS);
 80040c4:	2670      	movs	r6, #112	@ 0x70
 80040c6:	43b2      	bics	r2, r6
    tmpcr1 |= Structure->CounterMode;
 80040c8:	68a6      	ldr	r6, [r4, #8]
 80040ca:	4332      	orrs	r2, r6
    tmpcr1 &= ~TIM_CR1_CKD;
 80040cc:	4e20      	ldr	r6, [pc, #128]	@ (8004150 <HAL_TIM_Base_Init+0x188>)
 80040ce:	4032      	ands	r2, r6
    tmpcr1 |= (uint32_t)Structure->ClockDivision;
 80040d0:	6926      	ldr	r6, [r4, #16]
 80040d2:	4332      	orrs	r2, r6
 80040d4:	e7cd      	b.n	8004072 <HAL_TIM_Base_Init+0xaa>
    tmpcr1 &= ~(TIM_CR1_DIR | TIM_CR1_CMS);
 80040d6:	2670      	movs	r6, #112	@ 0x70
 80040d8:	43b2      	bics	r2, r6
    tmpcr1 |= Structure->CounterMode;
 80040da:	68a6      	ldr	r6, [r4, #8]
 80040dc:	4332      	orrs	r2, r6
    tmpcr1 &= ~TIM_CR1_CKD;
 80040de:	4e1c      	ldr	r6, [pc, #112]	@ (8004150 <HAL_TIM_Base_Init+0x188>)
 80040e0:	4032      	ands	r2, r6
    tmpcr1 |= (uint32_t)Structure->ClockDivision;
 80040e2:	6926      	ldr	r6, [r4, #16]
 80040e4:	4332      	orrs	r2, r6
  MODIFY_REG(tmpcr1, TIM_CR1_ARPE, Structure->AutoReloadPreload);
 80040e6:	2680      	movs	r6, #128	@ 0x80
 80040e8:	43b2      	bics	r2, r6
 80040ea:	432a      	orrs	r2, r5
  TIMx->CR1 = tmpcr1;
 80040ec:	601a      	str	r2, [r3, #0]
  TIMx->ARR = (uint32_t)Structure->Period ;
 80040ee:	62d8      	str	r0, [r3, #44]	@ 0x2c
  TIMx->PSC = Structure->Prescaler;
 80040f0:	6299      	str	r1, [r3, #40]	@ 0x28
    TIMx->RCR = Structure->RepetitionCounter;
 80040f2:	6962      	ldr	r2, [r4, #20]
 80040f4:	631a      	str	r2, [r3, #48]	@ 0x30
 80040f6:	e7c2      	b.n	800407e <HAL_TIM_Base_Init+0xb6>
    return HAL_ERROR;
 80040f8:	2001      	movs	r0, #1
 80040fa:	e7e2      	b.n	80040c2 <HAL_TIM_Base_Init+0xfa>
      htim->Base_MspInitCallback = HAL_TIM_Base_MspInit;
 80040fc:	4b15      	ldr	r3, [pc, #84]	@ (8004154 <HAL_TIM_Base_Init+0x18c>)
 80040fe:	64c3      	str	r3, [r0, #76]	@ 0x4c
 8004100:	e79a      	b.n	8004038 <HAL_TIM_Base_Init+0x70>
 8004102:	46c0      	nop			@ (mov r8, r8)
 8004104:	08003fa1 	.word	0x08003fa1
 8004108:	08003fa5 	.word	0x08003fa5
 800410c:	08003fbd 	.word	0x08003fbd
 8004110:	08003fc1 	.word	0x08003fc1
 8004114:	08003fad 	.word	0x08003fad
 8004118:	08003fb1 	.word	0x08003fb1
 800411c:	08003fa9 	.word	0x08003fa9
 8004120:	08003fb5 	.word	0x08003fb5
 8004124:	08003fb9 	.word	0x08003fb9
 8004128:	08003fc5 	.word	0x08003fc5
 800412c:	08005835 	.word	0x08005835
 8004130:	08005839 	.word	0x08005839
 8004134:	0800583d 	.word	0x0800583d
 8004138:	08005841 	.word	0x08005841
 800413c:	40012c00 	.word	0x40012c00
 8004140:	40000400 	.word	0x40000400
 8004144:	40002000 	.word	0x40002000
 8004148:	40014400 	.word	0x40014400
 800414c:	40014800 	.word	0x40014800
 8004150:	fffffcff 	.word	0xfffffcff
 8004154:	08001865 	.word	0x08001865

08004158 <HAL_TIM_Base_Start>:
  if (htim->State != HAL_TIM_STATE_READY)
 8004158:	213d      	movs	r1, #61	@ 0x3d
{
 800415a:	b510      	push	{r4, lr}
  if (htim->State != HAL_TIM_STATE_READY)
 800415c:	5c42      	ldrb	r2, [r0, r1]
{
 800415e:	0003      	movs	r3, r0
  if (htim->State != HAL_TIM_STATE_READY)
 8004160:	b2d4      	uxtb	r4, r2
    return HAL_ERROR;
 8004162:	2001      	movs	r0, #1
  if (htim->State != HAL_TIM_STATE_READY)
 8004164:	2a01      	cmp	r2, #1
 8004166:	d110      	bne.n	800418a <HAL_TIM_Base_Start+0x32>
  htim->State = HAL_TIM_STATE_BUSY;
 8004168:	3201      	adds	r2, #1
 800416a:	545a      	strb	r2, [r3, r1]
  if (IS_TIM_SLAVE_INSTANCE(htim->Instance))
 800416c:	681b      	ldr	r3, [r3, #0]
 800416e:	4a0e      	ldr	r2, [pc, #56]	@ (80041a8 <HAL_TIM_Base_Start+0x50>)
 8004170:	4293      	cmp	r3, r2
 8004172:	d00b      	beq.n	800418c <HAL_TIM_Base_Start+0x34>
 8004174:	2280      	movs	r2, #128	@ 0x80
 8004176:	05d2      	lsls	r2, r2, #23
 8004178:	4293      	cmp	r3, r2
 800417a:	d007      	beq.n	800418c <HAL_TIM_Base_Start+0x34>
 800417c:	4a0b      	ldr	r2, [pc, #44]	@ (80041ac <HAL_TIM_Base_Start+0x54>)
 800417e:	4293      	cmp	r3, r2
 8004180:	d004      	beq.n	800418c <HAL_TIM_Base_Start+0x34>
    __HAL_TIM_ENABLE(htim);
 8004182:	681a      	ldr	r2, [r3, #0]
 8004184:	4322      	orrs	r2, r4
 8004186:	601a      	str	r2, [r3, #0]
  return HAL_OK;
 8004188:	2000      	movs	r0, #0
}
 800418a:	bd10      	pop	{r4, pc}
    tmpsmcr = htim->Instance->SMCR & TIM_SMCR_SMS;
 800418c:	689a      	ldr	r2, [r3, #8]
 800418e:	4908      	ldr	r1, [pc, #32]	@ (80041b0 <HAL_TIM_Base_Start+0x58>)
 8004190:	400a      	ands	r2, r1
    if (!IS_TIM_SLAVEMODE_TRIGGER_ENABLED(tmpsmcr))
 8004192:	2a06      	cmp	r2, #6
 8004194:	d0f8      	beq.n	8004188 <HAL_TIM_Base_Start+0x30>
 8004196:	3907      	subs	r1, #7
 8004198:	428a      	cmp	r2, r1
 800419a:	d0f5      	beq.n	8004188 <HAL_TIM_Base_Start+0x30>
      __HAL_TIM_ENABLE(htim);
 800419c:	2101      	movs	r1, #1
 800419e:	681a      	ldr	r2, [r3, #0]
  return HAL_OK;
 80041a0:	2000      	movs	r0, #0
      __HAL_TIM_ENABLE(htim);
 80041a2:	430a      	orrs	r2, r1
 80041a4:	601a      	str	r2, [r3, #0]
 80041a6:	e7f0      	b.n	800418a <HAL_TIM_Base_Start+0x32>
 80041a8:	40012c00 	.word	0x40012c00
 80041ac:	40000400 	.word	0x40000400
 80041b0:	00010007 	.word	0x00010007

080041b4 <HAL_TIM_Base_Start_IT>:
  if (htim->State != HAL_TIM_STATE_READY)
 80041b4:	213d      	movs	r1, #61	@ 0x3d
{
 80041b6:	b510      	push	{r4, lr}
  if (htim->State != HAL_TIM_STATE_READY)
 80041b8:	5c42      	ldrb	r2, [r0, r1]
{
 80041ba:	0003      	movs	r3, r0
  if (htim->State != HAL_TIM_STATE_READY)
 80041bc:	b2d4      	uxtb	r4, r2
    return HAL_ERROR;
 80041be:	2001      	movs	r0, #1
  if (htim->State != HAL_TIM_STATE_READY)
 80041c0:	2a01      	cmp	r2, #1
 80041c2:	d113      	bne.n	80041ec <HAL_TIM_Base_Start_IT+0x38>
  htim->State = HAL_TIM_STATE_BUSY;
 80041c4:	3201      	adds	r2, #1
 80041c6:	545a      	strb	r2, [r3, r1]
  __HAL_TIM_ENABLE_IT(htim, TIM_IT_UPDATE);
 80041c8:	681b      	ldr	r3, [r3, #0]
 80041ca:	68da      	ldr	r2, [r3, #12]
 80041cc:	4322      	orrs	r2, r4
 80041ce:	60da      	str	r2, [r3, #12]
  if (IS_TIM_SLAVE_INSTANCE(htim->Instance))
 80041d0:	4a0e      	ldr	r2, [pc, #56]	@ (800420c <HAL_TIM_Base_Start_IT+0x58>)
 80041d2:	4293      	cmp	r3, r2
 80041d4:	d00b      	beq.n	80041ee <HAL_TIM_Base_Start_IT+0x3a>
 80041d6:	2280      	movs	r2, #128	@ 0x80
 80041d8:	05d2      	lsls	r2, r2, #23
 80041da:	4293      	cmp	r3, r2
 80041dc:	d007      	beq.n	80041ee <HAL_TIM_Base_Start_IT+0x3a>
 80041de:	4a0c      	ldr	r2, [pc, #48]	@ (8004210 <HAL_TIM_Base_Start_IT+0x5c>)
 80041e0:	4293      	cmp	r3, r2
 80041e2:	d004      	beq.n	80041ee <HAL_TIM_Base_Start_IT+0x3a>
    __HAL_TIM_ENABLE(htim);
 80041e4:	681a      	ldr	r2, [r3, #0]
 80041e6:	4322      	orrs	r2, r4
 80041e8:	601a      	str	r2, [r3, #0]
  return HAL_OK;
 80041ea:	2000      	movs	r0, #0
}
 80041ec:	bd10      	pop	{r4, pc}
    tmpsmcr = htim->Instance->SMCR & TIM_SMCR_SMS;
 80041ee:	689a      	ldr	r2, [r3, #8]
 80041f0:	4908      	ldr	r1, [pc, #32]	@ (8004214 <HAL_TIM_Base_Start_IT+0x60>)
 80041f2:	400a      	ands	r2, r1
    if (!IS_TIM_SLAVEMODE_TRIGGER_ENABLED(tmpsmcr))
 80041f4:	2a06      	cmp	r2, #6
 80041f6:	d0f8      	beq.n	80041ea <HAL_TIM_Base_Start_IT+0x36>
 80041f8:	3907      	subs	r1, #7
 80041fa:	428a      	cmp	r2, r1
 80041fc:	d0f5      	beq.n	80041ea <HAL_TIM_Base_Start_IT+0x36>
      __HAL_TIM_ENABLE(htim);
 80041fe:	2101      	movs	r1, #1
 8004200:	681a      	ldr	r2, [r3, #0]
  return HAL_OK;
 8004202:	2000      	movs	r0, #0
      __HAL_TIM_ENABLE(htim);
 8004204:	430a      	orrs	r2, r1
 8004206:	601a      	str	r2, [r3, #0]
 8004208:	e7f0      	b.n	80041ec <HAL_TIM_Base_Start_IT+0x38>
 800420a:	46c0      	nop			@ (mov r8, r8)
 800420c:	40012c00 	.word	0x40012c00
 8004210:	40000400 	.word	0x40000400
 8004214:	00010007 	.word	0x00010007

08004218 <HAL_TIM_OC_Init>:
{
 8004218:	b570      	push	{r4, r5, r6, lr}
 800421a:	1e04      	subs	r4, r0, #0
  if (htim == NULL)
 800421c:	d100      	bne.n	8004220 <HAL_TIM_OC_Init+0x8>
 800421e:	e093      	b.n	8004348 <HAL_TIM_OC_Init+0x130>
  if (htim->State == HAL_TIM_STATE_RESET)
 8004220:	233d      	movs	r3, #61	@ 0x3d
 8004222:	5cc3      	ldrb	r3, [r0, r3]
 8004224:	b2da      	uxtb	r2, r3
 8004226:	2b00      	cmp	r3, #0
 8004228:	d130      	bne.n	800428c <HAL_TIM_OC_Init+0x74>
    htim->Lock = HAL_UNLOCKED;
 800422a:	333c      	adds	r3, #60	@ 0x3c
 800422c:	54c2      	strb	r2, [r0, r3]
  htim->PeriodElapsedCallback             = HAL_TIM_PeriodElapsedCallback;
 800422e:	2284      	movs	r2, #132	@ 0x84
 8004230:	4b48      	ldr	r3, [pc, #288]	@ (8004354 <HAL_TIM_OC_Init+0x13c>)
 8004232:	5083      	str	r3, [r0, r2]
  htim->PeriodElapsedHalfCpltCallback     = HAL_TIM_PeriodElapsedHalfCpltCallback;
 8004234:	4b48      	ldr	r3, [pc, #288]	@ (8004358 <HAL_TIM_OC_Init+0x140>)
 8004236:	3204      	adds	r2, #4
 8004238:	5083      	str	r3, [r0, r2]
  htim->TriggerCallback                   = HAL_TIM_TriggerCallback;
 800423a:	4b48      	ldr	r3, [pc, #288]	@ (800435c <HAL_TIM_OC_Init+0x144>)
 800423c:	3204      	adds	r2, #4
 800423e:	5083      	str	r3, [r0, r2]
  htim->TriggerHalfCpltCallback           = HAL_TIM_TriggerHalfCpltCallback;
 8004240:	4b47      	ldr	r3, [pc, #284]	@ (8004360 <HAL_TIM_OC_Init+0x148>)
 8004242:	3204      	adds	r2, #4
 8004244:	5083      	str	r3, [r0, r2]
  htim->IC_CaptureCallback                = HAL_TIM_IC_CaptureCallback;
 8004246:	4b47      	ldr	r3, [pc, #284]	@ (8004364 <HAL_TIM_OC_Init+0x14c>)
 8004248:	3204      	adds	r2, #4
 800424a:	5083      	str	r3, [r0, r2]
  htim->IC_CaptureHalfCpltCallback        = HAL_TIM_IC_CaptureHalfCpltCallback;
 800424c:	4b46      	ldr	r3, [pc, #280]	@ (8004368 <HAL_TIM_OC_Init+0x150>)
 800424e:	3204      	adds	r2, #4
 8004250:	5083      	str	r3, [r0, r2]
  htim->OC_DelayElapsedCallback           = HAL_TIM_OC_DelayElapsedCallback;
 8004252:	4b46      	ldr	r3, [pc, #280]	@ (800436c <HAL_TIM_OC_Init+0x154>)
 8004254:	3204      	adds	r2, #4
 8004256:	5083      	str	r3, [r0, r2]
  htim->PWM_PulseFinishedCallback         = HAL_TIM_PWM_PulseFinishedCallback;
 8004258:	4b45      	ldr	r3, [pc, #276]	@ (8004370 <HAL_TIM_OC_Init+0x158>)
 800425a:	3204      	adds	r2, #4
 800425c:	5083      	str	r3, [r0, r2]
  htim->PWM_PulseFinishedHalfCpltCallback = HAL_TIM_PWM_PulseFinishedHalfCpltCallback;
 800425e:	4b45      	ldr	r3, [pc, #276]	@ (8004374 <HAL_TIM_OC_Init+0x15c>)
 8004260:	3204      	adds	r2, #4
 8004262:	5083      	str	r3, [r0, r2]
  htim->ErrorCallback                     = HAL_TIM_ErrorCallback;
 8004264:	4b44      	ldr	r3, [pc, #272]	@ (8004378 <HAL_TIM_OC_Init+0x160>)
 8004266:	3204      	adds	r2, #4
 8004268:	5083      	str	r3, [r0, r2]
  htim->CommutationCallback               = HAL_TIMEx_CommutCallback;
 800426a:	4b44      	ldr	r3, [pc, #272]	@ (800437c <HAL_TIM_OC_Init+0x164>)
 800426c:	3204      	adds	r2, #4
 800426e:	5083      	str	r3, [r0, r2]
  htim->CommutationHalfCpltCallback       = HAL_TIMEx_CommutHalfCpltCallback;
 8004270:	4b43      	ldr	r3, [pc, #268]	@ (8004380 <HAL_TIM_OC_Init+0x168>)
 8004272:	3204      	adds	r2, #4
 8004274:	5083      	str	r3, [r0, r2]
  htim->BreakCallback                     = HAL_TIMEx_BreakCallback;
 8004276:	4b43      	ldr	r3, [pc, #268]	@ (8004384 <HAL_TIM_OC_Init+0x16c>)
 8004278:	3204      	adds	r2, #4
 800427a:	5083      	str	r3, [r0, r2]
  htim->Break2Callback                    = HAL_TIMEx_Break2Callback;
 800427c:	4b42      	ldr	r3, [pc, #264]	@ (8004388 <HAL_TIM_OC_Init+0x170>)
 800427e:	3204      	adds	r2, #4
 8004280:	5083      	str	r3, [r0, r2]
    if (htim->OC_MspInitCallback == NULL)
 8004282:	6dc3      	ldr	r3, [r0, #92]	@ 0x5c
 8004284:	2b00      	cmp	r3, #0
 8004286:	d061      	beq.n	800434c <HAL_TIM_OC_Init+0x134>
    htim->OC_MspInitCallback(htim);
 8004288:	0020      	movs	r0, r4
 800428a:	4798      	blx	r3
  htim->State = HAL_TIM_STATE_BUSY;
 800428c:	233d      	movs	r3, #61	@ 0x3d
 800428e:	2202      	movs	r2, #2
 8004290:	54e2      	strb	r2, [r4, r3]
  TIM_Base_SetConfig(htim->Instance,  &htim->Init);
 8004292:	6823      	ldr	r3, [r4, #0]
  if (IS_TIM_COUNTER_MODE_SELECT_INSTANCE(TIMx))
 8004294:	4e3d      	ldr	r6, [pc, #244]	@ (800438c <HAL_TIM_OC_Init+0x174>)
  tmpcr1 = TIMx->CR1;
 8004296:	681a      	ldr	r2, [r3, #0]
  MODIFY_REG(tmpcr1, TIM_CR1_ARPE, Structure->AutoReloadPreload);
 8004298:	69a5      	ldr	r5, [r4, #24]
  TIMx->PSC = Structure->Prescaler;
 800429a:	6861      	ldr	r1, [r4, #4]
  TIMx->ARR = (uint32_t)Structure->Period ;
 800429c:	68e0      	ldr	r0, [r4, #12]
  if (IS_TIM_COUNTER_MODE_SELECT_INSTANCE(TIMx))
 800429e:	42b3      	cmp	r3, r6
 80042a0:	d041      	beq.n	8004326 <HAL_TIM_OC_Init+0x10e>
 80042a2:	2680      	movs	r6, #128	@ 0x80
 80042a4:	05f6      	lsls	r6, r6, #23
 80042a6:	42b3      	cmp	r3, r6
 80042a8:	d034      	beq.n	8004314 <HAL_TIM_OC_Init+0xfc>
 80042aa:	4e39      	ldr	r6, [pc, #228]	@ (8004390 <HAL_TIM_OC_Init+0x178>)
 80042ac:	42b3      	cmp	r3, r6
 80042ae:	d031      	beq.n	8004314 <HAL_TIM_OC_Init+0xfc>
  if (IS_TIM_CLOCK_DIVISION_INSTANCE(TIMx))
 80042b0:	4e38      	ldr	r6, [pc, #224]	@ (8004394 <HAL_TIM_OC_Init+0x17c>)
 80042b2:	42b3      	cmp	r3, r6
 80042b4:	d032      	beq.n	800431c <HAL_TIM_OC_Init+0x104>
 80042b6:	4e38      	ldr	r6, [pc, #224]	@ (8004398 <HAL_TIM_OC_Init+0x180>)
 80042b8:	42b3      	cmp	r3, r6
 80042ba:	d038      	beq.n	800432e <HAL_TIM_OC_Init+0x116>
 80042bc:	4e37      	ldr	r6, [pc, #220]	@ (800439c <HAL_TIM_OC_Init+0x184>)
 80042be:	42b3      	cmp	r3, r6
 80042c0:	d035      	beq.n	800432e <HAL_TIM_OC_Init+0x116>
  MODIFY_REG(tmpcr1, TIM_CR1_ARPE, Structure->AutoReloadPreload);
 80042c2:	2680      	movs	r6, #128	@ 0x80
 80042c4:	43b2      	bics	r2, r6
 80042c6:	432a      	orrs	r2, r5
  TIMx->CR1 = tmpcr1;
 80042c8:	601a      	str	r2, [r3, #0]
  TIMx->ARR = (uint32_t)Structure->Period ;
 80042ca:	62d8      	str	r0, [r3, #44]	@ 0x2c
  TIMx->PSC = Structure->Prescaler;
 80042cc:	6299      	str	r1, [r3, #40]	@ 0x28
  TIMx->EGR = TIM_EGR_UG;
 80042ce:	2201      	movs	r2, #1
 80042d0:	615a      	str	r2, [r3, #20]
  if (HAL_IS_BIT_SET(TIMx->SR, TIM_FLAG_UPDATE))
 80042d2:	6919      	ldr	r1, [r3, #16]
 80042d4:	420a      	tst	r2, r1
 80042d6:	d002      	beq.n	80042de <HAL_TIM_OC_Init+0xc6>
    CLEAR_BIT(TIMx->SR, TIM_FLAG_UPDATE);
 80042d8:	6919      	ldr	r1, [r3, #16]
 80042da:	4391      	bics	r1, r2
 80042dc:	6119      	str	r1, [r3, #16]
  htim->DMABurstState = HAL_DMA_BURST_STATE_READY;
 80042de:	2301      	movs	r3, #1
 80042e0:	2248      	movs	r2, #72	@ 0x48
  return HAL_OK;
 80042e2:	2000      	movs	r0, #0
  htim->DMABurstState = HAL_DMA_BURST_STATE_READY;
 80042e4:	54a3      	strb	r3, [r4, r2]
  TIM_CHANNEL_STATE_SET_ALL(htim, HAL_TIM_CHANNEL_STATE_READY);
 80042e6:	3a0a      	subs	r2, #10
 80042e8:	54a3      	strb	r3, [r4, r2]
 80042ea:	3201      	adds	r2, #1
 80042ec:	54a3      	strb	r3, [r4, r2]
 80042ee:	3201      	adds	r2, #1
 80042f0:	54a3      	strb	r3, [r4, r2]
 80042f2:	3201      	adds	r2, #1
 80042f4:	54a3      	strb	r3, [r4, r2]
 80042f6:	3201      	adds	r2, #1
 80042f8:	54a3      	strb	r3, [r4, r2]
 80042fa:	3201      	adds	r2, #1
 80042fc:	54a3      	strb	r3, [r4, r2]
  TIM_CHANNEL_N_STATE_SET_ALL(htim, HAL_TIM_CHANNEL_STATE_READY);
 80042fe:	3201      	adds	r2, #1
 8004300:	54a3      	strb	r3, [r4, r2]
 8004302:	3201      	adds	r2, #1
 8004304:	54a3      	strb	r3, [r4, r2]
 8004306:	3201      	adds	r2, #1
 8004308:	54a3      	strb	r3, [r4, r2]
 800430a:	3201      	adds	r2, #1
 800430c:	54a3      	strb	r3, [r4, r2]
  htim->State = HAL_TIM_STATE_READY;
 800430e:	3a0a      	subs	r2, #10
 8004310:	54a3      	strb	r3, [r4, r2]
}
 8004312:	bd70      	pop	{r4, r5, r6, pc}
    tmpcr1 &= ~(TIM_CR1_DIR | TIM_CR1_CMS);
 8004314:	2670      	movs	r6, #112	@ 0x70
 8004316:	43b2      	bics	r2, r6
    tmpcr1 |= Structure->CounterMode;
 8004318:	68a6      	ldr	r6, [r4, #8]
 800431a:	4332      	orrs	r2, r6
    tmpcr1 &= ~TIM_CR1_CKD;
 800431c:	4e20      	ldr	r6, [pc, #128]	@ (80043a0 <HAL_TIM_OC_Init+0x188>)
 800431e:	4032      	ands	r2, r6
    tmpcr1 |= (uint32_t)Structure->ClockDivision;
 8004320:	6926      	ldr	r6, [r4, #16]
 8004322:	4332      	orrs	r2, r6
 8004324:	e7cd      	b.n	80042c2 <HAL_TIM_OC_Init+0xaa>
    tmpcr1 &= ~(TIM_CR1_DIR | TIM_CR1_CMS);
 8004326:	2670      	movs	r6, #112	@ 0x70
 8004328:	43b2      	bics	r2, r6
    tmpcr1 |= Structure->CounterMode;
 800432a:	68a6      	ldr	r6, [r4, #8]
 800432c:	4332      	orrs	r2, r6
    tmpcr1 &= ~TIM_CR1_CKD;
 800432e:	4e1c      	ldr	r6, [pc, #112]	@ (80043a0 <HAL_TIM_OC_Init+0x188>)
 8004330:	4032      	ands	r2, r6
    tmpcr1 |= (uint32_t)Structure->ClockDivision;
 8004332:	6926      	ldr	r6, [r4, #16]
 8004334:	4332      	orrs	r2, r6
  MODIFY_REG(tmpcr1, TIM_CR1_ARPE, Structure->AutoReloadPreload);
 8004336:	2680      	movs	r6, #128	@ 0x80
 8004338:	43b2      	bics	r2, r6
 800433a:	432a      	orrs	r2, r5
  TIMx->CR1 = tmpcr1;
 800433c:	601a      	str	r2, [r3, #0]
  TIMx->ARR = (uint32_t)Structure->Period ;
 800433e:	62d8      	str	r0, [r3, #44]	@ 0x2c
  TIMx->PSC = Structure->Prescaler;
 8004340:	6299      	str	r1, [r3, #40]	@ 0x28
    TIMx->RCR = Structure->RepetitionCounter;
 8004342:	6962      	ldr	r2, [r4, #20]
 8004344:	631a      	str	r2, [r3, #48]	@ 0x30
 8004346:	e7c2      	b.n	80042ce <HAL_TIM_OC_Init+0xb6>
    return HAL_ERROR;
 8004348:	2001      	movs	r0, #1
 800434a:	e7e2      	b.n	8004312 <HAL_TIM_OC_Init+0xfa>
      htim->OC_MspInitCallback = HAL_TIM_OC_MspInit;
 800434c:	4b15      	ldr	r3, [pc, #84]	@ (80043a4 <HAL_TIM_OC_Init+0x18c>)
 800434e:	65c3      	str	r3, [r0, #92]	@ 0x5c
 8004350:	e79a      	b.n	8004288 <HAL_TIM_OC_Init+0x70>
 8004352:	46c0      	nop			@ (mov r8, r8)
 8004354:	08003fa1 	.word	0x08003fa1
 8004358:	08003fa5 	.word	0x08003fa5
 800435c:	08003fbd 	.word	0x08003fbd
 8004360:	08003fc1 	.word	0x08003fc1
 8004364:	08003fad 	.word	0x08003fad
 8004368:	08003fb1 	.word	0x08003fb1
 800436c:	08003fa9 	.word	0x08003fa9
 8004370:	08003fb5 	.word	0x08003fb5
 8004374:	08003fb9 	.word	0x08003fb9
 8004378:	08003fc5 	.word	0x08003fc5
 800437c:	08005835 	.word	0x08005835
 8004380:	08005839 	.word	0x08005839
 8004384:	0800583d 	.word	0x0800583d
 8004388:	08005841 	.word	0x08005841
 800438c:	40012c00 	.word	0x40012c00
 8004390:	40000400 	.word	0x40000400
 8004394:	40002000 	.word	0x40002000
 8004398:	40014400 	.word	0x40014400
 800439c:	40014800 	.word	0x40014800
 80043a0:	fffffcff 	.word	0xfffffcff
 80043a4:	08003f95 	.word	0x08003f95

080043a8 <HAL_TIM_OC_Start_IT>:
{
 80043a8:	b510      	push	{r4, lr}
 80043aa:	2910      	cmp	r1, #16
 80043ac:	d803      	bhi.n	80043b6 <HAL_TIM_OC_Start_IT+0xe>
 80043ae:	4a39      	ldr	r2, [pc, #228]	@ (8004494 <HAL_TIM_OC_Start_IT+0xec>)
 80043b0:	008b      	lsls	r3, r1, #2
 80043b2:	58d3      	ldr	r3, [r2, r3]
 80043b4:	469f      	mov	pc, r3
  if (TIM_CHANNEL_STATE_GET(htim, Channel) != HAL_TIM_CHANNEL_STATE_READY)
 80043b6:	2343      	movs	r3, #67	@ 0x43
 80043b8:	5cc2      	ldrb	r2, [r0, r3]
 80043ba:	2a01      	cmp	r2, #1
 80043bc:	d101      	bne.n	80043c2 <HAL_TIM_OC_Start_IT+0x1a>
  TIM_CHANNEL_STATE_SET(htim, Channel, HAL_TIM_CHANNEL_STATE_BUSY);
 80043be:	2202      	movs	r2, #2
 80043c0:	54c2      	strb	r2, [r0, r3]
    return HAL_ERROR;
 80043c2:	2001      	movs	r0, #1
}
 80043c4:	bd10      	pop	{r4, pc}
  if (TIM_CHANNEL_STATE_GET(htim, Channel) != HAL_TIM_CHANNEL_STATE_READY)
 80043c6:	233e      	movs	r3, #62	@ 0x3e
 80043c8:	5cc2      	ldrb	r2, [r0, r3]
 80043ca:	2a01      	cmp	r2, #1
 80043cc:	d1f9      	bne.n	80043c2 <HAL_TIM_OC_Start_IT+0x1a>
  TIM_CHANNEL_STATE_SET(htim, Channel, HAL_TIM_CHANNEL_STATE_BUSY);
 80043ce:	2402      	movs	r4, #2
 80043d0:	54c4      	strb	r4, [r0, r3]
      __HAL_TIM_ENABLE_IT(htim, TIM_IT_CC1);
 80043d2:	6803      	ldr	r3, [r0, #0]
 80043d4:	68da      	ldr	r2, [r3, #12]
 80043d6:	4322      	orrs	r2, r4
 80043d8:	60da      	str	r2, [r3, #12]
  tmp = TIM_CCER_CC1E << (Channel & 0x1FU); /* 0x1FU = 31 bits max shift */
 80043da:	221f      	movs	r2, #31
 80043dc:	4011      	ands	r1, r2
 80043de:	3a1e      	subs	r2, #30
 80043e0:	408a      	lsls	r2, r1
  TIMx->CCER &= ~tmp;
 80043e2:	6a19      	ldr	r1, [r3, #32]
 80043e4:	4391      	bics	r1, r2
 80043e6:	6219      	str	r1, [r3, #32]
  TIMx->CCER |= (uint32_t)(ChannelState << (Channel & 0x1FU)); /* 0x1FU = 31 bits max shift */
 80043e8:	6a19      	ldr	r1, [r3, #32]
 80043ea:	430a      	orrs	r2, r1
 80043ec:	621a      	str	r2, [r3, #32]
    if (IS_TIM_BREAK_INSTANCE(htim->Instance) != RESET)
 80043ee:	4a2a      	ldr	r2, [pc, #168]	@ (8004498 <HAL_TIM_OC_Start_IT+0xf0>)
 80043f0:	4293      	cmp	r3, r2
 80043f2:	d049      	beq.n	8004488 <HAL_TIM_OC_Start_IT+0xe0>
 80043f4:	4a29      	ldr	r2, [pc, #164]	@ (800449c <HAL_TIM_OC_Start_IT+0xf4>)
 80043f6:	4293      	cmp	r3, r2
 80043f8:	d040      	beq.n	800447c <HAL_TIM_OC_Start_IT+0xd4>
 80043fa:	4a29      	ldr	r2, [pc, #164]	@ (80044a0 <HAL_TIM_OC_Start_IT+0xf8>)
 80043fc:	4293      	cmp	r3, r2
 80043fe:	d03d      	beq.n	800447c <HAL_TIM_OC_Start_IT+0xd4>
    if (IS_TIM_SLAVE_INSTANCE(htim->Instance))
 8004400:	2280      	movs	r2, #128	@ 0x80
 8004402:	05d2      	lsls	r2, r2, #23
 8004404:	4293      	cmp	r3, r2
 8004406:	d002      	beq.n	800440e <HAL_TIM_OC_Start_IT+0x66>
 8004408:	4a26      	ldr	r2, [pc, #152]	@ (80044a4 <HAL_TIM_OC_Start_IT+0xfc>)
 800440a:	4293      	cmp	r3, r2
 800440c:	d107      	bne.n	800441e <HAL_TIM_OC_Start_IT+0x76>
      tmpsmcr = htim->Instance->SMCR & TIM_SMCR_SMS;
 800440e:	689a      	ldr	r2, [r3, #8]
 8004410:	4925      	ldr	r1, [pc, #148]	@ (80044a8 <HAL_TIM_OC_Start_IT+0x100>)
 8004412:	400a      	ands	r2, r1
      if (!IS_TIM_SLAVEMODE_TRIGGER_ENABLED(tmpsmcr))
 8004414:	2a06      	cmp	r2, #6
 8004416:	d006      	beq.n	8004426 <HAL_TIM_OC_Start_IT+0x7e>
 8004418:	3907      	subs	r1, #7
 800441a:	428a      	cmp	r2, r1
 800441c:	d003      	beq.n	8004426 <HAL_TIM_OC_Start_IT+0x7e>
        __HAL_TIM_ENABLE(htim);
 800441e:	2101      	movs	r1, #1
 8004420:	681a      	ldr	r2, [r3, #0]
 8004422:	430a      	orrs	r2, r1
 8004424:	601a      	str	r2, [r3, #0]
    return HAL_ERROR;
 8004426:	2000      	movs	r0, #0
 8004428:	e7cc      	b.n	80043c4 <HAL_TIM_OC_Start_IT+0x1c>
  if (TIM_CHANNEL_STATE_GET(htim, Channel) != HAL_TIM_CHANNEL_STATE_READY)
 800442a:	233f      	movs	r3, #63	@ 0x3f
 800442c:	5cc2      	ldrb	r2, [r0, r3]
 800442e:	2a01      	cmp	r2, #1
 8004430:	d1c7      	bne.n	80043c2 <HAL_TIM_OC_Start_IT+0x1a>
  TIM_CHANNEL_STATE_SET(htim, Channel, HAL_TIM_CHANNEL_STATE_BUSY);
 8004432:	2202      	movs	r2, #2
 8004434:	54c2      	strb	r2, [r0, r3]
      __HAL_TIM_ENABLE_IT(htim, TIM_IT_CC2);
 8004436:	6803      	ldr	r3, [r0, #0]
 8004438:	2004      	movs	r0, #4
 800443a:	68da      	ldr	r2, [r3, #12]
 800443c:	4302      	orrs	r2, r0
 800443e:	60da      	str	r2, [r3, #12]
  if (status == HAL_OK)
 8004440:	e7cb      	b.n	80043da <HAL_TIM_OC_Start_IT+0x32>
  if (TIM_CHANNEL_STATE_GET(htim, Channel) != HAL_TIM_CHANNEL_STATE_READY)
 8004442:	2340      	movs	r3, #64	@ 0x40
 8004444:	5cc2      	ldrb	r2, [r0, r3]
 8004446:	2a01      	cmp	r2, #1
 8004448:	d1bb      	bne.n	80043c2 <HAL_TIM_OC_Start_IT+0x1a>
  TIM_CHANNEL_STATE_SET(htim, Channel, HAL_TIM_CHANNEL_STATE_BUSY);
 800444a:	2202      	movs	r2, #2
 800444c:	54c2      	strb	r2, [r0, r3]
      __HAL_TIM_ENABLE_IT(htim, TIM_IT_CC3);
 800444e:	6803      	ldr	r3, [r0, #0]
 8004450:	2008      	movs	r0, #8
 8004452:	68da      	ldr	r2, [r3, #12]
 8004454:	4302      	orrs	r2, r0
 8004456:	60da      	str	r2, [r3, #12]
  if (status == HAL_OK)
 8004458:	e7bf      	b.n	80043da <HAL_TIM_OC_Start_IT+0x32>
  if (TIM_CHANNEL_STATE_GET(htim, Channel) != HAL_TIM_CHANNEL_STATE_READY)
 800445a:	2341      	movs	r3, #65	@ 0x41
 800445c:	5cc2      	ldrb	r2, [r0, r3]
 800445e:	2a01      	cmp	r2, #1
 8004460:	d1af      	bne.n	80043c2 <HAL_TIM_OC_Start_IT+0x1a>
  TIM_CHANNEL_STATE_SET(htim, Channel, HAL_TIM_CHANNEL_STATE_BUSY);
 8004462:	2202      	movs	r2, #2
 8004464:	54c2      	strb	r2, [r0, r3]
      __HAL_TIM_ENABLE_IT(htim, TIM_IT_CC4);
 8004466:	6803      	ldr	r3, [r0, #0]
 8004468:	2010      	movs	r0, #16
 800446a:	68da      	ldr	r2, [r3, #12]
 800446c:	4302      	orrs	r2, r0
 800446e:	60da      	str	r2, [r3, #12]
  if (status == HAL_OK)
 8004470:	e7b3      	b.n	80043da <HAL_TIM_OC_Start_IT+0x32>
  if (TIM_CHANNEL_STATE_GET(htim, Channel) != HAL_TIM_CHANNEL_STATE_READY)
 8004472:	2342      	movs	r3, #66	@ 0x42
 8004474:	5cc2      	ldrb	r2, [r0, r3]
 8004476:	2a01      	cmp	r2, #1
 8004478:	d0a1      	beq.n	80043be <HAL_TIM_OC_Start_IT+0x16>
 800447a:	e7a2      	b.n	80043c2 <HAL_TIM_OC_Start_IT+0x1a>
      __HAL_TIM_MOE_ENABLE(htim);
 800447c:	2280      	movs	r2, #128	@ 0x80
 800447e:	6c59      	ldr	r1, [r3, #68]	@ 0x44
 8004480:	0212      	lsls	r2, r2, #8
 8004482:	430a      	orrs	r2, r1
 8004484:	645a      	str	r2, [r3, #68]	@ 0x44
    if (IS_TIM_SLAVE_INSTANCE(htim->Instance))
 8004486:	e7ca      	b.n	800441e <HAL_TIM_OC_Start_IT+0x76>
      __HAL_TIM_MOE_ENABLE(htim);
 8004488:	2280      	movs	r2, #128	@ 0x80
 800448a:	6c59      	ldr	r1, [r3, #68]	@ 0x44
 800448c:	0212      	lsls	r2, r2, #8
 800448e:	430a      	orrs	r2, r1
 8004490:	645a      	str	r2, [r3, #68]	@ 0x44
    if (IS_TIM_SLAVE_INSTANCE(htim->Instance))
 8004492:	e7bc      	b.n	800440e <HAL_TIM_OC_Start_IT+0x66>
 8004494:	08006f74 	.word	0x08006f74
 8004498:	40012c00 	.word	0x40012c00
 800449c:	40014400 	.word	0x40014400
 80044a0:	40014800 	.word	0x40014800
 80044a4:	40000400 	.word	0x40000400
 80044a8:	00010007 	.word	0x00010007

080044ac <HAL_TIM_OC_Stop_IT>:
{
 80044ac:	b530      	push	{r4, r5, lr}
  switch (Channel)
 80044ae:	2908      	cmp	r1, #8
 80044b0:	d004      	beq.n	80044bc <HAL_TIM_OC_Stop_IT+0x10>
 80044b2:	d845      	bhi.n	8004540 <HAL_TIM_OC_Stop_IT+0x94>
 80044b4:	2900      	cmp	r1, #0
 80044b6:	d052      	beq.n	800455e <HAL_TIM_OC_Stop_IT+0xb2>
 80044b8:	2904      	cmp	r1, #4
 80044ba:	d14e      	bne.n	800455a <HAL_TIM_OC_Stop_IT+0xae>
      __HAL_TIM_DISABLE_IT(htim, TIM_IT_CC3);
 80044bc:	6805      	ldr	r5, [r0, #0]
 80044be:	68eb      	ldr	r3, [r5, #12]
 80044c0:	438b      	bics	r3, r1
 80044c2:	60eb      	str	r3, [r5, #12]
  tmp = TIM_CCER_CC1E << (Channel & 0x1FU); /* 0x1FU = 31 bits max shift */
 80044c4:	241f      	movs	r4, #31
 80044c6:	2201      	movs	r2, #1
 80044c8:	400c      	ands	r4, r1
 80044ca:	40a2      	lsls	r2, r4
  TIMx->CCER &= ~tmp;
 80044cc:	6a2b      	ldr	r3, [r5, #32]
 80044ce:	4393      	bics	r3, r2
 80044d0:	622b      	str	r3, [r5, #32]
  TIMx->CCER |= (uint32_t)(ChannelState << (Channel & 0x1FU)); /* 0x1FU = 31 bits max shift */
 80044d2:	6a2b      	ldr	r3, [r5, #32]
 80044d4:	622b      	str	r3, [r5, #32]
    if (IS_TIM_BREAK_INSTANCE(htim->Instance) != RESET)
 80044d6:	4b2f      	ldr	r3, [pc, #188]	@ (8004594 <HAL_TIM_OC_Stop_IT+0xe8>)
 80044d8:	429d      	cmp	r5, r3
 80044da:	d020      	beq.n	800451e <HAL_TIM_OC_Stop_IT+0x72>
 80044dc:	4b2e      	ldr	r3, [pc, #184]	@ (8004598 <HAL_TIM_OC_Stop_IT+0xec>)
 80044de:	429d      	cmp	r5, r3
 80044e0:	d01d      	beq.n	800451e <HAL_TIM_OC_Stop_IT+0x72>
 80044e2:	4b2e      	ldr	r3, [pc, #184]	@ (800459c <HAL_TIM_OC_Stop_IT+0xf0>)
 80044e4:	429d      	cmp	r5, r3
 80044e6:	d01a      	beq.n	800451e <HAL_TIM_OC_Stop_IT+0x72>
    __HAL_TIM_DISABLE(htim);
 80044e8:	6a2a      	ldr	r2, [r5, #32]
 80044ea:	4b2d      	ldr	r3, [pc, #180]	@ (80045a0 <HAL_TIM_OC_Stop_IT+0xf4>)
 80044ec:	421a      	tst	r2, r3
 80044ee:	d107      	bne.n	8004500 <HAL_TIM_OC_Stop_IT+0x54>
 80044f0:	6a2a      	ldr	r2, [r5, #32]
 80044f2:	4b2c      	ldr	r3, [pc, #176]	@ (80045a4 <HAL_TIM_OC_Stop_IT+0xf8>)
 80044f4:	421a      	tst	r2, r3
 80044f6:	d103      	bne.n	8004500 <HAL_TIM_OC_Stop_IT+0x54>
 80044f8:	2201      	movs	r2, #1
 80044fa:	682b      	ldr	r3, [r5, #0]
 80044fc:	4393      	bics	r3, r2
 80044fe:	602b      	str	r3, [r5, #0]
    TIM_CHANNEL_STATE_SET(htim, Channel, HAL_TIM_CHANNEL_STATE_READY);
 8004500:	2900      	cmp	r1, #0
 8004502:	d025      	beq.n	8004550 <HAL_TIM_OC_Stop_IT+0xa4>
 8004504:	2904      	cmp	r1, #4
 8004506:	d035      	beq.n	8004574 <HAL_TIM_OC_Stop_IT+0xc8>
 8004508:	2908      	cmp	r1, #8
 800450a:	d02e      	beq.n	800456a <HAL_TIM_OC_Stop_IT+0xbe>
 800450c:	290c      	cmp	r1, #12
 800450e:	d036      	beq.n	800457e <HAL_TIM_OC_Stop_IT+0xd2>
 8004510:	2910      	cmp	r1, #16
 8004512:	d039      	beq.n	8004588 <HAL_TIM_OC_Stop_IT+0xdc>
 8004514:	2343      	movs	r3, #67	@ 0x43
 8004516:	2201      	movs	r2, #1
 8004518:	54c2      	strb	r2, [r0, r3]
  switch (Channel)
 800451a:	2000      	movs	r0, #0
 800451c:	e01e      	b.n	800455c <HAL_TIM_OC_Stop_IT+0xb0>
      __HAL_TIM_MOE_DISABLE(htim);
 800451e:	6a2a      	ldr	r2, [r5, #32]
 8004520:	4b1f      	ldr	r3, [pc, #124]	@ (80045a0 <HAL_TIM_OC_Stop_IT+0xf4>)
 8004522:	421a      	tst	r2, r3
 8004524:	d1e0      	bne.n	80044e8 <HAL_TIM_OC_Stop_IT+0x3c>
 8004526:	6a2a      	ldr	r2, [r5, #32]
 8004528:	4b1e      	ldr	r3, [pc, #120]	@ (80045a4 <HAL_TIM_OC_Stop_IT+0xf8>)
 800452a:	421a      	tst	r2, r3
 800452c:	d1dc      	bne.n	80044e8 <HAL_TIM_OC_Stop_IT+0x3c>
 800452e:	6c6b      	ldr	r3, [r5, #68]	@ 0x44
 8004530:	4a1d      	ldr	r2, [pc, #116]	@ (80045a8 <HAL_TIM_OC_Stop_IT+0xfc>)
 8004532:	4013      	ands	r3, r2
 8004534:	646b      	str	r3, [r5, #68]	@ 0x44
    __HAL_TIM_DISABLE(htim);
 8004536:	6a2a      	ldr	r2, [r5, #32]
 8004538:	4b19      	ldr	r3, [pc, #100]	@ (80045a0 <HAL_TIM_OC_Stop_IT+0xf4>)
 800453a:	421a      	tst	r2, r3
 800453c:	d1e0      	bne.n	8004500 <HAL_TIM_OC_Stop_IT+0x54>
 800453e:	e7d7      	b.n	80044f0 <HAL_TIM_OC_Stop_IT+0x44>
  switch (Channel)
 8004540:	290c      	cmp	r1, #12
 8004542:	d10a      	bne.n	800455a <HAL_TIM_OC_Stop_IT+0xae>
      __HAL_TIM_DISABLE_IT(htim, TIM_IT_CC4);
 8004544:	2210      	movs	r2, #16
 8004546:	6805      	ldr	r5, [r0, #0]
 8004548:	68eb      	ldr	r3, [r5, #12]
 800454a:	4393      	bics	r3, r2
 800454c:	60eb      	str	r3, [r5, #12]
  if (status == HAL_OK)
 800454e:	e7b9      	b.n	80044c4 <HAL_TIM_OC_Stop_IT+0x18>
    TIM_CHANNEL_STATE_SET(htim, Channel, HAL_TIM_CHANNEL_STATE_READY);
 8004550:	233e      	movs	r3, #62	@ 0x3e
 8004552:	2201      	movs	r2, #1
 8004554:	54c2      	strb	r2, [r0, r3]
  switch (Channel)
 8004556:	2000      	movs	r0, #0
 8004558:	e000      	b.n	800455c <HAL_TIM_OC_Stop_IT+0xb0>
 800455a:	2001      	movs	r0, #1
}
 800455c:	bd30      	pop	{r4, r5, pc}
      __HAL_TIM_DISABLE_IT(htim, TIM_IT_CC1);
 800455e:	2202      	movs	r2, #2
 8004560:	6805      	ldr	r5, [r0, #0]
 8004562:	68eb      	ldr	r3, [r5, #12]
 8004564:	4393      	bics	r3, r2
 8004566:	60eb      	str	r3, [r5, #12]
  if (status == HAL_OK)
 8004568:	e7ac      	b.n	80044c4 <HAL_TIM_OC_Stop_IT+0x18>
    TIM_CHANNEL_STATE_SET(htim, Channel, HAL_TIM_CHANNEL_STATE_READY);
 800456a:	2340      	movs	r3, #64	@ 0x40
 800456c:	2201      	movs	r2, #1
 800456e:	54c2      	strb	r2, [r0, r3]
  switch (Channel)
 8004570:	2000      	movs	r0, #0
 8004572:	e7f3      	b.n	800455c <HAL_TIM_OC_Stop_IT+0xb0>
    TIM_CHANNEL_STATE_SET(htim, Channel, HAL_TIM_CHANNEL_STATE_READY);
 8004574:	233f      	movs	r3, #63	@ 0x3f
 8004576:	2201      	movs	r2, #1
 8004578:	54c2      	strb	r2, [r0, r3]
  switch (Channel)
 800457a:	2000      	movs	r0, #0
 800457c:	e7ee      	b.n	800455c <HAL_TIM_OC_Stop_IT+0xb0>
    TIM_CHANNEL_STATE_SET(htim, Channel, HAL_TIM_CHANNEL_STATE_READY);
 800457e:	2341      	movs	r3, #65	@ 0x41
 8004580:	2201      	movs	r2, #1
 8004582:	54c2      	strb	r2, [r0, r3]
  switch (Channel)
 8004584:	2000      	movs	r0, #0
 8004586:	e7e9      	b.n	800455c <HAL_TIM_OC_Stop_IT+0xb0>
    TIM_CHANNEL_STATE_SET(htim, Channel, HAL_TIM_CHANNEL_STATE_READY);
 8004588:	2342      	movs	r3, #66	@ 0x42
 800458a:	2201      	movs	r2, #1
 800458c:	54c2      	strb	r2, [r0, r3]
  switch (Channel)
 800458e:	2000      	movs	r0, #0
 8004590:	e7e4      	b.n	800455c <HAL_TIM_OC_Stop_IT+0xb0>
 8004592:	46c0      	nop			@ (mov r8, r8)
 8004594:	40012c00 	.word	0x40012c00
 8004598:	40014400 	.word	0x40014400
 800459c:	40014800 	.word	0x40014800
 80045a0:	00001111 	.word	0x00001111
 80045a4:	00000444 	.word	0x00000444
 80045a8:	ffff7fff 	.word	0xffff7fff

080045ac <HAL_TIM_PWM_Init>:
{
 80045ac:	b570      	push	{r4, r5, r6, lr}
 80045ae:	1e04      	subs	r4, r0, #0
  if (htim == NULL)
 80045b0:	d100      	bne.n	80045b4 <HAL_TIM_PWM_Init+0x8>
 80045b2:	e093      	b.n	80046dc <HAL_TIM_PWM_Init+0x130>
  if (htim->State == HAL_TIM_STATE_RESET)
 80045b4:	233d      	movs	r3, #61	@ 0x3d
 80045b6:	5cc3      	ldrb	r3, [r0, r3]
 80045b8:	b2da      	uxtb	r2, r3
 80045ba:	2b00      	cmp	r3, #0
 80045bc:	d130      	bne.n	8004620 <HAL_TIM_PWM_Init+0x74>
    htim->Lock = HAL_UNLOCKED;
 80045be:	333c      	adds	r3, #60	@ 0x3c
 80045c0:	54c2      	strb	r2, [r0, r3]
  htim->PeriodElapsedCallback             = HAL_TIM_PeriodElapsedCallback;
 80045c2:	2284      	movs	r2, #132	@ 0x84
 80045c4:	4b48      	ldr	r3, [pc, #288]	@ (80046e8 <HAL_TIM_PWM_Init+0x13c>)
 80045c6:	5083      	str	r3, [r0, r2]
  htim->PeriodElapsedHalfCpltCallback     = HAL_TIM_PeriodElapsedHalfCpltCallback;
 80045c8:	4b48      	ldr	r3, [pc, #288]	@ (80046ec <HAL_TIM_PWM_Init+0x140>)
 80045ca:	3204      	adds	r2, #4
 80045cc:	5083      	str	r3, [r0, r2]
  htim->TriggerCallback                   = HAL_TIM_TriggerCallback;
 80045ce:	4b48      	ldr	r3, [pc, #288]	@ (80046f0 <HAL_TIM_PWM_Init+0x144>)
 80045d0:	3204      	adds	r2, #4
 80045d2:	5083      	str	r3, [r0, r2]
  htim->TriggerHalfCpltCallback           = HAL_TIM_TriggerHalfCpltCallback;
 80045d4:	4b47      	ldr	r3, [pc, #284]	@ (80046f4 <HAL_TIM_PWM_Init+0x148>)
 80045d6:	3204      	adds	r2, #4
 80045d8:	5083      	str	r3, [r0, r2]
  htim->IC_CaptureCallback                = HAL_TIM_IC_CaptureCallback;
 80045da:	4b47      	ldr	r3, [pc, #284]	@ (80046f8 <HAL_TIM_PWM_Init+0x14c>)
 80045dc:	3204      	adds	r2, #4
 80045de:	5083      	str	r3, [r0, r2]
  htim->IC_CaptureHalfCpltCallback        = HAL_TIM_IC_CaptureHalfCpltCallback;
 80045e0:	4b46      	ldr	r3, [pc, #280]	@ (80046fc <HAL_TIM_PWM_Init+0x150>)
 80045e2:	3204      	adds	r2, #4
 80045e4:	5083      	str	r3, [r0, r2]
  htim->OC_DelayElapsedCallback           = HAL_TIM_OC_DelayElapsedCallback;
 80045e6:	4b46      	ldr	r3, [pc, #280]	@ (8004700 <HAL_TIM_PWM_Init+0x154>)
 80045e8:	3204      	adds	r2, #4
 80045ea:	5083      	str	r3, [r0, r2]
  htim->PWM_PulseFinishedCallback         = HAL_TIM_PWM_PulseFinishedCallback;
 80045ec:	4b45      	ldr	r3, [pc, #276]	@ (8004704 <HAL_TIM_PWM_Init+0x158>)
 80045ee:	3204      	adds	r2, #4
 80045f0:	5083      	str	r3, [r0, r2]
  htim->PWM_PulseFinishedHalfCpltCallback = HAL_TIM_PWM_PulseFinishedHalfCpltCallback;
 80045f2:	4b45      	ldr	r3, [pc, #276]	@ (8004708 <HAL_TIM_PWM_Init+0x15c>)
 80045f4:	3204      	adds	r2, #4
 80045f6:	5083      	str	r3, [r0, r2]
  htim->ErrorCallback                     = HAL_TIM_ErrorCallback;
 80045f8:	4b44      	ldr	r3, [pc, #272]	@ (800470c <HAL_TIM_PWM_Init+0x160>)
 80045fa:	3204      	adds	r2, #4
 80045fc:	5083      	str	r3, [r0, r2]
  htim->CommutationCallback               = HAL_TIMEx_CommutCallback;
 80045fe:	4b44      	ldr	r3, [pc, #272]	@ (8004710 <HAL_TIM_PWM_Init+0x164>)
 8004600:	3204      	adds	r2, #4
 8004602:	5083      	str	r3, [r0, r2]
  htim->CommutationHalfCpltCallback       = HAL_TIMEx_CommutHalfCpltCallback;
 8004604:	4b43      	ldr	r3, [pc, #268]	@ (8004714 <HAL_TIM_PWM_Init+0x168>)
 8004606:	3204      	adds	r2, #4
 8004608:	5083      	str	r3, [r0, r2]
  htim->BreakCallback                     = HAL_TIMEx_BreakCallback;
 800460a:	4b43      	ldr	r3, [pc, #268]	@ (8004718 <HAL_TIM_PWM_Init+0x16c>)
 800460c:	3204      	adds	r2, #4
 800460e:	5083      	str	r3, [r0, r2]
  htim->Break2Callback                    = HAL_TIMEx_Break2Callback;
 8004610:	4b42      	ldr	r3, [pc, #264]	@ (800471c <HAL_TIM_PWM_Init+0x170>)
 8004612:	3204      	adds	r2, #4
 8004614:	5083      	str	r3, [r0, r2]
    if (htim->PWM_MspInitCallback == NULL)
 8004616:	6e43      	ldr	r3, [r0, #100]	@ 0x64
 8004618:	2b00      	cmp	r3, #0
 800461a:	d061      	beq.n	80046e0 <HAL_TIM_PWM_Init+0x134>
    htim->PWM_MspInitCallback(htim);
 800461c:	0020      	movs	r0, r4
 800461e:	4798      	blx	r3
  htim->State = HAL_TIM_STATE_BUSY;
 8004620:	233d      	movs	r3, #61	@ 0x3d
 8004622:	2202      	movs	r2, #2
 8004624:	54e2      	strb	r2, [r4, r3]
  TIM_Base_SetConfig(htim->Instance, &htim->Init);
 8004626:	6823      	ldr	r3, [r4, #0]
  if (IS_TIM_COUNTER_MODE_SELECT_INSTANCE(TIMx))
 8004628:	4e3d      	ldr	r6, [pc, #244]	@ (8004720 <HAL_TIM_PWM_Init+0x174>)
  tmpcr1 = TIMx->CR1;
 800462a:	681a      	ldr	r2, [r3, #0]
  MODIFY_REG(tmpcr1, TIM_CR1_ARPE, Structure->AutoReloadPreload);
 800462c:	69a5      	ldr	r5, [r4, #24]
  TIMx->PSC = Structure->Prescaler;
 800462e:	6861      	ldr	r1, [r4, #4]
  TIMx->ARR = (uint32_t)Structure->Period ;
 8004630:	68e0      	ldr	r0, [r4, #12]
  if (IS_TIM_COUNTER_MODE_SELECT_INSTANCE(TIMx))
 8004632:	42b3      	cmp	r3, r6
 8004634:	d041      	beq.n	80046ba <HAL_TIM_PWM_Init+0x10e>
 8004636:	2680      	movs	r6, #128	@ 0x80
 8004638:	05f6      	lsls	r6, r6, #23
 800463a:	42b3      	cmp	r3, r6
 800463c:	d034      	beq.n	80046a8 <HAL_TIM_PWM_Init+0xfc>
 800463e:	4e39      	ldr	r6, [pc, #228]	@ (8004724 <HAL_TIM_PWM_Init+0x178>)
 8004640:	42b3      	cmp	r3, r6
 8004642:	d031      	beq.n	80046a8 <HAL_TIM_PWM_Init+0xfc>
  if (IS_TIM_CLOCK_DIVISION_INSTANCE(TIMx))
 8004644:	4e38      	ldr	r6, [pc, #224]	@ (8004728 <HAL_TIM_PWM_Init+0x17c>)
 8004646:	42b3      	cmp	r3, r6
 8004648:	d032      	beq.n	80046b0 <HAL_TIM_PWM_Init+0x104>
 800464a:	4e38      	ldr	r6, [pc, #224]	@ (800472c <HAL_TIM_PWM_Init+0x180>)
 800464c:	42b3      	cmp	r3, r6
 800464e:	d038      	beq.n	80046c2 <HAL_TIM_PWM_Init+0x116>
 8004650:	4e37      	ldr	r6, [pc, #220]	@ (8004730 <HAL_TIM_PWM_Init+0x184>)
 8004652:	42b3      	cmp	r3, r6
 8004654:	d035      	beq.n	80046c2 <HAL_TIM_PWM_Init+0x116>
  MODIFY_REG(tmpcr1, TIM_CR1_ARPE, Structure->AutoReloadPreload);
 8004656:	2680      	movs	r6, #128	@ 0x80
 8004658:	43b2      	bics	r2, r6
 800465a:	432a      	orrs	r2, r5
  TIMx->CR1 = tmpcr1;
 800465c:	601a      	str	r2, [r3, #0]
  TIMx->ARR = (uint32_t)Structure->Period ;
 800465e:	62d8      	str	r0, [r3, #44]	@ 0x2c
  TIMx->PSC = Structure->Prescaler;
 8004660:	6299      	str	r1, [r3, #40]	@ 0x28
  TIMx->EGR = TIM_EGR_UG;
 8004662:	2201      	movs	r2, #1
 8004664:	615a      	str	r2, [r3, #20]
  if (HAL_IS_BIT_SET(TIMx->SR, TIM_FLAG_UPDATE))
 8004666:	6919      	ldr	r1, [r3, #16]
 8004668:	420a      	tst	r2, r1
 800466a:	d002      	beq.n	8004672 <HAL_TIM_PWM_Init+0xc6>
    CLEAR_BIT(TIMx->SR, TIM_FLAG_UPDATE);
 800466c:	6919      	ldr	r1, [r3, #16]
 800466e:	4391      	bics	r1, r2
 8004670:	6119      	str	r1, [r3, #16]
  htim->DMABurstState = HAL_DMA_BURST_STATE_READY;
 8004672:	2301      	movs	r3, #1
 8004674:	2248      	movs	r2, #72	@ 0x48
  return HAL_OK;
 8004676:	2000      	movs	r0, #0
  htim->DMABurstState = HAL_DMA_BURST_STATE_READY;
 8004678:	54a3      	strb	r3, [r4, r2]
  TIM_CHANNEL_STATE_SET_ALL(htim, HAL_TIM_CHANNEL_STATE_READY);
 800467a:	3a0a      	subs	r2, #10
 800467c:	54a3      	strb	r3, [r4, r2]
 800467e:	3201      	adds	r2, #1
 8004680:	54a3      	strb	r3, [r4, r2]
 8004682:	3201      	adds	r2, #1
 8004684:	54a3      	strb	r3, [r4, r2]
 8004686:	3201      	adds	r2, #1
 8004688:	54a3      	strb	r3, [r4, r2]
 800468a:	3201      	adds	r2, #1
 800468c:	54a3      	strb	r3, [r4, r2]
 800468e:	3201      	adds	r2, #1
 8004690:	54a3      	strb	r3, [r4, r2]
  TIM_CHANNEL_N_STATE_SET_ALL(htim, HAL_TIM_CHANNEL_STATE_READY);
 8004692:	3201      	adds	r2, #1
 8004694:	54a3      	strb	r3, [r4, r2]
 8004696:	3201      	adds	r2, #1
 8004698:	54a3      	strb	r3, [r4, r2]
 800469a:	3201      	adds	r2, #1
 800469c:	54a3      	strb	r3, [r4, r2]
 800469e:	3201      	adds	r2, #1
 80046a0:	54a3      	strb	r3, [r4, r2]
  htim->State = HAL_TIM_STATE_READY;
 80046a2:	3a0a      	subs	r2, #10
 80046a4:	54a3      	strb	r3, [r4, r2]
}
 80046a6:	bd70      	pop	{r4, r5, r6, pc}
    tmpcr1 &= ~(TIM_CR1_DIR | TIM_CR1_CMS);
 80046a8:	2670      	movs	r6, #112	@ 0x70
 80046aa:	43b2      	bics	r2, r6
    tmpcr1 |= Structure->CounterMode;
 80046ac:	68a6      	ldr	r6, [r4, #8]
 80046ae:	4332      	orrs	r2, r6
    tmpcr1 &= ~TIM_CR1_CKD;
 80046b0:	4e20      	ldr	r6, [pc, #128]	@ (8004734 <HAL_TIM_PWM_Init+0x188>)
 80046b2:	4032      	ands	r2, r6
    tmpcr1 |= (uint32_t)Structure->ClockDivision;
 80046b4:	6926      	ldr	r6, [r4, #16]
 80046b6:	4332      	orrs	r2, r6
 80046b8:	e7cd      	b.n	8004656 <HAL_TIM_PWM_Init+0xaa>
    tmpcr1 &= ~(TIM_CR1_DIR | TIM_CR1_CMS);
 80046ba:	2670      	movs	r6, #112	@ 0x70
 80046bc:	43b2      	bics	r2, r6
    tmpcr1 |= Structure->CounterMode;
 80046be:	68a6      	ldr	r6, [r4, #8]
 80046c0:	4332      	orrs	r2, r6
    tmpcr1 &= ~TIM_CR1_CKD;
 80046c2:	4e1c      	ldr	r6, [pc, #112]	@ (8004734 <HAL_TIM_PWM_Init+0x188>)
 80046c4:	4032      	ands	r2, r6
    tmpcr1 |= (uint32_t)Structure->ClockDivision;
 80046c6:	6926      	ldr	r6, [r4, #16]
 80046c8:	4332      	orrs	r2, r6
  MODIFY_REG(tmpcr1, TIM_CR1_ARPE, Structure->AutoReloadPreload);
 80046ca:	2680      	movs	r6, #128	@ 0x80
 80046cc:	43b2      	bics	r2, r6
 80046ce:	432a      	orrs	r2, r5
  TIMx->CR1 = tmpcr1;
 80046d0:	601a      	str	r2, [r3, #0]
  TIMx->ARR = (uint32_t)Structure->Period ;
 80046d2:	62d8      	str	r0, [r3, #44]	@ 0x2c
  TIMx->PSC = Structure->Prescaler;
 80046d4:	6299      	str	r1, [r3, #40]	@ 0x28
    TIMx->RCR = Structure->RepetitionCounter;
 80046d6:	6962      	ldr	r2, [r4, #20]
 80046d8:	631a      	str	r2, [r3, #48]	@ 0x30
 80046da:	e7c2      	b.n	8004662 <HAL_TIM_PWM_Init+0xb6>
    return HAL_ERROR;
 80046dc:	2001      	movs	r0, #1
 80046de:	e7e2      	b.n	80046a6 <HAL_TIM_PWM_Init+0xfa>
      htim->PWM_MspInitCallback = HAL_TIM_PWM_MspInit;
 80046e0:	4b15      	ldr	r3, [pc, #84]	@ (8004738 <HAL_TIM_PWM_Init+0x18c>)
 80046e2:	6643      	str	r3, [r0, #100]	@ 0x64
 80046e4:	e79a      	b.n	800461c <HAL_TIM_PWM_Init+0x70>
 80046e6:	46c0      	nop			@ (mov r8, r8)
 80046e8:	08003fa1 	.word	0x08003fa1
 80046ec:	08003fa5 	.word	0x08003fa5
 80046f0:	08003fbd 	.word	0x08003fbd
 80046f4:	08003fc1 	.word	0x08003fc1
 80046f8:	08003fad 	.word	0x08003fad
 80046fc:	08003fb1 	.word	0x08003fb1
 8004700:	08003fa9 	.word	0x08003fa9
 8004704:	08003fb5 	.word	0x08003fb5
 8004708:	08003fb9 	.word	0x08003fb9
 800470c:	08003fc5 	.word	0x08003fc5
 8004710:	08005835 	.word	0x08005835
 8004714:	08005839 	.word	0x08005839
 8004718:	0800583d 	.word	0x0800583d
 800471c:	08005841 	.word	0x08005841
 8004720:	40012c00 	.word	0x40012c00
 8004724:	40000400 	.word	0x40000400
 8004728:	40002000 	.word	0x40002000
 800472c:	40014400 	.word	0x40014400
 8004730:	40014800 	.word	0x40014800
 8004734:	fffffcff 	.word	0xfffffcff
 8004738:	08003f99 	.word	0x08003f99

0800473c <HAL_TIM_PWM_Start>:
HAL_StatusTypeDef HAL_TIM_PWM_Start(TIM_HandleTypeDef *htim, uint32_t Channel)
 800473c:	2910      	cmp	r1, #16
 800473e:	d803      	bhi.n	8004748 <HAL_TIM_PWM_Start+0xc>
 8004740:	4a2c      	ldr	r2, [pc, #176]	@ (80047f4 <HAL_TIM_PWM_Start+0xb8>)
 8004742:	008b      	lsls	r3, r1, #2
 8004744:	58d3      	ldr	r3, [r2, r3]
 8004746:	469f      	mov	pc, r3
 8004748:	2343      	movs	r3, #67	@ 0x43
 800474a:	5cc2      	ldrb	r2, [r0, r3]
 800474c:	2a01      	cmp	r2, #1
 800474e:	d12e      	bne.n	80047ae <HAL_TIM_PWM_Start+0x72>
 8004750:	2202      	movs	r2, #2
 8004752:	54c2      	strb	r2, [r0, r3]
 8004754:	221f      	movs	r2, #31
 8004756:	4011      	ands	r1, r2
 8004758:	3a1e      	subs	r2, #30
 800475a:	408a      	lsls	r2, r1
 800475c:	6803      	ldr	r3, [r0, #0]
 800475e:	6a19      	ldr	r1, [r3, #32]
 8004760:	4391      	bics	r1, r2
 8004762:	6219      	str	r1, [r3, #32]
 8004764:	6a19      	ldr	r1, [r3, #32]
 8004766:	430a      	orrs	r2, r1
 8004768:	621a      	str	r2, [r3, #32]
 800476a:	4a23      	ldr	r2, [pc, #140]	@ (80047f8 <HAL_TIM_PWM_Start+0xbc>)
 800476c:	4293      	cmp	r3, r2
 800476e:	d03a      	beq.n	80047e6 <HAL_TIM_PWM_Start+0xaa>
 8004770:	4a22      	ldr	r2, [pc, #136]	@ (80047fc <HAL_TIM_PWM_Start+0xc0>)
 8004772:	4293      	cmp	r3, r2
 8004774:	d031      	beq.n	80047da <HAL_TIM_PWM_Start+0x9e>
 8004776:	4a22      	ldr	r2, [pc, #136]	@ (8004800 <HAL_TIM_PWM_Start+0xc4>)
 8004778:	4293      	cmp	r3, r2
 800477a:	d02e      	beq.n	80047da <HAL_TIM_PWM_Start+0x9e>
 800477c:	2280      	movs	r2, #128	@ 0x80
 800477e:	05d2      	lsls	r2, r2, #23
 8004780:	4293      	cmp	r3, r2
 8004782:	d002      	beq.n	800478a <HAL_TIM_PWM_Start+0x4e>
 8004784:	4a1f      	ldr	r2, [pc, #124]	@ (8004804 <HAL_TIM_PWM_Start+0xc8>)
 8004786:	4293      	cmp	r3, r2
 8004788:	d107      	bne.n	800479a <HAL_TIM_PWM_Start+0x5e>
 800478a:	689a      	ldr	r2, [r3, #8]
 800478c:	491e      	ldr	r1, [pc, #120]	@ (8004808 <HAL_TIM_PWM_Start+0xcc>)
 800478e:	400a      	ands	r2, r1
 8004790:	2a06      	cmp	r2, #6
 8004792:	d006      	beq.n	80047a2 <HAL_TIM_PWM_Start+0x66>
 8004794:	3907      	subs	r1, #7
 8004796:	428a      	cmp	r2, r1
 8004798:	d003      	beq.n	80047a2 <HAL_TIM_PWM_Start+0x66>
 800479a:	2101      	movs	r1, #1
 800479c:	681a      	ldr	r2, [r3, #0]
 800479e:	430a      	orrs	r2, r1
 80047a0:	601a      	str	r2, [r3, #0]
 80047a2:	2000      	movs	r0, #0
 80047a4:	4770      	bx	lr
 80047a6:	233e      	movs	r3, #62	@ 0x3e
 80047a8:	5cc2      	ldrb	r2, [r0, r3]
 80047aa:	2a01      	cmp	r2, #1
 80047ac:	d0d0      	beq.n	8004750 <HAL_TIM_PWM_Start+0x14>
 80047ae:	2001      	movs	r0, #1
 80047b0:	e7f8      	b.n	80047a4 <HAL_TIM_PWM_Start+0x68>
 80047b2:	233f      	movs	r3, #63	@ 0x3f
 80047b4:	5cc2      	ldrb	r2, [r0, r3]
 80047b6:	2a01      	cmp	r2, #1
 80047b8:	d0ca      	beq.n	8004750 <HAL_TIM_PWM_Start+0x14>
 80047ba:	e7f8      	b.n	80047ae <HAL_TIM_PWM_Start+0x72>
 80047bc:	2340      	movs	r3, #64	@ 0x40
 80047be:	5cc2      	ldrb	r2, [r0, r3]
 80047c0:	2a01      	cmp	r2, #1
 80047c2:	d0c5      	beq.n	8004750 <HAL_TIM_PWM_Start+0x14>
 80047c4:	e7f3      	b.n	80047ae <HAL_TIM_PWM_Start+0x72>
 80047c6:	2341      	movs	r3, #65	@ 0x41
 80047c8:	5cc2      	ldrb	r2, [r0, r3]
 80047ca:	2a01      	cmp	r2, #1
 80047cc:	d0c0      	beq.n	8004750 <HAL_TIM_PWM_Start+0x14>
 80047ce:	e7ee      	b.n	80047ae <HAL_TIM_PWM_Start+0x72>
 80047d0:	2342      	movs	r3, #66	@ 0x42
 80047d2:	5cc2      	ldrb	r2, [r0, r3]
 80047d4:	2a01      	cmp	r2, #1
 80047d6:	d0bb      	beq.n	8004750 <HAL_TIM_PWM_Start+0x14>
 80047d8:	e7e9      	b.n	80047ae <HAL_TIM_PWM_Start+0x72>
 80047da:	2280      	movs	r2, #128	@ 0x80
 80047dc:	6c59      	ldr	r1, [r3, #68]	@ 0x44
 80047de:	0212      	lsls	r2, r2, #8
 80047e0:	430a      	orrs	r2, r1
 80047e2:	645a      	str	r2, [r3, #68]	@ 0x44
 80047e4:	e7d9      	b.n	800479a <HAL_TIM_PWM_Start+0x5e>
 80047e6:	2280      	movs	r2, #128	@ 0x80
 80047e8:	6c59      	ldr	r1, [r3, #68]	@ 0x44
 80047ea:	0212      	lsls	r2, r2, #8
 80047ec:	430a      	orrs	r2, r1
 80047ee:	645a      	str	r2, [r3, #68]	@ 0x44
 80047f0:	e7cb      	b.n	800478a <HAL_TIM_PWM_Start+0x4e>
 80047f2:	46c0      	nop			@ (mov r8, r8)
 80047f4:	08006fb8 	.word	0x08006fb8
 80047f8:	40012c00 	.word	0x40012c00
 80047fc:	40014400 	.word	0x40014400
 8004800:	40014800 	.word	0x40014800
 8004804:	40000400 	.word	0x40000400
 8004808:	00010007 	.word	0x00010007

0800480c <HAL_TIM_IC_Init>:
{
 800480c:	b570      	push	{r4, r5, r6, lr}
 800480e:	1e04      	subs	r4, r0, #0
  if (htim == NULL)
 8004810:	d100      	bne.n	8004814 <HAL_TIM_IC_Init+0x8>
 8004812:	e093      	b.n	800493c <HAL_TIM_IC_Init+0x130>
  if (htim->State == HAL_TIM_STATE_RESET)
 8004814:	233d      	movs	r3, #61	@ 0x3d
 8004816:	5cc3      	ldrb	r3, [r0, r3]
 8004818:	b2da      	uxtb	r2, r3
 800481a:	2b00      	cmp	r3, #0
 800481c:	d130      	bne.n	8004880 <HAL_TIM_IC_Init+0x74>
    htim->Lock = HAL_UNLOCKED;
 800481e:	333c      	adds	r3, #60	@ 0x3c
 8004820:	54c2      	strb	r2, [r0, r3]
  htim->PeriodElapsedCallback             = HAL_TIM_PeriodElapsedCallback;
 8004822:	2284      	movs	r2, #132	@ 0x84
 8004824:	4b48      	ldr	r3, [pc, #288]	@ (8004948 <HAL_TIM_IC_Init+0x13c>)
 8004826:	5083      	str	r3, [r0, r2]
  htim->PeriodElapsedHalfCpltCallback     = HAL_TIM_PeriodElapsedHalfCpltCallback;
 8004828:	4b48      	ldr	r3, [pc, #288]	@ (800494c <HAL_TIM_IC_Init+0x140>)
 800482a:	3204      	adds	r2, #4
 800482c:	5083      	str	r3, [r0, r2]
  htim->TriggerCallback                   = HAL_TIM_TriggerCallback;
 800482e:	4b48      	ldr	r3, [pc, #288]	@ (8004950 <HAL_TIM_IC_Init+0x144>)
 8004830:	3204      	adds	r2, #4
 8004832:	5083      	str	r3, [r0, r2]
  htim->TriggerHalfCpltCallback           = HAL_TIM_TriggerHalfCpltCallback;
 8004834:	4b47      	ldr	r3, [pc, #284]	@ (8004954 <HAL_TIM_IC_Init+0x148>)
 8004836:	3204      	adds	r2, #4
 8004838:	5083      	str	r3, [r0, r2]
  htim->IC_CaptureCallback                = HAL_TIM_IC_CaptureCallback;
 800483a:	4b47      	ldr	r3, [pc, #284]	@ (8004958 <HAL_TIM_IC_Init+0x14c>)
 800483c:	3204      	adds	r2, #4
 800483e:	5083      	str	r3, [r0, r2]
  htim->IC_CaptureHalfCpltCallback        = HAL_TIM_IC_CaptureHalfCpltCallback;
 8004840:	4b46      	ldr	r3, [pc, #280]	@ (800495c <HAL_TIM_IC_Init+0x150>)
 8004842:	3204      	adds	r2, #4
 8004844:	5083      	str	r3, [r0, r2]
  htim->OC_DelayElapsedCallback           = HAL_TIM_OC_DelayElapsedCallback;
 8004846:	4b46      	ldr	r3, [pc, #280]	@ (8004960 <HAL_TIM_IC_Init+0x154>)
 8004848:	3204      	adds	r2, #4
 800484a:	5083      	str	r3, [r0, r2]
  htim->PWM_PulseFinishedCallback         = HAL_TIM_PWM_PulseFinishedCallback;
 800484c:	4b45      	ldr	r3, [pc, #276]	@ (8004964 <HAL_TIM_IC_Init+0x158>)
 800484e:	3204      	adds	r2, #4
 8004850:	5083      	str	r3, [r0, r2]
  htim->PWM_PulseFinishedHalfCpltCallback = HAL_TIM_PWM_PulseFinishedHalfCpltCallback;
 8004852:	4b45      	ldr	r3, [pc, #276]	@ (8004968 <HAL_TIM_IC_Init+0x15c>)
 8004854:	3204      	adds	r2, #4
 8004856:	5083      	str	r3, [r0, r2]
  htim->ErrorCallback                     = HAL_TIM_ErrorCallback;
 8004858:	4b44      	ldr	r3, [pc, #272]	@ (800496c <HAL_TIM_IC_Init+0x160>)
 800485a:	3204      	adds	r2, #4
 800485c:	5083      	str	r3, [r0, r2]
  htim->CommutationCallback               = HAL_TIMEx_CommutCallback;
 800485e:	4b44      	ldr	r3, [pc, #272]	@ (8004970 <HAL_TIM_IC_Init+0x164>)
 8004860:	3204      	adds	r2, #4
 8004862:	5083      	str	r3, [r0, r2]
  htim->CommutationHalfCpltCallback       = HAL_TIMEx_CommutHalfCpltCallback;
 8004864:	4b43      	ldr	r3, [pc, #268]	@ (8004974 <HAL_TIM_IC_Init+0x168>)
 8004866:	3204      	adds	r2, #4
 8004868:	5083      	str	r3, [r0, r2]
  htim->BreakCallback                     = HAL_TIMEx_BreakCallback;
 800486a:	4b43      	ldr	r3, [pc, #268]	@ (8004978 <HAL_TIM_IC_Init+0x16c>)
 800486c:	3204      	adds	r2, #4
 800486e:	5083      	str	r3, [r0, r2]
  htim->Break2Callback                    = HAL_TIMEx_Break2Callback;
 8004870:	4b42      	ldr	r3, [pc, #264]	@ (800497c <HAL_TIM_IC_Init+0x170>)
 8004872:	3204      	adds	r2, #4
 8004874:	5083      	str	r3, [r0, r2]
    if (htim->IC_MspInitCallback == NULL)
 8004876:	6d43      	ldr	r3, [r0, #84]	@ 0x54
 8004878:	2b00      	cmp	r3, #0
 800487a:	d061      	beq.n	8004940 <HAL_TIM_IC_Init+0x134>
    htim->IC_MspInitCallback(htim);
 800487c:	0020      	movs	r0, r4
 800487e:	4798      	blx	r3
  htim->State = HAL_TIM_STATE_BUSY;
 8004880:	233d      	movs	r3, #61	@ 0x3d
 8004882:	2202      	movs	r2, #2
 8004884:	54e2      	strb	r2, [r4, r3]
  TIM_Base_SetConfig(htim->Instance, &htim->Init);
 8004886:	6823      	ldr	r3, [r4, #0]
  if (IS_TIM_COUNTER_MODE_SELECT_INSTANCE(TIMx))
 8004888:	4e3d      	ldr	r6, [pc, #244]	@ (8004980 <HAL_TIM_IC_Init+0x174>)
  tmpcr1 = TIMx->CR1;
 800488a:	681a      	ldr	r2, [r3, #0]
  MODIFY_REG(tmpcr1, TIM_CR1_ARPE, Structure->AutoReloadPreload);
 800488c:	69a5      	ldr	r5, [r4, #24]
  TIMx->PSC = Structure->Prescaler;
 800488e:	6861      	ldr	r1, [r4, #4]
  TIMx->ARR = (uint32_t)Structure->Period ;
 8004890:	68e0      	ldr	r0, [r4, #12]
  if (IS_TIM_COUNTER_MODE_SELECT_INSTANCE(TIMx))
 8004892:	42b3      	cmp	r3, r6
 8004894:	d041      	beq.n	800491a <HAL_TIM_IC_Init+0x10e>
 8004896:	2680      	movs	r6, #128	@ 0x80
 8004898:	05f6      	lsls	r6, r6, #23
 800489a:	42b3      	cmp	r3, r6
 800489c:	d034      	beq.n	8004908 <HAL_TIM_IC_Init+0xfc>
 800489e:	4e39      	ldr	r6, [pc, #228]	@ (8004984 <HAL_TIM_IC_Init+0x178>)
 80048a0:	42b3      	cmp	r3, r6
 80048a2:	d031      	beq.n	8004908 <HAL_TIM_IC_Init+0xfc>
  if (IS_TIM_CLOCK_DIVISION_INSTANCE(TIMx))
 80048a4:	4e38      	ldr	r6, [pc, #224]	@ (8004988 <HAL_TIM_IC_Init+0x17c>)
 80048a6:	42b3      	cmp	r3, r6
 80048a8:	d032      	beq.n	8004910 <HAL_TIM_IC_Init+0x104>
 80048aa:	4e38      	ldr	r6, [pc, #224]	@ (800498c <HAL_TIM_IC_Init+0x180>)
 80048ac:	42b3      	cmp	r3, r6
 80048ae:	d038      	beq.n	8004922 <HAL_TIM_IC_Init+0x116>
 80048b0:	4e37      	ldr	r6, [pc, #220]	@ (8004990 <HAL_TIM_IC_Init+0x184>)
 80048b2:	42b3      	cmp	r3, r6
 80048b4:	d035      	beq.n	8004922 <HAL_TIM_IC_Init+0x116>
  MODIFY_REG(tmpcr1, TIM_CR1_ARPE, Structure->AutoReloadPreload);
 80048b6:	2680      	movs	r6, #128	@ 0x80
 80048b8:	43b2      	bics	r2, r6
 80048ba:	432a      	orrs	r2, r5
  TIMx->CR1 = tmpcr1;
 80048bc:	601a      	str	r2, [r3, #0]
  TIMx->ARR = (uint32_t)Structure->Period ;
 80048be:	62d8      	str	r0, [r3, #44]	@ 0x2c
  TIMx->PSC = Structure->Prescaler;
 80048c0:	6299      	str	r1, [r3, #40]	@ 0x28
  TIMx->EGR = TIM_EGR_UG;
 80048c2:	2201      	movs	r2, #1
 80048c4:	615a      	str	r2, [r3, #20]
  if (HAL_IS_BIT_SET(TIMx->SR, TIM_FLAG_UPDATE))
 80048c6:	6919      	ldr	r1, [r3, #16]
 80048c8:	420a      	tst	r2, r1
 80048ca:	d002      	beq.n	80048d2 <HAL_TIM_IC_Init+0xc6>
    CLEAR_BIT(TIMx->SR, TIM_FLAG_UPDATE);
 80048cc:	6919      	ldr	r1, [r3, #16]
 80048ce:	4391      	bics	r1, r2
 80048d0:	6119      	str	r1, [r3, #16]
  htim->DMABurstState = HAL_DMA_BURST_STATE_READY;
 80048d2:	2301      	movs	r3, #1
 80048d4:	2248      	movs	r2, #72	@ 0x48
  return HAL_OK;
 80048d6:	2000      	movs	r0, #0
  htim->DMABurstState = HAL_DMA_BURST_STATE_READY;
 80048d8:	54a3      	strb	r3, [r4, r2]
  TIM_CHANNEL_STATE_SET_ALL(htim, HAL_TIM_CHANNEL_STATE_READY);
 80048da:	3a0a      	subs	r2, #10
 80048dc:	54a3      	strb	r3, [r4, r2]
 80048de:	3201      	adds	r2, #1
 80048e0:	54a3      	strb	r3, [r4, r2]
 80048e2:	3201      	adds	r2, #1
 80048e4:	54a3      	strb	r3, [r4, r2]
 80048e6:	3201      	adds	r2, #1
 80048e8:	54a3      	strb	r3, [r4, r2]
 80048ea:	3201      	adds	r2, #1
 80048ec:	54a3      	strb	r3, [r4, r2]
 80048ee:	3201      	adds	r2, #1
 80048f0:	54a3      	strb	r3, [r4, r2]
  TIM_CHANNEL_N_STATE_SET_ALL(htim, HAL_TIM_CHANNEL_STATE_READY);
 80048f2:	3201      	adds	r2, #1
 80048f4:	54a3      	strb	r3, [r4, r2]
 80048f6:	3201      	adds	r2, #1
 80048f8:	54a3      	strb	r3, [r4, r2]
 80048fa:	3201      	adds	r2, #1
 80048fc:	54a3      	strb	r3, [r4, r2]
 80048fe:	3201      	adds	r2, #1
 8004900:	54a3      	strb	r3, [r4, r2]
  htim->State = HAL_TIM_STATE_READY;
 8004902:	3a0a      	subs	r2, #10
 8004904:	54a3      	strb	r3, [r4, r2]
}
 8004906:	bd70      	pop	{r4, r5, r6, pc}
    tmpcr1 &= ~(TIM_CR1_DIR | TIM_CR1_CMS);
 8004908:	2670      	movs	r6, #112	@ 0x70
 800490a:	43b2      	bics	r2, r6
    tmpcr1 |= Structure->CounterMode;
 800490c:	68a6      	ldr	r6, [r4, #8]
 800490e:	4332      	orrs	r2, r6
    tmpcr1 &= ~TIM_CR1_CKD;
 8004910:	4e20      	ldr	r6, [pc, #128]	@ (8004994 <HAL_TIM_IC_Init+0x188>)
 8004912:	4032      	ands	r2, r6
    tmpcr1 |= (uint32_t)Structure->ClockDivision;
 8004914:	6926      	ldr	r6, [r4, #16]
 8004916:	4332      	orrs	r2, r6
 8004918:	e7cd      	b.n	80048b6 <HAL_TIM_IC_Init+0xaa>
    tmpcr1 &= ~(TIM_CR1_DIR | TIM_CR1_CMS);
 800491a:	2670      	movs	r6, #112	@ 0x70
 800491c:	43b2      	bics	r2, r6
    tmpcr1 |= Structure->CounterMode;
 800491e:	68a6      	ldr	r6, [r4, #8]
 8004920:	4332      	orrs	r2, r6
    tmpcr1 &= ~TIM_CR1_CKD;
 8004922:	4e1c      	ldr	r6, [pc, #112]	@ (8004994 <HAL_TIM_IC_Init+0x188>)
 8004924:	4032      	ands	r2, r6
    tmpcr1 |= (uint32_t)Structure->ClockDivision;
 8004926:	6926      	ldr	r6, [r4, #16]
 8004928:	4332      	orrs	r2, r6
  MODIFY_REG(tmpcr1, TIM_CR1_ARPE, Structure->AutoReloadPreload);
 800492a:	2680      	movs	r6, #128	@ 0x80
 800492c:	43b2      	bics	r2, r6
 800492e:	432a      	orrs	r2, r5
  TIMx->CR1 = tmpcr1;
 8004930:	601a      	str	r2, [r3, #0]
  TIMx->ARR = (uint32_t)Structure->Period ;
 8004932:	62d8      	str	r0, [r3, #44]	@ 0x2c
  TIMx->PSC = Structure->Prescaler;
 8004934:	6299      	str	r1, [r3, #40]	@ 0x28
    TIMx->RCR = Structure->RepetitionCounter;
 8004936:	6962      	ldr	r2, [r4, #20]
 8004938:	631a      	str	r2, [r3, #48]	@ 0x30
 800493a:	e7c2      	b.n	80048c2 <HAL_TIM_IC_Init+0xb6>
    return HAL_ERROR;
 800493c:	2001      	movs	r0, #1
 800493e:	e7e2      	b.n	8004906 <HAL_TIM_IC_Init+0xfa>
      htim->IC_MspInitCallback = HAL_TIM_IC_MspInit;
 8004940:	4b15      	ldr	r3, [pc, #84]	@ (8004998 <HAL_TIM_IC_Init+0x18c>)
 8004942:	6543      	str	r3, [r0, #84]	@ 0x54
 8004944:	e79a      	b.n	800487c <HAL_TIM_IC_Init+0x70>
 8004946:	46c0      	nop			@ (mov r8, r8)
 8004948:	08003fa1 	.word	0x08003fa1
 800494c:	08003fa5 	.word	0x08003fa5
 8004950:	08003fbd 	.word	0x08003fbd
 8004954:	08003fc1 	.word	0x08003fc1
 8004958:	08003fad 	.word	0x08003fad
 800495c:	08003fb1 	.word	0x08003fb1
 8004960:	08003fa9 	.word	0x08003fa9
 8004964:	08003fb5 	.word	0x08003fb5
 8004968:	08003fb9 	.word	0x08003fb9
 800496c:	08003fc5 	.word	0x08003fc5
 8004970:	08005835 	.word	0x08005835
 8004974:	08005839 	.word	0x08005839
 8004978:	0800583d 	.word	0x0800583d
 800497c:	08005841 	.word	0x08005841
 8004980:	40012c00 	.word	0x40012c00
 8004984:	40000400 	.word	0x40000400
 8004988:	40002000 	.word	0x40002000
 800498c:	40014400 	.word	0x40014400
 8004990:	40014800 	.word	0x40014800
 8004994:	fffffcff 	.word	0xfffffcff
 8004998:	08003f9d 	.word	0x08003f9d

0800499c <HAL_TIM_IC_Start_IT>:
{
 800499c:	b530      	push	{r4, r5, lr}
 800499e:	2910      	cmp	r1, #16
 80049a0:	d816      	bhi.n	80049d0 <HAL_TIM_IC_Start_IT+0x34>
 80049a2:	4a53      	ldr	r2, [pc, #332]	@ (8004af0 <HAL_TIM_IC_Start_IT+0x154>)
 80049a4:	008b      	lsls	r3, r1, #2
 80049a6:	58d3      	ldr	r3, [r2, r3]
 80049a8:	469f      	mov	pc, r3
  HAL_TIM_ChannelStateTypeDef channel_state = TIM_CHANNEL_STATE_GET(htim, Channel);
 80049aa:	243e      	movs	r4, #62	@ 0x3e
  HAL_TIM_ChannelStateTypeDef complementary_channel_state = TIM_CHANNEL_N_STATE_GET(htim, Channel);
 80049ac:	2244      	movs	r2, #68	@ 0x44
  HAL_TIM_ChannelStateTypeDef channel_state = TIM_CHANNEL_STATE_GET(htim, Channel);
 80049ae:	5d05      	ldrb	r5, [r0, r4]
  HAL_TIM_ChannelStateTypeDef complementary_channel_state = TIM_CHANNEL_N_STATE_GET(htim, Channel);
 80049b0:	5c83      	ldrb	r3, [r0, r2]
 80049b2:	b2db      	uxtb	r3, r3
  if ((channel_state != HAL_TIM_CHANNEL_STATE_READY)
 80049b4:	2d01      	cmp	r5, #1
 80049b6:	d001      	beq.n	80049bc <HAL_TIM_IC_Start_IT+0x20>
{
 80049b8:	2001      	movs	r0, #1
}
 80049ba:	bd30      	pop	{r4, r5, pc}
      || (complementary_channel_state != HAL_TIM_CHANNEL_STATE_READY))
 80049bc:	2b01      	cmp	r3, #1
 80049be:	d1fb      	bne.n	80049b8 <HAL_TIM_IC_Start_IT+0x1c>
  TIM_CHANNEL_STATE_SET(htim, Channel, HAL_TIM_CHANNEL_STATE_BUSY);
 80049c0:	2502      	movs	r5, #2
 80049c2:	5505      	strb	r5, [r0, r4]
  TIM_CHANNEL_N_STATE_SET(htim, Channel, HAL_TIM_CHANNEL_STATE_BUSY);
 80049c4:	5485      	strb	r5, [r0, r2]
      __HAL_TIM_ENABLE_IT(htim, TIM_IT_CC1);
 80049c6:	6803      	ldr	r3, [r0, #0]
 80049c8:	68da      	ldr	r2, [r3, #12]
 80049ca:	432a      	orrs	r2, r5
 80049cc:	60da      	str	r2, [r3, #12]
  if (status == HAL_OK)
 80049ce:	e022      	b.n	8004a16 <HAL_TIM_IC_Start_IT+0x7a>
  HAL_TIM_ChannelStateTypeDef channel_state = TIM_CHANNEL_STATE_GET(htim, Channel);
 80049d0:	2343      	movs	r3, #67	@ 0x43
 80049d2:	5cc2      	ldrb	r2, [r0, r3]
  HAL_TIM_ChannelStateTypeDef complementary_channel_state = TIM_CHANNEL_N_STATE_GET(htim, Channel);
 80049d4:	3304      	adds	r3, #4
 80049d6:	5cc3      	ldrb	r3, [r0, r3]
 80049d8:	b2db      	uxtb	r3, r3
  if ((channel_state != HAL_TIM_CHANNEL_STATE_READY)
 80049da:	2a01      	cmp	r2, #1
 80049dc:	d1ec      	bne.n	80049b8 <HAL_TIM_IC_Start_IT+0x1c>
      || (complementary_channel_state != HAL_TIM_CHANNEL_STATE_READY))
 80049de:	2b01      	cmp	r3, #1
 80049e0:	d1ea      	bne.n	80049b8 <HAL_TIM_IC_Start_IT+0x1c>
  TIM_CHANNEL_STATE_SET(htim, Channel, HAL_TIM_CHANNEL_STATE_BUSY);
 80049e2:	1f0b      	subs	r3, r1, #4
 80049e4:	2b0c      	cmp	r3, #12
 80049e6:	d878      	bhi.n	8004ada <HAL_TIM_IC_Start_IT+0x13e>
 80049e8:	4a42      	ldr	r2, [pc, #264]	@ (8004af4 <HAL_TIM_IC_Start_IT+0x158>)
 80049ea:	009b      	lsls	r3, r3, #2
 80049ec:	58d3      	ldr	r3, [r2, r3]
 80049ee:	469f      	mov	pc, r3
  HAL_TIM_ChannelStateTypeDef channel_state = TIM_CHANNEL_STATE_GET(htim, Channel);
 80049f0:	233f      	movs	r3, #63	@ 0x3f
 80049f2:	5cc2      	ldrb	r2, [r0, r3]
  HAL_TIM_ChannelStateTypeDef complementary_channel_state = TIM_CHANNEL_N_STATE_GET(htim, Channel);
 80049f4:	3306      	adds	r3, #6
 80049f6:	5cc3      	ldrb	r3, [r0, r3]
 80049f8:	b2db      	uxtb	r3, r3
  if ((channel_state != HAL_TIM_CHANNEL_STATE_READY)
 80049fa:	2a01      	cmp	r2, #1
 80049fc:	d1dc      	bne.n	80049b8 <HAL_TIM_IC_Start_IT+0x1c>
      || (complementary_channel_state != HAL_TIM_CHANNEL_STATE_READY))
 80049fe:	2b01      	cmp	r3, #1
 8004a00:	d1da      	bne.n	80049b8 <HAL_TIM_IC_Start_IT+0x1c>
  TIM_CHANNEL_STATE_SET(htim, Channel, HAL_TIM_CHANNEL_STATE_BUSY);
 8004a02:	2302      	movs	r3, #2
 8004a04:	223f      	movs	r2, #63	@ 0x3f
 8004a06:	5483      	strb	r3, [r0, r2]
  TIM_CHANNEL_N_STATE_SET(htim, Channel, HAL_TIM_CHANNEL_STATE_BUSY);
 8004a08:	3206      	adds	r2, #6
 8004a0a:	5483      	strb	r3, [r0, r2]
      __HAL_TIM_ENABLE_IT(htim, TIM_IT_CC2);
 8004a0c:	6803      	ldr	r3, [r0, #0]
 8004a0e:	2004      	movs	r0, #4
 8004a10:	68da      	ldr	r2, [r3, #12]
 8004a12:	4302      	orrs	r2, r0
 8004a14:	60da      	str	r2, [r3, #12]
  tmp = TIM_CCER_CC1E << (Channel & 0x1FU); /* 0x1FU = 31 bits max shift */
 8004a16:	221f      	movs	r2, #31
 8004a18:	2001      	movs	r0, #1
 8004a1a:	400a      	ands	r2, r1
 8004a1c:	0001      	movs	r1, r0
 8004a1e:	4091      	lsls	r1, r2
 8004a20:	000a      	movs	r2, r1
  TIMx->CCER &= ~tmp;
 8004a22:	6a19      	ldr	r1, [r3, #32]
 8004a24:	4391      	bics	r1, r2
 8004a26:	6219      	str	r1, [r3, #32]
  TIMx->CCER |= (uint32_t)(ChannelState << (Channel & 0x1FU)); /* 0x1FU = 31 bits max shift */
 8004a28:	6a19      	ldr	r1, [r3, #32]
 8004a2a:	430a      	orrs	r2, r1
 8004a2c:	621a      	str	r2, [r3, #32]
    if (IS_TIM_SLAVE_INSTANCE(htim->Instance))
 8004a2e:	4a32      	ldr	r2, [pc, #200]	@ (8004af8 <HAL_TIM_IC_Start_IT+0x15c>)
 8004a30:	4293      	cmp	r3, r2
 8004a32:	d044      	beq.n	8004abe <HAL_TIM_IC_Start_IT+0x122>
 8004a34:	2280      	movs	r2, #128	@ 0x80
 8004a36:	05d2      	lsls	r2, r2, #23
 8004a38:	4293      	cmp	r3, r2
 8004a3a:	d040      	beq.n	8004abe <HAL_TIM_IC_Start_IT+0x122>
 8004a3c:	4a2f      	ldr	r2, [pc, #188]	@ (8004afc <HAL_TIM_IC_Start_IT+0x160>)
 8004a3e:	4293      	cmp	r3, r2
 8004a40:	d03d      	beq.n	8004abe <HAL_TIM_IC_Start_IT+0x122>
      __HAL_TIM_ENABLE(htim);
 8004a42:	681a      	ldr	r2, [r3, #0]
 8004a44:	4302      	orrs	r2, r0
 8004a46:	601a      	str	r2, [r3, #0]
{
 8004a48:	2000      	movs	r0, #0
 8004a4a:	e7b6      	b.n	80049ba <HAL_TIM_IC_Start_IT+0x1e>
  HAL_TIM_ChannelStateTypeDef channel_state = TIM_CHANNEL_STATE_GET(htim, Channel);
 8004a4c:	2342      	movs	r3, #66	@ 0x42
 8004a4e:	5cc2      	ldrb	r2, [r0, r3]
  HAL_TIM_ChannelStateTypeDef complementary_channel_state = TIM_CHANNEL_N_STATE_GET(htim, Channel);
 8004a50:	3305      	adds	r3, #5
 8004a52:	5cc3      	ldrb	r3, [r0, r3]
 8004a54:	b2db      	uxtb	r3, r3
  if ((channel_state != HAL_TIM_CHANNEL_STATE_READY)
 8004a56:	2a01      	cmp	r2, #1
 8004a58:	d1ae      	bne.n	80049b8 <HAL_TIM_IC_Start_IT+0x1c>
      || (complementary_channel_state != HAL_TIM_CHANNEL_STATE_READY))
 8004a5a:	2b01      	cmp	r3, #1
 8004a5c:	d1ac      	bne.n	80049b8 <HAL_TIM_IC_Start_IT+0x1c>
  TIM_CHANNEL_STATE_SET(htim, Channel, HAL_TIM_CHANNEL_STATE_BUSY);
 8004a5e:	2302      	movs	r3, #2
 8004a60:	2242      	movs	r2, #66	@ 0x42
 8004a62:	5483      	strb	r3, [r0, r2]
  TIM_CHANNEL_N_STATE_SET(htim, Channel, HAL_TIM_CHANNEL_STATE_BUSY);
 8004a64:	3205      	adds	r2, #5
 8004a66:	5483      	strb	r3, [r0, r2]
  switch (Channel)
 8004a68:	e7a6      	b.n	80049b8 <HAL_TIM_IC_Start_IT+0x1c>
  HAL_TIM_ChannelStateTypeDef channel_state = TIM_CHANNEL_STATE_GET(htim, Channel);
 8004a6a:	2240      	movs	r2, #64	@ 0x40
  HAL_TIM_ChannelStateTypeDef complementary_channel_state = TIM_CHANNEL_N_STATE_GET(htim, Channel);
 8004a6c:	2346      	movs	r3, #70	@ 0x46
  HAL_TIM_ChannelStateTypeDef channel_state = TIM_CHANNEL_STATE_GET(htim, Channel);
 8004a6e:	5c84      	ldrb	r4, [r0, r2]
  HAL_TIM_ChannelStateTypeDef complementary_channel_state = TIM_CHANNEL_N_STATE_GET(htim, Channel);
 8004a70:	5cc3      	ldrb	r3, [r0, r3]
 8004a72:	b2db      	uxtb	r3, r3
  if ((channel_state != HAL_TIM_CHANNEL_STATE_READY)
 8004a74:	2c01      	cmp	r4, #1
 8004a76:	d19f      	bne.n	80049b8 <HAL_TIM_IC_Start_IT+0x1c>
      || (complementary_channel_state != HAL_TIM_CHANNEL_STATE_READY))
 8004a78:	2b01      	cmp	r3, #1
 8004a7a:	d19d      	bne.n	80049b8 <HAL_TIM_IC_Start_IT+0x1c>
  TIM_CHANNEL_STATE_SET(htim, Channel, HAL_TIM_CHANNEL_STATE_BUSY);
 8004a7c:	2302      	movs	r3, #2
 8004a7e:	5483      	strb	r3, [r0, r2]
  TIM_CHANNEL_N_STATE_SET(htim, Channel, HAL_TIM_CHANNEL_STATE_BUSY);
 8004a80:	2346      	movs	r3, #70	@ 0x46
 8004a82:	2202      	movs	r2, #2
 8004a84:	54c2      	strb	r2, [r0, r3]
      __HAL_TIM_ENABLE_IT(htim, TIM_IT_CC3);
 8004a86:	6803      	ldr	r3, [r0, #0]
 8004a88:	2008      	movs	r0, #8
 8004a8a:	68da      	ldr	r2, [r3, #12]
 8004a8c:	4302      	orrs	r2, r0
 8004a8e:	60da      	str	r2, [r3, #12]
  if (status == HAL_OK)
 8004a90:	e7c1      	b.n	8004a16 <HAL_TIM_IC_Start_IT+0x7a>
  HAL_TIM_ChannelStateTypeDef channel_state = TIM_CHANNEL_STATE_GET(htim, Channel);
 8004a92:	2341      	movs	r3, #65	@ 0x41
 8004a94:	5cc2      	ldrb	r2, [r0, r3]
  HAL_TIM_ChannelStateTypeDef complementary_channel_state = TIM_CHANNEL_N_STATE_GET(htim, Channel);
 8004a96:	3306      	adds	r3, #6
 8004a98:	5cc3      	ldrb	r3, [r0, r3]
 8004a9a:	b2db      	uxtb	r3, r3
  if ((channel_state != HAL_TIM_CHANNEL_STATE_READY)
 8004a9c:	2a01      	cmp	r2, #1
 8004a9e:	d000      	beq.n	8004aa2 <HAL_TIM_IC_Start_IT+0x106>
 8004aa0:	e78a      	b.n	80049b8 <HAL_TIM_IC_Start_IT+0x1c>
      || (complementary_channel_state != HAL_TIM_CHANNEL_STATE_READY))
 8004aa2:	2b01      	cmp	r3, #1
 8004aa4:	d000      	beq.n	8004aa8 <HAL_TIM_IC_Start_IT+0x10c>
 8004aa6:	e787      	b.n	80049b8 <HAL_TIM_IC_Start_IT+0x1c>
  TIM_CHANNEL_STATE_SET(htim, Channel, HAL_TIM_CHANNEL_STATE_BUSY);
 8004aa8:	2302      	movs	r3, #2
 8004aaa:	2241      	movs	r2, #65	@ 0x41
 8004aac:	5483      	strb	r3, [r0, r2]
  TIM_CHANNEL_N_STATE_SET(htim, Channel, HAL_TIM_CHANNEL_STATE_BUSY);
 8004aae:	3206      	adds	r2, #6
 8004ab0:	5483      	strb	r3, [r0, r2]
      __HAL_TIM_ENABLE_IT(htim, TIM_IT_CC4);
 8004ab2:	6803      	ldr	r3, [r0, #0]
 8004ab4:	2010      	movs	r0, #16
 8004ab6:	68da      	ldr	r2, [r3, #12]
 8004ab8:	4302      	orrs	r2, r0
 8004aba:	60da      	str	r2, [r3, #12]
  if (status == HAL_OK)
 8004abc:	e7ab      	b.n	8004a16 <HAL_TIM_IC_Start_IT+0x7a>
      tmpsmcr = htim->Instance->SMCR & TIM_SMCR_SMS;
 8004abe:	689a      	ldr	r2, [r3, #8]
 8004ac0:	490f      	ldr	r1, [pc, #60]	@ (8004b00 <HAL_TIM_IC_Start_IT+0x164>)
 8004ac2:	400a      	ands	r2, r1
      if (!IS_TIM_SLAVEMODE_TRIGGER_ENABLED(tmpsmcr))
 8004ac4:	2a06      	cmp	r2, #6
 8004ac6:	d0bf      	beq.n	8004a48 <HAL_TIM_IC_Start_IT+0xac>
 8004ac8:	3907      	subs	r1, #7
 8004aca:	428a      	cmp	r2, r1
 8004acc:	d0bc      	beq.n	8004a48 <HAL_TIM_IC_Start_IT+0xac>
        __HAL_TIM_ENABLE(htim);
 8004ace:	2101      	movs	r1, #1
 8004ad0:	681a      	ldr	r2, [r3, #0]
{
 8004ad2:	2000      	movs	r0, #0
        __HAL_TIM_ENABLE(htim);
 8004ad4:	430a      	orrs	r2, r1
 8004ad6:	601a      	str	r2, [r3, #0]
 8004ad8:	e76f      	b.n	80049ba <HAL_TIM_IC_Start_IT+0x1e>
  TIM_CHANNEL_STATE_SET(htim, Channel, HAL_TIM_CHANNEL_STATE_BUSY);
 8004ada:	2302      	movs	r3, #2
 8004adc:	2243      	movs	r2, #67	@ 0x43
 8004ade:	5483      	strb	r3, [r0, r2]
  TIM_CHANNEL_N_STATE_SET(htim, Channel, HAL_TIM_CHANNEL_STATE_BUSY);
 8004ae0:	3204      	adds	r2, #4
 8004ae2:	5483      	strb	r3, [r0, r2]
  switch (Channel)
 8004ae4:	e768      	b.n	80049b8 <HAL_TIM_IC_Start_IT+0x1c>
  TIM_CHANNEL_STATE_SET(htim, Channel, HAL_TIM_CHANNEL_STATE_BUSY);
 8004ae6:	2340      	movs	r3, #64	@ 0x40
 8004ae8:	2202      	movs	r2, #2
 8004aea:	54c2      	strb	r2, [r0, r3]
  TIM_CHANNEL_N_STATE_SET(htim, Channel, HAL_TIM_CHANNEL_STATE_BUSY);
 8004aec:	e7c8      	b.n	8004a80 <HAL_TIM_IC_Start_IT+0xe4>
 8004aee:	46c0      	nop			@ (mov r8, r8)
 8004af0:	08006ffc 	.word	0x08006ffc
 8004af4:	08007040 	.word	0x08007040
 8004af8:	40012c00 	.word	0x40012c00
 8004afc:	40000400 	.word	0x40000400
 8004b00:	00010007 	.word	0x00010007

08004b04 <HAL_TIM_IRQHandler>:
  if ((itflag & (TIM_FLAG_CC1)) == (TIM_FLAG_CC1))
 8004b04:	2202      	movs	r2, #2
{
 8004b06:	b5f8      	push	{r3, r4, r5, r6, r7, lr}
  uint32_t itsource = htim->Instance->DIER;
 8004b08:	6803      	ldr	r3, [r0, #0]
{
 8004b0a:	0004      	movs	r4, r0
  uint32_t itsource = htim->Instance->DIER;
 8004b0c:	68de      	ldr	r6, [r3, #12]
  uint32_t itflag   = htim->Instance->SR;
 8004b0e:	691d      	ldr	r5, [r3, #16]
  if ((itflag & (TIM_FLAG_CC1)) == (TIM_FLAG_CC1))
 8004b10:	422a      	tst	r2, r5
 8004b12:	d002      	beq.n	8004b1a <HAL_TIM_IRQHandler+0x16>
    if ((itsource & (TIM_IT_CC1)) == (TIM_IT_CC1))
 8004b14:	4232      	tst	r2, r6
 8004b16:	d000      	beq.n	8004b1a <HAL_TIM_IRQHandler+0x16>
 8004b18:	e0a6      	b.n	8004c68 <HAL_TIM_IRQHandler+0x164>
  if ((itflag & (TIM_FLAG_CC2)) == (TIM_FLAG_CC2))
 8004b1a:	2304      	movs	r3, #4
 8004b1c:	422b      	tst	r3, r5
 8004b1e:	d002      	beq.n	8004b26 <HAL_TIM_IRQHandler+0x22>
    if ((itsource & (TIM_IT_CC2)) == (TIM_IT_CC2))
 8004b20:	4233      	tst	r3, r6
 8004b22:	d000      	beq.n	8004b26 <HAL_TIM_IRQHandler+0x22>
 8004b24:	e08a      	b.n	8004c3c <HAL_TIM_IRQHandler+0x138>
  if ((itflag & (TIM_FLAG_CC3)) == (TIM_FLAG_CC3))
 8004b26:	2308      	movs	r3, #8
 8004b28:	422b      	tst	r3, r5
 8004b2a:	d002      	beq.n	8004b32 <HAL_TIM_IRQHandler+0x2e>
    if ((itsource & (TIM_IT_CC3)) == (TIM_IT_CC3))
 8004b2c:	4233      	tst	r3, r6
 8004b2e:	d000      	beq.n	8004b32 <HAL_TIM_IRQHandler+0x2e>
 8004b30:	e070      	b.n	8004c14 <HAL_TIM_IRQHandler+0x110>
  if ((itflag & (TIM_FLAG_CC4)) == (TIM_FLAG_CC4))
 8004b32:	2310      	movs	r3, #16
 8004b34:	422b      	tst	r3, r5
 8004b36:	d001      	beq.n	8004b3c <HAL_TIM_IRQHandler+0x38>
    if ((itsource & (TIM_IT_CC4)) == (TIM_IT_CC4))
 8004b38:	4233      	tst	r3, r6
 8004b3a:	d155      	bne.n	8004be8 <HAL_TIM_IRQHandler+0xe4>
  if ((itflag & (TIM_FLAG_UPDATE)) == (TIM_FLAG_UPDATE))
 8004b3c:	2301      	movs	r3, #1
 8004b3e:	422b      	tst	r3, r5
 8004b40:	d001      	beq.n	8004b46 <HAL_TIM_IRQHandler+0x42>
    if ((itsource & (TIM_IT_UPDATE)) == (TIM_IT_UPDATE))
 8004b42:	4233      	tst	r3, r6
 8004b44:	d135      	bne.n	8004bb2 <HAL_TIM_IRQHandler+0xae>
  if ((itflag & (TIM_FLAG_BREAK2)) == (TIM_FLAG_BREAK2))
 8004b46:	2780      	movs	r7, #128	@ 0x80
  if (((itflag & (TIM_FLAG_BREAK)) == (TIM_FLAG_BREAK)) || \
 8004b48:	2382      	movs	r3, #130	@ 0x82
  if ((itflag & (TIM_FLAG_BREAK2)) == (TIM_FLAG_BREAK2))
 8004b4a:	007f      	lsls	r7, r7, #1
  if (((itflag & (TIM_FLAG_BREAK)) == (TIM_FLAG_BREAK)) || \
 8004b4c:	019b      	lsls	r3, r3, #6
  if ((itflag & (TIM_FLAG_BREAK2)) == (TIM_FLAG_BREAK2))
 8004b4e:	402f      	ands	r7, r5
  if (((itflag & (TIM_FLAG_BREAK)) == (TIM_FLAG_BREAK)) || \
 8004b50:	421d      	tst	r5, r3
 8004b52:	d03d      	beq.n	8004bd0 <HAL_TIM_IRQHandler+0xcc>
    if ((itsource & (TIM_IT_BREAK)) == (TIM_IT_BREAK))
 8004b54:	0633      	lsls	r3, r6, #24
 8004b56:	d41b      	bmi.n	8004b90 <HAL_TIM_IRQHandler+0x8c>
  if ((itflag & (TIM_FLAG_TRIGGER)) == (TIM_FLAG_TRIGGER))
 8004b58:	2340      	movs	r3, #64	@ 0x40
 8004b5a:	422b      	tst	r3, r5
 8004b5c:	d001      	beq.n	8004b62 <HAL_TIM_IRQHandler+0x5e>
    if ((itsource & (TIM_IT_TRIGGER)) == (TIM_IT_TRIGGER))
 8004b5e:	4233      	tst	r3, r6
 8004b60:	d10d      	bne.n	8004b7e <HAL_TIM_IRQHandler+0x7a>
  if ((itflag & (TIM_FLAG_COM)) == (TIM_FLAG_COM))
 8004b62:	2320      	movs	r3, #32
 8004b64:	422b      	tst	r3, r5
 8004b66:	d009      	beq.n	8004b7c <HAL_TIM_IRQHandler+0x78>
    if ((itsource & (TIM_IT_COM)) == (TIM_IT_COM))
 8004b68:	4233      	tst	r3, r6
 8004b6a:	d007      	beq.n	8004b7c <HAL_TIM_IRQHandler+0x78>
      __HAL_TIM_CLEAR_FLAG(htim, TIM_FLAG_COM);
 8004b6c:	2221      	movs	r2, #33	@ 0x21
 8004b6e:	6823      	ldr	r3, [r4, #0]
 8004b70:	4252      	negs	r2, r2
 8004b72:	611a      	str	r2, [r3, #16]
      htim->CommutationCallback(htim);
 8004b74:	23ac      	movs	r3, #172	@ 0xac
 8004b76:	0020      	movs	r0, r4
 8004b78:	58e3      	ldr	r3, [r4, r3]
 8004b7a:	4798      	blx	r3
}
 8004b7c:	bdf8      	pop	{r3, r4, r5, r6, r7, pc}
      __HAL_TIM_CLEAR_FLAG(htim, TIM_FLAG_TRIGGER);
 8004b7e:	2241      	movs	r2, #65	@ 0x41
 8004b80:	6823      	ldr	r3, [r4, #0]
 8004b82:	4252      	negs	r2, r2
 8004b84:	611a      	str	r2, [r3, #16]
      htim->TriggerCallback(htim);
 8004b86:	238c      	movs	r3, #140	@ 0x8c
 8004b88:	0020      	movs	r0, r4
 8004b8a:	58e3      	ldr	r3, [r4, r3]
 8004b8c:	4798      	blx	r3
 8004b8e:	e7e8      	b.n	8004b62 <HAL_TIM_IRQHandler+0x5e>
      __HAL_TIM_CLEAR_FLAG(htim, TIM_FLAG_BREAK | TIM_FLAG_SYSTEM_BREAK);
 8004b90:	6823      	ldr	r3, [r4, #0]
 8004b92:	4a47      	ldr	r2, [pc, #284]	@ (8004cb0 <HAL_TIM_IRQHandler+0x1ac>)
      htim->BreakCallback(htim);
 8004b94:	0020      	movs	r0, r4
      __HAL_TIM_CLEAR_FLAG(htim, TIM_FLAG_BREAK | TIM_FLAG_SYSTEM_BREAK);
 8004b96:	611a      	str	r2, [r3, #16]
      htim->BreakCallback(htim);
 8004b98:	23b4      	movs	r3, #180	@ 0xb4
 8004b9a:	58e3      	ldr	r3, [r4, r3]
 8004b9c:	4798      	blx	r3
  if ((itflag & (TIM_FLAG_BREAK2)) == (TIM_FLAG_BREAK2))
 8004b9e:	2f00      	cmp	r7, #0
 8004ba0:	d0da      	beq.n	8004b58 <HAL_TIM_IRQHandler+0x54>
      __HAL_TIM_CLEAR_FLAG(htim, TIM_FLAG_BREAK2);
 8004ba2:	6823      	ldr	r3, [r4, #0]
 8004ba4:	4a43      	ldr	r2, [pc, #268]	@ (8004cb4 <HAL_TIM_IRQHandler+0x1b0>)
      htim->Break2Callback(htim);
 8004ba6:	0020      	movs	r0, r4
      __HAL_TIM_CLEAR_FLAG(htim, TIM_FLAG_BREAK2);
 8004ba8:	611a      	str	r2, [r3, #16]
      htim->Break2Callback(htim);
 8004baa:	23b8      	movs	r3, #184	@ 0xb8
 8004bac:	58e3      	ldr	r3, [r4, r3]
 8004bae:	4798      	blx	r3
 8004bb0:	e7d2      	b.n	8004b58 <HAL_TIM_IRQHandler+0x54>
      __HAL_TIM_CLEAR_FLAG(htim, TIM_FLAG_UPDATE);
 8004bb2:	2202      	movs	r2, #2
 8004bb4:	6823      	ldr	r3, [r4, #0]
 8004bb6:	4252      	negs	r2, r2
 8004bb8:	611a      	str	r2, [r3, #16]
      htim->PeriodElapsedCallback(htim);
 8004bba:	2384      	movs	r3, #132	@ 0x84
 8004bbc:	0020      	movs	r0, r4
 8004bbe:	58e3      	ldr	r3, [r4, r3]
 8004bc0:	4798      	blx	r3
  if ((itflag & (TIM_FLAG_BREAK2)) == (TIM_FLAG_BREAK2))
 8004bc2:	2780      	movs	r7, #128	@ 0x80
  if (((itflag & (TIM_FLAG_BREAK)) == (TIM_FLAG_BREAK)) || \
 8004bc4:	2382      	movs	r3, #130	@ 0x82
  if ((itflag & (TIM_FLAG_BREAK2)) == (TIM_FLAG_BREAK2))
 8004bc6:	007f      	lsls	r7, r7, #1
  if (((itflag & (TIM_FLAG_BREAK)) == (TIM_FLAG_BREAK)) || \
 8004bc8:	019b      	lsls	r3, r3, #6
  if ((itflag & (TIM_FLAG_BREAK2)) == (TIM_FLAG_BREAK2))
 8004bca:	402f      	ands	r7, r5
  if (((itflag & (TIM_FLAG_BREAK)) == (TIM_FLAG_BREAK)) || \
 8004bcc:	421d      	tst	r5, r3
 8004bce:	d1c1      	bne.n	8004b54 <HAL_TIM_IRQHandler+0x50>
  if ((itflag & (TIM_FLAG_BREAK2)) == (TIM_FLAG_BREAK2))
 8004bd0:	2f00      	cmp	r7, #0
 8004bd2:	d0c1      	beq.n	8004b58 <HAL_TIM_IRQHandler+0x54>
    if ((itsource & (TIM_IT_BREAK)) == (TIM_IT_BREAK))
 8004bd4:	0633      	lsls	r3, r6, #24
 8004bd6:	d5bf      	bpl.n	8004b58 <HAL_TIM_IRQHandler+0x54>
      __HAL_TIM_CLEAR_FLAG(htim, TIM_FLAG_BREAK2);
 8004bd8:	6823      	ldr	r3, [r4, #0]
 8004bda:	4a36      	ldr	r2, [pc, #216]	@ (8004cb4 <HAL_TIM_IRQHandler+0x1b0>)
      htim->Break2Callback(htim);
 8004bdc:	0020      	movs	r0, r4
      __HAL_TIM_CLEAR_FLAG(htim, TIM_FLAG_BREAK2);
 8004bde:	611a      	str	r2, [r3, #16]
      htim->Break2Callback(htim);
 8004be0:	23b8      	movs	r3, #184	@ 0xb8
 8004be2:	58e3      	ldr	r3, [r4, r3]
 8004be4:	4798      	blx	r3
 8004be6:	e7b7      	b.n	8004b58 <HAL_TIM_IRQHandler+0x54>
      __HAL_TIM_CLEAR_FLAG(htim, TIM_FLAG_CC4);
 8004be8:	2211      	movs	r2, #17
 8004bea:	6823      	ldr	r3, [r4, #0]
 8004bec:	4252      	negs	r2, r2
 8004bee:	611a      	str	r2, [r3, #16]
      htim->Channel = HAL_TIM_ACTIVE_CHANNEL_4;
 8004bf0:	3219      	adds	r2, #25
 8004bf2:	7722      	strb	r2, [r4, #28]
      if ((htim->Instance->CCMR2 & TIM_CCMR2_CC4S) != 0x00U)
 8004bf4:	69da      	ldr	r2, [r3, #28]
 8004bf6:	23c0      	movs	r3, #192	@ 0xc0
 8004bf8:	009b      	lsls	r3, r3, #2
 8004bfa:	421a      	tst	r2, r3
 8004bfc:	d153      	bne.n	8004ca6 <HAL_TIM_IRQHandler+0x1a2>
        htim->OC_DelayElapsedCallback(htim);
 8004bfe:	239c      	movs	r3, #156	@ 0x9c
 8004c00:	0020      	movs	r0, r4
 8004c02:	58e3      	ldr	r3, [r4, r3]
 8004c04:	4798      	blx	r3
        htim->PWM_PulseFinishedCallback(htim);
 8004c06:	23a0      	movs	r3, #160	@ 0xa0
 8004c08:	0020      	movs	r0, r4
 8004c0a:	58e3      	ldr	r3, [r4, r3]
 8004c0c:	4798      	blx	r3
      htim->Channel = HAL_TIM_ACTIVE_CHANNEL_CLEARED;
 8004c0e:	2300      	movs	r3, #0
 8004c10:	7723      	strb	r3, [r4, #28]
 8004c12:	e793      	b.n	8004b3c <HAL_TIM_IRQHandler+0x38>
      __HAL_TIM_CLEAR_FLAG(htim, TIM_FLAG_CC3);
 8004c14:	2209      	movs	r2, #9
 8004c16:	6823      	ldr	r3, [r4, #0]
 8004c18:	4252      	negs	r2, r2
 8004c1a:	611a      	str	r2, [r3, #16]
      htim->Channel = HAL_TIM_ACTIVE_CHANNEL_3;
 8004c1c:	320d      	adds	r2, #13
 8004c1e:	7722      	strb	r2, [r4, #28]
      if ((htim->Instance->CCMR2 & TIM_CCMR2_CC3S) != 0x00U)
 8004c20:	69db      	ldr	r3, [r3, #28]
 8004c22:	079b      	lsls	r3, r3, #30
 8004c24:	d13a      	bne.n	8004c9c <HAL_TIM_IRQHandler+0x198>
        htim->OC_DelayElapsedCallback(htim);
 8004c26:	239c      	movs	r3, #156	@ 0x9c
 8004c28:	0020      	movs	r0, r4
 8004c2a:	58e3      	ldr	r3, [r4, r3]
 8004c2c:	4798      	blx	r3
        htim->PWM_PulseFinishedCallback(htim);
 8004c2e:	23a0      	movs	r3, #160	@ 0xa0
 8004c30:	0020      	movs	r0, r4
 8004c32:	58e3      	ldr	r3, [r4, r3]
 8004c34:	4798      	blx	r3
      htim->Channel = HAL_TIM_ACTIVE_CHANNEL_CLEARED;
 8004c36:	2300      	movs	r3, #0
 8004c38:	7723      	strb	r3, [r4, #28]
 8004c3a:	e77a      	b.n	8004b32 <HAL_TIM_IRQHandler+0x2e>
      __HAL_TIM_CLEAR_FLAG(htim, TIM_FLAG_CC2);
 8004c3c:	2205      	movs	r2, #5
 8004c3e:	6823      	ldr	r3, [r4, #0]
 8004c40:	4252      	negs	r2, r2
 8004c42:	611a      	str	r2, [r3, #16]
      htim->Channel = HAL_TIM_ACTIVE_CHANNEL_2;
 8004c44:	3207      	adds	r2, #7
 8004c46:	7722      	strb	r2, [r4, #28]
      if ((htim->Instance->CCMR1 & TIM_CCMR1_CC2S) != 0x00U)
 8004c48:	699a      	ldr	r2, [r3, #24]
 8004c4a:	23c0      	movs	r3, #192	@ 0xc0
 8004c4c:	009b      	lsls	r3, r3, #2
 8004c4e:	421a      	tst	r2, r3
 8004c50:	d11f      	bne.n	8004c92 <HAL_TIM_IRQHandler+0x18e>
        htim->OC_DelayElapsedCallback(htim);
 8004c52:	239c      	movs	r3, #156	@ 0x9c
 8004c54:	0020      	movs	r0, r4
 8004c56:	58e3      	ldr	r3, [r4, r3]
 8004c58:	4798      	blx	r3
        htim->PWM_PulseFinishedCallback(htim);
 8004c5a:	23a0      	movs	r3, #160	@ 0xa0
 8004c5c:	0020      	movs	r0, r4
 8004c5e:	58e3      	ldr	r3, [r4, r3]
 8004c60:	4798      	blx	r3
      htim->Channel = HAL_TIM_ACTIVE_CHANNEL_CLEARED;
 8004c62:	2300      	movs	r3, #0
 8004c64:	7723      	strb	r3, [r4, #28]
 8004c66:	e75e      	b.n	8004b26 <HAL_TIM_IRQHandler+0x22>
        __HAL_TIM_CLEAR_FLAG(htim, TIM_FLAG_CC1);
 8004c68:	3a05      	subs	r2, #5
 8004c6a:	611a      	str	r2, [r3, #16]
        htim->Channel = HAL_TIM_ACTIVE_CHANNEL_1;
 8004c6c:	3204      	adds	r2, #4
 8004c6e:	7702      	strb	r2, [r0, #28]
        if ((htim->Instance->CCMR1 & TIM_CCMR1_CC1S) != 0x00U)
 8004c70:	699b      	ldr	r3, [r3, #24]
 8004c72:	079b      	lsls	r3, r3, #30
 8004c74:	d109      	bne.n	8004c8a <HAL_TIM_IRQHandler+0x186>
          htim->OC_DelayElapsedCallback(htim);
 8004c76:	239c      	movs	r3, #156	@ 0x9c
 8004c78:	58c3      	ldr	r3, [r0, r3]
 8004c7a:	4798      	blx	r3
          htim->PWM_PulseFinishedCallback(htim);
 8004c7c:	23a0      	movs	r3, #160	@ 0xa0
 8004c7e:	0020      	movs	r0, r4
 8004c80:	58e3      	ldr	r3, [r4, r3]
 8004c82:	4798      	blx	r3
        htim->Channel = HAL_TIM_ACTIVE_CHANNEL_CLEARED;
 8004c84:	2300      	movs	r3, #0
 8004c86:	7723      	strb	r3, [r4, #28]
 8004c88:	e747      	b.n	8004b1a <HAL_TIM_IRQHandler+0x16>
          htim->IC_CaptureCallback(htim);
 8004c8a:	2394      	movs	r3, #148	@ 0x94
 8004c8c:	58c3      	ldr	r3, [r0, r3]
 8004c8e:	4798      	blx	r3
 8004c90:	e7f8      	b.n	8004c84 <HAL_TIM_IRQHandler+0x180>
        htim->IC_CaptureCallback(htim);
 8004c92:	2394      	movs	r3, #148	@ 0x94
 8004c94:	0020      	movs	r0, r4
 8004c96:	58e3      	ldr	r3, [r4, r3]
 8004c98:	4798      	blx	r3
 8004c9a:	e7e2      	b.n	8004c62 <HAL_TIM_IRQHandler+0x15e>
        htim->IC_CaptureCallback(htim);
 8004c9c:	2394      	movs	r3, #148	@ 0x94
 8004c9e:	0020      	movs	r0, r4
 8004ca0:	58e3      	ldr	r3, [r4, r3]
 8004ca2:	4798      	blx	r3
 8004ca4:	e7c7      	b.n	8004c36 <HAL_TIM_IRQHandler+0x132>
        htim->IC_CaptureCallback(htim);
 8004ca6:	2394      	movs	r3, #148	@ 0x94
 8004ca8:	0020      	movs	r0, r4
 8004caa:	58e3      	ldr	r3, [r4, r3]
 8004cac:	4798      	blx	r3
 8004cae:	e7ae      	b.n	8004c0e <HAL_TIM_IRQHandler+0x10a>
 8004cb0:	ffffdf7f 	.word	0xffffdf7f
 8004cb4:	fffffeff 	.word	0xfffffeff

08004cb8 <HAL_TIM_OC_ConfigChannel>:
  __HAL_LOCK(htim);
 8004cb8:	233c      	movs	r3, #60	@ 0x3c
{
 8004cba:	b5f0      	push	{r4, r5, r6, r7, lr}
  __HAL_LOCK(htim);
 8004cbc:	5cc3      	ldrb	r3, [r0, r3]
{
 8004cbe:	0004      	movs	r4, r0
  __HAL_LOCK(htim);
 8004cc0:	2b01      	cmp	r3, #1
 8004cc2:	d100      	bne.n	8004cc6 <HAL_TIM_OC_ConfigChannel+0xe>
 8004cc4:	e119      	b.n	8004efa <HAL_TIM_OC_ConfigChannel+0x242>
  switch (Channel)
 8004cc6:	2a14      	cmp	r2, #20
 8004cc8:	d803      	bhi.n	8004cd2 <HAL_TIM_OC_ConfigChannel+0x1a>
 8004cca:	4b8d      	ldr	r3, [pc, #564]	@ (8004f00 <HAL_TIM_OC_ConfigChannel+0x248>)
 8004ccc:	0092      	lsls	r2, r2, #2
 8004cce:	589b      	ldr	r3, [r3, r2]
 8004cd0:	469f      	mov	pc, r3
 8004cd2:	2001      	movs	r0, #1
  __HAL_UNLOCK(htim);
 8004cd4:	233c      	movs	r3, #60	@ 0x3c
 8004cd6:	2200      	movs	r2, #0
 8004cd8:	54e2      	strb	r2, [r4, r3]
}
 8004cda:	bdf0      	pop	{r4, r5, r6, r7, pc}
      TIM_OC6_SetConfig(htim->Instance, sConfig);
 8004cdc:	6803      	ldr	r3, [r0, #0]
  TIMx->CCER &= ~TIM_CCER_CC6E;
 8004cde:	4d89      	ldr	r5, [pc, #548]	@ (8004f04 <HAL_TIM_OC_ConfigChannel+0x24c>)
  tmpccer = TIMx->CCER;
 8004ce0:	6a18      	ldr	r0, [r3, #32]
  TIMx->CCER &= ~TIM_CCER_CC6E;
 8004ce2:	6a1a      	ldr	r2, [r3, #32]
 8004ce4:	402a      	ands	r2, r5
 8004ce6:	621a      	str	r2, [r3, #32]
  tmpccmrx &= ~(TIM_CCMR3_OC6M);
 8004ce8:	4d87      	ldr	r5, [pc, #540]	@ (8004f08 <HAL_TIM_OC_ConfigChannel+0x250>)
  tmpcr2 =  TIMx->CR2;
 8004cea:	685e      	ldr	r6, [r3, #4]
  tmpccmrx = TIMx->CCMR3;
 8004cec:	6d5a      	ldr	r2, [r3, #84]	@ 0x54
  tmpccmrx &= ~(TIM_CCMR3_OC6M);
 8004cee:	402a      	ands	r2, r5
  tmpccmrx |= (OC_Config->OCMode << 8U);
 8004cf0:	680d      	ldr	r5, [r1, #0]
 8004cf2:	022d      	lsls	r5, r5, #8
 8004cf4:	4315      	orrs	r5, r2
  tmpccer &= (uint32_t)~TIM_CCER_CC6P;
 8004cf6:	4a85      	ldr	r2, [pc, #532]	@ (8004f0c <HAL_TIM_OC_ConfigChannel+0x254>)
 8004cf8:	4010      	ands	r0, r2
  tmpccer |= (OC_Config->OCPolarity << 20U);
 8004cfa:	688a      	ldr	r2, [r1, #8]
 8004cfc:	0512      	lsls	r2, r2, #20
 8004cfe:	4302      	orrs	r2, r0
  if (IS_TIM_BREAK_INSTANCE(TIMx))
 8004d00:	4883      	ldr	r0, [pc, #524]	@ (8004f10 <HAL_TIM_OC_ConfigChannel+0x258>)
 8004d02:	4283      	cmp	r3, r0
 8004d04:	d100      	bne.n	8004d08 <HAL_TIM_OC_ConfigChannel+0x50>
 8004d06:	e0c8      	b.n	8004e9a <HAL_TIM_OC_ConfigChannel+0x1e2>
 8004d08:	4882      	ldr	r0, [pc, #520]	@ (8004f14 <HAL_TIM_OC_ConfigChannel+0x25c>)
 8004d0a:	4283      	cmp	r3, r0
 8004d0c:	d100      	bne.n	8004d10 <HAL_TIM_OC_ConfigChannel+0x58>
 8004d0e:	e0c4      	b.n	8004e9a <HAL_TIM_OC_ConfigChannel+0x1e2>
 8004d10:	4881      	ldr	r0, [pc, #516]	@ (8004f18 <HAL_TIM_OC_ConfigChannel+0x260>)
 8004d12:	4283      	cmp	r3, r0
 8004d14:	d100      	bne.n	8004d18 <HAL_TIM_OC_ConfigChannel+0x60>
 8004d16:	e0c0      	b.n	8004e9a <HAL_TIM_OC_ConfigChannel+0x1e2>
  TIMx->CCR6 = OC_Config->Pulse;
 8004d18:	6849      	ldr	r1, [r1, #4]
  TIMx->CR2 = tmpcr2;
 8004d1a:	605e      	str	r6, [r3, #4]
  HAL_StatusTypeDef status = HAL_OK;
 8004d1c:	2000      	movs	r0, #0
  TIMx->CCMR3 = tmpccmrx;
 8004d1e:	655d      	str	r5, [r3, #84]	@ 0x54
  TIMx->CCR6 = OC_Config->Pulse;
 8004d20:	65d9      	str	r1, [r3, #92]	@ 0x5c
  TIMx->CCER = tmpccer;
 8004d22:	621a      	str	r2, [r3, #32]
 8004d24:	e7d6      	b.n	8004cd4 <HAL_TIM_OC_ConfigChannel+0x1c>
  TIMx->CCER &= ~TIM_CCER_CC1E;
 8004d26:	2501      	movs	r5, #1
      TIM_OC1_SetConfig(htim->Instance, sConfig);
 8004d28:	6803      	ldr	r3, [r0, #0]
  tmpccmrx &= ~TIM_CCMR1_CC1S;
 8004d2a:	4e7c      	ldr	r6, [pc, #496]	@ (8004f1c <HAL_TIM_OC_ConfigChannel+0x264>)
  tmpccer = TIMx->CCER;
 8004d2c:	6a1a      	ldr	r2, [r3, #32]
  TIMx->CCER &= ~TIM_CCER_CC1E;
 8004d2e:	6a18      	ldr	r0, [r3, #32]
 8004d30:	43a8      	bics	r0, r5
 8004d32:	6218      	str	r0, [r3, #32]
  tmpcr2 =  TIMx->CR2;
 8004d34:	685d      	ldr	r5, [r3, #4]
  tmpccmrx = TIMx->CCMR1;
 8004d36:	6998      	ldr	r0, [r3, #24]
  tmpccmrx &= ~TIM_CCMR1_CC1S;
 8004d38:	4030      	ands	r0, r6
  tmpccmrx |= OC_Config->OCMode;
 8004d3a:	680e      	ldr	r6, [r1, #0]
 8004d3c:	4330      	orrs	r0, r6
  tmpccer &= ~TIM_CCER_CC1P;
 8004d3e:	2602      	movs	r6, #2
 8004d40:	43b2      	bics	r2, r6
  tmpccer |= OC_Config->OCPolarity;
 8004d42:	688e      	ldr	r6, [r1, #8]
 8004d44:	4332      	orrs	r2, r6
  if (IS_TIM_CCXN_INSTANCE(TIMx, TIM_CHANNEL_1))
 8004d46:	4e72      	ldr	r6, [pc, #456]	@ (8004f10 <HAL_TIM_OC_ConfigChannel+0x258>)
 8004d48:	42b3      	cmp	r3, r6
 8004d4a:	d100      	bne.n	8004d4e <HAL_TIM_OC_ConfigChannel+0x96>
 8004d4c:	e098      	b.n	8004e80 <HAL_TIM_OC_ConfigChannel+0x1c8>
 8004d4e:	4e71      	ldr	r6, [pc, #452]	@ (8004f14 <HAL_TIM_OC_ConfigChannel+0x25c>)
 8004d50:	42b3      	cmp	r3, r6
 8004d52:	d100      	bne.n	8004d56 <HAL_TIM_OC_ConfigChannel+0x9e>
 8004d54:	e094      	b.n	8004e80 <HAL_TIM_OC_ConfigChannel+0x1c8>
 8004d56:	4e70      	ldr	r6, [pc, #448]	@ (8004f18 <HAL_TIM_OC_ConfigChannel+0x260>)
 8004d58:	42b3      	cmp	r3, r6
 8004d5a:	d100      	bne.n	8004d5e <HAL_TIM_OC_ConfigChannel+0xa6>
 8004d5c:	e090      	b.n	8004e80 <HAL_TIM_OC_ConfigChannel+0x1c8>
  TIMx->CCR1 = OC_Config->Pulse;
 8004d5e:	6849      	ldr	r1, [r1, #4]
  TIMx->CR2 = tmpcr2;
 8004d60:	605d      	str	r5, [r3, #4]
  TIMx->CCMR1 = tmpccmrx;
 8004d62:	6198      	str	r0, [r3, #24]
  TIMx->CCR1 = OC_Config->Pulse;
 8004d64:	6359      	str	r1, [r3, #52]	@ 0x34
  HAL_StatusTypeDef status = HAL_OK;
 8004d66:	2000      	movs	r0, #0
  TIMx->CCER = tmpccer;
 8004d68:	621a      	str	r2, [r3, #32]
 8004d6a:	e7b3      	b.n	8004cd4 <HAL_TIM_OC_ConfigChannel+0x1c>
  TIMx->CCER &= ~TIM_CCER_CC2E;
 8004d6c:	2510      	movs	r5, #16
      TIM_OC2_SetConfig(htim->Instance, sConfig);
 8004d6e:	6803      	ldr	r3, [r0, #0]
  tmpccer = TIMx->CCER;
 8004d70:	6a1a      	ldr	r2, [r3, #32]
  TIMx->CCER &= ~TIM_CCER_CC2E;
 8004d72:	6a18      	ldr	r0, [r3, #32]
 8004d74:	43a8      	bics	r0, r5
 8004d76:	6218      	str	r0, [r3, #32]
  tmpccmrx &= ~TIM_CCMR1_CC2S;
 8004d78:	4d69      	ldr	r5, [pc, #420]	@ (8004f20 <HAL_TIM_OC_ConfigChannel+0x268>)
  tmpcr2 =  TIMx->CR2;
 8004d7a:	685e      	ldr	r6, [r3, #4]
  tmpccmrx = TIMx->CCMR1;
 8004d7c:	6998      	ldr	r0, [r3, #24]
  tmpccmrx &= ~TIM_CCMR1_CC2S;
 8004d7e:	4028      	ands	r0, r5
  tmpccmrx |= (OC_Config->OCMode << 8U);
 8004d80:	680d      	ldr	r5, [r1, #0]
 8004d82:	022d      	lsls	r5, r5, #8
 8004d84:	4305      	orrs	r5, r0
  tmpccer &= ~TIM_CCER_CC2P;
 8004d86:	2020      	movs	r0, #32
 8004d88:	4382      	bics	r2, r0
  tmpccer |= (OC_Config->OCPolarity << 4U);
 8004d8a:	6888      	ldr	r0, [r1, #8]
 8004d8c:	0100      	lsls	r0, r0, #4
 8004d8e:	4310      	orrs	r0, r2
  if (IS_TIM_CCXN_INSTANCE(TIMx, TIM_CHANNEL_2))
 8004d90:	4a5f      	ldr	r2, [pc, #380]	@ (8004f10 <HAL_TIM_OC_ConfigChannel+0x258>)
 8004d92:	4293      	cmp	r3, r2
 8004d94:	d100      	bne.n	8004d98 <HAL_TIM_OC_ConfigChannel+0xe0>
 8004d96:	e08c      	b.n	8004eb2 <HAL_TIM_OC_ConfigChannel+0x1fa>
  if (IS_TIM_BREAK_INSTANCE(TIMx))
 8004d98:	4a5e      	ldr	r2, [pc, #376]	@ (8004f14 <HAL_TIM_OC_ConfigChannel+0x25c>)
 8004d9a:	4293      	cmp	r3, r2
 8004d9c:	d100      	bne.n	8004da0 <HAL_TIM_OC_ConfigChannel+0xe8>
 8004d9e:	e08f      	b.n	8004ec0 <HAL_TIM_OC_ConfigChannel+0x208>
 8004da0:	4a5d      	ldr	r2, [pc, #372]	@ (8004f18 <HAL_TIM_OC_ConfigChannel+0x260>)
 8004da2:	4293      	cmp	r3, r2
 8004da4:	d100      	bne.n	8004da8 <HAL_TIM_OC_ConfigChannel+0xf0>
 8004da6:	e08b      	b.n	8004ec0 <HAL_TIM_OC_ConfigChannel+0x208>
  TIMx->CCR2 = OC_Config->Pulse;
 8004da8:	684a      	ldr	r2, [r1, #4]
  TIMx->CR2 = tmpcr2;
 8004daa:	605e      	str	r6, [r3, #4]
  TIMx->CCMR1 = tmpccmrx;
 8004dac:	619d      	str	r5, [r3, #24]
  TIMx->CCR2 = OC_Config->Pulse;
 8004dae:	639a      	str	r2, [r3, #56]	@ 0x38
  TIMx->CCER = tmpccer;
 8004db0:	6218      	str	r0, [r3, #32]
  HAL_StatusTypeDef status = HAL_OK;
 8004db2:	2000      	movs	r0, #0
 8004db4:	e78e      	b.n	8004cd4 <HAL_TIM_OC_ConfigChannel+0x1c>
      TIM_OC3_SetConfig(htim->Instance, sConfig);
 8004db6:	6803      	ldr	r3, [r0, #0]
  TIMx->CCER &= ~TIM_CCER_CC3E;
 8004db8:	4d5a      	ldr	r5, [pc, #360]	@ (8004f24 <HAL_TIM_OC_ConfigChannel+0x26c>)
  tmpccer = TIMx->CCER;
 8004dba:	6a1a      	ldr	r2, [r3, #32]
  TIMx->CCER &= ~TIM_CCER_CC3E;
 8004dbc:	6a18      	ldr	r0, [r3, #32]
  tmpccmrx &= ~TIM_CCMR2_CC3S;
 8004dbe:	4e57      	ldr	r6, [pc, #348]	@ (8004f1c <HAL_TIM_OC_ConfigChannel+0x264>)
  TIMx->CCER &= ~TIM_CCER_CC3E;
 8004dc0:	4028      	ands	r0, r5
 8004dc2:	6218      	str	r0, [r3, #32]
  tmpcr2 =  TIMx->CR2;
 8004dc4:	685d      	ldr	r5, [r3, #4]
  tmpccmrx = TIMx->CCMR2;
 8004dc6:	69d8      	ldr	r0, [r3, #28]
  tmpccmrx &= ~TIM_CCMR2_CC3S;
 8004dc8:	4030      	ands	r0, r6
  tmpccmrx |= OC_Config->OCMode;
 8004dca:	680e      	ldr	r6, [r1, #0]
 8004dcc:	4306      	orrs	r6, r0
  tmpccer &= ~TIM_CCER_CC3P;
 8004dce:	4856      	ldr	r0, [pc, #344]	@ (8004f28 <HAL_TIM_OC_ConfigChannel+0x270>)
 8004dd0:	4002      	ands	r2, r0
  tmpccer |= (OC_Config->OCPolarity << 8U);
 8004dd2:	6888      	ldr	r0, [r1, #8]
 8004dd4:	0200      	lsls	r0, r0, #8
 8004dd6:	4302      	orrs	r2, r0
  if (IS_TIM_CCXN_INSTANCE(TIMx, TIM_CHANNEL_3))
 8004dd8:	484d      	ldr	r0, [pc, #308]	@ (8004f10 <HAL_TIM_OC_ConfigChannel+0x258>)
 8004dda:	4283      	cmp	r3, r0
 8004ddc:	d07e      	beq.n	8004edc <HAL_TIM_OC_ConfigChannel+0x224>
  if (IS_TIM_BREAK_INSTANCE(TIMx))
 8004dde:	484d      	ldr	r0, [pc, #308]	@ (8004f14 <HAL_TIM_OC_ConfigChannel+0x25c>)
 8004de0:	4283      	cmp	r3, r0
 8004de2:	d100      	bne.n	8004de6 <HAL_TIM_OC_ConfigChannel+0x12e>
 8004de4:	e081      	b.n	8004eea <HAL_TIM_OC_ConfigChannel+0x232>
 8004de6:	484c      	ldr	r0, [pc, #304]	@ (8004f18 <HAL_TIM_OC_ConfigChannel+0x260>)
 8004de8:	4283      	cmp	r3, r0
 8004dea:	d07e      	beq.n	8004eea <HAL_TIM_OC_ConfigChannel+0x232>
  TIMx->CCR3 = OC_Config->Pulse;
 8004dec:	6849      	ldr	r1, [r1, #4]
  TIMx->CR2 = tmpcr2;
 8004dee:	605d      	str	r5, [r3, #4]
  HAL_StatusTypeDef status = HAL_OK;
 8004df0:	2000      	movs	r0, #0
  TIMx->CCMR2 = tmpccmrx;
 8004df2:	61de      	str	r6, [r3, #28]
  TIMx->CCR3 = OC_Config->Pulse;
 8004df4:	63d9      	str	r1, [r3, #60]	@ 0x3c
  TIMx->CCER = tmpccer;
 8004df6:	621a      	str	r2, [r3, #32]
 8004df8:	e76c      	b.n	8004cd4 <HAL_TIM_OC_ConfigChannel+0x1c>
      TIM_OC4_SetConfig(htim->Instance, sConfig);
 8004dfa:	6803      	ldr	r3, [r0, #0]
  TIMx->CCER &= ~TIM_CCER_CC4E;
 8004dfc:	4d4b      	ldr	r5, [pc, #300]	@ (8004f2c <HAL_TIM_OC_ConfigChannel+0x274>)
  tmpccer = TIMx->CCER;
 8004dfe:	6a18      	ldr	r0, [r3, #32]
  TIMx->CCER &= ~TIM_CCER_CC4E;
 8004e00:	6a1a      	ldr	r2, [r3, #32]
 8004e02:	402a      	ands	r2, r5
 8004e04:	621a      	str	r2, [r3, #32]
  tmpccmrx &= ~TIM_CCMR2_CC4S;
 8004e06:	4d46      	ldr	r5, [pc, #280]	@ (8004f20 <HAL_TIM_OC_ConfigChannel+0x268>)
  tmpcr2 =  TIMx->CR2;
 8004e08:	685e      	ldr	r6, [r3, #4]
  tmpccmrx = TIMx->CCMR2;
 8004e0a:	69da      	ldr	r2, [r3, #28]
  tmpccmrx &= ~TIM_CCMR2_CC4S;
 8004e0c:	402a      	ands	r2, r5
  tmpccmrx |= (OC_Config->OCMode << 8U);
 8004e0e:	680d      	ldr	r5, [r1, #0]
 8004e10:	022d      	lsls	r5, r5, #8
 8004e12:	4315      	orrs	r5, r2
  tmpccer &= ~TIM_CCER_CC4P;
 8004e14:	4a46      	ldr	r2, [pc, #280]	@ (8004f30 <HAL_TIM_OC_ConfigChannel+0x278>)
 8004e16:	4010      	ands	r0, r2
  tmpccer |= (OC_Config->OCPolarity << 12U);
 8004e18:	688a      	ldr	r2, [r1, #8]
 8004e1a:	0312      	lsls	r2, r2, #12
 8004e1c:	4302      	orrs	r2, r0
  if (IS_TIM_BREAK_INSTANCE(TIMx))
 8004e1e:	483c      	ldr	r0, [pc, #240]	@ (8004f10 <HAL_TIM_OC_ConfigChannel+0x258>)
 8004e20:	4283      	cmp	r3, r0
 8004e22:	d055      	beq.n	8004ed0 <HAL_TIM_OC_ConfigChannel+0x218>
 8004e24:	483b      	ldr	r0, [pc, #236]	@ (8004f14 <HAL_TIM_OC_ConfigChannel+0x25c>)
 8004e26:	4283      	cmp	r3, r0
 8004e28:	d052      	beq.n	8004ed0 <HAL_TIM_OC_ConfigChannel+0x218>
 8004e2a:	483b      	ldr	r0, [pc, #236]	@ (8004f18 <HAL_TIM_OC_ConfigChannel+0x260>)
 8004e2c:	4283      	cmp	r3, r0
 8004e2e:	d04f      	beq.n	8004ed0 <HAL_TIM_OC_ConfigChannel+0x218>
  TIMx->CCR4 = OC_Config->Pulse;
 8004e30:	6849      	ldr	r1, [r1, #4]
  TIMx->CR2 = tmpcr2;
 8004e32:	605e      	str	r6, [r3, #4]
  HAL_StatusTypeDef status = HAL_OK;
 8004e34:	2000      	movs	r0, #0
  TIMx->CCMR2 = tmpccmrx;
 8004e36:	61dd      	str	r5, [r3, #28]
  TIMx->CCR4 = OC_Config->Pulse;
 8004e38:	6419      	str	r1, [r3, #64]	@ 0x40
  TIMx->CCER = tmpccer;
 8004e3a:	621a      	str	r2, [r3, #32]
 8004e3c:	e74a      	b.n	8004cd4 <HAL_TIM_OC_ConfigChannel+0x1c>
      TIM_OC5_SetConfig(htim->Instance, sConfig);
 8004e3e:	6803      	ldr	r3, [r0, #0]
  TIMx->CCER &= ~TIM_CCER_CC5E;
 8004e40:	4d3c      	ldr	r5, [pc, #240]	@ (8004f34 <HAL_TIM_OC_ConfigChannel+0x27c>)
  tmpccer = TIMx->CCER;
 8004e42:	6a18      	ldr	r0, [r3, #32]
  TIMx->CCER &= ~TIM_CCER_CC5E;
 8004e44:	6a1a      	ldr	r2, [r3, #32]
 8004e46:	402a      	ands	r2, r5
 8004e48:	621a      	str	r2, [r3, #32]
  tmpccmrx &= ~(TIM_CCMR3_OC5M);
 8004e4a:	4d3b      	ldr	r5, [pc, #236]	@ (8004f38 <HAL_TIM_OC_ConfigChannel+0x280>)
  tmpcr2 =  TIMx->CR2;
 8004e4c:	685e      	ldr	r6, [r3, #4]
  tmpccmrx = TIMx->CCMR3;
 8004e4e:	6d5a      	ldr	r2, [r3, #84]	@ 0x54
  tmpccmrx &= ~(TIM_CCMR3_OC5M);
 8004e50:	402a      	ands	r2, r5
  tmpccmrx |= OC_Config->OCMode;
 8004e52:	680d      	ldr	r5, [r1, #0]
 8004e54:	4315      	orrs	r5, r2
  tmpccer &= ~TIM_CCER_CC5P;
 8004e56:	4a39      	ldr	r2, [pc, #228]	@ (8004f3c <HAL_TIM_OC_ConfigChannel+0x284>)
 8004e58:	4010      	ands	r0, r2
  tmpccer |= (OC_Config->OCPolarity << 16U);
 8004e5a:	688a      	ldr	r2, [r1, #8]
 8004e5c:	0412      	lsls	r2, r2, #16
 8004e5e:	4302      	orrs	r2, r0
  if (IS_TIM_BREAK_INSTANCE(TIMx))
 8004e60:	482b      	ldr	r0, [pc, #172]	@ (8004f10 <HAL_TIM_OC_ConfigChannel+0x258>)
 8004e62:	4283      	cmp	r3, r0
 8004e64:	d01f      	beq.n	8004ea6 <HAL_TIM_OC_ConfigChannel+0x1ee>
 8004e66:	482b      	ldr	r0, [pc, #172]	@ (8004f14 <HAL_TIM_OC_ConfigChannel+0x25c>)
 8004e68:	4283      	cmp	r3, r0
 8004e6a:	d01c      	beq.n	8004ea6 <HAL_TIM_OC_ConfigChannel+0x1ee>
 8004e6c:	482a      	ldr	r0, [pc, #168]	@ (8004f18 <HAL_TIM_OC_ConfigChannel+0x260>)
 8004e6e:	4283      	cmp	r3, r0
 8004e70:	d019      	beq.n	8004ea6 <HAL_TIM_OC_ConfigChannel+0x1ee>
  TIMx->CCR5 = OC_Config->Pulse;
 8004e72:	6849      	ldr	r1, [r1, #4]
  TIMx->CR2 = tmpcr2;
 8004e74:	605e      	str	r6, [r3, #4]
  HAL_StatusTypeDef status = HAL_OK;
 8004e76:	2000      	movs	r0, #0
  TIMx->CCMR3 = tmpccmrx;
 8004e78:	655d      	str	r5, [r3, #84]	@ 0x54
  TIMx->CCR5 = OC_Config->Pulse;
 8004e7a:	6599      	str	r1, [r3, #88]	@ 0x58
  TIMx->CCER = tmpccer;
 8004e7c:	621a      	str	r2, [r3, #32]
 8004e7e:	e729      	b.n	8004cd4 <HAL_TIM_OC_ConfigChannel+0x1c>
    tmpccer &= ~TIM_CCER_CC1NP;
 8004e80:	2608      	movs	r6, #8
 8004e82:	43b2      	bics	r2, r6
    tmpccer |= OC_Config->OCNPolarity;
 8004e84:	68ce      	ldr	r6, [r1, #12]
    tmpcr2 |= OC_Config->OCNIdleState;
 8004e86:	698f      	ldr	r7, [r1, #24]
    tmpccer |= OC_Config->OCNPolarity;
 8004e88:	4332      	orrs	r2, r6
    tmpccer &= ~TIM_CCER_CC1NE;
 8004e8a:	2604      	movs	r6, #4
 8004e8c:	43b2      	bics	r2, r6
    tmpcr2 &= ~TIM_CR2_OIS1N;
 8004e8e:	4e2c      	ldr	r6, [pc, #176]	@ (8004f40 <HAL_TIM_OC_ConfigChannel+0x288>)
 8004e90:	402e      	ands	r6, r5
    tmpcr2 |= OC_Config->OCNIdleState;
 8004e92:	694d      	ldr	r5, [r1, #20]
 8004e94:	433d      	orrs	r5, r7
 8004e96:	4335      	orrs	r5, r6
 8004e98:	e761      	b.n	8004d5e <HAL_TIM_OC_ConfigChannel+0xa6>
    tmpcr2 &= ~TIM_CR2_OIS6;
 8004e9a:	482a      	ldr	r0, [pc, #168]	@ (8004f44 <HAL_TIM_OC_ConfigChannel+0x28c>)
 8004e9c:	4030      	ands	r0, r6
    tmpcr2 |= (OC_Config->OCIdleState << 10U);
 8004e9e:	694e      	ldr	r6, [r1, #20]
 8004ea0:	02b6      	lsls	r6, r6, #10
 8004ea2:	4306      	orrs	r6, r0
 8004ea4:	e738      	b.n	8004d18 <HAL_TIM_OC_ConfigChannel+0x60>
    tmpcr2 &= ~TIM_CR2_OIS5;
 8004ea6:	4823      	ldr	r0, [pc, #140]	@ (8004f34 <HAL_TIM_OC_ConfigChannel+0x27c>)
 8004ea8:	4030      	ands	r0, r6
    tmpcr2 |= (OC_Config->OCIdleState << 8U);
 8004eaa:	694e      	ldr	r6, [r1, #20]
 8004eac:	0236      	lsls	r6, r6, #8
 8004eae:	4306      	orrs	r6, r0
 8004eb0:	e7df      	b.n	8004e72 <HAL_TIM_OC_ConfigChannel+0x1ba>
    tmpccer &= ~TIM_CCER_CC2NP;
 8004eb2:	2280      	movs	r2, #128	@ 0x80
 8004eb4:	4390      	bics	r0, r2
    tmpccer |= (OC_Config->OCNPolarity << 4U);
 8004eb6:	68ca      	ldr	r2, [r1, #12]
 8004eb8:	0112      	lsls	r2, r2, #4
 8004eba:	4310      	orrs	r0, r2
    tmpccer &= ~TIM_CCER_CC2NE;
 8004ebc:	2240      	movs	r2, #64	@ 0x40
 8004ebe:	4390      	bics	r0, r2
    tmpcr2 &= ~TIM_CR2_OIS2N;
 8004ec0:	4a21      	ldr	r2, [pc, #132]	@ (8004f48 <HAL_TIM_OC_ConfigChannel+0x290>)
    tmpcr2 |= (OC_Config->OCIdleState << 2U);
 8004ec2:	694f      	ldr	r7, [r1, #20]
    tmpcr2 &= ~TIM_CR2_OIS2N;
 8004ec4:	4032      	ands	r2, r6
    tmpcr2 |= (OC_Config->OCNIdleState << 2U);
 8004ec6:	698e      	ldr	r6, [r1, #24]
 8004ec8:	433e      	orrs	r6, r7
 8004eca:	00b6      	lsls	r6, r6, #2
 8004ecc:	4316      	orrs	r6, r2
 8004ece:	e76b      	b.n	8004da8 <HAL_TIM_OC_ConfigChannel+0xf0>
    tmpcr2 &= ~TIM_CR2_OIS4;
 8004ed0:	481e      	ldr	r0, [pc, #120]	@ (8004f4c <HAL_TIM_OC_ConfigChannel+0x294>)
 8004ed2:	4030      	ands	r0, r6
    tmpcr2 |= (OC_Config->OCIdleState << 6U);
 8004ed4:	694e      	ldr	r6, [r1, #20]
 8004ed6:	01b6      	lsls	r6, r6, #6
 8004ed8:	4306      	orrs	r6, r0
 8004eda:	e7a9      	b.n	8004e30 <HAL_TIM_OC_ConfigChannel+0x178>
    tmpccer &= ~TIM_CCER_CC3NP;
 8004edc:	481c      	ldr	r0, [pc, #112]	@ (8004f50 <HAL_TIM_OC_ConfigChannel+0x298>)
 8004ede:	4002      	ands	r2, r0
    tmpccer |= (OC_Config->OCNPolarity << 8U);
 8004ee0:	68c8      	ldr	r0, [r1, #12]
 8004ee2:	0200      	lsls	r0, r0, #8
 8004ee4:	4310      	orrs	r0, r2
    tmpccer &= ~TIM_CCER_CC3NE;
 8004ee6:	4a1b      	ldr	r2, [pc, #108]	@ (8004f54 <HAL_TIM_OC_ConfigChannel+0x29c>)
 8004ee8:	4002      	ands	r2, r0
    tmpcr2 &= ~TIM_CR2_OIS3N;
 8004eea:	481b      	ldr	r0, [pc, #108]	@ (8004f58 <HAL_TIM_OC_ConfigChannel+0x2a0>)
    tmpcr2 |= (OC_Config->OCIdleState << 4U);
 8004eec:	694f      	ldr	r7, [r1, #20]
    tmpcr2 &= ~TIM_CR2_OIS3N;
 8004eee:	4028      	ands	r0, r5
    tmpcr2 |= (OC_Config->OCNIdleState << 4U);
 8004ef0:	698d      	ldr	r5, [r1, #24]
 8004ef2:	433d      	orrs	r5, r7
 8004ef4:	012d      	lsls	r5, r5, #4
 8004ef6:	4305      	orrs	r5, r0
 8004ef8:	e778      	b.n	8004dec <HAL_TIM_OC_ConfigChannel+0x134>
  __HAL_LOCK(htim);
 8004efa:	2002      	movs	r0, #2
 8004efc:	e6ed      	b.n	8004cda <HAL_TIM_OC_ConfigChannel+0x22>
 8004efe:	46c0      	nop			@ (mov r8, r8)
 8004f00:	08007074 	.word	0x08007074
 8004f04:	ffefffff 	.word	0xffefffff
 8004f08:	feff8fff 	.word	0xfeff8fff
 8004f0c:	ffdfffff 	.word	0xffdfffff
 8004f10:	40012c00 	.word	0x40012c00
 8004f14:	40014400 	.word	0x40014400
 8004f18:	40014800 	.word	0x40014800
 8004f1c:	fffeff8c 	.word	0xfffeff8c
 8004f20:	feff8cff 	.word	0xfeff8cff
 8004f24:	fffffeff 	.word	0xfffffeff
 8004f28:	fffffdff 	.word	0xfffffdff
 8004f2c:	ffffefff 	.word	0xffffefff
 8004f30:	ffffdfff 	.word	0xffffdfff
 8004f34:	fffeffff 	.word	0xfffeffff
 8004f38:	fffeff8f 	.word	0xfffeff8f
 8004f3c:	fffdffff 	.word	0xfffdffff
 8004f40:	fffffcff 	.word	0xfffffcff
 8004f44:	fffbffff 	.word	0xfffbffff
 8004f48:	fffff3ff 	.word	0xfffff3ff
 8004f4c:	ffffbfff 	.word	0xffffbfff
 8004f50:	fffff7ff 	.word	0xfffff7ff
 8004f54:	fffffbff 	.word	0xfffffbff
 8004f58:	ffffcfff 	.word	0xffffcfff

08004f5c <HAL_TIM_IC_ConfigChannel>:
{
 8004f5c:	0003      	movs	r3, r0
  __HAL_LOCK(htim);
 8004f5e:	203c      	movs	r0, #60	@ 0x3c
{
 8004f60:	b5f0      	push	{r4, r5, r6, r7, lr}
 8004f62:	46ce      	mov	lr, r9
 8004f64:	4647      	mov	r7, r8
  __HAL_LOCK(htim);
 8004f66:	5c1c      	ldrb	r4, [r3, r0]
{
 8004f68:	b580      	push	{r7, lr}
  __HAL_LOCK(htim);
 8004f6a:	2c01      	cmp	r4, #1
 8004f6c:	d100      	bne.n	8004f70 <HAL_TIM_IC_ConfigChannel+0x14>
 8004f6e:	e0bf      	b.n	80050f0 <HAL_TIM_IC_ConfigChannel+0x194>
 8004f70:	2401      	movs	r4, #1
 8004f72:	541c      	strb	r4, [r3, r0]
  if (Channel == TIM_CHANNEL_1)
 8004f74:	2a00      	cmp	r2, #0
 8004f76:	d00e      	beq.n	8004f96 <HAL_TIM_IC_ConfigChannel+0x3a>
  else if (Channel == TIM_CHANNEL_2)
 8004f78:	2a04      	cmp	r2, #4
 8004f7a:	d039      	beq.n	8004ff0 <HAL_TIM_IC_ConfigChannel+0x94>
  else if (Channel == TIM_CHANNEL_3)
 8004f7c:	2a08      	cmp	r2, #8
 8004f7e:	d100      	bne.n	8004f82 <HAL_TIM_IC_ConfigChannel+0x26>
 8004f80:	e08d      	b.n	800509e <HAL_TIM_IC_ConfigChannel+0x142>
    status = HAL_ERROR;
 8004f82:	2001      	movs	r0, #1
  else if (Channel == TIM_CHANNEL_4)
 8004f84:	2a0c      	cmp	r2, #12
 8004f86:	d05a      	beq.n	800503e <HAL_TIM_IC_ConfigChannel+0xe2>
  __HAL_UNLOCK(htim);
 8004f88:	223c      	movs	r2, #60	@ 0x3c
 8004f8a:	2100      	movs	r1, #0
 8004f8c:	5499      	strb	r1, [r3, r2]
}
 8004f8e:	bcc0      	pop	{r6, r7}
 8004f90:	46b9      	mov	r9, r7
 8004f92:	46b0      	mov	r8, r6
 8004f94:	bdf0      	pop	{r4, r5, r6, r7, pc}
    TIM_TI1_SetConfig(htim->Instance,
 8004f96:	681a      	ldr	r2, [r3, #0]
                      sConfig->ICSelection,
 8004f98:	6848      	ldr	r0, [r1, #4]
  tmpccer = TIMx->CCER;
 8004f9a:	6a15      	ldr	r5, [r2, #32]
                      sConfig->ICSelection,
 8004f9c:	4681      	mov	r9, r0
  TIMx->CCER &= ~TIM_CCER_CC1E;
 8004f9e:	6a10      	ldr	r0, [r2, #32]
                      sConfig->ICPolarity,
 8004fa0:	680e      	ldr	r6, [r1, #0]
  TIMx->CCER &= ~TIM_CCER_CC1E;
 8004fa2:	43a0      	bics	r0, r4
                      sConfig->ICFilter);
 8004fa4:	68cf      	ldr	r7, [r1, #12]
  TIMx->CCER &= ~TIM_CCER_CC1E;
 8004fa6:	6210      	str	r0, [r2, #32]
  tmpccmr1 = TIMx->CCMR1;
 8004fa8:	6990      	ldr	r0, [r2, #24]
 8004faa:	4684      	mov	ip, r0
  if (IS_TIM_CC2_INSTANCE(TIMx) != RESET)
 8004fac:	4851      	ldr	r0, [pc, #324]	@ (80050f4 <HAL_TIM_IC_ConfigChannel+0x198>)
 8004fae:	4282      	cmp	r2, r0
 8004fb0:	d06e      	beq.n	8005090 <HAL_TIM_IC_ConfigChannel+0x134>
 8004fb2:	2080      	movs	r0, #128	@ 0x80
 8004fb4:	05c0      	lsls	r0, r0, #23
 8004fb6:	4282      	cmp	r2, r0
 8004fb8:	d06a      	beq.n	8005090 <HAL_TIM_IC_ConfigChannel+0x134>
 8004fba:	484f      	ldr	r0, [pc, #316]	@ (80050f8 <HAL_TIM_IC_ConfigChannel+0x19c>)
 8004fbc:	4282      	cmp	r2, r0
 8004fbe:	d067      	beq.n	8005090 <HAL_TIM_IC_ConfigChannel+0x134>
    tmpccmr1 |= TIM_CCMR1_CC1S_0;
 8004fc0:	4660      	mov	r0, ip
 8004fc2:	4320      	orrs	r0, r4
  tmpccmr1 &= ~TIM_CCMR1_IC1F;
 8004fc4:	24f0      	movs	r4, #240	@ 0xf0
  tmpccmr1 |= ((TIM_ICFilter << 4U) & TIM_CCMR1_IC1F);
 8004fc6:	013f      	lsls	r7, r7, #4
  tmpccmr1 &= ~TIM_CCMR1_IC1F;
 8004fc8:	43a0      	bics	r0, r4
  tmpccmr1 |= ((TIM_ICFilter << 4U) & TIM_CCMR1_IC1F);
 8004fca:	340f      	adds	r4, #15
 8004fcc:	403c      	ands	r4, r7
 8004fce:	4304      	orrs	r4, r0
  tmpccer &= ~(TIM_CCER_CC1P | TIM_CCER_CC1NP);
 8004fd0:	200a      	movs	r0, #10
  TIMx->CCMR1 = tmpccmr1;
 8004fd2:	6194      	str	r4, [r2, #24]
    htim->Instance->CCMR1 &= ~TIM_CCMR1_IC1PSC;
 8004fd4:	240c      	movs	r4, #12
  tmpccer &= ~(TIM_CCER_CC1P | TIM_CCER_CC1NP);
 8004fd6:	4385      	bics	r5, r0
  tmpccer |= (TIM_ICPolarity & (TIM_CCER_CC1P | TIM_CCER_CC1NP));
 8004fd8:	4030      	ands	r0, r6
 8004fda:	4328      	orrs	r0, r5
  TIMx->CCER = tmpccer;
 8004fdc:	6210      	str	r0, [r2, #32]
    htim->Instance->CCMR1 &= ~TIM_CCMR1_IC1PSC;
 8004fde:	6990      	ldr	r0, [r2, #24]
    htim->Instance->CCMR1 |= sConfig->ICPrescaler;
 8004fe0:	6889      	ldr	r1, [r1, #8]
    htim->Instance->CCMR1 &= ~TIM_CCMR1_IC1PSC;
 8004fe2:	43a0      	bics	r0, r4
 8004fe4:	6190      	str	r0, [r2, #24]
    htim->Instance->CCMR1 |= sConfig->ICPrescaler;
 8004fe6:	6990      	ldr	r0, [r2, #24]
 8004fe8:	4301      	orrs	r1, r0
 8004fea:	6191      	str	r1, [r2, #24]
  HAL_StatusTypeDef status = HAL_OK;
 8004fec:	2000      	movs	r0, #0
 8004fee:	e7cb      	b.n	8004f88 <HAL_TIM_IC_ConfigChannel+0x2c>
                      sConfig->ICFilter);
 8004ff0:	68c8      	ldr	r0, [r1, #12]
    TIM_TI2_SetConfig(htim->Instance,
 8004ff2:	681a      	ldr	r2, [r3, #0]
                      sConfig->ICFilter);
 8004ff4:	4680      	mov	r8, r0
  TIMx->CCER &= ~TIM_CCER_CC2E;
 8004ff6:	2010      	movs	r0, #16
  tmpccer = TIMx->CCER;
 8004ff8:	6a15      	ldr	r5, [r2, #32]
  TIMx->CCER &= ~TIM_CCER_CC2E;
 8004ffa:	6a17      	ldr	r7, [r2, #32]
                      sConfig->ICPolarity,
 8004ffc:	680e      	ldr	r6, [r1, #0]
  TIMx->CCER &= ~TIM_CCER_CC2E;
 8004ffe:	4387      	bics	r7, r0
                      sConfig->ICSelection,
 8005000:	684c      	ldr	r4, [r1, #4]
  TIMx->CCER &= ~TIM_CCER_CC2E;
 8005002:	6217      	str	r7, [r2, #32]
  tmpccmr1 = TIMx->CCMR1;
 8005004:	6997      	ldr	r7, [r2, #24]
  tmpccmr1 &= ~TIM_CCMR1_CC2S;
 8005006:	483d      	ldr	r0, [pc, #244]	@ (80050fc <HAL_TIM_IC_ConfigChannel+0x1a0>)
  tmpccmr1 |= (TIM_ICSelection << 8U);
 8005008:	0224      	lsls	r4, r4, #8
  tmpccmr1 &= ~TIM_CCMR1_CC2S;
 800500a:	4007      	ands	r7, r0
  tmpccmr1 |= ((TIM_ICFilter << 12U) & TIM_CCMR1_IC2F);
 800500c:	4640      	mov	r0, r8
  tmpccmr1 |= (TIM_ICSelection << 8U);
 800500e:	433c      	orrs	r4, r7
  tmpccmr1 &= ~TIM_CCMR1_IC2F;
 8005010:	4f3b      	ldr	r7, [pc, #236]	@ (8005100 <HAL_TIM_IC_ConfigChannel+0x1a4>)
  tmpccmr1 |= ((TIM_ICFilter << 12U) & TIM_CCMR1_IC2F);
 8005012:	0700      	lsls	r0, r0, #28
  tmpccmr1 &= ~TIM_CCMR1_IC2F;
 8005014:	403c      	ands	r4, r7
  tmpccmr1 |= ((TIM_ICFilter << 12U) & TIM_CCMR1_IC2F);
 8005016:	0c00      	lsrs	r0, r0, #16
 8005018:	4320      	orrs	r0, r4
  tmpccer &= ~(TIM_CCER_CC2P | TIM_CCER_CC2NP);
 800501a:	24a0      	movs	r4, #160	@ 0xa0
  tmpccer |= ((TIM_ICPolarity << 4U) & (TIM_CCER_CC2P | TIM_CCER_CC2NP));
 800501c:	0136      	lsls	r6, r6, #4
  tmpccer &= ~(TIM_CCER_CC2P | TIM_CCER_CC2NP);
 800501e:	43a5      	bics	r5, r4
  tmpccer |= ((TIM_ICPolarity << 4U) & (TIM_CCER_CC2P | TIM_CCER_CC2NP));
 8005020:	4034      	ands	r4, r6
 8005022:	432c      	orrs	r4, r5
  TIMx->CCMR1 = tmpccmr1 ;
 8005024:	6190      	str	r0, [r2, #24]
  TIMx->CCER = tmpccer;
 8005026:	6214      	str	r4, [r2, #32]
    htim->Instance->CCMR1 &= ~TIM_CCMR1_IC2PSC;
 8005028:	6990      	ldr	r0, [r2, #24]
 800502a:	4c36      	ldr	r4, [pc, #216]	@ (8005104 <HAL_TIM_IC_ConfigChannel+0x1a8>)
    htim->Instance->CCMR1 |= (sConfig->ICPrescaler << 8U);
 800502c:	6889      	ldr	r1, [r1, #8]
    htim->Instance->CCMR1 &= ~TIM_CCMR1_IC2PSC;
 800502e:	4020      	ands	r0, r4
 8005030:	6190      	str	r0, [r2, #24]
    htim->Instance->CCMR1 |= (sConfig->ICPrescaler << 8U);
 8005032:	6990      	ldr	r0, [r2, #24]
 8005034:	0209      	lsls	r1, r1, #8
 8005036:	4301      	orrs	r1, r0
 8005038:	6191      	str	r1, [r2, #24]
  HAL_StatusTypeDef status = HAL_OK;
 800503a:	2000      	movs	r0, #0
 800503c:	e7a4      	b.n	8004f88 <HAL_TIM_IC_ConfigChannel+0x2c>
                      sConfig->ICPolarity,
 800503e:	6808      	ldr	r0, [r1, #0]
    TIM_TI4_SetConfig(htim->Instance,
 8005040:	681a      	ldr	r2, [r3, #0]
                      sConfig->ICPolarity,
 8005042:	4680      	mov	r8, r0
  tmpccer = TIMx->CCER;
 8005044:	6a16      	ldr	r6, [r2, #32]
  TIMx->CCER &= ~TIM_CCER_CC4E;
 8005046:	4830      	ldr	r0, [pc, #192]	@ (8005108 <HAL_TIM_IC_ConfigChannel+0x1ac>)
 8005048:	6a17      	ldr	r7, [r2, #32]
                      sConfig->ICSelection,
 800504a:	684d      	ldr	r5, [r1, #4]
  TIMx->CCER &= ~TIM_CCER_CC4E;
 800504c:	4007      	ands	r7, r0
                      sConfig->ICFilter);
 800504e:	68cc      	ldr	r4, [r1, #12]
  TIMx->CCER &= ~TIM_CCER_CC4E;
 8005050:	6217      	str	r7, [r2, #32]
  tmpccmr2 = TIMx->CCMR2;
 8005052:	69d7      	ldr	r7, [r2, #28]
  tmpccmr2 &= ~TIM_CCMR2_CC4S;
 8005054:	4829      	ldr	r0, [pc, #164]	@ (80050fc <HAL_TIM_IC_ConfigChannel+0x1a0>)
  tmpccmr2 |= (TIM_ICSelection << 8U);
 8005056:	022d      	lsls	r5, r5, #8
  tmpccmr2 &= ~TIM_CCMR2_CC4S;
 8005058:	4007      	ands	r7, r0
  tmpccmr2 |= (TIM_ICSelection << 8U);
 800505a:	433d      	orrs	r5, r7
  tmpccmr2 &= ~TIM_CCMR2_IC4F;
 800505c:	4f28      	ldr	r7, [pc, #160]	@ (8005100 <HAL_TIM_IC_ConfigChannel+0x1a4>)
  tmpccmr2 |= ((TIM_ICFilter << 12U) & TIM_CCMR2_IC4F);
 800505e:	0724      	lsls	r4, r4, #28
  tmpccmr2 &= ~TIM_CCMR2_IC4F;
 8005060:	403d      	ands	r5, r7
  tmpccmr2 |= ((TIM_ICFilter << 12U) & TIM_CCMR2_IC4F);
 8005062:	0c24      	lsrs	r4, r4, #16
 8005064:	432c      	orrs	r4, r5
  tmpccer &= ~(TIM_CCER_CC4P | TIM_CCER_CC4NP);
 8005066:	4d29      	ldr	r5, [pc, #164]	@ (800510c <HAL_TIM_IC_ConfigChannel+0x1b0>)
  tmpccer |= ((TIM_ICPolarity << 12U) & (TIM_CCER_CC4P | TIM_CCER_CC4NP));
 8005068:	4640      	mov	r0, r8
  tmpccer &= ~(TIM_CCER_CC4P | TIM_CCER_CC4NP);
 800506a:	4035      	ands	r5, r6
  tmpccer |= ((TIM_ICPolarity << 12U) & (TIM_CCER_CC4P | TIM_CCER_CC4NP));
 800506c:	26a0      	movs	r6, #160	@ 0xa0
 800506e:	0300      	lsls	r0, r0, #12
 8005070:	0236      	lsls	r6, r6, #8
 8005072:	4030      	ands	r0, r6
 8005074:	4328      	orrs	r0, r5
  TIMx->CCMR2 = tmpccmr2;
 8005076:	61d4      	str	r4, [r2, #28]
  TIMx->CCER = tmpccer ;
 8005078:	6210      	str	r0, [r2, #32]
    htim->Instance->CCMR2 &= ~TIM_CCMR2_IC4PSC;
 800507a:	69d0      	ldr	r0, [r2, #28]
 800507c:	4c21      	ldr	r4, [pc, #132]	@ (8005104 <HAL_TIM_IC_ConfigChannel+0x1a8>)
    htim->Instance->CCMR2 |= (sConfig->ICPrescaler << 8U);
 800507e:	6889      	ldr	r1, [r1, #8]
    htim->Instance->CCMR2 &= ~TIM_CCMR2_IC4PSC;
 8005080:	4020      	ands	r0, r4
 8005082:	61d0      	str	r0, [r2, #28]
    htim->Instance->CCMR2 |= (sConfig->ICPrescaler << 8U);
 8005084:	69d0      	ldr	r0, [r2, #28]
 8005086:	0209      	lsls	r1, r1, #8
 8005088:	4301      	orrs	r1, r0
 800508a:	61d1      	str	r1, [r2, #28]
  HAL_StatusTypeDef status = HAL_OK;
 800508c:	2000      	movs	r0, #0
 800508e:	e77b      	b.n	8004f88 <HAL_TIM_IC_ConfigChannel+0x2c>
    tmpccmr1 &= ~TIM_CCMR1_CC1S;
 8005090:	2403      	movs	r4, #3
 8005092:	4660      	mov	r0, ip
 8005094:	43a0      	bics	r0, r4
 8005096:	0004      	movs	r4, r0
    tmpccmr1 |= TIM_ICSelection;
 8005098:	4648      	mov	r0, r9
 800509a:	4320      	orrs	r0, r4
 800509c:	e792      	b.n	8004fc4 <HAL_TIM_IC_ConfigChannel+0x68>
    TIM_TI3_SetConfig(htim->Instance,
 800509e:	681a      	ldr	r2, [r3, #0]
                      sConfig->ICPolarity,
 80050a0:	6808      	ldr	r0, [r1, #0]
  tmpccer = TIMx->CCER;
 80050a2:	6a16      	ldr	r6, [r2, #32]
                      sConfig->ICPolarity,
 80050a4:	4680      	mov	r8, r0
  TIMx->CCER &= ~TIM_CCER_CC3E;
 80050a6:	6a14      	ldr	r4, [r2, #32]
 80050a8:	4819      	ldr	r0, [pc, #100]	@ (8005110 <HAL_TIM_IC_ConfigChannel+0x1b4>)
                      sConfig->ICSelection,
 80050aa:	684d      	ldr	r5, [r1, #4]
  TIMx->CCER &= ~TIM_CCER_CC3E;
 80050ac:	4004      	ands	r4, r0
                      sConfig->ICFilter);
 80050ae:	68cf      	ldr	r7, [r1, #12]
  TIMx->CCER &= ~TIM_CCER_CC3E;
 80050b0:	6214      	str	r4, [r2, #32]
  tmpccmr2 = TIMx->CCMR2;
 80050b2:	69d4      	ldr	r4, [r2, #28]
  tmpccmr2 &= ~TIM_CCMR2_CC3S;
 80050b4:	3005      	adds	r0, #5
 80050b6:	30ff      	adds	r0, #255	@ 0xff
 80050b8:	4384      	bics	r4, r0
  tmpccmr2 |= TIM_ICSelection;
 80050ba:	4325      	orrs	r5, r4
  tmpccmr2 &= ~TIM_CCMR2_IC3F;
 80050bc:	24f0      	movs	r4, #240	@ 0xf0
  tmpccmr2 |= ((TIM_ICFilter << 4U) & TIM_CCMR2_IC3F);
 80050be:	013f      	lsls	r7, r7, #4
  tmpccmr2 &= ~TIM_CCMR2_IC3F;
 80050c0:	43a5      	bics	r5, r4
  tmpccmr2 |= ((TIM_ICFilter << 4U) & TIM_CCMR2_IC3F);
 80050c2:	340f      	adds	r4, #15
 80050c4:	403c      	ands	r4, r7
 80050c6:	432c      	orrs	r4, r5
  tmpccer &= ~(TIM_CCER_CC3P | TIM_CCER_CC3NP);
 80050c8:	4d12      	ldr	r5, [pc, #72]	@ (8005114 <HAL_TIM_IC_ConfigChannel+0x1b8>)
  tmpccer |= ((TIM_ICPolarity << 8U) & (TIM_CCER_CC3P | TIM_CCER_CC3NP));
 80050ca:	4640      	mov	r0, r8
  tmpccer &= ~(TIM_CCER_CC3P | TIM_CCER_CC3NP);
 80050cc:	4035      	ands	r5, r6
  tmpccer |= ((TIM_ICPolarity << 8U) & (TIM_CCER_CC3P | TIM_CCER_CC3NP));
 80050ce:	26a0      	movs	r6, #160	@ 0xa0
  TIMx->CCMR2 = tmpccmr2;
 80050d0:	61d4      	str	r4, [r2, #28]
    htim->Instance->CCMR2 &= ~TIM_CCMR2_IC3PSC;
 80050d2:	240c      	movs	r4, #12
  tmpccer |= ((TIM_ICPolarity << 8U) & (TIM_CCER_CC3P | TIM_CCER_CC3NP));
 80050d4:	0200      	lsls	r0, r0, #8
 80050d6:	0136      	lsls	r6, r6, #4
 80050d8:	4030      	ands	r0, r6
 80050da:	4328      	orrs	r0, r5
  TIMx->CCER = tmpccer;
 80050dc:	6210      	str	r0, [r2, #32]
    htim->Instance->CCMR2 &= ~TIM_CCMR2_IC3PSC;
 80050de:	69d0      	ldr	r0, [r2, #28]
    htim->Instance->CCMR2 |= sConfig->ICPrescaler;
 80050e0:	6889      	ldr	r1, [r1, #8]
    htim->Instance->CCMR2 &= ~TIM_CCMR2_IC3PSC;
 80050e2:	43a0      	bics	r0, r4
 80050e4:	61d0      	str	r0, [r2, #28]
    htim->Instance->CCMR2 |= sConfig->ICPrescaler;
 80050e6:	69d0      	ldr	r0, [r2, #28]
 80050e8:	4301      	orrs	r1, r0
 80050ea:	61d1      	str	r1, [r2, #28]
  HAL_StatusTypeDef status = HAL_OK;
 80050ec:	2000      	movs	r0, #0
 80050ee:	e74b      	b.n	8004f88 <HAL_TIM_IC_ConfigChannel+0x2c>
  __HAL_LOCK(htim);
 80050f0:	2002      	movs	r0, #2
 80050f2:	e74c      	b.n	8004f8e <HAL_TIM_IC_ConfigChannel+0x32>
 80050f4:	40012c00 	.word	0x40012c00
 80050f8:	40000400 	.word	0x40000400
 80050fc:	fffffcff 	.word	0xfffffcff
 8005100:	ffff0fff 	.word	0xffff0fff
 8005104:	fffff3ff 	.word	0xfffff3ff
 8005108:	ffffefff 	.word	0xffffefff
 800510c:	ffff5fff 	.word	0xffff5fff
 8005110:	fffffeff 	.word	0xfffffeff
 8005114:	fffff5ff 	.word	0xfffff5ff

08005118 <HAL_TIM_PWM_ConfigChannel>:
{
 8005118:	0003      	movs	r3, r0
  __HAL_LOCK(htim);
 800511a:	203c      	movs	r0, #60	@ 0x3c
{
 800511c:	b5f0      	push	{r4, r5, r6, r7, lr}
  __HAL_LOCK(htim);
 800511e:	5c1c      	ldrb	r4, [r3, r0]
 8005120:	2c01      	cmp	r4, #1
 8005122:	d100      	bne.n	8005126 <HAL_TIM_PWM_ConfigChannel+0xe>
 8005124:	e16b      	b.n	80053fe <HAL_TIM_PWM_ConfigChannel+0x2e6>
 8005126:	2401      	movs	r4, #1
 8005128:	541c      	strb	r4, [r3, r0]
  switch (Channel)
 800512a:	2a14      	cmp	r2, #20
 800512c:	d803      	bhi.n	8005136 <HAL_TIM_PWM_ConfigChannel+0x1e>
 800512e:	48b5      	ldr	r0, [pc, #724]	@ (8005404 <HAL_TIM_PWM_ConfigChannel+0x2ec>)
 8005130:	0092      	lsls	r2, r2, #2
 8005132:	5882      	ldr	r2, [r0, r2]
 8005134:	4697      	mov	pc, r2
 8005136:	2001      	movs	r0, #1
  __HAL_UNLOCK(htim);
 8005138:	223c      	movs	r2, #60	@ 0x3c
 800513a:	2100      	movs	r1, #0
 800513c:	5499      	strb	r1, [r3, r2]
}
 800513e:	bdf0      	pop	{r4, r5, r6, r7, pc}
      TIM_OC6_SetConfig(htim->Instance, sConfig);
 8005140:	681a      	ldr	r2, [r3, #0]
  TIMx->CCER &= ~TIM_CCER_CC6E;
 8005142:	4db1      	ldr	r5, [pc, #708]	@ (8005408 <HAL_TIM_PWM_ConfigChannel+0x2f0>)
  tmpccer = TIMx->CCER;
 8005144:	6a14      	ldr	r4, [r2, #32]
  TIMx->CCER &= ~TIM_CCER_CC6E;
 8005146:	6a10      	ldr	r0, [r2, #32]
 8005148:	4028      	ands	r0, r5
 800514a:	6210      	str	r0, [r2, #32]
  tmpccmrx &= ~(TIM_CCMR3_OC6M);
 800514c:	4daf      	ldr	r5, [pc, #700]	@ (800540c <HAL_TIM_PWM_ConfigChannel+0x2f4>)
  tmpcr2 =  TIMx->CR2;
 800514e:	6856      	ldr	r6, [r2, #4]
  tmpccmrx = TIMx->CCMR3;
 8005150:	6d50      	ldr	r0, [r2, #84]	@ 0x54
  tmpccmrx &= ~(TIM_CCMR3_OC6M);
 8005152:	4028      	ands	r0, r5
  tmpccmrx |= (OC_Config->OCMode << 8U);
 8005154:	680d      	ldr	r5, [r1, #0]
 8005156:	022d      	lsls	r5, r5, #8
 8005158:	4305      	orrs	r5, r0
  tmpccer &= (uint32_t)~TIM_CCER_CC6P;
 800515a:	48ad      	ldr	r0, [pc, #692]	@ (8005410 <HAL_TIM_PWM_ConfigChannel+0x2f8>)
 800515c:	4004      	ands	r4, r0
  tmpccer |= (OC_Config->OCPolarity << 20U);
 800515e:	6888      	ldr	r0, [r1, #8]
 8005160:	0500      	lsls	r0, r0, #20
 8005162:	4320      	orrs	r0, r4
  if (IS_TIM_BREAK_INSTANCE(TIMx))
 8005164:	4cab      	ldr	r4, [pc, #684]	@ (8005414 <HAL_TIM_PWM_ConfigChannel+0x2fc>)
 8005166:	42a2      	cmp	r2, r4
 8005168:	d100      	bne.n	800516c <HAL_TIM_PWM_ConfigChannel+0x54>
 800516a:	e118      	b.n	800539e <HAL_TIM_PWM_ConfigChannel+0x286>
 800516c:	4caa      	ldr	r4, [pc, #680]	@ (8005418 <HAL_TIM_PWM_ConfigChannel+0x300>)
 800516e:	42a2      	cmp	r2, r4
 8005170:	d100      	bne.n	8005174 <HAL_TIM_PWM_ConfigChannel+0x5c>
 8005172:	e114      	b.n	800539e <HAL_TIM_PWM_ConfigChannel+0x286>
 8005174:	4ca9      	ldr	r4, [pc, #676]	@ (800541c <HAL_TIM_PWM_ConfigChannel+0x304>)
 8005176:	42a2      	cmp	r2, r4
 8005178:	d100      	bne.n	800517c <HAL_TIM_PWM_ConfigChannel+0x64>
 800517a:	e110      	b.n	800539e <HAL_TIM_PWM_ConfigChannel+0x286>
  TIMx->CCR6 = OC_Config->Pulse;
 800517c:	684c      	ldr	r4, [r1, #4]
  TIMx->CR2 = tmpcr2;
 800517e:	6056      	str	r6, [r2, #4]
  TIMx->CCMR3 = tmpccmrx;
 8005180:	6555      	str	r5, [r2, #84]	@ 0x54
  TIMx->CCR6 = OC_Config->Pulse;
 8005182:	65d4      	str	r4, [r2, #92]	@ 0x5c
  TIMx->CCER = tmpccer;
 8005184:	6210      	str	r0, [r2, #32]
      htim->Instance->CCMR3 |= TIM_CCMR3_OC6PE;
 8005186:	2080      	movs	r0, #128	@ 0x80
 8005188:	6d54      	ldr	r4, [r2, #84]	@ 0x54
 800518a:	0100      	lsls	r0, r0, #4
 800518c:	4320      	orrs	r0, r4
 800518e:	6550      	str	r0, [r2, #84]	@ 0x54
      htim->Instance->CCMR3 &= ~TIM_CCMR3_OC6FE;
 8005190:	6d50      	ldr	r0, [r2, #84]	@ 0x54
 8005192:	4ca3      	ldr	r4, [pc, #652]	@ (8005420 <HAL_TIM_PWM_ConfigChannel+0x308>)
      htim->Instance->CCMR3 |= sConfig->OCFastMode << 8U;
 8005194:	6909      	ldr	r1, [r1, #16]
      htim->Instance->CCMR3 &= ~TIM_CCMR3_OC6FE;
 8005196:	4020      	ands	r0, r4
 8005198:	6550      	str	r0, [r2, #84]	@ 0x54
      htim->Instance->CCMR3 |= sConfig->OCFastMode << 8U;
 800519a:	6d50      	ldr	r0, [r2, #84]	@ 0x54
 800519c:	0209      	lsls	r1, r1, #8
 800519e:	4301      	orrs	r1, r0
 80051a0:	6551      	str	r1, [r2, #84]	@ 0x54
  HAL_StatusTypeDef status = HAL_OK;
 80051a2:	2000      	movs	r0, #0
 80051a4:	e7c8      	b.n	8005138 <HAL_TIM_PWM_ConfigChannel+0x20>
  TIMx->CCER &= ~TIM_CCER_CC1E;
 80051a6:	2501      	movs	r5, #1
      TIM_OC1_SetConfig(htim->Instance, sConfig);
 80051a8:	681a      	ldr	r2, [r3, #0]
  tmpccmrx &= ~TIM_CCMR1_CC1S;
 80051aa:	4e9e      	ldr	r6, [pc, #632]	@ (8005424 <HAL_TIM_PWM_ConfigChannel+0x30c>)
  tmpccer = TIMx->CCER;
 80051ac:	6a10      	ldr	r0, [r2, #32]
  TIMx->CCER &= ~TIM_CCER_CC1E;
 80051ae:	6a14      	ldr	r4, [r2, #32]
 80051b0:	43ac      	bics	r4, r5
 80051b2:	6214      	str	r4, [r2, #32]
  tmpcr2 =  TIMx->CR2;
 80051b4:	6855      	ldr	r5, [r2, #4]
  tmpccmrx = TIMx->CCMR1;
 80051b6:	6994      	ldr	r4, [r2, #24]
  tmpccmrx &= ~TIM_CCMR1_CC1S;
 80051b8:	4034      	ands	r4, r6
  tmpccmrx |= OC_Config->OCMode;
 80051ba:	680e      	ldr	r6, [r1, #0]
 80051bc:	4334      	orrs	r4, r6
  tmpccer &= ~TIM_CCER_CC1P;
 80051be:	2602      	movs	r6, #2
 80051c0:	43b0      	bics	r0, r6
  tmpccer |= OC_Config->OCPolarity;
 80051c2:	688e      	ldr	r6, [r1, #8]
 80051c4:	4330      	orrs	r0, r6
  if (IS_TIM_CCXN_INSTANCE(TIMx, TIM_CHANNEL_1))
 80051c6:	4e93      	ldr	r6, [pc, #588]	@ (8005414 <HAL_TIM_PWM_ConfigChannel+0x2fc>)
 80051c8:	42b2      	cmp	r2, r6
 80051ca:	d100      	bne.n	80051ce <HAL_TIM_PWM_ConfigChannel+0xb6>
 80051cc:	e0da      	b.n	8005384 <HAL_TIM_PWM_ConfigChannel+0x26c>
 80051ce:	4e92      	ldr	r6, [pc, #584]	@ (8005418 <HAL_TIM_PWM_ConfigChannel+0x300>)
 80051d0:	42b2      	cmp	r2, r6
 80051d2:	d100      	bne.n	80051d6 <HAL_TIM_PWM_ConfigChannel+0xbe>
 80051d4:	e0d6      	b.n	8005384 <HAL_TIM_PWM_ConfigChannel+0x26c>
 80051d6:	4e91      	ldr	r6, [pc, #580]	@ (800541c <HAL_TIM_PWM_ConfigChannel+0x304>)
 80051d8:	42b2      	cmp	r2, r6
 80051da:	d100      	bne.n	80051de <HAL_TIM_PWM_ConfigChannel+0xc6>
 80051dc:	e0d2      	b.n	8005384 <HAL_TIM_PWM_ConfigChannel+0x26c>
  TIMx->CR2 = tmpcr2;
 80051de:	6055      	str	r5, [r2, #4]
  TIMx->CCMR1 = tmpccmrx;
 80051e0:	6194      	str	r4, [r2, #24]
  TIMx->CCR1 = OC_Config->Pulse;
 80051e2:	684c      	ldr	r4, [r1, #4]
      htim->Instance->CCMR1 |= sConfig->OCFastMode;
 80051e4:	6909      	ldr	r1, [r1, #16]
  TIMx->CCR1 = OC_Config->Pulse;
 80051e6:	6354      	str	r4, [r2, #52]	@ 0x34
      htim->Instance->CCMR1 |= TIM_CCMR1_OC1PE;
 80051e8:	2408      	movs	r4, #8
  TIMx->CCER = tmpccer;
 80051ea:	6210      	str	r0, [r2, #32]
      htim->Instance->CCMR1 |= TIM_CCMR1_OC1PE;
 80051ec:	6990      	ldr	r0, [r2, #24]
 80051ee:	4320      	orrs	r0, r4
 80051f0:	6190      	str	r0, [r2, #24]
      htim->Instance->CCMR1 &= ~TIM_CCMR1_OC1FE;
 80051f2:	6990      	ldr	r0, [r2, #24]
 80051f4:	3c04      	subs	r4, #4
 80051f6:	43a0      	bics	r0, r4
 80051f8:	6190      	str	r0, [r2, #24]
      htim->Instance->CCMR1 |= sConfig->OCFastMode;
 80051fa:	6990      	ldr	r0, [r2, #24]
 80051fc:	4301      	orrs	r1, r0
 80051fe:	6191      	str	r1, [r2, #24]
  HAL_StatusTypeDef status = HAL_OK;
 8005200:	2000      	movs	r0, #0
 8005202:	e799      	b.n	8005138 <HAL_TIM_PWM_ConfigChannel+0x20>
  TIMx->CCER &= ~TIM_CCER_CC2E;
 8005204:	2510      	movs	r5, #16
      TIM_OC2_SetConfig(htim->Instance, sConfig);
 8005206:	681a      	ldr	r2, [r3, #0]
  tmpccer = TIMx->CCER;
 8005208:	6a10      	ldr	r0, [r2, #32]
  TIMx->CCER &= ~TIM_CCER_CC2E;
 800520a:	6a14      	ldr	r4, [r2, #32]
 800520c:	43ac      	bics	r4, r5
 800520e:	6214      	str	r4, [r2, #32]
  tmpccmrx &= ~TIM_CCMR1_CC2S;
 8005210:	4d85      	ldr	r5, [pc, #532]	@ (8005428 <HAL_TIM_PWM_ConfigChannel+0x310>)
  tmpcr2 =  TIMx->CR2;
 8005212:	6856      	ldr	r6, [r2, #4]
  tmpccmrx = TIMx->CCMR1;
 8005214:	6994      	ldr	r4, [r2, #24]
  tmpccmrx &= ~TIM_CCMR1_CC2S;
 8005216:	402c      	ands	r4, r5
  tmpccmrx |= (OC_Config->OCMode << 8U);
 8005218:	680d      	ldr	r5, [r1, #0]
 800521a:	022d      	lsls	r5, r5, #8
 800521c:	4325      	orrs	r5, r4
  tmpccer &= ~TIM_CCER_CC2P;
 800521e:	2420      	movs	r4, #32
 8005220:	43a0      	bics	r0, r4
  tmpccer |= (OC_Config->OCPolarity << 4U);
 8005222:	688c      	ldr	r4, [r1, #8]
 8005224:	0124      	lsls	r4, r4, #4
 8005226:	4304      	orrs	r4, r0
  if (IS_TIM_CCXN_INSTANCE(TIMx, TIM_CHANNEL_2))
 8005228:	487a      	ldr	r0, [pc, #488]	@ (8005414 <HAL_TIM_PWM_ConfigChannel+0x2fc>)
 800522a:	4282      	cmp	r2, r0
 800522c:	d100      	bne.n	8005230 <HAL_TIM_PWM_ConfigChannel+0x118>
 800522e:	e0c2      	b.n	80053b6 <HAL_TIM_PWM_ConfigChannel+0x29e>
  if (IS_TIM_BREAK_INSTANCE(TIMx))
 8005230:	4879      	ldr	r0, [pc, #484]	@ (8005418 <HAL_TIM_PWM_ConfigChannel+0x300>)
 8005232:	4282      	cmp	r2, r0
 8005234:	d100      	bne.n	8005238 <HAL_TIM_PWM_ConfigChannel+0x120>
 8005236:	e0c5      	b.n	80053c4 <HAL_TIM_PWM_ConfigChannel+0x2ac>
 8005238:	4878      	ldr	r0, [pc, #480]	@ (800541c <HAL_TIM_PWM_ConfigChannel+0x304>)
 800523a:	4282      	cmp	r2, r0
 800523c:	d100      	bne.n	8005240 <HAL_TIM_PWM_ConfigChannel+0x128>
 800523e:	e0c1      	b.n	80053c4 <HAL_TIM_PWM_ConfigChannel+0x2ac>
  TIMx->CCR2 = OC_Config->Pulse;
 8005240:	6848      	ldr	r0, [r1, #4]
  TIMx->CR2 = tmpcr2;
 8005242:	6056      	str	r6, [r2, #4]
  TIMx->CCMR1 = tmpccmrx;
 8005244:	6195      	str	r5, [r2, #24]
  TIMx->CCR2 = OC_Config->Pulse;
 8005246:	6390      	str	r0, [r2, #56]	@ 0x38
      htim->Instance->CCMR1 |= TIM_CCMR1_OC2PE;
 8005248:	2080      	movs	r0, #128	@ 0x80
  TIMx->CCER = tmpccer;
 800524a:	6214      	str	r4, [r2, #32]
      htim->Instance->CCMR1 |= TIM_CCMR1_OC2PE;
 800524c:	6994      	ldr	r4, [r2, #24]
 800524e:	0100      	lsls	r0, r0, #4
 8005250:	4320      	orrs	r0, r4
 8005252:	6190      	str	r0, [r2, #24]
      htim->Instance->CCMR1 &= ~TIM_CCMR1_OC2FE;
 8005254:	6990      	ldr	r0, [r2, #24]
 8005256:	4c72      	ldr	r4, [pc, #456]	@ (8005420 <HAL_TIM_PWM_ConfigChannel+0x308>)
      htim->Instance->CCMR1 |= sConfig->OCFastMode << 8U;
 8005258:	6909      	ldr	r1, [r1, #16]
      htim->Instance->CCMR1 &= ~TIM_CCMR1_OC2FE;
 800525a:	4020      	ands	r0, r4
 800525c:	6190      	str	r0, [r2, #24]
      htim->Instance->CCMR1 |= sConfig->OCFastMode << 8U;
 800525e:	6990      	ldr	r0, [r2, #24]
 8005260:	0209      	lsls	r1, r1, #8
 8005262:	4301      	orrs	r1, r0
 8005264:	6191      	str	r1, [r2, #24]
  HAL_StatusTypeDef status = HAL_OK;
 8005266:	2000      	movs	r0, #0
 8005268:	e766      	b.n	8005138 <HAL_TIM_PWM_ConfigChannel+0x20>
      TIM_OC3_SetConfig(htim->Instance, sConfig);
 800526a:	681a      	ldr	r2, [r3, #0]
  TIMx->CCER &= ~TIM_CCER_CC3E;
 800526c:	4d6f      	ldr	r5, [pc, #444]	@ (800542c <HAL_TIM_PWM_ConfigChannel+0x314>)
  tmpccer = TIMx->CCER;
 800526e:	6a10      	ldr	r0, [r2, #32]
  TIMx->CCER &= ~TIM_CCER_CC3E;
 8005270:	6a14      	ldr	r4, [r2, #32]
  tmpccmrx &= ~TIM_CCMR2_CC3S;
 8005272:	4e6c      	ldr	r6, [pc, #432]	@ (8005424 <HAL_TIM_PWM_ConfigChannel+0x30c>)
  TIMx->CCER &= ~TIM_CCER_CC3E;
 8005274:	402c      	ands	r4, r5
 8005276:	6214      	str	r4, [r2, #32]
  tmpcr2 =  TIMx->CR2;
 8005278:	6855      	ldr	r5, [r2, #4]
  tmpccmrx = TIMx->CCMR2;
 800527a:	69d4      	ldr	r4, [r2, #28]
  tmpccmrx &= ~TIM_CCMR2_CC3S;
 800527c:	4034      	ands	r4, r6
  tmpccmrx |= OC_Config->OCMode;
 800527e:	680e      	ldr	r6, [r1, #0]
 8005280:	4326      	orrs	r6, r4
  tmpccer &= ~TIM_CCER_CC3P;
 8005282:	4c6b      	ldr	r4, [pc, #428]	@ (8005430 <HAL_TIM_PWM_ConfigChannel+0x318>)
 8005284:	4020      	ands	r0, r4
  tmpccer |= (OC_Config->OCPolarity << 8U);
 8005286:	688c      	ldr	r4, [r1, #8]
 8005288:	0224      	lsls	r4, r4, #8
 800528a:	4320      	orrs	r0, r4
  if (IS_TIM_CCXN_INSTANCE(TIMx, TIM_CHANNEL_3))
 800528c:	4c61      	ldr	r4, [pc, #388]	@ (8005414 <HAL_TIM_PWM_ConfigChannel+0x2fc>)
 800528e:	42a2      	cmp	r2, r4
 8005290:	d100      	bne.n	8005294 <HAL_TIM_PWM_ConfigChannel+0x17c>
 8005292:	e0a5      	b.n	80053e0 <HAL_TIM_PWM_ConfigChannel+0x2c8>
  if (IS_TIM_BREAK_INSTANCE(TIMx))
 8005294:	4c60      	ldr	r4, [pc, #384]	@ (8005418 <HAL_TIM_PWM_ConfigChannel+0x300>)
 8005296:	42a2      	cmp	r2, r4
 8005298:	d100      	bne.n	800529c <HAL_TIM_PWM_ConfigChannel+0x184>
 800529a:	e0a8      	b.n	80053ee <HAL_TIM_PWM_ConfigChannel+0x2d6>
 800529c:	4c5f      	ldr	r4, [pc, #380]	@ (800541c <HAL_TIM_PWM_ConfigChannel+0x304>)
 800529e:	42a2      	cmp	r2, r4
 80052a0:	d100      	bne.n	80052a4 <HAL_TIM_PWM_ConfigChannel+0x18c>
 80052a2:	e0a4      	b.n	80053ee <HAL_TIM_PWM_ConfigChannel+0x2d6>
  TIMx->CCR3 = OC_Config->Pulse;
 80052a4:	684c      	ldr	r4, [r1, #4]
  TIMx->CR2 = tmpcr2;
 80052a6:	6055      	str	r5, [r2, #4]
  TIMx->CCMR2 = tmpccmrx;
 80052a8:	61d6      	str	r6, [r2, #28]
  TIMx->CCR3 = OC_Config->Pulse;
 80052aa:	63d4      	str	r4, [r2, #60]	@ 0x3c
      htim->Instance->CCMR2 |= TIM_CCMR2_OC3PE;
 80052ac:	2408      	movs	r4, #8
  TIMx->CCER = tmpccer;
 80052ae:	6210      	str	r0, [r2, #32]
      htim->Instance->CCMR2 |= TIM_CCMR2_OC3PE;
 80052b0:	69d0      	ldr	r0, [r2, #28]
      htim->Instance->CCMR2 |= sConfig->OCFastMode;
 80052b2:	6909      	ldr	r1, [r1, #16]
      htim->Instance->CCMR2 |= TIM_CCMR2_OC3PE;
 80052b4:	4320      	orrs	r0, r4
 80052b6:	61d0      	str	r0, [r2, #28]
      htim->Instance->CCMR2 &= ~TIM_CCMR2_OC3FE;
 80052b8:	69d0      	ldr	r0, [r2, #28]
 80052ba:	3c04      	subs	r4, #4
 80052bc:	43a0      	bics	r0, r4
 80052be:	61d0      	str	r0, [r2, #28]
      htim->Instance->CCMR2 |= sConfig->OCFastMode;
 80052c0:	69d0      	ldr	r0, [r2, #28]
 80052c2:	4301      	orrs	r1, r0
 80052c4:	61d1      	str	r1, [r2, #28]
  HAL_StatusTypeDef status = HAL_OK;
 80052c6:	2000      	movs	r0, #0
 80052c8:	e736      	b.n	8005138 <HAL_TIM_PWM_ConfigChannel+0x20>
      TIM_OC4_SetConfig(htim->Instance, sConfig);
 80052ca:	681a      	ldr	r2, [r3, #0]
  TIMx->CCER &= ~TIM_CCER_CC4E;
 80052cc:	4d59      	ldr	r5, [pc, #356]	@ (8005434 <HAL_TIM_PWM_ConfigChannel+0x31c>)
  tmpccer = TIMx->CCER;
 80052ce:	6a14      	ldr	r4, [r2, #32]
  TIMx->CCER &= ~TIM_CCER_CC4E;
 80052d0:	6a10      	ldr	r0, [r2, #32]
 80052d2:	4028      	ands	r0, r5
 80052d4:	6210      	str	r0, [r2, #32]
  tmpccmrx &= ~TIM_CCMR2_CC4S;
 80052d6:	4d54      	ldr	r5, [pc, #336]	@ (8005428 <HAL_TIM_PWM_ConfigChannel+0x310>)
  tmpcr2 =  TIMx->CR2;
 80052d8:	6856      	ldr	r6, [r2, #4]
  tmpccmrx = TIMx->CCMR2;
 80052da:	69d0      	ldr	r0, [r2, #28]
  tmpccmrx &= ~TIM_CCMR2_CC4S;
 80052dc:	4028      	ands	r0, r5
  tmpccmrx |= (OC_Config->OCMode << 8U);
 80052de:	680d      	ldr	r5, [r1, #0]
 80052e0:	022d      	lsls	r5, r5, #8
 80052e2:	4305      	orrs	r5, r0
  tmpccer &= ~TIM_CCER_CC4P;
 80052e4:	4854      	ldr	r0, [pc, #336]	@ (8005438 <HAL_TIM_PWM_ConfigChannel+0x320>)
 80052e6:	4004      	ands	r4, r0
  tmpccer |= (OC_Config->OCPolarity << 12U);
 80052e8:	6888      	ldr	r0, [r1, #8]
 80052ea:	0300      	lsls	r0, r0, #12
 80052ec:	4320      	orrs	r0, r4
  if (IS_TIM_BREAK_INSTANCE(TIMx))
 80052ee:	4c49      	ldr	r4, [pc, #292]	@ (8005414 <HAL_TIM_PWM_ConfigChannel+0x2fc>)
 80052f0:	42a2      	cmp	r2, r4
 80052f2:	d06f      	beq.n	80053d4 <HAL_TIM_PWM_ConfigChannel+0x2bc>
 80052f4:	4c48      	ldr	r4, [pc, #288]	@ (8005418 <HAL_TIM_PWM_ConfigChannel+0x300>)
 80052f6:	42a2      	cmp	r2, r4
 80052f8:	d06c      	beq.n	80053d4 <HAL_TIM_PWM_ConfigChannel+0x2bc>
 80052fa:	4c48      	ldr	r4, [pc, #288]	@ (800541c <HAL_TIM_PWM_ConfigChannel+0x304>)
 80052fc:	42a2      	cmp	r2, r4
 80052fe:	d069      	beq.n	80053d4 <HAL_TIM_PWM_ConfigChannel+0x2bc>
  TIMx->CCR4 = OC_Config->Pulse;
 8005300:	684c      	ldr	r4, [r1, #4]
  TIMx->CR2 = tmpcr2;
 8005302:	6056      	str	r6, [r2, #4]
  TIMx->CCMR2 = tmpccmrx;
 8005304:	61d5      	str	r5, [r2, #28]
  TIMx->CCR4 = OC_Config->Pulse;
 8005306:	6414      	str	r4, [r2, #64]	@ 0x40
  TIMx->CCER = tmpccer;
 8005308:	6210      	str	r0, [r2, #32]
      htim->Instance->CCMR2 |= TIM_CCMR2_OC4PE;
 800530a:	2080      	movs	r0, #128	@ 0x80
 800530c:	69d4      	ldr	r4, [r2, #28]
 800530e:	0100      	lsls	r0, r0, #4
 8005310:	4320      	orrs	r0, r4
 8005312:	61d0      	str	r0, [r2, #28]
      htim->Instance->CCMR2 &= ~TIM_CCMR2_OC4FE;
 8005314:	69d0      	ldr	r0, [r2, #28]
 8005316:	4c42      	ldr	r4, [pc, #264]	@ (8005420 <HAL_TIM_PWM_ConfigChannel+0x308>)
      htim->Instance->CCMR2 |= sConfig->OCFastMode << 8U;
 8005318:	6909      	ldr	r1, [r1, #16]
      htim->Instance->CCMR2 &= ~TIM_CCMR2_OC4FE;
 800531a:	4020      	ands	r0, r4
 800531c:	61d0      	str	r0, [r2, #28]
      htim->Instance->CCMR2 |= sConfig->OCFastMode << 8U;
 800531e:	69d0      	ldr	r0, [r2, #28]
 8005320:	0209      	lsls	r1, r1, #8
 8005322:	4301      	orrs	r1, r0
 8005324:	61d1      	str	r1, [r2, #28]
  HAL_StatusTypeDef status = HAL_OK;
 8005326:	2000      	movs	r0, #0
 8005328:	e706      	b.n	8005138 <HAL_TIM_PWM_ConfigChannel+0x20>
      TIM_OC5_SetConfig(htim->Instance, sConfig);
 800532a:	681a      	ldr	r2, [r3, #0]
  TIMx->CCER &= ~TIM_CCER_CC5E;
 800532c:	4d43      	ldr	r5, [pc, #268]	@ (800543c <HAL_TIM_PWM_ConfigChannel+0x324>)
  tmpccer = TIMx->CCER;
 800532e:	6a14      	ldr	r4, [r2, #32]
  TIMx->CCER &= ~TIM_CCER_CC5E;
 8005330:	6a10      	ldr	r0, [r2, #32]
 8005332:	4028      	ands	r0, r5
 8005334:	6210      	str	r0, [r2, #32]
  tmpccmrx &= ~(TIM_CCMR3_OC5M);
 8005336:	4d42      	ldr	r5, [pc, #264]	@ (8005440 <HAL_TIM_PWM_ConfigChannel+0x328>)
  tmpcr2 =  TIMx->CR2;
 8005338:	6856      	ldr	r6, [r2, #4]
  tmpccmrx = TIMx->CCMR3;
 800533a:	6d50      	ldr	r0, [r2, #84]	@ 0x54
  tmpccmrx &= ~(TIM_CCMR3_OC5M);
 800533c:	4028      	ands	r0, r5
  tmpccmrx |= OC_Config->OCMode;
 800533e:	680d      	ldr	r5, [r1, #0]
 8005340:	4305      	orrs	r5, r0
  tmpccer &= ~TIM_CCER_CC5P;
 8005342:	4840      	ldr	r0, [pc, #256]	@ (8005444 <HAL_TIM_PWM_ConfigChannel+0x32c>)
 8005344:	4004      	ands	r4, r0
  tmpccer |= (OC_Config->OCPolarity << 16U);
 8005346:	6888      	ldr	r0, [r1, #8]
 8005348:	0400      	lsls	r0, r0, #16
 800534a:	4320      	orrs	r0, r4
  if (IS_TIM_BREAK_INSTANCE(TIMx))
 800534c:	4c31      	ldr	r4, [pc, #196]	@ (8005414 <HAL_TIM_PWM_ConfigChannel+0x2fc>)
 800534e:	42a2      	cmp	r2, r4
 8005350:	d02b      	beq.n	80053aa <HAL_TIM_PWM_ConfigChannel+0x292>
 8005352:	4c31      	ldr	r4, [pc, #196]	@ (8005418 <HAL_TIM_PWM_ConfigChannel+0x300>)
 8005354:	42a2      	cmp	r2, r4
 8005356:	d028      	beq.n	80053aa <HAL_TIM_PWM_ConfigChannel+0x292>
 8005358:	4c30      	ldr	r4, [pc, #192]	@ (800541c <HAL_TIM_PWM_ConfigChannel+0x304>)
 800535a:	42a2      	cmp	r2, r4
 800535c:	d025      	beq.n	80053aa <HAL_TIM_PWM_ConfigChannel+0x292>
  TIMx->CCR5 = OC_Config->Pulse;
 800535e:	684c      	ldr	r4, [r1, #4]
  TIMx->CR2 = tmpcr2;
 8005360:	6056      	str	r6, [r2, #4]
  TIMx->CCMR3 = tmpccmrx;
 8005362:	6555      	str	r5, [r2, #84]	@ 0x54
  TIMx->CCR5 = OC_Config->Pulse;
 8005364:	6594      	str	r4, [r2, #88]	@ 0x58
      htim->Instance->CCMR3 |= TIM_CCMR3_OC5PE;
 8005366:	2408      	movs	r4, #8
  TIMx->CCER = tmpccer;
 8005368:	6210      	str	r0, [r2, #32]
      htim->Instance->CCMR3 |= TIM_CCMR3_OC5PE;
 800536a:	6d50      	ldr	r0, [r2, #84]	@ 0x54
      htim->Instance->CCMR3 |= sConfig->OCFastMode;
 800536c:	6909      	ldr	r1, [r1, #16]
      htim->Instance->CCMR3 |= TIM_CCMR3_OC5PE;
 800536e:	4320      	orrs	r0, r4
 8005370:	6550      	str	r0, [r2, #84]	@ 0x54
      htim->Instance->CCMR3 &= ~TIM_CCMR3_OC5FE;
 8005372:	6d50      	ldr	r0, [r2, #84]	@ 0x54
 8005374:	3c04      	subs	r4, #4
 8005376:	43a0      	bics	r0, r4
 8005378:	6550      	str	r0, [r2, #84]	@ 0x54
      htim->Instance->CCMR3 |= sConfig->OCFastMode;
 800537a:	6d50      	ldr	r0, [r2, #84]	@ 0x54
 800537c:	4301      	orrs	r1, r0
 800537e:	6551      	str	r1, [r2, #84]	@ 0x54
  HAL_StatusTypeDef status = HAL_OK;
 8005380:	2000      	movs	r0, #0
 8005382:	e6d9      	b.n	8005138 <HAL_TIM_PWM_ConfigChannel+0x20>
    tmpccer &= ~TIM_CCER_CC1NP;
 8005384:	2608      	movs	r6, #8
 8005386:	43b0      	bics	r0, r6
    tmpccer |= OC_Config->OCNPolarity;
 8005388:	68ce      	ldr	r6, [r1, #12]
    tmpcr2 |= OC_Config->OCNIdleState;
 800538a:	698f      	ldr	r7, [r1, #24]
    tmpccer |= OC_Config->OCNPolarity;
 800538c:	4330      	orrs	r0, r6
    tmpccer &= ~TIM_CCER_CC1NE;
 800538e:	2604      	movs	r6, #4
 8005390:	43b0      	bics	r0, r6
    tmpcr2 &= ~TIM_CR2_OIS1N;
 8005392:	4e2d      	ldr	r6, [pc, #180]	@ (8005448 <HAL_TIM_PWM_ConfigChannel+0x330>)
 8005394:	402e      	ands	r6, r5
    tmpcr2 |= OC_Config->OCNIdleState;
 8005396:	694d      	ldr	r5, [r1, #20]
 8005398:	433d      	orrs	r5, r7
 800539a:	4335      	orrs	r5, r6
 800539c:	e71f      	b.n	80051de <HAL_TIM_PWM_ConfigChannel+0xc6>
    tmpcr2 &= ~TIM_CR2_OIS6;
 800539e:	4c2b      	ldr	r4, [pc, #172]	@ (800544c <HAL_TIM_PWM_ConfigChannel+0x334>)
 80053a0:	4034      	ands	r4, r6
    tmpcr2 |= (OC_Config->OCIdleState << 10U);
 80053a2:	694e      	ldr	r6, [r1, #20]
 80053a4:	02b6      	lsls	r6, r6, #10
 80053a6:	4326      	orrs	r6, r4
 80053a8:	e6e8      	b.n	800517c <HAL_TIM_PWM_ConfigChannel+0x64>
    tmpcr2 &= ~TIM_CR2_OIS5;
 80053aa:	4c24      	ldr	r4, [pc, #144]	@ (800543c <HAL_TIM_PWM_ConfigChannel+0x324>)
 80053ac:	4034      	ands	r4, r6
    tmpcr2 |= (OC_Config->OCIdleState << 8U);
 80053ae:	694e      	ldr	r6, [r1, #20]
 80053b0:	0236      	lsls	r6, r6, #8
 80053b2:	4326      	orrs	r6, r4
 80053b4:	e7d3      	b.n	800535e <HAL_TIM_PWM_ConfigChannel+0x246>
    tmpccer &= ~TIM_CCER_CC2NP;
 80053b6:	2080      	movs	r0, #128	@ 0x80
 80053b8:	4384      	bics	r4, r0
    tmpccer |= (OC_Config->OCNPolarity << 4U);
 80053ba:	68c8      	ldr	r0, [r1, #12]
 80053bc:	0100      	lsls	r0, r0, #4
 80053be:	4304      	orrs	r4, r0
    tmpccer &= ~TIM_CCER_CC2NE;
 80053c0:	2040      	movs	r0, #64	@ 0x40
 80053c2:	4384      	bics	r4, r0
    tmpcr2 &= ~TIM_CR2_OIS2N;
 80053c4:	4822      	ldr	r0, [pc, #136]	@ (8005450 <HAL_TIM_PWM_ConfigChannel+0x338>)
    tmpcr2 |= (OC_Config->OCIdleState << 2U);
 80053c6:	694f      	ldr	r7, [r1, #20]
    tmpcr2 &= ~TIM_CR2_OIS2N;
 80053c8:	4030      	ands	r0, r6
    tmpcr2 |= (OC_Config->OCNIdleState << 2U);
 80053ca:	698e      	ldr	r6, [r1, #24]
 80053cc:	433e      	orrs	r6, r7
 80053ce:	00b6      	lsls	r6, r6, #2
 80053d0:	4306      	orrs	r6, r0
 80053d2:	e735      	b.n	8005240 <HAL_TIM_PWM_ConfigChannel+0x128>
    tmpcr2 &= ~TIM_CR2_OIS4;
 80053d4:	4c1f      	ldr	r4, [pc, #124]	@ (8005454 <HAL_TIM_PWM_ConfigChannel+0x33c>)
 80053d6:	4034      	ands	r4, r6
    tmpcr2 |= (OC_Config->OCIdleState << 6U);
 80053d8:	694e      	ldr	r6, [r1, #20]
 80053da:	01b6      	lsls	r6, r6, #6
 80053dc:	4326      	orrs	r6, r4
 80053de:	e78f      	b.n	8005300 <HAL_TIM_PWM_ConfigChannel+0x1e8>
    tmpccer &= ~TIM_CCER_CC3NP;
 80053e0:	4c1d      	ldr	r4, [pc, #116]	@ (8005458 <HAL_TIM_PWM_ConfigChannel+0x340>)
 80053e2:	4020      	ands	r0, r4
    tmpccer |= (OC_Config->OCNPolarity << 8U);
 80053e4:	68cc      	ldr	r4, [r1, #12]
 80053e6:	0224      	lsls	r4, r4, #8
 80053e8:	4304      	orrs	r4, r0
    tmpccer &= ~TIM_CCER_CC3NE;
 80053ea:	480d      	ldr	r0, [pc, #52]	@ (8005420 <HAL_TIM_PWM_ConfigChannel+0x308>)
 80053ec:	4020      	ands	r0, r4
    tmpcr2 &= ~TIM_CR2_OIS3N;
 80053ee:	4c1b      	ldr	r4, [pc, #108]	@ (800545c <HAL_TIM_PWM_ConfigChannel+0x344>)
    tmpcr2 |= (OC_Config->OCIdleState << 4U);
 80053f0:	694f      	ldr	r7, [r1, #20]
    tmpcr2 &= ~TIM_CR2_OIS3N;
 80053f2:	402c      	ands	r4, r5
    tmpcr2 |= (OC_Config->OCNIdleState << 4U);
 80053f4:	698d      	ldr	r5, [r1, #24]
 80053f6:	433d      	orrs	r5, r7
 80053f8:	012d      	lsls	r5, r5, #4
 80053fa:	4325      	orrs	r5, r4
 80053fc:	e752      	b.n	80052a4 <HAL_TIM_PWM_ConfigChannel+0x18c>
  __HAL_LOCK(htim);
 80053fe:	2002      	movs	r0, #2
 8005400:	e69d      	b.n	800513e <HAL_TIM_PWM_ConfigChannel+0x26>
 8005402:	46c0      	nop			@ (mov r8, r8)
 8005404:	080070c8 	.word	0x080070c8
 8005408:	ffefffff 	.word	0xffefffff
 800540c:	feff8fff 	.word	0xfeff8fff
 8005410:	ffdfffff 	.word	0xffdfffff
 8005414:	40012c00 	.word	0x40012c00
 8005418:	40014400 	.word	0x40014400
 800541c:	40014800 	.word	0x40014800
 8005420:	fffffbff 	.word	0xfffffbff
 8005424:	fffeff8c 	.word	0xfffeff8c
 8005428:	feff8cff 	.word	0xfeff8cff
 800542c:	fffffeff 	.word	0xfffffeff
 8005430:	fffffdff 	.word	0xfffffdff
 8005434:	ffffefff 	.word	0xffffefff
 8005438:	ffffdfff 	.word	0xffffdfff
 800543c:	fffeffff 	.word	0xfffeffff
 8005440:	fffeff8f 	.word	0xfffeff8f
 8005444:	fffdffff 	.word	0xfffdffff
 8005448:	fffffcff 	.word	0xfffffcff
 800544c:	fffbffff 	.word	0xfffbffff
 8005450:	fffff3ff 	.word	0xfffff3ff
 8005454:	ffffbfff 	.word	0xffffbfff
 8005458:	fffff7ff 	.word	0xfffff7ff
 800545c:	ffffcfff 	.word	0xffffcfff

08005460 <HAL_TIM_ConfigClockSource>:
  __HAL_LOCK(htim);
 8005460:	233c      	movs	r3, #60	@ 0x3c
{
 8005462:	b570      	push	{r4, r5, r6, lr}
 8005464:	0002      	movs	r2, r0
  __HAL_LOCK(htim);
 8005466:	5cc0      	ldrb	r0, [r0, r3]
 8005468:	2801      	cmp	r0, #1
 800546a:	d100      	bne.n	800546e <HAL_TIM_ConfigClockSource+0xe>
 800546c:	e073      	b.n	8005556 <HAL_TIM_ConfigClockSource+0xf6>
 800546e:	2401      	movs	r4, #1
  htim->State = HAL_TIM_STATE_BUSY;
 8005470:	2002      	movs	r0, #2
  __HAL_LOCK(htim);
 8005472:	54d4      	strb	r4, [r2, r3]
  htim->State = HAL_TIM_STATE_BUSY;
 8005474:	3301      	adds	r3, #1
 8005476:	54d0      	strb	r0, [r2, r3]
  tmpsmcr = htim->Instance->SMCR;
 8005478:	6810      	ldr	r0, [r2, #0]
  tmpsmcr &= ~(TIM_SMCR_ETF | TIM_SMCR_ETPS | TIM_SMCR_ECE | TIM_SMCR_ETP);
 800547a:	4d51      	ldr	r5, [pc, #324]	@ (80055c0 <HAL_TIM_ConfigClockSource+0x160>)
  tmpsmcr = htim->Instance->SMCR;
 800547c:	6883      	ldr	r3, [r0, #8]
  tmpsmcr &= ~(TIM_SMCR_ETF | TIM_SMCR_ETPS | TIM_SMCR_ECE | TIM_SMCR_ETP);
 800547e:	402b      	ands	r3, r5
  htim->Instance->SMCR = tmpsmcr;
 8005480:	6083      	str	r3, [r0, #8]
  switch (sClockSourceConfig->ClockSource)
 8005482:	680b      	ldr	r3, [r1, #0]
 8005484:	2b60      	cmp	r3, #96	@ 0x60
 8005486:	d100      	bne.n	800548a <HAL_TIM_ConfigClockSource+0x2a>
 8005488:	e067      	b.n	800555a <HAL_TIM_ConfigClockSource+0xfa>
 800548a:	d81d      	bhi.n	80054c8 <HAL_TIM_ConfigClockSource+0x68>
 800548c:	2b40      	cmp	r3, #64	@ 0x40
 800548e:	d100      	bne.n	8005492 <HAL_TIM_ConfigClockSource+0x32>
 8005490:	e07d      	b.n	800558e <HAL_TIM_ConfigClockSource+0x12e>
 8005492:	d93f      	bls.n	8005514 <HAL_TIM_ConfigClockSource+0xb4>
 8005494:	2b50      	cmp	r3, #80	@ 0x50
 8005496:	d135      	bne.n	8005504 <HAL_TIM_ConfigClockSource+0xa4>
                               sClockSourceConfig->ClockPolarity,
 8005498:	684d      	ldr	r5, [r1, #4]
                               sClockSourceConfig->ClockFilter);
 800549a:	68cb      	ldr	r3, [r1, #12]
  tmpccer = TIMx->CCER;
 800549c:	6a01      	ldr	r1, [r0, #32]
  TIMx->CCER &= ~TIM_CCER_CC1E;
 800549e:	6a06      	ldr	r6, [r0, #32]
  tmpccmr1 |= (TIM_ICFilter << 4U);
 80054a0:	011b      	lsls	r3, r3, #4
  TIMx->CCER &= ~TIM_CCER_CC1E;
 80054a2:	43a6      	bics	r6, r4
 80054a4:	6206      	str	r6, [r0, #32]
  tmpccmr1 &= ~TIM_CCMR1_IC1F;
 80054a6:	26f0      	movs	r6, #240	@ 0xf0
  tmpccmr1 = TIMx->CCMR1;
 80054a8:	6984      	ldr	r4, [r0, #24]
  tmpccmr1 &= ~TIM_CCMR1_IC1F;
 80054aa:	43b4      	bics	r4, r6
  tmpccmr1 |= (TIM_ICFilter << 4U);
 80054ac:	4323      	orrs	r3, r4
  tmpccer &= ~(TIM_CCER_CC1P | TIM_CCER_CC1NP);
 80054ae:	240a      	movs	r4, #10
 80054b0:	43a1      	bics	r1, r4
  tmpccer |= TIM_ICPolarity;
 80054b2:	4329      	orrs	r1, r5
  TIMx->CCMR1 = tmpccmr1;
 80054b4:	6183      	str	r3, [r0, #24]
  TIMx->CCER = tmpccer;
 80054b6:	6201      	str	r1, [r0, #32]
  tmpsmcr = TIMx->SMCR;
 80054b8:	6883      	ldr	r3, [r0, #8]
  tmpsmcr &= ~TIM_SMCR_TS;
 80054ba:	4942      	ldr	r1, [pc, #264]	@ (80055c4 <HAL_TIM_ConfigClockSource+0x164>)
 80054bc:	400b      	ands	r3, r1
  tmpsmcr |= (InputTriggerSource | TIM_SLAVEMODE_EXTERNAL1);
 80054be:	2157      	movs	r1, #87	@ 0x57
 80054c0:	430b      	orrs	r3, r1
  TIMx->SMCR = tmpsmcr;
 80054c2:	6083      	str	r3, [r0, #8]
  HAL_StatusTypeDef status = HAL_OK;
 80054c4:	2000      	movs	r0, #0
 80054c6:	e01e      	b.n	8005506 <HAL_TIM_ConfigClockSource+0xa6>
  switch (sClockSourceConfig->ClockSource)
 80054c8:	2480      	movs	r4, #128	@ 0x80
 80054ca:	0164      	lsls	r4, r4, #5
 80054cc:	42a3      	cmp	r3, r4
 80054ce:	d0f9      	beq.n	80054c4 <HAL_TIM_ConfigClockSource+0x64>
 80054d0:	2480      	movs	r4, #128	@ 0x80
 80054d2:	01a4      	lsls	r4, r4, #6
 80054d4:	42a3      	cmp	r3, r4
 80054d6:	d12b      	bne.n	8005530 <HAL_TIM_ConfigClockSource+0xd0>
  tmpsmcr = TIMx->SMCR;
 80054d8:	6884      	ldr	r4, [r0, #8]
  tmpsmcr &= ~(TIM_SMCR_ETF | TIM_SMCR_ETPS | TIM_SMCR_ECE | TIM_SMCR_ETP);
 80054da:	4b3b      	ldr	r3, [pc, #236]	@ (80055c8 <HAL_TIM_ConfigClockSource+0x168>)
  tmpsmcr |= (uint32_t)(TIM_ExtTRGPrescaler | (TIM_ExtTRGPolarity | (ExtTRGFilter << 8U)));
 80054dc:	684d      	ldr	r5, [r1, #4]
  tmpsmcr &= ~(TIM_SMCR_ETF | TIM_SMCR_ETPS | TIM_SMCR_ECE | TIM_SMCR_ETP);
 80054de:	401c      	ands	r4, r3
  tmpsmcr |= (uint32_t)(TIM_ExtTRGPrescaler | (TIM_ExtTRGPolarity | (ExtTRGFilter << 8U)));
 80054e0:	688b      	ldr	r3, [r1, #8]
 80054e2:	68c9      	ldr	r1, [r1, #12]
 80054e4:	432b      	orrs	r3, r5
 80054e6:	0209      	lsls	r1, r1, #8
 80054e8:	430b      	orrs	r3, r1
 80054ea:	4323      	orrs	r3, r4
  TIMx->SMCR = tmpsmcr;
 80054ec:	6083      	str	r3, [r0, #8]
      htim->Instance->SMCR |= TIM_SMCR_ECE;
 80054ee:	2380      	movs	r3, #128	@ 0x80
 80054f0:	6881      	ldr	r1, [r0, #8]
 80054f2:	01db      	lsls	r3, r3, #7
 80054f4:	430b      	orrs	r3, r1
 80054f6:	6083      	str	r3, [r0, #8]
  HAL_StatusTypeDef status = HAL_OK;
 80054f8:	2000      	movs	r0, #0
 80054fa:	e004      	b.n	8005506 <HAL_TIM_ConfigClockSource+0xa6>
  switch (sClockSourceConfig->ClockSource)
 80054fc:	2110      	movs	r1, #16
 80054fe:	001c      	movs	r4, r3
 8005500:	438c      	bics	r4, r1
 8005502:	d00c      	beq.n	800551e <HAL_TIM_ConfigClockSource+0xbe>
      status = HAL_ERROR;
 8005504:	2001      	movs	r0, #1
  htim->State = HAL_TIM_STATE_READY;
 8005506:	233d      	movs	r3, #61	@ 0x3d
 8005508:	2101      	movs	r1, #1
 800550a:	54d1      	strb	r1, [r2, r3]
  __HAL_UNLOCK(htim);
 800550c:	2100      	movs	r1, #0
 800550e:	3b01      	subs	r3, #1
 8005510:	54d1      	strb	r1, [r2, r3]
}
 8005512:	bd70      	pop	{r4, r5, r6, pc}
  switch (sClockSourceConfig->ClockSource)
 8005514:	2b20      	cmp	r3, #32
 8005516:	d002      	beq.n	800551e <HAL_TIM_ConfigClockSource+0xbe>
 8005518:	d9f0      	bls.n	80054fc <HAL_TIM_ConfigClockSource+0x9c>
 800551a:	2b30      	cmp	r3, #48	@ 0x30
 800551c:	d1f2      	bne.n	8005504 <HAL_TIM_ConfigClockSource+0xa4>
  tmpsmcr = TIMx->SMCR;
 800551e:	6881      	ldr	r1, [r0, #8]
  tmpsmcr &= ~TIM_SMCR_TS;
 8005520:	4c28      	ldr	r4, [pc, #160]	@ (80055c4 <HAL_TIM_ConfigClockSource+0x164>)
 8005522:	4021      	ands	r1, r4
  tmpsmcr |= (InputTriggerSource | TIM_SLAVEMODE_EXTERNAL1);
 8005524:	430b      	orrs	r3, r1
 8005526:	2107      	movs	r1, #7
 8005528:	430b      	orrs	r3, r1
  TIMx->SMCR = tmpsmcr;
 800552a:	6083      	str	r3, [r0, #8]
  HAL_StatusTypeDef status = HAL_OK;
 800552c:	2000      	movs	r0, #0
 800552e:	e7ea      	b.n	8005506 <HAL_TIM_ConfigClockSource+0xa6>
  switch (sClockSourceConfig->ClockSource)
 8005530:	2b70      	cmp	r3, #112	@ 0x70
 8005532:	d1e7      	bne.n	8005504 <HAL_TIM_ConfigClockSource+0xa4>
  tmpsmcr = TIMx->SMCR;
 8005534:	6884      	ldr	r4, [r0, #8]
  tmpsmcr &= ~(TIM_SMCR_ETF | TIM_SMCR_ETPS | TIM_SMCR_ECE | TIM_SMCR_ETP);
 8005536:	4b24      	ldr	r3, [pc, #144]	@ (80055c8 <HAL_TIM_ConfigClockSource+0x168>)
  tmpsmcr |= (uint32_t)(TIM_ExtTRGPrescaler | (TIM_ExtTRGPolarity | (ExtTRGFilter << 8U)));
 8005538:	684d      	ldr	r5, [r1, #4]
  tmpsmcr &= ~(TIM_SMCR_ETF | TIM_SMCR_ETPS | TIM_SMCR_ECE | TIM_SMCR_ETP);
 800553a:	401c      	ands	r4, r3
  tmpsmcr |= (uint32_t)(TIM_ExtTRGPrescaler | (TIM_ExtTRGPolarity | (ExtTRGFilter << 8U)));
 800553c:	688b      	ldr	r3, [r1, #8]
 800553e:	68c9      	ldr	r1, [r1, #12]
 8005540:	432b      	orrs	r3, r5
 8005542:	0209      	lsls	r1, r1, #8
 8005544:	430b      	orrs	r3, r1
      tmpsmcr |= (TIM_SLAVEMODE_EXTERNAL1 | TIM_CLOCKSOURCE_ETRMODE1);
 8005546:	2177      	movs	r1, #119	@ 0x77
  tmpsmcr |= (uint32_t)(TIM_ExtTRGPrescaler | (TIM_ExtTRGPolarity | (ExtTRGFilter << 8U)));
 8005548:	4323      	orrs	r3, r4
  TIMx->SMCR = tmpsmcr;
 800554a:	6083      	str	r3, [r0, #8]
      tmpsmcr = htim->Instance->SMCR;
 800554c:	6883      	ldr	r3, [r0, #8]
      tmpsmcr |= (TIM_SLAVEMODE_EXTERNAL1 | TIM_CLOCKSOURCE_ETRMODE1);
 800554e:	430b      	orrs	r3, r1
      htim->Instance->SMCR = tmpsmcr;
 8005550:	6083      	str	r3, [r0, #8]
  HAL_StatusTypeDef status = HAL_OK;
 8005552:	2000      	movs	r0, #0
 8005554:	e7d7      	b.n	8005506 <HAL_TIM_ConfigClockSource+0xa6>
  __HAL_LOCK(htim);
 8005556:	2002      	movs	r0, #2
 8005558:	e7db      	b.n	8005512 <HAL_TIM_ConfigClockSource+0xb2>
  TIMx->CCER &= ~TIM_CCER_CC2E;
 800555a:	2610      	movs	r6, #16
  tmpccer = TIMx->CCER;
 800555c:	6a04      	ldr	r4, [r0, #32]
  TIMx->CCER &= ~TIM_CCER_CC2E;
 800555e:	6a05      	ldr	r5, [r0, #32]
                               sClockSourceConfig->ClockPolarity,
 8005560:	684b      	ldr	r3, [r1, #4]
  TIMx->CCER &= ~TIM_CCER_CC2E;
 8005562:	43b5      	bics	r5, r6
                               sClockSourceConfig->ClockFilter);
 8005564:	68c9      	ldr	r1, [r1, #12]
  TIMx->CCER &= ~TIM_CCER_CC2E;
 8005566:	6205      	str	r5, [r0, #32]
  tmpccmr1 = TIMx->CCMR1;
 8005568:	6985      	ldr	r5, [r0, #24]
  tmpccmr1 &= ~TIM_CCMR1_IC2F;
 800556a:	4e18      	ldr	r6, [pc, #96]	@ (80055cc <HAL_TIM_ConfigClockSource+0x16c>)
  tmpccmr1 |= (TIM_ICFilter << 12U);
 800556c:	0309      	lsls	r1, r1, #12
  tmpccmr1 &= ~TIM_CCMR1_IC2F;
 800556e:	4035      	ands	r5, r6
  tmpccmr1 |= (TIM_ICFilter << 12U);
 8005570:	4329      	orrs	r1, r5
  tmpccer &= ~(TIM_CCER_CC2P | TIM_CCER_CC2NP);
 8005572:	25a0      	movs	r5, #160	@ 0xa0
  tmpccer |= (TIM_ICPolarity << 4U);
 8005574:	011b      	lsls	r3, r3, #4
  tmpccer &= ~(TIM_CCER_CC2P | TIM_CCER_CC2NP);
 8005576:	43ac      	bics	r4, r5
  tmpccer |= (TIM_ICPolarity << 4U);
 8005578:	4323      	orrs	r3, r4
  TIMx->CCMR1 = tmpccmr1 ;
 800557a:	6181      	str	r1, [r0, #24]
  TIMx->CCER = tmpccer;
 800557c:	6203      	str	r3, [r0, #32]
  tmpsmcr = TIMx->SMCR;
 800557e:	6883      	ldr	r3, [r0, #8]
  tmpsmcr &= ~TIM_SMCR_TS;
 8005580:	4910      	ldr	r1, [pc, #64]	@ (80055c4 <HAL_TIM_ConfigClockSource+0x164>)
 8005582:	400b      	ands	r3, r1
  tmpsmcr |= (InputTriggerSource | TIM_SLAVEMODE_EXTERNAL1);
 8005584:	2167      	movs	r1, #103	@ 0x67
 8005586:	430b      	orrs	r3, r1
  TIMx->SMCR = tmpsmcr;
 8005588:	6083      	str	r3, [r0, #8]
  HAL_StatusTypeDef status = HAL_OK;
 800558a:	2000      	movs	r0, #0
 800558c:	e7bb      	b.n	8005506 <HAL_TIM_ConfigClockSource+0xa6>
                               sClockSourceConfig->ClockPolarity,
 800558e:	684d      	ldr	r5, [r1, #4]
                               sClockSourceConfig->ClockFilter);
 8005590:	68cb      	ldr	r3, [r1, #12]
  tmpccer = TIMx->CCER;
 8005592:	6a01      	ldr	r1, [r0, #32]
  TIMx->CCER &= ~TIM_CCER_CC1E;
 8005594:	6a06      	ldr	r6, [r0, #32]
  tmpccmr1 |= (TIM_ICFilter << 4U);
 8005596:	011b      	lsls	r3, r3, #4
  TIMx->CCER &= ~TIM_CCER_CC1E;
 8005598:	43a6      	bics	r6, r4
 800559a:	6206      	str	r6, [r0, #32]
  tmpccmr1 &= ~TIM_CCMR1_IC1F;
 800559c:	26f0      	movs	r6, #240	@ 0xf0
  tmpccmr1 = TIMx->CCMR1;
 800559e:	6984      	ldr	r4, [r0, #24]
  tmpccmr1 &= ~TIM_CCMR1_IC1F;
 80055a0:	43b4      	bics	r4, r6
  tmpccmr1 |= (TIM_ICFilter << 4U);
 80055a2:	4323      	orrs	r3, r4
  tmpccer &= ~(TIM_CCER_CC1P | TIM_CCER_CC1NP);
 80055a4:	240a      	movs	r4, #10
 80055a6:	43a1      	bics	r1, r4
  tmpccer |= TIM_ICPolarity;
 80055a8:	4329      	orrs	r1, r5
  TIMx->CCMR1 = tmpccmr1;
 80055aa:	6183      	str	r3, [r0, #24]
  TIMx->CCER = tmpccer;
 80055ac:	6201      	str	r1, [r0, #32]
  tmpsmcr = TIMx->SMCR;
 80055ae:	6883      	ldr	r3, [r0, #8]
  tmpsmcr &= ~TIM_SMCR_TS;
 80055b0:	4904      	ldr	r1, [pc, #16]	@ (80055c4 <HAL_TIM_ConfigClockSource+0x164>)
 80055b2:	400b      	ands	r3, r1
  tmpsmcr |= (InputTriggerSource | TIM_SLAVEMODE_EXTERNAL1);
 80055b4:	2147      	movs	r1, #71	@ 0x47
 80055b6:	430b      	orrs	r3, r1
  TIMx->SMCR = tmpsmcr;
 80055b8:	6083      	str	r3, [r0, #8]
  HAL_StatusTypeDef status = HAL_OK;
 80055ba:	2000      	movs	r0, #0
 80055bc:	e7a3      	b.n	8005506 <HAL_TIM_ConfigClockSource+0xa6>
 80055be:	46c0      	nop			@ (mov r8, r8)
 80055c0:	ffce0088 	.word	0xffce0088
 80055c4:	ffcfff8f 	.word	0xffcfff8f
 80055c8:	ffff00ff 	.word	0xffff00ff
 80055cc:	ffff0fff 	.word	0xffff0fff

080055d0 <HAL_TIM_ReadCapturedValue>:
  switch (Channel)
 80055d0:	2908      	cmp	r1, #8
 80055d2:	d011      	beq.n	80055f8 <HAL_TIM_ReadCapturedValue+0x28>
 80055d4:	d806      	bhi.n	80055e4 <HAL_TIM_ReadCapturedValue+0x14>
 80055d6:	2900      	cmp	r1, #0
 80055d8:	d00b      	beq.n	80055f2 <HAL_TIM_ReadCapturedValue+0x22>
 80055da:	2904      	cmp	r1, #4
 80055dc:	d107      	bne.n	80055ee <HAL_TIM_ReadCapturedValue+0x1e>
      tmpreg =   htim->Instance->CCR2;
 80055de:	6803      	ldr	r3, [r0, #0]
 80055e0:	6b98      	ldr	r0, [r3, #56]	@ 0x38
}
 80055e2:	4770      	bx	lr
  switch (Channel)
 80055e4:	290c      	cmp	r1, #12
 80055e6:	d102      	bne.n	80055ee <HAL_TIM_ReadCapturedValue+0x1e>
      tmpreg =   htim->Instance->CCR4;
 80055e8:	6803      	ldr	r3, [r0, #0]
 80055ea:	6c18      	ldr	r0, [r3, #64]	@ 0x40
  return tmpreg;
 80055ec:	e7f9      	b.n	80055e2 <HAL_TIM_ReadCapturedValue+0x12>
  switch (Channel)
 80055ee:	2000      	movs	r0, #0
 80055f0:	e7f7      	b.n	80055e2 <HAL_TIM_ReadCapturedValue+0x12>
      tmpreg =  htim->Instance->CCR1;
 80055f2:	6803      	ldr	r3, [r0, #0]
 80055f4:	6b58      	ldr	r0, [r3, #52]	@ 0x34
      break;
 80055f6:	e7f4      	b.n	80055e2 <HAL_TIM_ReadCapturedValue+0x12>
      tmpreg =   htim->Instance->CCR3;
 80055f8:	6803      	ldr	r3, [r0, #0]
 80055fa:	6bd8      	ldr	r0, [r3, #60]	@ 0x3c
      break;
 80055fc:	e7f1      	b.n	80055e2 <HAL_TIM_ReadCapturedValue+0x12>
 80055fe:	46c0      	nop			@ (mov r8, r8)

08005600 <HAL_TIM_RegisterCallback>:
{
 8005600:	0003      	movs	r3, r0
 8005602:	b530      	push	{r4, r5, lr}
  if (pCallback == NULL)
 8005604:	2a00      	cmp	r2, #0
 8005606:	d00e      	beq.n	8005626 <HAL_TIM_RegisterCallback+0x26>
  if (htim->State == HAL_TIM_STATE_READY)
 8005608:	253d      	movs	r5, #61	@ 0x3d
 800560a:	5d44      	ldrb	r4, [r0, r5]
 800560c:	b2e0      	uxtb	r0, r4
 800560e:	2c01      	cmp	r4, #1
 8005610:	d00b      	beq.n	800562a <HAL_TIM_RegisterCallback+0x2a>
  else if (htim->State == HAL_TIM_STATE_RESET)
 8005612:	5d5c      	ldrb	r4, [r3, r5]
    return HAL_ERROR;
 8005614:	2001      	movs	r0, #1
  else if (htim->State == HAL_TIM_STATE_RESET)
 8005616:	2c00      	cmp	r4, #0
 8005618:	d106      	bne.n	8005628 <HAL_TIM_RegisterCallback+0x28>
    switch (CallbackID)
 800561a:	290d      	cmp	r1, #13
 800561c:	d804      	bhi.n	8005628 <HAL_TIM_RegisterCallback+0x28>
 800561e:	4837      	ldr	r0, [pc, #220]	@ (80056fc <HAL_TIM_RegisterCallback+0xfc>)
 8005620:	0089      	lsls	r1, r1, #2
 8005622:	5841      	ldr	r1, [r0, r1]
 8005624:	468f      	mov	pc, r1
    return HAL_ERROR;
 8005626:	2001      	movs	r0, #1
}
 8005628:	bd30      	pop	{r4, r5, pc}
    switch (CallbackID)
 800562a:	291b      	cmp	r1, #27
 800562c:	d8fc      	bhi.n	8005628 <HAL_TIM_RegisterCallback+0x28>
 800562e:	4834      	ldr	r0, [pc, #208]	@ (8005700 <HAL_TIM_RegisterCallback+0x100>)
 8005630:	0089      	lsls	r1, r1, #2
 8005632:	5841      	ldr	r1, [r0, r1]
 8005634:	468f      	mov	pc, r1
  HAL_StatusTypeDef status = HAL_OK;
 8005636:	2000      	movs	r0, #0
        htim->HallSensor_MspInitCallback   = pCallback;
 8005638:	67da      	str	r2, [r3, #124]	@ 0x7c
        break;
 800563a:	e7f5      	b.n	8005628 <HAL_TIM_RegisterCallback+0x28>
        htim->HallSensor_MspDeInitCallback = pCallback;
 800563c:	2180      	movs	r1, #128	@ 0x80
  HAL_StatusTypeDef status = HAL_OK;
 800563e:	2000      	movs	r0, #0
        htim->HallSensor_MspDeInitCallback = pCallback;
 8005640:	505a      	str	r2, [r3, r1]
        break;
 8005642:	e7f1      	b.n	8005628 <HAL_TIM_RegisterCallback+0x28>
  HAL_StatusTypeDef status = HAL_OK;
 8005644:	2000      	movs	r0, #0
        htim->Base_MspInitCallback         = pCallback;
 8005646:	64da      	str	r2, [r3, #76]	@ 0x4c
        break;
 8005648:	e7ee      	b.n	8005628 <HAL_TIM_RegisterCallback+0x28>
  HAL_StatusTypeDef status = HAL_OK;
 800564a:	2000      	movs	r0, #0
        htim->Base_MspDeInitCallback       = pCallback;
 800564c:	651a      	str	r2, [r3, #80]	@ 0x50
        break;
 800564e:	e7eb      	b.n	8005628 <HAL_TIM_RegisterCallback+0x28>
  HAL_StatusTypeDef status = HAL_OK;
 8005650:	2000      	movs	r0, #0
        htim->IC_MspInitCallback           = pCallback;
 8005652:	655a      	str	r2, [r3, #84]	@ 0x54
        break;
 8005654:	e7e8      	b.n	8005628 <HAL_TIM_RegisterCallback+0x28>
  HAL_StatusTypeDef status = HAL_OK;
 8005656:	2000      	movs	r0, #0
        htim->IC_MspDeInitCallback         = pCallback;
 8005658:	659a      	str	r2, [r3, #88]	@ 0x58
        break;
 800565a:	e7e5      	b.n	8005628 <HAL_TIM_RegisterCallback+0x28>
  HAL_StatusTypeDef status = HAL_OK;
 800565c:	2000      	movs	r0, #0
        htim->OC_MspInitCallback           = pCallback;
 800565e:	65da      	str	r2, [r3, #92]	@ 0x5c
        break;
 8005660:	e7e2      	b.n	8005628 <HAL_TIM_RegisterCallback+0x28>
  HAL_StatusTypeDef status = HAL_OK;
 8005662:	2000      	movs	r0, #0
        htim->OC_MspDeInitCallback         = pCallback;
 8005664:	661a      	str	r2, [r3, #96]	@ 0x60
        break;
 8005666:	e7df      	b.n	8005628 <HAL_TIM_RegisterCallback+0x28>
  HAL_StatusTypeDef status = HAL_OK;
 8005668:	2000      	movs	r0, #0
        htim->PWM_MspInitCallback          = pCallback;
 800566a:	665a      	str	r2, [r3, #100]	@ 0x64
        break;
 800566c:	e7dc      	b.n	8005628 <HAL_TIM_RegisterCallback+0x28>
  HAL_StatusTypeDef status = HAL_OK;
 800566e:	2000      	movs	r0, #0
        htim->PWM_MspDeInitCallback        = pCallback;
 8005670:	669a      	str	r2, [r3, #104]	@ 0x68
        break;
 8005672:	e7d9      	b.n	8005628 <HAL_TIM_RegisterCallback+0x28>
  HAL_StatusTypeDef status = HAL_OK;
 8005674:	2000      	movs	r0, #0
        htim->OnePulse_MspInitCallback     = pCallback;
 8005676:	66da      	str	r2, [r3, #108]	@ 0x6c
        break;
 8005678:	e7d6      	b.n	8005628 <HAL_TIM_RegisterCallback+0x28>
  HAL_StatusTypeDef status = HAL_OK;
 800567a:	2000      	movs	r0, #0
        htim->OnePulse_MspDeInitCallback   = pCallback;
 800567c:	671a      	str	r2, [r3, #112]	@ 0x70
        break;
 800567e:	e7d3      	b.n	8005628 <HAL_TIM_RegisterCallback+0x28>
  HAL_StatusTypeDef status = HAL_OK;
 8005680:	2000      	movs	r0, #0
        htim->Encoder_MspInitCallback      = pCallback;
 8005682:	675a      	str	r2, [r3, #116]	@ 0x74
        break;
 8005684:	e7d0      	b.n	8005628 <HAL_TIM_RegisterCallback+0x28>
  HAL_StatusTypeDef status = HAL_OK;
 8005686:	2000      	movs	r0, #0
        htim->Encoder_MspDeInitCallback    = pCallback;
 8005688:	679a      	str	r2, [r3, #120]	@ 0x78
        break;
 800568a:	e7cd      	b.n	8005628 <HAL_TIM_RegisterCallback+0x28>
        htim->PeriodElapsedCallback                = pCallback;
 800568c:	2184      	movs	r1, #132	@ 0x84
  HAL_StatusTypeDef status = HAL_OK;
 800568e:	2000      	movs	r0, #0
        htim->PeriodElapsedCallback                = pCallback;
 8005690:	505a      	str	r2, [r3, r1]
        break;
 8005692:	e7c9      	b.n	8005628 <HAL_TIM_RegisterCallback+0x28>
        htim->PeriodElapsedHalfCpltCallback        = pCallback;
 8005694:	2188      	movs	r1, #136	@ 0x88
  HAL_StatusTypeDef status = HAL_OK;
 8005696:	2000      	movs	r0, #0
        htim->PeriodElapsedHalfCpltCallback        = pCallback;
 8005698:	505a      	str	r2, [r3, r1]
        break;
 800569a:	e7c5      	b.n	8005628 <HAL_TIM_RegisterCallback+0x28>
        htim->Break2Callback                       = pCallback;
 800569c:	21b8      	movs	r1, #184	@ 0xb8
  HAL_StatusTypeDef status = HAL_OK;
 800569e:	2000      	movs	r0, #0
        htim->Break2Callback                       = pCallback;
 80056a0:	505a      	str	r2, [r3, r1]
        break;
 80056a2:	e7c1      	b.n	8005628 <HAL_TIM_RegisterCallback+0x28>
        htim->BreakCallback                        = pCallback;
 80056a4:	21b4      	movs	r1, #180	@ 0xb4
  HAL_StatusTypeDef status = HAL_OK;
 80056a6:	2000      	movs	r0, #0
        htim->BreakCallback                        = pCallback;
 80056a8:	505a      	str	r2, [r3, r1]
        break;
 80056aa:	e7bd      	b.n	8005628 <HAL_TIM_RegisterCallback+0x28>
        htim->CommutationCallback                  = pCallback;
 80056ac:	21ac      	movs	r1, #172	@ 0xac
  HAL_StatusTypeDef status = HAL_OK;
 80056ae:	2000      	movs	r0, #0
        htim->CommutationCallback                  = pCallback;
 80056b0:	505a      	str	r2, [r3, r1]
        break;
 80056b2:	e7b9      	b.n	8005628 <HAL_TIM_RegisterCallback+0x28>
        htim->CommutationHalfCpltCallback          = pCallback;
 80056b4:	21b0      	movs	r1, #176	@ 0xb0
  HAL_StatusTypeDef status = HAL_OK;
 80056b6:	2000      	movs	r0, #0
        htim->CommutationHalfCpltCallback          = pCallback;
 80056b8:	505a      	str	r2, [r3, r1]
        break;
 80056ba:	e7b5      	b.n	8005628 <HAL_TIM_RegisterCallback+0x28>
        htim->TriggerCallback                      = pCallback;
 80056bc:	218c      	movs	r1, #140	@ 0x8c
  HAL_StatusTypeDef status = HAL_OK;
 80056be:	2000      	movs	r0, #0
        htim->TriggerCallback                      = pCallback;
 80056c0:	505a      	str	r2, [r3, r1]
        break;
 80056c2:	e7b1      	b.n	8005628 <HAL_TIM_RegisterCallback+0x28>
        htim->TriggerHalfCpltCallback              = pCallback;
 80056c4:	2190      	movs	r1, #144	@ 0x90
  HAL_StatusTypeDef status = HAL_OK;
 80056c6:	2000      	movs	r0, #0
        htim->TriggerHalfCpltCallback              = pCallback;
 80056c8:	505a      	str	r2, [r3, r1]
        break;
 80056ca:	e7ad      	b.n	8005628 <HAL_TIM_RegisterCallback+0x28>
        htim->IC_CaptureCallback                   = pCallback;
 80056cc:	2194      	movs	r1, #148	@ 0x94
  HAL_StatusTypeDef status = HAL_OK;
 80056ce:	2000      	movs	r0, #0
        htim->IC_CaptureCallback                   = pCallback;
 80056d0:	505a      	str	r2, [r3, r1]
        break;
 80056d2:	e7a9      	b.n	8005628 <HAL_TIM_RegisterCallback+0x28>
        htim->IC_CaptureHalfCpltCallback           = pCallback;
 80056d4:	2198      	movs	r1, #152	@ 0x98
  HAL_StatusTypeDef status = HAL_OK;
 80056d6:	2000      	movs	r0, #0
        htim->IC_CaptureHalfCpltCallback           = pCallback;
 80056d8:	505a      	str	r2, [r3, r1]
        break;
 80056da:	e7a5      	b.n	8005628 <HAL_TIM_RegisterCallback+0x28>
        htim->OC_DelayElapsedCallback              = pCallback;
 80056dc:	219c      	movs	r1, #156	@ 0x9c
  HAL_StatusTypeDef status = HAL_OK;
 80056de:	2000      	movs	r0, #0
        htim->OC_DelayElapsedCallback              = pCallback;
 80056e0:	505a      	str	r2, [r3, r1]
        break;
 80056e2:	e7a1      	b.n	8005628 <HAL_TIM_RegisterCallback+0x28>
        htim->PWM_PulseFinishedCallback            = pCallback;
 80056e4:	21a0      	movs	r1, #160	@ 0xa0
  HAL_StatusTypeDef status = HAL_OK;
 80056e6:	2000      	movs	r0, #0
        htim->PWM_PulseFinishedCallback            = pCallback;
 80056e8:	505a      	str	r2, [r3, r1]
        break;
 80056ea:	e79d      	b.n	8005628 <HAL_TIM_RegisterCallback+0x28>
        htim->PWM_PulseFinishedHalfCpltCallback    = pCallback;
 80056ec:	21a4      	movs	r1, #164	@ 0xa4
  HAL_StatusTypeDef status = HAL_OK;
 80056ee:	2000      	movs	r0, #0
        htim->PWM_PulseFinishedHalfCpltCallback    = pCallback;
 80056f0:	505a      	str	r2, [r3, r1]
        break;
 80056f2:	e799      	b.n	8005628 <HAL_TIM_RegisterCallback+0x28>
        htim->ErrorCallback                        = pCallback;
 80056f4:	21a8      	movs	r1, #168	@ 0xa8
  HAL_StatusTypeDef status = HAL_OK;
 80056f6:	2000      	movs	r0, #0
        htim->ErrorCallback                        = pCallback;
 80056f8:	505a      	str	r2, [r3, r1]
        break;
 80056fa:	e795      	b.n	8005628 <HAL_TIM_RegisterCallback+0x28>
 80056fc:	0800711c 	.word	0x0800711c
 8005700:	08007154 	.word	0x08007154

08005704 <HAL_TIMEx_MasterConfigSynchronization>:
  assert_param(IS_TIM_MASTER_INSTANCE(htim->Instance));
  assert_param(IS_TIM_TRGO_SOURCE(sMasterConfig->MasterOutputTrigger));
  assert_param(IS_TIM_MSM_STATE(sMasterConfig->MasterSlaveMode));

  /* Check input state */
  __HAL_LOCK(htim);
 8005704:	233c      	movs	r3, #60	@ 0x3c
{
 8005706:	b570      	push	{r4, r5, r6, lr}
  __HAL_LOCK(htim);
 8005708:	5cc3      	ldrb	r3, [r0, r3]
 800570a:	2b01      	cmp	r3, #1
 800570c:	d02a      	beq.n	8005764 <HAL_TIMEx_MasterConfigSynchronization+0x60>

  /* Change the handler state */
  htim->State = HAL_TIM_STATE_BUSY;
 800570e:	233d      	movs	r3, #61	@ 0x3d
 8005710:	2202      	movs	r2, #2
 8005712:	54c2      	strb	r2, [r0, r3]

  /* Get the TIMx CR2 register value */
  tmpcr2 = htim->Instance->CR2;
 8005714:	6802      	ldr	r2, [r0, #0]

  /* Get the TIMx SMCR register value */
  tmpsmcr = htim->Instance->SMCR;

  /* If the timer supports ADC synchronization through TRGO2, set the master mode selection 2 */
  if (IS_TIM_TRGO2_INSTANCE(htim->Instance))
 8005716:	4d14      	ldr	r5, [pc, #80]	@ (8005768 <HAL_TIMEx_MasterConfigSynchronization+0x64>)
  tmpcr2 = htim->Instance->CR2;
 8005718:	6853      	ldr	r3, [r2, #4]
  }

  /* Reset the MMS Bits */
  tmpcr2 &= ~TIM_CR2_MMS;
  /* Select the TRGO source */
  tmpcr2 |=  sMasterConfig->MasterOutputTrigger;
 800571a:	680e      	ldr	r6, [r1, #0]
  tmpsmcr = htim->Instance->SMCR;
 800571c:	6894      	ldr	r4, [r2, #8]
  if (IS_TIM_TRGO2_INSTANCE(htim->Instance))
 800571e:	42aa      	cmp	r2, r5
 8005720:	d017      	beq.n	8005752 <HAL_TIMEx_MasterConfigSynchronization+0x4e>
  tmpcr2 &= ~TIM_CR2_MMS;
 8005722:	2570      	movs	r5, #112	@ 0x70
 8005724:	43ab      	bics	r3, r5
  tmpcr2 |=  sMasterConfig->MasterOutputTrigger;
 8005726:	4333      	orrs	r3, r6

  /* Update TIMx CR2 */
  htim->Instance->CR2 = tmpcr2;
 8005728:	6053      	str	r3, [r2, #4]

  if (IS_TIM_SLAVE_INSTANCE(htim->Instance))
 800572a:	2380      	movs	r3, #128	@ 0x80
 800572c:	05db      	lsls	r3, r3, #23
 800572e:	429a      	cmp	r2, r3
 8005730:	d002      	beq.n	8005738 <HAL_TIMEx_MasterConfigSynchronization+0x34>
 8005732:	4b0e      	ldr	r3, [pc, #56]	@ (800576c <HAL_TIMEx_MasterConfigSynchronization+0x68>)
 8005734:	429a      	cmp	r2, r3
 8005736:	d104      	bne.n	8005742 <HAL_TIMEx_MasterConfigSynchronization+0x3e>
  {
    /* Reset the MSM Bit */
    tmpsmcr &= ~TIM_SMCR_MSM;
 8005738:	2380      	movs	r3, #128	@ 0x80
 800573a:	439c      	bics	r4, r3
    /* Set master mode */
    tmpsmcr |= sMasterConfig->MasterSlaveMode;
 800573c:	688b      	ldr	r3, [r1, #8]
 800573e:	431c      	orrs	r4, r3

    /* Update TIMx SMCR */
    htim->Instance->SMCR = tmpsmcr;
 8005740:	6094      	str	r4, [r2, #8]
  }

  /* Change the htim state */
  htim->State = HAL_TIM_STATE_READY;
 8005742:	233d      	movs	r3, #61	@ 0x3d
 8005744:	2201      	movs	r2, #1
 8005746:	54c2      	strb	r2, [r0, r3]

  __HAL_UNLOCK(htim);
 8005748:	2200      	movs	r2, #0
 800574a:	3b01      	subs	r3, #1
 800574c:	54c2      	strb	r2, [r0, r3]

  return HAL_OK;
 800574e:	2000      	movs	r0, #0
}
 8005750:	bd70      	pop	{r4, r5, r6, pc}
    tmpcr2 &= ~TIM_CR2_MMS2;
 8005752:	4d07      	ldr	r5, [pc, #28]	@ (8005770 <HAL_TIMEx_MasterConfigSynchronization+0x6c>)
 8005754:	402b      	ands	r3, r5
    tmpcr2 |= sMasterConfig->MasterOutputTrigger2;
 8005756:	684d      	ldr	r5, [r1, #4]
 8005758:	432b      	orrs	r3, r5
  tmpcr2 &= ~TIM_CR2_MMS;
 800575a:	2570      	movs	r5, #112	@ 0x70
 800575c:	43ab      	bics	r3, r5
  tmpcr2 |=  sMasterConfig->MasterOutputTrigger;
 800575e:	4333      	orrs	r3, r6
  htim->Instance->CR2 = tmpcr2;
 8005760:	6053      	str	r3, [r2, #4]
  if (IS_TIM_SLAVE_INSTANCE(htim->Instance))
 8005762:	e7e9      	b.n	8005738 <HAL_TIMEx_MasterConfigSynchronization+0x34>
  __HAL_LOCK(htim);
 8005764:	2002      	movs	r0, #2
 8005766:	e7f3      	b.n	8005750 <HAL_TIMEx_MasterConfigSynchronization+0x4c>
 8005768:	40012c00 	.word	0x40012c00
 800576c:	40000400 	.word	0x40000400
 8005770:	ff0fffff 	.word	0xff0fffff

08005774 <HAL_TIMEx_ConfigBreakDeadTime>:
  assert_param(IS_TIM_BREAK_FILTER(sBreakDeadTimeConfig->BreakFilter));
  assert_param(IS_TIM_AUTOMATIC_OUTPUT_STATE(sBreakDeadTimeConfig->AutomaticOutput));
  assert_param(IS_TIM_BREAK_AFMODE(sBreakDeadTimeConfig->BreakAFMode));

  /* Check input state */
  __HAL_LOCK(htim);
 8005774:	233c      	movs	r3, #60	@ 0x3c
{
 8005776:	b510      	push	{r4, lr}
  __HAL_LOCK(htim);
 8005778:	5cc3      	ldrb	r3, [r0, r3]
 800577a:	2b01      	cmp	r3, #1
 800577c:	d03d      	beq.n	80057fa <HAL_TIMEx_ConfigBreakDeadTime+0x86>
  /* Set the Lock level, the Break enable Bit and the Polarity, the OSSR State,
     the OSSI State, the dead time value and the Automatic Output Enable Bit */

  /* Set the BDTR bits */
  MODIFY_REG(tmpbdtr, TIM_BDTR_DTG, sBreakDeadTimeConfig->DeadTime);
  MODIFY_REG(tmpbdtr, TIM_BDTR_LOCK, sBreakDeadTimeConfig->LockLevel);
 800577e:	4a20      	ldr	r2, [pc, #128]	@ (8005800 <HAL_TIMEx_ConfigBreakDeadTime+0x8c>)
 8005780:	68cb      	ldr	r3, [r1, #12]
  MODIFY_REG(tmpbdtr, TIM_BDTR_BKP, sBreakDeadTimeConfig->BreakPolarity);
  MODIFY_REG(tmpbdtr, TIM_BDTR_AOE, sBreakDeadTimeConfig->AutomaticOutput);
  MODIFY_REG(tmpbdtr, TIM_BDTR_BKF, (sBreakDeadTimeConfig->BreakFilter << TIM_BDTR_BKF_Pos));
  MODIFY_REG(tmpbdtr, TIM_BDTR_BKBID, sBreakDeadTimeConfig->BreakAFMode);

  if (IS_TIM_BKIN2_INSTANCE(htim->Instance))
 8005782:	6804      	ldr	r4, [r0, #0]
  MODIFY_REG(tmpbdtr, TIM_BDTR_LOCK, sBreakDeadTimeConfig->LockLevel);
 8005784:	4013      	ands	r3, r2
 8005786:	688a      	ldr	r2, [r1, #8]
 8005788:	4313      	orrs	r3, r2
  MODIFY_REG(tmpbdtr, TIM_BDTR_OSSI, sBreakDeadTimeConfig->OffStateIDLEMode);
 800578a:	4a1e      	ldr	r2, [pc, #120]	@ (8005804 <HAL_TIMEx_ConfigBreakDeadTime+0x90>)
 800578c:	4013      	ands	r3, r2
 800578e:	684a      	ldr	r2, [r1, #4]
 8005790:	4313      	orrs	r3, r2
  MODIFY_REG(tmpbdtr, TIM_BDTR_OSSR, sBreakDeadTimeConfig->OffStateRunMode);
 8005792:	4a1d      	ldr	r2, [pc, #116]	@ (8005808 <HAL_TIMEx_ConfigBreakDeadTime+0x94>)
 8005794:	4013      	ands	r3, r2
 8005796:	680a      	ldr	r2, [r1, #0]
 8005798:	4313      	orrs	r3, r2
  MODIFY_REG(tmpbdtr, TIM_BDTR_BKE, sBreakDeadTimeConfig->BreakState);
 800579a:	4a1c      	ldr	r2, [pc, #112]	@ (800580c <HAL_TIMEx_ConfigBreakDeadTime+0x98>)
 800579c:	4013      	ands	r3, r2
 800579e:	690a      	ldr	r2, [r1, #16]
 80057a0:	4313      	orrs	r3, r2
  MODIFY_REG(tmpbdtr, TIM_BDTR_BKP, sBreakDeadTimeConfig->BreakPolarity);
 80057a2:	4a1b      	ldr	r2, [pc, #108]	@ (8005810 <HAL_TIMEx_ConfigBreakDeadTime+0x9c>)
 80057a4:	4013      	ands	r3, r2
 80057a6:	694a      	ldr	r2, [r1, #20]
 80057a8:	4313      	orrs	r3, r2
  MODIFY_REG(tmpbdtr, TIM_BDTR_AOE, sBreakDeadTimeConfig->AutomaticOutput);
 80057aa:	4a1a      	ldr	r2, [pc, #104]	@ (8005814 <HAL_TIMEx_ConfigBreakDeadTime+0xa0>)
 80057ac:	4013      	ands	r3, r2
 80057ae:	6b0a      	ldr	r2, [r1, #48]	@ 0x30
 80057b0:	4313      	orrs	r3, r2
  MODIFY_REG(tmpbdtr, TIM_BDTR_BKF, (sBreakDeadTimeConfig->BreakFilter << TIM_BDTR_BKF_Pos));
 80057b2:	4a19      	ldr	r2, [pc, #100]	@ (8005818 <HAL_TIMEx_ConfigBreakDeadTime+0xa4>)
 80057b4:	4013      	ands	r3, r2
 80057b6:	698a      	ldr	r2, [r1, #24]
 80057b8:	0412      	lsls	r2, r2, #16
 80057ba:	4313      	orrs	r3, r2
  MODIFY_REG(tmpbdtr, TIM_BDTR_BKBID, sBreakDeadTimeConfig->BreakAFMode);
 80057bc:	4a17      	ldr	r2, [pc, #92]	@ (800581c <HAL_TIMEx_ConfigBreakDeadTime+0xa8>)
 80057be:	4013      	ands	r3, r2
 80057c0:	69ca      	ldr	r2, [r1, #28]
 80057c2:	4313      	orrs	r3, r2
  if (IS_TIM_BKIN2_INSTANCE(htim->Instance))
 80057c4:	4a16      	ldr	r2, [pc, #88]	@ (8005820 <HAL_TIMEx_ConfigBreakDeadTime+0xac>)
 80057c6:	4294      	cmp	r4, r2
 80057c8:	d005      	beq.n	80057d6 <HAL_TIMEx_ConfigBreakDeadTime+0x62>
    MODIFY_REG(tmpbdtr, TIM_BDTR_BK2P, sBreakDeadTimeConfig->Break2Polarity);
    MODIFY_REG(tmpbdtr, TIM_BDTR_BK2BID, sBreakDeadTimeConfig->Break2AFMode);
  }

  /* Set TIMx_BDTR */
  htim->Instance->BDTR = tmpbdtr;
 80057ca:	6463      	str	r3, [r4, #68]	@ 0x44

  __HAL_UNLOCK(htim);
 80057cc:	2200      	movs	r2, #0
 80057ce:	233c      	movs	r3, #60	@ 0x3c
 80057d0:	54c2      	strb	r2, [r0, r3]

  return HAL_OK;
 80057d2:	2000      	movs	r0, #0
}
 80057d4:	bd10      	pop	{r4, pc}
    MODIFY_REG(tmpbdtr, TIM_BDTR_BK2F, (sBreakDeadTimeConfig->Break2Filter << TIM_BDTR_BK2F_Pos));
 80057d6:	4a13      	ldr	r2, [pc, #76]	@ (8005824 <HAL_TIMEx_ConfigBreakDeadTime+0xb0>)
 80057d8:	4013      	ands	r3, r2
 80057da:	6a8a      	ldr	r2, [r1, #40]	@ 0x28
 80057dc:	0512      	lsls	r2, r2, #20
 80057de:	431a      	orrs	r2, r3
    MODIFY_REG(tmpbdtr, TIM_BDTR_BK2E, sBreakDeadTimeConfig->Break2State);
 80057e0:	4b11      	ldr	r3, [pc, #68]	@ (8005828 <HAL_TIMEx_ConfigBreakDeadTime+0xb4>)
 80057e2:	401a      	ands	r2, r3
 80057e4:	6a0b      	ldr	r3, [r1, #32]
 80057e6:	431a      	orrs	r2, r3
    MODIFY_REG(tmpbdtr, TIM_BDTR_BK2P, sBreakDeadTimeConfig->Break2Polarity);
 80057e8:	4b10      	ldr	r3, [pc, #64]	@ (800582c <HAL_TIMEx_ConfigBreakDeadTime+0xb8>)
 80057ea:	401a      	ands	r2, r3
 80057ec:	6a4b      	ldr	r3, [r1, #36]	@ 0x24
 80057ee:	431a      	orrs	r2, r3
    MODIFY_REG(tmpbdtr, TIM_BDTR_BK2BID, sBreakDeadTimeConfig->Break2AFMode);
 80057f0:	4b0f      	ldr	r3, [pc, #60]	@ (8005830 <HAL_TIMEx_ConfigBreakDeadTime+0xbc>)
 80057f2:	401a      	ands	r2, r3
 80057f4:	6acb      	ldr	r3, [r1, #44]	@ 0x2c
 80057f6:	4313      	orrs	r3, r2
 80057f8:	e7e7      	b.n	80057ca <HAL_TIMEx_ConfigBreakDeadTime+0x56>
  __HAL_LOCK(htim);
 80057fa:	2002      	movs	r0, #2
 80057fc:	e7ea      	b.n	80057d4 <HAL_TIMEx_ConfigBreakDeadTime+0x60>
 80057fe:	46c0      	nop			@ (mov r8, r8)
 8005800:	fffffcff 	.word	0xfffffcff
 8005804:	fffffbff 	.word	0xfffffbff
 8005808:	fffff7ff 	.word	0xfffff7ff
 800580c:	ffffefff 	.word	0xffffefff
 8005810:	ffffdfff 	.word	0xffffdfff
 8005814:	ffffbfff 	.word	0xffffbfff
 8005818:	fff0ffff 	.word	0xfff0ffff
 800581c:	efffffff 	.word	0xefffffff
 8005820:	40012c00 	.word	0x40012c00
 8005824:	ff0fffff 	.word	0xff0fffff
 8005828:	feffffff 	.word	0xfeffffff
 800582c:	fdffffff 	.word	0xfdffffff
 8005830:	dfffffff 	.word	0xdfffffff

08005834 <HAL_TIMEx_CommutCallback>:
/**
  * @brief  Commutation callback in non-blocking mode
  * @param  htim TIM handle
  * @retval None
  */
__weak void HAL_TIMEx_CommutCallback(TIM_HandleTypeDef *htim)
 8005834:	4770      	bx	lr
 8005836:	46c0      	nop			@ (mov r8, r8)

08005838 <HAL_TIMEx_CommutHalfCpltCallback>:
/**
  * @brief  Commutation half complete callback in non-blocking mode
  * @param  htim TIM handle
  * @retval None
  */
__weak void HAL_TIMEx_CommutHalfCpltCallback(TIM_HandleTypeDef *htim)
 8005838:	4770      	bx	lr
 800583a:	46c0      	nop			@ (mov r8, r8)

0800583c <HAL_TIMEx_BreakCallback>:
/**
  * @brief  Break detection callback in non-blocking mode
  * @param  htim TIM handle
  * @retval None
  */
__weak void HAL_TIMEx_BreakCallback(TIM_HandleTypeDef *htim)
 800583c:	4770      	bx	lr
 800583e:	46c0      	nop			@ (mov r8, r8)

08005840 <HAL_TIMEx_Break2Callback>:
/**
  * @brief  Break2 detection callback in non blocking mode
  * @param  htim: TIM handle
  * @retval None
  */
__weak void HAL_TIMEx_Break2Callback(TIM_HandleTypeDef *htim)
 8005840:	4770      	bx	lr
 8005842:	46c0      	nop			@ (mov r8, r8)

08005844 <HAL_UARTEx_RxEventCallback>:
  UNUSED(Size);

  /* NOTE : This function should not be modified, when the callback is needed,
            the HAL_UARTEx_RxEventCallback can be implemented in the user file.
   */
}
 8005844:	4770      	bx	lr
 8005846:	46c0      	nop			@ (mov r8, r8)

08005848 <UART_DMAReceiveCplt>:
  * @brief DMA UART receive process complete callback.
  * @param hdma DMA handle.
  * @retval None
  */
static void UART_DMAReceiveCplt(DMA_HandleTypeDef *hdma)
{
 8005848:	0003      	movs	r3, r0
  UART_HandleTypeDef *huart = (UART_HandleTypeDef *)(hdma->Parent);

  /* DMA Normal mode */
  if (HAL_IS_BIT_CLR(hdma->Instance->CCR, DMA_CCR_CIRC))
 800584a:	681b      	ldr	r3, [r3, #0]
{
 800584c:	b570      	push	{r4, r5, r6, lr}
  if (HAL_IS_BIT_CLR(hdma->Instance->CCR, DMA_CCR_CIRC))
 800584e:	681a      	ldr	r2, [r3, #0]
 8005850:	2320      	movs	r3, #32
 8005852:	0019      	movs	r1, r3
  UART_HandleTypeDef *huart = (UART_HandleTypeDef *)(hdma->Parent);
 8005854:	6a80      	ldr	r0, [r0, #40]	@ 0x28
  if (HAL_IS_BIT_CLR(hdma->Instance->CCR, DMA_CCR_CIRC))
 8005856:	4011      	ands	r1, r2
 8005858:	4213      	tst	r3, r2
 800585a:	d127      	bne.n	80058ac <UART_DMAReceiveCplt+0x64>
  {
    huart->RxXferCount = 0U;
 800585c:	225e      	movs	r2, #94	@ 0x5e
 800585e:	5281      	strh	r1, [r0, r2]
  __ASM volatile ("MRS %0, primask" : "=r" (result) :: "memory");
 8005860:	f3ef 8510 	mrs	r5, PRIMASK
  __ASM volatile ("MSR primask, %0" : : "r" (priMask) : "memory");
 8005864:	3a5d      	subs	r2, #93	@ 0x5d
 8005866:	f382 8810 	msr	PRIMASK, r2

    /* Disable PE and ERR (Frame error, noise error, overrun error) interrupts */
    ATOMIC_CLEAR_BIT(huart->Instance->CR1, USART_CR1_PEIE);
 800586a:	6804      	ldr	r4, [r0, #0]
 800586c:	4e1d      	ldr	r6, [pc, #116]	@ (80058e4 <UART_DMAReceiveCplt+0x9c>)
 800586e:	6821      	ldr	r1, [r4, #0]
 8005870:	4031      	ands	r1, r6
 8005872:	6021      	str	r1, [r4, #0]
 8005874:	f385 8810 	msr	PRIMASK, r5
  __ASM volatile ("MRS %0, primask" : "=r" (result) :: "memory");
 8005878:	f3ef 8510 	mrs	r5, PRIMASK
  __ASM volatile ("MSR primask, %0" : : "r" (priMask) : "memory");
 800587c:	f382 8810 	msr	PRIMASK, r2
    ATOMIC_CLEAR_BIT(huart->Instance->CR3, USART_CR3_EIE);
 8005880:	6804      	ldr	r4, [r0, #0]
 8005882:	68a1      	ldr	r1, [r4, #8]
 8005884:	4391      	bics	r1, r2
 8005886:	60a1      	str	r1, [r4, #8]
 8005888:	f385 8810 	msr	PRIMASK, r5
  __ASM volatile ("MRS %0, primask" : "=r" (result) :: "memory");
 800588c:	f3ef 8410 	mrs	r4, PRIMASK
  __ASM volatile ("MSR primask, %0" : : "r" (priMask) : "memory");
 8005890:	f382 8810 	msr	PRIMASK, r2

    /* Disable the DMA transfer for the receiver request by resetting the DMAR bit
       in the UART CR3 register */
    ATOMIC_CLEAR_BIT(huart->Instance->CR3, USART_CR3_DMAR);
 8005894:	2540      	movs	r5, #64	@ 0x40
 8005896:	6801      	ldr	r1, [r0, #0]
 8005898:	688a      	ldr	r2, [r1, #8]
 800589a:	43aa      	bics	r2, r5
 800589c:	608a      	str	r2, [r1, #8]
 800589e:	f384 8810 	msr	PRIMASK, r4

    /* At end of Rx process, restore huart->RxState to Ready */
    huart->RxState = HAL_UART_STATE_READY;
 80058a2:	228c      	movs	r2, #140	@ 0x8c
 80058a4:	5083      	str	r3, [r0, r2]

    /* If Reception till IDLE event has been selected, Disable IDLE Interrupt */
    if (huart->ReceptionType == HAL_UART_RECEPTION_TOIDLE)
 80058a6:	6ec3      	ldr	r3, [r0, #108]	@ 0x6c
 80058a8:	2b01      	cmp	r3, #1
 80058aa:	d00e      	beq.n	80058ca <UART_DMAReceiveCplt+0x82>
    }
  }

  /* Initialize type of RxEvent that correspond to RxEvent callback execution;
     In this case, Rx Event type is Transfer Complete */
  huart->RxEventType = HAL_UART_RXEVENT_TC;
 80058ac:	2300      	movs	r3, #0
 80058ae:	6703      	str	r3, [r0, #112]	@ 0x70

  /* Check current reception Mode :
     If Reception till IDLE event has been selected : use Rx Event callback */
  if (huart->ReceptionType == HAL_UART_RECEPTION_TOIDLE)
 80058b0:	6ec3      	ldr	r3, [r0, #108]	@ 0x6c
 80058b2:	2b01      	cmp	r3, #1
 80058b4:	d003      	beq.n	80058be <UART_DMAReceiveCplt+0x76>
  else
  {
    /* In other cases : use Rx Complete callback */
#if (USE_HAL_UART_REGISTER_CALLBACKS == 1)
    /*Call registered Rx complete callback*/
    huart->RxCpltCallback(huart);
 80058b6:	23a0      	movs	r3, #160	@ 0xa0
 80058b8:	58c3      	ldr	r3, [r0, r3]
 80058ba:	4798      	blx	r3
#else
    /*Call legacy weak Rx complete callback*/
    HAL_UART_RxCpltCallback(huart);
#endif /* USE_HAL_UART_REGISTER_CALLBACKS */
  }
}
 80058bc:	bd70      	pop	{r4, r5, r6, pc}
    huart->RxEventCallback(huart, huart->RxXferSize);
 80058be:	335b      	adds	r3, #91	@ 0x5b
 80058c0:	5ac1      	ldrh	r1, [r0, r3]
 80058c2:	3364      	adds	r3, #100	@ 0x64
 80058c4:	58c3      	ldr	r3, [r0, r3]
 80058c6:	4798      	blx	r3
 80058c8:	e7f8      	b.n	80058bc <UART_DMAReceiveCplt+0x74>
  __ASM volatile ("MRS %0, primask" : "=r" (result) :: "memory");
 80058ca:	f3ef 8110 	mrs	r1, PRIMASK
  __ASM volatile ("MSR primask, %0" : : "r" (priMask) : "memory");
 80058ce:	f383 8810 	msr	PRIMASK, r3
      ATOMIC_CLEAR_BIT(huart->Instance->CR1, USART_CR1_IDLEIE);
 80058d2:	2410      	movs	r4, #16
 80058d4:	6802      	ldr	r2, [r0, #0]
 80058d6:	6813      	ldr	r3, [r2, #0]
 80058d8:	43a3      	bics	r3, r4
 80058da:	6013      	str	r3, [r2, #0]
 80058dc:	f381 8810 	msr	PRIMASK, r1
}
 80058e0:	e7e4      	b.n	80058ac <UART_DMAReceiveCplt+0x64>
 80058e2:	46c0      	nop			@ (mov r8, r8)
 80058e4:	fffffeff 	.word	0xfffffeff

080058e8 <UART_DMARxHalfCplt>:
{
  UART_HandleTypeDef *huart = (UART_HandleTypeDef *)(hdma->Parent);

  /* Initialize type of RxEvent that correspond to RxEvent callback execution;
     In this case, Rx Event type is Half Transfer */
  huart->RxEventType = HAL_UART_RXEVENT_HT;
 80058e8:	2301      	movs	r3, #1
  UART_HandleTypeDef *huart = (UART_HandleTypeDef *)(hdma->Parent);
 80058ea:	6a80      	ldr	r0, [r0, #40]	@ 0x28
{
 80058ec:	b510      	push	{r4, lr}
  huart->RxEventType = HAL_UART_RXEVENT_HT;
 80058ee:	6703      	str	r3, [r0, #112]	@ 0x70

  /* Check current reception Mode :
     If Reception till IDLE event has been selected : use Rx Event callback */
  if (huart->ReceptionType == HAL_UART_RECEPTION_TOIDLE)
 80058f0:	6ec3      	ldr	r3, [r0, #108]	@ 0x6c
 80058f2:	2b01      	cmp	r3, #1
 80058f4:	d003      	beq.n	80058fe <UART_DMARxHalfCplt+0x16>
  else
  {
    /* In other cases : use Rx Half Complete callback */
#if (USE_HAL_UART_REGISTER_CALLBACKS == 1)
    /*Call registered Rx Half complete callback*/
    huart->RxHalfCpltCallback(huart);
 80058f6:	239c      	movs	r3, #156	@ 0x9c
 80058f8:	58c3      	ldr	r3, [r0, r3]
 80058fa:	4798      	blx	r3
#else
    /*Call legacy weak Rx Half complete callback*/
    HAL_UART_RxHalfCpltCallback(huart);
#endif /* USE_HAL_UART_REGISTER_CALLBACKS */
  }
}
 80058fc:	bd10      	pop	{r4, pc}
    huart->RxEventCallback(huart, huart->RxXferSize / 2U);
 80058fe:	335b      	adds	r3, #91	@ 0x5b
 8005900:	5ac1      	ldrh	r1, [r0, r3]
 8005902:	3364      	adds	r3, #100	@ 0x64
 8005904:	58c3      	ldr	r3, [r0, r3]
 8005906:	0849      	lsrs	r1, r1, #1
 8005908:	4798      	blx	r3
 800590a:	e7f7      	b.n	80058fc <UART_DMARxHalfCplt+0x14>

0800590c <UART_DMAAbortOnError>:
  * @retval None
  */
static void UART_DMAAbortOnError(DMA_HandleTypeDef *hdma)
{
  UART_HandleTypeDef *huart = (UART_HandleTypeDef *)(hdma->Parent);
  huart->RxXferCount = 0U;
 800590c:	2300      	movs	r3, #0
 800590e:	225e      	movs	r2, #94	@ 0x5e
{
 8005910:	b510      	push	{r4, lr}
  UART_HandleTypeDef *huart = (UART_HandleTypeDef *)(hdma->Parent);
 8005912:	6a80      	ldr	r0, [r0, #40]	@ 0x28
  huart->RxXferCount = 0U;
 8005914:	5283      	strh	r3, [r0, r2]
  huart->TxXferCount = 0U;
 8005916:	3a08      	subs	r2, #8
 8005918:	5283      	strh	r3, [r0, r2]

#if (USE_HAL_UART_REGISTER_CALLBACKS == 1)
  /*Call registered error callback*/
  huart->ErrorCallback(huart);
 800591a:	33a4      	adds	r3, #164	@ 0xa4
 800591c:	58c3      	ldr	r3, [r0, r3]
 800591e:	4798      	blx	r3
#else
  /*Call legacy weak error callback*/
  HAL_UART_ErrorCallback(huart);
#endif /* USE_HAL_UART_REGISTER_CALLBACKS */
}
 8005920:	bd10      	pop	{r4, pc}
 8005922:	46c0      	nop			@ (mov r8, r8)

08005924 <HAL_UART_AbortReceiveCpltCallback>:
__weak void HAL_UART_AbortReceiveCpltCallback(UART_HandleTypeDef *huart)
 8005924:	4770      	bx	lr
 8005926:	46c0      	nop			@ (mov r8, r8)

08005928 <HAL_UART_TxCpltCallback>:
__weak void HAL_UART_TxCpltCallback(UART_HandleTypeDef *huart)
 8005928:	4770      	bx	lr
 800592a:	46c0      	nop			@ (mov r8, r8)

0800592c <HAL_UART_TxHalfCpltCallback>:
__weak void HAL_UART_TxHalfCpltCallback(UART_HandleTypeDef *huart)
 800592c:	4770      	bx	lr
 800592e:	46c0      	nop			@ (mov r8, r8)

08005930 <HAL_UART_RxCpltCallback>:
__weak void HAL_UART_RxCpltCallback(UART_HandleTypeDef *huart)
 8005930:	4770      	bx	lr
 8005932:	46c0      	nop			@ (mov r8, r8)

08005934 <HAL_UART_RxHalfCpltCallback>:
__weak void HAL_UART_RxHalfCpltCallback(UART_HandleTypeDef *huart)
 8005934:	4770      	bx	lr
 8005936:	46c0      	nop			@ (mov r8, r8)

08005938 <HAL_UART_ErrorCallback>:
__weak void HAL_UART_ErrorCallback(UART_HandleTypeDef *huart)
 8005938:	4770      	bx	lr
 800593a:	46c0      	nop			@ (mov r8, r8)

0800593c <HAL_UART_AbortCpltCallback>:
__weak void HAL_UART_AbortCpltCallback(UART_HandleTypeDef *huart)
 800593c:	4770      	bx	lr
 800593e:	46c0      	nop			@ (mov r8, r8)

08005940 <HAL_UART_AbortTransmitCpltCallback>:
__weak void HAL_UART_AbortTransmitCpltCallback(UART_HandleTypeDef *huart)
 8005940:	4770      	bx	lr
 8005942:	46c0      	nop			@ (mov r8, r8)

08005944 <UART_DMAError>:
{
 8005944:	b5f8      	push	{r3, r4, r5, r6, r7, lr}
  const HAL_UART_StateTypeDef gstate = huart->gState;
 8005946:	2188      	movs	r1, #136	@ 0x88
  const HAL_UART_StateTypeDef rxstate = huart->RxState;
 8005948:	238c      	movs	r3, #140	@ 0x8c
  UART_HandleTypeDef *huart = (UART_HandleTypeDef *)(hdma->Parent);
 800594a:	6a80      	ldr	r0, [r0, #40]	@ 0x28
  const HAL_UART_StateTypeDef gstate = huart->gState;
 800594c:	5845      	ldr	r5, [r0, r1]
  const HAL_UART_StateTypeDef rxstate = huart->RxState;
 800594e:	58c4      	ldr	r4, [r0, r3]
  if ((HAL_IS_BIT_SET(huart->Instance->CR3, USART_CR3_DMAT)) &&
 8005950:	6803      	ldr	r3, [r0, #0]
 8005952:	689a      	ldr	r2, [r3, #8]
 8005954:	0612      	lsls	r2, r2, #24
 8005956:	d501      	bpl.n	800595c <UART_DMAError+0x18>
 8005958:	2d21      	cmp	r5, #33	@ 0x21
 800595a:	d00d      	beq.n	8005978 <UART_DMAError+0x34>
  if ((HAL_IS_BIT_SET(huart->Instance->CR3, USART_CR3_DMAR)) &&
 800595c:	689b      	ldr	r3, [r3, #8]
 800595e:	065b      	lsls	r3, r3, #25
 8005960:	d501      	bpl.n	8005966 <UART_DMAError+0x22>
 8005962:	2c22      	cmp	r4, #34	@ 0x22
 8005964:	d026      	beq.n	80059b4 <UART_DMAError+0x70>
  huart->ErrorCode |= HAL_UART_ERROR_DMA;
 8005966:	2290      	movs	r2, #144	@ 0x90
 8005968:	2110      	movs	r1, #16
 800596a:	5883      	ldr	r3, [r0, r2]
 800596c:	430b      	orrs	r3, r1
 800596e:	5083      	str	r3, [r0, r2]
  huart->ErrorCallback(huart);
 8005970:	23a4      	movs	r3, #164	@ 0xa4
 8005972:	58c3      	ldr	r3, [r0, r3]
 8005974:	4798      	blx	r3
}
 8005976:	bdf8      	pop	{r3, r4, r5, r6, r7, pc}
    huart->TxXferCount = 0U;
 8005978:	2356      	movs	r3, #86	@ 0x56
 800597a:	2200      	movs	r2, #0
 800597c:	52c2      	strh	r2, [r0, r3]
  __ASM volatile ("MRS %0, primask" : "=r" (result) :: "memory");
 800597e:	f3ef 8610 	mrs	r6, PRIMASK
  __ASM volatile ("MSR primask, %0" : : "r" (priMask) : "memory");
 8005982:	3201      	adds	r2, #1
 8005984:	f382 8810 	msr	PRIMASK, r2
  ATOMIC_CLEAR_BIT(huart->Instance->CR1, (USART_CR1_TXEIE_TXFNFIE | USART_CR1_TCIE));
 8005988:	27c0      	movs	r7, #192	@ 0xc0
 800598a:	6805      	ldr	r5, [r0, #0]
 800598c:	682b      	ldr	r3, [r5, #0]
 800598e:	43bb      	bics	r3, r7
 8005990:	602b      	str	r3, [r5, #0]
 8005992:	f386 8810 	msr	PRIMASK, r6
  __ASM volatile ("MRS %0, primask" : "=r" (result) :: "memory");
 8005996:	f3ef 8510 	mrs	r5, PRIMASK
  __ASM volatile ("MSR primask, %0" : : "r" (priMask) : "memory");
 800599a:	f382 8810 	msr	PRIMASK, r2
  ATOMIC_CLEAR_BIT(huart->Instance->CR3, (USART_CR3_TXFTIE));
 800599e:	6802      	ldr	r2, [r0, #0]
 80059a0:	4e1c      	ldr	r6, [pc, #112]	@ (8005a14 <UART_DMAError+0xd0>)
 80059a2:	6893      	ldr	r3, [r2, #8]
 80059a4:	4033      	ands	r3, r6
 80059a6:	6093      	str	r3, [r2, #8]
 80059a8:	f385 8810 	msr	PRIMASK, r5
  huart->gState = HAL_UART_STATE_READY;
 80059ac:	2320      	movs	r3, #32
 80059ae:	5043      	str	r3, [r0, r1]
  if ((HAL_IS_BIT_SET(huart->Instance->CR3, USART_CR3_DMAR)) &&
 80059b0:	6803      	ldr	r3, [r0, #0]
}
 80059b2:	e7d3      	b.n	800595c <UART_DMAError+0x18>
    huart->RxXferCount = 0U;
 80059b4:	235e      	movs	r3, #94	@ 0x5e
 80059b6:	2200      	movs	r2, #0
 80059b8:	52c2      	strh	r2, [r0, r3]
  __ASM volatile ("MRS %0, primask" : "=r" (result) :: "memory");
 80059ba:	f3ef 8410 	mrs	r4, PRIMASK
  __ASM volatile ("MSR primask, %0" : : "r" (priMask) : "memory");
 80059be:	3201      	adds	r2, #1
 80059c0:	f382 8810 	msr	PRIMASK, r2
  ATOMIC_CLEAR_BIT(huart->Instance->CR1, (USART_CR1_RXNEIE_RXFNEIE | USART_CR1_PEIE));
 80059c4:	6801      	ldr	r1, [r0, #0]
 80059c6:	4d14      	ldr	r5, [pc, #80]	@ (8005a18 <UART_DMAError+0xd4>)
 80059c8:	680b      	ldr	r3, [r1, #0]
 80059ca:	402b      	ands	r3, r5
 80059cc:	600b      	str	r3, [r1, #0]
 80059ce:	f384 8810 	msr	PRIMASK, r4
  __ASM volatile ("MRS %0, primask" : "=r" (result) :: "memory");
 80059d2:	f3ef 8110 	mrs	r1, PRIMASK
  __ASM volatile ("MSR primask, %0" : : "r" (priMask) : "memory");
 80059d6:	f382 8810 	msr	PRIMASK, r2
  ATOMIC_CLEAR_BIT(huart->Instance->CR3, (USART_CR3_EIE | USART_CR3_RXFTIE));
 80059da:	6802      	ldr	r2, [r0, #0]
 80059dc:	4c0f      	ldr	r4, [pc, #60]	@ (8005a1c <UART_DMAError+0xd8>)
 80059de:	6893      	ldr	r3, [r2, #8]
 80059e0:	4023      	ands	r3, r4
 80059e2:	6093      	str	r3, [r2, #8]
 80059e4:	f381 8810 	msr	PRIMASK, r1
  if (huart->ReceptionType == HAL_UART_RECEPTION_TOIDLE)
 80059e8:	6ec3      	ldr	r3, [r0, #108]	@ 0x6c
 80059ea:	2b01      	cmp	r3, #1
 80059ec:	d10a      	bne.n	8005a04 <UART_DMAError+0xc0>
  __ASM volatile ("MRS %0, primask" : "=r" (result) :: "memory");
 80059ee:	f3ef 8110 	mrs	r1, PRIMASK
  __ASM volatile ("MSR primask, %0" : : "r" (priMask) : "memory");
 80059f2:	f383 8810 	msr	PRIMASK, r3
    ATOMIC_CLEAR_BIT(huart->Instance->CR1, USART_CR1_IDLEIE);
 80059f6:	2410      	movs	r4, #16
 80059f8:	6802      	ldr	r2, [r0, #0]
 80059fa:	6813      	ldr	r3, [r2, #0]
 80059fc:	43a3      	bics	r3, r4
 80059fe:	6013      	str	r3, [r2, #0]
 8005a00:	f381 8810 	msr	PRIMASK, r1
  huart->RxState = HAL_UART_STATE_READY;
 8005a04:	238c      	movs	r3, #140	@ 0x8c
 8005a06:	2220      	movs	r2, #32
 8005a08:	50c2      	str	r2, [r0, r3]
  huart->ReceptionType = HAL_UART_RECEPTION_STANDARD;
 8005a0a:	2300      	movs	r3, #0
 8005a0c:	66c3      	str	r3, [r0, #108]	@ 0x6c
  huart->RxISR = NULL;
 8005a0e:	6743      	str	r3, [r0, #116]	@ 0x74
}
 8005a10:	e7a9      	b.n	8005966 <UART_DMAError+0x22>
 8005a12:	46c0      	nop			@ (mov r8, r8)
 8005a14:	ff7fffff 	.word	0xff7fffff
 8005a18:	fffffedf 	.word	0xfffffedf
 8005a1c:	effffffe 	.word	0xeffffffe

08005a20 <HAL_UART_RegisterCallback>:
{
 8005a20:	b510      	push	{r4, lr}
  if (pCallback == NULL)
 8005a22:	2a00      	cmp	r2, #0
 8005a24:	d006      	beq.n	8005a34 <HAL_UART_RegisterCallback+0x14>
  if (huart->gState == HAL_UART_STATE_READY)
 8005a26:	2388      	movs	r3, #136	@ 0x88
 8005a28:	58c4      	ldr	r4, [r0, r3]
 8005a2a:	2c20      	cmp	r4, #32
 8005a2c:	d011      	beq.n	8005a52 <HAL_UART_RegisterCallback+0x32>
  else if (huart->gState == HAL_UART_STATE_RESET)
 8005a2e:	58c3      	ldr	r3, [r0, r3]
 8005a30:	2b00      	cmp	r3, #0
 8005a32:	d006      	beq.n	8005a42 <HAL_UART_RegisterCallback+0x22>
        huart->ErrorCode |= HAL_UART_ERROR_INVALID_CALLBACK;
 8005a34:	2290      	movs	r2, #144	@ 0x90
 8005a36:	2140      	movs	r1, #64	@ 0x40
 8005a38:	5883      	ldr	r3, [r0, r2]
 8005a3a:	430b      	orrs	r3, r1
 8005a3c:	5083      	str	r3, [r0, r2]
    return HAL_ERROR;
 8005a3e:	2001      	movs	r0, #1
}
 8005a40:	bd10      	pop	{r4, pc}
    switch (CallbackID)
 8005a42:	290b      	cmp	r1, #11
 8005a44:	d00b      	beq.n	8005a5e <HAL_UART_RegisterCallback+0x3e>
 8005a46:	290c      	cmp	r1, #12
 8005a48:	d1f4      	bne.n	8005a34 <HAL_UART_RegisterCallback+0x14>
        huart->MspDeInitCallback = pCallback;
 8005a4a:	23c8      	movs	r3, #200	@ 0xc8
 8005a4c:	50c2      	str	r2, [r0, r3]
  HAL_StatusTypeDef status = HAL_OK;
 8005a4e:	2000      	movs	r0, #0
 8005a50:	e7f6      	b.n	8005a40 <HAL_UART_RegisterCallback+0x20>
    switch (CallbackID)
 8005a52:	290c      	cmp	r1, #12
 8005a54:	d8ee      	bhi.n	8005a34 <HAL_UART_RegisterCallback+0x14>
 8005a56:	4b1a      	ldr	r3, [pc, #104]	@ (8005ac0 <HAL_UART_RegisterCallback+0xa0>)
 8005a58:	0089      	lsls	r1, r1, #2
 8005a5a:	585b      	ldr	r3, [r3, r1]
 8005a5c:	469f      	mov	pc, r3
        huart->MspInitCallback = pCallback;
 8005a5e:	23c4      	movs	r3, #196	@ 0xc4
 8005a60:	50c2      	str	r2, [r0, r3]
  HAL_StatusTypeDef status = HAL_OK;
 8005a62:	2000      	movs	r0, #0
 8005a64:	e7ec      	b.n	8005a40 <HAL_UART_RegisterCallback+0x20>
        huart->TxHalfCpltCallback = pCallback;
 8005a66:	2394      	movs	r3, #148	@ 0x94
 8005a68:	50c2      	str	r2, [r0, r3]
  HAL_StatusTypeDef status = HAL_OK;
 8005a6a:	2000      	movs	r0, #0
 8005a6c:	e7e8      	b.n	8005a40 <HAL_UART_RegisterCallback+0x20>
        huart->TxCpltCallback = pCallback;
 8005a6e:	2398      	movs	r3, #152	@ 0x98
 8005a70:	50c2      	str	r2, [r0, r3]
  HAL_StatusTypeDef status = HAL_OK;
 8005a72:	2000      	movs	r0, #0
 8005a74:	e7e4      	b.n	8005a40 <HAL_UART_RegisterCallback+0x20>
        huart->RxHalfCpltCallback = pCallback;
 8005a76:	239c      	movs	r3, #156	@ 0x9c
 8005a78:	50c2      	str	r2, [r0, r3]
  HAL_StatusTypeDef status = HAL_OK;
 8005a7a:	2000      	movs	r0, #0
 8005a7c:	e7e0      	b.n	8005a40 <HAL_UART_RegisterCallback+0x20>
        huart->RxCpltCallback = pCallback;
 8005a7e:	23a0      	movs	r3, #160	@ 0xa0
 8005a80:	50c2      	str	r2, [r0, r3]
  HAL_StatusTypeDef status = HAL_OK;
 8005a82:	2000      	movs	r0, #0
 8005a84:	e7dc      	b.n	8005a40 <HAL_UART_RegisterCallback+0x20>
        huart->ErrorCallback = pCallback;
 8005a86:	23a4      	movs	r3, #164	@ 0xa4
 8005a88:	50c2      	str	r2, [r0, r3]
  HAL_StatusTypeDef status = HAL_OK;
 8005a8a:	2000      	movs	r0, #0
 8005a8c:	e7d8      	b.n	8005a40 <HAL_UART_RegisterCallback+0x20>
        huart->AbortCpltCallback = pCallback;
 8005a8e:	23a8      	movs	r3, #168	@ 0xa8
 8005a90:	50c2      	str	r2, [r0, r3]
  HAL_StatusTypeDef status = HAL_OK;
 8005a92:	2000      	movs	r0, #0
 8005a94:	e7d4      	b.n	8005a40 <HAL_UART_RegisterCallback+0x20>
        huart->AbortTransmitCpltCallback = pCallback;
 8005a96:	23ac      	movs	r3, #172	@ 0xac
 8005a98:	50c2      	str	r2, [r0, r3]
  HAL_StatusTypeDef status = HAL_OK;
 8005a9a:	2000      	movs	r0, #0
 8005a9c:	e7d0      	b.n	8005a40 <HAL_UART_RegisterCallback+0x20>
        huart->AbortReceiveCpltCallback = pCallback;
 8005a9e:	23b0      	movs	r3, #176	@ 0xb0
 8005aa0:	50c2      	str	r2, [r0, r3]
  HAL_StatusTypeDef status = HAL_OK;
 8005aa2:	2000      	movs	r0, #0
 8005aa4:	e7cc      	b.n	8005a40 <HAL_UART_RegisterCallback+0x20>
        huart->WakeupCallback = pCallback;
 8005aa6:	23b4      	movs	r3, #180	@ 0xb4
 8005aa8:	50c2      	str	r2, [r0, r3]
  HAL_StatusTypeDef status = HAL_OK;
 8005aaa:	2000      	movs	r0, #0
 8005aac:	e7c8      	b.n	8005a40 <HAL_UART_RegisterCallback+0x20>
        huart->RxFifoFullCallback = pCallback;
 8005aae:	23b8      	movs	r3, #184	@ 0xb8
 8005ab0:	50c2      	str	r2, [r0, r3]
  HAL_StatusTypeDef status = HAL_OK;
 8005ab2:	2000      	movs	r0, #0
 8005ab4:	e7c4      	b.n	8005a40 <HAL_UART_RegisterCallback+0x20>
        huart->TxFifoEmptyCallback = pCallback;
 8005ab6:	23bc      	movs	r3, #188	@ 0xbc
 8005ab8:	50c2      	str	r2, [r0, r3]
  HAL_StatusTypeDef status = HAL_OK;
 8005aba:	2000      	movs	r0, #0
 8005abc:	e7c0      	b.n	8005a40 <HAL_UART_RegisterCallback+0x20>
 8005abe:	46c0      	nop			@ (mov r8, r8)
 8005ac0:	080071c4 	.word	0x080071c4

08005ac4 <HAL_UART_Receive_DMA>:
{
 8005ac4:	b5f8      	push	{r3, r4, r5, r6, r7, lr}
 8005ac6:	000d      	movs	r5, r1
  if (huart->RxState == HAL_UART_STATE_READY)
 8005ac8:	218c      	movs	r1, #140	@ 0x8c
 8005aca:	5841      	ldr	r1, [r0, r1]
{
 8005acc:	0004      	movs	r4, r0
  if (huart->RxState == HAL_UART_STATE_READY)
 8005ace:	2920      	cmp	r1, #32
 8005ad0:	d160      	bne.n	8005b94 <HAL_UART_Receive_DMA+0xd0>
    if ((pData == NULL) || (Size == 0U))
 8005ad2:	2d00      	cmp	r5, #0
 8005ad4:	d041      	beq.n	8005b5a <HAL_UART_Receive_DMA+0x96>
 8005ad6:	2a00      	cmp	r2, #0
 8005ad8:	d03f      	beq.n	8005b5a <HAL_UART_Receive_DMA+0x96>
    if ((huart->Init.WordLength == UART_WORDLENGTH_9B) && (huart->Init.Parity == UART_PARITY_NONE))
 8005ada:	2380      	movs	r3, #128	@ 0x80
 8005adc:	6881      	ldr	r1, [r0, #8]
 8005ade:	015b      	lsls	r3, r3, #5
 8005ae0:	4299      	cmp	r1, r3
 8005ae2:	d104      	bne.n	8005aee <HAL_UART_Receive_DMA+0x2a>
 8005ae4:	6903      	ldr	r3, [r0, #16]
 8005ae6:	2b00      	cmp	r3, #0
 8005ae8:	d101      	bne.n	8005aee <HAL_UART_Receive_DMA+0x2a>
      if ((((uint32_t)pData) & 1U) != 0U)
 8005aea:	07eb      	lsls	r3, r5, #31
 8005aec:	d435      	bmi.n	8005b5a <HAL_UART_Receive_DMA+0x96>
    huart->ReceptionType = HAL_UART_RECEPTION_STANDARD;
 8005aee:	2300      	movs	r3, #0
    if (!(IS_LPUART_INSTANCE(huart->Instance)))
 8005af0:	4930      	ldr	r1, [pc, #192]	@ (8005bb4 <HAL_UART_Receive_DMA+0xf0>)
    huart->ReceptionType = HAL_UART_RECEPTION_STANDARD;
 8005af2:	66e3      	str	r3, [r4, #108]	@ 0x6c
    if (!(IS_LPUART_INSTANCE(huart->Instance)))
 8005af4:	6823      	ldr	r3, [r4, #0]
 8005af6:	428b      	cmp	r3, r1
 8005af8:	d00f      	beq.n	8005b1a <HAL_UART_Receive_DMA+0x56>
      if (READ_BIT(huart->Instance->CR2, USART_CR2_RTOEN) != 0U)
 8005afa:	685b      	ldr	r3, [r3, #4]
 8005afc:	021b      	lsls	r3, r3, #8
 8005afe:	d50c      	bpl.n	8005b1a <HAL_UART_Receive_DMA+0x56>
  __ASM volatile ("MRS %0, primask" : "=r" (result) :: "memory");
 8005b00:	f3ef 8010 	mrs	r0, PRIMASK
  __ASM volatile ("MSR primask, %0" : : "r" (priMask) : "memory");
 8005b04:	2301      	movs	r3, #1
 8005b06:	f383 8810 	msr	PRIMASK, r3
        ATOMIC_SET_BIT(huart->Instance->CR1, USART_CR1_RTOIE);
 8005b0a:	2380      	movs	r3, #128	@ 0x80
 8005b0c:	6821      	ldr	r1, [r4, #0]
 8005b0e:	04db      	lsls	r3, r3, #19
 8005b10:	680e      	ldr	r6, [r1, #0]
 8005b12:	4333      	orrs	r3, r6
 8005b14:	600b      	str	r3, [r1, #0]
 8005b16:	f380 8810 	msr	PRIMASK, r0
  huart->RxXferSize = Size;
 8005b1a:	235c      	movs	r3, #92	@ 0x5c
  huart->pRxBuffPtr = pData;
 8005b1c:	65a5      	str	r5, [r4, #88]	@ 0x58
  huart->RxState = HAL_UART_STATE_BUSY_RX;
 8005b1e:	2122      	movs	r1, #34	@ 0x22
  huart->RxXferSize = Size;
 8005b20:	52e2      	strh	r2, [r4, r3]
  huart->ErrorCode = HAL_UART_ERROR_NONE;
 8005b22:	2790      	movs	r7, #144	@ 0x90
 8005b24:	2300      	movs	r3, #0
  huart->RxState = HAL_UART_STATE_BUSY_RX;
 8005b26:	268c      	movs	r6, #140	@ 0x8c
  huart->ErrorCode = HAL_UART_ERROR_NONE;
 8005b28:	51e3      	str	r3, [r4, r7]
  huart->RxState = HAL_UART_STATE_BUSY_RX;
 8005b2a:	51a1      	str	r1, [r4, r6]
  if (huart->hdmarx != NULL)
 8005b2c:	315e      	adds	r1, #94	@ 0x5e
 8005b2e:	5860      	ldr	r0, [r4, r1]
 8005b30:	2800      	cmp	r0, #0
 8005b32:	d014      	beq.n	8005b5e <HAL_UART_Receive_DMA+0x9a>
    huart->hdmarx->XferCpltCallback = UART_DMAReceiveCplt;
 8005b34:	4920      	ldr	r1, [pc, #128]	@ (8005bb8 <HAL_UART_Receive_DMA+0xf4>)
    huart->hdmarx->XferAbortCallback = NULL;
 8005b36:	6383      	str	r3, [r0, #56]	@ 0x38
    huart->hdmarx->XferCpltCallback = UART_DMAReceiveCplt;
 8005b38:	62c1      	str	r1, [r0, #44]	@ 0x2c
    huart->hdmarx->XferHalfCpltCallback = UART_DMARxHalfCplt;
 8005b3a:	4920      	ldr	r1, [pc, #128]	@ (8005bbc <HAL_UART_Receive_DMA+0xf8>)
    if (HAL_DMA_Start_IT(huart->hdmarx, (uint32_t)&huart->Instance->RDR, (uint32_t)huart->pRxBuffPtr, Size) != HAL_OK)
 8005b3c:	0013      	movs	r3, r2
    huart->hdmarx->XferHalfCpltCallback = UART_DMARxHalfCplt;
 8005b3e:	6301      	str	r1, [r0, #48]	@ 0x30
    huart->hdmarx->XferErrorCallback = UART_DMAError;
 8005b40:	491f      	ldr	r1, [pc, #124]	@ (8005bc0 <HAL_UART_Receive_DMA+0xfc>)
    if (HAL_DMA_Start_IT(huart->hdmarx, (uint32_t)&huart->Instance->RDR, (uint32_t)huart->pRxBuffPtr, Size) != HAL_OK)
 8005b42:	002a      	movs	r2, r5
    huart->hdmarx->XferErrorCallback = UART_DMAError;
 8005b44:	6341      	str	r1, [r0, #52]	@ 0x34
    if (HAL_DMA_Start_IT(huart->hdmarx, (uint32_t)&huart->Instance->RDR, (uint32_t)huart->pRxBuffPtr, Size) != HAL_OK)
 8005b46:	6821      	ldr	r1, [r4, #0]
 8005b48:	3124      	adds	r1, #36	@ 0x24
 8005b4a:	f7fd f8a7 	bl	8002c9c <HAL_DMA_Start_IT>
 8005b4e:	2800      	cmp	r0, #0
 8005b50:	d005      	beq.n	8005b5e <HAL_UART_Receive_DMA+0x9a>
      huart->ErrorCode = HAL_UART_ERROR_DMA;
 8005b52:	2310      	movs	r3, #16
 8005b54:	51e3      	str	r3, [r4, r7]
      huart->RxState = HAL_UART_STATE_READY;
 8005b56:	3310      	adds	r3, #16
 8005b58:	51a3      	str	r3, [r4, r6]
      return HAL_ERROR;
 8005b5a:	2001      	movs	r0, #1
 8005b5c:	e019      	b.n	8005b92 <HAL_UART_Receive_DMA+0xce>
  if (huart->Init.Parity != UART_PARITY_NONE)
 8005b5e:	6923      	ldr	r3, [r4, #16]
 8005b60:	2b00      	cmp	r3, #0
 8005b62:	d119      	bne.n	8005b98 <HAL_UART_Receive_DMA+0xd4>
  __ASM volatile ("MRS %0, primask" : "=r" (result) :: "memory");
 8005b64:	f3ef 8010 	mrs	r0, PRIMASK
  __ASM volatile ("MSR primask, %0" : : "r" (priMask) : "memory");
 8005b68:	2301      	movs	r3, #1
 8005b6a:	f383 8810 	msr	PRIMASK, r3
  ATOMIC_SET_BIT(huart->Instance->CR3, USART_CR3_EIE);
 8005b6e:	6821      	ldr	r1, [r4, #0]
 8005b70:	688a      	ldr	r2, [r1, #8]
 8005b72:	431a      	orrs	r2, r3
 8005b74:	608a      	str	r2, [r1, #8]
 8005b76:	f380 8810 	msr	PRIMASK, r0
  __ASM volatile ("MRS %0, primask" : "=r" (result) :: "memory");
 8005b7a:	f3ef 8110 	mrs	r1, PRIMASK
  __ASM volatile ("MSR primask, %0" : : "r" (priMask) : "memory");
 8005b7e:	f383 8810 	msr	PRIMASK, r3
  ATOMIC_SET_BIT(huart->Instance->CR3, USART_CR3_DMAR);
 8005b82:	2040      	movs	r0, #64	@ 0x40
 8005b84:	6822      	ldr	r2, [r4, #0]
 8005b86:	6893      	ldr	r3, [r2, #8]
 8005b88:	4303      	orrs	r3, r0
 8005b8a:	6093      	str	r3, [r2, #8]
 8005b8c:	f381 8810 	msr	PRIMASK, r1
  return HAL_OK;
 8005b90:	2000      	movs	r0, #0
}
 8005b92:	bdf8      	pop	{r3, r4, r5, r6, r7, pc}
    return HAL_BUSY;
 8005b94:	2002      	movs	r0, #2
 8005b96:	e7fc      	b.n	8005b92 <HAL_UART_Receive_DMA+0xce>
  __ASM volatile ("MRS %0, primask" : "=r" (result) :: "memory");
 8005b98:	f3ef 8110 	mrs	r1, PRIMASK
  __ASM volatile ("MSR primask, %0" : : "r" (priMask) : "memory");
 8005b9c:	2301      	movs	r3, #1
 8005b9e:	f383 8810 	msr	PRIMASK, r3
    ATOMIC_SET_BIT(huart->Instance->CR1, USART_CR1_PEIE);
 8005ba2:	6822      	ldr	r2, [r4, #0]
 8005ba4:	33ff      	adds	r3, #255	@ 0xff
 8005ba6:	6810      	ldr	r0, [r2, #0]
 8005ba8:	4303      	orrs	r3, r0
 8005baa:	6013      	str	r3, [r2, #0]
 8005bac:	f381 8810 	msr	PRIMASK, r1
}
 8005bb0:	e7d8      	b.n	8005b64 <HAL_UART_Receive_DMA+0xa0>
 8005bb2:	46c0      	nop			@ (mov r8, r8)
 8005bb4:	40008000 	.word	0x40008000
 8005bb8:	08005849 	.word	0x08005849
 8005bbc:	080058e9 	.word	0x080058e9
 8005bc0:	08005945 	.word	0x08005945

08005bc4 <HAL_UART_IRQHandler>:
{
 8005bc4:	b5f8      	push	{r3, r4, r5, r6, r7, lr}
 8005bc6:	4645      	mov	r5, r8
 8005bc8:	46de      	mov	lr, fp
 8005bca:	4657      	mov	r7, sl
 8005bcc:	464e      	mov	r6, r9
  uint32_t isrflags   = READ_REG(huart->Instance->ISR);
 8005bce:	6802      	ldr	r2, [r0, #0]
  errorflags = (isrflags & (uint32_t)(USART_ISR_PE | USART_ISR_FE | USART_ISR_ORE | USART_ISR_NE | USART_ISR_RTOF));
 8005bd0:	49ae      	ldr	r1, [pc, #696]	@ (8005e8c <HAL_UART_IRQHandler+0x2c8>)
  uint32_t isrflags   = READ_REG(huart->Instance->ISR);
 8005bd2:	69d3      	ldr	r3, [r2, #28]
{
 8005bd4:	0004      	movs	r4, r0
 8005bd6:	b5e0      	push	{r5, r6, r7, lr}
  uint32_t cr1its     = READ_REG(huart->Instance->CR1);
 8005bd8:	6810      	ldr	r0, [r2, #0]
  uint32_t cr3its     = READ_REG(huart->Instance->CR3);
 8005bda:	6895      	ldr	r5, [r2, #8]
  if (errorflags == 0U)
 8005bdc:	420b      	tst	r3, r1
 8005bde:	d14e      	bne.n	8005c7e <HAL_UART_IRQHandler+0xba>
    if (((isrflags & USART_ISR_RXNE_RXFNE) != 0U)
 8005be0:	2120      	movs	r1, #32
 8005be2:	4219      	tst	r1, r3
 8005be4:	d006      	beq.n	8005bf4 <HAL_UART_IRQHandler+0x30>
            || ((cr3its & USART_CR3_RXFTIE) != 0U)))
 8005be6:	2680      	movs	r6, #128	@ 0x80
 8005be8:	0576      	lsls	r6, r6, #21
        && (((cr1its & USART_CR1_RXNEIE_RXFNEIE) != 0U)
 8005bea:	4001      	ands	r1, r0
            || ((cr3its & USART_CR3_RXFTIE) != 0U)))
 8005bec:	402e      	ands	r6, r5
 8005bee:	4331      	orrs	r1, r6
 8005bf0:	d000      	beq.n	8005bf4 <HAL_UART_IRQHandler+0x30>
 8005bf2:	e0e4      	b.n	8005dbe <HAL_UART_IRQHandler+0x1fa>
  if ((huart->ReceptionType == HAL_UART_RECEPTION_TOIDLE)
 8005bf4:	6ee6      	ldr	r6, [r4, #108]	@ 0x6c
 8005bf6:	2e01      	cmp	r6, #1
 8005bf8:	d100      	bne.n	8005bfc <HAL_UART_IRQHandler+0x38>
 8005bfa:	e09b      	b.n	8005d34 <HAL_UART_IRQHandler+0x170>
  if (((isrflags & USART_ISR_WUF) != 0U) && ((cr3its & USART_CR3_WUFIE) != 0U))
 8005bfc:	2180      	movs	r1, #128	@ 0x80
 8005bfe:	0349      	lsls	r1, r1, #13
 8005c00:	420b      	tst	r3, r1
 8005c02:	d128      	bne.n	8005c56 <HAL_UART_IRQHandler+0x92>
  if (((isrflags & USART_ISR_TXE_TXFNF) != 0U)
 8005c04:	2280      	movs	r2, #128	@ 0x80
 8005c06:	421a      	tst	r2, r3
 8005c08:	d006      	beq.n	8005c18 <HAL_UART_IRQHandler+0x54>
          || ((cr3its & USART_CR3_TXFTIE) != 0U)))
 8005c0a:	2180      	movs	r1, #128	@ 0x80
 8005c0c:	0409      	lsls	r1, r1, #16
      && (((cr1its & USART_CR1_TXEIE_TXFNFIE) != 0U)
 8005c0e:	4002      	ands	r2, r0
          || ((cr3its & USART_CR3_TXFTIE) != 0U)))
 8005c10:	400d      	ands	r5, r1
 8005c12:	432a      	orrs	r2, r5
 8005c14:	d000      	beq.n	8005c18 <HAL_UART_IRQHandler+0x54>
 8005c16:	e0d9      	b.n	8005dcc <HAL_UART_IRQHandler+0x208>
  if (((isrflags & USART_ISR_TC) != 0U) && ((cr1its & USART_CR1_TCIE) != 0U))
 8005c18:	2240      	movs	r2, #64	@ 0x40
 8005c1a:	421a      	tst	r2, r3
 8005c1c:	d023      	beq.n	8005c66 <HAL_UART_IRQHandler+0xa2>
 8005c1e:	4202      	tst	r2, r0
 8005c20:	d021      	beq.n	8005c66 <HAL_UART_IRQHandler+0xa2>
  __ASM volatile ("MRS %0, primask" : "=r" (result) :: "memory");
 8005c22:	f3ef 8010 	mrs	r0, PRIMASK
  __ASM volatile ("MSR primask, %0" : : "r" (priMask) : "memory");
 8005c26:	2301      	movs	r3, #1
 8005c28:	f383 8810 	msr	PRIMASK, r3
  * @retval None
  */
static void UART_EndTransmit_IT(UART_HandleTypeDef *huart)
{
  /* Disable the UART Transmit Complete Interrupt */
  ATOMIC_CLEAR_BIT(huart->Instance->CR1, USART_CR1_TCIE);
 8005c2c:	6821      	ldr	r1, [r4, #0]
 8005c2e:	680b      	ldr	r3, [r1, #0]
 8005c30:	4393      	bics	r3, r2
 8005c32:	600b      	str	r3, [r1, #0]
 8005c34:	f380 8810 	msr	PRIMASK, r0

  /* Tx process is ended, restore huart->gState to Ready */
  huart->gState = HAL_UART_STATE_READY;
 8005c38:	2388      	movs	r3, #136	@ 0x88
 8005c3a:	3a20      	subs	r2, #32
 8005c3c:	50e2      	str	r2, [r4, r3]

  /* Cleat TxISR function pointer */
  huart->TxISR = NULL;
 8005c3e:	2300      	movs	r3, #0
 8005c40:	67a3      	str	r3, [r4, #120]	@ 0x78

#if (USE_HAL_UART_REGISTER_CALLBACKS == 1)
  /*Call registered Tx complete callback*/
  huart->TxCpltCallback(huart);
 8005c42:	3398      	adds	r3, #152	@ 0x98
 8005c44:	0020      	movs	r0, r4
 8005c46:	58e3      	ldr	r3, [r4, r3]
 8005c48:	4798      	blx	r3
}
 8005c4a:	bcf0      	pop	{r4, r5, r6, r7}
 8005c4c:	46bb      	mov	fp, r7
 8005c4e:	46b2      	mov	sl, r6
 8005c50:	46a9      	mov	r9, r5
 8005c52:	46a0      	mov	r8, r4
 8005c54:	bdf8      	pop	{r3, r4, r5, r6, r7, pc}
  if (((isrflags & USART_ISR_WUF) != 0U) && ((cr3its & USART_CR3_WUFIE) != 0U))
 8005c56:	026e      	lsls	r6, r5, #9
 8005c58:	d5d4      	bpl.n	8005c04 <HAL_UART_IRQHandler+0x40>
    huart->WakeupCallback(huart);
 8005c5a:	23b4      	movs	r3, #180	@ 0xb4
 8005c5c:	0020      	movs	r0, r4
 8005c5e:	58e3      	ldr	r3, [r4, r3]
    __HAL_UART_CLEAR_FLAG(huart, UART_CLEAR_WUF);
 8005c60:	6211      	str	r1, [r2, #32]
    huart->WakeupCallback(huart);
 8005c62:	4798      	blx	r3
    return;
 8005c64:	e7f1      	b.n	8005c4a <HAL_UART_IRQHandler+0x86>
  if (((isrflags & USART_ISR_TXFE) != 0U) && ((cr1its & USART_CR1_TXFEIE) != 0U))
 8005c66:	021a      	lsls	r2, r3, #8
 8005c68:	d502      	bpl.n	8005c70 <HAL_UART_IRQHandler+0xac>
 8005c6a:	0042      	lsls	r2, r0, #1
 8005c6c:	d500      	bpl.n	8005c70 <HAL_UART_IRQHandler+0xac>
 8005c6e:	e107      	b.n	8005e80 <HAL_UART_IRQHandler+0x2bc>
  if (((isrflags & USART_ISR_RXFF) != 0U) && ((cr1its & USART_CR1_RXFFIE) != 0U))
 8005c70:	01db      	lsls	r3, r3, #7
 8005c72:	d5ea      	bpl.n	8005c4a <HAL_UART_IRQHandler+0x86>
 8005c74:	2800      	cmp	r0, #0
 8005c76:	dae8      	bge.n	8005c4a <HAL_UART_IRQHandler+0x86>
    huart->RxFifoFullCallback(huart);
 8005c78:	23b8      	movs	r3, #184	@ 0xb8
 8005c7a:	58e3      	ldr	r3, [r4, r3]
 8005c7c:	e0a3      	b.n	8005dc6 <HAL_UART_IRQHandler+0x202>
      && ((((cr3its & (USART_CR3_RXFTIE | USART_CR3_EIE)) != 0U)
 8005c7e:	4e84      	ldr	r6, [pc, #528]	@ (8005e90 <HAL_UART_IRQHandler+0x2cc>)
           || ((cr1its & (USART_CR1_RXNEIE_RXFNEIE | USART_CR1_PEIE | USART_CR1_RTOIE)) != 0U))))
 8005c80:	4984      	ldr	r1, [pc, #528]	@ (8005e94 <HAL_UART_IRQHandler+0x2d0>)
      && ((((cr3its & (USART_CR3_RXFTIE | USART_CR3_EIE)) != 0U)
 8005c82:	402e      	ands	r6, r5
           || ((cr1its & (USART_CR1_RXNEIE_RXFNEIE | USART_CR1_PEIE | USART_CR1_RTOIE)) != 0U))))
 8005c84:	4001      	ands	r1, r0
 8005c86:	4331      	orrs	r1, r6
 8005c88:	d0b4      	beq.n	8005bf4 <HAL_UART_IRQHandler+0x30>
    if (((isrflags & USART_ISR_PE) != 0U) && ((cr1its & USART_CR1_PEIE) != 0U))
 8005c8a:	2101      	movs	r1, #1
 8005c8c:	4219      	tst	r1, r3
 8005c8e:	d008      	beq.n	8005ca2 <HAL_UART_IRQHandler+0xde>
 8005c90:	05c7      	lsls	r7, r0, #23
 8005c92:	d506      	bpl.n	8005ca2 <HAL_UART_IRQHandler+0xde>
      huart->ErrorCode |= HAL_UART_ERROR_PE;
 8005c94:	2790      	movs	r7, #144	@ 0x90
 8005c96:	46bc      	mov	ip, r7
      __HAL_UART_CLEAR_FLAG(huart, UART_CLEAR_PEF);
 8005c98:	6211      	str	r1, [r2, #32]
      huart->ErrorCode |= HAL_UART_ERROR_PE;
 8005c9a:	59e7      	ldr	r7, [r4, r7]
 8005c9c:	4339      	orrs	r1, r7
 8005c9e:	4667      	mov	r7, ip
 8005ca0:	51e1      	str	r1, [r4, r7]
    if (((isrflags & USART_ISR_NE) != 0U) && ((cr3its & USART_CR3_EIE) != 0U))
 8005ca2:	2104      	movs	r1, #4
 8005ca4:	000f      	movs	r7, r1
 8005ca6:	401f      	ands	r7, r3
 8005ca8:	46bc      	mov	ip, r7
    if (((isrflags & USART_ISR_FE) != 0U) && ((cr3its & USART_CR3_EIE) != 0U))
 8005caa:	2702      	movs	r7, #2
    if (((isrflags & USART_ISR_NE) != 0U) && ((cr3its & USART_CR3_EIE) != 0U))
 8005cac:	4689      	mov	r9, r1
    if (((isrflags & USART_ISR_FE) != 0U) && ((cr3its & USART_CR3_EIE) != 0U))
 8005cae:	421f      	tst	r7, r3
 8005cb0:	d073      	beq.n	8005d9a <HAL_UART_IRQHandler+0x1d6>
 8005cb2:	07e9      	lsls	r1, r5, #31
 8005cb4:	d50a      	bpl.n	8005ccc <HAL_UART_IRQHandler+0x108>
      huart->ErrorCode |= HAL_UART_ERROR_FE;
 8005cb6:	2190      	movs	r1, #144	@ 0x90
      __HAL_UART_CLEAR_FLAG(huart, UART_CLEAR_FEF);
 8005cb8:	6217      	str	r7, [r2, #32]
      huart->ErrorCode |= HAL_UART_ERROR_FE;
 8005cba:	5867      	ldr	r7, [r4, r1]
 8005cbc:	4688      	mov	r8, r1
 8005cbe:	4649      	mov	r1, r9
 8005cc0:	4339      	orrs	r1, r7
 8005cc2:	4647      	mov	r7, r8
 8005cc4:	51e1      	str	r1, [r4, r7]
    if (((isrflags & USART_ISR_NE) != 0U) && ((cr3its & USART_CR3_EIE) != 0U))
 8005cc6:	4661      	mov	r1, ip
 8005cc8:	2900      	cmp	r1, #0
 8005cca:	d16b      	bne.n	8005da4 <HAL_UART_IRQHandler+0x1e0>
    if (((isrflags & USART_ISR_ORE) != 0U)
 8005ccc:	2708      	movs	r7, #8
 8005cce:	421f      	tst	r7, r3
 8005cd0:	d008      	beq.n	8005ce4 <HAL_UART_IRQHandler+0x120>
        && (((cr1its & USART_CR1_RXNEIE_RXFNEIE) != 0U) ||
 8005cd2:	2120      	movs	r1, #32
 8005cd4:	4001      	ands	r1, r0
 8005cd6:	4331      	orrs	r1, r6
 8005cd8:	d004      	beq.n	8005ce4 <HAL_UART_IRQHandler+0x120>
      huart->ErrorCode |= HAL_UART_ERROR_ORE;
 8005cda:	2690      	movs	r6, #144	@ 0x90
      __HAL_UART_CLEAR_FLAG(huart, UART_CLEAR_OREF);
 8005cdc:	6217      	str	r7, [r2, #32]
      huart->ErrorCode |= HAL_UART_ERROR_ORE;
 8005cde:	59a1      	ldr	r1, [r4, r6]
 8005ce0:	4339      	orrs	r1, r7
 8005ce2:	51a1      	str	r1, [r4, r6]
    if (((isrflags & USART_ISR_RTOF) != 0U) && ((cr1its & USART_CR1_RTOIE) != 0U))
 8005ce4:	2180      	movs	r1, #128	@ 0x80
 8005ce6:	0109      	lsls	r1, r1, #4
 8005ce8:	420b      	tst	r3, r1
 8005cea:	d007      	beq.n	8005cfc <HAL_UART_IRQHandler+0x138>
 8005cec:	0146      	lsls	r6, r0, #5
 8005cee:	d505      	bpl.n	8005cfc <HAL_UART_IRQHandler+0x138>
      huart->ErrorCode |= HAL_UART_ERROR_RTO;
 8005cf0:	2690      	movs	r6, #144	@ 0x90
 8005cf2:	2720      	movs	r7, #32
      __HAL_UART_CLEAR_FLAG(huart, UART_CLEAR_RTOF);
 8005cf4:	6211      	str	r1, [r2, #32]
      huart->ErrorCode |= HAL_UART_ERROR_RTO;
 8005cf6:	59a1      	ldr	r1, [r4, r6]
 8005cf8:	4339      	orrs	r1, r7
 8005cfa:	51a1      	str	r1, [r4, r6]
    if (huart->ErrorCode != HAL_UART_ERROR_NONE)
 8005cfc:	2190      	movs	r1, #144	@ 0x90
 8005cfe:	5861      	ldr	r1, [r4, r1]
 8005d00:	2900      	cmp	r1, #0
 8005d02:	d0a2      	beq.n	8005c4a <HAL_UART_IRQHandler+0x86>
      if (((isrflags & USART_ISR_RXNE_RXFNE) != 0U)
 8005d04:	2120      	movs	r1, #32
 8005d06:	4219      	tst	r1, r3
 8005d08:	d005      	beq.n	8005d16 <HAL_UART_IRQHandler+0x152>
              || ((cr3its & USART_CR3_RXFTIE) != 0U)))
 8005d0a:	2380      	movs	r3, #128	@ 0x80
 8005d0c:	055b      	lsls	r3, r3, #21
          && (((cr1its & USART_CR1_RXNEIE_RXFNEIE) != 0U)
 8005d0e:	4001      	ands	r1, r0
              || ((cr3its & USART_CR3_RXFTIE) != 0U)))
 8005d10:	402b      	ands	r3, r5
 8005d12:	4319      	orrs	r1, r3
 8005d14:	d15e      	bne.n	8005dd4 <HAL_UART_IRQHandler+0x210>
      errorcode = huart->ErrorCode;
 8005d16:	2690      	movs	r6, #144	@ 0x90
      if ((HAL_IS_BIT_SET(huart->Instance->CR3, USART_CR3_DMAR)) ||
 8005d18:	2540      	movs	r5, #64	@ 0x40
      errorcode = huart->ErrorCode;
 8005d1a:	59a1      	ldr	r1, [r4, r6]
      if ((HAL_IS_BIT_SET(huart->Instance->CR3, USART_CR3_DMAR)) ||
 8005d1c:	6893      	ldr	r3, [r2, #8]
 8005d1e:	401d      	ands	r5, r3
          ((errorcode & (HAL_UART_ERROR_RTO | HAL_UART_ERROR_ORE)) != 0U))
 8005d20:	2328      	movs	r3, #40	@ 0x28
 8005d22:	400b      	ands	r3, r1
      if ((HAL_IS_BIT_SET(huart->Instance->CR3, USART_CR3_DMAR)) ||
 8005d24:	431d      	orrs	r5, r3
 8005d26:	d15c      	bne.n	8005de2 <HAL_UART_IRQHandler+0x21e>
        huart->ErrorCallback(huart);
 8005d28:	23a4      	movs	r3, #164	@ 0xa4
 8005d2a:	0020      	movs	r0, r4
 8005d2c:	58e3      	ldr	r3, [r4, r3]
 8005d2e:	4798      	blx	r3
        huart->ErrorCode = HAL_UART_ERROR_NONE;
 8005d30:	51a5      	str	r5, [r4, r6]
 8005d32:	e78a      	b.n	8005c4a <HAL_UART_IRQHandler+0x86>
      && ((isrflags & USART_ISR_IDLE) != 0U)
 8005d34:	2710      	movs	r7, #16
 8005d36:	421f      	tst	r7, r3
 8005d38:	d100      	bne.n	8005d3c <HAL_UART_IRQHandler+0x178>
 8005d3a:	e75f      	b.n	8005bfc <HAL_UART_IRQHandler+0x38>
      && ((cr1its & USART_ISR_IDLE) != 0U))
 8005d3c:	4207      	tst	r7, r0
 8005d3e:	d100      	bne.n	8005d42 <HAL_UART_IRQHandler+0x17e>
 8005d40:	e75c      	b.n	8005bfc <HAL_UART_IRQHandler+0x38>
    if (HAL_IS_BIT_SET(huart->Instance->CR3, USART_CR3_DMAR))
 8005d42:	2340      	movs	r3, #64	@ 0x40
 8005d44:	0018      	movs	r0, r3
    __HAL_UART_CLEAR_FLAG(huart, UART_CLEAR_IDLEF);
 8005d46:	6217      	str	r7, [r2, #32]
    if (HAL_IS_BIT_SET(huart->Instance->CR3, USART_CR3_DMAR))
 8005d48:	6892      	ldr	r2, [r2, #8]
 8005d4a:	4010      	ands	r0, r2
 8005d4c:	4213      	tst	r3, r2
 8005d4e:	d100      	bne.n	8005d52 <HAL_UART_IRQHandler+0x18e>
 8005d50:	e0a8      	b.n	8005ea4 <HAL_UART_IRQHandler+0x2e0>
      uint16_t nb_remaining_rx_data = (uint16_t) __HAL_DMA_GET_COUNTER(huart->hdmarx);
 8005d52:	2280      	movs	r2, #128	@ 0x80
 8005d54:	4694      	mov	ip, r2
 8005d56:	58a2      	ldr	r2, [r4, r2]
 8005d58:	6810      	ldr	r0, [r2, #0]
 8005d5a:	6842      	ldr	r2, [r0, #4]
 8005d5c:	b292      	uxth	r2, r2
      if ((nb_remaining_rx_data > 0U)
 8005d5e:	2a00      	cmp	r2, #0
 8005d60:	d100      	bne.n	8005d64 <HAL_UART_IRQHandler+0x1a0>
 8005d62:	e772      	b.n	8005c4a <HAL_UART_IRQHandler+0x86>
          && (nb_remaining_rx_data < huart->RxXferSize))
 8005d64:	215c      	movs	r1, #92	@ 0x5c
 8005d66:	468b      	mov	fp, r1
 8005d68:	5a61      	ldrh	r1, [r4, r1]
 8005d6a:	4291      	cmp	r1, r2
 8005d6c:	d800      	bhi.n	8005d70 <HAL_UART_IRQHandler+0x1ac>
 8005d6e:	e76c      	b.n	8005c4a <HAL_UART_IRQHandler+0x86>
        huart->RxXferCount = nb_remaining_rx_data;
 8005d70:	255e      	movs	r5, #94	@ 0x5e
 8005d72:	5362      	strh	r2, [r4, r5]
        if (HAL_IS_BIT_CLR(huart->hdmarx->Instance->CCR, DMA_CCR_CIRC))
 8005d74:	2220      	movs	r2, #32
 8005d76:	0015      	movs	r5, r2
 8005d78:	6800      	ldr	r0, [r0, #0]
 8005d7a:	4005      	ands	r5, r0
 8005d7c:	46a8      	mov	r8, r5
 8005d7e:	4202      	tst	r2, r0
 8005d80:	d100      	bne.n	8005d84 <HAL_UART_IRQHandler+0x1c0>
 8005d82:	e0cb      	b.n	8005f1c <HAL_UART_IRQHandler+0x358>
        huart->RxEventType = HAL_UART_RXEVENT_IDLE;
 8005d84:	2302      	movs	r3, #2
 8005d86:	6723      	str	r3, [r4, #112]	@ 0x70
        huart->RxEventCallback(huart, (huart->RxXferSize - huart->RxXferCount));
 8005d88:	335c      	adds	r3, #92	@ 0x5c
 8005d8a:	5ae3      	ldrh	r3, [r4, r3]
 8005d8c:	0020      	movs	r0, r4
 8005d8e:	1ac9      	subs	r1, r1, r3
 8005d90:	23c0      	movs	r3, #192	@ 0xc0
 8005d92:	b289      	uxth	r1, r1
 8005d94:	58e3      	ldr	r3, [r4, r3]
 8005d96:	4798      	blx	r3
 8005d98:	e757      	b.n	8005c4a <HAL_UART_IRQHandler+0x86>
    if (((isrflags & USART_ISR_NE) != 0U) && ((cr3its & USART_CR3_EIE) != 0U))
 8005d9a:	4661      	mov	r1, ip
 8005d9c:	2900      	cmp	r1, #0
 8005d9e:	d095      	beq.n	8005ccc <HAL_UART_IRQHandler+0x108>
 8005da0:	07e9      	lsls	r1, r5, #31
 8005da2:	d593      	bpl.n	8005ccc <HAL_UART_IRQHandler+0x108>
      __HAL_UART_CLEAR_FLAG(huart, UART_CLEAR_NEF);
 8005da4:	2104      	movs	r1, #4
 8005da6:	6211      	str	r1, [r2, #32]
      huart->ErrorCode |= HAL_UART_ERROR_NE;
 8005da8:	318c      	adds	r1, #140	@ 0x8c
 8005daa:	4689      	mov	r9, r1
 8005dac:	5861      	ldr	r1, [r4, r1]
 8005dae:	4688      	mov	r8, r1
 8005db0:	2102      	movs	r1, #2
 8005db2:	4647      	mov	r7, r8
 8005db4:	430f      	orrs	r7, r1
 8005db6:	0039      	movs	r1, r7
 8005db8:	464f      	mov	r7, r9
 8005dba:	51e1      	str	r1, [r4, r7]
 8005dbc:	e786      	b.n	8005ccc <HAL_UART_IRQHandler+0x108>
      if (huart->RxISR != NULL)
 8005dbe:	6f63      	ldr	r3, [r4, #116]	@ 0x74
 8005dc0:	2b00      	cmp	r3, #0
 8005dc2:	d100      	bne.n	8005dc6 <HAL_UART_IRQHandler+0x202>
 8005dc4:	e741      	b.n	8005c4a <HAL_UART_IRQHandler+0x86>
    huart->RxFifoFullCallback(huart);
 8005dc6:	0020      	movs	r0, r4
 8005dc8:	4798      	blx	r3
    return;
 8005dca:	e73e      	b.n	8005c4a <HAL_UART_IRQHandler+0x86>
    if (huart->TxISR != NULL)
 8005dcc:	6fa3      	ldr	r3, [r4, #120]	@ 0x78
 8005dce:	2b00      	cmp	r3, #0
 8005dd0:	d1f9      	bne.n	8005dc6 <HAL_UART_IRQHandler+0x202>
 8005dd2:	e73a      	b.n	8005c4a <HAL_UART_IRQHandler+0x86>
        if (huart->RxISR != NULL)
 8005dd4:	6f63      	ldr	r3, [r4, #116]	@ 0x74
 8005dd6:	2b00      	cmp	r3, #0
 8005dd8:	d09d      	beq.n	8005d16 <HAL_UART_IRQHandler+0x152>
          huart->RxISR(huart);
 8005dda:	0020      	movs	r0, r4
 8005ddc:	4798      	blx	r3
      if ((HAL_IS_BIT_SET(huart->Instance->CR3, USART_CR3_DMAR)) ||
 8005dde:	6822      	ldr	r2, [r4, #0]
 8005de0:	e799      	b.n	8005d16 <HAL_UART_IRQHandler+0x152>
  __ASM volatile ("MRS %0, primask" : "=r" (result) :: "memory");
 8005de2:	f3ef 8010 	mrs	r0, PRIMASK
  __ASM volatile ("MSR primask, %0" : : "r" (priMask) : "memory");
 8005de6:	2201      	movs	r2, #1
 8005de8:	f382 8810 	msr	PRIMASK, r2
  ATOMIC_CLEAR_BIT(huart->Instance->CR1, (USART_CR1_RXNEIE_RXFNEIE | USART_CR1_PEIE));
 8005dec:	6821      	ldr	r1, [r4, #0]
 8005dee:	4d2a      	ldr	r5, [pc, #168]	@ (8005e98 <HAL_UART_IRQHandler+0x2d4>)
 8005df0:	680b      	ldr	r3, [r1, #0]
 8005df2:	402b      	ands	r3, r5
 8005df4:	600b      	str	r3, [r1, #0]
 8005df6:	f380 8810 	msr	PRIMASK, r0
  __ASM volatile ("MRS %0, primask" : "=r" (result) :: "memory");
 8005dfa:	f3ef 8110 	mrs	r1, PRIMASK
  __ASM volatile ("MSR primask, %0" : : "r" (priMask) : "memory");
 8005dfe:	f382 8810 	msr	PRIMASK, r2
  ATOMIC_CLEAR_BIT(huart->Instance->CR3, (USART_CR3_EIE | USART_CR3_RXFTIE));
 8005e02:	6822      	ldr	r2, [r4, #0]
 8005e04:	4825      	ldr	r0, [pc, #148]	@ (8005e9c <HAL_UART_IRQHandler+0x2d8>)
 8005e06:	6893      	ldr	r3, [r2, #8]
 8005e08:	4003      	ands	r3, r0
 8005e0a:	6093      	str	r3, [r2, #8]
 8005e0c:	f381 8810 	msr	PRIMASK, r1
  if (huart->ReceptionType == HAL_UART_RECEPTION_TOIDLE)
 8005e10:	6ee3      	ldr	r3, [r4, #108]	@ 0x6c
 8005e12:	2b01      	cmp	r3, #1
 8005e14:	d10a      	bne.n	8005e2c <HAL_UART_IRQHandler+0x268>
  __ASM volatile ("MRS %0, primask" : "=r" (result) :: "memory");
 8005e16:	f3ef 8110 	mrs	r1, PRIMASK
  __ASM volatile ("MSR primask, %0" : : "r" (priMask) : "memory");
 8005e1a:	f383 8810 	msr	PRIMASK, r3
    ATOMIC_CLEAR_BIT(huart->Instance->CR1, USART_CR1_IDLEIE);
 8005e1e:	2010      	movs	r0, #16
 8005e20:	6822      	ldr	r2, [r4, #0]
 8005e22:	6813      	ldr	r3, [r2, #0]
 8005e24:	4383      	bics	r3, r0
 8005e26:	6013      	str	r3, [r2, #0]
 8005e28:	f381 8810 	msr	PRIMASK, r1
  huart->RxState = HAL_UART_STATE_READY;
 8005e2c:	238c      	movs	r3, #140	@ 0x8c
 8005e2e:	2220      	movs	r2, #32
 8005e30:	50e2      	str	r2, [r4, r3]
  huart->ReceptionType = HAL_UART_RECEPTION_STANDARD;
 8005e32:	2300      	movs	r3, #0
 8005e34:	66e3      	str	r3, [r4, #108]	@ 0x6c
  huart->RxISR = NULL;
 8005e36:	6763      	str	r3, [r4, #116]	@ 0x74
        if (HAL_IS_BIT_SET(huart->Instance->CR3, USART_CR3_DMAR))
 8005e38:	6823      	ldr	r3, [r4, #0]
 8005e3a:	689a      	ldr	r2, [r3, #8]
 8005e3c:	2340      	movs	r3, #64	@ 0x40
 8005e3e:	4213      	tst	r3, r2
 8005e40:	d019      	beq.n	8005e76 <HAL_UART_IRQHandler+0x2b2>
  __ASM volatile ("MRS %0, primask" : "=r" (result) :: "memory");
 8005e42:	f3ef 8010 	mrs	r0, PRIMASK
  __ASM volatile ("MSR primask, %0" : : "r" (priMask) : "memory");
 8005e46:	2201      	movs	r2, #1
 8005e48:	f382 8810 	msr	PRIMASK, r2
          ATOMIC_CLEAR_BIT(huart->Instance->CR3, USART_CR3_DMAR);
 8005e4c:	6821      	ldr	r1, [r4, #0]
 8005e4e:	688a      	ldr	r2, [r1, #8]
 8005e50:	439a      	bics	r2, r3
 8005e52:	608a      	str	r2, [r1, #8]
 8005e54:	f380 8810 	msr	PRIMASK, r0
          if (huart->hdmarx != NULL)
 8005e58:	2580      	movs	r5, #128	@ 0x80
 8005e5a:	5960      	ldr	r0, [r4, r5]
 8005e5c:	2800      	cmp	r0, #0
 8005e5e:	d00a      	beq.n	8005e76 <HAL_UART_IRQHandler+0x2b2>
            huart->hdmarx->XferAbortCallback = UART_DMAAbortOnError;
 8005e60:	4b0f      	ldr	r3, [pc, #60]	@ (8005ea0 <HAL_UART_IRQHandler+0x2dc>)
 8005e62:	6383      	str	r3, [r0, #56]	@ 0x38
            if (HAL_DMA_Abort_IT(huart->hdmarx) != HAL_OK)
 8005e64:	f7fc ffbe 	bl	8002de4 <HAL_DMA_Abort_IT>
 8005e68:	2800      	cmp	r0, #0
 8005e6a:	d100      	bne.n	8005e6e <HAL_UART_IRQHandler+0x2aa>
 8005e6c:	e6ed      	b.n	8005c4a <HAL_UART_IRQHandler+0x86>
              huart->hdmarx->XferAbortCallback(huart->hdmarx);
 8005e6e:	5960      	ldr	r0, [r4, r5]
 8005e70:	6b83      	ldr	r3, [r0, #56]	@ 0x38
 8005e72:	4798      	blx	r3
 8005e74:	e6e9      	b.n	8005c4a <HAL_UART_IRQHandler+0x86>
          huart->ErrorCallback(huart);
 8005e76:	23a4      	movs	r3, #164	@ 0xa4
 8005e78:	0020      	movs	r0, r4
 8005e7a:	58e3      	ldr	r3, [r4, r3]
 8005e7c:	4798      	blx	r3
 8005e7e:	e6e4      	b.n	8005c4a <HAL_UART_IRQHandler+0x86>
    huart->TxFifoEmptyCallback(huart);
 8005e80:	23bc      	movs	r3, #188	@ 0xbc
 8005e82:	0020      	movs	r0, r4
 8005e84:	58e3      	ldr	r3, [r4, r3]
 8005e86:	4798      	blx	r3
    return;
 8005e88:	e6df      	b.n	8005c4a <HAL_UART_IRQHandler+0x86>
 8005e8a:	46c0      	nop			@ (mov r8, r8)
 8005e8c:	0000080f 	.word	0x0000080f
 8005e90:	10000001 	.word	0x10000001
 8005e94:	04000120 	.word	0x04000120
 8005e98:	fffffedf 	.word	0xfffffedf
 8005e9c:	effffffe 	.word	0xeffffffe
 8005ea0:	0800590d 	.word	0x0800590d
      uint16_t nb_rx_data = huart->RxXferSize - huart->RxXferCount;
 8005ea4:	235c      	movs	r3, #92	@ 0x5c
 8005ea6:	225e      	movs	r2, #94	@ 0x5e
 8005ea8:	5ae1      	ldrh	r1, [r4, r3]
 8005eaa:	5aa3      	ldrh	r3, [r4, r2]
      if ((huart->RxXferCount > 0U)
 8005eac:	5aa2      	ldrh	r2, [r4, r2]
      uint16_t nb_rx_data = huart->RxXferSize - huart->RxXferCount;
 8005eae:	b29b      	uxth	r3, r3
      if ((huart->RxXferCount > 0U)
 8005eb0:	2a00      	cmp	r2, #0
 8005eb2:	d100      	bne.n	8005eb6 <HAL_UART_IRQHandler+0x2f2>
 8005eb4:	e6c9      	b.n	8005c4a <HAL_UART_IRQHandler+0x86>
      uint16_t nb_rx_data = huart->RxXferSize - huart->RxXferCount;
 8005eb6:	1ac9      	subs	r1, r1, r3
 8005eb8:	b28b      	uxth	r3, r1
 8005eba:	4698      	mov	r8, r3
          && (nb_rx_data > 0U))
 8005ebc:	2b00      	cmp	r3, #0
 8005ebe:	d100      	bne.n	8005ec2 <HAL_UART_IRQHandler+0x2fe>
 8005ec0:	e6c3      	b.n	8005c4a <HAL_UART_IRQHandler+0x86>
  __ASM volatile ("MRS %0, primask" : "=r" (result) :: "memory");
 8005ec2:	f3ef 8510 	mrs	r5, PRIMASK
  __ASM volatile ("MSR primask, %0" : : "r" (priMask) : "memory");
 8005ec6:	f386 8810 	msr	PRIMASK, r6
        ATOMIC_CLEAR_BIT(huart->Instance->CR1, (USART_CR1_RXNEIE_RXFNEIE | USART_CR1_PEIE));
 8005eca:	6822      	ldr	r2, [r4, #0]
 8005ecc:	492d      	ldr	r1, [pc, #180]	@ (8005f84 <HAL_UART_IRQHandler+0x3c0>)
 8005ece:	6813      	ldr	r3, [r2, #0]
 8005ed0:	400b      	ands	r3, r1
 8005ed2:	6013      	str	r3, [r2, #0]
 8005ed4:	f385 8810 	msr	PRIMASK, r5
  __ASM volatile ("MRS %0, primask" : "=r" (result) :: "memory");
 8005ed8:	f3ef 8510 	mrs	r5, PRIMASK
  __ASM volatile ("MSR primask, %0" : : "r" (priMask) : "memory");
 8005edc:	f386 8810 	msr	PRIMASK, r6
        ATOMIC_CLEAR_BIT(huart->Instance->CR3, (USART_CR3_EIE | USART_CR3_RXFTIE));
 8005ee0:	6822      	ldr	r2, [r4, #0]
 8005ee2:	4929      	ldr	r1, [pc, #164]	@ (8005f88 <HAL_UART_IRQHandler+0x3c4>)
 8005ee4:	6893      	ldr	r3, [r2, #8]
 8005ee6:	400b      	ands	r3, r1
 8005ee8:	6093      	str	r3, [r2, #8]
 8005eea:	f385 8810 	msr	PRIMASK, r5
        huart->RxState = HAL_UART_STATE_READY;
 8005eee:	238c      	movs	r3, #140	@ 0x8c
 8005ef0:	2220      	movs	r2, #32
 8005ef2:	50e2      	str	r2, [r4, r3]
        huart->ReceptionType = HAL_UART_RECEPTION_STANDARD;
 8005ef4:	66e0      	str	r0, [r4, #108]	@ 0x6c
        huart->RxISR = NULL;
 8005ef6:	6760      	str	r0, [r4, #116]	@ 0x74
  __ASM volatile ("MRS %0, primask" : "=r" (result) :: "memory");
 8005ef8:	f3ef 8010 	mrs	r0, PRIMASK
  __ASM volatile ("MSR primask, %0" : : "r" (priMask) : "memory");
 8005efc:	f386 8810 	msr	PRIMASK, r6
        ATOMIC_CLEAR_BIT(huart->Instance->CR1, USART_CR1_IDLEIE);
 8005f00:	6822      	ldr	r2, [r4, #0]
 8005f02:	6813      	ldr	r3, [r2, #0]
 8005f04:	43bb      	bics	r3, r7
 8005f06:	6013      	str	r3, [r2, #0]
 8005f08:	f380 8810 	msr	PRIMASK, r0
        huart->RxEventType = HAL_UART_RXEVENT_IDLE;
 8005f0c:	2302      	movs	r3, #2
 8005f0e:	6723      	str	r3, [r4, #112]	@ 0x70
        huart->RxEventCallback(huart, nb_rx_data);
 8005f10:	33be      	adds	r3, #190	@ 0xbe
 8005f12:	4641      	mov	r1, r8
 8005f14:	0020      	movs	r0, r4
 8005f16:	58e3      	ldr	r3, [r4, r3]
 8005f18:	4798      	blx	r3
 8005f1a:	e696      	b.n	8005c4a <HAL_UART_IRQHandler+0x86>
  __ASM volatile ("MRS %0, primask" : "=r" (result) :: "memory");
 8005f1c:	f3ef 8910 	mrs	r9, PRIMASK
  __ASM volatile ("MSR primask, %0" : : "r" (priMask) : "memory");
 8005f20:	f386 8810 	msr	PRIMASK, r6
          ATOMIC_CLEAR_BIT(huart->Instance->CR1, USART_CR1_PEIE);
 8005f24:	6820      	ldr	r0, [r4, #0]
 8005f26:	4d19      	ldr	r5, [pc, #100]	@ (8005f8c <HAL_UART_IRQHandler+0x3c8>)
 8005f28:	6801      	ldr	r1, [r0, #0]
 8005f2a:	4029      	ands	r1, r5
 8005f2c:	6001      	str	r1, [r0, #0]
 8005f2e:	f389 8810 	msr	PRIMASK, r9
  __ASM volatile ("MRS %0, primask" : "=r" (result) :: "memory");
 8005f32:	f3ef 8910 	mrs	r9, PRIMASK
  __ASM volatile ("MSR primask, %0" : : "r" (priMask) : "memory");
 8005f36:	f386 8810 	msr	PRIMASK, r6
          ATOMIC_CLEAR_BIT(huart->Instance->CR3, USART_CR3_EIE);
 8005f3a:	6820      	ldr	r0, [r4, #0]
 8005f3c:	6881      	ldr	r1, [r0, #8]
 8005f3e:	43b1      	bics	r1, r6
 8005f40:	6081      	str	r1, [r0, #8]
 8005f42:	f389 8810 	msr	PRIMASK, r9
  __ASM volatile ("MRS %0, primask" : "=r" (result) :: "memory");
 8005f46:	f3ef 8910 	mrs	r9, PRIMASK
  __ASM volatile ("MSR primask, %0" : : "r" (priMask) : "memory");
 8005f4a:	f386 8810 	msr	PRIMASK, r6
          ATOMIC_CLEAR_BIT(huart->Instance->CR3, USART_CR3_DMAR);
 8005f4e:	6820      	ldr	r0, [r4, #0]
 8005f50:	6881      	ldr	r1, [r0, #8]
 8005f52:	4399      	bics	r1, r3
 8005f54:	6081      	str	r1, [r0, #8]
 8005f56:	f389 8810 	msr	PRIMASK, r9
          huart->RxState = HAL_UART_STATE_READY;
 8005f5a:	334c      	adds	r3, #76	@ 0x4c
 8005f5c:	50e2      	str	r2, [r4, r3]
          huart->ReceptionType = HAL_UART_RECEPTION_STANDARD;
 8005f5e:	4643      	mov	r3, r8
 8005f60:	66e3      	str	r3, [r4, #108]	@ 0x6c
  __ASM volatile ("MRS %0, primask" : "=r" (result) :: "memory");
 8005f62:	f3ef 8110 	mrs	r1, PRIMASK
  __ASM volatile ("MSR primask, %0" : : "r" (priMask) : "memory");
 8005f66:	f386 8810 	msr	PRIMASK, r6
          ATOMIC_CLEAR_BIT(huart->Instance->CR1, USART_CR1_IDLEIE);
 8005f6a:	6822      	ldr	r2, [r4, #0]
 8005f6c:	6813      	ldr	r3, [r2, #0]
 8005f6e:	43bb      	bics	r3, r7
 8005f70:	6013      	str	r3, [r2, #0]
 8005f72:	f381 8810 	msr	PRIMASK, r1
          (void)HAL_DMA_Abort(huart->hdmarx);
 8005f76:	4663      	mov	r3, ip
 8005f78:	58e0      	ldr	r0, [r4, r3]
 8005f7a:	f7fc fef7 	bl	8002d6c <HAL_DMA_Abort>
        huart->RxEventCallback(huart, (huart->RxXferSize - huart->RxXferCount));
 8005f7e:	465b      	mov	r3, fp
 8005f80:	5ae1      	ldrh	r1, [r4, r3]
 8005f82:	e6ff      	b.n	8005d84 <HAL_UART_IRQHandler+0x1c0>
 8005f84:	fffffedf 	.word	0xfffffedf
 8005f88:	effffffe 	.word	0xeffffffe
 8005f8c:	fffffeff 	.word	0xfffffeff

08005f90 <UART_AdvFeatureConfig>:
  if (HAL_IS_BIT_SET(huart->AdvancedInit.AdvFeatureInit, UART_ADVFEATURE_SWAP_INIT))
 8005f90:	6a83      	ldr	r3, [r0, #40]	@ 0x28
{
 8005f92:	b530      	push	{r4, r5, lr}
  if (HAL_IS_BIT_SET(huart->AdvancedInit.AdvFeatureInit, UART_ADVFEATURE_SWAP_INIT))
 8005f94:	071a      	lsls	r2, r3, #28
 8005f96:	d506      	bpl.n	8005fa6 <UART_AdvFeatureConfig+0x16>
    MODIFY_REG(huart->Instance->CR2, USART_CR2_SWAP, huart->AdvancedInit.Swap);
 8005f98:	6801      	ldr	r1, [r0, #0]
 8005f9a:	4c28      	ldr	r4, [pc, #160]	@ (800603c <UART_AdvFeatureConfig+0xac>)
 8005f9c:	684a      	ldr	r2, [r1, #4]
 8005f9e:	4022      	ands	r2, r4
 8005fa0:	6b84      	ldr	r4, [r0, #56]	@ 0x38
 8005fa2:	4322      	orrs	r2, r4
 8005fa4:	604a      	str	r2, [r1, #4]
  if (HAL_IS_BIT_SET(huart->AdvancedInit.AdvFeatureInit, UART_ADVFEATURE_TXINVERT_INIT))
 8005fa6:	07da      	lsls	r2, r3, #31
 8005fa8:	d506      	bpl.n	8005fb8 <UART_AdvFeatureConfig+0x28>
    MODIFY_REG(huart->Instance->CR2, USART_CR2_TXINV, huart->AdvancedInit.TxPinLevelInvert);
 8005faa:	6801      	ldr	r1, [r0, #0]
 8005fac:	4c24      	ldr	r4, [pc, #144]	@ (8006040 <UART_AdvFeatureConfig+0xb0>)
 8005fae:	684a      	ldr	r2, [r1, #4]
 8005fb0:	4022      	ands	r2, r4
 8005fb2:	6ac4      	ldr	r4, [r0, #44]	@ 0x2c
 8005fb4:	4322      	orrs	r2, r4
 8005fb6:	604a      	str	r2, [r1, #4]
  if (HAL_IS_BIT_SET(huart->AdvancedInit.AdvFeatureInit, UART_ADVFEATURE_RXINVERT_INIT))
 8005fb8:	079a      	lsls	r2, r3, #30
 8005fba:	d506      	bpl.n	8005fca <UART_AdvFeatureConfig+0x3a>
    MODIFY_REG(huart->Instance->CR2, USART_CR2_RXINV, huart->AdvancedInit.RxPinLevelInvert);
 8005fbc:	6801      	ldr	r1, [r0, #0]
 8005fbe:	4c21      	ldr	r4, [pc, #132]	@ (8006044 <UART_AdvFeatureConfig+0xb4>)
 8005fc0:	684a      	ldr	r2, [r1, #4]
 8005fc2:	4022      	ands	r2, r4
 8005fc4:	6b04      	ldr	r4, [r0, #48]	@ 0x30
 8005fc6:	4322      	orrs	r2, r4
 8005fc8:	604a      	str	r2, [r1, #4]
  if (HAL_IS_BIT_SET(huart->AdvancedInit.AdvFeatureInit, UART_ADVFEATURE_DATAINVERT_INIT))
 8005fca:	075a      	lsls	r2, r3, #29
 8005fcc:	d506      	bpl.n	8005fdc <UART_AdvFeatureConfig+0x4c>
    MODIFY_REG(huart->Instance->CR2, USART_CR2_DATAINV, huart->AdvancedInit.DataInvert);
 8005fce:	6801      	ldr	r1, [r0, #0]
 8005fd0:	4c1d      	ldr	r4, [pc, #116]	@ (8006048 <UART_AdvFeatureConfig+0xb8>)
 8005fd2:	684a      	ldr	r2, [r1, #4]
 8005fd4:	4022      	ands	r2, r4
 8005fd6:	6b44      	ldr	r4, [r0, #52]	@ 0x34
 8005fd8:	4322      	orrs	r2, r4
 8005fda:	604a      	str	r2, [r1, #4]
  if (HAL_IS_BIT_SET(huart->AdvancedInit.AdvFeatureInit, UART_ADVFEATURE_RXOVERRUNDISABLE_INIT))
 8005fdc:	06da      	lsls	r2, r3, #27
 8005fde:	d506      	bpl.n	8005fee <UART_AdvFeatureConfig+0x5e>
    MODIFY_REG(huart->Instance->CR3, USART_CR3_OVRDIS, huart->AdvancedInit.OverrunDisable);
 8005fe0:	6801      	ldr	r1, [r0, #0]
 8005fe2:	4c1a      	ldr	r4, [pc, #104]	@ (800604c <UART_AdvFeatureConfig+0xbc>)
 8005fe4:	688a      	ldr	r2, [r1, #8]
 8005fe6:	4022      	ands	r2, r4
 8005fe8:	6bc4      	ldr	r4, [r0, #60]	@ 0x3c
 8005fea:	4322      	orrs	r2, r4
 8005fec:	608a      	str	r2, [r1, #8]
  if (HAL_IS_BIT_SET(huart->AdvancedInit.AdvFeatureInit, UART_ADVFEATURE_DMADISABLEONERROR_INIT))
 8005fee:	069a      	lsls	r2, r3, #26
 8005ff0:	d506      	bpl.n	8006000 <UART_AdvFeatureConfig+0x70>
    MODIFY_REG(huart->Instance->CR3, USART_CR3_DDRE, huart->AdvancedInit.DMADisableonRxError);
 8005ff2:	6801      	ldr	r1, [r0, #0]
 8005ff4:	4c16      	ldr	r4, [pc, #88]	@ (8006050 <UART_AdvFeatureConfig+0xc0>)
 8005ff6:	688a      	ldr	r2, [r1, #8]
 8005ff8:	4022      	ands	r2, r4
 8005ffa:	6c04      	ldr	r4, [r0, #64]	@ 0x40
 8005ffc:	4322      	orrs	r2, r4
 8005ffe:	608a      	str	r2, [r1, #8]
  if (HAL_IS_BIT_SET(huart->AdvancedInit.AdvFeatureInit, UART_ADVFEATURE_AUTOBAUDRATE_INIT))
 8006000:	065a      	lsls	r2, r3, #25
 8006002:	d50a      	bpl.n	800601a <UART_AdvFeatureConfig+0x8a>
    MODIFY_REG(huart->Instance->CR2, USART_CR2_ABREN, huart->AdvancedInit.AutoBaudRateEnable);
 8006004:	6801      	ldr	r1, [r0, #0]
 8006006:	4d13      	ldr	r5, [pc, #76]	@ (8006054 <UART_AdvFeatureConfig+0xc4>)
 8006008:	684a      	ldr	r2, [r1, #4]
 800600a:	6c44      	ldr	r4, [r0, #68]	@ 0x44
 800600c:	402a      	ands	r2, r5
 800600e:	4322      	orrs	r2, r4
 8006010:	604a      	str	r2, [r1, #4]
    if (huart->AdvancedInit.AutoBaudRateEnable == UART_ADVFEATURE_AUTOBAUDRATE_ENABLE)
 8006012:	2280      	movs	r2, #128	@ 0x80
 8006014:	0352      	lsls	r2, r2, #13
 8006016:	4294      	cmp	r4, r2
 8006018:	d009      	beq.n	800602e <UART_AdvFeatureConfig+0x9e>
  if (HAL_IS_BIT_SET(huart->AdvancedInit.AdvFeatureInit, UART_ADVFEATURE_MSBFIRST_INIT))
 800601a:	061b      	lsls	r3, r3, #24
 800601c:	d506      	bpl.n	800602c <UART_AdvFeatureConfig+0x9c>
    MODIFY_REG(huart->Instance->CR2, USART_CR2_MSBFIRST, huart->AdvancedInit.MSBFirst);
 800601e:	6802      	ldr	r2, [r0, #0]
 8006020:	490d      	ldr	r1, [pc, #52]	@ (8006058 <UART_AdvFeatureConfig+0xc8>)
 8006022:	6853      	ldr	r3, [r2, #4]
 8006024:	400b      	ands	r3, r1
 8006026:	6cc1      	ldr	r1, [r0, #76]	@ 0x4c
 8006028:	430b      	orrs	r3, r1
 800602a:	6053      	str	r3, [r2, #4]
}
 800602c:	bd30      	pop	{r4, r5, pc}
      MODIFY_REG(huart->Instance->CR2, USART_CR2_ABRMODE, huart->AdvancedInit.AutoBaudRateMode);
 800602e:	684a      	ldr	r2, [r1, #4]
 8006030:	4c0a      	ldr	r4, [pc, #40]	@ (800605c <UART_AdvFeatureConfig+0xcc>)
 8006032:	4022      	ands	r2, r4
 8006034:	6c84      	ldr	r4, [r0, #72]	@ 0x48
 8006036:	4322      	orrs	r2, r4
 8006038:	604a      	str	r2, [r1, #4]
 800603a:	e7ee      	b.n	800601a <UART_AdvFeatureConfig+0x8a>
 800603c:	ffff7fff 	.word	0xffff7fff
 8006040:	fffdffff 	.word	0xfffdffff
 8006044:	fffeffff 	.word	0xfffeffff
 8006048:	fffbffff 	.word	0xfffbffff
 800604c:	ffffefff 	.word	0xffffefff
 8006050:	ffffdfff 	.word	0xffffdfff
 8006054:	ffefffff 	.word	0xffefffff
 8006058:	fff7ffff 	.word	0xfff7ffff
 800605c:	ff9fffff 	.word	0xff9fffff

08006060 <UART_CheckIdleState>:
{
 8006060:	b5f0      	push	{r4, r5, r6, r7, lr}
  huart->ErrorCode = HAL_UART_ERROR_NONE;
 8006062:	2390      	movs	r3, #144	@ 0x90
 8006064:	2200      	movs	r2, #0
{
 8006066:	46c6      	mov	lr, r8
 8006068:	0004      	movs	r4, r0
 800606a:	b500      	push	{lr}
  huart->ErrorCode = HAL_UART_ERROR_NONE;
 800606c:	50c2      	str	r2, [r0, r3]
  tickstart = HAL_GetTick();
 800606e:	f7fb ffc9 	bl	8002004 <HAL_GetTick>
  if ((huart->Instance->CR1 & USART_CR1_TE) == USART_CR1_TE)
 8006072:	6823      	ldr	r3, [r4, #0]
  tickstart = HAL_GetTick();
 8006074:	0005      	movs	r5, r0
  if ((huart->Instance->CR1 & USART_CR1_TE) == USART_CR1_TE)
 8006076:	681a      	ldr	r2, [r3, #0]
 8006078:	0712      	lsls	r2, r2, #28
 800607a:	d411      	bmi.n	80060a0 <UART_CheckIdleState+0x40>
  if ((huart->Instance->CR1 & USART_CR1_RE) == USART_CR1_RE)
 800607c:	681a      	ldr	r2, [r3, #0]
 800607e:	0752      	lsls	r2, r2, #29
 8006080:	d43e      	bmi.n	8006100 <UART_CheckIdleState+0xa0>
  huart->gState = HAL_UART_STATE_READY;
 8006082:	2320      	movs	r3, #32
 8006084:	2288      	movs	r2, #136	@ 0x88
 8006086:	50a3      	str	r3, [r4, r2]
  huart->RxState = HAL_UART_STATE_READY;
 8006088:	3204      	adds	r2, #4
 800608a:	50a3      	str	r3, [r4, r2]
  huart->ReceptionType = HAL_UART_RECEPTION_STANDARD;
 800608c:	2300      	movs	r3, #0
  return HAL_OK;
 800608e:	2000      	movs	r0, #0
  huart->ReceptionType = HAL_UART_RECEPTION_STANDARD;
 8006090:	66e3      	str	r3, [r4, #108]	@ 0x6c
  huart->RxEventType = HAL_UART_RXEVENT_TC;
 8006092:	6723      	str	r3, [r4, #112]	@ 0x70
      __HAL_UNLOCK(huart);
 8006094:	2384      	movs	r3, #132	@ 0x84
 8006096:	2200      	movs	r2, #0
 8006098:	54e2      	strb	r2, [r4, r3]
}
 800609a:	bc80      	pop	{r7}
 800609c:	46b8      	mov	r8, r7
 800609e:	bdf0      	pop	{r4, r5, r6, r7, pc}
  while ((__HAL_UART_GET_FLAG(huart, Flag) ? SET : RESET) == Status)
 80060a0:	69da      	ldr	r2, [r3, #28]
 80060a2:	0292      	lsls	r2, r2, #10
 80060a4:	d4ea      	bmi.n	800607c <UART_CheckIdleState+0x1c>
      if (((HAL_GetTick() - Tickstart) > Timeout) || (Timeout == 0U))
 80060a6:	2680      	movs	r6, #128	@ 0x80
        if (__HAL_UART_GET_FLAG(huart, UART_FLAG_ORE) == SET)
 80060a8:	2308      	movs	r3, #8
      if ((READ_BIT(huart->Instance->CR1, USART_CR1_RE) != 0U) && (Flag != UART_FLAG_TXE) && (Flag != UART_FLAG_TC))
 80060aa:	2704      	movs	r7, #4
        if (__HAL_UART_GET_FLAG(huart, UART_FLAG_ORE) == SET)
 80060ac:	4698      	mov	r8, r3
      if (((HAL_GetTick() - Tickstart) > Timeout) || (Timeout == 0U))
 80060ae:	04b6      	lsls	r6, r6, #18
 80060b0:	e010      	b.n	80060d4 <UART_CheckIdleState+0x74>
      if ((READ_BIT(huart->Instance->CR1, USART_CR1_RE) != 0U) && (Flag != UART_FLAG_TXE) && (Flag != UART_FLAG_TC))
 80060b2:	6823      	ldr	r3, [r4, #0]
 80060b4:	681a      	ldr	r2, [r3, #0]
 80060b6:	4217      	tst	r7, r2
 80060b8:	d009      	beq.n	80060ce <UART_CheckIdleState+0x6e>
        if (__HAL_UART_GET_FLAG(huart, UART_FLAG_ORE) == SET)
 80060ba:	4641      	mov	r1, r8
 80060bc:	69da      	ldr	r2, [r3, #28]
 80060be:	4211      	tst	r1, r2
 80060c0:	d159      	bne.n	8006176 <UART_CheckIdleState+0x116>
        if (__HAL_UART_GET_FLAG(huart, UART_FLAG_RTOF) == SET)
 80060c2:	2280      	movs	r2, #128	@ 0x80
 80060c4:	69d9      	ldr	r1, [r3, #28]
 80060c6:	0112      	lsls	r2, r2, #4
 80060c8:	4211      	tst	r1, r2
 80060ca:	d000      	beq.n	80060ce <UART_CheckIdleState+0x6e>
 80060cc:	e085      	b.n	80061da <UART_CheckIdleState+0x17a>
  while ((__HAL_UART_GET_FLAG(huart, Flag) ? SET : RESET) == Status)
 80060ce:	69da      	ldr	r2, [r3, #28]
 80060d0:	0292      	lsls	r2, r2, #10
 80060d2:	d4d3      	bmi.n	800607c <UART_CheckIdleState+0x1c>
      if (((HAL_GetTick() - Tickstart) > Timeout) || (Timeout == 0U))
 80060d4:	f7fb ff96 	bl	8002004 <HAL_GetTick>
 80060d8:	1b40      	subs	r0, r0, r5
 80060da:	42b0      	cmp	r0, r6
 80060dc:	d3e9      	bcc.n	80060b2 <UART_CheckIdleState+0x52>
  __ASM volatile ("MRS %0, primask" : "=r" (result) :: "memory");
 80060de:	f3ef 8110 	mrs	r1, PRIMASK
  __ASM volatile ("MSR primask, %0" : : "r" (priMask) : "memory");
 80060e2:	2301      	movs	r3, #1
 80060e4:	f383 8810 	msr	PRIMASK, r3
      ATOMIC_CLEAR_BIT(huart->Instance->CR1, (USART_CR1_TXEIE_TXFNFIE));
 80060e8:	2080      	movs	r0, #128	@ 0x80
 80060ea:	6822      	ldr	r2, [r4, #0]
 80060ec:	6813      	ldr	r3, [r2, #0]
 80060ee:	4383      	bics	r3, r0
 80060f0:	6013      	str	r3, [r2, #0]
 80060f2:	f381 8810 	msr	PRIMASK, r1
      huart->gState = HAL_UART_STATE_READY;
 80060f6:	2388      	movs	r3, #136	@ 0x88
 80060f8:	2220      	movs	r2, #32
      return HAL_TIMEOUT;
 80060fa:	2003      	movs	r0, #3
      huart->gState = HAL_UART_STATE_READY;
 80060fc:	50e2      	str	r2, [r4, r3]
      return HAL_TIMEOUT;
 80060fe:	e7c9      	b.n	8006094 <UART_CheckIdleState+0x34>
  while ((__HAL_UART_GET_FLAG(huart, Flag) ? SET : RESET) == Status)
 8006100:	69db      	ldr	r3, [r3, #28]
 8006102:	025b      	lsls	r3, r3, #9
 8006104:	d4bd      	bmi.n	8006082 <UART_CheckIdleState+0x22>
      if (((HAL_GetTick() - Tickstart) > Timeout) || (Timeout == 0U))
 8006106:	2680      	movs	r6, #128	@ 0x80
        if (__HAL_UART_GET_FLAG(huart, UART_FLAG_ORE) == SET)
 8006108:	2308      	movs	r3, #8
      if ((READ_BIT(huart->Instance->CR1, USART_CR1_RE) != 0U) && (Flag != UART_FLAG_TXE) && (Flag != UART_FLAG_TC))
 800610a:	2704      	movs	r7, #4
        if (__HAL_UART_GET_FLAG(huart, UART_FLAG_ORE) == SET)
 800610c:	4698      	mov	r8, r3
      if (((HAL_GetTick() - Tickstart) > Timeout) || (Timeout == 0U))
 800610e:	04b6      	lsls	r6, r6, #18
 8006110:	e011      	b.n	8006136 <UART_CheckIdleState+0xd6>
      if ((READ_BIT(huart->Instance->CR1, USART_CR1_RE) != 0U) && (Flag != UART_FLAG_TXE) && (Flag != UART_FLAG_TC))
 8006112:	6823      	ldr	r3, [r4, #0]
 8006114:	681a      	ldr	r2, [r3, #0]
 8006116:	4217      	tst	r7, r2
 8006118:	d00a      	beq.n	8006130 <UART_CheckIdleState+0xd0>
        if (__HAL_UART_GET_FLAG(huart, UART_FLAG_ORE) == SET)
 800611a:	4641      	mov	r1, r8
 800611c:	69da      	ldr	r2, [r3, #28]
 800611e:	4211      	tst	r1, r2
 8006120:	d000      	beq.n	8006124 <UART_CheckIdleState+0xc4>
 8006122:	e08b      	b.n	800623c <UART_CheckIdleState+0x1dc>
        if (__HAL_UART_GET_FLAG(huart, UART_FLAG_RTOF) == SET)
 8006124:	2280      	movs	r2, #128	@ 0x80
 8006126:	69d9      	ldr	r1, [r3, #28]
 8006128:	0112      	lsls	r2, r2, #4
 800612a:	4211      	tst	r1, r2
 800612c:	d000      	beq.n	8006130 <UART_CheckIdleState+0xd0>
 800612e:	e0b7      	b.n	80062a0 <UART_CheckIdleState+0x240>
  while ((__HAL_UART_GET_FLAG(huart, Flag) ? SET : RESET) == Status)
 8006130:	69db      	ldr	r3, [r3, #28]
 8006132:	025b      	lsls	r3, r3, #9
 8006134:	d4a5      	bmi.n	8006082 <UART_CheckIdleState+0x22>
      if (((HAL_GetTick() - Tickstart) > Timeout) || (Timeout == 0U))
 8006136:	f7fb ff65 	bl	8002004 <HAL_GetTick>
 800613a:	1b40      	subs	r0, r0, r5
 800613c:	42b0      	cmp	r0, r6
 800613e:	d3e8      	bcc.n	8006112 <UART_CheckIdleState+0xb2>
  __ASM volatile ("MRS %0, primask" : "=r" (result) :: "memory");
 8006140:	f3ef 8010 	mrs	r0, PRIMASK
  __ASM volatile ("MSR primask, %0" : : "r" (priMask) : "memory");
 8006144:	2201      	movs	r2, #1
 8006146:	f382 8810 	msr	PRIMASK, r2
      ATOMIC_CLEAR_BIT(huart->Instance->CR1, (USART_CR1_RXNEIE_RXFNEIE | USART_CR1_PEIE));
 800614a:	6821      	ldr	r1, [r4, #0]
 800614c:	4d6d      	ldr	r5, [pc, #436]	@ (8006304 <UART_CheckIdleState+0x2a4>)
 800614e:	680b      	ldr	r3, [r1, #0]
 8006150:	402b      	ands	r3, r5
 8006152:	600b      	str	r3, [r1, #0]
 8006154:	f380 8810 	msr	PRIMASK, r0
  __ASM volatile ("MRS %0, primask" : "=r" (result) :: "memory");
 8006158:	f3ef 8010 	mrs	r0, PRIMASK
  __ASM volatile ("MSR primask, %0" : : "r" (priMask) : "memory");
 800615c:	f382 8810 	msr	PRIMASK, r2
      ATOMIC_CLEAR_BIT(huart->Instance->CR3, USART_CR3_EIE);
 8006160:	6821      	ldr	r1, [r4, #0]
 8006162:	688b      	ldr	r3, [r1, #8]
 8006164:	4393      	bics	r3, r2
 8006166:	608b      	str	r3, [r1, #8]
 8006168:	f380 8810 	msr	PRIMASK, r0
      huart->RxState = HAL_UART_STATE_READY;
 800616c:	238c      	movs	r3, #140	@ 0x8c
 800616e:	321f      	adds	r2, #31
      return HAL_TIMEOUT;
 8006170:	2003      	movs	r0, #3
      huart->RxState = HAL_UART_STATE_READY;
 8006172:	50e2      	str	r2, [r4, r3]
      return HAL_TIMEOUT;
 8006174:	e78e      	b.n	8006094 <UART_CheckIdleState+0x34>
          __HAL_UART_CLEAR_FLAG(huart, UART_CLEAR_OREF);
 8006176:	6219      	str	r1, [r3, #32]
  __ASM volatile ("MRS %0, primask" : "=r" (result) :: "memory");
 8006178:	f3ef 8010 	mrs	r0, PRIMASK
  __ASM volatile ("MSR primask, %0" : : "r" (priMask) : "memory");
 800617c:	2201      	movs	r2, #1
 800617e:	f382 8810 	msr	PRIMASK, r2
  ATOMIC_CLEAR_BIT(huart->Instance->CR1, (USART_CR1_RXNEIE_RXFNEIE | USART_CR1_PEIE));
 8006182:	6821      	ldr	r1, [r4, #0]
 8006184:	4d5f      	ldr	r5, [pc, #380]	@ (8006304 <UART_CheckIdleState+0x2a4>)
 8006186:	680b      	ldr	r3, [r1, #0]
 8006188:	402b      	ands	r3, r5
 800618a:	600b      	str	r3, [r1, #0]
 800618c:	f380 8810 	msr	PRIMASK, r0
  __ASM volatile ("MRS %0, primask" : "=r" (result) :: "memory");
 8006190:	f3ef 8110 	mrs	r1, PRIMASK
  __ASM volatile ("MSR primask, %0" : : "r" (priMask) : "memory");
 8006194:	f382 8810 	msr	PRIMASK, r2
  ATOMIC_CLEAR_BIT(huart->Instance->CR3, (USART_CR3_EIE | USART_CR3_RXFTIE));
 8006198:	6822      	ldr	r2, [r4, #0]
 800619a:	485b      	ldr	r0, [pc, #364]	@ (8006308 <UART_CheckIdleState+0x2a8>)
 800619c:	6893      	ldr	r3, [r2, #8]
 800619e:	4003      	ands	r3, r0
 80061a0:	6093      	str	r3, [r2, #8]
 80061a2:	f381 8810 	msr	PRIMASK, r1
  if (huart->ReceptionType == HAL_UART_RECEPTION_TOIDLE)
 80061a6:	6ee3      	ldr	r3, [r4, #108]	@ 0x6c
 80061a8:	2b01      	cmp	r3, #1
 80061aa:	d10a      	bne.n	80061c2 <UART_CheckIdleState+0x162>
  __ASM volatile ("MRS %0, primask" : "=r" (result) :: "memory");
 80061ac:	f3ef 8110 	mrs	r1, PRIMASK
  __ASM volatile ("MSR primask, %0" : : "r" (priMask) : "memory");
 80061b0:	f383 8810 	msr	PRIMASK, r3
    ATOMIC_CLEAR_BIT(huart->Instance->CR1, USART_CR1_IDLEIE);
 80061b4:	2010      	movs	r0, #16
 80061b6:	6822      	ldr	r2, [r4, #0]
 80061b8:	6813      	ldr	r3, [r2, #0]
 80061ba:	4383      	bics	r3, r0
 80061bc:	6013      	str	r3, [r2, #0]
 80061be:	f381 8810 	msr	PRIMASK, r1
  huart->RxState = HAL_UART_STATE_READY;
 80061c2:	238c      	movs	r3, #140	@ 0x8c
 80061c4:	2220      	movs	r2, #32
          huart->ErrorCode = HAL_UART_ERROR_ORE;
 80061c6:	2108      	movs	r1, #8
  huart->RxState = HAL_UART_STATE_READY;
 80061c8:	50e2      	str	r2, [r4, r3]
  huart->ReceptionType = HAL_UART_RECEPTION_STANDARD;
 80061ca:	2300      	movs	r3, #0
          huart->ErrorCode = HAL_UART_ERROR_ORE;
 80061cc:	3270      	adds	r2, #112	@ 0x70
  huart->ReceptionType = HAL_UART_RECEPTION_STANDARD;
 80061ce:	66e3      	str	r3, [r4, #108]	@ 0x6c
  huart->RxISR = NULL;
 80061d0:	6763      	str	r3, [r4, #116]	@ 0x74
          huart->ErrorCode = HAL_UART_ERROR_ORE;
 80061d2:	50a1      	str	r1, [r4, r2]
          __HAL_UNLOCK(huart);
 80061d4:	3a0c      	subs	r2, #12
 80061d6:	54a3      	strb	r3, [r4, r2]
          return HAL_ERROR;
 80061d8:	e781      	b.n	80060de <UART_CheckIdleState+0x7e>
          __HAL_UART_CLEAR_FLAG(huart, UART_CLEAR_RTOF);
 80061da:	621a      	str	r2, [r3, #32]
  __ASM volatile ("MRS %0, primask" : "=r" (result) :: "memory");
 80061dc:	f3ef 8010 	mrs	r0, PRIMASK
  __ASM volatile ("MSR primask, %0" : : "r" (priMask) : "memory");
 80061e0:	2201      	movs	r2, #1
 80061e2:	f382 8810 	msr	PRIMASK, r2
  ATOMIC_CLEAR_BIT(huart->Instance->CR1, (USART_CR1_RXNEIE_RXFNEIE | USART_CR1_PEIE));
 80061e6:	6821      	ldr	r1, [r4, #0]
 80061e8:	4d46      	ldr	r5, [pc, #280]	@ (8006304 <UART_CheckIdleState+0x2a4>)
 80061ea:	680b      	ldr	r3, [r1, #0]
 80061ec:	402b      	ands	r3, r5
 80061ee:	600b      	str	r3, [r1, #0]
 80061f0:	f380 8810 	msr	PRIMASK, r0
  __ASM volatile ("MRS %0, primask" : "=r" (result) :: "memory");
 80061f4:	f3ef 8110 	mrs	r1, PRIMASK
  __ASM volatile ("MSR primask, %0" : : "r" (priMask) : "memory");
 80061f8:	f382 8810 	msr	PRIMASK, r2
  ATOMIC_CLEAR_BIT(huart->Instance->CR3, (USART_CR3_EIE | USART_CR3_RXFTIE));
 80061fc:	6822      	ldr	r2, [r4, #0]
 80061fe:	4842      	ldr	r0, [pc, #264]	@ (8006308 <UART_CheckIdleState+0x2a8>)
 8006200:	6893      	ldr	r3, [r2, #8]
 8006202:	4003      	ands	r3, r0
 8006204:	6093      	str	r3, [r2, #8]
 8006206:	f381 8810 	msr	PRIMASK, r1
  if (huart->ReceptionType == HAL_UART_RECEPTION_TOIDLE)
 800620a:	6ee3      	ldr	r3, [r4, #108]	@ 0x6c
 800620c:	2b01      	cmp	r3, #1
 800620e:	d10a      	bne.n	8006226 <UART_CheckIdleState+0x1c6>
  __ASM volatile ("MRS %0, primask" : "=r" (result) :: "memory");
 8006210:	f3ef 8110 	mrs	r1, PRIMASK
  __ASM volatile ("MSR primask, %0" : : "r" (priMask) : "memory");
 8006214:	f383 8810 	msr	PRIMASK, r3
    ATOMIC_CLEAR_BIT(huart->Instance->CR1, USART_CR1_IDLEIE);
 8006218:	2010      	movs	r0, #16
 800621a:	6822      	ldr	r2, [r4, #0]
 800621c:	6813      	ldr	r3, [r2, #0]
 800621e:	4383      	bics	r3, r0
 8006220:	6013      	str	r3, [r2, #0]
 8006222:	f381 8810 	msr	PRIMASK, r1
  huart->RxState = HAL_UART_STATE_READY;
 8006226:	2220      	movs	r2, #32
 8006228:	238c      	movs	r3, #140	@ 0x8c
          huart->ErrorCode = HAL_UART_ERROR_RTO;
 800622a:	2190      	movs	r1, #144	@ 0x90
  huart->RxState = HAL_UART_STATE_READY;
 800622c:	50e2      	str	r2, [r4, r3]
  huart->ReceptionType = HAL_UART_RECEPTION_STANDARD;
 800622e:	2300      	movs	r3, #0
 8006230:	66e3      	str	r3, [r4, #108]	@ 0x6c
  huart->RxISR = NULL;
 8006232:	6763      	str	r3, [r4, #116]	@ 0x74
          huart->ErrorCode = HAL_UART_ERROR_RTO;
 8006234:	5062      	str	r2, [r4, r1]
          __HAL_UNLOCK(huart);
 8006236:	3264      	adds	r2, #100	@ 0x64
 8006238:	54a3      	strb	r3, [r4, r2]
          return HAL_TIMEOUT;
 800623a:	e750      	b.n	80060de <UART_CheckIdleState+0x7e>
          __HAL_UART_CLEAR_FLAG(huart, UART_CLEAR_OREF);
 800623c:	6219      	str	r1, [r3, #32]
  __ASM volatile ("MRS %0, primask" : "=r" (result) :: "memory");
 800623e:	f3ef 8010 	mrs	r0, PRIMASK
  __ASM volatile ("MSR primask, %0" : : "r" (priMask) : "memory");
 8006242:	2201      	movs	r2, #1
 8006244:	f382 8810 	msr	PRIMASK, r2
  ATOMIC_CLEAR_BIT(huart->Instance->CR1, (USART_CR1_RXNEIE_RXFNEIE | USART_CR1_PEIE));
 8006248:	6821      	ldr	r1, [r4, #0]
 800624a:	4d2e      	ldr	r5, [pc, #184]	@ (8006304 <UART_CheckIdleState+0x2a4>)
 800624c:	680b      	ldr	r3, [r1, #0]
 800624e:	402b      	ands	r3, r5
 8006250:	600b      	str	r3, [r1, #0]
 8006252:	f380 8810 	msr	PRIMASK, r0
  __ASM volatile ("MRS %0, primask" : "=r" (result) :: "memory");
 8006256:	f3ef 8110 	mrs	r1, PRIMASK
  __ASM volatile ("MSR primask, %0" : : "r" (priMask) : "memory");
 800625a:	f382 8810 	msr	PRIMASK, r2
  ATOMIC_CLEAR_BIT(huart->Instance->CR3, (USART_CR3_EIE | USART_CR3_RXFTIE));
 800625e:	6822      	ldr	r2, [r4, #0]
 8006260:	4829      	ldr	r0, [pc, #164]	@ (8006308 <UART_CheckIdleState+0x2a8>)
 8006262:	6893      	ldr	r3, [r2, #8]
 8006264:	4003      	ands	r3, r0
 8006266:	6093      	str	r3, [r2, #8]
 8006268:	f381 8810 	msr	PRIMASK, r1
  if (huart->ReceptionType == HAL_UART_RECEPTION_TOIDLE)
 800626c:	6ee3      	ldr	r3, [r4, #108]	@ 0x6c
 800626e:	2b01      	cmp	r3, #1
 8006270:	d10a      	bne.n	8006288 <UART_CheckIdleState+0x228>
  __ASM volatile ("MRS %0, primask" : "=r" (result) :: "memory");
 8006272:	f3ef 8110 	mrs	r1, PRIMASK
  __ASM volatile ("MSR primask, %0" : : "r" (priMask) : "memory");
 8006276:	f383 8810 	msr	PRIMASK, r3
    ATOMIC_CLEAR_BIT(huart->Instance->CR1, USART_CR1_IDLEIE);
 800627a:	2010      	movs	r0, #16
 800627c:	6822      	ldr	r2, [r4, #0]
 800627e:	6813      	ldr	r3, [r2, #0]
 8006280:	4383      	bics	r3, r0
 8006282:	6013      	str	r3, [r2, #0]
 8006284:	f381 8810 	msr	PRIMASK, r1
  huart->RxState = HAL_UART_STATE_READY;
 8006288:	238c      	movs	r3, #140	@ 0x8c
 800628a:	2220      	movs	r2, #32
          huart->ErrorCode = HAL_UART_ERROR_ORE;
 800628c:	2108      	movs	r1, #8
  huart->RxState = HAL_UART_STATE_READY;
 800628e:	50e2      	str	r2, [r4, r3]
  huart->ReceptionType = HAL_UART_RECEPTION_STANDARD;
 8006290:	2300      	movs	r3, #0
          huart->ErrorCode = HAL_UART_ERROR_ORE;
 8006292:	3270      	adds	r2, #112	@ 0x70
  huart->ReceptionType = HAL_UART_RECEPTION_STANDARD;
 8006294:	66e3      	str	r3, [r4, #108]	@ 0x6c
  huart->RxISR = NULL;
 8006296:	6763      	str	r3, [r4, #116]	@ 0x74
          huart->ErrorCode = HAL_UART_ERROR_ORE;
 8006298:	50a1      	str	r1, [r4, r2]
          __HAL_UNLOCK(huart);
 800629a:	3a0c      	subs	r2, #12
 800629c:	54a3      	strb	r3, [r4, r2]
          return HAL_ERROR;
 800629e:	e74f      	b.n	8006140 <UART_CheckIdleState+0xe0>
          __HAL_UART_CLEAR_FLAG(huart, UART_CLEAR_RTOF);
 80062a0:	621a      	str	r2, [r3, #32]
  __ASM volatile ("MRS %0, primask" : "=r" (result) :: "memory");
 80062a2:	f3ef 8010 	mrs	r0, PRIMASK
  __ASM volatile ("MSR primask, %0" : : "r" (priMask) : "memory");
 80062a6:	2201      	movs	r2, #1
 80062a8:	f382 8810 	msr	PRIMASK, r2
  ATOMIC_CLEAR_BIT(huart->Instance->CR1, (USART_CR1_RXNEIE_RXFNEIE | USART_CR1_PEIE));
 80062ac:	6821      	ldr	r1, [r4, #0]
 80062ae:	4d15      	ldr	r5, [pc, #84]	@ (8006304 <UART_CheckIdleState+0x2a4>)
 80062b0:	680b      	ldr	r3, [r1, #0]
 80062b2:	402b      	ands	r3, r5
 80062b4:	600b      	str	r3, [r1, #0]
 80062b6:	f380 8810 	msr	PRIMASK, r0
  __ASM volatile ("MRS %0, primask" : "=r" (result) :: "memory");
 80062ba:	f3ef 8110 	mrs	r1, PRIMASK
  __ASM volatile ("MSR primask, %0" : : "r" (priMask) : "memory");
 80062be:	f382 8810 	msr	PRIMASK, r2
  ATOMIC_CLEAR_BIT(huart->Instance->CR3, (USART_CR3_EIE | USART_CR3_RXFTIE));
 80062c2:	6822      	ldr	r2, [r4, #0]
 80062c4:	4810      	ldr	r0, [pc, #64]	@ (8006308 <UART_CheckIdleState+0x2a8>)
 80062c6:	6893      	ldr	r3, [r2, #8]
 80062c8:	4003      	ands	r3, r0
 80062ca:	6093      	str	r3, [r2, #8]
 80062cc:	f381 8810 	msr	PRIMASK, r1
  if (huart->ReceptionType == HAL_UART_RECEPTION_TOIDLE)
 80062d0:	6ee3      	ldr	r3, [r4, #108]	@ 0x6c
 80062d2:	2b01      	cmp	r3, #1
 80062d4:	d10a      	bne.n	80062ec <UART_CheckIdleState+0x28c>
  __ASM volatile ("MRS %0, primask" : "=r" (result) :: "memory");
 80062d6:	f3ef 8110 	mrs	r1, PRIMASK
  __ASM volatile ("MSR primask, %0" : : "r" (priMask) : "memory");
 80062da:	f383 8810 	msr	PRIMASK, r3
    ATOMIC_CLEAR_BIT(huart->Instance->CR1, USART_CR1_IDLEIE);
 80062de:	2010      	movs	r0, #16
 80062e0:	6822      	ldr	r2, [r4, #0]
 80062e2:	6813      	ldr	r3, [r2, #0]
 80062e4:	4383      	bics	r3, r0
 80062e6:	6013      	str	r3, [r2, #0]
 80062e8:	f381 8810 	msr	PRIMASK, r1
  huart->RxState = HAL_UART_STATE_READY;
 80062ec:	2220      	movs	r2, #32
 80062ee:	238c      	movs	r3, #140	@ 0x8c
          huart->ErrorCode = HAL_UART_ERROR_RTO;
 80062f0:	2190      	movs	r1, #144	@ 0x90
  huart->RxState = HAL_UART_STATE_READY;
 80062f2:	50e2      	str	r2, [r4, r3]
  huart->ReceptionType = HAL_UART_RECEPTION_STANDARD;
 80062f4:	2300      	movs	r3, #0
 80062f6:	66e3      	str	r3, [r4, #108]	@ 0x6c
  huart->RxISR = NULL;
 80062f8:	6763      	str	r3, [r4, #116]	@ 0x74
          huart->ErrorCode = HAL_UART_ERROR_RTO;
 80062fa:	5062      	str	r2, [r4, r1]
          __HAL_UNLOCK(huart);
 80062fc:	3264      	adds	r2, #100	@ 0x64
 80062fe:	54a3      	strb	r3, [r4, r2]
          return HAL_TIMEOUT;
 8006300:	e71e      	b.n	8006140 <UART_CheckIdleState+0xe0>
 8006302:	46c0      	nop			@ (mov r8, r8)
 8006304:	fffffedf 	.word	0xfffffedf
 8006308:	effffffe 	.word	0xeffffffe

0800630c <HAL_UART_Init>:
{
 800630c:	b5f8      	push	{r3, r4, r5, r6, r7, lr}
 800630e:	1e04      	subs	r4, r0, #0
  if (huart == NULL)
 8006310:	d03e      	beq.n	8006390 <HAL_UART_Init+0x84>
  if (huart->gState == HAL_UART_STATE_RESET)
 8006312:	2388      	movs	r3, #136	@ 0x88
 8006314:	58c3      	ldr	r3, [r0, r3]
 8006316:	2b00      	cmp	r3, #0
 8006318:	d03c      	beq.n	8006394 <HAL_UART_Init+0x88>
  huart->gState = HAL_UART_STATE_BUSY;
 800631a:	2388      	movs	r3, #136	@ 0x88
 800631c:	2224      	movs	r2, #36	@ 0x24
  __HAL_UART_DISABLE(huart);
 800631e:	6825      	ldr	r5, [r4, #0]
  huart->gState = HAL_UART_STATE_BUSY;
 8006320:	50e2      	str	r2, [r4, r3]
  __HAL_UART_DISABLE(huart);
 8006322:	682b      	ldr	r3, [r5, #0]
 8006324:	3a23      	subs	r2, #35	@ 0x23
 8006326:	4393      	bics	r3, r2
 8006328:	602b      	str	r3, [r5, #0]
  if (huart->AdvancedInit.AdvFeatureInit != UART_ADVFEATURE_NO_INIT)
 800632a:	6aa3      	ldr	r3, [r4, #40]	@ 0x28
 800632c:	2b00      	cmp	r3, #0
 800632e:	d000      	beq.n	8006332 <HAL_UART_Init+0x26>
 8006330:	e09b      	b.n	800646a <HAL_UART_Init+0x15e>
  tmpreg = (uint32_t)huart->Init.WordLength | huart->Init.Parity | huart->Init.Mode | huart->Init.OverSampling ;
 8006332:	6921      	ldr	r1, [r4, #16]
 8006334:	68a3      	ldr	r3, [r4, #8]
  MODIFY_REG(huart->Instance->CR1, USART_CR1_FIELDS, tmpreg);
 8006336:	682a      	ldr	r2, [r5, #0]
  tmpreg = (uint32_t)huart->Init.WordLength | huart->Init.Parity | huart->Init.Mode | huart->Init.OverSampling ;
 8006338:	430b      	orrs	r3, r1
 800633a:	6961      	ldr	r1, [r4, #20]
 800633c:	69e0      	ldr	r0, [r4, #28]
 800633e:	430b      	orrs	r3, r1
  MODIFY_REG(huart->Instance->CR1, USART_CR1_FIELDS, tmpreg);
 8006340:	499f      	ldr	r1, [pc, #636]	@ (80065c0 <HAL_UART_Init+0x2b4>)
  tmpreg = (uint32_t)huart->Init.WordLength | huart->Init.Parity | huart->Init.Mode | huart->Init.OverSampling ;
 8006342:	4303      	orrs	r3, r0
  MODIFY_REG(huart->Instance->CR1, USART_CR1_FIELDS, tmpreg);
 8006344:	400a      	ands	r2, r1
 8006346:	4313      	orrs	r3, r2
 8006348:	602b      	str	r3, [r5, #0]
  MODIFY_REG(huart->Instance->CR2, USART_CR2_STOP, huart->Init.StopBits);
 800634a:	686b      	ldr	r3, [r5, #4]
 800634c:	4a9d      	ldr	r2, [pc, #628]	@ (80065c4 <HAL_UART_Init+0x2b8>)
  if (!(UART_INSTANCE_LOWPOWER(huart)))
 800634e:	499e      	ldr	r1, [pc, #632]	@ (80065c8 <HAL_UART_Init+0x2bc>)
  MODIFY_REG(huart->Instance->CR2, USART_CR2_STOP, huart->Init.StopBits);
 8006350:	4013      	ands	r3, r2
 8006352:	68e2      	ldr	r2, [r4, #12]
 8006354:	4313      	orrs	r3, r2
 8006356:	606b      	str	r3, [r5, #4]
  MODIFY_REG(huart->Instance->PRESC, USART_PRESC_PRESCALER, huart->Init.ClockPrescaler);
 8006358:	6a62      	ldr	r2, [r4, #36]	@ 0x24
  tmpreg = (uint32_t)huart->Init.HwFlowCtl;
 800635a:	69a3      	ldr	r3, [r4, #24]
  if (!(UART_INSTANCE_LOWPOWER(huart)))
 800635c:	428d      	cmp	r5, r1
 800635e:	d100      	bne.n	8006362 <HAL_UART_Init+0x56>
 8006360:	e091      	b.n	8006486 <HAL_UART_Init+0x17a>
    tmpreg |= huart->Init.OneBitSampling;
 8006362:	6a26      	ldr	r6, [r4, #32]
  MODIFY_REG(huart->Instance->CR3, USART_CR3_FIELDS, tmpreg);
 8006364:	68a9      	ldr	r1, [r5, #8]
    tmpreg |= huart->Init.OneBitSampling;
 8006366:	4333      	orrs	r3, r6
  MODIFY_REG(huart->Instance->CR3, USART_CR3_FIELDS, tmpreg);
 8006368:	4e98      	ldr	r6, [pc, #608]	@ (80065cc <HAL_UART_Init+0x2c0>)
 800636a:	4031      	ands	r1, r6
 800636c:	430b      	orrs	r3, r1
  MODIFY_REG(huart->Instance->PRESC, USART_PRESC_PRESCALER, huart->Init.ClockPrescaler);
 800636e:	210f      	movs	r1, #15
  MODIFY_REG(huart->Instance->CR3, USART_CR3_FIELDS, tmpreg);
 8006370:	60ab      	str	r3, [r5, #8]
  MODIFY_REG(huart->Instance->PRESC, USART_PRESC_PRESCALER, huart->Init.ClockPrescaler);
 8006372:	6aeb      	ldr	r3, [r5, #44]	@ 0x2c
 8006374:	438b      	bics	r3, r1
 8006376:	4313      	orrs	r3, r2
 8006378:	62eb      	str	r3, [r5, #44]	@ 0x2c
  UART_GETCLOCKSOURCE(huart, clocksource);
 800637a:	4b95      	ldr	r3, [pc, #596]	@ (80065d0 <HAL_UART_Init+0x2c4>)
 800637c:	429d      	cmp	r5, r3
 800637e:	d036      	beq.n	80063ee <HAL_UART_Init+0xe2>
 8006380:	4b94      	ldr	r3, [pc, #592]	@ (80065d4 <HAL_UART_Init+0x2c8>)
 8006382:	429d      	cmp	r5, r3
 8006384:	d03f      	beq.n	8006406 <HAL_UART_Init+0xfa>
  huart->NbRxDataToProcess = 1;
 8006386:	4b94      	ldr	r3, [pc, #592]	@ (80065d8 <HAL_UART_Init+0x2cc>)
 8006388:	66a3      	str	r3, [r4, #104]	@ 0x68
  huart->RxISR = NULL;
 800638a:	2300      	movs	r3, #0
 800638c:	6763      	str	r3, [r4, #116]	@ 0x74
  huart->TxISR = NULL;
 800638e:	67a3      	str	r3, [r4, #120]	@ 0x78
    return HAL_ERROR;
 8006390:	2001      	movs	r0, #1
}
 8006392:	bdf8      	pop	{r3, r4, r5, r6, r7, pc}
    huart->Lock = HAL_UNLOCKED;
 8006394:	2284      	movs	r2, #132	@ 0x84
 8006396:	5483      	strb	r3, [r0, r2]
  huart->TxHalfCpltCallback        = HAL_UART_TxHalfCpltCallback;        /* Legacy weak TxHalfCpltCallback        */
 8006398:	4b90      	ldr	r3, [pc, #576]	@ (80065dc <HAL_UART_Init+0x2d0>)
 800639a:	3210      	adds	r2, #16
 800639c:	5083      	str	r3, [r0, r2]
  huart->TxCpltCallback            = HAL_UART_TxCpltCallback;            /* Legacy weak TxCpltCallback            */
 800639e:	4b90      	ldr	r3, [pc, #576]	@ (80065e0 <HAL_UART_Init+0x2d4>)
 80063a0:	3204      	adds	r2, #4
 80063a2:	5083      	str	r3, [r0, r2]
  huart->RxHalfCpltCallback        = HAL_UART_RxHalfCpltCallback;        /* Legacy weak RxHalfCpltCallback        */
 80063a4:	4b8f      	ldr	r3, [pc, #572]	@ (80065e4 <HAL_UART_Init+0x2d8>)
 80063a6:	3204      	adds	r2, #4
 80063a8:	5083      	str	r3, [r0, r2]
  huart->RxCpltCallback            = HAL_UART_RxCpltCallback;            /* Legacy weak RxCpltCallback            */
 80063aa:	4b8f      	ldr	r3, [pc, #572]	@ (80065e8 <HAL_UART_Init+0x2dc>)
 80063ac:	3204      	adds	r2, #4
 80063ae:	5083      	str	r3, [r0, r2]
  huart->ErrorCallback             = HAL_UART_ErrorCallback;             /* Legacy weak ErrorCallback             */
 80063b0:	4b8e      	ldr	r3, [pc, #568]	@ (80065ec <HAL_UART_Init+0x2e0>)
 80063b2:	3204      	adds	r2, #4
 80063b4:	5083      	str	r3, [r0, r2]
  huart->AbortCpltCallback         = HAL_UART_AbortCpltCallback;         /* Legacy weak AbortCpltCallback         */
 80063b6:	4b8e      	ldr	r3, [pc, #568]	@ (80065f0 <HAL_UART_Init+0x2e4>)
 80063b8:	3204      	adds	r2, #4
 80063ba:	5083      	str	r3, [r0, r2]
  huart->AbortTransmitCpltCallback = HAL_UART_AbortTransmitCpltCallback; /* Legacy weak AbortTransmitCpltCallback */
 80063bc:	4b8d      	ldr	r3, [pc, #564]	@ (80065f4 <HAL_UART_Init+0x2e8>)
 80063be:	3204      	adds	r2, #4
 80063c0:	5083      	str	r3, [r0, r2]
  huart->AbortReceiveCpltCallback  = HAL_UART_AbortReceiveCpltCallback;  /* Legacy weak AbortReceiveCpltCallback  */
 80063c2:	4b8d      	ldr	r3, [pc, #564]	@ (80065f8 <HAL_UART_Init+0x2ec>)
 80063c4:	3204      	adds	r2, #4
 80063c6:	5083      	str	r3, [r0, r2]
  huart->WakeupCallback            = HAL_UARTEx_WakeupCallback;          /* Legacy weak WakeupCallback            */
 80063c8:	4b8c      	ldr	r3, [pc, #560]	@ (80065fc <HAL_UART_Init+0x2f0>)
 80063ca:	3204      	adds	r2, #4
 80063cc:	5083      	str	r3, [r0, r2]
  huart->RxFifoFullCallback        = HAL_UARTEx_RxFifoFullCallback;      /* Legacy weak RxFifoFullCallback        */
 80063ce:	4b8c      	ldr	r3, [pc, #560]	@ (8006600 <HAL_UART_Init+0x2f4>)
 80063d0:	3204      	adds	r2, #4
 80063d2:	5083      	str	r3, [r0, r2]
  huart->TxFifoEmptyCallback       = HAL_UARTEx_TxFifoEmptyCallback;     /* Legacy weak TxFifoEmptyCallback       */
 80063d4:	4b8b      	ldr	r3, [pc, #556]	@ (8006604 <HAL_UART_Init+0x2f8>)
 80063d6:	3204      	adds	r2, #4
 80063d8:	5083      	str	r3, [r0, r2]
  huart->RxEventCallback           = HAL_UARTEx_RxEventCallback;         /* Legacy weak RxEventCallback           */
 80063da:	4b8b      	ldr	r3, [pc, #556]	@ (8006608 <HAL_UART_Init+0x2fc>)
 80063dc:	3204      	adds	r2, #4
 80063de:	5083      	str	r3, [r0, r2]
    if (huart->MspInitCallback == NULL)
 80063e0:	3204      	adds	r2, #4
 80063e2:	5883      	ldr	r3, [r0, r2]
 80063e4:	2b00      	cmp	r3, #0
 80063e6:	d04b      	beq.n	8006480 <HAL_UART_Init+0x174>
    huart->MspInitCallback(huart);
 80063e8:	0020      	movs	r0, r4
 80063ea:	4798      	blx	r3
 80063ec:	e795      	b.n	800631a <HAL_UART_Init+0xe>
  UART_GETCLOCKSOURCE(huart, clocksource);
 80063ee:	4b87      	ldr	r3, [pc, #540]	@ (800660c <HAL_UART_Init+0x300>)
 80063f0:	6d59      	ldr	r1, [r3, #84]	@ 0x54
 80063f2:	2303      	movs	r3, #3
 80063f4:	400b      	ands	r3, r1
 80063f6:	2b02      	cmp	r3, #2
 80063f8:	d03b      	beq.n	8006472 <HAL_UART_Init+0x166>
 80063fa:	2b03      	cmp	r3, #3
 80063fc:	d100      	bne.n	8006400 <HAL_UART_Init+0xf4>
 80063fe:	e0a2      	b.n	8006546 <HAL_UART_Init+0x23a>
 8006400:	2b01      	cmp	r3, #1
 8006402:	d100      	bne.n	8006406 <HAL_UART_Init+0xfa>
 8006404:	e0a5      	b.n	8006552 <HAL_UART_Init+0x246>
  else if (huart->Init.OverSampling == UART_OVERSAMPLING_8)
 8006406:	2380      	movs	r3, #128	@ 0x80
 8006408:	021b      	lsls	r3, r3, #8
 800640a:	4298      	cmp	r0, r3
 800640c:	d100      	bne.n	8006410 <HAL_UART_Init+0x104>
 800640e:	e0d2      	b.n	80065b6 <HAL_UART_Init+0x2aa>
        pclk = HAL_RCC_GetPCLK1Freq();
 8006410:	f7fd fcb4 	bl	8003d7c <HAL_RCC_GetPCLK1Freq>
    if (pclk != 0U)
 8006414:	2800      	cmp	r0, #0
 8006416:	d100      	bne.n	800641a <HAL_UART_Init+0x10e>
 8006418:	e08f      	b.n	800653a <HAL_UART_Init+0x22e>
      usartdiv = (uint32_t)(UART_DIV_SAMPLING16(pclk, huart->Init.BaudRate, huart->Init.ClockPrescaler));
 800641a:	6a62      	ldr	r2, [r4, #36]	@ 0x24
 800641c:	4b7c      	ldr	r3, [pc, #496]	@ (8006610 <HAL_UART_Init+0x304>)
 800641e:	0052      	lsls	r2, r2, #1
 8006420:	5ad1      	ldrh	r1, [r2, r3]
 8006422:	f7f9 fe6f 	bl	8000104 <__udivsi3>
 8006426:	6865      	ldr	r5, [r4, #4]
 8006428:	086b      	lsrs	r3, r5, #1
 800642a:	18c0      	adds	r0, r0, r3
 800642c:	0029      	movs	r1, r5
 800642e:	f7f9 fe69 	bl	8000104 <__udivsi3>
      if ((usartdiv >= UART_BRR_MIN) && (usartdiv <= UART_BRR_MAX))
 8006432:	0002      	movs	r2, r0
 8006434:	4b77      	ldr	r3, [pc, #476]	@ (8006614 <HAL_UART_Init+0x308>)
 8006436:	3a10      	subs	r2, #16
 8006438:	429a      	cmp	r2, r3
 800643a:	d8a4      	bhi.n	8006386 <HAL_UART_Init+0x7a>
        huart->Instance->BRR = (uint16_t)usartdiv;
 800643c:	6823      	ldr	r3, [r4, #0]
 800643e:	60d8      	str	r0, [r3, #12]
  huart->NbRxDataToProcess = 1;
 8006440:	4a65      	ldr	r2, [pc, #404]	@ (80065d8 <HAL_UART_Init+0x2cc>)
 8006442:	66a2      	str	r2, [r4, #104]	@ 0x68
  huart->RxISR = NULL;
 8006444:	2200      	movs	r2, #0
 8006446:	6762      	str	r2, [r4, #116]	@ 0x74
  huart->TxISR = NULL;
 8006448:	67a2      	str	r2, [r4, #120]	@ 0x78
  CLEAR_BIT(huart->Instance->CR2, (USART_CR2_LINEN | USART_CR2_CLKEN));
 800644a:	685a      	ldr	r2, [r3, #4]
 800644c:	4972      	ldr	r1, [pc, #456]	@ (8006618 <HAL_UART_Init+0x30c>)
  return (UART_CheckIdleState(huart));
 800644e:	0020      	movs	r0, r4
  CLEAR_BIT(huart->Instance->CR2, (USART_CR2_LINEN | USART_CR2_CLKEN));
 8006450:	400a      	ands	r2, r1
  CLEAR_BIT(huart->Instance->CR3, (USART_CR3_SCEN | USART_CR3_HDSEL | USART_CR3_IREN));
 8006452:	212a      	movs	r1, #42	@ 0x2a
  CLEAR_BIT(huart->Instance->CR2, (USART_CR2_LINEN | USART_CR2_CLKEN));
 8006454:	605a      	str	r2, [r3, #4]
  CLEAR_BIT(huart->Instance->CR3, (USART_CR3_SCEN | USART_CR3_HDSEL | USART_CR3_IREN));
 8006456:	689a      	ldr	r2, [r3, #8]
 8006458:	438a      	bics	r2, r1
 800645a:	609a      	str	r2, [r3, #8]
  __HAL_UART_ENABLE(huart);
 800645c:	681a      	ldr	r2, [r3, #0]
 800645e:	3929      	subs	r1, #41	@ 0x29
 8006460:	430a      	orrs	r2, r1
 8006462:	601a      	str	r2, [r3, #0]
  return (UART_CheckIdleState(huart));
 8006464:	f7ff fdfc 	bl	8006060 <UART_CheckIdleState>
 8006468:	e793      	b.n	8006392 <HAL_UART_Init+0x86>
    UART_AdvFeatureConfig(huart);
 800646a:	0020      	movs	r0, r4
 800646c:	f7ff fd90 	bl	8005f90 <UART_AdvFeatureConfig>
 8006470:	e75f      	b.n	8006332 <HAL_UART_Init+0x26>
  else if (huart->Init.OverSampling == UART_OVERSAMPLING_8)
 8006472:	2380      	movs	r3, #128	@ 0x80
 8006474:	021b      	lsls	r3, r3, #8
 8006476:	4298      	cmp	r0, r3
 8006478:	d100      	bne.n	800647c <HAL_UART_Init+0x170>
 800647a:	e096      	b.n	80065aa <HAL_UART_Init+0x29e>
        pclk = (uint32_t) HSI_VALUE;
 800647c:	4867      	ldr	r0, [pc, #412]	@ (800661c <HAL_UART_Init+0x310>)
 800647e:	e7cd      	b.n	800641c <HAL_UART_Init+0x110>
      huart->MspInitCallback = HAL_UART_MspInit;
 8006480:	4b67      	ldr	r3, [pc, #412]	@ (8006620 <HAL_UART_Init+0x314>)
 8006482:	5083      	str	r3, [r0, r2]
 8006484:	e7b0      	b.n	80063e8 <HAL_UART_Init+0xdc>
  MODIFY_REG(huart->Instance->CR3, USART_CR3_FIELDS, tmpreg);
 8006486:	68a9      	ldr	r1, [r5, #8]
 8006488:	4850      	ldr	r0, [pc, #320]	@ (80065cc <HAL_UART_Init+0x2c0>)
 800648a:	4001      	ands	r1, r0
 800648c:	430b      	orrs	r3, r1
  MODIFY_REG(huart->Instance->PRESC, USART_PRESC_PRESCALER, huart->Init.ClockPrescaler);
 800648e:	210f      	movs	r1, #15
  MODIFY_REG(huart->Instance->CR3, USART_CR3_FIELDS, tmpreg);
 8006490:	60ab      	str	r3, [r5, #8]
  MODIFY_REG(huart->Instance->PRESC, USART_PRESC_PRESCALER, huart->Init.ClockPrescaler);
 8006492:	6aeb      	ldr	r3, [r5, #44]	@ 0x2c
  UART_GETCLOCKSOURCE(huart, clocksource);
 8006494:	2080      	movs	r0, #128	@ 0x80
  MODIFY_REG(huart->Instance->PRESC, USART_PRESC_PRESCALER, huart->Init.ClockPrescaler);
 8006496:	438b      	bics	r3, r1
  UART_GETCLOCKSOURCE(huart, clocksource);
 8006498:	21c0      	movs	r1, #192	@ 0xc0
  MODIFY_REG(huart->Instance->PRESC, USART_PRESC_PRESCALER, huart->Init.ClockPrescaler);
 800649a:	4313      	orrs	r3, r2
 800649c:	62eb      	str	r3, [r5, #44]	@ 0x2c
  UART_GETCLOCKSOURCE(huart, clocksource);
 800649e:	4b5b      	ldr	r3, [pc, #364]	@ (800660c <HAL_UART_Init+0x300>)
 80064a0:	0109      	lsls	r1, r1, #4
 80064a2:	6d5b      	ldr	r3, [r3, #84]	@ 0x54
 80064a4:	0100      	lsls	r0, r0, #4
 80064a6:	400b      	ands	r3, r1
 80064a8:	4283      	cmp	r3, r0
 80064aa:	d100      	bne.n	80064ae <HAL_UART_Init+0x1a2>
 80064ac:	e086      	b.n	80065bc <HAL_UART_Init+0x2b0>
 80064ae:	d80d      	bhi.n	80064cc <HAL_UART_Init+0x1c0>
 80064b0:	2b00      	cmp	r3, #0
 80064b2:	d07c      	beq.n	80065ae <HAL_UART_Init+0x2a2>
 80064b4:	2280      	movs	r2, #128	@ 0x80
 80064b6:	00d2      	lsls	r2, r2, #3
 80064b8:	4293      	cmp	r3, r2
 80064ba:	d000      	beq.n	80064be <HAL_UART_Init+0x1b2>
 80064bc:	e763      	b.n	8006386 <HAL_UART_Init+0x7a>
        pclk = HAL_RCC_GetSysClockFreq();
 80064be:	f7fd fb47 	bl	8003b50 <HAL_RCC_GetSysClockFreq>
 80064c2:	0005      	movs	r5, r0
    if (pclk != 0U)
 80064c4:	2d00      	cmp	r5, #0
 80064c6:	d06a      	beq.n	800659e <HAL_UART_Init+0x292>
      lpuart_ker_ck_pres = (pclk / UARTPrescTable[huart->Init.ClockPrescaler]);
 80064c8:	6a62      	ldr	r2, [r4, #36]	@ 0x24
 80064ca:	e004      	b.n	80064d6 <HAL_UART_Init+0x1ca>
  UART_GETCLOCKSOURCE(huart, clocksource);
 80064cc:	428b      	cmp	r3, r1
 80064ce:	d000      	beq.n	80064d2 <HAL_UART_Init+0x1c6>
 80064d0:	e759      	b.n	8006386 <HAL_UART_Init+0x7a>
        pclk = (uint32_t) LSE_VALUE;
 80064d2:	2580      	movs	r5, #128	@ 0x80
 80064d4:	022d      	lsls	r5, r5, #8
      lpuart_ker_ck_pres = (pclk / UARTPrescTable[huart->Init.ClockPrescaler]);
 80064d6:	4b4e      	ldr	r3, [pc, #312]	@ (8006610 <HAL_UART_Init+0x304>)
 80064d8:	0052      	lsls	r2, r2, #1
 80064da:	5ad6      	ldrh	r6, [r2, r3]
 80064dc:	0028      	movs	r0, r5
 80064de:	0031      	movs	r1, r6
 80064e0:	f7f9 fe10 	bl	8000104 <__udivsi3>
      if ((lpuart_ker_ck_pres < (3U * huart->Init.BaudRate)) ||
 80064e4:	6867      	ldr	r7, [r4, #4]
 80064e6:	007b      	lsls	r3, r7, #1
 80064e8:	19db      	adds	r3, r3, r7
 80064ea:	4298      	cmp	r0, r3
 80064ec:	d200      	bcs.n	80064f0 <HAL_UART_Init+0x1e4>
 80064ee:	e74a      	b.n	8006386 <HAL_UART_Init+0x7a>
          (lpuart_ker_ck_pres > (4096U * huart->Init.BaudRate)))
 80064f0:	033b      	lsls	r3, r7, #12
      if ((lpuart_ker_ck_pres < (3U * huart->Init.BaudRate)) ||
 80064f2:	4298      	cmp	r0, r3
 80064f4:	d900      	bls.n	80064f8 <HAL_UART_Init+0x1ec>
 80064f6:	e746      	b.n	8006386 <HAL_UART_Init+0x7a>
        usartdiv = (uint32_t)(UART_DIV_LPUART(pclk, huart->Init.BaudRate, huart->Init.ClockPrescaler));
 80064f8:	0032      	movs	r2, r6
 80064fa:	2300      	movs	r3, #0
 80064fc:	0028      	movs	r0, r5
 80064fe:	2100      	movs	r1, #0
 8006500:	f7f9 fe8c 	bl	800021c <__aeabi_uldivmod>
 8006504:	2600      	movs	r6, #0
 8006506:	0e05      	lsrs	r5, r0, #24
 8006508:	020b      	lsls	r3, r1, #8
 800650a:	432b      	orrs	r3, r5
 800650c:	0202      	lsls	r2, r0, #8
 800650e:	087d      	lsrs	r5, r7, #1
 8006510:	1952      	adds	r2, r2, r5
 8006512:	4173      	adcs	r3, r6
 8006514:	0010      	movs	r0, r2
 8006516:	0019      	movs	r1, r3
 8006518:	003a      	movs	r2, r7
 800651a:	2300      	movs	r3, #0
 800651c:	f7f9 fe7e 	bl	800021c <__aeabi_uldivmod>
        if ((usartdiv >= LPUART_BRR_MIN) && (usartdiv <= LPUART_BRR_MAX))
 8006520:	4b40      	ldr	r3, [pc, #256]	@ (8006624 <HAL_UART_Init+0x318>)
 8006522:	18c2      	adds	r2, r0, r3
 8006524:	4b40      	ldr	r3, [pc, #256]	@ (8006628 <HAL_UART_Init+0x31c>)
 8006526:	429a      	cmp	r2, r3
 8006528:	d900      	bls.n	800652c <HAL_UART_Init+0x220>
 800652a:	e72c      	b.n	8006386 <HAL_UART_Init+0x7a>
          huart->Instance->BRR = usartdiv;
 800652c:	6823      	ldr	r3, [r4, #0]
  huart->NbRxDataToProcess = 1;
 800652e:	4a2a      	ldr	r2, [pc, #168]	@ (80065d8 <HAL_UART_Init+0x2cc>)
          huart->Instance->BRR = usartdiv;
 8006530:	60d8      	str	r0, [r3, #12]
  huart->NbRxDataToProcess = 1;
 8006532:	66a2      	str	r2, [r4, #104]	@ 0x68
  huart->RxISR = NULL;
 8006534:	6766      	str	r6, [r4, #116]	@ 0x74
  huart->TxISR = NULL;
 8006536:	67a6      	str	r6, [r4, #120]	@ 0x78
  return ret;
 8006538:	e787      	b.n	800644a <HAL_UART_Init+0x13e>
  huart->NbRxDataToProcess = 1;
 800653a:	4b27      	ldr	r3, [pc, #156]	@ (80065d8 <HAL_UART_Init+0x2cc>)
  huart->RxISR = NULL;
 800653c:	6760      	str	r0, [r4, #116]	@ 0x74
  huart->NbRxDataToProcess = 1;
 800653e:	66a3      	str	r3, [r4, #104]	@ 0x68
  huart->TxISR = NULL;
 8006540:	67a0      	str	r0, [r4, #120]	@ 0x78
  CLEAR_BIT(huart->Instance->CR2, (USART_CR2_LINEN | USART_CR2_CLKEN));
 8006542:	6823      	ldr	r3, [r4, #0]
 8006544:	e781      	b.n	800644a <HAL_UART_Init+0x13e>
  else if (huart->Init.OverSampling == UART_OVERSAMPLING_8)
 8006546:	2380      	movs	r3, #128	@ 0x80
 8006548:	021b      	lsls	r3, r3, #8
 800654a:	4298      	cmp	r0, r3
 800654c:	d00a      	beq.n	8006564 <HAL_UART_Init+0x258>
        pclk = (uint32_t) LSE_VALUE;
 800654e:	0018      	movs	r0, r3
 8006550:	e764      	b.n	800641c <HAL_UART_Init+0x110>
  else if (huart->Init.OverSampling == UART_OVERSAMPLING_8)
 8006552:	2380      	movs	r3, #128	@ 0x80
 8006554:	021b      	lsls	r3, r3, #8
 8006556:	4298      	cmp	r0, r3
 8006558:	d11e      	bne.n	8006598 <HAL_UART_Init+0x28c>
        pclk = HAL_RCC_GetSysClockFreq();
 800655a:	f7fd faf9 	bl	8003b50 <HAL_RCC_GetSysClockFreq>
    if (pclk != 0U)
 800655e:	2800      	cmp	r0, #0
 8006560:	d0eb      	beq.n	800653a <HAL_UART_Init+0x22e>
      usartdiv = (uint32_t)(UART_DIV_SAMPLING8(pclk, huart->Init.BaudRate, huart->Init.ClockPrescaler));
 8006562:	6a62      	ldr	r2, [r4, #36]	@ 0x24
 8006564:	4b2a      	ldr	r3, [pc, #168]	@ (8006610 <HAL_UART_Init+0x304>)
 8006566:	0052      	lsls	r2, r2, #1
 8006568:	5ad1      	ldrh	r1, [r2, r3]
 800656a:	f7f9 fdcb 	bl	8000104 <__udivsi3>
 800656e:	6865      	ldr	r5, [r4, #4]
 8006570:	0040      	lsls	r0, r0, #1
 8006572:	086b      	lsrs	r3, r5, #1
 8006574:	18c0      	adds	r0, r0, r3
 8006576:	0029      	movs	r1, r5
 8006578:	f7f9 fdc4 	bl	8000104 <__udivsi3>
      if ((usartdiv >= UART_BRR_MIN) && (usartdiv <= UART_BRR_MAX))
 800657c:	0002      	movs	r2, r0
 800657e:	4b25      	ldr	r3, [pc, #148]	@ (8006614 <HAL_UART_Init+0x308>)
 8006580:	3a10      	subs	r2, #16
 8006582:	429a      	cmp	r2, r3
 8006584:	d900      	bls.n	8006588 <HAL_UART_Init+0x27c>
 8006586:	e6fe      	b.n	8006386 <HAL_UART_Init+0x7a>
        brrtemp = (uint16_t)(usartdiv & 0xFFF0U);
 8006588:	4a28      	ldr	r2, [pc, #160]	@ (800662c <HAL_UART_Init+0x320>)
        huart->Instance->BRR = brrtemp;
 800658a:	6823      	ldr	r3, [r4, #0]
        brrtemp = (uint16_t)(usartdiv & 0xFFF0U);
 800658c:	4002      	ands	r2, r0
        brrtemp |= (uint16_t)((usartdiv & (uint16_t)0x000FU) >> 1U);
 800658e:	0700      	lsls	r0, r0, #28
 8006590:	0f40      	lsrs	r0, r0, #29
        huart->Instance->BRR = brrtemp;
 8006592:	4302      	orrs	r2, r0
 8006594:	60da      	str	r2, [r3, #12]
  huart->NbRxDataToProcess = 1;
 8006596:	e753      	b.n	8006440 <HAL_UART_Init+0x134>
        pclk = HAL_RCC_GetSysClockFreq();
 8006598:	f7fd fada 	bl	8003b50 <HAL_RCC_GetSysClockFreq>
        break;
 800659c:	e73a      	b.n	8006414 <HAL_UART_Init+0x108>
  huart->NbRxDataToProcess = 1;
 800659e:	4b0e      	ldr	r3, [pc, #56]	@ (80065d8 <HAL_UART_Init+0x2cc>)
  huart->RxISR = NULL;
 80065a0:	6765      	str	r5, [r4, #116]	@ 0x74
  huart->NbRxDataToProcess = 1;
 80065a2:	66a3      	str	r3, [r4, #104]	@ 0x68
  huart->TxISR = NULL;
 80065a4:	67a5      	str	r5, [r4, #120]	@ 0x78
  CLEAR_BIT(huart->Instance->CR2, (USART_CR2_LINEN | USART_CR2_CLKEN));
 80065a6:	6823      	ldr	r3, [r4, #0]
 80065a8:	e74f      	b.n	800644a <HAL_UART_Init+0x13e>
        pclk = (uint32_t) HSI_VALUE;
 80065aa:	481c      	ldr	r0, [pc, #112]	@ (800661c <HAL_UART_Init+0x310>)
 80065ac:	e7da      	b.n	8006564 <HAL_UART_Init+0x258>
        pclk = HAL_RCC_GetPCLK1Freq();
 80065ae:	f7fd fbe5 	bl	8003d7c <HAL_RCC_GetPCLK1Freq>
 80065b2:	0005      	movs	r5, r0
        break;
 80065b4:	e786      	b.n	80064c4 <HAL_UART_Init+0x1b8>
        pclk = HAL_RCC_GetPCLK1Freq();
 80065b6:	f7fd fbe1 	bl	8003d7c <HAL_RCC_GetPCLK1Freq>
        break;
 80065ba:	e7d0      	b.n	800655e <HAL_UART_Init+0x252>
        pclk = (uint32_t) HSI_VALUE;
 80065bc:	4d17      	ldr	r5, [pc, #92]	@ (800661c <HAL_UART_Init+0x310>)
 80065be:	e78a      	b.n	80064d6 <HAL_UART_Init+0x1ca>
 80065c0:	cfff69f3 	.word	0xcfff69f3
 80065c4:	ffffcfff 	.word	0xffffcfff
 80065c8:	40008000 	.word	0x40008000
 80065cc:	11fff4ff 	.word	0x11fff4ff
 80065d0:	40013800 	.word	0x40013800
 80065d4:	40004400 	.word	0x40004400
 80065d8:	00010001 	.word	0x00010001
 80065dc:	0800592d 	.word	0x0800592d
 80065e0:	08005929 	.word	0x08005929
 80065e4:	08005935 	.word	0x08005935
 80065e8:	08005931 	.word	0x08005931
 80065ec:	08005939 	.word	0x08005939
 80065f0:	0800593d 	.word	0x0800593d
 80065f4:	08005941 	.word	0x08005941
 80065f8:	08005925 	.word	0x08005925
 80065fc:	08006631 	.word	0x08006631
 8006600:	08006635 	.word	0x08006635
 8006604:	08006639 	.word	0x08006639
 8006608:	08005845 	.word	0x08005845
 800660c:	40021000 	.word	0x40021000
 8006610:	080071f8 	.word	0x080071f8
 8006614:	0000ffef 	.word	0x0000ffef
 8006618:	ffffb7ff 	.word	0xffffb7ff
 800661c:	00f42400 	.word	0x00f42400
 8006620:	08001a4d 	.word	0x08001a4d
 8006624:	fffffd00 	.word	0xfffffd00
 8006628:	000ffcff 	.word	0x000ffcff
 800662c:	0000fff0 	.word	0x0000fff0

08006630 <HAL_UARTEx_WakeupCallback>:
  UNUSED(huart);

  /* NOTE : This function should not be modified, when the callback is needed,
            the HAL_UARTEx_WakeupCallback can be implemented in the user file.
   */
}
 8006630:	4770      	bx	lr
 8006632:	46c0      	nop			@ (mov r8, r8)

08006634 <HAL_UARTEx_RxFifoFullCallback>:
/**
  * @brief  UART RX Fifo full callback.
  * @param  huart UART handle.
  * @retval None
  */
__weak void HAL_UARTEx_RxFifoFullCallback(UART_HandleTypeDef *huart)
 8006634:	4770      	bx	lr
 8006636:	46c0      	nop			@ (mov r8, r8)

08006638 <HAL_UARTEx_TxFifoEmptyCallback>:
/**
  * @brief  UART TX Fifo empty callback.
  * @param  huart UART handle.
  * @retval None
  */
__weak void HAL_UARTEx_TxFifoEmptyCallback(UART_HandleTypeDef *huart)
 8006638:	4770      	bx	lr
 800663a:	46c0      	nop			@ (mov r8, r8)

0800663c <memset>:
 800663c:	0003      	movs	r3, r0
 800663e:	1882      	adds	r2, r0, r2
 8006640:	4293      	cmp	r3, r2
 8006642:	d100      	bne.n	8006646 <memset+0xa>
 8006644:	4770      	bx	lr
 8006646:	7019      	strb	r1, [r3, #0]
 8006648:	3301      	adds	r3, #1
 800664a:	e7f9      	b.n	8006640 <memset+0x4>

0800664c <__libc_init_array>:
 800664c:	b570      	push	{r4, r5, r6, lr}
 800664e:	2600      	movs	r6, #0
 8006650:	4c0c      	ldr	r4, [pc, #48]	@ (8006684 <__libc_init_array+0x38>)
 8006652:	4d0d      	ldr	r5, [pc, #52]	@ (8006688 <__libc_init_array+0x3c>)
 8006654:	1b64      	subs	r4, r4, r5
 8006656:	10a4      	asrs	r4, r4, #2
 8006658:	42a6      	cmp	r6, r4
 800665a:	d109      	bne.n	8006670 <__libc_init_array+0x24>
 800665c:	2600      	movs	r6, #0
 800665e:	f000 f823 	bl	80066a8 <_init>
 8006662:	4c0a      	ldr	r4, [pc, #40]	@ (800668c <__libc_init_array+0x40>)
 8006664:	4d0a      	ldr	r5, [pc, #40]	@ (8006690 <__libc_init_array+0x44>)
 8006666:	1b64      	subs	r4, r4, r5
 8006668:	10a4      	asrs	r4, r4, #2
 800666a:	42a6      	cmp	r6, r4
 800666c:	d105      	bne.n	800667a <__libc_init_array+0x2e>
 800666e:	bd70      	pop	{r4, r5, r6, pc}
 8006670:	00b3      	lsls	r3, r6, #2
 8006672:	58eb      	ldr	r3, [r5, r3]
 8006674:	4798      	blx	r3
 8006676:	3601      	adds	r6, #1
 8006678:	e7ee      	b.n	8006658 <__libc_init_array+0xc>
 800667a:	00b3      	lsls	r3, r6, #2
 800667c:	58eb      	ldr	r3, [r5, r3]
 800667e:	4798      	blx	r3
 8006680:	3601      	adds	r6, #1
 8006682:	e7f2      	b.n	800666a <__libc_init_array+0x1e>
 8006684:	08007218 	.word	0x08007218
 8006688:	08007218 	.word	0x08007218
 800668c:	0800721c 	.word	0x0800721c
 8006690:	08007218 	.word	0x08007218

08006694 <memcpy>:
 8006694:	2300      	movs	r3, #0
 8006696:	b510      	push	{r4, lr}
 8006698:	429a      	cmp	r2, r3
 800669a:	d100      	bne.n	800669e <memcpy+0xa>
 800669c:	bd10      	pop	{r4, pc}
 800669e:	5ccc      	ldrb	r4, [r1, r3]
 80066a0:	54c4      	strb	r4, [r0, r3]
 80066a2:	3301      	adds	r3, #1
 80066a4:	e7f8      	b.n	8006698 <memcpy+0x4>
	...

080066a8 <_init>:
 80066a8:	b5f8      	push	{r3, r4, r5, r6, r7, lr}
 80066aa:	46c0      	nop			@ (mov r8, r8)
 80066ac:	bcf8      	pop	{r3, r4, r5, r6, r7}
 80066ae:	bc08      	pop	{r3}
 80066b0:	469e      	mov	lr, r3
 80066b2:	4770      	bx	lr

080066b4 <_fini>:
 80066b4:	b5f8      	push	{r3, r4, r5, r6, r7, lr}
 80066b6:	46c0      	nop			@ (mov r8, r8)
 80066b8:	bcf8      	pop	{r3, r4, r5, r6, r7}
 80066ba:	bc08      	pop	{r3}
 80066bc:	469e      	mov	lr, r3
 80066be:	4770      	bx	lr
