
g031k8.elf:     file format elf32-littlearm

Sections:
Idx Name          Size      VMA       LMA       File off  Algn
  0 .isr_vector   000000bc  08000000  08000000  00001000  2**0
                  CONTENTS, ALLOC, LOAD, READONLY, DATA
  1 .text         00007b90  080000bc  080000bc  000010bc  2**2
                  CONTENTS, ALLOC, LOAD, READONLY, CODE
  2 .rodata       00000b38  08007c4c  08007c4c  00008c4c  2**2
                  CONTENTS, ALLOC, LOAD, READONLY, DATA
  3 .ARM.extab    00000000  08008784  08008784  0000a44c  2**0
                  CONTENTS, READONLY
  4 .ARM          00000008  08008784  08008784  00009784  2**2
                  CONTENTS, ALLOC, LOAD, READONLY, DATA
  5 .preinit_array 00000000  0800878c  0800878c  0000a44c  2**0
                  CONTENTS, ALLOC, LOAD, DATA
  6 .init_array   00000004  0800878c  0800878c  0000978c  2**2
                  CONTENTS, ALLOC, LOAD, READONLY, DATA
  7 .fini_array   00000004  08008790  08008790  00009790  2**2
                  CONTENTS, ALLOC, LOAD, READONLY, DATA
  8 .data         0000044c  20000000  08008794  0000a000  2**2
                  CONTENTS, ALLOC, LOAD, DATA
  9 .bss          00000874  20000450  08008be0  0000a450  2**3
                  ALLOC
 10 ._user_heap_stack 00000604  20000cc4  08008be0  0000acc4  2**0
                  ALLOC
 11 .ARM.attributes 00000028  00000000  00000000  0000a44c  2**0
                  CONTENTS, READONLY
 12 .debug_info   0002bd1b  00000000  00000000  0000a474  2**0
                  CONTENTS, READONLY, DEBUGGING, OCTETS
 13 .debug_abbrev 000056a1  00000000  00000000  0003618f  2**0
                  CONTENTS, READONLY, DEBUGGING, OCTETS
 14 .debug_loclists 00012139  00000000  00000000  0003b830  2**0
                  CONTENTS, READONLY, DEBUGGING, OCTETS
 15 .debug_aranges 00001560  00000000  00000000  0004d970  2**3
                  CONTENTS, READONLY, DEBUGGING, OCTETS
 16 .debug_rnglists 0000209c  00000000  00000000  0004eed0  2**0
                  CONTENTS, READONLY, DEBUGGING, OCTETS
 17 .debug_macro  0001a60f  00000000  00000000  00050f6c  2**0
                  CONTENTS, READONLY, DEBUGGING, OCTETS
 18 .debug_line   0002ce42  00000000  00000000  0006b57b  2**0
                  CONTENTS, READONLY, DEBUGGING, OCTETS
 19 .debug_str    000a0f34  00000000  00000000  000983bd  2**0
                  CONTENTS, READONLY, DEBUGGING, OCTETS
 20 .comment      00000043  00000000  00000000  001392f1  2**0
                  CONTENTS, READONLY
 21 .debug_frame  0000382c  00000000  00000000  00139334  2**2
                  CONTENTS, READONLY, DEBUGGING, OCTETS
 22 .debug_line_str 00000054  00000000  00000000  0013cb60  2**0
                  CONTENTS, READONLY, DEBUGGING, OCTETS

Disassembly of section .text:

080000bc <__do_global_dtors_aux>:
 80000bc:	b510      	push	{r4, lr}
 80000be:	4c06      	ldr	r4, [pc, #24]	@ (80000d8 <__do_global_dtors_aux+0x1c>)
 80000c0:	7823      	ldrb	r3, [r4, #0]
 80000c2:	2b00      	cmp	r3, #0
 80000c4:	d107      	bne.n	80000d6 <__do_global_dtors_aux+0x1a>
 80000c6:	4b05      	ldr	r3, [pc, #20]	@ (80000dc <__do_global_dtors_aux+0x20>)
 80000c8:	2b00      	cmp	r3, #0
 80000ca:	d002      	beq.n	80000d2 <__do_global_dtors_aux+0x16>
 80000cc:	4804      	ldr	r0, [pc, #16]	@ (80000e0 <__do_global_dtors_aux+0x24>)
 80000ce:	e000      	b.n	80000d2 <__do_global_dtors_aux+0x16>
 80000d0:	bf00      	nop
 80000d2:	2301      	movs	r3, #1
 80000d4:	7023      	strb	r3, [r4, #0]
 80000d6:	bd10      	pop	{r4, pc}
 80000d8:	20000450 	.word	0x20000450
 80000dc:	00000000 	.word	0x00000000
 80000e0:	08007c34 	.word	0x08007c34

080000e4 <frame_dummy>:
 80000e4:	4b04      	ldr	r3, [pc, #16]	@ (80000f8 <frame_dummy+0x14>)
 80000e6:	b510      	push	{r4, lr}
 80000e8:	2b00      	cmp	r3, #0
 80000ea:	d003      	beq.n	80000f4 <frame_dummy+0x10>
 80000ec:	4903      	ldr	r1, [pc, #12]	@ (80000fc <frame_dummy+0x18>)
 80000ee:	4804      	ldr	r0, [pc, #16]	@ (8000100 <frame_dummy+0x1c>)
 80000f0:	e000      	b.n	80000f4 <frame_dummy+0x10>
 80000f2:	bf00      	nop
 80000f4:	bd10      	pop	{r4, pc}
 80000f6:	46c0      	nop			@ (mov r8, r8)
 80000f8:	00000000 	.word	0x00000000
 80000fc:	20000454 	.word	0x20000454
 8000100:	08007c34 	.word	0x08007c34

08000104 <__udivsi3>:
 8000104:	2200      	movs	r2, #0
 8000106:	0843      	lsrs	r3, r0, #1
 8000108:	428b      	cmp	r3, r1
 800010a:	d374      	bcc.n	80001f6 <__udivsi3+0xf2>
 800010c:	0903      	lsrs	r3, r0, #4
 800010e:	428b      	cmp	r3, r1
 8000110:	d35f      	bcc.n	80001d2 <__udivsi3+0xce>
 8000112:	0a03      	lsrs	r3, r0, #8
 8000114:	428b      	cmp	r3, r1
 8000116:	d344      	bcc.n	80001a2 <__udivsi3+0x9e>
 8000118:	0b03      	lsrs	r3, r0, #12
 800011a:	428b      	cmp	r3, r1
 800011c:	d328      	bcc.n	8000170 <__udivsi3+0x6c>
 800011e:	0c03      	lsrs	r3, r0, #16
 8000120:	428b      	cmp	r3, r1
 8000122:	d30d      	bcc.n	8000140 <__udivsi3+0x3c>
 8000124:	22ff      	movs	r2, #255	@ 0xff
 8000126:	0209      	lsls	r1, r1, #8
 8000128:	ba12      	rev	r2, r2
 800012a:	0c03      	lsrs	r3, r0, #16
 800012c:	428b      	cmp	r3, r1
 800012e:	d302      	bcc.n	8000136 <__udivsi3+0x32>
 8000130:	1212      	asrs	r2, r2, #8
 8000132:	0209      	lsls	r1, r1, #8
 8000134:	d065      	beq.n	8000202 <__udivsi3+0xfe>
 8000136:	0b03      	lsrs	r3, r0, #12
 8000138:	428b      	cmp	r3, r1
 800013a:	d319      	bcc.n	8000170 <__udivsi3+0x6c>
 800013c:	e000      	b.n	8000140 <__udivsi3+0x3c>
 800013e:	0a09      	lsrs	r1, r1, #8
 8000140:	0bc3      	lsrs	r3, r0, #15
 8000142:	428b      	cmp	r3, r1
 8000144:	d301      	bcc.n	800014a <__udivsi3+0x46>
 8000146:	03cb      	lsls	r3, r1, #15
 8000148:	1ac0      	subs	r0, r0, r3
 800014a:	4152      	adcs	r2, r2
 800014c:	0b83      	lsrs	r3, r0, #14
 800014e:	428b      	cmp	r3, r1
 8000150:	d301      	bcc.n	8000156 <__udivsi3+0x52>
 8000152:	038b      	lsls	r3, r1, #14
 8000154:	1ac0      	subs	r0, r0, r3
 8000156:	4152      	adcs	r2, r2
 8000158:	0b43      	lsrs	r3, r0, #13
 800015a:	428b      	cmp	r3, r1
 800015c:	d301      	bcc.n	8000162 <__udivsi3+0x5e>
 800015e:	034b      	lsls	r3, r1, #13
 8000160:	1ac0      	subs	r0, r0, r3
 8000162:	4152      	adcs	r2, r2
 8000164:	0b03      	lsrs	r3, r0, #12
 8000166:	428b      	cmp	r3, r1
 8000168:	d301      	bcc.n	800016e <__udivsi3+0x6a>
 800016a:	030b      	lsls	r3, r1, #12
 800016c:	1ac0      	subs	r0, r0, r3
 800016e:	4152      	adcs	r2, r2
 8000170:	0ac3      	lsrs	r3, r0, #11
 8000172:	428b      	cmp	r3, r1
 8000174:	d301      	bcc.n	800017a <__udivsi3+0x76>
 8000176:	02cb      	lsls	r3, r1, #11
 8000178:	1ac0      	subs	r0, r0, r3
 800017a:	4152      	adcs	r2, r2
 800017c:	0a83      	lsrs	r3, r0, #10
 800017e:	428b      	cmp	r3, r1
 8000180:	d301      	bcc.n	8000186 <__udivsi3+0x82>
 8000182:	028b      	lsls	r3, r1, #10
 8000184:	1ac0      	subs	r0, r0, r3
 8000186:	4152      	adcs	r2, r2
 8000188:	0a43      	lsrs	r3, r0, #9
 800018a:	428b      	cmp	r3, r1
 800018c:	d301      	bcc.n	8000192 <__udivsi3+0x8e>
 800018e:	024b      	lsls	r3, r1, #9
 8000190:	1ac0      	subs	r0, r0, r3
 8000192:	4152      	adcs	r2, r2
 8000194:	0a03      	lsrs	r3, r0, #8
 8000196:	428b      	cmp	r3, r1
 8000198:	d301      	bcc.n	800019e <__udivsi3+0x9a>
 800019a:	020b      	lsls	r3, r1, #8
 800019c:	1ac0      	subs	r0, r0, r3
 800019e:	4152      	adcs	r2, r2
 80001a0:	d2cd      	bcs.n	800013e <__udivsi3+0x3a>
 80001a2:	09c3      	lsrs	r3, r0, #7
 80001a4:	428b      	cmp	r3, r1
 80001a6:	d301      	bcc.n	80001ac <__udivsi3+0xa8>
 80001a8:	01cb      	lsls	r3, r1, #7
 80001aa:	1ac0      	subs	r0, r0, r3
 80001ac:	4152      	adcs	r2, r2
 80001ae:	0983      	lsrs	r3, r0, #6
 80001b0:	428b      	cmp	r3, r1
 80001b2:	d301      	bcc.n	80001b8 <__udivsi3+0xb4>
 80001b4:	018b      	lsls	r3, r1, #6
 80001b6:	1ac0      	subs	r0, r0, r3
 80001b8:	4152      	adcs	r2, r2
 80001ba:	0943      	lsrs	r3, r0, #5
 80001bc:	428b      	cmp	r3, r1
 80001be:	d301      	bcc.n	80001c4 <__udivsi3+0xc0>
 80001c0:	014b      	lsls	r3, r1, #5
 80001c2:	1ac0      	subs	r0, r0, r3
 80001c4:	4152      	adcs	r2, r2
 80001c6:	0903      	lsrs	r3, r0, #4
 80001c8:	428b      	cmp	r3, r1
 80001ca:	d301      	bcc.n	80001d0 <__udivsi3+0xcc>
 80001cc:	010b      	lsls	r3, r1, #4
 80001ce:	1ac0      	subs	r0, r0, r3
 80001d0:	4152      	adcs	r2, r2
 80001d2:	08c3      	lsrs	r3, r0, #3
 80001d4:	428b      	cmp	r3, r1
 80001d6:	d301      	bcc.n	80001dc <__udivsi3+0xd8>
 80001d8:	00cb      	lsls	r3, r1, #3
 80001da:	1ac0      	subs	r0, r0, r3
 80001dc:	4152      	adcs	r2, r2
 80001de:	0883      	lsrs	r3, r0, #2
 80001e0:	428b      	cmp	r3, r1
 80001e2:	d301      	bcc.n	80001e8 <__udivsi3+0xe4>
 80001e4:	008b      	lsls	r3, r1, #2
 80001e6:	1ac0      	subs	r0, r0, r3
 80001e8:	4152      	adcs	r2, r2
 80001ea:	0843      	lsrs	r3, r0, #1
 80001ec:	428b      	cmp	r3, r1
 80001ee:	d301      	bcc.n	80001f4 <__udivsi3+0xf0>
 80001f0:	004b      	lsls	r3, r1, #1
 80001f2:	1ac0      	subs	r0, r0, r3
 80001f4:	4152      	adcs	r2, r2
 80001f6:	1a41      	subs	r1, r0, r1
 80001f8:	d200      	bcs.n	80001fc <__udivsi3+0xf8>
 80001fa:	4601      	mov	r1, r0
 80001fc:	4152      	adcs	r2, r2
 80001fe:	4610      	mov	r0, r2
 8000200:	4770      	bx	lr
 8000202:	e7ff      	b.n	8000204 <__udivsi3+0x100>
 8000204:	b501      	push	{r0, lr}
 8000206:	2000      	movs	r0, #0
 8000208:	f000 f806 	bl	8000218 <__aeabi_idiv0>
 800020c:	bd02      	pop	{r1, pc}
 800020e:	46c0      	nop			@ (mov r8, r8)

08000210 <__aeabi_uidivmod>:
 8000210:	2900      	cmp	r1, #0
 8000212:	d0f7      	beq.n	8000204 <__udivsi3+0x100>
 8000214:	e776      	b.n	8000104 <__udivsi3>
 8000216:	4770      	bx	lr

08000218 <__aeabi_idiv0>:
 8000218:	4770      	bx	lr
 800021a:	46c0      	nop			@ (mov r8, r8)

0800021c <__aeabi_uldivmod>:
 800021c:	2b00      	cmp	r3, #0
 800021e:	d111      	bne.n	8000244 <__aeabi_uldivmod+0x28>
 8000220:	2a00      	cmp	r2, #0
 8000222:	d10f      	bne.n	8000244 <__aeabi_uldivmod+0x28>
 8000224:	2900      	cmp	r1, #0
 8000226:	d100      	bne.n	800022a <__aeabi_uldivmod+0xe>
 8000228:	2800      	cmp	r0, #0
 800022a:	d002      	beq.n	8000232 <__aeabi_uldivmod+0x16>
 800022c:	2100      	movs	r1, #0
 800022e:	43c9      	mvns	r1, r1
 8000230:	0008      	movs	r0, r1
 8000232:	b407      	push	{r0, r1, r2}
 8000234:	4802      	ldr	r0, [pc, #8]	@ (8000240 <__aeabi_uldivmod+0x24>)
 8000236:	a102      	add	r1, pc, #8	@ (adr r1, 8000240 <__aeabi_uldivmod+0x24>)
 8000238:	1840      	adds	r0, r0, r1
 800023a:	9002      	str	r0, [sp, #8]
 800023c:	bd03      	pop	{r0, r1, pc}
 800023e:	46c0      	nop			@ (mov r8, r8)
 8000240:	ffffffd9 	.word	0xffffffd9
 8000244:	b403      	push	{r0, r1}
 8000246:	4668      	mov	r0, sp
 8000248:	b501      	push	{r0, lr}
 800024a:	9802      	ldr	r0, [sp, #8]
 800024c:	f000 f806 	bl	800025c <__udivmoddi4>
 8000250:	9b01      	ldr	r3, [sp, #4]
 8000252:	469e      	mov	lr, r3
 8000254:	b002      	add	sp, #8
 8000256:	bc0c      	pop	{r2, r3}
 8000258:	4770      	bx	lr
 800025a:	46c0      	nop			@ (mov r8, r8)

0800025c <__udivmoddi4>:
 800025c:	b5f0      	push	{r4, r5, r6, r7, lr}
 800025e:	4657      	mov	r7, sl
 8000260:	464e      	mov	r6, r9
 8000262:	4645      	mov	r5, r8
 8000264:	46de      	mov	lr, fp
 8000266:	b5e0      	push	{r5, r6, r7, lr}
 8000268:	0004      	movs	r4, r0
 800026a:	000d      	movs	r5, r1
 800026c:	4692      	mov	sl, r2
 800026e:	4699      	mov	r9, r3
 8000270:	b083      	sub	sp, #12
 8000272:	428b      	cmp	r3, r1
 8000274:	d830      	bhi.n	80002d8 <__udivmoddi4+0x7c>
 8000276:	d02d      	beq.n	80002d4 <__udivmoddi4+0x78>
 8000278:	4649      	mov	r1, r9
 800027a:	4650      	mov	r0, sl
 800027c:	f000 f8ba 	bl	80003f4 <__clzdi2>
 8000280:	0029      	movs	r1, r5
 8000282:	0006      	movs	r6, r0
 8000284:	0020      	movs	r0, r4
 8000286:	f000 f8b5 	bl	80003f4 <__clzdi2>
 800028a:	1a33      	subs	r3, r6, r0
 800028c:	4698      	mov	r8, r3
 800028e:	3b20      	subs	r3, #32
 8000290:	d434      	bmi.n	80002fc <__udivmoddi4+0xa0>
 8000292:	469b      	mov	fp, r3
 8000294:	4653      	mov	r3, sl
 8000296:	465a      	mov	r2, fp
 8000298:	4093      	lsls	r3, r2
 800029a:	4642      	mov	r2, r8
 800029c:	001f      	movs	r7, r3
 800029e:	4653      	mov	r3, sl
 80002a0:	4093      	lsls	r3, r2
 80002a2:	001e      	movs	r6, r3
 80002a4:	42af      	cmp	r7, r5
 80002a6:	d83b      	bhi.n	8000320 <__udivmoddi4+0xc4>
 80002a8:	42af      	cmp	r7, r5
 80002aa:	d100      	bne.n	80002ae <__udivmoddi4+0x52>
 80002ac:	e079      	b.n	80003a2 <__udivmoddi4+0x146>
 80002ae:	465b      	mov	r3, fp
 80002b0:	1ba4      	subs	r4, r4, r6
 80002b2:	41bd      	sbcs	r5, r7
 80002b4:	2b00      	cmp	r3, #0
 80002b6:	da00      	bge.n	80002ba <__udivmoddi4+0x5e>
 80002b8:	e076      	b.n	80003a8 <__udivmoddi4+0x14c>
 80002ba:	2200      	movs	r2, #0
 80002bc:	2300      	movs	r3, #0
 80002be:	9200      	str	r2, [sp, #0]
 80002c0:	9301      	str	r3, [sp, #4]
 80002c2:	2301      	movs	r3, #1
 80002c4:	465a      	mov	r2, fp
 80002c6:	4093      	lsls	r3, r2
 80002c8:	9301      	str	r3, [sp, #4]
 80002ca:	2301      	movs	r3, #1
 80002cc:	4642      	mov	r2, r8
 80002ce:	4093      	lsls	r3, r2
 80002d0:	9300      	str	r3, [sp, #0]
 80002d2:	e029      	b.n	8000328 <__udivmoddi4+0xcc>
 80002d4:	4282      	cmp	r2, r0
 80002d6:	d9cf      	bls.n	8000278 <__udivmoddi4+0x1c>
 80002d8:	2200      	movs	r2, #0
 80002da:	2300      	movs	r3, #0
 80002dc:	9200      	str	r2, [sp, #0]
 80002de:	9301      	str	r3, [sp, #4]
 80002e0:	9b0c      	ldr	r3, [sp, #48]	@ 0x30
 80002e2:	2b00      	cmp	r3, #0
 80002e4:	d001      	beq.n	80002ea <__udivmoddi4+0x8e>
 80002e6:	601c      	str	r4, [r3, #0]
 80002e8:	605d      	str	r5, [r3, #4]
 80002ea:	9800      	ldr	r0, [sp, #0]
 80002ec:	9901      	ldr	r1, [sp, #4]
 80002ee:	b003      	add	sp, #12
 80002f0:	bcf0      	pop	{r4, r5, r6, r7}
 80002f2:	46bb      	mov	fp, r7
 80002f4:	46b2      	mov	sl, r6
 80002f6:	46a9      	mov	r9, r5
 80002f8:	46a0      	mov	r8, r4
 80002fa:	bdf0      	pop	{r4, r5, r6, r7, pc}
 80002fc:	4642      	mov	r2, r8
 80002fe:	469b      	mov	fp, r3
 8000300:	2320      	movs	r3, #32
 8000302:	1a9b      	subs	r3, r3, r2
 8000304:	4652      	mov	r2, sl
 8000306:	40da      	lsrs	r2, r3
 8000308:	4641      	mov	r1, r8
 800030a:	0013      	movs	r3, r2
 800030c:	464a      	mov	r2, r9
 800030e:	408a      	lsls	r2, r1
 8000310:	0017      	movs	r7, r2
 8000312:	4642      	mov	r2, r8
 8000314:	431f      	orrs	r7, r3
 8000316:	4653      	mov	r3, sl
 8000318:	4093      	lsls	r3, r2
 800031a:	001e      	movs	r6, r3
 800031c:	42af      	cmp	r7, r5
 800031e:	d9c3      	bls.n	80002a8 <__udivmoddi4+0x4c>
 8000320:	2200      	movs	r2, #0
 8000322:	2300      	movs	r3, #0
 8000324:	9200      	str	r2, [sp, #0]
 8000326:	9301      	str	r3, [sp, #4]
 8000328:	4643      	mov	r3, r8
 800032a:	2b00      	cmp	r3, #0
 800032c:	d0d8      	beq.n	80002e0 <__udivmoddi4+0x84>
 800032e:	07fb      	lsls	r3, r7, #31
 8000330:	0872      	lsrs	r2, r6, #1
 8000332:	431a      	orrs	r2, r3
 8000334:	4646      	mov	r6, r8
 8000336:	087b      	lsrs	r3, r7, #1
 8000338:	e00e      	b.n	8000358 <__udivmoddi4+0xfc>
 800033a:	42ab      	cmp	r3, r5
 800033c:	d101      	bne.n	8000342 <__udivmoddi4+0xe6>
 800033e:	42a2      	cmp	r2, r4
 8000340:	d80c      	bhi.n	800035c <__udivmoddi4+0x100>
 8000342:	1aa4      	subs	r4, r4, r2
 8000344:	419d      	sbcs	r5, r3
 8000346:	2001      	movs	r0, #1
 8000348:	1924      	adds	r4, r4, r4
 800034a:	416d      	adcs	r5, r5
 800034c:	2100      	movs	r1, #0
 800034e:	3e01      	subs	r6, #1
 8000350:	1824      	adds	r4, r4, r0
 8000352:	414d      	adcs	r5, r1
 8000354:	2e00      	cmp	r6, #0
 8000356:	d006      	beq.n	8000366 <__udivmoddi4+0x10a>
 8000358:	42ab      	cmp	r3, r5
 800035a:	d9ee      	bls.n	800033a <__udivmoddi4+0xde>
 800035c:	3e01      	subs	r6, #1
 800035e:	1924      	adds	r4, r4, r4
 8000360:	416d      	adcs	r5, r5
 8000362:	2e00      	cmp	r6, #0
 8000364:	d1f8      	bne.n	8000358 <__udivmoddi4+0xfc>
 8000366:	9800      	ldr	r0, [sp, #0]
 8000368:	9901      	ldr	r1, [sp, #4]
 800036a:	465b      	mov	r3, fp
 800036c:	1900      	adds	r0, r0, r4
 800036e:	4169      	adcs	r1, r5
 8000370:	2b00      	cmp	r3, #0
 8000372:	db24      	blt.n	80003be <__udivmoddi4+0x162>
 8000374:	002b      	movs	r3, r5
 8000376:	465a      	mov	r2, fp
 8000378:	4644      	mov	r4, r8
 800037a:	40d3      	lsrs	r3, r2
 800037c:	002a      	movs	r2, r5
 800037e:	40e2      	lsrs	r2, r4
 8000380:	001c      	movs	r4, r3
 8000382:	465b      	mov	r3, fp
 8000384:	0015      	movs	r5, r2
 8000386:	2b00      	cmp	r3, #0
 8000388:	db2a      	blt.n	80003e0 <__udivmoddi4+0x184>
 800038a:	0026      	movs	r6, r4
 800038c:	409e      	lsls	r6, r3
 800038e:	0033      	movs	r3, r6
 8000390:	0026      	movs	r6, r4
 8000392:	4647      	mov	r7, r8
 8000394:	40be      	lsls	r6, r7
 8000396:	0032      	movs	r2, r6
 8000398:	1a80      	subs	r0, r0, r2
 800039a:	4199      	sbcs	r1, r3
 800039c:	9000      	str	r0, [sp, #0]
 800039e:	9101      	str	r1, [sp, #4]
 80003a0:	e79e      	b.n	80002e0 <__udivmoddi4+0x84>
 80003a2:	42a3      	cmp	r3, r4
 80003a4:	d8bc      	bhi.n	8000320 <__udivmoddi4+0xc4>
 80003a6:	e782      	b.n	80002ae <__udivmoddi4+0x52>
 80003a8:	4642      	mov	r2, r8
 80003aa:	2320      	movs	r3, #32
 80003ac:	2100      	movs	r1, #0
 80003ae:	1a9b      	subs	r3, r3, r2
 80003b0:	2200      	movs	r2, #0
 80003b2:	9100      	str	r1, [sp, #0]
 80003b4:	9201      	str	r2, [sp, #4]
 80003b6:	2201      	movs	r2, #1
 80003b8:	40da      	lsrs	r2, r3
 80003ba:	9201      	str	r2, [sp, #4]
 80003bc:	e785      	b.n	80002ca <__udivmoddi4+0x6e>
 80003be:	4642      	mov	r2, r8
 80003c0:	2320      	movs	r3, #32
 80003c2:	1a9b      	subs	r3, r3, r2
 80003c4:	002a      	movs	r2, r5
 80003c6:	4646      	mov	r6, r8
 80003c8:	409a      	lsls	r2, r3
 80003ca:	0023      	movs	r3, r4
 80003cc:	40f3      	lsrs	r3, r6
 80003ce:	4644      	mov	r4, r8
 80003d0:	4313      	orrs	r3, r2
 80003d2:	002a      	movs	r2, r5
 80003d4:	40e2      	lsrs	r2, r4
 80003d6:	001c      	movs	r4, r3
 80003d8:	465b      	mov	r3, fp
 80003da:	0015      	movs	r5, r2
 80003dc:	2b00      	cmp	r3, #0
 80003de:	dad4      	bge.n	800038a <__udivmoddi4+0x12e>
 80003e0:	4642      	mov	r2, r8
 80003e2:	002f      	movs	r7, r5
 80003e4:	2320      	movs	r3, #32
 80003e6:	0026      	movs	r6, r4
 80003e8:	4097      	lsls	r7, r2
 80003ea:	1a9b      	subs	r3, r3, r2
 80003ec:	40de      	lsrs	r6, r3
 80003ee:	003b      	movs	r3, r7
 80003f0:	4333      	orrs	r3, r6
 80003f2:	e7cd      	b.n	8000390 <__udivmoddi4+0x134>

080003f4 <__clzdi2>:
 80003f4:	b510      	push	{r4, lr}
 80003f6:	2900      	cmp	r1, #0
 80003f8:	d103      	bne.n	8000402 <__clzdi2+0xe>
 80003fa:	f000 f807 	bl	800040c <__clzsi2>
 80003fe:	3020      	adds	r0, #32
 8000400:	e002      	b.n	8000408 <__clzdi2+0x14>
 8000402:	0008      	movs	r0, r1
 8000404:	f000 f802 	bl	800040c <__clzsi2>
 8000408:	bd10      	pop	{r4, pc}
 800040a:	46c0      	nop			@ (mov r8, r8)

0800040c <__clzsi2>:
 800040c:	211c      	movs	r1, #28
 800040e:	2301      	movs	r3, #1
 8000410:	041b      	lsls	r3, r3, #16
 8000412:	4298      	cmp	r0, r3
 8000414:	d301      	bcc.n	800041a <__clzsi2+0xe>
 8000416:	0c00      	lsrs	r0, r0, #16
 8000418:	3910      	subs	r1, #16
 800041a:	0a1b      	lsrs	r3, r3, #8
 800041c:	4298      	cmp	r0, r3
 800041e:	d301      	bcc.n	8000424 <__clzsi2+0x18>
 8000420:	0a00      	lsrs	r0, r0, #8
 8000422:	3908      	subs	r1, #8
 8000424:	091b      	lsrs	r3, r3, #4
 8000426:	4298      	cmp	r0, r3
 8000428:	d301      	bcc.n	800042e <__clzsi2+0x22>
 800042a:	0900      	lsrs	r0, r0, #4
 800042c:	3904      	subs	r1, #4
 800042e:	a202      	add	r2, pc, #8	@ (adr r2, 8000438 <__clzsi2+0x2c>)
 8000430:	5c10      	ldrb	r0, [r2, r0]
 8000432:	1840      	adds	r0, r0, r1
 8000434:	4770      	bx	lr
 8000436:	46c0      	nop			@ (mov r8, r8)
 8000438:	02020304 	.word	0x02020304
 800043c:	01010101 	.word	0x01010101
	...

08000448 <Initialise_Preset_Arrays>:
uint8_t Initialise_Preset_Arrays(void){

	for(uint8_t i = 0; i < sizeof(factory_presets_array); i++){

		if(i == 0){
			factory_presets_array[i] = &factory_preset_0;
 8000448:	4a09      	ldr	r2, [pc, #36]	@ (8000470 <Initialise_Preset_Arrays+0x28>)
 800044a:	4b0a      	ldr	r3, [pc, #40]	@ (8000474 <Initialise_Preset_Arrays+0x2c>)
			user_presets_array[i] = &user_preset_0;
 800044c:	490a      	ldr	r1, [pc, #40]	@ (8000478 <Initialise_Preset_Arrays+0x30>)
			factory_presets_array[i] = &factory_preset_0;
 800044e:	6013      	str	r3, [r2, #0]
			user_presets_array[i] = &user_preset_0;
 8000450:	4b0a      	ldr	r3, [pc, #40]	@ (800047c <Initialise_Preset_Arrays+0x34>)
			user_presets_array[i] = &user_preset_3;
		}
	}

	return 1;
}
 8000452:	2001      	movs	r0, #1
			user_presets_array[i] = &user_preset_0;
 8000454:	6019      	str	r1, [r3, #0]
			factory_presets_array[i] = &factory_preset_1;
 8000456:	490a      	ldr	r1, [pc, #40]	@ (8000480 <Initialise_Preset_Arrays+0x38>)
 8000458:	6051      	str	r1, [r2, #4]
			user_presets_array[i] = &user_preset_1;
 800045a:	490a      	ldr	r1, [pc, #40]	@ (8000484 <Initialise_Preset_Arrays+0x3c>)
 800045c:	6059      	str	r1, [r3, #4]
			factory_presets_array[i] = &factory_preset_2;
 800045e:	490a      	ldr	r1, [pc, #40]	@ (8000488 <Initialise_Preset_Arrays+0x40>)
 8000460:	6091      	str	r1, [r2, #8]
			user_presets_array[i] = &user_preset_2;
 8000462:	490a      	ldr	r1, [pc, #40]	@ (800048c <Initialise_Preset_Arrays+0x44>)
 8000464:	6099      	str	r1, [r3, #8]
			factory_presets_array[i] = &factory_preset_3;
 8000466:	490a      	ldr	r1, [pc, #40]	@ (8000490 <Initialise_Preset_Arrays+0x48>)
 8000468:	60d1      	str	r1, [r2, #12]
			user_presets_array[i] = &user_preset_3;
 800046a:	4a0a      	ldr	r2, [pc, #40]	@ (8000494 <Initialise_Preset_Arrays+0x4c>)
 800046c:	60da      	str	r2, [r3, #12]
}
 800046e:	4770      	bx	lr
 8000470:	200004b4 	.word	0x200004b4
 8000474:	08007c64 	.word	0x08007c64
 8000478:	20000018 	.word	0x20000018
 800047c:	200004a4 	.word	0x200004a4
 8000480:	08007c5c 	.word	0x08007c5c
 8000484:	20000010 	.word	0x20000010
 8000488:	08007c54 	.word	0x08007c54
 800048c:	20000008 	.word	0x20000008
 8000490:	08007c4c 	.word	0x08007c4c
 8000494:	20000000 	.word	0x20000000

08000498 <Update_Params_Based_On_Mode_Selected>:

uint8_t Update_Params_Based_On_Mode_Selected(void){
 8000498:	b5f0      	push	{r4, r5, r6, r7, lr}

	if(waveshape_fsm.current_state == MANUAL_MODE){
 800049a:	4c65      	ldr	r4, [pc, #404]	@ (8000630 <Update_Params_Based_On_Mode_Selected+0x198>)
 800049c:	7823      	ldrb	r3, [r4, #0]
 800049e:	2b01      	cmp	r3, #1
 80004a0:	d104      	bne.n	80004ac <Update_Params_Based_On_Mode_Selected+0x14>
		params.waveshape = params_manual.waveshape;
 80004a2:	4b64      	ldr	r3, [pc, #400]	@ (8000634 <Update_Params_Based_On_Mode_Selected+0x19c>)
 80004a4:	4a64      	ldr	r2, [pc, #400]	@ (8000638 <Update_Params_Based_On_Mode_Selected+0x1a0>)
 80004a6:	799b      	ldrb	r3, [r3, #6]
 80004a8:	b2db      	uxtb	r3, r3
 80004aa:	7193      	strb	r3, [r2, #6]
	}
	if(speed_fsm.current_state.shared_state == MANUAL_MODE){
 80004ac:	4863      	ldr	r0, [pc, #396]	@ (800063c <Update_Params_Based_On_Mode_Selected+0x1a4>)
 80004ae:	7803      	ldrb	r3, [r0, #0]
 80004b0:	2b01      	cmp	r3, #1
 80004b2:	d104      	bne.n	80004be <Update_Params_Based_On_Mode_Selected+0x26>
		params.speed = params_manual.speed;
 80004b4:	4b5f      	ldr	r3, [pc, #380]	@ (8000634 <Update_Params_Based_On_Mode_Selected+0x19c>)
 80004b6:	4a60      	ldr	r2, [pc, #384]	@ (8000638 <Update_Params_Based_On_Mode_Selected+0x1a0>)
 80004b8:	891b      	ldrh	r3, [r3, #8]
 80004ba:	b29b      	uxth	r3, r3
 80004bc:	8113      	strh	r3, [r2, #8]
	}
	if(depth_fsm.current_state == MANUAL_MODE){
 80004be:	4960      	ldr	r1, [pc, #384]	@ (8000640 <Update_Params_Based_On_Mode_Selected+0x1a8>)
 80004c0:	780b      	ldrb	r3, [r1, #0]
 80004c2:	2b01      	cmp	r3, #1
 80004c4:	d104      	bne.n	80004d0 <Update_Params_Based_On_Mode_Selected+0x38>
		params.depth = params_manual.depth;
 80004c6:	4b5b      	ldr	r3, [pc, #364]	@ (8000634 <Update_Params_Based_On_Mode_Selected+0x19c>)
 80004c8:	4a5b      	ldr	r2, [pc, #364]	@ (8000638 <Update_Params_Based_On_Mode_Selected+0x1a0>)
 80004ca:	7a9b      	ldrb	r3, [r3, #10]
 80004cc:	b2db      	uxtb	r3, r3
 80004ce:	7293      	strb	r3, [r2, #10]
	}
	if(symmetry_fsm.current_state == MANUAL_MODE){
 80004d0:	4a5c      	ldr	r2, [pc, #368]	@ (8000644 <Update_Params_Based_On_Mode_Selected+0x1ac>)
 80004d2:	7813      	ldrb	r3, [r2, #0]
 80004d4:	2b01      	cmp	r3, #1
 80004d6:	d104      	bne.n	80004e2 <Update_Params_Based_On_Mode_Selected+0x4a>
		params.symmetry = params_manual.symmetry;
 80004d8:	4b56      	ldr	r3, [pc, #344]	@ (8000634 <Update_Params_Based_On_Mode_Selected+0x19c>)
 80004da:	4d57      	ldr	r5, [pc, #348]	@ (8000638 <Update_Params_Based_On_Mode_Selected+0x1a0>)
 80004dc:	899b      	ldrh	r3, [r3, #12]
 80004de:	b29b      	uxth	r3, r3
 80004e0:	81ab      	strh	r3, [r5, #12]
	}
	if(phase_fsm.current_state == MANUAL_MODE){
 80004e2:	4b59      	ldr	r3, [pc, #356]	@ (8000648 <Update_Params_Based_On_Mode_Selected+0x1b0>)
 80004e4:	781d      	ldrb	r5, [r3, #0]
 80004e6:	2d01      	cmp	r5, #1
 80004e8:	d104      	bne.n	80004f4 <Update_Params_Based_On_Mode_Selected+0x5c>
		params.duty_delay_line_read_pointer_offset = params_manual.duty_delay_line_read_pointer_offset;
 80004ea:	4d52      	ldr	r5, [pc, #328]	@ (8000634 <Update_Params_Based_On_Mode_Selected+0x19c>)
 80004ec:	4e52      	ldr	r6, [pc, #328]	@ (8000638 <Update_Params_Based_On_Mode_Selected+0x1a0>)
 80004ee:	8c6d      	ldrh	r5, [r5, #34]	@ 0x22
 80004f0:	b2ad      	uxth	r5, r5
 80004f2:	8475      	strh	r5, [r6, #34]	@ 0x22
	}

	if(waveshape_fsm.current_state == PC_MODE){
 80004f4:	7825      	ldrb	r5, [r4, #0]
 80004f6:	2d03      	cmp	r5, #3
 80004f8:	d100      	bne.n	80004fc <Update_Params_Based_On_Mode_Selected+0x64>
 80004fa:	e070      	b.n	80005de <Update_Params_Based_On_Mode_Selected+0x146>
		Update_Waveshape_with_Converted_Preset_Value(&presets_converted_array[(uint8_t)preset_selected - 1], &params);
	}
	if(speed_fsm.current_state.shared_state == PC_MODE){
 80004fc:	7805      	ldrb	r5, [r0, #0]
 80004fe:	2d03      	cmp	r5, #3
 8000500:	d10b      	bne.n	800051a <Update_Params_Based_On_Mode_Selected+0x82>
		Update_Speed_with_Converted_Preset_Value(&presets_converted_array[(uint8_t)preset_selected - 1], &params);
 8000502:	4d52      	ldr	r5, [pc, #328]	@ (800064c <Update_Params_Based_On_Mode_Selected+0x1b4>)
 8000504:	782f      	ldrb	r7, [r5, #0]
	return 1;
}

uint8_t Update_Speed_with_Converted_Preset_Value(volatile struct Preset_Converted* preset_converted_ptr, struct Params* params_ptr){

	params_ptr->speed = preset_converted_ptr->speed;
 8000506:	4d52      	ldr	r5, [pc, #328]	@ (8000650 <Update_Params_Based_On_Mode_Selected+0x1b8>)
		Update_Speed_with_Converted_Preset_Value(&presets_converted_array[(uint8_t)preset_selected - 1], &params);
 8000508:	3f01      	subs	r7, #1
	params_ptr->speed = preset_converted_ptr->speed;
 800050a:	00be      	lsls	r6, r7, #2
 800050c:	19f6      	adds	r6, r6, r7
 800050e:	0076      	lsls	r6, r6, #1
 8000510:	19ad      	adds	r5, r5, r6
 8000512:	886d      	ldrh	r5, [r5, #2]
 8000514:	4e48      	ldr	r6, [pc, #288]	@ (8000638 <Update_Params_Based_On_Mode_Selected+0x1a0>)
 8000516:	b2ad      	uxth	r5, r5
 8000518:	8135      	strh	r5, [r6, #8]
	if(depth_fsm.current_state == PC_MODE){
 800051a:	780d      	ldrb	r5, [r1, #0]
 800051c:	2d03      	cmp	r5, #3
 800051e:	d10b      	bne.n	8000538 <Update_Params_Based_On_Mode_Selected+0xa0>
		Update_Depth_with_Converted_Preset_Value(&presets_converted_array[(uint8_t)preset_selected - 1], &params);
 8000520:	4d4a      	ldr	r5, [pc, #296]	@ (800064c <Update_Params_Based_On_Mode_Selected+0x1b4>)
 8000522:	782f      	ldrb	r7, [r5, #0]
	return 1;
}

uint8_t Update_Depth_with_Converted_Preset_Value(volatile struct Preset_Converted* preset_converted_ptr, struct Params* params_ptr){

	params_ptr->depth = preset_converted_ptr->depth;
 8000524:	4d4a      	ldr	r5, [pc, #296]	@ (8000650 <Update_Params_Based_On_Mode_Selected+0x1b8>)
		Update_Depth_with_Converted_Preset_Value(&presets_converted_array[(uint8_t)preset_selected - 1], &params);
 8000526:	3f01      	subs	r7, #1
	params_ptr->depth = preset_converted_ptr->depth;
 8000528:	00be      	lsls	r6, r7, #2
 800052a:	19f6      	adds	r6, r6, r7
 800052c:	0076      	lsls	r6, r6, #1
 800052e:	19ad      	adds	r5, r5, r6
 8000530:	792d      	ldrb	r5, [r5, #4]
 8000532:	4e41      	ldr	r6, [pc, #260]	@ (8000638 <Update_Params_Based_On_Mode_Selected+0x1a0>)
 8000534:	b2ed      	uxtb	r5, r5
 8000536:	72b5      	strb	r5, [r6, #10]
	if(symmetry_fsm.current_state == PC_MODE){
 8000538:	7815      	ldrb	r5, [r2, #0]
 800053a:	2d03      	cmp	r5, #3
 800053c:	d10b      	bne.n	8000556 <Update_Params_Based_On_Mode_Selected+0xbe>
		Update_Symmetry_with_Converted_Preset_Value(&presets_converted_array[(uint8_t)preset_selected - 1], &params);
 800053e:	4d43      	ldr	r5, [pc, #268]	@ (800064c <Update_Params_Based_On_Mode_Selected+0x1b4>)
 8000540:	782f      	ldrb	r7, [r5, #0]
	return 1;
}

uint8_t Update_Symmetry_with_Converted_Preset_Value(volatile struct Preset_Converted* preset_converted_ptr, struct Params* params_ptr){

	params_ptr->symmetry = preset_converted_ptr->symmetry;
 8000542:	4d43      	ldr	r5, [pc, #268]	@ (8000650 <Update_Params_Based_On_Mode_Selected+0x1b8>)
		Update_Symmetry_with_Converted_Preset_Value(&presets_converted_array[(uint8_t)preset_selected - 1], &params);
 8000544:	3f01      	subs	r7, #1
	params_ptr->symmetry = preset_converted_ptr->symmetry;
 8000546:	00be      	lsls	r6, r7, #2
 8000548:	19f6      	adds	r6, r6, r7
 800054a:	0076      	lsls	r6, r6, #1
 800054c:	19ad      	adds	r5, r5, r6
 800054e:	88ed      	ldrh	r5, [r5, #6]
 8000550:	4e39      	ldr	r6, [pc, #228]	@ (8000638 <Update_Params_Based_On_Mode_Selected+0x1a0>)
 8000552:	b2ad      	uxth	r5, r5
 8000554:	81b5      	strh	r5, [r6, #12]
	if(phase_fsm.current_state == PC_MODE){
 8000556:	781d      	ldrb	r5, [r3, #0]
 8000558:	2d03      	cmp	r5, #3
 800055a:	d10b      	bne.n	8000574 <Update_Params_Based_On_Mode_Selected+0xdc>
		Update_Phase_with_Converted_Preset_Value(&presets_converted_array[(uint8_t)preset_selected - 1], &params);
 800055c:	4d3b      	ldr	r5, [pc, #236]	@ (800064c <Update_Params_Based_On_Mode_Selected+0x1b4>)
 800055e:	782f      	ldrb	r7, [r5, #0]
	return 1;
}

uint8_t Update_Phase_with_Converted_Preset_Value(volatile struct Preset_Converted* preset_converted_ptr, struct Params* params_ptr){

	params_ptr->duty_delay_line_read_pointer_offset = preset_converted_ptr->phase;
 8000560:	4d3b      	ldr	r5, [pc, #236]	@ (8000650 <Update_Params_Based_On_Mode_Selected+0x1b8>)
		Update_Phase_with_Converted_Preset_Value(&presets_converted_array[(uint8_t)preset_selected - 1], &params);
 8000562:	3f01      	subs	r7, #1
	params_ptr->duty_delay_line_read_pointer_offset = preset_converted_ptr->phase;
 8000564:	00be      	lsls	r6, r7, #2
 8000566:	19f6      	adds	r6, r6, r7
 8000568:	0076      	lsls	r6, r6, #1
 800056a:	19ad      	adds	r5, r5, r6
 800056c:	892d      	ldrh	r5, [r5, #8]
 800056e:	4e32      	ldr	r6, [pc, #200]	@ (8000638 <Update_Params_Based_On_Mode_Selected+0x1a0>)
 8000570:	b2ad      	uxth	r5, r5
 8000572:	8475      	strh	r5, [r6, #34]	@ 0x22
	if(waveshape_fsm.current_state == CC_MODE){
 8000574:	7824      	ldrb	r4, [r4, #0]
 8000576:	b2e5      	uxtb	r5, r4
 8000578:	2c02      	cmp	r4, #2
 800057a:	d025      	beq.n	80005c8 <Update_Params_Based_On_Mode_Selected+0x130>
	if(speed_fsm.current_state.shared_state == CC_MODE){
 800057c:	7800      	ldrb	r0, [r0, #0]
 800057e:	2802      	cmp	r0, #2
 8000580:	d104      	bne.n	800058c <Update_Params_Based_On_Mode_Selected+0xf4>
	return 1;
}

uint8_t Update_Speed_with_CC_Value(volatile uint8_t *data, struct Params* params_ptr){

	uint16_t speed = (uint16_t)*data;
 8000582:	4834      	ldr	r0, [pc, #208]	@ (8000654 <Update_Params_Based_On_Mode_Selected+0x1bc>)

	speed <<= 3; //convert to 10-bit
	params_ptr->speed = speed;
 8000584:	4c2c      	ldr	r4, [pc, #176]	@ (8000638 <Update_Params_Based_On_Mode_Selected+0x1a0>)
	uint16_t speed = (uint16_t)*data;
 8000586:	7840      	ldrb	r0, [r0, #1]
	speed <<= 3; //convert to 10-bit
 8000588:	00c0      	lsls	r0, r0, #3
	params_ptr->speed = speed;
 800058a:	8120      	strh	r0, [r4, #8]
	if(depth_fsm.current_state == CC_MODE){
 800058c:	7809      	ldrb	r1, [r1, #0]
 800058e:	2902      	cmp	r1, #2
 8000590:	d104      	bne.n	800059c <Update_Params_Based_On_Mode_Selected+0x104>
	return 1;
}

uint8_t Update_Depth_with_CC_Value(volatile uint8_t *data, struct Params* params_ptr){

	uint8_t depth = (uint8_t)*data;
 8000592:	4930      	ldr	r1, [pc, #192]	@ (8000654 <Update_Params_Based_On_Mode_Selected+0x1bc>)
	params_ptr->depth = depth;
 8000594:	4828      	ldr	r0, [pc, #160]	@ (8000638 <Update_Params_Based_On_Mode_Selected+0x1a0>)
	uint8_t depth = (uint8_t)*data;
 8000596:	7889      	ldrb	r1, [r1, #2]
 8000598:	b2c9      	uxtb	r1, r1
	params_ptr->depth = depth;
 800059a:	7281      	strb	r1, [r0, #10]
	if(symmetry_fsm.current_state == CC_MODE){
 800059c:	7812      	ldrb	r2, [r2, #0]
 800059e:	2a02      	cmp	r2, #2
 80005a0:	d106      	bne.n	80005b0 <Update_Params_Based_On_Mode_Selected+0x118>
	return 1;
}

uint8_t Update_Symmetry_with_CC_Value(volatile uint8_t *data, struct Params* params_ptr){

	uint8_t symmetry = (uint8_t)*data;
 80005a2:	4a2c      	ldr	r2, [pc, #176]	@ (8000654 <Update_Params_Based_On_Mode_Selected+0x1bc>)

	symmetry <<= 1; //convert to 8-bit
	params_ptr->symmetry = symmetry;
 80005a4:	4924      	ldr	r1, [pc, #144]	@ (8000638 <Update_Params_Based_On_Mode_Selected+0x1a0>)
	uint8_t symmetry = (uint8_t)*data;
 80005a6:	78d2      	ldrb	r2, [r2, #3]
	symmetry <<= 1; //convert to 8-bit
 80005a8:	0052      	lsls	r2, r2, #1
	params_ptr->symmetry = symmetry;
 80005aa:	b2d2      	uxtb	r2, r2
 80005ac:	b292      	uxth	r2, r2
 80005ae:	818a      	strh	r2, [r1, #12]
	if(phase_fsm.current_state == CC_MODE){
 80005b0:	781b      	ldrb	r3, [r3, #0]
 80005b2:	2b02      	cmp	r3, #2
 80005b4:	d106      	bne.n	80005c4 <Update_Params_Based_On_Mode_Selected+0x12c>
	return 1;
}

uint8_t Update_Phase_with_CC_Value(volatile uint8_t *data, struct Params* params_ptr){

	uint8_t phase = (uint8_t)*data;
 80005b6:	4b27      	ldr	r3, [pc, #156]	@ (8000654 <Update_Params_Based_On_Mode_Selected+0x1bc>)

	phase <<= 2; //convert to 9-bit
	params_ptr->duty_delay_line_read_pointer_offset = phase;
 80005b8:	4a1f      	ldr	r2, [pc, #124]	@ (8000638 <Update_Params_Based_On_Mode_Selected+0x1a0>)
	uint8_t phase = (uint8_t)*data;
 80005ba:	791b      	ldrb	r3, [r3, #4]
	phase <<= 2; //convert to 9-bit
 80005bc:	009b      	lsls	r3, r3, #2
	params_ptr->duty_delay_line_read_pointer_offset = phase;
 80005be:	b2db      	uxtb	r3, r3
 80005c0:	b29b      	uxth	r3, r3
 80005c2:	8453      	strh	r3, [r2, #34]	@ 0x22
}
 80005c4:	2001      	movs	r0, #1
 80005c6:	bdf0      	pop	{r4, r5, r6, r7, pc}
	if(*data <= TRIANGLE_MODE_ADC_THRESHOLD){
 80005c8:	4c22      	ldr	r4, [pc, #136]	@ (8000654 <Update_Params_Based_On_Mode_Selected+0x1bc>)
 80005ca:	7826      	ldrb	r6, [r4, #0]
 80005cc:	2e2a      	cmp	r6, #42	@ 0x2a
 80005ce:	d91b      	bls.n	8000608 <Update_Params_Based_On_Mode_Selected+0x170>
	else if (*data <= SINE_MODE_ADC_THRESHOLD){
 80005d0:	7826      	ldrb	r6, [r4, #0]
 80005d2:	2e55      	cmp	r6, #85	@ 0x55
 80005d4:	d824      	bhi.n	8000620 <Update_Params_Based_On_Mode_Selected+0x188>
		params_ptr->waveshape = SINE_MODE;
 80005d6:	2501      	movs	r5, #1
 80005d8:	4c17      	ldr	r4, [pc, #92]	@ (8000638 <Update_Params_Based_On_Mode_Selected+0x1a0>)
 80005da:	71a5      	strb	r5, [r4, #6]
 80005dc:	e7ce      	b.n	800057c <Update_Params_Based_On_Mode_Selected+0xe4>
		Update_Waveshape_with_Converted_Preset_Value(&presets_converted_array[(uint8_t)preset_selected - 1], &params);
 80005de:	4d1b      	ldr	r5, [pc, #108]	@ (800064c <Update_Params_Based_On_Mode_Selected+0x1b4>)
	uint8_t waveshape = preset_converted_ptr->waveshape;
 80005e0:	4e1b      	ldr	r6, [pc, #108]	@ (8000650 <Update_Params_Based_On_Mode_Selected+0x1b8>)
		Update_Waveshape_with_Converted_Preset_Value(&presets_converted_array[(uint8_t)preset_selected - 1], &params);
 80005e2:	782f      	ldrb	r7, [r5, #0]
 80005e4:	3f01      	subs	r7, #1
	uint8_t waveshape = preset_converted_ptr->waveshape;
 80005e6:	00bd      	lsls	r5, r7, #2
 80005e8:	19ed      	adds	r5, r5, r7
 80005ea:	006d      	lsls	r5, r5, #1
 80005ec:	5dad      	ldrb	r5, [r5, r6]
 80005ee:	b2ee      	uxtb	r6, r5
	if(waveshape <= TRIANGLE_MODE_ADC_THRESHOLD){
 80005f0:	2d2a      	cmp	r5, #42	@ 0x2a
 80005f2:	d905      	bls.n	8000600 <Update_Params_Based_On_Mode_Selected+0x168>
	else if (waveshape <= SINE_MODE_ADC_THRESHOLD){
 80005f4:	2e55      	cmp	r6, #85	@ 0x55
 80005f6:	d80b      	bhi.n	8000610 <Update_Params_Based_On_Mode_Selected+0x178>
		params_ptr->waveshape = SINE_MODE; //sine wave
 80005f8:	2601      	movs	r6, #1
 80005fa:	4d0f      	ldr	r5, [pc, #60]	@ (8000638 <Update_Params_Based_On_Mode_Selected+0x1a0>)
 80005fc:	71ae      	strb	r6, [r5, #6]
 80005fe:	e77d      	b.n	80004fc <Update_Params_Based_On_Mode_Selected+0x64>
		params_ptr->waveshape = TRIANGLE_MODE; //triangle wave
 8000600:	2600      	movs	r6, #0
 8000602:	4d0d      	ldr	r5, [pc, #52]	@ (8000638 <Update_Params_Based_On_Mode_Selected+0x1a0>)
 8000604:	71ae      	strb	r6, [r5, #6]
 8000606:	e779      	b.n	80004fc <Update_Params_Based_On_Mode_Selected+0x64>
		params_ptr->waveshape = TRIANGLE_MODE;
 8000608:	2500      	movs	r5, #0
 800060a:	4c0b      	ldr	r4, [pc, #44]	@ (8000638 <Update_Params_Based_On_Mode_Selected+0x1a0>)
 800060c:	71a5      	strb	r5, [r4, #6]
 800060e:	e7b5      	b.n	800057c <Update_Params_Based_On_Mode_Selected+0xe4>
	else if (waveshape <= SQUARE_MODE_ADC_THRESHOLD){
 8000610:	b276      	sxtb	r6, r6
 8000612:	2e00      	cmp	r6, #0
 8000614:	da00      	bge.n	8000618 <Update_Params_Based_On_Mode_Selected+0x180>
 8000616:	e771      	b.n	80004fc <Update_Params_Based_On_Mode_Selected+0x64>
		params_ptr->waveshape = SQUARE_MODE; //square wave
 8000618:	2602      	movs	r6, #2
 800061a:	4d07      	ldr	r5, [pc, #28]	@ (8000638 <Update_Params_Based_On_Mode_Selected+0x1a0>)
 800061c:	71ae      	strb	r6, [r5, #6]
 800061e:	e76d      	b.n	80004fc <Update_Params_Based_On_Mode_Selected+0x64>
	else if (*data <= SQUARE_MODE_ADC_THRESHOLD){
 8000620:	7824      	ldrb	r4, [r4, #0]
 8000622:	b264      	sxtb	r4, r4
 8000624:	2c00      	cmp	r4, #0
 8000626:	dba9      	blt.n	800057c <Update_Params_Based_On_Mode_Selected+0xe4>
		params_ptr->waveshape = SQUARE_MODE;
 8000628:	4c03      	ldr	r4, [pc, #12]	@ (8000638 <Update_Params_Based_On_Mode_Selected+0x1a0>)
 800062a:	71a5      	strb	r5, [r4, #6]
 800062c:	e7a6      	b.n	800057c <Update_Params_Based_On_Mode_Selected+0xe4>
 800062e:	46c0      	nop			@ (mov r8, r8)
 8000630:	20000434 	.word	0x20000434
 8000634:	20000c6c 	.word	0x20000c6c
 8000638:	20000c90 	.word	0x20000c90
 800063c:	2000043c 	.word	0x2000043c
 8000640:	20000438 	.word	0x20000438
 8000644:	20000430 	.word	0x20000430
 8000648:	2000042c 	.word	0x2000042c
 800064c:	20000478 	.word	0x20000478
 8000650:	2000047c 	.word	0x2000047c
 8000654:	2000046c 	.word	0x2000046c

08000658 <Read_and_Interpret_Misc_From_Flash>:
uint8_t Read_and_Interpret_Misc_From_Flash(uint32_t address_val, volatile enum Validate *user_presets_used_array_ptr, volatile uint32_t *statuses_ptr, volatile enum MIDI_Channel *MIDI_basic_channel_ptr, uint8_t num_presets){
 8000658:	b5f0      	push	{r4, r5, r6, r7, lr}
 800065a:	4646      	mov	r6, r8
 800065c:	464f      	mov	r7, r9
 800065e:	46d6      	mov	lr, sl
 8000660:	b5c0      	push	{r6, r7, lr}
 8000662:	b082      	sub	sp, #8
 8000664:	469a      	mov	sl, r3
 8000666:	ab0a      	add	r3, sp, #40	@ 0x28
 8000668:	781f      	ldrb	r7, [r3, #0]
	volatile uint8_t interpretted_value = 0;
 800066a:	466b      	mov	r3, sp
 800066c:	1dde      	adds	r6, r3, #7
 800066e:	2300      	movs	r3, #0
uint8_t Read_and_Interpret_Misc_From_Flash(uint32_t address_val, volatile enum Validate *user_presets_used_array_ptr, volatile uint32_t *statuses_ptr, volatile enum MIDI_Channel *MIDI_basic_channel_ptr, uint8_t num_presets){
 8000670:	4680      	mov	r8, r0
 8000672:	4691      	mov	r9, r2
	volatile uint8_t interpretted_value = 0;
 8000674:	7033      	strb	r3, [r6, #0]
	for(uint8_t i = 0; i < num_presets; i++){
 8000676:	2f00      	cmp	r7, #0
 8000678:	d014      	beq.n	80006a4 <Read_and_Interpret_Misc_From_Flash+0x4c>
 800067a:	1a42      	subs	r2, r0, r1
 800067c:	2400      	movs	r4, #0
			*(user_presets_used_array_ptr + i) = (enum Validate)NO;
 800067e:	2000      	movs	r0, #0
		interpretted_value = *(address + i);
 8000680:	5c53      	ldrb	r3, [r2, r1]
 8000682:	7033      	strb	r3, [r6, #0]
		if(interpretted_value == (enum Validate)YES){
 8000684:	7835      	ldrb	r5, [r6, #0]
 8000686:	b2eb      	uxtb	r3, r5
 8000688:	2d01      	cmp	r5, #1
 800068a:	d032      	beq.n	80006f2 <Read_and_Interpret_Misc_From_Flash+0x9a>
		else if((interpretted_value == 0xFF) || (interpretted_value == (enum Validate)NO)){
 800068c:	7833      	ldrb	r3, [r6, #0]
 800068e:	2bff      	cmp	r3, #255	@ 0xff
 8000690:	d002      	beq.n	8000698 <Read_and_Interpret_Misc_From_Flash+0x40>
 8000692:	7833      	ldrb	r3, [r6, #0]
 8000694:	2b00      	cmp	r3, #0
 8000696:	d100      	bne.n	800069a <Read_and_Interpret_Misc_From_Flash+0x42>
			*(user_presets_used_array_ptr + i) = (enum Validate)NO;
 8000698:	7008      	strb	r0, [r1, #0]
	for(uint8_t i = 0; i < num_presets; i++){
 800069a:	3401      	adds	r4, #1
 800069c:	b2e4      	uxtb	r4, r4
 800069e:	3101      	adds	r1, #1
 80006a0:	42a7      	cmp	r7, r4
 80006a2:	d1ed      	bne.n	8000680 <Read_and_Interpret_Misc_From_Flash+0x28>
	interpretted_value = *(address + num_presets);
 80006a4:	4643      	mov	r3, r8
 80006a6:	5ddb      	ldrb	r3, [r3, r7]
 80006a8:	7033      	strb	r3, [r6, #0]
	if(interpretted_value == (enum Validate)NO){
 80006aa:	7833      	ldrb	r3, [r6, #0]
 80006ac:	2b00      	cmp	r3, #0
 80006ae:	d042      	beq.n	8000736 <Read_and_Interpret_Misc_From_Flash+0xde>
	else if((interpretted_value == (enum Validate)YES) || (interpretted_value == 0xFF)){
 80006b0:	7833      	ldrb	r3, [r6, #0]
 80006b2:	2b01      	cmp	r3, #1
 80006b4:	d02f      	beq.n	8000716 <Read_and_Interpret_Misc_From_Flash+0xbe>
 80006b6:	7833      	ldrb	r3, [r6, #0]
 80006b8:	2bff      	cmp	r3, #255	@ 0xff
 80006ba:	d02c      	beq.n	8000716 <Read_and_Interpret_Misc_From_Flash+0xbe>
	interpretted_value = *(address + num_presets + 1);
 80006bc:	4447      	add	r7, r8
 80006be:	787b      	ldrb	r3, [r7, #1]
 80006c0:	7033      	strb	r3, [r6, #0]
	if(interpretted_value == (enum Validate)NO){
 80006c2:	7833      	ldrb	r3, [r6, #0]
 80006c4:	2b00      	cmp	r3, #0
 80006c6:	d030      	beq.n	800072a <Read_and_Interpret_Misc_From_Flash+0xd2>
	else if((interpretted_value == (enum Validate)YES) || (interpretted_value == 0xFF)){
 80006c8:	7833      	ldrb	r3, [r6, #0]
 80006ca:	2b01      	cmp	r3, #1
 80006cc:	d01d      	beq.n	800070a <Read_and_Interpret_Misc_From_Flash+0xb2>
 80006ce:	7833      	ldrb	r3, [r6, #0]
 80006d0:	2bff      	cmp	r3, #255	@ 0xff
 80006d2:	d01a      	beq.n	800070a <Read_and_Interpret_Misc_From_Flash+0xb2>
	interpretted_value = *(address + num_presets + 2);
 80006d4:	78bb      	ldrb	r3, [r7, #2]
 80006d6:	7033      	strb	r3, [r6, #0]
	if(interpretted_value > (uint8_t)MIDI_CH_SIXTEEN){
 80006d8:	7833      	ldrb	r3, [r6, #0]
 80006da:	2b0f      	cmp	r3, #15
 80006dc:	d910      	bls.n	8000700 <Read_and_Interpret_Misc_From_Flash+0xa8>
		*MIDI_basic_channel_ptr = (enum MIDI_Channel)midi_channel_default;
 80006de:	2300      	movs	r3, #0
 80006e0:	4652      	mov	r2, sl
 80006e2:	7013      	strb	r3, [r2, #0]
}
 80006e4:	2001      	movs	r0, #1
 80006e6:	b002      	add	sp, #8
 80006e8:	bce0      	pop	{r5, r6, r7}
 80006ea:	46ba      	mov	sl, r7
 80006ec:	46b1      	mov	r9, r6
 80006ee:	46a8      	mov	r8, r5
 80006f0:	bdf0      	pop	{r4, r5, r6, r7, pc}
	for(uint8_t i = 0; i < num_presets; i++){
 80006f2:	3401      	adds	r4, #1
 80006f4:	b2e4      	uxtb	r4, r4
			*(user_presets_used_array_ptr + i) = (enum Validate)YES;
 80006f6:	700b      	strb	r3, [r1, #0]
	for(uint8_t i = 0; i < num_presets; i++){
 80006f8:	3101      	adds	r1, #1
 80006fa:	42a7      	cmp	r7, r4
 80006fc:	d1c0      	bne.n	8000680 <Read_and_Interpret_Misc_From_Flash+0x28>
 80006fe:	e7d1      	b.n	80006a4 <Read_and_Interpret_Misc_From_Flash+0x4c>
		*MIDI_basic_channel_ptr = (enum MIDI_Channel)interpretted_value;
 8000700:	4652      	mov	r2, sl
 8000702:	7833      	ldrb	r3, [r6, #0]
 8000704:	b2db      	uxtb	r3, r3
 8000706:	7013      	strb	r3, [r2, #0]
 8000708:	e7ec      	b.n	80006e4 <Read_and_Interpret_Misc_From_Flash+0x8c>
		Set_Status_Bit(statuses_ptr, MIDI_Channel_Voice_Mode); //OMNI ON
 800070a:	2180      	movs	r1, #128	@ 0x80
 800070c:	4648      	mov	r0, r9
 800070e:	00c9      	lsls	r1, r1, #3
 8000710:	f002 fdf6 	bl	8003300 <Set_Status_Bit>
 8000714:	e7de      	b.n	80006d4 <Read_and_Interpret_Misc_From_Flash+0x7c>
		Set_Status_Bit(statuses_ptr, Start_Required_Before_Sync_Mode);
 8000716:	2180      	movs	r1, #128	@ 0x80
 8000718:	4648      	mov	r0, r9
	interpretted_value = *(address + num_presets + 1);
 800071a:	4447      	add	r7, r8
		Set_Status_Bit(statuses_ptr, Start_Required_Before_Sync_Mode);
 800071c:	f002 fdf0 	bl	8003300 <Set_Status_Bit>
	interpretted_value = *(address + num_presets + 1);
 8000720:	787b      	ldrb	r3, [r7, #1]
 8000722:	7033      	strb	r3, [r6, #0]
	if(interpretted_value == (enum Validate)NO){
 8000724:	7833      	ldrb	r3, [r6, #0]
 8000726:	2b00      	cmp	r3, #0
 8000728:	d1ce      	bne.n	80006c8 <Read_and_Interpret_Misc_From_Flash+0x70>
		Clear_Status_Bit(statuses_ptr, MIDI_Channel_Voice_Mode); //OMNI OFF
 800072a:	2180      	movs	r1, #128	@ 0x80
 800072c:	4648      	mov	r0, r9
 800072e:	00c9      	lsls	r1, r1, #3
 8000730:	f002 fdea 	bl	8003308 <Clear_Status_Bit>
 8000734:	e7ce      	b.n	80006d4 <Read_and_Interpret_Misc_From_Flash+0x7c>
		Clear_Status_Bit(statuses_ptr, Start_Required_Before_Sync_Mode);
 8000736:	2180      	movs	r1, #128	@ 0x80
 8000738:	4648      	mov	r0, r9
 800073a:	f002 fde5 	bl	8003308 <Clear_Status_Bit>
 800073e:	e7bd      	b.n	80006bc <Read_and_Interpret_Misc_From_Flash+0x64>

08000740 <Update_Converted_Preset_Array_with_User_or_Factory_Presets>:
																	uint8_t size_of_factory_and_user_arrays){
 8000740:	b5f0      	push	{r4, r5, r6, r7, lr}
 8000742:	469c      	mov	ip, r3
 8000744:	ab05      	add	r3, sp, #20
 8000746:	781b      	ldrb	r3, [r3, #0]
	for(uint8_t i = 0; i < size_of_factory_and_user_arrays; i++){
 8000748:	2b00      	cmp	r3, #0
 800074a:	d022      	beq.n	8000792 <Update_Converted_Preset_Array_with_User_or_Factory_Presets+0x52>
 800074c:	2500      	movs	r5, #0
 800074e:	2400      	movs	r4, #0
 8000750:	e018      	b.n	8000784 <Update_Converted_Preset_Array_with_User_or_Factory_Presets+0x44>
		else if(*(user_presets_used_array_ptr + i) == (enum Validate)NO){
 8000752:	7836      	ldrb	r6, [r6, #0]
 8000754:	2e00      	cmp	r6, #0
 8000756:	d10f      	bne.n	8000778 <Update_Converted_Preset_Array_with_User_or_Factory_Presets+0x38>
			Convert_All_Preset_Values((struct Preset *) *(factory_presets_array_ptr + i), (presets_converted_array_ptr + i));
 8000758:	5956      	ldr	r6, [r2, r5]
	preset_converted_ptr->waveshape = preset_ptr->waveshape; //7-bit copy
 800075a:	7837      	ldrb	r7, [r6, #0]
 800075c:	b2ff      	uxtb	r7, r7
 800075e:	7007      	strb	r7, [r0, #0]
	preset_converted_ptr->speed = (preset_ptr->speed) << 3; //convert to 10-bit
 8000760:	7877      	ldrb	r7, [r6, #1]
 8000762:	00ff      	lsls	r7, r7, #3
 8000764:	8047      	strh	r7, [r0, #2]
	preset_converted_ptr->depth = preset_ptr->depth; //7-bit copy
 8000766:	78b7      	ldrb	r7, [r6, #2]
 8000768:	b2ff      	uxtb	r7, r7
 800076a:	7107      	strb	r7, [r0, #4]
	preset_converted_ptr->symmetry = (preset_ptr->symmetry) << 1; //convert to 8-bit
 800076c:	78f7      	ldrb	r7, [r6, #3]
 800076e:	007f      	lsls	r7, r7, #1
 8000770:	80c7      	strh	r7, [r0, #6]
	preset_converted_ptr->phase = (preset_ptr->phase) << 2; //convert to 9-bit
 8000772:	7936      	ldrb	r6, [r6, #4]
 8000774:	00b6      	lsls	r6, r6, #2
 8000776:	8106      	strh	r6, [r0, #8]
	for(uint8_t i = 0; i < size_of_factory_and_user_arrays; i++){
 8000778:	3401      	adds	r4, #1
 800077a:	b2e6      	uxtb	r6, r4
 800077c:	300a      	adds	r0, #10
 800077e:	3504      	adds	r5, #4
 8000780:	429e      	cmp	r6, r3
 8000782:	d206      	bcs.n	8000792 <Update_Converted_Preset_Array_with_User_or_Factory_Presets+0x52>
		if(*(user_presets_used_array_ptr + i) == (enum Validate)YES){
 8000784:	190e      	adds	r6, r1, r4
 8000786:	7837      	ldrb	r7, [r6, #0]
 8000788:	2f01      	cmp	r7, #1
 800078a:	d1e2      	bne.n	8000752 <Update_Converted_Preset_Array_with_User_or_Factory_Presets+0x12>
			Convert_All_Preset_Values(*(user_presets_array_ptr + i), (presets_converted_array_ptr + i));
 800078c:	4666      	mov	r6, ip
 800078e:	5976      	ldr	r6, [r6, r5]
	preset_converted_ptr->waveshape = preset_ptr->waveshape; //7-bit copy
 8000790:	e7e3      	b.n	800075a <Update_Converted_Preset_Array_with_User_or_Factory_Presets+0x1a>
}
 8000792:	2001      	movs	r0, #1
 8000794:	bdf0      	pop	{r4, r5, r6, r7, pc}
 8000796:	46c0      	nop			@ (mov r8, r8)

08000798 <Read_and_Interpret_User_Presets_From_Flash>:
		if(*(flash + i) > 0x7F){ //127
 8000798:	4a48      	ldr	r2, [pc, #288]	@ (80008bc <Read_and_Interpret_User_Presets_From_Flash+0x124>)
			*(preset + i) = 0x7F;
 800079a:	217f      	movs	r1, #127	@ 0x7f
 800079c:	7810      	ldrb	r0, [r2, #0]
 800079e:	4b48      	ldr	r3, [pc, #288]	@ (80008c0 <Read_and_Interpret_User_Presets_From_Flash+0x128>)
 80007a0:	287e      	cmp	r0, #126	@ 0x7e
 80007a2:	d800      	bhi.n	80007a6 <Read_and_Interpret_User_Presets_From_Flash+0xe>
 80007a4:	1c01      	adds	r1, r0, #0
		if(*(flash + i) > 0x7F){ //127
 80007a6:	4a47      	ldr	r2, [pc, #284]	@ (80008c4 <Read_and_Interpret_User_Presets_From_Flash+0x12c>)
			*(preset + i) = 0x7F;
 80007a8:	7019      	strb	r1, [r3, #0]
 80007aa:	7810      	ldrb	r0, [r2, #0]
 80007ac:	217f      	movs	r1, #127	@ 0x7f
 80007ae:	287e      	cmp	r0, #126	@ 0x7e
 80007b0:	d800      	bhi.n	80007b4 <Read_and_Interpret_User_Presets_From_Flash+0x1c>
 80007b2:	1c01      	adds	r1, r0, #0
		if(*(flash + i) > 0x7F){ //127
 80007b4:	4a44      	ldr	r2, [pc, #272]	@ (80008c8 <Read_and_Interpret_User_Presets_From_Flash+0x130>)
			*(preset + i) = 0x7F;
 80007b6:	7059      	strb	r1, [r3, #1]
 80007b8:	7810      	ldrb	r0, [r2, #0]
 80007ba:	217f      	movs	r1, #127	@ 0x7f
 80007bc:	287e      	cmp	r0, #126	@ 0x7e
 80007be:	d800      	bhi.n	80007c2 <Read_and_Interpret_User_Presets_From_Flash+0x2a>
 80007c0:	1c01      	adds	r1, r0, #0
		if(*(flash + i) > 0x7F){ //127
 80007c2:	4a42      	ldr	r2, [pc, #264]	@ (80008cc <Read_and_Interpret_User_Presets_From_Flash+0x134>)
			*(preset + i) = 0x7F;
 80007c4:	7099      	strb	r1, [r3, #2]
 80007c6:	7810      	ldrb	r0, [r2, #0]
 80007c8:	217f      	movs	r1, #127	@ 0x7f
 80007ca:	287e      	cmp	r0, #126	@ 0x7e
 80007cc:	d800      	bhi.n	80007d0 <Read_and_Interpret_User_Presets_From_Flash+0x38>
 80007ce:	1c01      	adds	r1, r0, #0
		if(*(flash + i) > 0x7F){ //127
 80007d0:	4a3f      	ldr	r2, [pc, #252]	@ (80008d0 <Read_and_Interpret_User_Presets_From_Flash+0x138>)
			*(preset + i) = 0x7F;
 80007d2:	70d9      	strb	r1, [r3, #3]
 80007d4:	7810      	ldrb	r0, [r2, #0]
 80007d6:	217f      	movs	r1, #127	@ 0x7f
 80007d8:	287e      	cmp	r0, #126	@ 0x7e
 80007da:	d800      	bhi.n	80007de <Read_and_Interpret_User_Presets_From_Flash+0x46>
 80007dc:	1c01      	adds	r1, r0, #0
		if(*(flash + i) > 0x7F){ //127
 80007de:	4a3d      	ldr	r2, [pc, #244]	@ (80008d4 <Read_and_Interpret_User_Presets_From_Flash+0x13c>)
			*(preset + i) = 0x7F;
 80007e0:	7119      	strb	r1, [r3, #4]
 80007e2:	7810      	ldrb	r0, [r2, #0]
 80007e4:	217f      	movs	r1, #127	@ 0x7f
 80007e6:	4b3c      	ldr	r3, [pc, #240]	@ (80008d8 <Read_and_Interpret_User_Presets_From_Flash+0x140>)
 80007e8:	287e      	cmp	r0, #126	@ 0x7e
 80007ea:	d800      	bhi.n	80007ee <Read_and_Interpret_User_Presets_From_Flash+0x56>
 80007ec:	1c01      	adds	r1, r0, #0
		if(*(flash + i) > 0x7F){ //127
 80007ee:	4a3b      	ldr	r2, [pc, #236]	@ (80008dc <Read_and_Interpret_User_Presets_From_Flash+0x144>)
			*(preset + i) = 0x7F;
 80007f0:	7019      	strb	r1, [r3, #0]
 80007f2:	7810      	ldrb	r0, [r2, #0]
 80007f4:	217f      	movs	r1, #127	@ 0x7f
 80007f6:	287e      	cmp	r0, #126	@ 0x7e
 80007f8:	d800      	bhi.n	80007fc <Read_and_Interpret_User_Presets_From_Flash+0x64>
 80007fa:	1c01      	adds	r1, r0, #0
		if(*(flash + i) > 0x7F){ //127
 80007fc:	4a38      	ldr	r2, [pc, #224]	@ (80008e0 <Read_and_Interpret_User_Presets_From_Flash+0x148>)
			*(preset + i) = 0x7F;
 80007fe:	7059      	strb	r1, [r3, #1]
 8000800:	7810      	ldrb	r0, [r2, #0]
 8000802:	217f      	movs	r1, #127	@ 0x7f
 8000804:	287e      	cmp	r0, #126	@ 0x7e
 8000806:	d800      	bhi.n	800080a <Read_and_Interpret_User_Presets_From_Flash+0x72>
 8000808:	1c01      	adds	r1, r0, #0
		if(*(flash + i) > 0x7F){ //127
 800080a:	4a36      	ldr	r2, [pc, #216]	@ (80008e4 <Read_and_Interpret_User_Presets_From_Flash+0x14c>)
			*(preset + i) = 0x7F;
 800080c:	7099      	strb	r1, [r3, #2]
 800080e:	7810      	ldrb	r0, [r2, #0]
 8000810:	217f      	movs	r1, #127	@ 0x7f
 8000812:	287e      	cmp	r0, #126	@ 0x7e
 8000814:	d800      	bhi.n	8000818 <Read_and_Interpret_User_Presets_From_Flash+0x80>
 8000816:	1c01      	adds	r1, r0, #0
		if(*(flash + i) > 0x7F){ //127
 8000818:	4a33      	ldr	r2, [pc, #204]	@ (80008e8 <Read_and_Interpret_User_Presets_From_Flash+0x150>)
			*(preset + i) = 0x7F;
 800081a:	70d9      	strb	r1, [r3, #3]
 800081c:	7810      	ldrb	r0, [r2, #0]
 800081e:	217f      	movs	r1, #127	@ 0x7f
 8000820:	287e      	cmp	r0, #126	@ 0x7e
 8000822:	d800      	bhi.n	8000826 <Read_and_Interpret_User_Presets_From_Flash+0x8e>
 8000824:	1c01      	adds	r1, r0, #0
		if(*(flash + i) > 0x7F){ //127
 8000826:	4a31      	ldr	r2, [pc, #196]	@ (80008ec <Read_and_Interpret_User_Presets_From_Flash+0x154>)
			*(preset + i) = 0x7F;
 8000828:	7119      	strb	r1, [r3, #4]
 800082a:	7810      	ldrb	r0, [r2, #0]
 800082c:	217f      	movs	r1, #127	@ 0x7f
 800082e:	4b30      	ldr	r3, [pc, #192]	@ (80008f0 <Read_and_Interpret_User_Presets_From_Flash+0x158>)
 8000830:	287e      	cmp	r0, #126	@ 0x7e
 8000832:	d800      	bhi.n	8000836 <Read_and_Interpret_User_Presets_From_Flash+0x9e>
 8000834:	1c01      	adds	r1, r0, #0
		if(*(flash + i) > 0x7F){ //127
 8000836:	4a2f      	ldr	r2, [pc, #188]	@ (80008f4 <Read_and_Interpret_User_Presets_From_Flash+0x15c>)
			*(preset + i) = 0x7F;
 8000838:	7019      	strb	r1, [r3, #0]
 800083a:	7810      	ldrb	r0, [r2, #0]
 800083c:	217f      	movs	r1, #127	@ 0x7f
 800083e:	287e      	cmp	r0, #126	@ 0x7e
 8000840:	d800      	bhi.n	8000844 <Read_and_Interpret_User_Presets_From_Flash+0xac>
 8000842:	1c01      	adds	r1, r0, #0
		if(*(flash + i) > 0x7F){ //127
 8000844:	4a2c      	ldr	r2, [pc, #176]	@ (80008f8 <Read_and_Interpret_User_Presets_From_Flash+0x160>)
			*(preset + i) = 0x7F;
 8000846:	7059      	strb	r1, [r3, #1]
 8000848:	7810      	ldrb	r0, [r2, #0]
 800084a:	217f      	movs	r1, #127	@ 0x7f
 800084c:	287e      	cmp	r0, #126	@ 0x7e
 800084e:	d800      	bhi.n	8000852 <Read_and_Interpret_User_Presets_From_Flash+0xba>
 8000850:	1c01      	adds	r1, r0, #0
		if(*(flash + i) > 0x7F){ //127
 8000852:	4a2a      	ldr	r2, [pc, #168]	@ (80008fc <Read_and_Interpret_User_Presets_From_Flash+0x164>)
			*(preset + i) = 0x7F;
 8000854:	7099      	strb	r1, [r3, #2]
 8000856:	7810      	ldrb	r0, [r2, #0]
 8000858:	217f      	movs	r1, #127	@ 0x7f
 800085a:	287e      	cmp	r0, #126	@ 0x7e
 800085c:	d800      	bhi.n	8000860 <Read_and_Interpret_User_Presets_From_Flash+0xc8>
 800085e:	1c01      	adds	r1, r0, #0
		if(*(flash + i) > 0x7F){ //127
 8000860:	4a27      	ldr	r2, [pc, #156]	@ (8000900 <Read_and_Interpret_User_Presets_From_Flash+0x168>)
			*(preset + i) = 0x7F;
 8000862:	70d9      	strb	r1, [r3, #3]
 8000864:	7810      	ldrb	r0, [r2, #0]
 8000866:	217f      	movs	r1, #127	@ 0x7f
 8000868:	287e      	cmp	r0, #126	@ 0x7e
 800086a:	d800      	bhi.n	800086e <Read_and_Interpret_User_Presets_From_Flash+0xd6>
 800086c:	1c01      	adds	r1, r0, #0
		if(*(flash + i) > 0x7F){ //127
 800086e:	4a25      	ldr	r2, [pc, #148]	@ (8000904 <Read_and_Interpret_User_Presets_From_Flash+0x16c>)
			*(preset + i) = 0x7F;
 8000870:	7119      	strb	r1, [r3, #4]
 8000872:	7810      	ldrb	r0, [r2, #0]
 8000874:	217f      	movs	r1, #127	@ 0x7f
 8000876:	4b24      	ldr	r3, [pc, #144]	@ (8000908 <Read_and_Interpret_User_Presets_From_Flash+0x170>)
 8000878:	287e      	cmp	r0, #126	@ 0x7e
 800087a:	d800      	bhi.n	800087e <Read_and_Interpret_User_Presets_From_Flash+0xe6>
 800087c:	1c01      	adds	r1, r0, #0
		if(*(flash + i) > 0x7F){ //127
 800087e:	4a23      	ldr	r2, [pc, #140]	@ (800090c <Read_and_Interpret_User_Presets_From_Flash+0x174>)
			*(preset + i) = 0x7F;
 8000880:	7019      	strb	r1, [r3, #0]
 8000882:	7810      	ldrb	r0, [r2, #0]
 8000884:	217f      	movs	r1, #127	@ 0x7f
 8000886:	287e      	cmp	r0, #126	@ 0x7e
 8000888:	d800      	bhi.n	800088c <Read_and_Interpret_User_Presets_From_Flash+0xf4>
 800088a:	1c01      	adds	r1, r0, #0
		if(*(flash + i) > 0x7F){ //127
 800088c:	4a20      	ldr	r2, [pc, #128]	@ (8000910 <Read_and_Interpret_User_Presets_From_Flash+0x178>)
			*(preset + i) = 0x7F;
 800088e:	7059      	strb	r1, [r3, #1]
 8000890:	7810      	ldrb	r0, [r2, #0]
 8000892:	217f      	movs	r1, #127	@ 0x7f
 8000894:	287e      	cmp	r0, #126	@ 0x7e
 8000896:	d800      	bhi.n	800089a <Read_and_Interpret_User_Presets_From_Flash+0x102>
 8000898:	1c01      	adds	r1, r0, #0
		if(*(flash + i) > 0x7F){ //127
 800089a:	4a1e      	ldr	r2, [pc, #120]	@ (8000914 <Read_and_Interpret_User_Presets_From_Flash+0x17c>)
			*(preset + i) = 0x7F;
 800089c:	7099      	strb	r1, [r3, #2]
 800089e:	7810      	ldrb	r0, [r2, #0]
 80008a0:	217f      	movs	r1, #127	@ 0x7f
 80008a2:	287e      	cmp	r0, #126	@ 0x7e
 80008a4:	d800      	bhi.n	80008a8 <Read_and_Interpret_User_Presets_From_Flash+0x110>
 80008a6:	1c01      	adds	r1, r0, #0
		if(*(flash + i) > 0x7F){ //127
 80008a8:	4a1b      	ldr	r2, [pc, #108]	@ (8000918 <Read_and_Interpret_User_Presets_From_Flash+0x180>)
			*(preset + i) = 0x7F;
 80008aa:	70d9      	strb	r1, [r3, #3]
 80008ac:	7810      	ldrb	r0, [r2, #0]
 80008ae:	217f      	movs	r1, #127	@ 0x7f
 80008b0:	287e      	cmp	r0, #126	@ 0x7e
 80008b2:	d800      	bhi.n	80008b6 <Read_and_Interpret_User_Presets_From_Flash+0x11e>
 80008b4:	1c01      	adds	r1, r0, #0
}
 80008b6:	2001      	movs	r0, #1
			*(preset + i) = 0x7F;
 80008b8:	7119      	strb	r1, [r3, #4]
}
 80008ba:	4770      	bx	lr
 80008bc:	0800f800 	.word	0x0800f800
 80008c0:	20000018 	.word	0x20000018
 80008c4:	0800f801 	.word	0x0800f801
 80008c8:	0800f802 	.word	0x0800f802
 80008cc:	0800f803 	.word	0x0800f803
 80008d0:	0800f804 	.word	0x0800f804
 80008d4:	0800f808 	.word	0x0800f808
 80008d8:	20000010 	.word	0x20000010
 80008dc:	0800f809 	.word	0x0800f809
 80008e0:	0800f80a 	.word	0x0800f80a
 80008e4:	0800f80b 	.word	0x0800f80b
 80008e8:	0800f80c 	.word	0x0800f80c
 80008ec:	0800f810 	.word	0x0800f810
 80008f0:	20000008 	.word	0x20000008
 80008f4:	0800f811 	.word	0x0800f811
 80008f8:	0800f812 	.word	0x0800f812
 80008fc:	0800f813 	.word	0x0800f813
 8000900:	0800f814 	.word	0x0800f814
 8000904:	0800f818 	.word	0x0800f818
 8000908:	20000000 	.word	0x20000000
 800090c:	0800f819 	.word	0x0800f819
 8000910:	0800f81a 	.word	0x0800f81a
 8000914:	0800f81b 	.word	0x0800f81b
 8000918:	0800f81c 	.word	0x0800f81c

0800091c <Set_Waveshape_to_CC_Mode_and_Value>:
	return 1;
}

uint8_t Set_Waveshape_to_CC_Mode_and_Value(uint8_t *data){

	waveshape_fsm.prev_state = waveshape_fsm.current_state;
 800091c:	4b05      	ldr	r3, [pc, #20]	@ (8000934 <Set_Waveshape_to_CC_Mode_and_Value+0x18>)
 800091e:	781a      	ldrb	r2, [r3, #0]
 8000920:	b2d2      	uxtb	r2, r2
 8000922:	705a      	strb	r2, [r3, #1]
	waveshape_fsm.current_state = CC_MODE;
 8000924:	2202      	movs	r2, #2
 8000926:	701a      	strb	r2, [r3, #0]

	CC_array[WAVESHAPE_ARR] = *data;
 8000928:	7802      	ldrb	r2, [r0, #0]
 800092a:	4b03      	ldr	r3, [pc, #12]	@ (8000938 <Set_Waveshape_to_CC_Mode_and_Value+0x1c>)

	return 1;
}
 800092c:	2001      	movs	r0, #1
	CC_array[WAVESHAPE_ARR] = *data;
 800092e:	701a      	strb	r2, [r3, #0]
}
 8000930:	4770      	bx	lr
 8000932:	46c0      	nop			@ (mov r8, r8)
 8000934:	20000434 	.word	0x20000434
 8000938:	2000046c 	.word	0x2000046c

0800093c <Set_Speed_to_CC_Mode_and_Value>:

uint8_t Set_Speed_to_CC_Mode_and_Value(uint8_t *data){

	speed_fsm.prev_state.speed_exclusive_state = speed_fsm.current_state.speed_exclusive_state;
 800093c:	4b05      	ldr	r3, [pc, #20]	@ (8000954 <Set_Speed_to_CC_Mode_and_Value+0x18>)
 800093e:	781a      	ldrb	r2, [r3, #0]
 8000940:	b2d2      	uxtb	r2, r2
 8000942:	705a      	strb	r2, [r3, #1]
	speed_fsm.current_state.speed_exclusive_state = CC_MODE;
 8000944:	2202      	movs	r2, #2
 8000946:	701a      	strb	r2, [r3, #0]

	CC_array[SPEED_ARR] = *data;
 8000948:	7802      	ldrb	r2, [r0, #0]
 800094a:	4b03      	ldr	r3, [pc, #12]	@ (8000958 <Set_Speed_to_CC_Mode_and_Value+0x1c>)

	return 1;
}
 800094c:	2001      	movs	r0, #1
	CC_array[SPEED_ARR] = *data;
 800094e:	705a      	strb	r2, [r3, #1]
}
 8000950:	4770      	bx	lr
 8000952:	46c0      	nop			@ (mov r8, r8)
 8000954:	2000043c 	.word	0x2000043c
 8000958:	2000046c 	.word	0x2000046c

0800095c <Set_Depth_to_CC_Mode_and_Value>:

uint8_t Set_Depth_to_CC_Mode_and_Value(uint8_t *data){

	depth_fsm.prev_state = depth_fsm.current_state;
 800095c:	4b05      	ldr	r3, [pc, #20]	@ (8000974 <Set_Depth_to_CC_Mode_and_Value+0x18>)
 800095e:	781a      	ldrb	r2, [r3, #0]
 8000960:	b2d2      	uxtb	r2, r2
 8000962:	705a      	strb	r2, [r3, #1]
	depth_fsm.current_state = CC_MODE;
 8000964:	2202      	movs	r2, #2
 8000966:	701a      	strb	r2, [r3, #0]

	CC_array[DEPTH_ARR] = *data;
 8000968:	7802      	ldrb	r2, [r0, #0]
 800096a:	4b03      	ldr	r3, [pc, #12]	@ (8000978 <Set_Depth_to_CC_Mode_and_Value+0x1c>)

	return 1;
}
 800096c:	2001      	movs	r0, #1
	CC_array[DEPTH_ARR] = *data;
 800096e:	709a      	strb	r2, [r3, #2]
}
 8000970:	4770      	bx	lr
 8000972:	46c0      	nop			@ (mov r8, r8)
 8000974:	20000438 	.word	0x20000438
 8000978:	2000046c 	.word	0x2000046c

0800097c <Set_Symmetry_to_CC_Mode_and_Value>:

uint8_t Set_Symmetry_to_CC_Mode_and_Value(uint8_t *data){

	symmetry_fsm.prev_state = symmetry_fsm.current_state;
 800097c:	4b05      	ldr	r3, [pc, #20]	@ (8000994 <Set_Symmetry_to_CC_Mode_and_Value+0x18>)
 800097e:	781a      	ldrb	r2, [r3, #0]
 8000980:	b2d2      	uxtb	r2, r2
 8000982:	705a      	strb	r2, [r3, #1]
	symmetry_fsm.current_state = CC_MODE;
 8000984:	2202      	movs	r2, #2
 8000986:	701a      	strb	r2, [r3, #0]

	CC_array[SYMMETRY_ARR] = *data;
 8000988:	7802      	ldrb	r2, [r0, #0]
 800098a:	4b03      	ldr	r3, [pc, #12]	@ (8000998 <Set_Symmetry_to_CC_Mode_and_Value+0x1c>)

	return 1;
}
 800098c:	2001      	movs	r0, #1
	CC_array[SYMMETRY_ARR] = *data;
 800098e:	70da      	strb	r2, [r3, #3]
}
 8000990:	4770      	bx	lr
 8000992:	46c0      	nop			@ (mov r8, r8)
 8000994:	20000430 	.word	0x20000430
 8000998:	2000046c 	.word	0x2000046c

0800099c <Set_Phase_to_CC_Mode_and_Value>:

uint8_t Set_Phase_to_CC_Mode_and_Value(uint8_t *data){

	phase_fsm.prev_state = phase_fsm.current_state;
 800099c:	4b05      	ldr	r3, [pc, #20]	@ (80009b4 <Set_Phase_to_CC_Mode_and_Value+0x18>)
 800099e:	781a      	ldrb	r2, [r3, #0]
 80009a0:	b2d2      	uxtb	r2, r2
 80009a2:	705a      	strb	r2, [r3, #1]
	phase_fsm.current_state = CC_MODE;
 80009a4:	2202      	movs	r2, #2
 80009a6:	701a      	strb	r2, [r3, #0]

	CC_array[PHASE_ARR] = *data;
 80009a8:	7802      	ldrb	r2, [r0, #0]
 80009aa:	4b03      	ldr	r3, [pc, #12]	@ (80009b8 <Set_Phase_to_CC_Mode_and_Value+0x1c>)

	return 1;
}
 80009ac:	2001      	movs	r0, #1
	CC_array[PHASE_ARR] = *data;
 80009ae:	711a      	strb	r2, [r3, #4]
}
 80009b0:	4770      	bx	lr
 80009b2:	46c0      	nop			@ (mov r8, r8)
 80009b4:	2000042c 	.word	0x2000042c
 80009b8:	2000046c 	.word	0x2000046c

080009bc <Set_All_Pots_to_PC_Mode>:

uint8_t Set_All_Pots_to_PC_Mode(void){

	waveshape_fsm.prev_state = waveshape_fsm.current_state;
 80009bc:	4a0d      	ldr	r2, [pc, #52]	@ (80009f4 <Set_All_Pots_to_PC_Mode+0x38>)

	phase_fsm.prev_state = phase_fsm.current_state;
	phase_fsm.current_state = PC_MODE;

	return 1;
}
 80009be:	2001      	movs	r0, #1
	waveshape_fsm.prev_state = waveshape_fsm.current_state;
 80009c0:	7813      	ldrb	r3, [r2, #0]
 80009c2:	b2db      	uxtb	r3, r3
 80009c4:	7053      	strb	r3, [r2, #1]
	waveshape_fsm.current_state = PC_MODE;
 80009c6:	2303      	movs	r3, #3
 80009c8:	7013      	strb	r3, [r2, #0]
	speed_fsm.prev_state.speed_exclusive_state = speed_fsm.current_state.speed_exclusive_state;
 80009ca:	4a0b      	ldr	r2, [pc, #44]	@ (80009f8 <Set_All_Pots_to_PC_Mode+0x3c>)
 80009cc:	7811      	ldrb	r1, [r2, #0]
 80009ce:	b2c9      	uxtb	r1, r1
 80009d0:	7051      	strb	r1, [r2, #1]
	speed_fsm.current_state.shared_state = PC_MODE;
 80009d2:	7013      	strb	r3, [r2, #0]
	depth_fsm.prev_state = depth_fsm.current_state;
 80009d4:	4a09      	ldr	r2, [pc, #36]	@ (80009fc <Set_All_Pots_to_PC_Mode+0x40>)
 80009d6:	7811      	ldrb	r1, [r2, #0]
 80009d8:	b2c9      	uxtb	r1, r1
 80009da:	7051      	strb	r1, [r2, #1]
	depth_fsm.current_state = PC_MODE;
 80009dc:	7013      	strb	r3, [r2, #0]
	symmetry_fsm.prev_state = symmetry_fsm.current_state;
 80009de:	4a08      	ldr	r2, [pc, #32]	@ (8000a00 <Set_All_Pots_to_PC_Mode+0x44>)
 80009e0:	7811      	ldrb	r1, [r2, #0]
 80009e2:	b2c9      	uxtb	r1, r1
 80009e4:	7051      	strb	r1, [r2, #1]
	symmetry_fsm.current_state = PC_MODE;
 80009e6:	7013      	strb	r3, [r2, #0]
	phase_fsm.prev_state = phase_fsm.current_state;
 80009e8:	4a06      	ldr	r2, [pc, #24]	@ (8000a04 <Set_All_Pots_to_PC_Mode+0x48>)
 80009ea:	7811      	ldrb	r1, [r2, #0]
 80009ec:	b2c9      	uxtb	r1, r1
 80009ee:	7051      	strb	r1, [r2, #1]
	phase_fsm.current_state = PC_MODE;
 80009f0:	7013      	strb	r3, [r2, #0]
}
 80009f2:	4770      	bx	lr
 80009f4:	20000434 	.word	0x20000434
 80009f8:	2000043c 	.word	0x2000043c
 80009fc:	20000438 	.word	0x20000438
 8000a00:	20000430 	.word	0x20000430
 8000a04:	2000042c 	.word	0x2000042c

08000a08 <Is_Status_Byte>:
volatile struct MIDI_Data MIDI_data = {.MIDI_data_buffer = 0};

//FUNCTION DEFINITIONS
enum Validate Is_Status_Byte(volatile uint8_t *data){

	uint8_t MSB = *data;
 8000a08:	7800      	ldrb	r0, [r0, #0]
	}
	else{ //data byte

		return (enum Validate)NO;
	}
}
 8000a0a:	09c0      	lsrs	r0, r0, #7
 8000a0c:	4770      	bx	lr
 8000a0e:	46c0      	nop			@ (mov r8, r8)

08000a10 <Is_Data_Byte>:
	}
	else{ //data byte

		return (enum Validate)YES;
	}
}
 8000a10:	2301      	movs	r3, #1
	uint8_t MSB = *data;
 8000a12:	7800      	ldrb	r0, [r0, #0]
	MSB >>= 7;
 8000a14:	09c0      	lsrs	r0, r0, #7
}
 8000a16:	4058      	eors	r0, r3
 8000a18:	4770      	bx	lr
 8000a1a:	46c0      	nop			@ (mov r8, r8)

08000a1c <Is_PC_Status_Byte>:

	uint8_t source;
	uint8_t temp_data;

	source = (uint8_t)CHANNEL_VOICE_PROGRAM_CHANGE >> 4;
	temp_data = *data >> 4;
 8000a1c:	7800      	ldrb	r0, [r0, #0]

	if(temp_data == source){
 8000a1e:	0900      	lsrs	r0, r0, #4
 8000a20:	380c      	subs	r0, #12
 8000a22:	4243      	negs	r3, r0
 8000a24:	4158      	adcs	r0, r3
	}
	else{

		return (enum Validate)NO;
	}
}
 8000a26:	b2c0      	uxtb	r0, r0
 8000a28:	4770      	bx	lr
 8000a2a:	46c0      	nop			@ (mov r8, r8)

08000a2c <Is_CC_Status_Byte>:

	uint8_t source;
	uint8_t temp_data;

	source = (uint8_t)CHANNEL_VOICE_CONTROL_CHANGE >> 4;
	temp_data = *data >> 4;
 8000a2c:	7800      	ldrb	r0, [r0, #0]

	if(temp_data == source){
 8000a2e:	0900      	lsrs	r0, r0, #4
 8000a30:	380b      	subs	r0, #11
 8000a32:	4243      	negs	r3, r0
 8000a34:	4158      	adcs	r0, r3
	}
	else{

		return (enum Validate)NO;
	}
}
 8000a36:	b2c0      	uxtb	r0, r0
 8000a38:	4770      	bx	lr
 8000a3a:	46c0      	nop			@ (mov r8, r8)

08000a3c <Is_Utilised_Channel_Mode_CC_First_Data_Byte>:

enum Validate Is_Utilised_Channel_Mode_CC_First_Data_Byte(volatile uint8_t *first_data_byte){

	if(*first_data_byte >= CHANNEL_MODE_CC_THRESHOLD){
 8000a3c:	7803      	ldrb	r3, [r0, #0]
 8000a3e:	2b77      	cmp	r3, #119	@ 0x77
 8000a40:	d910      	bls.n	8000a64 <Is_Utilised_Channel_Mode_CC_First_Data_Byte+0x28>

		if(*first_data_byte == RESET_ALL_CONTROLLERS){ //put all pots into CC mode and set to 50%
 8000a42:	7803      	ldrb	r3, [r0, #0]
 8000a44:	2b79      	cmp	r3, #121	@ 0x79
 8000a46:	d00b      	beq.n	8000a60 <Is_Utilised_Channel_Mode_CC_First_Data_Byte+0x24>

			return (enum Validate)YES;
		}
		else if(*first_data_byte == LOCAL_CONTROL){
 8000a48:	7803      	ldrb	r3, [r0, #0]
 8000a4a:	2b7a      	cmp	r3, #122	@ 0x7a
 8000a4c:	d008      	beq.n	8000a60 <Is_Utilised_Channel_Mode_CC_First_Data_Byte+0x24>

			return (enum Validate)YES;
		}
		else if(*first_data_byte == OMNI_MODE_ON){
 8000a4e:	7803      	ldrb	r3, [r0, #0]
 8000a50:	2b7d      	cmp	r3, #125	@ 0x7d
 8000a52:	d005      	beq.n	8000a60 <Is_Utilised_Channel_Mode_CC_First_Data_Byte+0x24>

			return (enum Validate)YES;
		}
		else if(*first_data_byte == OMNI_MODE_OFF){
 8000a54:	7800      	ldrb	r0, [r0, #0]
 8000a56:	387c      	subs	r0, #124	@ 0x7c
 8000a58:	4243      	negs	r3, r0
 8000a5a:	4158      	adcs	r0, r3
 8000a5c:	b2c0      	uxtb	r0, r0
	}
	else{

		return (enum Validate)NO;
	}
}
 8000a5e:	4770      	bx	lr
			return (enum Validate)YES;
 8000a60:	2001      	movs	r0, #1
 8000a62:	e7fc      	b.n	8000a5e <Is_Utilised_Channel_Mode_CC_First_Data_Byte+0x22>
			return (enum Validate)NO;
 8000a64:	2000      	movs	r0, #0
 8000a66:	e7fa      	b.n	8000a5e <Is_Utilised_Channel_Mode_CC_First_Data_Byte+0x22>

08000a68 <Is_Utilised_CC_First_Data_Byte>:

enum Validate Is_Utilised_CC_First_Data_Byte(volatile uint8_t *first_data_byte){

	if(*first_data_byte >= CHANNEL_MODE_CC_THRESHOLD){
 8000a68:	7803      	ldrb	r3, [r0, #0]
 8000a6a:	2b77      	cmp	r3, #119	@ 0x77
 8000a6c:	d813      	bhi.n	8000a96 <Is_Utilised_CC_First_Data_Byte+0x2e>

		return (enum Validate)NO;
	}
	else{

		if(*first_data_byte == WAVESHAPE_CC){
 8000a6e:	7803      	ldrb	r3, [r0, #0]
 8000a70:	2b14      	cmp	r3, #20
 8000a72:	d00e      	beq.n	8000a92 <Is_Utilised_CC_First_Data_Byte+0x2a>

			return (enum Validate)YES;
		}
		else if(*first_data_byte == SPEED_CC){
 8000a74:	7803      	ldrb	r3, [r0, #0]
 8000a76:	2b15      	cmp	r3, #21
 8000a78:	d00b      	beq.n	8000a92 <Is_Utilised_CC_First_Data_Byte+0x2a>

			return (enum Validate)YES;
		}
		else if(*first_data_byte == DEPTH_CC){
 8000a7a:	7803      	ldrb	r3, [r0, #0]
 8000a7c:	2b16      	cmp	r3, #22
 8000a7e:	d008      	beq.n	8000a92 <Is_Utilised_CC_First_Data_Byte+0x2a>

			return (enum Validate)YES;
		}
		else if(*first_data_byte == SYMMETRY_CC){
 8000a80:	7803      	ldrb	r3, [r0, #0]
 8000a82:	2b17      	cmp	r3, #23
 8000a84:	d005      	beq.n	8000a92 <Is_Utilised_CC_First_Data_Byte+0x2a>

			return (enum Validate)YES;
		}
		else if(*first_data_byte == PHASE_CC){
 8000a86:	7800      	ldrb	r0, [r0, #0]
 8000a88:	3818      	subs	r0, #24
 8000a8a:	4243      	negs	r3, r0
 8000a8c:	4158      	adcs	r0, r3
 8000a8e:	b2c0      	uxtb	r0, r0
		else{

			return (enum Validate)NO;
		}
	}
}
 8000a90:	4770      	bx	lr
			return (enum Validate)YES;
 8000a92:	2001      	movs	r0, #1
 8000a94:	e7fc      	b.n	8000a90 <Is_Utilised_CC_First_Data_Byte+0x28>
		return (enum Validate)NO;
 8000a96:	2000      	movs	r0, #0
 8000a98:	e7fa      	b.n	8000a90 <Is_Utilised_CC_First_Data_Byte+0x28>
 8000a9a:	46c0      	nop			@ (mov r8, r8)

08000a9c <Channel_Mode_CC_Second_Data_Byte_Is_Valid_Given_Utilised_First_Data_Byte>:

enum Validate Channel_Mode_CC_Second_Data_Byte_Is_Valid_Given_Utilised_First_Data_Byte(volatile uint8_t *first_data_byte, volatile uint8_t *second_data_byte){

	if(*first_data_byte == RESET_ALL_CONTROLLERS){
 8000a9c:	7803      	ldrb	r3, [r0, #0]
 8000a9e:	2b79      	cmp	r3, #121	@ 0x79
 8000aa0:	d009      	beq.n	8000ab6 <Channel_Mode_CC_Second_Data_Byte_Is_Valid_Given_Utilised_First_Data_Byte+0x1a>
		else{

			return (enum Validate)NO;
		}
	}
	else if(*first_data_byte == LOCAL_CONTROL){
 8000aa2:	7803      	ldrb	r3, [r0, #0]
 8000aa4:	2b7a      	cmp	r3, #122	@ 0x7a
 8000aa6:	d00b      	beq.n	8000ac0 <Channel_Mode_CC_Second_Data_Byte_Is_Valid_Given_Utilised_First_Data_Byte+0x24>
		else{

			return (enum Validate)NO;
		}
	}
	else if(*first_data_byte == OMNI_MODE_OFF){
 8000aa8:	7803      	ldrb	r3, [r0, #0]
 8000aaa:	2b7c      	cmp	r3, #124	@ 0x7c
 8000aac:	d003      	beq.n	8000ab6 <Channel_Mode_CC_Second_Data_Byte_Is_Valid_Given_Utilised_First_Data_Byte+0x1a>
		else{

			return (enum Validate)NO;
		}
	}
	else if(*first_data_byte == OMNI_MODE_ON){
 8000aae:	7803      	ldrb	r3, [r0, #0]
			return (enum Validate)NO;
 8000ab0:	2000      	movs	r0, #0
	else if(*first_data_byte == OMNI_MODE_ON){
 8000ab2:	2b7d      	cmp	r3, #125	@ 0x7d
 8000ab4:	d103      	bne.n	8000abe <Channel_Mode_CC_Second_Data_Byte_Is_Valid_Given_Utilised_First_Data_Byte+0x22>

		if((*second_data_byte == 0)){
 8000ab6:	7808      	ldrb	r0, [r1, #0]
 8000ab8:	4243      	negs	r3, r0
 8000aba:	4158      	adcs	r0, r3
 8000abc:	b2c0      	uxtb	r0, r0
	}
	else{

		return (enum Validate)NO; //should not even be called if first data byte is always valid
	}
}
 8000abe:	4770      	bx	lr
		if((*second_data_byte == 0) || (*second_data_byte == 127)){
 8000ac0:	780b      	ldrb	r3, [r1, #0]
 8000ac2:	2b00      	cmp	r3, #0
 8000ac4:	d005      	beq.n	8000ad2 <Channel_Mode_CC_Second_Data_Byte_Is_Valid_Given_Utilised_First_Data_Byte+0x36>
 8000ac6:	7808      	ldrb	r0, [r1, #0]
 8000ac8:	387f      	subs	r0, #127	@ 0x7f
 8000aca:	4243      	negs	r3, r0
 8000acc:	4158      	adcs	r0, r3
 8000ace:	b2c0      	uxtb	r0, r0
 8000ad0:	e7f5      	b.n	8000abe <Channel_Mode_CC_Second_Data_Byte_Is_Valid_Given_Utilised_First_Data_Byte+0x22>
			return (enum Validate)YES;
 8000ad2:	2001      	movs	r0, #1
 8000ad4:	e7f3      	b.n	8000abe <Channel_Mode_CC_Second_Data_Byte_Is_Valid_Given_Utilised_First_Data_Byte+0x22>
 8000ad6:	46c0      	nop			@ (mov r8, r8)

08000ad8 <Is_Sysex_Start_Status_Byte>:
	return 1;
}

enum Validate Is_Sysex_Start_Status_Byte(volatile uint8_t *data){

	if(*data == (uint8_t)SYSTEM_EXCLUSIVE_START){
 8000ad8:	7800      	ldrb	r0, [r0, #0]
 8000ada:	38f0      	subs	r0, #240	@ 0xf0
 8000adc:	4243      	negs	r3, r0
 8000ade:	4158      	adcs	r0, r3
	}
	else{

		return (enum Validate)NO;
	}
}
 8000ae0:	b2c0      	uxtb	r0, r0
 8000ae2:	4770      	bx	lr

08000ae4 <Is_Channelised_Status_Byte_On_Basic_Channel>:

		return (enum Validate)NO;
	}
}

enum Validate Is_Channelised_Status_Byte_On_Basic_Channel(volatile uint8_t *data, volatile enum MIDI_Channel MIDI_basic_channel){
 8000ae4:	b082      	sub	sp, #8
 8000ae6:	466b      	mov	r3, sp
 8000ae8:	71d9      	strb	r1, [r3, #7]

	uint8_t ch = *data & 0x0F;
 8000aea:	7802      	ldrb	r2, [r0, #0]
	uint8_t b_ch = (uint8_t)MIDI_basic_channel;

	if(ch == b_ch){
 8000aec:	200f      	movs	r0, #15
enum Validate Is_Channelised_Status_Byte_On_Basic_Channel(volatile uint8_t *data, volatile enum MIDI_Channel MIDI_basic_channel){
 8000aee:	3307      	adds	r3, #7
	uint8_t b_ch = (uint8_t)MIDI_basic_channel;
 8000af0:	781b      	ldrb	r3, [r3, #0]
	if(ch == b_ch){
 8000af2:	4010      	ands	r0, r2
 8000af4:	1ac0      	subs	r0, r0, r3
 8000af6:	4243      	negs	r3, r0
 8000af8:	4158      	adcs	r0, r3
	}
	else{

		return (enum Validate)NO;
	}
}
 8000afa:	b2c0      	uxtb	r0, r0
 8000afc:	b002      	add	sp, #8
 8000afe:	4770      	bx	lr

08000b00 <Is_Data_Buffer_Empty>:

	uint16_t sum = 0;

	for(uint8_t i = 0; i < sizeof(MIDI_data_struct->MIDI_data_buffer); i++){

		sum += MIDI_data_struct->MIDI_data_buffer[i];
 8000b00:	7802      	ldrb	r2, [r0, #0]
 8000b02:	7843      	ldrb	r3, [r0, #1]
 8000b04:	18d2      	adds	r2, r2, r3
 8000b06:	7883      	ldrb	r3, [r0, #2]
 8000b08:	189b      	adds	r3, r3, r2
 8000b0a:	78c2      	ldrb	r2, [r0, #3]
 8000b0c:	18d2      	adds	r2, r2, r3
 8000b0e:	7903      	ldrb	r3, [r0, #4]
 8000b10:	189b      	adds	r3, r3, r2
 8000b12:	7942      	ldrb	r2, [r0, #5]
 8000b14:	18d2      	adds	r2, r2, r3
 8000b16:	7983      	ldrb	r3, [r0, #6]
 8000b18:	189b      	adds	r3, r3, r2
 8000b1a:	79c2      	ldrb	r2, [r0, #7]
 8000b1c:	18d2      	adds	r2, r2, r3
 8000b1e:	7a03      	ldrb	r3, [r0, #8]
 8000b20:	7a40      	ldrb	r0, [r0, #9]
 8000b22:	189b      	adds	r3, r3, r2
 8000b24:	18c0      	adds	r0, r0, r3
	}

	if(sum == 0){
 8000b26:	b280      	uxth	r0, r0
 8000b28:	4243      	negs	r3, r0
 8000b2a:	4158      	adcs	r0, r3
	}
	else{

		return (enum Validate)NO;
	}
}
 8000b2c:	b2c0      	uxtb	r0, r0
 8000b2e:	4770      	bx	lr

08000b30 <Clear_Data_Buffer>:

uint8_t Clear_Data_Buffer(volatile struct MIDI_Data *MIDI_data_struct){

	for(uint8_t i = 0; i < sizeof(MIDI_data_struct->MIDI_data_buffer); i++){

		MIDI_data_struct->MIDI_data_buffer[i] = 0;
 8000b30:	2300      	movs	r3, #0
 8000b32:	7003      	strb	r3, [r0, #0]
 8000b34:	7043      	strb	r3, [r0, #1]
 8000b36:	7083      	strb	r3, [r0, #2]
 8000b38:	70c3      	strb	r3, [r0, #3]
 8000b3a:	7103      	strb	r3, [r0, #4]
 8000b3c:	7143      	strb	r3, [r0, #5]
 8000b3e:	7183      	strb	r3, [r0, #6]
 8000b40:	71c3      	strb	r3, [r0, #7]
 8000b42:	7203      	strb	r3, [r0, #8]
 8000b44:	7243      	strb	r3, [r0, #9]
	}

	return 1;
}
 8000b46:	2001      	movs	r0, #1
 8000b48:	4770      	bx	lr
 8000b4a:	46c0      	nop			@ (mov r8, r8)

08000b4c <Is_Program_Change_Data_Byte_In_Range>:

enum Validate Is_Program_Change_Data_Byte_In_Range(volatile uint8_t *PC_data, uint8_t size_of_factory_or_user_array){

	if(*PC_data < size_of_factory_or_user_array){
 8000b4c:	7800      	ldrb	r0, [r0, #0]
	}
	else{

		return (enum Validate)NO;
	}
}
 8000b4e:	4288      	cmp	r0, r1
 8000b50:	4180      	sbcs	r0, r0
 8000b52:	4240      	negs	r0, r0
 8000b54:	4770      	bx	lr
 8000b56:	46c0      	nop			@ (mov r8, r8)

08000b58 <Is_System_Real_Time_Status_Byte>:

enum Validate Is_System_Real_Time_Status_Byte(volatile uint8_t *data){

	if(*data == SYSTEM_REAL_TIME_MIDI_CLOCK){
 8000b58:	7803      	ldrb	r3, [r0, #0]
 8000b5a:	2bf8      	cmp	r3, #248	@ 0xf8
 8000b5c:	d011      	beq.n	8000b82 <Is_System_Real_Time_Status_Byte+0x2a>
		return (enum Validate)YES;
	}
	else if(*data == SYSTEM_REAL_TIME_START){
 8000b5e:	7803      	ldrb	r3, [r0, #0]
 8000b60:	2bfa      	cmp	r3, #250	@ 0xfa
 8000b62:	d00e      	beq.n	8000b82 <Is_System_Real_Time_Status_Byte+0x2a>
		return (enum Validate)YES;
	}
	else if(*data == SYSTEM_REAL_TIME_CONTINUE){
 8000b64:	7803      	ldrb	r3, [r0, #0]
 8000b66:	2bfb      	cmp	r3, #251	@ 0xfb
 8000b68:	d00b      	beq.n	8000b82 <Is_System_Real_Time_Status_Byte+0x2a>
		return (enum Validate)YES;
	}
	else if(*data == SYSTEM_REAL_TIME_STOP){
 8000b6a:	7803      	ldrb	r3, [r0, #0]
 8000b6c:	2bfc      	cmp	r3, #252	@ 0xfc
 8000b6e:	d008      	beq.n	8000b82 <Is_System_Real_Time_Status_Byte+0x2a>
		return (enum Validate)YES;
	}
	else if(*data == SYSTEM_REAL_TIME_ACTIVE_SENSING){
 8000b70:	7803      	ldrb	r3, [r0, #0]
 8000b72:	2bfe      	cmp	r3, #254	@ 0xfe
 8000b74:	d005      	beq.n	8000b82 <Is_System_Real_Time_Status_Byte+0x2a>
		return (enum Validate)YES;
	}
	else if(*data == SYSTEM_REAL_TIME_RESET){
 8000b76:	7800      	ldrb	r0, [r0, #0]
 8000b78:	38ff      	subs	r0, #255	@ 0xff
 8000b7a:	4243      	negs	r3, r0
 8000b7c:	4158      	adcs	r0, r3
 8000b7e:	b2c0      	uxtb	r0, r0
 8000b80:	e000      	b.n	8000b84 <Is_System_Real_Time_Status_Byte+0x2c>
		return (enum Validate)YES;
 8000b82:	2001      	movs	r0, #1
		return (enum Validate)YES;
	}
	else{
		return (enum Validate)NO;
	}
}
 8000b84:	4770      	bx	lr
 8000b86:	46c0      	nop			@ (mov r8, r8)

08000b88 <Is_OMNI_On>:

enum Validate Is_OMNI_On(volatile uint32_t *statuses_ptr){

	uint8_t omni_mode = Get_Status_Bit(statuses_ptr, MIDI_Channel_Voice_Mode);
 8000b88:	2180      	movs	r1, #128	@ 0x80
enum Validate Is_OMNI_On(volatile uint32_t *statuses_ptr){
 8000b8a:	b510      	push	{r4, lr}
	uint8_t omni_mode = Get_Status_Bit(statuses_ptr, MIDI_Channel_Voice_Mode);
 8000b8c:	00c9      	lsls	r1, r1, #3
 8000b8e:	f002 fbb1 	bl	80032f4 <Get_Status_Bit>

	if(omni_mode == 1){
 8000b92:	3801      	subs	r0, #1
 8000b94:	4243      	negs	r3, r0
 8000b96:	4158      	adcs	r0, r3
	}
	else{

		return (enum Validate)NO;
	}
}
 8000b98:	b2c0      	uxtb	r0, r0
 8000b9a:	bd10      	pop	{r4, pc}

08000b9c <Reset_and_Stop_MIDI_Software_Timer>:

uint8_t Reset_and_Stop_MIDI_Software_Timer(uint32_t *midi_counter_ptr, volatile uint32_t *statuses_ptr){
 8000b9c:	b570      	push	{r4, r5, r6, lr}
 8000b9e:	000c      	movs	r4, r1

	Clear_Status_Bit(statuses_ptr, Software_MIDI_Timer_Is_Running);
 8000ba0:	2180      	movs	r1, #128	@ 0x80
uint8_t Reset_and_Stop_MIDI_Software_Timer(uint32_t *midi_counter_ptr, volatile uint32_t *statuses_ptr){
 8000ba2:	0005      	movs	r5, r0
	Clear_Status_Bit(statuses_ptr, Software_MIDI_Timer_Is_Running);
 8000ba4:	0049      	lsls	r1, r1, #1
 8000ba6:	0020      	movs	r0, r4
 8000ba8:	f002 fbae 	bl	8003308 <Clear_Status_Bit>
	Clear_Status_Bit(statuses_ptr, Software_MIDI_Timer_Has_Timed_Out);
 8000bac:	2180      	movs	r1, #128	@ 0x80
 8000bae:	0020      	movs	r0, r4
 8000bb0:	0089      	lsls	r1, r1, #2
 8000bb2:	f002 fba9 	bl	8003308 <Clear_Status_Bit>
	*midi_counter_ptr = 0;
 8000bb6:	2300      	movs	r3, #0

	return 1;
}
 8000bb8:	2001      	movs	r0, #1
	*midi_counter_ptr = 0;
 8000bba:	602b      	str	r3, [r5, #0]
}
 8000bbc:	bd70      	pop	{r4, r5, r6, pc}
 8000bbe:	46c0      	nop			@ (mov r8, r8)

08000bc0 <Reset_All_Controllers>:

uint8_t Reset_All_Controllers(struct Params *params_ptr, struct Delay_Line* delay_line_ptr){
 8000bc0:	b530      	push	{r4, r5, lr}

	//Store previous states
	waveshape_fsm.prev_state = waveshape_fsm.current_state;
 8000bc2:	4d11      	ldr	r5, [pc, #68]	@ (8000c08 <Reset_All_Controllers+0x48>)
	speed_fsm.prev_state.speed_exclusive_state = speed_fsm.current_state.speed_exclusive_state;
 8000bc4:	4c11      	ldr	r4, [pc, #68]	@ (8000c0c <Reset_All_Controllers+0x4c>)
	waveshape_fsm.prev_state = waveshape_fsm.current_state;
 8000bc6:	782b      	ldrb	r3, [r5, #0]
	depth_fsm.prev_state = depth_fsm.current_state;
 8000bc8:	4811      	ldr	r0, [pc, #68]	@ (8000c10 <Reset_All_Controllers+0x50>)
	waveshape_fsm.prev_state = waveshape_fsm.current_state;
 8000bca:	b2db      	uxtb	r3, r3
 8000bcc:	706b      	strb	r3, [r5, #1]
	speed_fsm.prev_state.speed_exclusive_state = speed_fsm.current_state.speed_exclusive_state;
 8000bce:	7823      	ldrb	r3, [r4, #0]
	symmetry_fsm.prev_state = symmetry_fsm.current_state;
 8000bd0:	4910      	ldr	r1, [pc, #64]	@ (8000c14 <Reset_All_Controllers+0x54>)
	speed_fsm.prev_state.speed_exclusive_state = speed_fsm.current_state.speed_exclusive_state;
 8000bd2:	b2db      	uxtb	r3, r3
 8000bd4:	7063      	strb	r3, [r4, #1]
	depth_fsm.prev_state = depth_fsm.current_state;
 8000bd6:	7803      	ldrb	r3, [r0, #0]
	phase_fsm.prev_state = phase_fsm.current_state;
 8000bd8:	4a0f      	ldr	r2, [pc, #60]	@ (8000c18 <Reset_All_Controllers+0x58>)
	depth_fsm.prev_state = depth_fsm.current_state;
 8000bda:	b2db      	uxtb	r3, r3
 8000bdc:	7043      	strb	r3, [r0, #1]
	symmetry_fsm.prev_state = symmetry_fsm.current_state;
 8000bde:	780b      	ldrb	r3, [r1, #0]
 8000be0:	b2db      	uxtb	r3, r3
 8000be2:	704b      	strb	r3, [r1, #1]
	phase_fsm.prev_state = phase_fsm.current_state;
 8000be4:	7813      	ldrb	r3, [r2, #0]
 8000be6:	b2db      	uxtb	r3, r3
 8000be8:	7053      	strb	r3, [r2, #1]

	//Put all pots into CC mode
	waveshape_fsm.current_state = CC_MODE;
 8000bea:	2302      	movs	r3, #2
 8000bec:	702b      	strb	r3, [r5, #0]
	speed_fsm.current_state.speed_exclusive_state = CC_MODE;
 8000bee:	7023      	strb	r3, [r4, #0]
	depth_fsm.current_state = CC_MODE;
 8000bf0:	7003      	strb	r3, [r0, #0]
	symmetry_fsm.current_state = CC_MODE;
 8000bf2:	700b      	strb	r3, [r1, #0]
	phase_fsm.current_state = CC_MODE;
 8000bf4:	7013      	strb	r3, [r2, #0]

	uint8_t data = 127 >> 1;

	for(uint8_t index = 0; index < NUM_POTS; index++){

		CC_array[index] = data;
 8000bf6:	223f      	movs	r2, #63	@ 0x3f
 8000bf8:	4b08      	ldr	r3, [pc, #32]	@ (8000c1c <Reset_All_Controllers+0x5c>)
	}

	return 1;
}
 8000bfa:	2001      	movs	r0, #1
		CC_array[index] = data;
 8000bfc:	701a      	strb	r2, [r3, #0]
 8000bfe:	705a      	strb	r2, [r3, #1]
 8000c00:	709a      	strb	r2, [r3, #2]
 8000c02:	70da      	strb	r2, [r3, #3]
 8000c04:	711a      	strb	r2, [r3, #4]
}
 8000c06:	bd30      	pop	{r4, r5, pc}
 8000c08:	20000434 	.word	0x20000434
 8000c0c:	2000043c 	.word	0x2000043c
 8000c10:	20000438 	.word	0x20000438
 8000c14:	20000430 	.word	0x20000430
 8000c18:	2000042c 	.word	0x2000042c
 8000c1c:	2000046c 	.word	0x2000046c

08000c20 <Set_Local_Control>:

uint8_t Set_Local_Control(){
 8000c20:	b530      	push	{r4, r5, lr}

	//Store previous states
	waveshape_fsm.prev_state = waveshape_fsm.current_state;
 8000c22:	4d0e      	ldr	r5, [pc, #56]	@ (8000c5c <Set_Local_Control+0x3c>)
	speed_fsm.prev_state.speed_exclusive_state = speed_fsm.current_state.speed_exclusive_state;
 8000c24:	4c0e      	ldr	r4, [pc, #56]	@ (8000c60 <Set_Local_Control+0x40>)
	waveshape_fsm.prev_state = waveshape_fsm.current_state;
 8000c26:	782b      	ldrb	r3, [r5, #0]
	depth_fsm.prev_state = depth_fsm.current_state;
 8000c28:	480e      	ldr	r0, [pc, #56]	@ (8000c64 <Set_Local_Control+0x44>)
	waveshape_fsm.prev_state = waveshape_fsm.current_state;
 8000c2a:	b2db      	uxtb	r3, r3
 8000c2c:	706b      	strb	r3, [r5, #1]
	speed_fsm.prev_state.speed_exclusive_state = speed_fsm.current_state.speed_exclusive_state;
 8000c2e:	7823      	ldrb	r3, [r4, #0]
	symmetry_fsm.prev_state = symmetry_fsm.current_state;
 8000c30:	490d      	ldr	r1, [pc, #52]	@ (8000c68 <Set_Local_Control+0x48>)
	speed_fsm.prev_state.speed_exclusive_state = speed_fsm.current_state.speed_exclusive_state;
 8000c32:	b2db      	uxtb	r3, r3
 8000c34:	7063      	strb	r3, [r4, #1]
	depth_fsm.prev_state = depth_fsm.current_state;
 8000c36:	7803      	ldrb	r3, [r0, #0]
	phase_fsm.prev_state = phase_fsm.current_state;
 8000c38:	4a0c      	ldr	r2, [pc, #48]	@ (8000c6c <Set_Local_Control+0x4c>)
	depth_fsm.prev_state = depth_fsm.current_state;
 8000c3a:	b2db      	uxtb	r3, r3
 8000c3c:	7043      	strb	r3, [r0, #1]
	symmetry_fsm.prev_state = symmetry_fsm.current_state;
 8000c3e:	780b      	ldrb	r3, [r1, #0]
 8000c40:	b2db      	uxtb	r3, r3
 8000c42:	704b      	strb	r3, [r1, #1]
	phase_fsm.prev_state = phase_fsm.current_state;
 8000c44:	7813      	ldrb	r3, [r2, #0]
 8000c46:	b2db      	uxtb	r3, r3
 8000c48:	7053      	strb	r3, [r2, #1]

	//Put all pots into manual mode
	waveshape_fsm.current_state = MANUAL_MODE;
 8000c4a:	2301      	movs	r3, #1
 8000c4c:	702b      	strb	r3, [r5, #0]
	speed_fsm.current_state.speed_exclusive_state = MANUAL_MODE;
 8000c4e:	7023      	strb	r3, [r4, #0]
	depth_fsm.current_state = MANUAL_MODE;
 8000c50:	7003      	strb	r3, [r0, #0]
	symmetry_fsm.current_state = MANUAL_MODE;
	phase_fsm.current_state = MANUAL_MODE;

	return 1;
}
 8000c52:	2001      	movs	r0, #1
	symmetry_fsm.current_state = MANUAL_MODE;
 8000c54:	700b      	strb	r3, [r1, #0]
	phase_fsm.current_state = MANUAL_MODE;
 8000c56:	7013      	strb	r3, [r2, #0]
}
 8000c58:	bd30      	pop	{r4, r5, pc}
 8000c5a:	46c0      	nop			@ (mov r8, r8)
 8000c5c:	20000434 	.word	0x20000434
 8000c60:	2000043c 	.word	0x2000043c
 8000c64:	20000438 	.word	0x20000438
 8000c68:	20000430 	.word	0x20000430
 8000c6c:	2000042c 	.word	0x2000042c

08000c70 <Set_OMNI_Off>:

uint8_t Set_OMNI_Off(volatile uint32_t *statuses_ptr){

	//Clear status bit
	Clear_Status_Bit(statuses_ptr, MIDI_Channel_Voice_Mode);
 8000c70:	2180      	movs	r1, #128	@ 0x80
uint8_t Set_OMNI_Off(volatile uint32_t *statuses_ptr){
 8000c72:	b510      	push	{r4, lr}
	Clear_Status_Bit(statuses_ptr, MIDI_Channel_Voice_Mode);
 8000c74:	00c9      	lsls	r1, r1, #3
 8000c76:	f002 fb47 	bl	8003308 <Clear_Status_Bit>

	return 1;
}
 8000c7a:	2001      	movs	r0, #1
 8000c7c:	bd10      	pop	{r4, pc}
 8000c7e:	46c0      	nop			@ (mov r8, r8)

08000c80 <Set_OMNI_On>:

uint8_t Set_OMNI_On(volatile uint32_t *statuses_ptr){

	//Set status bit
	Set_Status_Bit(statuses_ptr, MIDI_Channel_Voice_Mode);
 8000c80:	2180      	movs	r1, #128	@ 0x80
uint8_t Set_OMNI_On(volatile uint32_t *statuses_ptr){
 8000c82:	b510      	push	{r4, lr}
	Set_Status_Bit(statuses_ptr, MIDI_Channel_Voice_Mode);
 8000c84:	00c9      	lsls	r1, r1, #3
 8000c86:	f002 fb3b 	bl	8003300 <Set_Status_Bit>

	return 1;
}
 8000c8a:	2001      	movs	r0, #1
 8000c8c:	bd10      	pop	{r4, pc}
 8000c8e:	46c0      	nop			@ (mov r8, r8)

08000c90 <Start_UART_Receive>:
//VARIABLE DEFINITIONS
volatile uint8_t rx_buffer[1] = {0};
volatile enum Validate UART_DMA_TX_is_complete = YES;

//FUNCTION DEFINITIONS
uint8_t Start_UART_Receive(void){
 8000c90:	b510      	push	{r4, lr}

	//START UART RECEIVE
	HAL_UART_Receive_DMA(&huart2, (uint8_t*)rx_buffer, sizeof(rx_buffer));
 8000c92:	2201      	movs	r2, #1
 8000c94:	4902      	ldr	r1, [pc, #8]	@ (8000ca0 <Start_UART_Receive+0x10>)
 8000c96:	4803      	ldr	r0, [pc, #12]	@ (8000ca4 <Start_UART_Receive+0x14>)
 8000c98:	f006 f9d4 	bl	8007044 <HAL_UART_Receive_DMA>

	return 1;
}
 8000c9c:	2001      	movs	r0, #1
 8000c9e:	bd10      	pop	{r4, pc}
 8000ca0:	200004d4 	.word	0x200004d4
 8000ca4:	200005f4 	.word	0x200005f4

08000ca8 <Speed_Pot_Check>:

//VARIABLE DEFINITIONS
volatile uint8_t speed_pot_adc_measurement_num = 0;

//FUNCTION DEFINITIONS
uint8_t Speed_Pot_Check(struct Params* params_ptr){
 8000ca8:	b510      	push	{r4, lr}

	static uint16_t first_speed_measurement;

	static uint16_t second_speed_measurement;

	if(speed_pot_adc_measurement_num == 0){
 8000caa:	4b1d      	ldr	r3, [pc, #116]	@ (8000d20 <Speed_Pot_Check+0x78>)
 8000cac:	781a      	ldrb	r2, [r3, #0]
 8000cae:	2a00      	cmp	r2, #0
 8000cb0:	d108      	bne.n	8000cc4 <Speed_Pot_Check+0x1c>

		first_speed_measurement = params_ptr->speed;
 8000cb2:	8901      	ldrh	r1, [r0, #8]
 8000cb4:	4a1b      	ldr	r2, [pc, #108]	@ (8000d24 <Speed_Pot_Check+0x7c>)

		speed_pot_adc_measurement_num++;
	}
	else if(speed_pot_adc_measurement_num == 1){

		second_speed_measurement = params_ptr->speed;
 8000cb6:	8011      	strh	r1, [r2, #0]

		speed_pot_adc_measurement_num++;
 8000cb8:	781a      	ldrb	r2, [r3, #0]
 8000cba:	3201      	adds	r2, #1
 8000cbc:	b2d2      	uxtb	r2, r2
 8000cbe:	701a      	strb	r2, [r3, #0]
				Clear_Status_Bit(&statuses, First_Sync_Complete);
			}
		}
	}
	return 1;
}
 8000cc0:	2001      	movs	r0, #1
 8000cc2:	bd10      	pop	{r4, pc}
	else if(speed_pot_adc_measurement_num == 1){
 8000cc4:	781a      	ldrb	r2, [r3, #0]
 8000cc6:	2a01      	cmp	r2, #1
 8000cc8:	d00e      	beq.n	8000ce8 <Speed_Pot_Check+0x40>
	else if(speed_pot_adc_measurement_num == 2){
 8000cca:	781a      	ldrb	r2, [r3, #0]
 8000ccc:	2a02      	cmp	r2, #2
 8000cce:	d1f7      	bne.n	8000cc0 <Speed_Pot_Check+0x18>
		speed_pot_adc_measurement_num = 0;
 8000cd0:	2200      	movs	r2, #0
 8000cd2:	701a      	strb	r2, [r3, #0]
		if(first_speed_measurement > second_speed_measurement){
 8000cd4:	4b13      	ldr	r3, [pc, #76]	@ (8000d24 <Speed_Pot_Check+0x7c>)
 8000cd6:	4a14      	ldr	r2, [pc, #80]	@ (8000d28 <Speed_Pot_Check+0x80>)
 8000cd8:	881b      	ldrh	r3, [r3, #0]
 8000cda:	8812      	ldrh	r2, [r2, #0]
 8000cdc:	4293      	cmp	r3, r2
 8000cde:	d906      	bls.n	8000cee <Speed_Pot_Check+0x46>
			if(first_speed_measurement - second_speed_measurement > SPEED_TOLERANCE){
 8000ce0:	1a9b      	subs	r3, r3, r2
 8000ce2:	2b05      	cmp	r3, #5
 8000ce4:	ddec      	ble.n	8000cc0 <Speed_Pot_Check+0x18>
 8000ce6:	e007      	b.n	8000cf8 <Speed_Pot_Check+0x50>
		second_speed_measurement = params_ptr->speed;
 8000ce8:	8901      	ldrh	r1, [r0, #8]
 8000cea:	4a0f      	ldr	r2, [pc, #60]	@ (8000d28 <Speed_Pot_Check+0x80>)
 8000cec:	e7e3      	b.n	8000cb6 <Speed_Pot_Check+0xe>
		else if(second_speed_measurement > first_speed_measurement){
 8000cee:	4293      	cmp	r3, r2
 8000cf0:	d2e6      	bcs.n	8000cc0 <Speed_Pot_Check+0x18>
			if(second_speed_measurement - first_speed_measurement > SPEED_TOLERANCE){
 8000cf2:	1ad2      	subs	r2, r2, r3
 8000cf4:	2a05      	cmp	r2, #5
 8000cf6:	dde3      	ble.n	8000cc0 <Speed_Pot_Check+0x18>
				speed_fsm.prev_state = speed_fsm.current_state;
 8000cf8:	4b0c      	ldr	r3, [pc, #48]	@ (8000d2c <Speed_Pot_Check+0x84>)
				Clear_Status_Bit(&statuses, Software_IP_CAP_Idle_Timer_Has_Timed_Out);
 8000cfa:	4c0d      	ldr	r4, [pc, #52]	@ (8000d30 <Speed_Pot_Check+0x88>)
				speed_fsm.prev_state = speed_fsm.current_state;
 8000cfc:	781a      	ldrb	r2, [r3, #0]
				Clear_Status_Bit(&statuses, Software_IP_CAP_Idle_Timer_Has_Timed_Out);
 8000cfe:	0020      	movs	r0, r4
				speed_fsm.prev_state = speed_fsm.current_state;
 8000d00:	705a      	strb	r2, [r3, #1]
				speed_fsm.current_state.shared_state = MANUAL_MODE;
 8000d02:	2201      	movs	r2, #1
				Clear_Status_Bit(&statuses, Software_IP_CAP_Idle_Timer_Has_Timed_Out);
 8000d04:	2120      	movs	r1, #32
				speed_fsm.current_state.shared_state = MANUAL_MODE;
 8000d06:	701a      	strb	r2, [r3, #0]
				Clear_Status_Bit(&statuses, Software_IP_CAP_Idle_Timer_Has_Timed_Out);
 8000d08:	f002 fafe 	bl	8003308 <Clear_Status_Bit>
				Clear_Status_Bit(&statuses, Software_IP_CAP_Idle_Timer_Is_Running);
 8000d0c:	0020      	movs	r0, r4
 8000d0e:	2140      	movs	r1, #64	@ 0x40
 8000d10:	f002 fafa 	bl	8003308 <Clear_Status_Bit>
				Clear_Status_Bit(&statuses, First_Sync_Complete);
 8000d14:	2108      	movs	r1, #8
 8000d16:	0020      	movs	r0, r4
 8000d18:	f002 faf6 	bl	8003308 <Clear_Status_Bit>
 8000d1c:	e7d0      	b.n	8000cc0 <Speed_Pot_Check+0x18>
 8000d1e:	46c0      	nop			@ (mov r8, r8)
 8000d20:	200004da 	.word	0x200004da
 8000d24:	200004d8 	.word	0x200004d8
 8000d28:	200004d6 	.word	0x200004d6
 8000d2c:	2000043c 	.word	0x2000043c
 8000d30:	20000c20 	.word	0x20000c20

08000d34 <Check_Tap_Tempo_Switch_State>:

uint8_t Check_Tap_Tempo_Switch_State(volatile struct Tap_Tempo_Switch_States *tap_tempo_switch_states_ptr){
 8000d34:	b510      	push	{r4, lr}

	static uint8_t extend_rising_edge = 0;
	static uint8_t tap_tempo_switch_state_counter = TAP_TEMPO_SWITCH_CONFIDENCE_COUNT;

	uint8_t switch_state = (uint8_t)HAL_GPIO_ReadPin(SW_IN_GPIO_Port, SW_IN_Pin);
 8000d36:	2180      	movs	r1, #128	@ 0x80
uint8_t Check_Tap_Tempo_Switch_State(volatile struct Tap_Tempo_Switch_States *tap_tempo_switch_states_ptr){
 8000d38:	0004      	movs	r4, r0
	uint8_t switch_state = (uint8_t)HAL_GPIO_ReadPin(SW_IN_GPIO_Port, SW_IN_Pin);
 8000d3a:	20a0      	movs	r0, #160	@ 0xa0
 8000d3c:	00c9      	lsls	r1, r1, #3
 8000d3e:	05c0      	lsls	r0, r0, #23
 8000d40:	f003 fc8e 	bl	8004660 <HAL_GPIO_ReadPin>

	if(switch_state == 0){
 8000d44:	2800      	cmp	r0, #0
 8000d46:	d10d      	bne.n	8000d64 <Check_Tap_Tempo_Switch_State+0x30>

		if(tap_tempo_switch_state_counter != 0){
 8000d48:	4a11      	ldr	r2, [pc, #68]	@ (8000d90 <Check_Tap_Tempo_Switch_State+0x5c>)
 8000d4a:	7813      	ldrb	r3, [r2, #0]
 8000d4c:	2b00      	cmp	r3, #0
 8000d4e:	d015      	beq.n	8000d7c <Check_Tap_Tempo_Switch_State+0x48>

			tap_tempo_switch_state_counter--;
 8000d50:	3b01      	subs	r3, #1
 8000d52:	b2db      	uxtb	r3, r3
 8000d54:	7013      	strb	r3, [r2, #0]
				extend_rising_edge++;
			}
		}
	}

	if(tap_tempo_switch_state_counter == 0){
 8000d56:	2b00      	cmp	r3, #0
 8000d58:	d010      	beq.n	8000d7c <Check_Tap_Tempo_Switch_State+0x48>

		tap_tempo_switch_states_ptr->tap_tempo_switch_state = DEPRESSED;
	}
	else if(tap_tempo_switch_state_counter == TAP_TEMPO_SWITCH_CONFIDENCE_COUNT){
 8000d5a:	2b0e      	cmp	r3, #14
 8000d5c:	d110      	bne.n	8000d80 <Check_Tap_Tempo_Switch_State+0x4c>

		tap_tempo_switch_states_ptr->tap_tempo_switch_state = NOT_DEPRESSED;
 8000d5e:	2300      	movs	r3, #0
 8000d60:	7023      	strb	r3, [r4, #0]
 8000d62:	e00d      	b.n	8000d80 <Check_Tap_Tempo_Switch_State+0x4c>
		if(tap_tempo_switch_state_counter != TAP_TEMPO_SWITCH_CONFIDENCE_COUNT){
 8000d64:	490a      	ldr	r1, [pc, #40]	@ (8000d90 <Check_Tap_Tempo_Switch_State+0x5c>)
 8000d66:	780b      	ldrb	r3, [r1, #0]
 8000d68:	2b0e      	cmp	r3, #14
 8000d6a:	d0f8      	beq.n	8000d5e <Check_Tap_Tempo_Switch_State+0x2a>
			if(extend_rising_edge == COUNT_TO_DELAY_RISING_TAP_TEMPO_EDGE){
 8000d6c:	4809      	ldr	r0, [pc, #36]	@ (8000d94 <Check_Tap_Tempo_Switch_State+0x60>)
 8000d6e:	7802      	ldrb	r2, [r0, #0]
 8000d70:	2a04      	cmp	r2, #4
 8000d72:	d007      	beq.n	8000d84 <Check_Tap_Tempo_Switch_State+0x50>
				extend_rising_edge++;
 8000d74:	3201      	adds	r2, #1
 8000d76:	7002      	strb	r2, [r0, #0]
	if(tap_tempo_switch_state_counter == 0){
 8000d78:	2b00      	cmp	r3, #0
 8000d7a:	d101      	bne.n	8000d80 <Check_Tap_Tempo_Switch_State+0x4c>
		tap_tempo_switch_states_ptr->tap_tempo_switch_state = DEPRESSED;
 8000d7c:	2301      	movs	r3, #1
 8000d7e:	7023      	strb	r3, [r4, #0]
	}

	return 1;
}
 8000d80:	2001      	movs	r0, #1
 8000d82:	bd10      	pop	{r4, pc}
				extend_rising_edge = 0;
 8000d84:	2200      	movs	r2, #0
				tap_tempo_switch_state_counter++;
 8000d86:	3301      	adds	r3, #1
 8000d88:	b2db      	uxtb	r3, r3
 8000d8a:	700b      	strb	r3, [r1, #0]
				extend_rising_edge = 0;
 8000d8c:	7002      	strb	r2, [r0, #0]
 8000d8e:	e7e2      	b.n	8000d56 <Check_Tap_Tempo_Switch_State+0x22>
 8000d90:	2000001d 	.word	0x2000001d
 8000d94:	200004d5 	.word	0x200004d5

08000d98 <SystemClock_Config>:

LPTIM_HandleTypeDef hlptim1;

//FUNCTIONS
void SystemClock_Config(void)
{
 8000d98:	b500      	push	{lr}
 8000d9a:	b093      	sub	sp, #76	@ 0x4c
  RCC_OscInitTypeDef RCC_OscInitStruct = {0};
 8000d9c:	2238      	movs	r2, #56	@ 0x38
 8000d9e:	2100      	movs	r1, #0
 8000da0:	a804      	add	r0, sp, #16
 8000da2:	f006 ff11 	bl	8007bc8 <memset>
  RCC_ClkInitTypeDef RCC_ClkInitStruct = {0};
 8000da6:	2210      	movs	r2, #16
 8000da8:	2100      	movs	r1, #0
 8000daa:	4668      	mov	r0, sp
 8000dac:	f006 ff0c 	bl	8007bc8 <memset>

  /** Configure the main internal regulator output voltage
  */
  HAL_PWREx_ControlVoltageScaling(PWR_REGULATOR_VOLTAGE_SCALE1);
 8000db0:	2080      	movs	r0, #128	@ 0x80
 8000db2:	0080      	lsls	r0, r0, #2
 8000db4:	f003 fef6 	bl	8004ba4 <HAL_PWREx_ControlVoltageScaling>

  /** Initializes the RCC Oscillators according to the specified parameters
  * in the RCC_OscInitTypeDef structure.
  */
  RCC_OscInitStruct.OscillatorType = RCC_OSCILLATORTYPE_HSI;
 8000db8:	2302      	movs	r3, #2
 8000dba:	9304      	str	r3, [sp, #16]
  RCC_OscInitStruct.HSIState = RCC_HSI_ON;
  RCC_OscInitStruct.HSIDiv = RCC_HSI_DIV1;
  RCC_OscInitStruct.HSICalibrationValue = RCC_HSICALIBRATION_DEFAULT;
  RCC_OscInitStruct.PLL.PLLState = RCC_PLL_ON;
 8000dbc:	930b      	str	r3, [sp, #44]	@ 0x2c
  RCC_OscInitStruct.PLL.PLLSource = RCC_PLLSOURCE_HSI;
 8000dbe:	930c      	str	r3, [sp, #48]	@ 0x30
  RCC_OscInitStruct.PLL.PLLM = RCC_PLLM_DIV1;
  RCC_OscInitStruct.PLL.PLLN = 8;
 8000dc0:	3306      	adds	r3, #6
 8000dc2:	930e      	str	r3, [sp, #56]	@ 0x38
  RCC_OscInitStruct.PLL.PLLP = RCC_PLLP_DIV2;
 8000dc4:	2380      	movs	r3, #128	@ 0x80
 8000dc6:	029b      	lsls	r3, r3, #10
 8000dc8:	930f      	str	r3, [sp, #60]	@ 0x3c
  RCC_OscInitStruct.PLL.PLLQ = RCC_PLLQ_DIV4;
 8000dca:	23c0      	movs	r3, #192	@ 0xc0
  RCC_OscInitStruct.HSIState = RCC_HSI_ON;
 8000dcc:	2280      	movs	r2, #128	@ 0x80
  RCC_OscInitStruct.PLL.PLLQ = RCC_PLLQ_DIV4;
 8000dce:	04db      	lsls	r3, r3, #19
  RCC_OscInitStruct.HSIState = RCC_HSI_ON;
 8000dd0:	0052      	lsls	r2, r2, #1
  RCC_OscInitStruct.PLL.PLLQ = RCC_PLLQ_DIV4;
 8000dd2:	9310      	str	r3, [sp, #64]	@ 0x40
  RCC_OscInitStruct.PLL.PLLR = RCC_PLLR_DIV2;
 8000dd4:	2380      	movs	r3, #128	@ 0x80
  RCC_OscInitStruct.HSICalibrationValue = RCC_HSICALIBRATION_DEFAULT;
 8000dd6:	2140      	movs	r1, #64	@ 0x40
  RCC_OscInitStruct.HSIState = RCC_HSI_ON;
 8000dd8:	9207      	str	r2, [sp, #28]
  RCC_OscInitStruct.HSIDiv = RCC_HSI_DIV1;
 8000dda:	2200      	movs	r2, #0
  RCC_OscInitStruct.PLL.PLLR = RCC_PLLR_DIV2;
 8000ddc:	059b      	lsls	r3, r3, #22
  if (HAL_RCC_OscConfig(&RCC_OscInitStruct) != HAL_OK)
 8000dde:	a804      	add	r0, sp, #16
  RCC_OscInitStruct.HSIDiv = RCC_HSI_DIV1;
 8000de0:	9208      	str	r2, [sp, #32]
  RCC_OscInitStruct.HSICalibrationValue = RCC_HSICALIBRATION_DEFAULT;
 8000de2:	9109      	str	r1, [sp, #36]	@ 0x24
  RCC_OscInitStruct.PLL.PLLM = RCC_PLLM_DIV1;
 8000de4:	920d      	str	r2, [sp, #52]	@ 0x34
  RCC_OscInitStruct.PLL.PLLR = RCC_PLLR_DIV2;
 8000de6:	9311      	str	r3, [sp, #68]	@ 0x44
  if (HAL_RCC_OscConfig(&RCC_OscInitStruct) != HAL_OK)
 8000de8:	f003 ff0c 	bl	8004c04 <HAL_RCC_OscConfig>
 8000dec:	2800      	cmp	r0, #0
 8000dee:	d001      	beq.n	8000df4 <SystemClock_Config+0x5c>
  \details Disables IRQ interrupts by setting the I-bit in the CPSR.
           Can only be executed in Privileged modes.
 */
__STATIC_FORCEINLINE void __disable_irq(void)
{
  __ASM volatile ("cpsid i" : : : "memory");
 8000df0:	b672      	cpsid	i

void Error_Handler(void)
{
  /* User can add his own implementation to report the HAL error return state */
  __disable_irq();
  while (1)
 8000df2:	e7fe      	b.n	8000df2 <SystemClock_Config+0x5a>
  RCC_ClkInitStruct.ClockType = RCC_CLOCKTYPE_HCLK|RCC_CLOCKTYPE_SYSCLK
 8000df4:	2207      	movs	r2, #7
 8000df6:	2302      	movs	r3, #2
 8000df8:	9200      	str	r2, [sp, #0]
 8000dfa:	9301      	str	r3, [sp, #4]
 8000dfc:	2200      	movs	r2, #0
 8000dfe:	2300      	movs	r3, #0
  if (HAL_RCC_ClockConfig(&RCC_ClkInitStruct, FLASH_LATENCY_2) != HAL_OK)
 8000e00:	2102      	movs	r1, #2
 8000e02:	4668      	mov	r0, sp
  RCC_ClkInitStruct.ClockType = RCC_CLOCKTYPE_HCLK|RCC_CLOCKTYPE_SYSCLK
 8000e04:	9202      	str	r2, [sp, #8]
 8000e06:	9303      	str	r3, [sp, #12]
  if (HAL_RCC_ClockConfig(&RCC_ClkInitStruct, FLASH_LATENCY_2) != HAL_OK)
 8000e08:	f004 f9b2 	bl	8005170 <HAL_RCC_ClockConfig>
 8000e0c:	2800      	cmp	r0, #0
 8000e0e:	d001      	beq.n	8000e14 <SystemClock_Config+0x7c>
 8000e10:	b672      	cpsid	i
  while (1)
 8000e12:	e7fe      	b.n	8000e12 <SystemClock_Config+0x7a>
}
 8000e14:	b013      	add	sp, #76	@ 0x4c
 8000e16:	bd00      	pop	{pc}

08000e18 <MX_ADC1_Init>:
{
 8000e18:	b530      	push	{r4, r5, lr}
 8000e1a:	b085      	sub	sp, #20
  ADC_ChannelConfTypeDef sConfig = {0};
 8000e1c:	220c      	movs	r2, #12
 8000e1e:	2100      	movs	r1, #0
 8000e20:	a801      	add	r0, sp, #4
 8000e22:	f006 fed1 	bl	8007bc8 <memset>
  hadc1.Instance = ADC1;
 8000e26:	4c33      	ldr	r4, [pc, #204]	@ (8000ef4 <MX_ADC1_Init+0xdc>)
 8000e28:	4b33      	ldr	r3, [pc, #204]	@ (8000ef8 <MX_ADC1_Init+0xe0>)
  hadc1.Init.ScanConvMode = ADC_SCAN_ENABLE;
 8000e2a:	2280      	movs	r2, #128	@ 0x80
  hadc1.Instance = ADC1;
 8000e2c:	6023      	str	r3, [r4, #0]
  hadc1.Init.ClockPrescaler = ADC_CLOCK_SYNC_PCLK_DIV2;
 8000e2e:	2380      	movs	r3, #128	@ 0x80
  hadc1.Init.NbrOfConversion = 5;
 8000e30:	2105      	movs	r1, #5
  hadc1.Init.ScanConvMode = ADC_SCAN_ENABLE;
 8000e32:	0392      	lsls	r2, r2, #14
 8000e34:	6122      	str	r2, [r4, #16]
  hadc1.Init.LowPowerAutoWait = DISABLE;
 8000e36:	2200      	movs	r2, #0
  hadc1.Init.ClockPrescaler = ADC_CLOCK_SYNC_PCLK_DIV2;
 8000e38:	05db      	lsls	r3, r3, #23
  hadc1.Init.EOCSelection = ADC_EOC_SEQ_CONV;
 8000e3a:	2508      	movs	r5, #8
  hadc1.Init.ClockPrescaler = ADC_CLOCK_SYNC_PCLK_DIV2;
 8000e3c:	6063      	str	r3, [r4, #4]
  hadc1.Init.Resolution = ADC_RESOLUTION_12B;
 8000e3e:	2300      	movs	r3, #0
  hadc1.Init.NbrOfConversion = 5;
 8000e40:	61e1      	str	r1, [r4, #28]
  hadc1.Init.DiscontinuousConvMode = DISABLE;
 8000e42:	311b      	adds	r1, #27
 8000e44:	5462      	strb	r2, [r4, r1]
  hadc1.Init.DMAContinuousRequests = DISABLE;
 8000e46:	310c      	adds	r1, #12
 8000e48:	5462      	strb	r2, [r4, r1]
  if (HAL_ADC_Init(&hadc1) != HAL_OK)
 8000e4a:	0020      	movs	r0, r4
  hadc1.Init.OversamplingMode = DISABLE;
 8000e4c:	3110      	adds	r1, #16
  hadc1.Init.Resolution = ADC_RESOLUTION_12B;
 8000e4e:	60a3      	str	r3, [r4, #8]
  hadc1.Init.DataAlign = ADC_DATAALIGN_RIGHT;
 8000e50:	60e3      	str	r3, [r4, #12]
  hadc1.Init.EOCSelection = ADC_EOC_SEQ_CONV;
 8000e52:	6165      	str	r5, [r4, #20]
  hadc1.Init.LowPowerAutoWait = DISABLE;
 8000e54:	8323      	strh	r3, [r4, #24]
  hadc1.Init.ContinuousConvMode = DISABLE;
 8000e56:	76a2      	strb	r2, [r4, #26]
  hadc1.Init.ExternalTrigConv = ADC_SOFTWARE_START;
 8000e58:	6263      	str	r3, [r4, #36]	@ 0x24
  hadc1.Init.ExternalTrigConvEdge = ADC_EXTERNALTRIGCONVEDGE_NONE;
 8000e5a:	62a3      	str	r3, [r4, #40]	@ 0x28
  hadc1.Init.Overrun = ADC_OVR_DATA_PRESERVED;
 8000e5c:	6323      	str	r3, [r4, #48]	@ 0x30
  hadc1.Init.SamplingTimeCommon1 = ADC_SAMPLETIME_1CYCLE_5;
 8000e5e:	6363      	str	r3, [r4, #52]	@ 0x34
  hadc1.Init.SamplingTimeCommon2 = ADC_SAMPLETIME_1CYCLE_5;
 8000e60:	63a3      	str	r3, [r4, #56]	@ 0x38
  hadc1.Init.OversamplingMode = DISABLE;
 8000e62:	5462      	strb	r2, [r4, r1]
  hadc1.Init.TriggerFrequencyMode = ADC_TRIGGER_FREQ_HIGH;
 8000e64:	64e3      	str	r3, [r4, #76]	@ 0x4c
  if (HAL_ADC_Init(&hadc1) != HAL_OK)
 8000e66:	f002 fb25 	bl	80034b4 <HAL_ADC_Init>
 8000e6a:	2800      	cmp	r0, #0
 8000e6c:	d001      	beq.n	8000e72 <MX_ADC1_Init+0x5a>
 8000e6e:	b672      	cpsid	i
  while (1)
 8000e70:	e7fe      	b.n	8000e70 <MX_ADC1_Init+0x58>
  sConfig.Channel = ADC_CHANNEL_0;
 8000e72:	2301      	movs	r3, #1
  sConfig.Rank = ADC_REGULAR_RANK_1;
 8000e74:	9002      	str	r0, [sp, #8]
  sConfig.SamplingTime = ADC_SAMPLINGTIME_COMMON_1;
 8000e76:	9003      	str	r0, [sp, #12]
  if (HAL_ADC_ConfigChannel(&hadc1, &sConfig) != HAL_OK)
 8000e78:	a901      	add	r1, sp, #4
 8000e7a:	0020      	movs	r0, r4
  sConfig.Channel = ADC_CHANNEL_0;
 8000e7c:	9301      	str	r3, [sp, #4]
  if (HAL_ADC_ConfigChannel(&hadc1, &sConfig) != HAL_OK)
 8000e7e:	f002 fc93 	bl	80037a8 <HAL_ADC_ConfigChannel>
 8000e82:	2800      	cmp	r0, #0
 8000e84:	d001      	beq.n	8000e8a <MX_ADC1_Init+0x72>
 8000e86:	b672      	cpsid	i
  while (1)
 8000e88:	e7fe      	b.n	8000e88 <MX_ADC1_Init+0x70>
  sConfig.Channel = ADC_CHANNEL_1;
 8000e8a:	4b1c      	ldr	r3, [pc, #112]	@ (8000efc <MX_ADC1_Init+0xe4>)
  sConfig.SamplingTime = ADC_SAMPLINGTIME_COMMON_1;
 8000e8c:	9003      	str	r0, [sp, #12]
  sConfig.Channel = ADC_CHANNEL_1;
 8000e8e:	9301      	str	r3, [sp, #4]
  sConfig.Rank = ADC_REGULAR_RANK_2;
 8000e90:	2304      	movs	r3, #4
  if (HAL_ADC_ConfigChannel(&hadc1, &sConfig) != HAL_OK)
 8000e92:	0020      	movs	r0, r4
 8000e94:	a901      	add	r1, sp, #4
  sConfig.Rank = ADC_REGULAR_RANK_2;
 8000e96:	9302      	str	r3, [sp, #8]
  if (HAL_ADC_ConfigChannel(&hadc1, &sConfig) != HAL_OK)
 8000e98:	f002 fc86 	bl	80037a8 <HAL_ADC_ConfigChannel>
 8000e9c:	2800      	cmp	r0, #0
 8000e9e:	d001      	beq.n	8000ea4 <MX_ADC1_Init+0x8c>
 8000ea0:	b672      	cpsid	i
  while (1)
 8000ea2:	e7fe      	b.n	8000ea2 <MX_ADC1_Init+0x8a>
  sConfig.Channel = ADC_CHANNEL_4;
 8000ea4:	4b16      	ldr	r3, [pc, #88]	@ (8000f00 <MX_ADC1_Init+0xe8>)
  sConfig.SamplingTime = ADC_SAMPLINGTIME_COMMON_1;
 8000ea6:	9003      	str	r0, [sp, #12]
  if (HAL_ADC_ConfigChannel(&hadc1, &sConfig) != HAL_OK)
 8000ea8:	a901      	add	r1, sp, #4
 8000eaa:	0020      	movs	r0, r4
  sConfig.Channel = ADC_CHANNEL_4;
 8000eac:	9301      	str	r3, [sp, #4]
  sConfig.Rank = ADC_REGULAR_RANK_3;
 8000eae:	9502      	str	r5, [sp, #8]
  if (HAL_ADC_ConfigChannel(&hadc1, &sConfig) != HAL_OK)
 8000eb0:	f002 fc7a 	bl	80037a8 <HAL_ADC_ConfigChannel>
 8000eb4:	2800      	cmp	r0, #0
 8000eb6:	d001      	beq.n	8000ebc <MX_ADC1_Init+0xa4>
 8000eb8:	b672      	cpsid	i
  while (1)
 8000eba:	e7fe      	b.n	8000eba <MX_ADC1_Init+0xa2>
  sConfig.Channel = ADC_CHANNEL_5;
 8000ebc:	4b11      	ldr	r3, [pc, #68]	@ (8000f04 <MX_ADC1_Init+0xec>)
  sConfig.SamplingTime = ADC_SAMPLINGTIME_COMMON_1;
 8000ebe:	9003      	str	r0, [sp, #12]
  sConfig.Channel = ADC_CHANNEL_5;
 8000ec0:	9301      	str	r3, [sp, #4]
  sConfig.Rank = ADC_REGULAR_RANK_4;
 8000ec2:	230c      	movs	r3, #12
  if (HAL_ADC_ConfigChannel(&hadc1, &sConfig) != HAL_OK)
 8000ec4:	0020      	movs	r0, r4
 8000ec6:	a901      	add	r1, sp, #4
  sConfig.Rank = ADC_REGULAR_RANK_4;
 8000ec8:	9302      	str	r3, [sp, #8]
  if (HAL_ADC_ConfigChannel(&hadc1, &sConfig) != HAL_OK)
 8000eca:	f002 fc6d 	bl	80037a8 <HAL_ADC_ConfigChannel>
 8000ece:	2800      	cmp	r0, #0
 8000ed0:	d001      	beq.n	8000ed6 <MX_ADC1_Init+0xbe>
 8000ed2:	b672      	cpsid	i
  while (1)
 8000ed4:	e7fe      	b.n	8000ed4 <MX_ADC1_Init+0xbc>
  sConfig.Channel = ADC_CHANNEL_6;
 8000ed6:	4b0c      	ldr	r3, [pc, #48]	@ (8000f08 <MX_ADC1_Init+0xf0>)
  sConfig.SamplingTime = ADC_SAMPLINGTIME_COMMON_1;
 8000ed8:	9003      	str	r0, [sp, #12]
  sConfig.Channel = ADC_CHANNEL_6;
 8000eda:	9301      	str	r3, [sp, #4]
  sConfig.Rank = ADC_REGULAR_RANK_5;
 8000edc:	2310      	movs	r3, #16
  if (HAL_ADC_ConfigChannel(&hadc1, &sConfig) != HAL_OK)
 8000ede:	0020      	movs	r0, r4
 8000ee0:	a901      	add	r1, sp, #4
  sConfig.Rank = ADC_REGULAR_RANK_5;
 8000ee2:	9302      	str	r3, [sp, #8]
  if (HAL_ADC_ConfigChannel(&hadc1, &sConfig) != HAL_OK)
 8000ee4:	f002 fc60 	bl	80037a8 <HAL_ADC_ConfigChannel>
 8000ee8:	2800      	cmp	r0, #0
 8000eea:	d001      	beq.n	8000ef0 <MX_ADC1_Init+0xd8>
 8000eec:	b672      	cpsid	i
  while (1)
 8000eee:	e7fe      	b.n	8000eee <MX_ADC1_Init+0xd6>
}
 8000ef0:	b005      	add	sp, #20
 8000ef2:	bd30      	pop	{r4, r5, pc}
 8000ef4:	20000b84 	.word	0x20000b84
 8000ef8:	40012400 	.word	0x40012400
 8000efc:	04000002 	.word	0x04000002
 8000f00:	10000010 	.word	0x10000010
 8000f04:	14000020 	.word	0x14000020
 8000f08:	18000040 	.word	0x18000040

08000f0c <MX_TIM16_Init>:
{
 8000f0c:	b530      	push	{r4, r5, lr}
 8000f0e:	b097      	sub	sp, #92	@ 0x5c
  TIM_OC_InitTypeDef sConfigOC = {0};
 8000f10:	221c      	movs	r2, #28
 8000f12:	2100      	movs	r1, #0
 8000f14:	4668      	mov	r0, sp
 8000f16:	f006 fe57 	bl	8007bc8 <memset>
  TIM_BreakDeadTimeConfigTypeDef sBreakDeadTimeConfig = {0};
 8000f1a:	2234      	movs	r2, #52	@ 0x34
 8000f1c:	2100      	movs	r1, #0
 8000f1e:	a808      	add	r0, sp, #32
 8000f20:	f006 fe52 	bl	8007bc8 <memset>
  htim16.Instance = TIM16;
 8000f24:	4c23      	ldr	r4, [pc, #140]	@ (8000fb4 <MX_TIM16_Init+0xa8>)
 8000f26:	4b24      	ldr	r3, [pc, #144]	@ (8000fb8 <MX_TIM16_Init+0xac>)
  htim16.Init.ClockDivision = TIM_CLOCKDIVISION_DIV4;
 8000f28:	2280      	movs	r2, #128	@ 0x80
  htim16.Instance = TIM16;
 8000f2a:	6023      	str	r3, [r4, #0]
  htim16.Init.Prescaler = 0;
 8000f2c:	2300      	movs	r3, #0
  htim16.Init.Period = 255;
 8000f2e:	25ff      	movs	r5, #255	@ 0xff
  htim16.Init.Prescaler = 0;
 8000f30:	6063      	str	r3, [r4, #4]
  htim16.Init.CounterMode = TIM_COUNTERMODE_UP;
 8000f32:	60a3      	str	r3, [r4, #8]
  htim16.Init.ClockDivision = TIM_CLOCKDIVISION_DIV4;
 8000f34:	0092      	lsls	r2, r2, #2
  htim16.Init.RepetitionCounter = 0;
 8000f36:	6163      	str	r3, [r4, #20]
  if (HAL_TIM_Base_Init(&htim16) != HAL_OK)
 8000f38:	0020      	movs	r0, r4
  htim16.Init.AutoReloadPreload = TIM_AUTORELOAD_PRELOAD_ENABLE;
 8000f3a:	3380      	adds	r3, #128	@ 0x80
  htim16.Init.Period = 255;
 8000f3c:	60e5      	str	r5, [r4, #12]
  htim16.Init.ClockDivision = TIM_CLOCKDIVISION_DIV4;
 8000f3e:	6122      	str	r2, [r4, #16]
  htim16.Init.AutoReloadPreload = TIM_AUTORELOAD_PRELOAD_ENABLE;
 8000f40:	61a3      	str	r3, [r4, #24]
  if (HAL_TIM_Base_Init(&htim16) != HAL_OK)
 8000f42:	f004 fb01 	bl	8005548 <HAL_TIM_Base_Init>
 8000f46:	2800      	cmp	r0, #0
 8000f48:	d001      	beq.n	8000f4e <MX_TIM16_Init+0x42>
 8000f4a:	b672      	cpsid	i
  while (1)
 8000f4c:	e7fe      	b.n	8000f4c <MX_TIM16_Init+0x40>
  if (HAL_TIM_OC_Init(&htim16) != HAL_OK)
 8000f4e:	0020      	movs	r0, r4
 8000f50:	f004 fc30 	bl	80057b4 <HAL_TIM_OC_Init>
 8000f54:	2800      	cmp	r0, #0
 8000f56:	d001      	beq.n	8000f5c <MX_TIM16_Init+0x50>
 8000f58:	b672      	cpsid	i
  while (1)
 8000f5a:	e7fe      	b.n	8000f5a <MX_TIM16_Init+0x4e>
  sConfigOC.OCFastMode = TIM_OCFAST_DISABLE;
 8000f5c:	2200      	movs	r2, #0
 8000f5e:	2300      	movs	r3, #0
  sConfigOC.OCMode = TIM_OCMODE_TIMING;
 8000f60:	9000      	str	r0, [sp, #0]
  sConfigOC.OCPolarity = TIM_OCPOLARITY_HIGH;
 8000f62:	9002      	str	r0, [sp, #8]
  sConfigOC.OCNPolarity = TIM_OCNPOLARITY_HIGH;
 8000f64:	9003      	str	r0, [sp, #12]
  sConfigOC.OCNIdleState = TIM_OCNIDLESTATE_RESET;
 8000f66:	9006      	str	r0, [sp, #24]
  if (HAL_TIM_OC_ConfigChannel(&htim16, &sConfigOC, TIM_CHANNEL_1) != HAL_OK)
 8000f68:	4669      	mov	r1, sp
 8000f6a:	0020      	movs	r0, r4
  sConfigOC.OCFastMode = TIM_OCFAST_DISABLE;
 8000f6c:	9204      	str	r2, [sp, #16]
 8000f6e:	9305      	str	r3, [sp, #20]
  sConfigOC.Pulse = 255;
 8000f70:	9501      	str	r5, [sp, #4]
  if (HAL_TIM_OC_ConfigChannel(&htim16, &sConfigOC, TIM_CHANNEL_1) != HAL_OK)
 8000f72:	f005 f95f 	bl	8006234 <HAL_TIM_OC_ConfigChannel>
 8000f76:	2800      	cmp	r0, #0
 8000f78:	d001      	beq.n	8000f7e <MX_TIM16_Init+0x72>
 8000f7a:	b672      	cpsid	i
  while (1)
 8000f7c:	e7fe      	b.n	8000f7c <MX_TIM16_Init+0x70>
  __HAL_TIM_DISABLE_OCxPRELOAD(&htim16, TIM_CHANNEL_1);
 8000f7e:	2108      	movs	r1, #8
 8000f80:	6822      	ldr	r2, [r4, #0]
  sBreakDeadTimeConfig.OffStateRunMode = TIM_OSSR_DISABLE;
 8000f82:	9008      	str	r0, [sp, #32]
  __HAL_TIM_DISABLE_OCxPRELOAD(&htim16, TIM_CHANNEL_1);
 8000f84:	6993      	ldr	r3, [r2, #24]
  sBreakDeadTimeConfig.OffStateIDLEMode = TIM_OSSI_DISABLE;
 8000f86:	9009      	str	r0, [sp, #36]	@ 0x24
  __HAL_TIM_DISABLE_OCxPRELOAD(&htim16, TIM_CHANNEL_1);
 8000f88:	438b      	bics	r3, r1
 8000f8a:	6193      	str	r3, [r2, #24]
  sBreakDeadTimeConfig.BreakState = TIM_BREAK_DISABLE;
 8000f8c:	2380      	movs	r3, #128	@ 0x80
 8000f8e:	2200      	movs	r2, #0
  sBreakDeadTimeConfig.LockLevel = TIM_LOCKLEVEL_OFF;
 8000f90:	900a      	str	r0, [sp, #40]	@ 0x28
  sBreakDeadTimeConfig.DeadTime = 0;
 8000f92:	900b      	str	r0, [sp, #44]	@ 0x2c
  sBreakDeadTimeConfig.BreakState = TIM_BREAK_DISABLE;
 8000f94:	019b      	lsls	r3, r3, #6
  sBreakDeadTimeConfig.BreakFilter = 0;
 8000f96:	900e      	str	r0, [sp, #56]	@ 0x38
  sBreakDeadTimeConfig.AutomaticOutput = TIM_AUTOMATICOUTPUT_DISABLE;
 8000f98:	9014      	str	r0, [sp, #80]	@ 0x50
  if (HAL_TIMEx_ConfigBreakDeadTime(&htim16, &sBreakDeadTimeConfig) != HAL_OK)
 8000f9a:	a908      	add	r1, sp, #32
 8000f9c:	0020      	movs	r0, r4
  sBreakDeadTimeConfig.BreakState = TIM_BREAK_DISABLE;
 8000f9e:	920c      	str	r2, [sp, #48]	@ 0x30
 8000fa0:	930d      	str	r3, [sp, #52]	@ 0x34
  if (HAL_TIMEx_ConfigBreakDeadTime(&htim16, &sBreakDeadTimeConfig) != HAL_OK)
 8000fa2:	f005 fea7 	bl	8006cf4 <HAL_TIMEx_ConfigBreakDeadTime>
 8000fa6:	2800      	cmp	r0, #0
 8000fa8:	d001      	beq.n	8000fae <MX_TIM16_Init+0xa2>
 8000faa:	b672      	cpsid	i
  while (1)
 8000fac:	e7fe      	b.n	8000fac <MX_TIM16_Init+0xa0>
}
 8000fae:	b017      	add	sp, #92	@ 0x5c
 8000fb0:	bd30      	pop	{r4, r5, pc}
 8000fb2:	46c0      	nop			@ (mov r8, r8)
 8000fb4:	200008f4 	.word	0x200008f4
 8000fb8:	40014400 	.word	0x40014400

08000fbc <MX_TIM2_Init>:
{
 8000fbc:	b510      	push	{r4, lr}
 8000fbe:	b08c      	sub	sp, #48	@ 0x30
  TIM_ClockConfigTypeDef sClockSourceConfig = {0};
 8000fc0:	2210      	movs	r2, #16
 8000fc2:	2100      	movs	r1, #0
 8000fc4:	a808      	add	r0, sp, #32
 8000fc6:	f006 fdff 	bl	8007bc8 <memset>
  TIM_MasterConfigTypeDef sMasterConfig = {0};
 8000fca:	220c      	movs	r2, #12
 8000fcc:	2100      	movs	r1, #0
 8000fce:	a801      	add	r0, sp, #4
 8000fd0:	f006 fdfa 	bl	8007bc8 <memset>
  TIM_IC_InitTypeDef sConfigIC = {0};
 8000fd4:	2210      	movs	r2, #16
 8000fd6:	2100      	movs	r1, #0
 8000fd8:	a804      	add	r0, sp, #16
 8000fda:	f006 fdf5 	bl	8007bc8 <memset>
  htim2.Instance = TIM2;
 8000fde:	2380      	movs	r3, #128	@ 0x80
 8000fe0:	4c22      	ldr	r4, [pc, #136]	@ (800106c <MX_TIM2_Init+0xb0>)
 8000fe2:	05db      	lsls	r3, r3, #23
 8000fe4:	6023      	str	r3, [r4, #0]
  htim2.Init.Prescaler = 64 - 1;
 8000fe6:	233f      	movs	r3, #63	@ 0x3f
 8000fe8:	6063      	str	r3, [r4, #4]
  htim2.Init.CounterMode = TIM_COUNTERMODE_UP;
 8000fea:	2300      	movs	r3, #0
 8000fec:	60a3      	str	r3, [r4, #8]
  htim2.Init.Period = 2097152 - 1;
 8000fee:	4b20      	ldr	r3, [pc, #128]	@ (8001070 <MX_TIM2_Init+0xb4>)
  if (HAL_TIM_Base_Init(&htim2) != HAL_OK)
 8000ff0:	0020      	movs	r0, r4
  htim2.Init.Period = 2097152 - 1;
 8000ff2:	60e3      	str	r3, [r4, #12]
  htim2.Init.ClockDivision = TIM_CLOCKDIVISION_DIV4;
 8000ff4:	2380      	movs	r3, #128	@ 0x80
 8000ff6:	009b      	lsls	r3, r3, #2
 8000ff8:	6123      	str	r3, [r4, #16]
  htim2.Init.AutoReloadPreload = TIM_AUTORELOAD_PRELOAD_ENABLE;
 8000ffa:	3b81      	subs	r3, #129	@ 0x81
 8000ffc:	3bff      	subs	r3, #255	@ 0xff
 8000ffe:	61a3      	str	r3, [r4, #24]
  if (HAL_TIM_Base_Init(&htim2) != HAL_OK)
 8001000:	f004 faa2 	bl	8005548 <HAL_TIM_Base_Init>
 8001004:	2800      	cmp	r0, #0
 8001006:	d001      	beq.n	800100c <MX_TIM2_Init+0x50>
 8001008:	b672      	cpsid	i
  while (1)
 800100a:	e7fe      	b.n	800100a <MX_TIM2_Init+0x4e>
  sClockSourceConfig.ClockSource = TIM_CLOCKSOURCE_INTERNAL;
 800100c:	2380      	movs	r3, #128	@ 0x80
  if (HAL_TIM_ConfigClockSource(&htim2, &sClockSourceConfig) != HAL_OK)
 800100e:	0020      	movs	r0, r4
  sClockSourceConfig.ClockSource = TIM_CLOCKSOURCE_INTERNAL;
 8001010:	015b      	lsls	r3, r3, #5
  if (HAL_TIM_ConfigClockSource(&htim2, &sClockSourceConfig) != HAL_OK)
 8001012:	a908      	add	r1, sp, #32
  sClockSourceConfig.ClockSource = TIM_CLOCKSOURCE_INTERNAL;
 8001014:	9308      	str	r3, [sp, #32]
  if (HAL_TIM_ConfigClockSource(&htim2, &sClockSourceConfig) != HAL_OK)
 8001016:	f005 fce9 	bl	80069ec <HAL_TIM_ConfigClockSource>
 800101a:	2800      	cmp	r0, #0
 800101c:	d001      	beq.n	8001022 <MX_TIM2_Init+0x66>
 800101e:	b672      	cpsid	i
  while (1)
 8001020:	e7fe      	b.n	8001020 <MX_TIM2_Init+0x64>
  if (HAL_TIM_IC_Init(&htim2) != HAL_OK)
 8001022:	0020      	movs	r0, r4
 8001024:	f004 fec6 	bl	8005db4 <HAL_TIM_IC_Init>
 8001028:	2800      	cmp	r0, #0
 800102a:	d001      	beq.n	8001030 <MX_TIM2_Init+0x74>
 800102c:	b672      	cpsid	i
  while (1)
 800102e:	e7fe      	b.n	800102e <MX_TIM2_Init+0x72>
  sMasterConfig.MasterOutputTrigger = TIM_TRGO_RESET;
 8001030:	9001      	str	r0, [sp, #4]
  sMasterConfig.MasterSlaveMode = TIM_MASTERSLAVEMODE_DISABLE;
 8001032:	9003      	str	r0, [sp, #12]
  if (HAL_TIMEx_MasterConfigSynchronization(&htim2, &sMasterConfig) != HAL_OK)
 8001034:	a901      	add	r1, sp, #4
 8001036:	0020      	movs	r0, r4
 8001038:	f005 fe24 	bl	8006c84 <HAL_TIMEx_MasterConfigSynchronization>
 800103c:	2800      	cmp	r0, #0
 800103e:	d001      	beq.n	8001044 <MX_TIM2_Init+0x88>
 8001040:	b672      	cpsid	i
  while (1)
 8001042:	e7fe      	b.n	8001042 <MX_TIM2_Init+0x86>
  sConfigIC.ICPolarity = TIM_INPUTCHANNELPOLARITY_FALLING;
 8001044:	2202      	movs	r2, #2
 8001046:	2301      	movs	r3, #1
 8001048:	9204      	str	r2, [sp, #16]
 800104a:	9305      	str	r3, [sp, #20]
 800104c:	2200      	movs	r2, #0
 800104e:	230f      	movs	r3, #15
  if (HAL_TIM_IC_ConfigChannel(&htim2, &sConfigIC, TIM_CHANNEL_1) != HAL_OK)
 8001050:	0020      	movs	r0, r4
  sConfigIC.ICPolarity = TIM_INPUTCHANNELPOLARITY_FALLING;
 8001052:	9206      	str	r2, [sp, #24]
 8001054:	9307      	str	r3, [sp, #28]
  if (HAL_TIM_IC_ConfigChannel(&htim2, &sConfigIC, TIM_CHANNEL_1) != HAL_OK)
 8001056:	a904      	add	r1, sp, #16
 8001058:	2200      	movs	r2, #0
 800105a:	f005 fa41 	bl	80064e0 <HAL_TIM_IC_ConfigChannel>
 800105e:	2800      	cmp	r0, #0
 8001060:	d001      	beq.n	8001066 <MX_TIM2_Init+0xaa>
 8001062:	b672      	cpsid	i
  while (1)
 8001064:	e7fe      	b.n	8001064 <MX_TIM2_Init+0xa8>
}
 8001066:	b00c      	add	sp, #48	@ 0x30
 8001068:	bd10      	pop	{r4, pc}
 800106a:	46c0      	nop			@ (mov r8, r8)
 800106c:	20000838 	.word	0x20000838
 8001070:	001fffff 	.word	0x001fffff

08001074 <MX_TIM3_Init>:
{
 8001074:	b510      	push	{r4, lr}
 8001076:	b090      	sub	sp, #64	@ 0x40
  TIM_ClockConfigTypeDef sClockSourceConfig = {0};
 8001078:	2210      	movs	r2, #16
 800107a:	2100      	movs	r1, #0
 800107c:	a804      	add	r0, sp, #16
 800107e:	f006 fda3 	bl	8007bc8 <memset>
  TIM_MasterConfigTypeDef sMasterConfig = {0};
 8001082:	220c      	movs	r2, #12
 8001084:	2100      	movs	r1, #0
 8001086:	a801      	add	r0, sp, #4
 8001088:	f006 fd9e 	bl	8007bc8 <memset>
  TIM_OC_InitTypeDef sConfigOC = {0};
 800108c:	221c      	movs	r2, #28
 800108e:	2100      	movs	r1, #0
 8001090:	a808      	add	r0, sp, #32
 8001092:	f006 fd99 	bl	8007bc8 <memset>
  htim3.Instance = TIM3;
 8001096:	4c23      	ldr	r4, [pc, #140]	@ (8001124 <MX_TIM3_Init+0xb0>)
 8001098:	4b23      	ldr	r3, [pc, #140]	@ (8001128 <MX_TIM3_Init+0xb4>)
  if (HAL_TIM_Base_Init(&htim3) != HAL_OK)
 800109a:	0020      	movs	r0, r4
  htim3.Instance = TIM3;
 800109c:	6023      	str	r3, [r4, #0]
  htim3.Init.Prescaler = (64 * 512) - 1;
 800109e:	4b23      	ldr	r3, [pc, #140]	@ (800112c <MX_TIM3_Init+0xb8>)
 80010a0:	6063      	str	r3, [r4, #4]
  htim3.Init.CounterMode = TIM_COUNTERMODE_UP;
 80010a2:	2300      	movs	r3, #0
 80010a4:	60a3      	str	r3, [r4, #8]
  htim3.Init.Period = 4096 - 1;
 80010a6:	4b22      	ldr	r3, [pc, #136]	@ (8001130 <MX_TIM3_Init+0xbc>)
 80010a8:	60e3      	str	r3, [r4, #12]
  htim3.Init.ClockDivision = TIM_CLOCKDIVISION_DIV4;
 80010aa:	2380      	movs	r3, #128	@ 0x80
 80010ac:	009b      	lsls	r3, r3, #2
 80010ae:	6123      	str	r3, [r4, #16]
  htim3.Init.AutoReloadPreload = TIM_AUTORELOAD_PRELOAD_ENABLE;
 80010b0:	3b81      	subs	r3, #129	@ 0x81
 80010b2:	3bff      	subs	r3, #255	@ 0xff
 80010b4:	61a3      	str	r3, [r4, #24]
  if (HAL_TIM_Base_Init(&htim3) != HAL_OK)
 80010b6:	f004 fa47 	bl	8005548 <HAL_TIM_Base_Init>
 80010ba:	2800      	cmp	r0, #0
 80010bc:	d001      	beq.n	80010c2 <MX_TIM3_Init+0x4e>
 80010be:	b672      	cpsid	i
  while (1)
 80010c0:	e7fe      	b.n	80010c0 <MX_TIM3_Init+0x4c>
  sClockSourceConfig.ClockSource = TIM_CLOCKSOURCE_INTERNAL;
 80010c2:	2380      	movs	r3, #128	@ 0x80
  if (HAL_TIM_ConfigClockSource(&htim3, &sClockSourceConfig) != HAL_OK)
 80010c4:	0020      	movs	r0, r4
  sClockSourceConfig.ClockSource = TIM_CLOCKSOURCE_INTERNAL;
 80010c6:	015b      	lsls	r3, r3, #5
  if (HAL_TIM_ConfigClockSource(&htim3, &sClockSourceConfig) != HAL_OK)
 80010c8:	a904      	add	r1, sp, #16
  sClockSourceConfig.ClockSource = TIM_CLOCKSOURCE_INTERNAL;
 80010ca:	9304      	str	r3, [sp, #16]
  if (HAL_TIM_ConfigClockSource(&htim3, &sClockSourceConfig) != HAL_OK)
 80010cc:	f005 fc8e 	bl	80069ec <HAL_TIM_ConfigClockSource>
 80010d0:	2800      	cmp	r0, #0
 80010d2:	d001      	beq.n	80010d8 <MX_TIM3_Init+0x64>
 80010d4:	b672      	cpsid	i
  while (1)
 80010d6:	e7fe      	b.n	80010d6 <MX_TIM3_Init+0x62>
  if (HAL_TIM_OC_Init(&htim3) != HAL_OK)
 80010d8:	0020      	movs	r0, r4
 80010da:	f004 fb6b 	bl	80057b4 <HAL_TIM_OC_Init>
 80010de:	2800      	cmp	r0, #0
 80010e0:	d001      	beq.n	80010e6 <MX_TIM3_Init+0x72>
 80010e2:	b672      	cpsid	i
  while (1)
 80010e4:	e7fe      	b.n	80010e4 <MX_TIM3_Init+0x70>
  sMasterConfig.MasterOutputTrigger = TIM_TRGO_RESET;
 80010e6:	9001      	str	r0, [sp, #4]
  sMasterConfig.MasterSlaveMode = TIM_MASTERSLAVEMODE_DISABLE;
 80010e8:	9003      	str	r0, [sp, #12]
  if (HAL_TIMEx_MasterConfigSynchronization(&htim3, &sMasterConfig) != HAL_OK)
 80010ea:	a901      	add	r1, sp, #4
 80010ec:	0020      	movs	r0, r4
 80010ee:	f005 fdc9 	bl	8006c84 <HAL_TIMEx_MasterConfigSynchronization>
 80010f2:	2800      	cmp	r0, #0
 80010f4:	d001      	beq.n	80010fa <MX_TIM3_Init+0x86>
 80010f6:	b672      	cpsid	i
  while (1)
 80010f8:	e7fe      	b.n	80010f8 <MX_TIM3_Init+0x84>
  sConfigOC.OCMode = TIM_OCMODE_TIMING;
 80010fa:	2200      	movs	r2, #0
 80010fc:	2300      	movs	r3, #0
  sConfigOC.OCPolarity = TIM_OCPOLARITY_HIGH;
 80010fe:	900a      	str	r0, [sp, #40]	@ 0x28
  sConfigOC.OCFastMode = TIM_OCFAST_DISABLE;
 8001100:	900c      	str	r0, [sp, #48]	@ 0x30
  if (HAL_TIM_OC_ConfigChannel(&htim3, &sConfigOC, TIM_CHANNEL_1) != HAL_OK)
 8001102:	a908      	add	r1, sp, #32
 8001104:	0020      	movs	r0, r4
  sConfigOC.OCMode = TIM_OCMODE_TIMING;
 8001106:	9208      	str	r2, [sp, #32]
 8001108:	9309      	str	r3, [sp, #36]	@ 0x24
  if (HAL_TIM_OC_ConfigChannel(&htim3, &sConfigOC, TIM_CHANNEL_1) != HAL_OK)
 800110a:	f005 f893 	bl	8006234 <HAL_TIM_OC_ConfigChannel>
 800110e:	2800      	cmp	r0, #0
 8001110:	d001      	beq.n	8001116 <MX_TIM3_Init+0xa2>
 8001112:	b672      	cpsid	i
  while (1)
 8001114:	e7fe      	b.n	8001114 <MX_TIM3_Init+0xa0>
  __HAL_TIM_DISABLE_OCxPRELOAD(&htim3, TIM_CHANNEL_1);
 8001116:	2108      	movs	r1, #8
 8001118:	6822      	ldr	r2, [r4, #0]
 800111a:	6993      	ldr	r3, [r2, #24]
 800111c:	438b      	bics	r3, r1
 800111e:	6193      	str	r3, [r2, #24]
}
 8001120:	b010      	add	sp, #64	@ 0x40
 8001122:	bd10      	pop	{r4, pc}
 8001124:	2000077c 	.word	0x2000077c
 8001128:	40000400 	.word	0x40000400
 800112c:	00007fff 	.word	0x00007fff
 8001130:	00000fff 	.word	0x00000fff

08001134 <MX_TIM1_Init>:
{
 8001134:	b5d0      	push	{r4, r6, r7, lr}
 8001136:	b09c      	sub	sp, #112	@ 0x70
  TIM_ClockConfigTypeDef sClockSourceConfig = {0};
 8001138:	2210      	movs	r2, #16
 800113a:	2100      	movs	r1, #0
 800113c:	a804      	add	r0, sp, #16
 800113e:	f006 fd43 	bl	8007bc8 <memset>
  TIM_MasterConfigTypeDef sMasterConfig = {0};
 8001142:	220c      	movs	r2, #12
 8001144:	2100      	movs	r1, #0
 8001146:	4668      	mov	r0, sp
 8001148:	f006 fd3e 	bl	8007bc8 <memset>
  TIM_OC_InitTypeDef sConfigOC = {0};
 800114c:	221c      	movs	r2, #28
 800114e:	2100      	movs	r1, #0
 8001150:	a808      	add	r0, sp, #32
 8001152:	f006 fd39 	bl	8007bc8 <memset>
  TIM_BreakDeadTimeConfigTypeDef sBreakDeadTimeConfig = {0};
 8001156:	2234      	movs	r2, #52	@ 0x34
 8001158:	2100      	movs	r1, #0
 800115a:	a80f      	add	r0, sp, #60	@ 0x3c
 800115c:	f006 fd34 	bl	8007bc8 <memset>
  htim1.Instance = TIM1;
 8001160:	4c3a      	ldr	r4, [pc, #232]	@ (800124c <MX_TIM1_Init+0x118>)
 8001162:	4b3b      	ldr	r3, [pc, #236]	@ (8001250 <MX_TIM1_Init+0x11c>)
  htim1.Init.Period = 1024 - 1;
 8001164:	4a3b      	ldr	r2, [pc, #236]	@ (8001254 <MX_TIM1_Init+0x120>)
  htim1.Instance = TIM1;
 8001166:	6023      	str	r3, [r4, #0]
  htim1.Init.Period = 1024 - 1;
 8001168:	60e2      	str	r2, [r4, #12]
  htim1.Init.Prescaler = 0;
 800116a:	2300      	movs	r3, #0
  htim1.Init.ClockDivision = TIM_CLOCKDIVISION_DIV2;
 800116c:	2280      	movs	r2, #128	@ 0x80
  htim1.Init.Prescaler = 0;
 800116e:	6063      	str	r3, [r4, #4]
  htim1.Init.CounterMode = TIM_COUNTERMODE_UP;
 8001170:	60a3      	str	r3, [r4, #8]
  htim1.Init.ClockDivision = TIM_CLOCKDIVISION_DIV2;
 8001172:	0052      	lsls	r2, r2, #1
  htim1.Init.RepetitionCounter = 0;
 8001174:	6163      	str	r3, [r4, #20]
  if (HAL_TIM_Base_Init(&htim1) != HAL_OK)
 8001176:	0020      	movs	r0, r4
  htim1.Init.AutoReloadPreload = TIM_AUTORELOAD_PRELOAD_ENABLE;
 8001178:	3380      	adds	r3, #128	@ 0x80
  htim1.Init.ClockDivision = TIM_CLOCKDIVISION_DIV2;
 800117a:	6122      	str	r2, [r4, #16]
  htim1.Init.AutoReloadPreload = TIM_AUTORELOAD_PRELOAD_ENABLE;
 800117c:	61a3      	str	r3, [r4, #24]
  if (HAL_TIM_Base_Init(&htim1) != HAL_OK)
 800117e:	f004 f9e3 	bl	8005548 <HAL_TIM_Base_Init>
 8001182:	2800      	cmp	r0, #0
 8001184:	d001      	beq.n	800118a <MX_TIM1_Init+0x56>
 8001186:	b672      	cpsid	i
  while (1)
 8001188:	e7fe      	b.n	8001188 <MX_TIM1_Init+0x54>
  sClockSourceConfig.ClockSource = TIM_CLOCKSOURCE_INTERNAL;
 800118a:	2380      	movs	r3, #128	@ 0x80
  if (HAL_TIM_ConfigClockSource(&htim1, &sClockSourceConfig) != HAL_OK)
 800118c:	0020      	movs	r0, r4
  sClockSourceConfig.ClockSource = TIM_CLOCKSOURCE_INTERNAL;
 800118e:	015b      	lsls	r3, r3, #5
  if (HAL_TIM_ConfigClockSource(&htim1, &sClockSourceConfig) != HAL_OK)
 8001190:	a904      	add	r1, sp, #16
  sClockSourceConfig.ClockSource = TIM_CLOCKSOURCE_INTERNAL;
 8001192:	9304      	str	r3, [sp, #16]
  if (HAL_TIM_ConfigClockSource(&htim1, &sClockSourceConfig) != HAL_OK)
 8001194:	f005 fc2a 	bl	80069ec <HAL_TIM_ConfigClockSource>
 8001198:	2800      	cmp	r0, #0
 800119a:	d001      	beq.n	80011a0 <MX_TIM1_Init+0x6c>
 800119c:	b672      	cpsid	i
  while (1)
 800119e:	e7fe      	b.n	800119e <MX_TIM1_Init+0x6a>
  if (HAL_TIM_PWM_Init(&htim1) != HAL_OK)
 80011a0:	0020      	movs	r0, r4
 80011a2:	f004 fcc9 	bl	8005b38 <HAL_TIM_PWM_Init>
 80011a6:	2800      	cmp	r0, #0
 80011a8:	d001      	beq.n	80011ae <MX_TIM1_Init+0x7a>
 80011aa:	b672      	cpsid	i
  while (1)
 80011ac:	e7fe      	b.n	80011ac <MX_TIM1_Init+0x78>
  sMasterConfig.MasterOutputTrigger = TIM_TRGO_RESET;
 80011ae:	2600      	movs	r6, #0
 80011b0:	2700      	movs	r7, #0
  sMasterConfig.MasterSlaveMode = TIM_MASTERSLAVEMODE_DISABLE;
 80011b2:	9002      	str	r0, [sp, #8]
  if (HAL_TIMEx_MasterConfigSynchronization(&htim1, &sMasterConfig) != HAL_OK)
 80011b4:	4669      	mov	r1, sp
 80011b6:	0020      	movs	r0, r4
  sMasterConfig.MasterOutputTrigger = TIM_TRGO_RESET;
 80011b8:	9600      	str	r6, [sp, #0]
 80011ba:	9701      	str	r7, [sp, #4]
  if (HAL_TIMEx_MasterConfigSynchronization(&htim1, &sMasterConfig) != HAL_OK)
 80011bc:	f005 fd62 	bl	8006c84 <HAL_TIMEx_MasterConfigSynchronization>
 80011c0:	2800      	cmp	r0, #0
 80011c2:	d001      	beq.n	80011c8 <MX_TIM1_Init+0x94>
 80011c4:	b672      	cpsid	i
  while (1)
 80011c6:	e7fe      	b.n	80011c6 <MX_TIM1_Init+0x92>
  sConfigOC.OCMode = TIM_OCMODE_PWM1;
 80011c8:	2360      	movs	r3, #96	@ 0x60
  sConfigOC.Pulse = 0;
 80011ca:	9009      	str	r0, [sp, #36]	@ 0x24
  sConfigOC.OCPolarity = TIM_OCPOLARITY_HIGH;
 80011cc:	900a      	str	r0, [sp, #40]	@ 0x28
  sConfigOC.OCNPolarity = TIM_OCNPOLARITY_HIGH;
 80011ce:	900b      	str	r0, [sp, #44]	@ 0x2c
  sConfigOC.OCNIdleState = TIM_OCNIDLESTATE_RESET;
 80011d0:	900e      	str	r0, [sp, #56]	@ 0x38
  if (HAL_TIM_PWM_ConfigChannel(&htim1, &sConfigOC, TIM_CHANNEL_2) != HAL_OK)
 80011d2:	2204      	movs	r2, #4
 80011d4:	0020      	movs	r0, r4
 80011d6:	a908      	add	r1, sp, #32
  sConfigOC.OCFastMode = TIM_OCFAST_DISABLE;
 80011d8:	960c      	str	r6, [sp, #48]	@ 0x30
 80011da:	970d      	str	r7, [sp, #52]	@ 0x34
  sConfigOC.OCMode = TIM_OCMODE_PWM1;
 80011dc:	9308      	str	r3, [sp, #32]
  if (HAL_TIM_PWM_ConfigChannel(&htim1, &sConfigOC, TIM_CHANNEL_2) != HAL_OK)
 80011de:	f005 fa5d 	bl	800669c <HAL_TIM_PWM_ConfigChannel>
 80011e2:	2800      	cmp	r0, #0
 80011e4:	d001      	beq.n	80011ea <MX_TIM1_Init+0xb6>
 80011e6:	b672      	cpsid	i
  while (1)
 80011e8:	e7fe      	b.n	80011e8 <MX_TIM1_Init+0xb4>
  __HAL_TIM_DISABLE_OCxPRELOAD(&htim1, TIM_CHANNEL_2);
 80011ea:	6822      	ldr	r2, [r4, #0]
 80011ec:	4e1a      	ldr	r6, [pc, #104]	@ (8001258 <MX_TIM1_Init+0x124>)
 80011ee:	6993      	ldr	r3, [r2, #24]
  if (HAL_TIM_PWM_ConfigChannel(&htim1, &sConfigOC, TIM_CHANNEL_4) != HAL_OK)
 80011f0:	0020      	movs	r0, r4
  __HAL_TIM_DISABLE_OCxPRELOAD(&htim1, TIM_CHANNEL_2);
 80011f2:	4033      	ands	r3, r6
 80011f4:	6193      	str	r3, [r2, #24]
  if (HAL_TIM_PWM_ConfigChannel(&htim1, &sConfigOC, TIM_CHANNEL_4) != HAL_OK)
 80011f6:	a908      	add	r1, sp, #32
 80011f8:	220c      	movs	r2, #12
 80011fa:	f005 fa4f 	bl	800669c <HAL_TIM_PWM_ConfigChannel>
 80011fe:	2800      	cmp	r0, #0
 8001200:	d001      	beq.n	8001206 <MX_TIM1_Init+0xd2>
 8001202:	b672      	cpsid	i
  while (1)
 8001204:	e7fe      	b.n	8001204 <MX_TIM1_Init+0xd0>
  __HAL_TIM_DISABLE_OCxPRELOAD(&htim1, TIM_CHANNEL_4);
 8001206:	6822      	ldr	r2, [r4, #0]
  sBreakDeadTimeConfig.OffStateRunMode = TIM_OSSR_DISABLE;
 8001208:	900f      	str	r0, [sp, #60]	@ 0x3c
  __HAL_TIM_DISABLE_OCxPRELOAD(&htim1, TIM_CHANNEL_4);
 800120a:	69d3      	ldr	r3, [r2, #28]
  sBreakDeadTimeConfig.OffStateIDLEMode = TIM_OSSI_DISABLE;
 800120c:	9010      	str	r0, [sp, #64]	@ 0x40
  __HAL_TIM_DISABLE_OCxPRELOAD(&htim1, TIM_CHANNEL_4);
 800120e:	4033      	ands	r3, r6
 8001210:	61d3      	str	r3, [r2, #28]
  sBreakDeadTimeConfig.BreakPolarity = TIM_BREAKPOLARITY_HIGH;
 8001212:	2380      	movs	r3, #128	@ 0x80
 8001214:	019b      	lsls	r3, r3, #6
 8001216:	9314      	str	r3, [sp, #80]	@ 0x50
  sBreakDeadTimeConfig.Break2Polarity = TIM_BREAK2POLARITY_HIGH;
 8001218:	2380      	movs	r3, #128	@ 0x80
  sBreakDeadTimeConfig.LockLevel = TIM_LOCKLEVEL_OFF;
 800121a:	9011      	str	r0, [sp, #68]	@ 0x44
  sBreakDeadTimeConfig.DeadTime = 0;
 800121c:	9012      	str	r0, [sp, #72]	@ 0x48
  sBreakDeadTimeConfig.BreakState = TIM_BREAK_DISABLE;
 800121e:	9013      	str	r0, [sp, #76]	@ 0x4c
  sBreakDeadTimeConfig.BreakFilter = 0;
 8001220:	9015      	str	r0, [sp, #84]	@ 0x54
  sBreakDeadTimeConfig.BreakAFMode = TIM_BREAK_AFMODE_INPUT;
 8001222:	9016      	str	r0, [sp, #88]	@ 0x58
  sBreakDeadTimeConfig.Break2State = TIM_BREAK2_DISABLE;
 8001224:	9017      	str	r0, [sp, #92]	@ 0x5c
  sBreakDeadTimeConfig.Break2Polarity = TIM_BREAK2POLARITY_HIGH;
 8001226:	049b      	lsls	r3, r3, #18
  sBreakDeadTimeConfig.Break2Filter = 0;
 8001228:	9019      	str	r0, [sp, #100]	@ 0x64
  sBreakDeadTimeConfig.Break2AFMode = TIM_BREAK_AFMODE_INPUT;
 800122a:	901a      	str	r0, [sp, #104]	@ 0x68
  sBreakDeadTimeConfig.AutomaticOutput = TIM_AUTOMATICOUTPUT_DISABLE;
 800122c:	901b      	str	r0, [sp, #108]	@ 0x6c
  if (HAL_TIMEx_ConfigBreakDeadTime(&htim1, &sBreakDeadTimeConfig) != HAL_OK)
 800122e:	a90f      	add	r1, sp, #60	@ 0x3c
 8001230:	0020      	movs	r0, r4
  sBreakDeadTimeConfig.Break2Polarity = TIM_BREAK2POLARITY_HIGH;
 8001232:	9318      	str	r3, [sp, #96]	@ 0x60
  if (HAL_TIMEx_ConfigBreakDeadTime(&htim1, &sBreakDeadTimeConfig) != HAL_OK)
 8001234:	f005 fd5e 	bl	8006cf4 <HAL_TIMEx_ConfigBreakDeadTime>
 8001238:	2800      	cmp	r0, #0
 800123a:	d001      	beq.n	8001240 <MX_TIM1_Init+0x10c>
 800123c:	b672      	cpsid	i
  while (1)
 800123e:	e7fe      	b.n	800123e <MX_TIM1_Init+0x10a>
  HAL_TIM_MspPostInit(&htim1);
 8001240:	0020      	movs	r0, r4
 8001242:	f001 fdcf 	bl	8002de4 <HAL_TIM_MspPostInit>
}
 8001246:	b01c      	add	sp, #112	@ 0x70
 8001248:	bdd0      	pop	{r4, r6, r7, pc}
 800124a:	46c0      	nop			@ (mov r8, r8)
 800124c:	200006c0 	.word	0x200006c0
 8001250:	40012c00 	.word	0x40012c00
 8001254:	000003ff 	.word	0x000003ff
 8001258:	fffff7ff 	.word	0xfffff7ff

0800125c <MX_TIM17_Init>:
{
 800125c:	b510      	push	{r4, lr}
 800125e:	b096      	sub	sp, #88	@ 0x58
  TIM_OC_InitTypeDef sConfigOC = {0};
 8001260:	221c      	movs	r2, #28
 8001262:	2100      	movs	r1, #0
 8001264:	4668      	mov	r0, sp
 8001266:	f006 fcaf 	bl	8007bc8 <memset>
  TIM_BreakDeadTimeConfigTypeDef sBreakDeadTimeConfig = {0};
 800126a:	2234      	movs	r2, #52	@ 0x34
 800126c:	2100      	movs	r1, #0
 800126e:	a808      	add	r0, sp, #32
 8001270:	f006 fcaa 	bl	8007bc8 <memset>
  htim17.Instance = TIM17;
 8001274:	4c23      	ldr	r4, [pc, #140]	@ (8001304 <MX_TIM17_Init+0xa8>)
 8001276:	4b24      	ldr	r3, [pc, #144]	@ (8001308 <MX_TIM17_Init+0xac>)
  htim17.Init.ClockDivision = TIM_CLOCKDIVISION_DIV4;
 8001278:	2280      	movs	r2, #128	@ 0x80
  htim17.Instance = TIM17;
 800127a:	6023      	str	r3, [r4, #0]
  htim17.Init.Prescaler = (512*64)- 1;
 800127c:	4b23      	ldr	r3, [pc, #140]	@ (800130c <MX_TIM17_Init+0xb0>)
  htim17.Init.ClockDivision = TIM_CLOCKDIVISION_DIV4;
 800127e:	0092      	lsls	r2, r2, #2
  htim17.Init.Prescaler = (512*64)- 1;
 8001280:	6063      	str	r3, [r4, #4]
  htim17.Init.CounterMode = TIM_COUNTERMODE_UP;
 8001282:	2300      	movs	r3, #0
  if (HAL_TIM_Base_Init(&htim17) != HAL_OK)
 8001284:	0020      	movs	r0, r4
  htim17.Init.CounterMode = TIM_COUNTERMODE_UP;
 8001286:	60a3      	str	r3, [r4, #8]
  htim17.Init.Period = 0;
 8001288:	60e3      	str	r3, [r4, #12]
  htim17.Init.RepetitionCounter = 0;
 800128a:	6163      	str	r3, [r4, #20]
  htim17.Init.AutoReloadPreload = TIM_AUTORELOAD_PRELOAD_ENABLE;
 800128c:	3380      	adds	r3, #128	@ 0x80
  htim17.Init.ClockDivision = TIM_CLOCKDIVISION_DIV4;
 800128e:	6122      	str	r2, [r4, #16]
  htim17.Init.AutoReloadPreload = TIM_AUTORELOAD_PRELOAD_ENABLE;
 8001290:	61a3      	str	r3, [r4, #24]
  if (HAL_TIM_Base_Init(&htim17) != HAL_OK)
 8001292:	f004 f959 	bl	8005548 <HAL_TIM_Base_Init>
 8001296:	2800      	cmp	r0, #0
 8001298:	d001      	beq.n	800129e <MX_TIM17_Init+0x42>
 800129a:	b672      	cpsid	i
  while (1)
 800129c:	e7fe      	b.n	800129c <MX_TIM17_Init+0x40>
  if (HAL_TIM_OC_Init(&htim17) != HAL_OK)
 800129e:	0020      	movs	r0, r4
 80012a0:	f004 fa88 	bl	80057b4 <HAL_TIM_OC_Init>
 80012a4:	2800      	cmp	r0, #0
 80012a6:	d001      	beq.n	80012ac <MX_TIM17_Init+0x50>
 80012a8:	b672      	cpsid	i
  while (1)
 80012aa:	e7fe      	b.n	80012aa <MX_TIM17_Init+0x4e>
  sConfigOC.OCFastMode = TIM_OCFAST_DISABLE;
 80012ac:	2200      	movs	r2, #0
 80012ae:	2300      	movs	r3, #0
  sConfigOC.OCMode = TIM_OCMODE_TIMING;
 80012b0:	9000      	str	r0, [sp, #0]
  sConfigOC.Pulse = 0;
 80012b2:	9001      	str	r0, [sp, #4]
  sConfigOC.OCPolarity = TIM_OCPOLARITY_HIGH;
 80012b4:	9002      	str	r0, [sp, #8]
  sConfigOC.OCNPolarity = TIM_OCNPOLARITY_HIGH;
 80012b6:	9003      	str	r0, [sp, #12]
  sConfigOC.OCNIdleState = TIM_OCNIDLESTATE_RESET;
 80012b8:	9006      	str	r0, [sp, #24]
  if (HAL_TIM_OC_ConfigChannel(&htim17, &sConfigOC, TIM_CHANNEL_1) != HAL_OK)
 80012ba:	4669      	mov	r1, sp
 80012bc:	0020      	movs	r0, r4
  sConfigOC.OCFastMode = TIM_OCFAST_DISABLE;
 80012be:	9204      	str	r2, [sp, #16]
 80012c0:	9305      	str	r3, [sp, #20]
  if (HAL_TIM_OC_ConfigChannel(&htim17, &sConfigOC, TIM_CHANNEL_1) != HAL_OK)
 80012c2:	f004 ffb7 	bl	8006234 <HAL_TIM_OC_ConfigChannel>
 80012c6:	2800      	cmp	r0, #0
 80012c8:	d001      	beq.n	80012ce <MX_TIM17_Init+0x72>
 80012ca:	b672      	cpsid	i
  while (1)
 80012cc:	e7fe      	b.n	80012cc <MX_TIM17_Init+0x70>
  __HAL_TIM_ENABLE_OCxPRELOAD(&htim17, TIM_CHANNEL_1);
 80012ce:	2108      	movs	r1, #8
 80012d0:	6822      	ldr	r2, [r4, #0]
  sBreakDeadTimeConfig.OffStateRunMode = TIM_OSSR_DISABLE;
 80012d2:	9008      	str	r0, [sp, #32]
  __HAL_TIM_ENABLE_OCxPRELOAD(&htim17, TIM_CHANNEL_1);
 80012d4:	6993      	ldr	r3, [r2, #24]
  sBreakDeadTimeConfig.OffStateIDLEMode = TIM_OSSI_DISABLE;
 80012d6:	9009      	str	r0, [sp, #36]	@ 0x24
  __HAL_TIM_ENABLE_OCxPRELOAD(&htim17, TIM_CHANNEL_1);
 80012d8:	430b      	orrs	r3, r1
 80012da:	6193      	str	r3, [r2, #24]
  sBreakDeadTimeConfig.BreakState = TIM_BREAK_DISABLE;
 80012dc:	2380      	movs	r3, #128	@ 0x80
 80012de:	2200      	movs	r2, #0
  sBreakDeadTimeConfig.LockLevel = TIM_LOCKLEVEL_OFF;
 80012e0:	900a      	str	r0, [sp, #40]	@ 0x28
  sBreakDeadTimeConfig.DeadTime = 0;
 80012e2:	900b      	str	r0, [sp, #44]	@ 0x2c
  sBreakDeadTimeConfig.BreakState = TIM_BREAK_DISABLE;
 80012e4:	019b      	lsls	r3, r3, #6
  sBreakDeadTimeConfig.BreakFilter = 0;
 80012e6:	900e      	str	r0, [sp, #56]	@ 0x38
  sBreakDeadTimeConfig.AutomaticOutput = TIM_AUTOMATICOUTPUT_DISABLE;
 80012e8:	9014      	str	r0, [sp, #80]	@ 0x50
  if (HAL_TIMEx_ConfigBreakDeadTime(&htim17, &sBreakDeadTimeConfig) != HAL_OK)
 80012ea:	a908      	add	r1, sp, #32
 80012ec:	0020      	movs	r0, r4
  sBreakDeadTimeConfig.BreakState = TIM_BREAK_DISABLE;
 80012ee:	920c      	str	r2, [sp, #48]	@ 0x30
 80012f0:	930d      	str	r3, [sp, #52]	@ 0x34
  if (HAL_TIMEx_ConfigBreakDeadTime(&htim17, &sBreakDeadTimeConfig) != HAL_OK)
 80012f2:	f005 fcff 	bl	8006cf4 <HAL_TIMEx_ConfigBreakDeadTime>
 80012f6:	2800      	cmp	r0, #0
 80012f8:	d001      	beq.n	80012fe <MX_TIM17_Init+0xa2>
 80012fa:	b672      	cpsid	i
  while (1)
 80012fc:	e7fe      	b.n	80012fc <MX_TIM17_Init+0xa0>
}
 80012fe:	b016      	add	sp, #88	@ 0x58
 8001300:	bd10      	pop	{r4, pc}
 8001302:	46c0      	nop			@ (mov r8, r8)
 8001304:	200009b0 	.word	0x200009b0
 8001308:	40014800 	.word	0x40014800
 800130c:	00007fff 	.word	0x00007fff

08001310 <MX_TIM14_Init>:
{
 8001310:	b510      	push	{r4, lr}
 8001312:	b088      	sub	sp, #32
  TIM_OC_InitTypeDef sConfigOC = {0};
 8001314:	221c      	movs	r2, #28
 8001316:	2100      	movs	r1, #0
 8001318:	4668      	mov	r0, sp
 800131a:	f006 fc55 	bl	8007bc8 <memset>
  htim14.Instance = TIM14;
 800131e:	4c15      	ldr	r4, [pc, #84]	@ (8001374 <MX_TIM14_Init+0x64>)
 8001320:	4b15      	ldr	r3, [pc, #84]	@ (8001378 <MX_TIM14_Init+0x68>)
  htim14.Init.ClockDivision = TIM_CLOCKDIVISION_DIV4;
 8001322:	2280      	movs	r2, #128	@ 0x80
  htim14.Instance = TIM14;
 8001324:	6023      	str	r3, [r4, #0]
  htim14.Init.Prescaler = (512 * 64) - 1;
 8001326:	4b15      	ldr	r3, [pc, #84]	@ (800137c <MX_TIM14_Init+0x6c>)
  htim14.Init.ClockDivision = TIM_CLOCKDIVISION_DIV4;
 8001328:	0092      	lsls	r2, r2, #2
  htim14.Init.Prescaler = (512 * 64) - 1;
 800132a:	6063      	str	r3, [r4, #4]
  htim14.Init.CounterMode = TIM_COUNTERMODE_UP;
 800132c:	2300      	movs	r3, #0
  if (HAL_TIM_Base_Init(&htim14) != HAL_OK)
 800132e:	0020      	movs	r0, r4
  htim14.Init.CounterMode = TIM_COUNTERMODE_UP;
 8001330:	60a3      	str	r3, [r4, #8]
  htim14.Init.Period = 0;
 8001332:	60e3      	str	r3, [r4, #12]
  htim14.Init.ClockDivision = TIM_CLOCKDIVISION_DIV4;
 8001334:	6122      	str	r2, [r4, #16]
  htim14.Init.AutoReloadPreload = TIM_AUTORELOAD_PRELOAD_DISABLE;
 8001336:	61a3      	str	r3, [r4, #24]
  if (HAL_TIM_Base_Init(&htim14) != HAL_OK)
 8001338:	f004 f906 	bl	8005548 <HAL_TIM_Base_Init>
 800133c:	2800      	cmp	r0, #0
 800133e:	d001      	beq.n	8001344 <MX_TIM14_Init+0x34>
 8001340:	b672      	cpsid	i
  while (1)
 8001342:	e7fe      	b.n	8001342 <MX_TIM14_Init+0x32>
  if (HAL_TIM_OC_Init(&htim14) != HAL_OK)
 8001344:	0020      	movs	r0, r4
 8001346:	f004 fa35 	bl	80057b4 <HAL_TIM_OC_Init>
 800134a:	2800      	cmp	r0, #0
 800134c:	d001      	beq.n	8001352 <MX_TIM14_Init+0x42>
 800134e:	b672      	cpsid	i
  while (1)
 8001350:	e7fe      	b.n	8001350 <MX_TIM14_Init+0x40>
  sConfigOC.OCMode = TIM_OCMODE_TIMING;
 8001352:	2200      	movs	r2, #0
 8001354:	2300      	movs	r3, #0
  sConfigOC.OCPolarity = TIM_OCPOLARITY_HIGH;
 8001356:	9002      	str	r0, [sp, #8]
  sConfigOC.OCFastMode = TIM_OCFAST_DISABLE;
 8001358:	9004      	str	r0, [sp, #16]
  if (HAL_TIM_OC_ConfigChannel(&htim14, &sConfigOC, TIM_CHANNEL_1) != HAL_OK)
 800135a:	4669      	mov	r1, sp
 800135c:	0020      	movs	r0, r4
  sConfigOC.OCMode = TIM_OCMODE_TIMING;
 800135e:	9200      	str	r2, [sp, #0]
 8001360:	9301      	str	r3, [sp, #4]
  if (HAL_TIM_OC_ConfigChannel(&htim14, &sConfigOC, TIM_CHANNEL_1) != HAL_OK)
 8001362:	f004 ff67 	bl	8006234 <HAL_TIM_OC_ConfigChannel>
 8001366:	2800      	cmp	r0, #0
 8001368:	d001      	beq.n	800136e <MX_TIM14_Init+0x5e>
 800136a:	b672      	cpsid	i
  while (1)
 800136c:	e7fe      	b.n	800136c <MX_TIM14_Init+0x5c>
}
 800136e:	b008      	add	sp, #32
 8001370:	bd10      	pop	{r4, pc}
 8001372:	46c0      	nop			@ (mov r8, r8)
 8001374:	20000a6c 	.word	0x20000a6c
 8001378:	40002000 	.word	0x40002000
 800137c:	00007fff 	.word	0x00007fff

08001380 <MX_GPIO_Init>:
{
 8001380:	b5f0      	push	{r4, r5, r6, r7, lr}
 8001382:	46ce      	mov	lr, r9
 8001384:	4647      	mov	r7, r8
 8001386:	b580      	push	{r7, lr}
 8001388:	b08b      	sub	sp, #44	@ 0x2c
  GPIO_InitTypeDef GPIO_InitStruct = {0};
 800138a:	2214      	movs	r2, #20
 800138c:	2100      	movs	r1, #0
 800138e:	a804      	add	r0, sp, #16
 8001390:	f006 fc1a 	bl	8007bc8 <memset>
  __HAL_RCC_GPIOC_CLK_ENABLE();
 8001394:	2204      	movs	r2, #4
 8001396:	4b44      	ldr	r3, [pc, #272]	@ (80014a8 <MX_GPIO_Init+0x128>)
  __HAL_RCC_GPIOA_CLK_ENABLE();
 8001398:	2501      	movs	r5, #1
  __HAL_RCC_GPIOC_CLK_ENABLE();
 800139a:	6b59      	ldr	r1, [r3, #52]	@ 0x34
  __HAL_RCC_GPIOB_CLK_ENABLE();
 800139c:	2702      	movs	r7, #2
  __HAL_RCC_GPIOC_CLK_ENABLE();
 800139e:	4311      	orrs	r1, r2
 80013a0:	6359      	str	r1, [r3, #52]	@ 0x34
 80013a2:	6b59      	ldr	r1, [r3, #52]	@ 0x34
  GPIO_InitStruct.Pull = GPIO_NOPULL;
 80013a4:	2400      	movs	r4, #0
  __HAL_RCC_GPIOC_CLK_ENABLE();
 80013a6:	400a      	ands	r2, r1
 80013a8:	9200      	str	r2, [sp, #0]
 80013aa:	9a00      	ldr	r2, [sp, #0]
  __HAL_RCC_GPIOF_CLK_ENABLE();
 80013ac:	2220      	movs	r2, #32
 80013ae:	6b59      	ldr	r1, [r3, #52]	@ 0x34
  HAL_GPIO_Init(SW_OUT_GPIO_Port, &GPIO_InitStruct);
 80013b0:	26a0      	movs	r6, #160	@ 0xa0
  __HAL_RCC_GPIOF_CLK_ENABLE();
 80013b2:	4311      	orrs	r1, r2
 80013b4:	6359      	str	r1, [r3, #52]	@ 0x34
 80013b6:	6b59      	ldr	r1, [r3, #52]	@ 0x34
  HAL_GPIO_Init(SW_OUT_GPIO_Port, &GPIO_InitStruct);
 80013b8:	05f6      	lsls	r6, r6, #23
  __HAL_RCC_GPIOF_CLK_ENABLE();
 80013ba:	400a      	ands	r2, r1
 80013bc:	9201      	str	r2, [sp, #4]
 80013be:	9a01      	ldr	r2, [sp, #4]
  __HAL_RCC_GPIOA_CLK_ENABLE();
 80013c0:	6b5a      	ldr	r2, [r3, #52]	@ 0x34
  HAL_GPIO_WritePin(LD3_GPIO_Port, LD3_Pin, GPIO_PIN_RESET);
 80013c2:	2140      	movs	r1, #64	@ 0x40
  __HAL_RCC_GPIOA_CLK_ENABLE();
 80013c4:	432a      	orrs	r2, r5
 80013c6:	635a      	str	r2, [r3, #52]	@ 0x34
 80013c8:	6b5a      	ldr	r2, [r3, #52]	@ 0x34
 80013ca:	402a      	ands	r2, r5
 80013cc:	9202      	str	r2, [sp, #8]
 80013ce:	9a02      	ldr	r2, [sp, #8]
  __HAL_RCC_GPIOB_CLK_ENABLE();
 80013d0:	6b5a      	ldr	r2, [r3, #52]	@ 0x34
 80013d2:	433a      	orrs	r2, r7
 80013d4:	635a      	str	r2, [r3, #52]	@ 0x34
 80013d6:	6b5b      	ldr	r3, [r3, #52]	@ 0x34
  HAL_GPIO_WritePin(LD3_GPIO_Port, LD3_Pin, GPIO_PIN_RESET);
 80013d8:	2200      	movs	r2, #0
  __HAL_RCC_GPIOB_CLK_ENABLE();
 80013da:	403b      	ands	r3, r7
 80013dc:	9303      	str	r3, [sp, #12]
 80013de:	9b03      	ldr	r3, [sp, #12]
  HAL_GPIO_WritePin(LD3_GPIO_Port, LD3_Pin, GPIO_PIN_RESET);
 80013e0:	4b32      	ldr	r3, [pc, #200]	@ (80014ac <MX_GPIO_Init+0x12c>)
 80013e2:	0018      	movs	r0, r3
 80013e4:	4699      	mov	r9, r3
 80013e6:	f003 f941 	bl	800466c <HAL_GPIO_WritePin>
  GPIO_InitStruct.Pin = T_NRST_Pin;
 80013ea:	2388      	movs	r3, #136	@ 0x88
 80013ec:	2204      	movs	r2, #4
 80013ee:	035b      	lsls	r3, r3, #13
  HAL_GPIO_Init(T_NRST_GPIO_Port, &GPIO_InitStruct);
 80013f0:	a904      	add	r1, sp, #16
 80013f2:	482f      	ldr	r0, [pc, #188]	@ (80014b0 <MX_GPIO_Init+0x130>)
  GPIO_InitStruct.Pin = T_NRST_Pin;
 80013f4:	9204      	str	r2, [sp, #16]
 80013f6:	9305      	str	r3, [sp, #20]
  GPIO_InitStruct.Pull = GPIO_NOPULL;
 80013f8:	9406      	str	r4, [sp, #24]
  HAL_GPIO_Init(T_NRST_GPIO_Port, &GPIO_InitStruct);
 80013fa:	f002 ff81 	bl	8004300 <HAL_GPIO_Init>
  GPIO_InitStruct.Pin = SW_OUT_Pin;
 80013fe:	2380      	movs	r3, #128	@ 0x80
  HAL_GPIO_Init(SW_OUT_GPIO_Port, &GPIO_InitStruct);
 8001400:	0030      	movs	r0, r6
  GPIO_InitStruct.Pin = SW_OUT_Pin;
 8001402:	009b      	lsls	r3, r3, #2
  HAL_GPIO_Init(SW_OUT_GPIO_Port, &GPIO_InitStruct);
 8001404:	a904      	add	r1, sp, #16
  GPIO_InitStruct.Pin = SW_OUT_Pin;
 8001406:	9304      	str	r3, [sp, #16]
  GPIO_InitStruct.Mode = GPIO_MODE_OUTPUT_PP;
 8001408:	9505      	str	r5, [sp, #20]
  GPIO_InitStruct.Pull = GPIO_NOPULL;
 800140a:	9406      	str	r4, [sp, #24]
  GPIO_InitStruct.Speed = GPIO_SPEED_FREQ_LOW;
 800140c:	9407      	str	r4, [sp, #28]
  HAL_GPIO_Init(SW_OUT_GPIO_Port, &GPIO_InitStruct);
 800140e:	f002 ff77 	bl	8004300 <HAL_GPIO_Init>
  GPIO_InitStruct.Pin = LD3_Pin;
 8001412:	2340      	movs	r3, #64	@ 0x40
  HAL_GPIO_Init(LD3_GPIO_Port, &GPIO_InitStruct);
 8001414:	4648      	mov	r0, r9
 8001416:	a904      	add	r1, sp, #16
  GPIO_InitStruct.Pin = LD3_Pin;
 8001418:	4698      	mov	r8, r3
 800141a:	9304      	str	r3, [sp, #16]
  GPIO_InitStruct.Mode = GPIO_MODE_OUTPUT_PP;
 800141c:	9505      	str	r5, [sp, #20]
  GPIO_InitStruct.Pull = GPIO_NOPULL;
 800141e:	9406      	str	r4, [sp, #24]
  GPIO_InitStruct.Speed = GPIO_SPEED_FREQ_LOW;
 8001420:	9407      	str	r4, [sp, #28]
  HAL_GPIO_Init(LD3_GPIO_Port, &GPIO_InitStruct);
 8001422:	f002 ff6d 	bl	8004300 <HAL_GPIO_Init>
  GPIO_InitStruct.Pin = SW_IN_Pin;
 8001426:	2280      	movs	r2, #128	@ 0x80
 8001428:	2300      	movs	r3, #0
 800142a:	00d2      	lsls	r2, r2, #3
  HAL_GPIO_Init(SW_IN_GPIO_Port, &GPIO_InitStruct);
 800142c:	0030      	movs	r0, r6
 800142e:	a904      	add	r1, sp, #16
  GPIO_InitStruct.Pin = SW_IN_Pin;
 8001430:	9204      	str	r2, [sp, #16]
 8001432:	9305      	str	r3, [sp, #20]
  GPIO_InitStruct.Pull = GPIO_PULLUP;
 8001434:	9506      	str	r5, [sp, #24]
  HAL_GPIO_Init(SW_IN_GPIO_Port, &GPIO_InitStruct);
 8001436:	f002 ff63 	bl	8004300 <HAL_GPIO_Init>
  GPIO_InitStruct.Pin = MONITOR_Pin;
 800143a:	4643      	mov	r3, r8
 800143c:	9304      	str	r3, [sp, #16]
  HAL_GPIO_Init(MONITOR_GPIO_Port, &GPIO_InitStruct);
 800143e:	4b1d      	ldr	r3, [pc, #116]	@ (80014b4 <MX_GPIO_Init+0x134>)
 8001440:	a904      	add	r1, sp, #16
 8001442:	0018      	movs	r0, r3
 8001444:	4699      	mov	r9, r3
  GPIO_InitStruct.Mode = GPIO_MODE_OUTPUT_PP;
 8001446:	9505      	str	r5, [sp, #20]
  GPIO_InitStruct.Pull = GPIO_NOPULL;
 8001448:	9406      	str	r4, [sp, #24]
  GPIO_InitStruct.Speed = GPIO_SPEED_FREQ_LOW;
 800144a:	9407      	str	r4, [sp, #28]
  HAL_GPIO_Init(MONITOR_GPIO_Port, &GPIO_InitStruct);
 800144c:	f002 ff58 	bl	8004300 <HAL_GPIO_Init>
  GPIO_InitStruct.Pin = CLK_IN_Pin;
 8001450:	2380      	movs	r3, #128	@ 0x80
 8001452:	4698      	mov	r8, r3
 8001454:	9304      	str	r3, [sp, #16]
  GPIO_InitStruct.Mode = GPIO_MODE_IT_RISING_FALLING;
 8001456:	23c4      	movs	r3, #196	@ 0xc4
  HAL_GPIO_Init(MONITOR_GPIO_Port, &GPIO_InitStruct);
 8001458:	4648      	mov	r0, r9
  GPIO_InitStruct.Mode = GPIO_MODE_IT_RISING_FALLING;
 800145a:	039b      	lsls	r3, r3, #14
  HAL_GPIO_Init(MONITOR_GPIO_Port, &GPIO_InitStruct);
 800145c:	a904      	add	r1, sp, #16
  GPIO_InitStruct.Mode = GPIO_MODE_IT_RISING_FALLING;
 800145e:	9305      	str	r3, [sp, #20]
  GPIO_InitStruct.Pull = GPIO_PULLDOWN; //seems to improve stuff for CLK IN??
 8001460:	9706      	str	r7, [sp, #24]
  GPIO_InitStruct.Speed = GPIO_SPEED_FREQ_LOW;
 8001462:	9407      	str	r4, [sp, #28]
  HAL_GPIO_Init(MONITOR_GPIO_Port, &GPIO_InitStruct);
 8001464:	f002 ff4c 	bl	8004300 <HAL_GPIO_Init>
  GPIO_InitStruct.Pin = HACK_POT_HIGH_Pin;
 8001468:	2380      	movs	r3, #128	@ 0x80
  HAL_GPIO_Init(HACK_POT_HIGH_GPIO_Port, &GPIO_InitStruct);
 800146a:	0030      	movs	r0, r6
  GPIO_InitStruct.Pin = HACK_POT_HIGH_Pin;
 800146c:	015b      	lsls	r3, r3, #5
  HAL_GPIO_Init(HACK_POT_HIGH_GPIO_Port, &GPIO_InitStruct);
 800146e:	a904      	add	r1, sp, #16
  GPIO_InitStruct.Pin = HACK_POT_HIGH_Pin;
 8001470:	9304      	str	r3, [sp, #16]
  GPIO_InitStruct.Mode = GPIO_MODE_OUTPUT_PP;
 8001472:	9505      	str	r5, [sp, #20]
  GPIO_InitStruct.Pull = GPIO_NOPULL;
 8001474:	9406      	str	r4, [sp, #24]
  GPIO_InitStruct.Speed = GPIO_SPEED_FREQ_LOW;
 8001476:	9407      	str	r4, [sp, #28]
  HAL_GPIO_Init(HACK_POT_HIGH_GPIO_Port, &GPIO_InitStruct);
 8001478:	f002 ff42 	bl	8004300 <HAL_GPIO_Init>
  GPIO_InitStruct.Pin = HACK_POT_LOW_Pin;
 800147c:	4643      	mov	r3, r8
  HAL_GPIO_Init(HACK_POT_LOW_GPIO_Port, &GPIO_InitStruct);
 800147e:	0030      	movs	r0, r6
 8001480:	a904      	add	r1, sp, #16
  GPIO_InitStruct.Pin = HACK_POT_LOW_Pin;
 8001482:	9304      	str	r3, [sp, #16]
  GPIO_InitStruct.Mode = GPIO_MODE_OUTPUT_PP;
 8001484:	9505      	str	r5, [sp, #20]
  GPIO_InitStruct.Pull = GPIO_NOPULL;
 8001486:	9406      	str	r4, [sp, #24]
  GPIO_InitStruct.Speed = GPIO_SPEED_FREQ_LOW;
 8001488:	9407      	str	r4, [sp, #28]
  HAL_GPIO_Init(HACK_POT_LOW_GPIO_Port, &GPIO_InitStruct);
 800148a:	f002 ff39 	bl	8004300 <HAL_GPIO_Init>
  HAL_NVIC_SetPriority(EXTI4_15_IRQn, 2, 2);
 800148e:	2202      	movs	r2, #2
 8001490:	2102      	movs	r1, #2
 8001492:	2007      	movs	r0, #7
 8001494:	f002 fd22 	bl	8003edc <HAL_NVIC_SetPriority>
  HAL_NVIC_EnableIRQ(EXTI4_15_IRQn);
 8001498:	2007      	movs	r0, #7
 800149a:	f002 fd49 	bl	8003f30 <HAL_NVIC_EnableIRQ>
}
 800149e:	b00b      	add	sp, #44	@ 0x2c
 80014a0:	bcc0      	pop	{r6, r7}
 80014a2:	46b9      	mov	r9, r7
 80014a4:	46b0      	mov	r8, r6
 80014a6:	bdf0      	pop	{r4, r5, r6, r7, pc}
 80014a8:	40021000 	.word	0x40021000
 80014ac:	50000800 	.word	0x50000800
 80014b0:	50001400 	.word	0x50001400
 80014b4:	50000400 	.word	0x50000400

080014b8 <Error_Handler>:
 80014b8:	b672      	cpsid	i
  while (1)
 80014ba:	e7fe      	b.n	80014ba <Error_Handler+0x2>

080014bc <System_Init>:
  {

  }
}

void System_Init(void){
 80014bc:	b570      	push	{r4, r5, r6, lr}
 80014be:	b082      	sub	sp, #8
	/* MCU Configuration--------------------------------------------------------*/

	/* Reset of all peripherals, Initializes the Flash interface and the Systick. */
	HAL_Init();
 80014c0:	f001 ff76 	bl	80033b0 <HAL_Init>

	/* Configure the system clock */
	SystemClock_Config();
 80014c4:	f7ff fc68 	bl	8000d98 <SystemClock_Config>

	/* Initialize all configured peripherals */
	MX_GPIO_Init();
 80014c8:	f7ff ff5a 	bl	8001380 <MX_GPIO_Init>
  __HAL_RCC_DMA1_CLK_ENABLE();
 80014cc:	2301      	movs	r3, #1
 80014ce:	4a4c      	ldr	r2, [pc, #304]	@ (8001600 <System_Init+0x144>)
  HAL_NVIC_SetPriority(DMA1_Channel1_IRQn, 0, 0);
 80014d0:	2009      	movs	r0, #9
  __HAL_RCC_DMA1_CLK_ENABLE();
 80014d2:	6b91      	ldr	r1, [r2, #56]	@ 0x38
 80014d4:	4319      	orrs	r1, r3
 80014d6:	6391      	str	r1, [r2, #56]	@ 0x38
 80014d8:	6b92      	ldr	r2, [r2, #56]	@ 0x38
  HAL_NVIC_SetPriority(DMA1_Channel1_IRQn, 0, 0);
 80014da:	2100      	movs	r1, #0
  __HAL_RCC_DMA1_CLK_ENABLE();
 80014dc:	4013      	ands	r3, r2
 80014de:	9301      	str	r3, [sp, #4]
  HAL_NVIC_SetPriority(DMA1_Channel1_IRQn, 0, 0);
 80014e0:	2200      	movs	r2, #0
  __HAL_RCC_DMA1_CLK_ENABLE();
 80014e2:	9b01      	ldr	r3, [sp, #4]
  HAL_NVIC_SetPriority(DMA1_Channel1_IRQn, 0, 0);
 80014e4:	f002 fcfa 	bl	8003edc <HAL_NVIC_SetPriority>
  HAL_NVIC_EnableIRQ(DMA1_Channel1_IRQn);
 80014e8:	2009      	movs	r0, #9
 80014ea:	f002 fd21 	bl	8003f30 <HAL_NVIC_EnableIRQ>
  HAL_NVIC_SetPriority(DMA1_Channel2_3_IRQn, 2, 2);
 80014ee:	2202      	movs	r2, #2
 80014f0:	2102      	movs	r1, #2
 80014f2:	200a      	movs	r0, #10
 80014f4:	f002 fcf2 	bl	8003edc <HAL_NVIC_SetPriority>
  HAL_NVIC_EnableIRQ(DMA1_Channel2_3_IRQn);
 80014f8:	200a      	movs	r0, #10
 80014fa:	f002 fd19 	bl	8003f30 <HAL_NVIC_EnableIRQ>
  huart2.Instance = USART2;
 80014fe:	4c41      	ldr	r4, [pc, #260]	@ (8001604 <System_Init+0x148>)
 8001500:	4b41      	ldr	r3, [pc, #260]	@ (8001608 <System_Init+0x14c>)
  huart2.Init.Mode = UART_MODE_TX_RX;
 8001502:	220c      	movs	r2, #12
  huart2.Instance = USART2;
 8001504:	6023      	str	r3, [r4, #0]
  huart2.Init.BaudRate = 31250;
 8001506:	4b41      	ldr	r3, [pc, #260]	@ (800160c <System_Init+0x150>)
  if (HAL_UART_Init(&huart2) != HAL_OK)
 8001508:	0020      	movs	r0, r4
  huart2.Init.BaudRate = 31250;
 800150a:	6063      	str	r3, [r4, #4]
  huart2.Init.WordLength = UART_WORDLENGTH_8B;
 800150c:	2300      	movs	r3, #0
  huart2.Init.Mode = UART_MODE_TX_RX;
 800150e:	6162      	str	r2, [r4, #20]
  huart2.Init.WordLength = UART_WORDLENGTH_8B;
 8001510:	60a3      	str	r3, [r4, #8]
  huart2.Init.StopBits = UART_STOPBITS_1;
 8001512:	60e3      	str	r3, [r4, #12]
  huart2.Init.Parity = UART_PARITY_NONE;
 8001514:	6123      	str	r3, [r4, #16]
  huart2.Init.HwFlowCtl = UART_HWCONTROL_NONE;
 8001516:	61a3      	str	r3, [r4, #24]
  huart2.Init.OverSampling = UART_OVERSAMPLING_16;
 8001518:	61e3      	str	r3, [r4, #28]
  huart2.Init.OneBitSampling = UART_ONE_BIT_SAMPLE_DISABLE;
 800151a:	6223      	str	r3, [r4, #32]
  huart2.Init.ClockPrescaler = UART_PRESCALER_DIV1;
 800151c:	6263      	str	r3, [r4, #36]	@ 0x24
  huart2.AdvancedInit.AdvFeatureInit = UART_ADVFEATURE_NO_INIT;
 800151e:	62a3      	str	r3, [r4, #40]	@ 0x28
  if (HAL_UART_Init(&huart2) != HAL_OK)
 8001520:	f006 f9be 	bl	80078a0 <HAL_UART_Init>
 8001524:	1e05      	subs	r5, r0, #0
 8001526:	d001      	beq.n	800152c <System_Init+0x70>
 8001528:	b672      	cpsid	i
  while (1)
 800152a:	e7fe      	b.n	800152a <System_Init+0x6e>
	MX_DMA_Init();
	MX_USART2_UART_Init();
	MX_ADC1_Init();
 800152c:	f7ff fc74 	bl	8000e18 <MX_ADC1_Init>
	MX_TIM16_Init(); //Frequency Gen.
 8001530:	f7ff fcec 	bl	8000f0c <MX_TIM16_Init>
	MX_TIM2_Init(); //I/P Capture Measurement is TIM2_ch1
 8001534:	f7ff fd42 	bl	8000fbc <MX_TIM2_Init>
	MX_TIM3_Init(); //I/P Capture Measurement Re-Elapse is TIM3_ch1
 8001538:	f7ff fd9c 	bl	8001074 <MX_TIM3_Init>
	MX_TIM1_Init(); //PWM Gen. Main/Secondary Oscillator on ch2/ch4
 800153c:	f7ff fdfa 	bl	8001134 <MX_TIM1_Init>
	MX_TIM17_Init();
 8001540:	f7ff fe8c 	bl	800125c <MX_TIM17_Init>
	MX_TIM14_Init();
 8001544:	f7ff fee4 	bl	8001310 <MX_TIM14_Init>
  hlptim1.Instance = LPTIM1;
 8001548:	4e31      	ldr	r6, [pc, #196]	@ (8001610 <System_Init+0x154>)
 800154a:	4b32      	ldr	r3, [pc, #200]	@ (8001614 <System_Init+0x158>)
  hlptim1.Init.OutputPolarity = LPTIM_OUTPUTPOLARITY_HIGH;
 800154c:	2200      	movs	r2, #0
  hlptim1.Instance = LPTIM1;
 800154e:	6033      	str	r3, [r6, #0]
  hlptim1.Init.Clock.Prescaler = LPTIM_PRESCALER_DIV128;
 8001550:	23e0      	movs	r3, #224	@ 0xe0
 8001552:	011b      	lsls	r3, r3, #4
 8001554:	60b3      	str	r3, [r6, #8]
  hlptim1.Init.Trigger.Source = LPTIM_TRIGSOURCE_SOFTWARE;
 8001556:	4b30      	ldr	r3, [pc, #192]	@ (8001618 <System_Init+0x15c>)
  if (HAL_LPTIM_Init(&hlptim1) != HAL_OK)
 8001558:	0030      	movs	r0, r6
  hlptim1.Init.Trigger.Source = LPTIM_TRIGSOURCE_SOFTWARE;
 800155a:	6173      	str	r3, [r6, #20]
  hlptim1.Init.OutputPolarity = LPTIM_OUTPUTPOLARITY_HIGH;
 800155c:	2380      	movs	r3, #128	@ 0x80
 800155e:	03db      	lsls	r3, r3, #15
 8001560:	6232      	str	r2, [r6, #32]
 8001562:	6273      	str	r3, [r6, #36]	@ 0x24
 8001564:	2200      	movs	r2, #0
 8001566:	2300      	movs	r3, #0
  hlptim1.Init.Clock.Source = LPTIM_CLOCKSOURCE_APBCLOCK_LPOSC;
 8001568:	6075      	str	r5, [r6, #4]
  hlptim1.Init.OutputPolarity = LPTIM_OUTPUTPOLARITY_HIGH;
 800156a:	62b2      	str	r2, [r6, #40]	@ 0x28
 800156c:	62f3      	str	r3, [r6, #44]	@ 0x2c
  hlptim1.Init.Input2Source = LPTIM_INPUT2SOURCE_GPIO;
 800156e:	6335      	str	r5, [r6, #48]	@ 0x30
  if (HAL_LPTIM_Init(&hlptim1) != HAL_OK)
 8001570:	f003 f8aa 	bl	80046c8 <HAL_LPTIM_Init>
 8001574:	2800      	cmp	r0, #0
 8001576:	d001      	beq.n	800157c <System_Init+0xc0>
 8001578:	b672      	cpsid	i
  while (1)
 800157a:	e7fe      	b.n	800157a <System_Init+0xbe>
  HAL_NVIC_SetPriority(LPTIM1_IRQn, 2, 2);
 800157c:	2202      	movs	r2, #2
 800157e:	2102      	movs	r1, #2
 8001580:	2011      	movs	r0, #17
 8001582:	f002 fcab 	bl	8003edc <HAL_NVIC_SetPriority>
  HAL_NVIC_EnableIRQ(LPTIM1_IRQn);
 8001586:	2011      	movs	r0, #17
 8001588:	f002 fcd2 	bl	8003f30 <HAL_NVIC_EnableIRQ>
	//MX_IWDG_Init(); fucks up stuff - to be config'd
	MX_LPTIM1_Init(); //Tap Tempo checking/debouncing timer

	//Calibrate ADC - DO NOT MOVE TO BEFORE OTHER CONFIG ABOVE
	HAL_ADCEx_Calibration_Start(&hadc1);
 800158c:	4d23      	ldr	r5, [pc, #140]	@ (800161c <System_Init+0x160>)
 800158e:	0028      	movs	r0, r5
 8001590:	f002 fbd0 	bl	8003d34 <HAL_ADCEx_Calibration_Start>

	//Set custom callback function for TIM16 (freq. gen.) to the callback function in TIMx_callback.c for TIM16.
	//I believe the correct CallbackID is HAL_TIM_OC_DELAY_ELAPSED_CB_ID, but if this doesn't work maybe
	//HAL_TIM_PERIOD_ELAPSED_CB_ID will work. This should be basically the same because we've set up TIM16
	//in Output Compare mode, where the ARR and CRR are the same.
	HAL_TIM_RegisterCallback(&htim16, HAL_TIM_PERIOD_ELAPSED_CB_ID, &TIM16_callback);
 8001594:	210e      	movs	r1, #14
 8001596:	4a22      	ldr	r2, [pc, #136]	@ (8001620 <System_Init+0x164>)
 8001598:	4822      	ldr	r0, [pc, #136]	@ (8001624 <System_Init+0x168>)
 800159a:	f005 faf1 	bl	8006b80 <HAL_TIM_RegisterCallback>

	//Set custom callback function for ADC (DMA) conversion complete.
	HAL_ADC_RegisterCallback(&hadc1, HAL_ADC_CONVERSION_COMPLETE_CB_ID, &ADC_DMA_conversion_complete_callback);
 800159e:	2100      	movs	r1, #0
 80015a0:	0028      	movs	r0, r5
 80015a2:	4a21      	ldr	r2, [pc, #132]	@ (8001628 <System_Init+0x16c>)
 80015a4:	f002 f8c8 	bl	8003738 <HAL_ADC_RegisterCallback>

	//Set custom callback function for I/P capture input falling edge event
	HAL_TIM_RegisterCallback(&htim2, HAL_TIM_IC_CAPTURE_CB_ID, &TIM2_ch1_IP_capture_callback);
 80015a8:	4d20      	ldr	r5, [pc, #128]	@ (800162c <System_Init+0x170>)
 80015aa:	2112      	movs	r1, #18
 80015ac:	0028      	movs	r0, r5
 80015ae:	4a20      	ldr	r2, [pc, #128]	@ (8001630 <System_Init+0x174>)
 80015b0:	f005 fae6 	bl	8006b80 <HAL_TIM_RegisterCallback>

	//Set custom callback function for I/P capture timer overflow (Update event/overflow)
	HAL_TIM_RegisterCallback(&htim2, HAL_TIM_PERIOD_ELAPSED_CB_ID, &TIM2_ch1_overflow_callback);
 80015b4:	210e      	movs	r1, #14
 80015b6:	0028      	movs	r0, r5
 80015b8:	4a1e      	ldr	r2, [pc, #120]	@ (8001634 <System_Init+0x178>)
 80015ba:	f005 fae1 	bl	8006b80 <HAL_TIM_RegisterCallback>

	//Set custom callback function for TIM3_ch1 (Measurement Re-Elapse) (CCR match)
	HAL_TIM_RegisterCallback(&htim3, HAL_TIM_OC_DELAY_ELAPSED_CB_ID, &TIM3_ch1_IP_capture_measurement_reelapse_callback);
 80015be:	2114      	movs	r1, #20
 80015c0:	4a1d      	ldr	r2, [pc, #116]	@ (8001638 <System_Init+0x17c>)
 80015c2:	481e      	ldr	r0, [pc, #120]	@ (800163c <System_Init+0x180>)
 80015c4:	f005 fadc 	bl	8006b80 <HAL_TIM_RegisterCallback>

	//Set custom callback function for DMA TX Transfer Complete
	HAL_UART_RegisterCallback(&huart2, HAL_UART_TX_COMPLETE_CB_ID, &UART2_TX_transfer_complete_callback);
 80015c8:	2101      	movs	r1, #1
 80015ca:	0020      	movs	r0, r4
 80015cc:	4a1c      	ldr	r2, [pc, #112]	@ (8001640 <System_Init+0x184>)
 80015ce:	f005 fce7 	bl	8006fa0 <HAL_UART_RegisterCallback>

	//Set custom callback function for DMA RX Transfer Complete
	HAL_UART_RegisterCallback(&huart2, HAL_UART_RX_COMPLETE_CB_ID, &UART2_RX_transfer_complete_callback);
 80015d2:	2103      	movs	r1, #3
 80015d4:	0020      	movs	r0, r4
 80015d6:	4a1b      	ldr	r2, [pc, #108]	@ (8001644 <System_Init+0x188>)
 80015d8:	f005 fce2 	bl	8006fa0 <HAL_UART_RegisterCallback>

	//Set custom callback for LPTIM1 (Tap Tempo SW state check)
	HAL_LPTIM_RegisterCallback(&hlptim1, HAL_LPTIM_COMPARE_MATCH_CB_ID, &LPTIM1_callback);
 80015dc:	2102      	movs	r1, #2
 80015de:	0030      	movs	r0, r6
 80015e0:	4a19      	ldr	r2, [pc, #100]	@ (8001648 <System_Init+0x18c>)
 80015e2:	f003 f951 	bl	8004888 <HAL_LPTIM_RegisterCallback>

	//Set custom callback function for TIM17
	HAL_TIM_RegisterCallback(&htim17, HAL_TIM_OC_DELAY_ELAPSED_CB_ID, &TIM17_callback);
 80015e6:	2114      	movs	r1, #20
 80015e8:	4a18      	ldr	r2, [pc, #96]	@ (800164c <System_Init+0x190>)
 80015ea:	4819      	ldr	r0, [pc, #100]	@ (8001650 <System_Init+0x194>)
 80015ec:	f005 fac8 	bl	8006b80 <HAL_TIM_RegisterCallback>

	//Set custom callback function for TIM14
	HAL_TIM_RegisterCallback(&htim14, HAL_TIM_OC_DELAY_ELAPSED_CB_ID, &TIM14_callback);
 80015f0:	2114      	movs	r1, #20
 80015f2:	4a18      	ldr	r2, [pc, #96]	@ (8001654 <System_Init+0x198>)
 80015f4:	4818      	ldr	r0, [pc, #96]	@ (8001658 <System_Init+0x19c>)
 80015f6:	f005 fac3 	bl	8006b80 <HAL_TIM_RegisterCallback>
}
 80015fa:	b002      	add	sp, #8
 80015fc:	bd70      	pop	{r4, r5, r6, pc}
 80015fe:	46c0      	nop			@ (mov r8, r8)
 8001600:	40021000 	.word	0x40021000
 8001604:	200005f4 	.word	0x200005f4
 8001608:	40004400 	.word	0x40004400
 800160c:	00007a12 	.word	0x00007a12
 8001610:	200004e0 	.word	0x200004e0
 8001614:	40007c00 	.word	0x40007c00
 8001618:	0000ffff 	.word	0x0000ffff
 800161c:	20000b84 	.word	0x20000b84
 8001620:	0800165d 	.word	0x0800165d
 8001624:	200008f4 	.word	0x200008f4
 8001628:	08001699 	.word	0x08001699
 800162c:	20000838 	.word	0x20000838
 8001630:	08001705 	.word	0x08001705
 8001634:	080017a9 	.word	0x080017a9
 8001638:	08001825 	.word	0x08001825
 800163c:	2000077c 	.word	0x2000077c
 8001640:	08001909 	.word	0x08001909
 8001644:	0800190d 	.word	0x0800190d
 8001648:	08002229 	.word	0x08002229
 800164c:	0800241d 	.word	0x0800241d
 8001650:	200009b0 	.word	0x200009b0
 8001654:	08002421 	.word	0x08002421
 8001658:	20000a6c 	.word	0x20000a6c

0800165c <TIM16_callback>:
#include "custom_callbacks.h"

void TIM16_callback(TIM_HandleTypeDef *htim)
{
 800165c:	b510      	push	{r4, lr}
	//HAL_GPIO_WritePin(MONITOR_GPIO_Port, MONITOR_Pin, 1);

	Set_Oscillator_Values(&params);
 800165e:	4c09      	ldr	r4, [pc, #36]	@ (8001684 <TIM16_callback+0x28>)
 8001660:	0020      	movs	r0, r4
 8001662:	f001 f817 	bl	8002694 <Set_Oscillator_Values>
	Calculate_Next_Main_Oscillator_Values(&params, (enum Next_Values_Processing_Mode)REGULAR_MODE);
 8001666:	2100      	movs	r1, #0
 8001668:	0020      	movs	r0, r4
 800166a:	f001 f82b 	bl	80026c4 <Calculate_Next_Main_Oscillator_Values>
	Write_Next_Main_Oscillator_Values_to_Delay_Line(&params, &delay_line);
 800166e:	0020      	movs	r0, r4
 8001670:	4905      	ldr	r1, [pc, #20]	@ (8001688 <TIM16_callback+0x2c>)
 8001672:	f001 f8b5 	bl	80027e0 <Write_Next_Main_Oscillator_Values_to_Delay_Line>
	HAL_ADC_Start_DMA(&hadc1, (uint32_t*)ADCResultsDMA, (uint32_t)num_ADC_conversions); //this function takes ages to execute!
 8001676:	4b05      	ldr	r3, [pc, #20]	@ (800168c <TIM16_callback+0x30>)
 8001678:	4905      	ldr	r1, [pc, #20]	@ (8001690 <TIM16_callback+0x34>)
 800167a:	781a      	ldrb	r2, [r3, #0]
 800167c:	4805      	ldr	r0, [pc, #20]	@ (8001694 <TIM16_callback+0x38>)
 800167e:	f002 fa75 	bl	8003b6c <HAL_ADC_Start_DMA>

	//HAL_GPIO_WritePin(MONITOR_GPIO_Port, MONITOR_Pin, 0);
}
 8001682:	bd10      	pop	{r4, pc}
 8001684:	20000c90 	.word	0x20000c90
 8001688:	20000020 	.word	0x20000020
 800168c:	08007c69 	.word	0x08007c69
 8001690:	20000cb4 	.word	0x20000cb4
 8001694:	20000b84 	.word	0x20000b84

08001698 <ADC_DMA_conversion_complete_callback>:

void ADC_DMA_conversion_complete_callback(ADC_HandleTypeDef *hadc)
{
 8001698:	b570      	push	{r4, r5, r6, lr}
	//HAL_GPIO_WritePin(MONITOR_GPIO_Port, MONITOR_Pin, 1);

	HAL_ADC_Stop_DMA(hadc); //disable ADC DMA
 800169a:	f002 fb05 	bl	8003ca8 <HAL_ADC_Stop_DMA>
	Process_ADC_Conversion_Values(&params_manual, ADCResultsDMA);
 800169e:	4914      	ldr	r1, [pc, #80]	@ (80016f0 <ADC_DMA_conversion_complete_callback+0x58>)
 80016a0:	4814      	ldr	r0, [pc, #80]	@ (80016f4 <ADC_DMA_conversion_complete_callback+0x5c>)
 80016a2:	f001 f8f7 	bl	8002894 <Process_ADC_Conversion_Values>

	//copies into running params based on mode
	Update_Params_Based_On_Mode_Selected();
 80016a6:	f7fe fef7 	bl	8000498 <Update_Params_Based_On_Mode_Selected>

	enum Validate first_sync_complete = Get_Status_Bit(&statuses, First_Sync_Complete);
 80016aa:	4d13      	ldr	r5, [pc, #76]	@ (80016f8 <ADC_DMA_conversion_complete_callback+0x60>)
 80016ac:	2108      	movs	r1, #8
 80016ae:	0028      	movs	r0, r5
 80016b0:	f001 fe20 	bl	80032f4 <Get_Status_Bit>

	//overwrites raw speed values if a sync has completed
	if(first_sync_complete == YES){
 80016b4:	2801      	cmp	r0, #1
 80016b6:	d111      	bne.n	80016dc <ADC_DMA_conversion_complete_callback+0x44>

		params.raw_start_value = params_working.raw_start_value;
 80016b8:	4a10      	ldr	r2, [pc, #64]	@ (80016fc <ADC_DMA_conversion_complete_callback+0x64>)
 80016ba:	4c11      	ldr	r4, [pc, #68]	@ (8001700 <ADC_DMA_conversion_complete_callback+0x68>)
 80016bc:	8a53      	ldrh	r3, [r2, #18]
 80016be:	b29b      	uxth	r3, r3
 80016c0:	8263      	strh	r3, [r4, #18]
		params.raw_prescaler = params_working.raw_prescaler;
 80016c2:	8b53      	ldrh	r3, [r2, #26]
 80016c4:	b29b      	uxth	r3, r3
 80016c6:	8363      	strh	r3, [r4, #26]
	else{

		Process_TIM16_Raw_Start_Value_and_Raw_Prescaler(&params);
	}

	Process_TIM16_Final_Start_Value_and_Final_Prescaler(&params);
 80016c8:	0020      	movs	r0, r4
 80016ca:	f001 fc9b 	bl	8003004 <Process_TIM16_Final_Start_Value_and_Final_Prescaler>

	//after initial conversion is complete, set the conversion complete flag - leave this after raw/final value processing rather than actually when ADC values are converted for startup routine reasons.
	if(Get_Status_Bit(&statuses, Initial_ADC_Conversion_Complete) == NO){
 80016ce:	2110      	movs	r1, #16
 80016d0:	0028      	movs	r0, r5
 80016d2:	f001 fe0f 	bl	80032f4 <Get_Status_Bit>
 80016d6:	2800      	cmp	r0, #0
 80016d8:	d005      	beq.n	80016e6 <ADC_DMA_conversion_complete_callback+0x4e>
		Set_Status_Bit(&statuses, Initial_ADC_Conversion_Complete);
	}

	//HAL_GPIO_WritePin(MONITOR_GPIO_Port, MONITOR_Pin, 0);
}
 80016da:	bd70      	pop	{r4, r5, r6, pc}
		Process_TIM16_Raw_Start_Value_and_Raw_Prescaler(&params);
 80016dc:	4c08      	ldr	r4, [pc, #32]	@ (8001700 <ADC_DMA_conversion_complete_callback+0x68>)
 80016de:	0020      	movs	r0, r4
 80016e0:	f000 ffc0 	bl	8002664 <Process_TIM16_Raw_Start_Value_and_Raw_Prescaler>
 80016e4:	e7f0      	b.n	80016c8 <ADC_DMA_conversion_complete_callback+0x30>
		Set_Status_Bit(&statuses, Initial_ADC_Conversion_Complete);
 80016e6:	2110      	movs	r1, #16
 80016e8:	0028      	movs	r0, r5
 80016ea:	f001 fe09 	bl	8003300 <Set_Status_Bit>
}
 80016ee:	e7f4      	b.n	80016da <ADC_DMA_conversion_complete_callback+0x42>
 80016f0:	20000cb4 	.word	0x20000cb4
 80016f4:	20000c6c 	.word	0x20000c6c
 80016f8:	20000c20 	.word	0x20000c20
 80016fc:	20000c24 	.word	0x20000c24
 8001700:	20000c90 	.word	0x20000c90

08001704 <TIM2_ch1_IP_capture_callback>:

void TIM2_ch1_IP_capture_callback(TIM_HandleTypeDef *htim){
 8001704:	b570      	push	{r4, r5, r6, lr}

	TIM2_ch1_input_capture_value = HAL_TIM_ReadCapturedValue(htim, TIM_CHANNEL_1);
 8001706:	2100      	movs	r1, #0
 8001708:	f005 fa22 	bl	8006b50 <HAL_TIM_ReadCapturedValue>
 800170c:	4b1f      	ldr	r3, [pc, #124]	@ (800178c <TIM2_ch1_IP_capture_callback+0x88>)

	interrupt_period = TIM2_ch1_input_capture_value >> 9; //divided by 512
 800170e:	4a20      	ldr	r2, [pc, #128]	@ (8001790 <TIM2_ch1_IP_capture_callback+0x8c>)
	TIM2_ch1_input_capture_value = HAL_TIM_ReadCapturedValue(htim, TIM_CHANNEL_1);
 8001710:	6018      	str	r0, [r3, #0]
	interrupt_period = TIM2_ch1_input_capture_value >> 9; //divided by 512
 8001712:	681b      	ldr	r3, [r3, #0]

	//since the input capture measurement is z, and this is 512x the interrupt period, we just use the interrupt
	//period = z/512 as the 'elapse period value' if we also set the elapse timer prescaler to 512x less than the
	//input capture measurement timer

	if(IP_CAP_fsm.current_state == IDLE){
 8001714:	4c1f      	ldr	r4, [pc, #124]	@ (8001794 <TIM2_ch1_IP_capture_callback+0x90>)
	interrupt_period = TIM2_ch1_input_capture_value >> 9; //divided by 512
 8001716:	0a5b      	lsrs	r3, r3, #9
 8001718:	b29b      	uxth	r3, r3
 800171a:	8013      	strh	r3, [r2, #0]
	if(IP_CAP_fsm.current_state == IDLE){
 800171c:	7823      	ldrb	r3, [r4, #0]
 800171e:	b2dd      	uxtb	r5, r3
 8001720:	2b00      	cmp	r3, #0
 8001722:	d024      	beq.n	800176e <TIM2_ch1_IP_capture_callback+0x6a>
		Begin_Input_Capture_Measurement();
		IP_CAP_fsm.current_state = MEASUREMENT_PENDING;
		IP_CAP_fsm.prev_state = IDLE;
	}

	else if(IP_CAP_fsm.current_state == MEASUREMENT_PENDING){ //second edge
 8001724:	7823      	ldrb	r3, [r4, #0]
 8001726:	b2dd      	uxtb	r5, r3
 8001728:	2b01      	cmp	r3, #1
 800172a:	d008      	beq.n	800173e <TIM2_ch1_IP_capture_callback+0x3a>
			IP_CAP_fsm.current_state = IDLE;
			IP_CAP_fsm.prev_state = MEASUREMENT_PENDING;
		}*/
	}

	else if(IP_CAP_fsm.current_state == MEASUREMENT_REELAPSE){ //first edge
 800172c:	7823      	ldrb	r3, [r4, #0]
 800172e:	b2dd      	uxtb	r5, r3
 8001730:	2b02      	cmp	r3, #2
 8001732:	d022      	beq.n	800177a <TIM2_ch1_IP_capture_callback+0x76>

		IP_CAP_fsm.current_state = MEASUREMENT_REELAPSE_AND_MEASUREMENT_PENDING;
		IP_CAP_fsm.prev_state = MEASUREMENT_REELAPSE;
	}

	else if(IP_CAP_fsm.current_state == MEASUREMENT_REELAPSE_AND_MEASUREMENT_PENDING){ //second edge
 8001734:	7823      	ldrb	r3, [r4, #0]
 8001736:	b2dd      	uxtb	r5, r3
 8001738:	2b03      	cmp	r3, #3
 800173a:	d003      	beq.n	8001744 <TIM2_ch1_IP_capture_callback+0x40>
		//BEGIN PROCESSING
		Set_Status_Bit(&statuses, Input_Capture_Processing_Can_Be_Started);
	}

	//HAL_GPIO_WritePin(MONITOR_GPIO_Port, MONITOR_Pin, 0);
}
 800173c:	bd70      	pop	{r4, r5, r6, pc}
		if(interrupt_period >= HIGHEST_PRESCALER_TOP_SPEED_PERIOD){ //if the captured value/512 is >= than 129
 800173e:	8813      	ldrh	r3, [r2, #0]
 8001740:	2b80      	cmp	r3, #128	@ 0x80
 8001742:	d9fb      	bls.n	800173c <TIM2_ch1_IP_capture_callback+0x38>
			Start_Measurement_Reelapse_Timer();
 8001744:	f000 fece 	bl	80024e4 <Start_Measurement_Reelapse_Timer>
		IP_CAP_fsm.current_state = MEASUREMENT_REELAPSE;
 8001748:	2302      	movs	r3, #2
		Copy_Params_Structs(&params, &params_to_be_loaded);
 800174a:	4913      	ldr	r1, [pc, #76]	@ (8001798 <TIM2_ch1_IP_capture_callback+0x94>)
		IP_CAP_fsm.current_state = MEASUREMENT_REELAPSE;
 800174c:	7023      	strb	r3, [r4, #0]
		Copy_Params_Structs(&params, &params_to_be_loaded);
 800174e:	4813      	ldr	r0, [pc, #76]	@ (800179c <TIM2_ch1_IP_capture_callback+0x98>)
		IP_CAP_fsm.prev_state = MEASUREMENT_REELAPSE_AND_MEASUREMENT_PENDING;
 8001750:	7065      	strb	r5, [r4, #1]
		Copy_Params_Structs(&params, &params_to_be_loaded);
 8001752:	f000 febd 	bl	80024d0 <Copy_Params_Structs>
		if((speed_fsm.current_state.speed_exclusive_state == TAP_PENDING_MODE) || (speed_fsm.current_state.speed_exclusive_state == CLK_IN_PENDING_MODE)){
 8001756:	4b12      	ldr	r3, [pc, #72]	@ (80017a0 <TIM2_ch1_IP_capture_callback+0x9c>)
 8001758:	781a      	ldrb	r2, [r3, #0]
 800175a:	2a05      	cmp	r2, #5
 800175c:	d013      	beq.n	8001786 <TIM2_ch1_IP_capture_callback+0x82>
			if((speed_fsm.current_state.speed_exclusive_state == TAP_PENDING_MODE) || (speed_fsm.current_state.speed_exclusive_state == CLK_IN_PENDING_MODE)){
 800175e:	781b      	ldrb	r3, [r3, #0]
 8001760:	2b07      	cmp	r3, #7
 8001762:	d010      	beq.n	8001786 <TIM2_ch1_IP_capture_callback+0x82>
			Set_Status_Bit(&statuses, Input_Capture_Processing_Can_Be_Started);
 8001764:	2104      	movs	r1, #4
 8001766:	480f      	ldr	r0, [pc, #60]	@ (80017a4 <TIM2_ch1_IP_capture_callback+0xa0>)
 8001768:	f001 fdca 	bl	8003300 <Set_Status_Bit>
 800176c:	e7e6      	b.n	800173c <TIM2_ch1_IP_capture_callback+0x38>
		Begin_Input_Capture_Measurement();
 800176e:	f000 fed1 	bl	8002514 <Begin_Input_Capture_Measurement>
		IP_CAP_fsm.current_state = MEASUREMENT_PENDING;
 8001772:	2301      	movs	r3, #1
 8001774:	7023      	strb	r3, [r4, #0]
		IP_CAP_fsm.prev_state = IDLE;
 8001776:	7065      	strb	r5, [r4, #1]
 8001778:	e7e0      	b.n	800173c <TIM2_ch1_IP_capture_callback+0x38>
		Begin_Input_Capture_Measurement();
 800177a:	f000 fecb 	bl	8002514 <Begin_Input_Capture_Measurement>
		IP_CAP_fsm.current_state = MEASUREMENT_REELAPSE_AND_MEASUREMENT_PENDING;
 800177e:	2303      	movs	r3, #3
 8001780:	7023      	strb	r3, [r4, #0]
		IP_CAP_fsm.prev_state = MEASUREMENT_REELAPSE;
 8001782:	7065      	strb	r5, [r4, #1]
 8001784:	e7da      	b.n	800173c <TIM2_ch1_IP_capture_callback+0x38>
				Advance_Pending_States();
 8001786:	f001 f97d 	bl	8002a84 <Advance_Pending_States>
 800178a:	e7eb      	b.n	8001764 <TIM2_ch1_IP_capture_callback+0x60>
 800178c:	20000c14 	.word	0x20000c14
 8001790:	20000c10 	.word	0x20000c10
 8001794:	20000428 	.word	0x20000428
 8001798:	20000c48 	.word	0x20000c48
 800179c:	20000c90 	.word	0x20000c90
 80017a0:	2000043c 	.word	0x2000043c
 80017a4:	20000c20 	.word	0x20000c20

080017a8 <TIM2_ch1_overflow_callback>:


void TIM2_ch1_overflow_callback(TIM_HandleTypeDef *htim){
 80017a8:	b570      	push	{r4, r5, r6, lr}

	union Speed_FSM_States previous = speed_fsm.prev_state;

	if(IP_CAP_fsm.current_state == MEASUREMENT_PENDING){
 80017aa:	4b19      	ldr	r3, [pc, #100]	@ (8001810 <TIM2_ch1_overflow_callback+0x68>)
	union Speed_FSM_States previous = speed_fsm.prev_state;
 80017ac:	4c19      	ldr	r4, [pc, #100]	@ (8001814 <TIM2_ch1_overflow_callback+0x6c>)
 80017ae:	7865      	ldrb	r5, [r4, #1]
	if(IP_CAP_fsm.current_state == MEASUREMENT_PENDING){
 80017b0:	781a      	ldrb	r2, [r3, #0]
 80017b2:	b2d1      	uxtb	r1, r2
 80017b4:	2a01      	cmp	r2, #1
 80017b6:	d004      	beq.n	80017c2 <TIM2_ch1_overflow_callback+0x1a>

			speed_fsm.prev_state = speed_fsm.current_state;
			speed_fsm.current_state = previous;
		}
	}
	else if(IP_CAP_fsm.current_state == MEASUREMENT_REELAPSE_AND_MEASUREMENT_PENDING){
 80017b8:	781a      	ldrb	r2, [r3, #0]
 80017ba:	b2d1      	uxtb	r1, r2
 80017bc:	2a03      	cmp	r2, #3
 80017be:	d020      	beq.n	8001802 <TIM2_ch1_overflow_callback+0x5a>

			speed_fsm.prev_state = speed_fsm.current_state;
			speed_fsm.current_state = previous;
		}
	}
}
 80017c0:	bd70      	pop	{r4, r5, r6, pc}
		IP_CAP_fsm.current_state = IDLE;
 80017c2:	2200      	movs	r2, #0
 80017c4:	701a      	strb	r2, [r3, #0]
		IP_CAP_fsm.prev_state = MEASUREMENT_PENDING;
 80017c6:	7059      	strb	r1, [r3, #1]
		MIDI_CLK_fsm = NOT_COMPILING;
 80017c8:	4b13      	ldr	r3, [pc, #76]	@ (8001818 <TIM2_ch1_overflow_callback+0x70>)
		HAL_GPIO_WritePin(SW_OUT_GPIO_Port, SW_OUT_Pin, 1);
 80017ca:	2180      	movs	r1, #128	@ 0x80
 80017cc:	20a0      	movs	r0, #160	@ 0xa0
		MIDI_CLK_fsm = NOT_COMPILING;
 80017ce:	701a      	strb	r2, [r3, #0]
		MIDI_CLK_tag = 0;
 80017d0:	4b12      	ldr	r3, [pc, #72]	@ (800181c <TIM2_ch1_overflow_callback+0x74>)
		HAL_GPIO_WritePin(SW_OUT_GPIO_Port, SW_OUT_Pin, 1);
 80017d2:	0089      	lsls	r1, r1, #2
		MIDI_CLK_tag = 0;
 80017d4:	701a      	strb	r2, [r3, #0]
		HAL_GPIO_WritePin(SW_OUT_GPIO_Port, SW_OUT_Pin, 1);
 80017d6:	05c0      	lsls	r0, r0, #23
 80017d8:	3201      	adds	r2, #1
 80017da:	f002 ff47 	bl	800466c <HAL_GPIO_WritePin>
		HAL_GPIO_WritePin(LD3_GPIO_Port, LD3_Pin, 0);
 80017de:	2200      	movs	r2, #0
 80017e0:	2140      	movs	r1, #64	@ 0x40
 80017e2:	480f      	ldr	r0, [pc, #60]	@ (8001820 <TIM2_ch1_overflow_callback+0x78>)
 80017e4:	f002 ff42 	bl	800466c <HAL_GPIO_WritePin>
		if(!((speed_fsm.current_state.speed_exclusive_state == TAP_MODE)
 80017e8:	7823      	ldrb	r3, [r4, #0]
 80017ea:	2b04      	cmp	r3, #4
 80017ec:	d0e8      	beq.n	80017c0 <TIM2_ch1_overflow_callback+0x18>
			|| (speed_fsm.current_state.speed_exclusive_state == CLK_IN_MODE) || (speed_fsm.current_state.speed_exclusive_state == MIDI_CLK_MODE))){
 80017ee:	7823      	ldrb	r3, [r4, #0]
 80017f0:	2b06      	cmp	r3, #6
 80017f2:	d0e5      	beq.n	80017c0 <TIM2_ch1_overflow_callback+0x18>
 80017f4:	7823      	ldrb	r3, [r4, #0]
		if(!((speed_fsm.current_state.speed_exclusive_state == TAP_MODE)
 80017f6:	2b08      	cmp	r3, #8
 80017f8:	d0e2      	beq.n	80017c0 <TIM2_ch1_overflow_callback+0x18>
			speed_fsm.prev_state = speed_fsm.current_state;
 80017fa:	7823      	ldrb	r3, [r4, #0]
 80017fc:	7063      	strb	r3, [r4, #1]
			speed_fsm.current_state = previous;
 80017fe:	7025      	strb	r5, [r4, #0]
}
 8001800:	e7de      	b.n	80017c0 <TIM2_ch1_overflow_callback+0x18>
		IP_CAP_fsm.current_state = MEASUREMENT_REELAPSE;
 8001802:	3a01      	subs	r2, #1
 8001804:	701a      	strb	r2, [r3, #0]
		IP_CAP_fsm.prev_state = MEASUREMENT_REELAPSE_AND_MEASUREMENT_PENDING;
 8001806:	7059      	strb	r1, [r3, #1]
		MIDI_CLK_fsm = NOT_COMPILING;
 8001808:	2200      	movs	r2, #0
 800180a:	4b03      	ldr	r3, [pc, #12]	@ (8001818 <TIM2_ch1_overflow_callback+0x70>)
 800180c:	e7dd      	b.n	80017ca <TIM2_ch1_overflow_callback+0x22>
 800180e:	46c0      	nop			@ (mov r8, r8)
 8001810:	20000428 	.word	0x20000428
 8001814:	2000043c 	.word	0x2000043c
 8001818:	20000cbe 	.word	0x20000cbe
 800181c:	20000c0e 	.word	0x20000c0e
 8001820:	50000800 	.word	0x50000800

08001824 <TIM3_ch1_IP_capture_measurement_reelapse_callback>:

void TIM3_ch1_IP_capture_measurement_reelapse_callback(TIM_HandleTypeDef *htim){
 8001824:	b570      	push	{r4, r5, r6, lr}

	//HAL_GPIO_WritePin(MONITOR_GPIO_Port, MONITOR_Pin, 1);

	if(!((speed_fsm.current_state.speed_exclusive_state == MIDI_CLK_PENDING_B0_MODE)
 8001826:	4c2d      	ldr	r4, [pc, #180]	@ (80018dc <TIM3_ch1_IP_capture_measurement_reelapse_callback+0xb8>)
 8001828:	7823      	ldrb	r3, [r4, #0]
 800182a:	2b0b      	cmp	r3, #11
 800182c:	d011      	beq.n	8001852 <TIM3_ch1_IP_capture_measurement_reelapse_callback+0x2e>
		|| (speed_fsm.current_state.speed_exclusive_state == MIDI_CLK_PENDING_B1_MODE)
 800182e:	7823      	ldrb	r3, [r4, #0]
 8001830:	2b0c      	cmp	r3, #12
 8001832:	d00e      	beq.n	8001852 <TIM3_ch1_IP_capture_measurement_reelapse_callback+0x2e>
		|| (speed_fsm.current_state.speed_exclusive_state == MIDI_CLK_PENDING_B2_MODE)
 8001834:	7823      	ldrb	r3, [r4, #0]
 8001836:	2b0d      	cmp	r3, #13
 8001838:	d00b      	beq.n	8001852 <TIM3_ch1_IP_capture_measurement_reelapse_callback+0x2e>
		|| (speed_fsm.current_state.speed_exclusive_state == MIDI_CLK_RESYNC_B0_MODE)
 800183a:	7823      	ldrb	r3, [r4, #0]
 800183c:	2b10      	cmp	r3, #16
 800183e:	d008      	beq.n	8001852 <TIM3_ch1_IP_capture_measurement_reelapse_callback+0x2e>
		|| (speed_fsm.current_state.speed_exclusive_state == MIDI_CLK_RESYNC_B1_MODE)
 8001840:	7823      	ldrb	r3, [r4, #0]
 8001842:	2b11      	cmp	r3, #17
 8001844:	d005      	beq.n	8001852 <TIM3_ch1_IP_capture_measurement_reelapse_callback+0x2e>
		|| (speed_fsm.current_state.speed_exclusive_state == MIDI_CLK_RESYNC_B2_MODE))){
 8001846:	7823      	ldrb	r3, [r4, #0]
	if(!((speed_fsm.current_state.speed_exclusive_state == MIDI_CLK_PENDING_B0_MODE)
 8001848:	2b12      	cmp	r3, #18
 800184a:	d002      	beq.n	8001852 <TIM3_ch1_IP_capture_measurement_reelapse_callback+0x2e>

		// @TODO //WRITE CODE TO LOAD CORRECT DUTY DELAYED VALUE TO SECONDARY OSCILLATOR
		Set_Oscillator_Values(&params_to_be_loaded);
 800184c:	4824      	ldr	r0, [pc, #144]	@ (80018e0 <TIM3_ch1_IP_capture_measurement_reelapse_callback+0xbc>)
 800184e:	f000 ff21 	bl	8002694 <Set_Oscillator_Values>
	}

	Stop_OC_TIM(&htim3, TIM_CHANNEL_1);
 8001852:	2100      	movs	r1, #0
 8001854:	4823      	ldr	r0, [pc, #140]	@ (80018e4 <TIM3_ch1_IP_capture_measurement_reelapse_callback+0xc0>)
 8001856:	f001 fd1f 	bl	8003298 <Stop_OC_TIM>

	if(IP_CAP_fsm.current_state == MEASUREMENT_REELAPSE){
 800185a:	4b23      	ldr	r3, [pc, #140]	@ (80018e8 <TIM3_ch1_IP_capture_measurement_reelapse_callback+0xc4>)
 800185c:	781a      	ldrb	r2, [r3, #0]
 800185e:	b2d1      	uxtb	r1, r2
 8001860:	2a02      	cmp	r2, #2
 8001862:	d036      	beq.n	80018d2 <TIM3_ch1_IP_capture_measurement_reelapse_callback+0xae>

		//UPDATE IP CAP FSM
		IP_CAP_fsm.current_state = IDLE;
		IP_CAP_fsm.prev_state = MEASUREMENT_REELAPSE;
	}
	else if(IP_CAP_fsm.current_state == MEASUREMENT_REELAPSE_AND_MEASUREMENT_PENDING){
 8001864:	781a      	ldrb	r2, [r3, #0]
 8001866:	b2d1      	uxtb	r1, r2
 8001868:	2a03      	cmp	r2, #3
 800186a:	d02e      	beq.n	80018ca <TIM3_ch1_IP_capture_measurement_reelapse_callback+0xa6>
		//UPDATE IP CAP FSM
		IP_CAP_fsm.current_state = MEASUREMENT_PENDING;
		IP_CAP_fsm.prev_state = MEASUREMENT_REELAPSE_AND_MEASUREMENT_PENDING;
	}

	if(!((speed_fsm.current_state.speed_exclusive_state == MIDI_CLK_PENDING_B0_MODE)
 800186c:	7823      	ldrb	r3, [r4, #0]
 800186e:	2b0b      	cmp	r3, #11
 8001870:	d02a      	beq.n	80018c8 <TIM3_ch1_IP_capture_measurement_reelapse_callback+0xa4>
		|| (speed_fsm.current_state.speed_exclusive_state == MIDI_CLK_PENDING_B1_MODE)
 8001872:	7823      	ldrb	r3, [r4, #0]
 8001874:	2b0c      	cmp	r3, #12
 8001876:	d027      	beq.n	80018c8 <TIM3_ch1_IP_capture_measurement_reelapse_callback+0xa4>
		|| (speed_fsm.current_state.speed_exclusive_state == MIDI_CLK_PENDING_B2_MODE)
 8001878:	7823      	ldrb	r3, [r4, #0]
 800187a:	2b0d      	cmp	r3, #13
 800187c:	d024      	beq.n	80018c8 <TIM3_ch1_IP_capture_measurement_reelapse_callback+0xa4>
		|| (speed_fsm.current_state.speed_exclusive_state == MIDI_CLK_RESYNC_B0_MODE)
 800187e:	7823      	ldrb	r3, [r4, #0]
 8001880:	2b10      	cmp	r3, #16
 8001882:	d021      	beq.n	80018c8 <TIM3_ch1_IP_capture_measurement_reelapse_callback+0xa4>
		|| (speed_fsm.current_state.speed_exclusive_state == MIDI_CLK_RESYNC_B1_MODE)
 8001884:	7823      	ldrb	r3, [r4, #0]
 8001886:	2b11      	cmp	r3, #17
 8001888:	d01e      	beq.n	80018c8 <TIM3_ch1_IP_capture_measurement_reelapse_callback+0xa4>
		|| (speed_fsm.current_state.speed_exclusive_state == MIDI_CLK_RESYNC_B2_MODE))){
 800188a:	7823      	ldrb	r3, [r4, #0]
	if(!((speed_fsm.current_state.speed_exclusive_state == MIDI_CLK_PENDING_B0_MODE)
 800188c:	2b12      	cmp	r3, #18
 800188e:	d01b      	beq.n	80018c8 <TIM3_ch1_IP_capture_measurement_reelapse_callback+0xa4>

		Copy_Params_Structs(&params_to_be_loaded, &params_working);
 8001890:	4c13      	ldr	r4, [pc, #76]	@ (80018e0 <TIM3_ch1_IP_capture_measurement_reelapse_callback+0xbc>)
 8001892:	4916      	ldr	r1, [pc, #88]	@ (80018ec <TIM3_ch1_IP_capture_measurement_reelapse_callback+0xc8>)
 8001894:	0020      	movs	r0, r4
 8001896:	f000 fe1b 	bl	80024d0 <Copy_Params_Structs>
		Copy_Params_Structs(&params_to_be_loaded, &params);
 800189a:	4d15      	ldr	r5, [pc, #84]	@ (80018f0 <TIM3_ch1_IP_capture_measurement_reelapse_callback+0xcc>)
 800189c:	0020      	movs	r0, r4
 800189e:	0029      	movs	r1, r5
 80018a0:	f000 fe16 	bl	80024d0 <Copy_Params_Structs>

		Set_Status_Bit(&statuses, First_Sync_Complete);
 80018a4:	2108      	movs	r1, #8
 80018a6:	4813      	ldr	r0, [pc, #76]	@ (80018f4 <TIM3_ch1_IP_capture_measurement_reelapse_callback+0xd0>)
 80018a8:	f001 fd2a 	bl	8003300 <Set_Status_Bit>

		Calculate_Next_Main_Oscillator_Values(&params, (enum Next_Values_Processing_Mode)REGULAR_MODE);
 80018ac:	2100      	movs	r1, #0
 80018ae:	0028      	movs	r0, r5
 80018b0:	f000 ff08 	bl	80026c4 <Calculate_Next_Main_Oscillator_Values>
		Write_Next_Main_Oscillator_Values_to_Delay_Line(&params, &delay_line);
 80018b4:	4910      	ldr	r1, [pc, #64]	@ (80018f8 <TIM3_ch1_IP_capture_measurement_reelapse_callback+0xd4>)
 80018b6:	0028      	movs	r0, r5
 80018b8:	f000 ff92 	bl	80027e0 <Write_Next_Main_Oscillator_Values_to_Delay_Line>
		HAL_ADC_Start_DMA(&hadc1, (uint32_t*)ADCResultsDMA, (uint32_t)num_ADC_conversions); //this function takes ages to execute!
 80018bc:	4b0f      	ldr	r3, [pc, #60]	@ (80018fc <TIM3_ch1_IP_capture_measurement_reelapse_callback+0xd8>)
 80018be:	4910      	ldr	r1, [pc, #64]	@ (8001900 <TIM3_ch1_IP_capture_measurement_reelapse_callback+0xdc>)
 80018c0:	781a      	ldrb	r2, [r3, #0]
 80018c2:	4810      	ldr	r0, [pc, #64]	@ (8001904 <TIM3_ch1_IP_capture_measurement_reelapse_callback+0xe0>)
 80018c4:	f002 f952 	bl	8003b6c <HAL_ADC_Start_DMA>

	}

	//HAL_GPIO_WritePin(MONITOR_GPIO_Port, MONITOR_Pin, 0);
}
 80018c8:	bd70      	pop	{r4, r5, r6, pc}
		IP_CAP_fsm.current_state = MEASUREMENT_PENDING;
 80018ca:	3a02      	subs	r2, #2
 80018cc:	701a      	strb	r2, [r3, #0]
		IP_CAP_fsm.prev_state = MEASUREMENT_REELAPSE_AND_MEASUREMENT_PENDING;
 80018ce:	7059      	strb	r1, [r3, #1]
 80018d0:	e7cc      	b.n	800186c <TIM3_ch1_IP_capture_measurement_reelapse_callback+0x48>
		IP_CAP_fsm.current_state = IDLE;
 80018d2:	2200      	movs	r2, #0
 80018d4:	701a      	strb	r2, [r3, #0]
		IP_CAP_fsm.prev_state = MEASUREMENT_REELAPSE;
 80018d6:	7059      	strb	r1, [r3, #1]
 80018d8:	e7c8      	b.n	800186c <TIM3_ch1_IP_capture_measurement_reelapse_callback+0x48>
 80018da:	46c0      	nop			@ (mov r8, r8)
 80018dc:	2000043c 	.word	0x2000043c
 80018e0:	20000c48 	.word	0x20000c48
 80018e4:	2000077c 	.word	0x2000077c
 80018e8:	20000428 	.word	0x20000428
 80018ec:	20000c24 	.word	0x20000c24
 80018f0:	20000c90 	.word	0x20000c90
 80018f4:	20000c20 	.word	0x20000c20
 80018f8:	20000020 	.word	0x20000020
 80018fc:	08007c69 	.word	0x08007c69
 8001900:	20000cb4 	.word	0x20000cb4
 8001904:	20000b84 	.word	0x20000b84

08001908 <UART2_TX_transfer_complete_callback>:

void UART2_TX_transfer_complete_callback(UART_HandleTypeDef *huart){
 8001908:	4770      	bx	lr
 800190a:	46c0      	nop			@ (mov r8, r8)

0800190c <UART2_RX_transfer_complete_callback>:

	//UART_DMA_TX_is_complete = YES;
}

void UART2_RX_transfer_complete_callback(UART_HandleTypeDef *huart){
 800190c:	b5f8      	push	{r3, r4, r5, r6, r7, lr}
 800190e:	46ce      	mov	lr, r9
 8001910:	4647      	mov	r7, r8

	if(Is_System_Real_Time_Status_Byte(rx_buffer) == YES){
 8001912:	4cd2      	ldr	r4, [pc, #840]	@ (8001c5c <UART2_RX_transfer_complete_callback+0x350>)
void UART2_RX_transfer_complete_callback(UART_HandleTypeDef *huart){
 8001914:	b580      	push	{r7, lr}
	if(Is_System_Real_Time_Status_Byte(rx_buffer) == YES){
 8001916:	0020      	movs	r0, r4
 8001918:	f7ff f91e 	bl	8000b58 <Is_System_Real_Time_Status_Byte>
 800191c:	2801      	cmp	r0, #1
 800191e:	d038      	beq.n	8001992 <UART2_RX_transfer_complete_callback+0x86>
		}
	}
	//not a realtime status byte
	else{

		if(active_status_byte == 0){
 8001920:	4dcf      	ldr	r5, [pc, #828]	@ (8001c60 <UART2_RX_transfer_complete_callback+0x354>)
 8001922:	782b      	ldrb	r3, [r5, #0]
 8001924:	b2de      	uxtb	r6, r3
 8001926:	2b00      	cmp	r3, #0
 8001928:	d00e      	beq.n	8001948 <UART2_RX_transfer_complete_callback+0x3c>

					}
				}
			}
		}
		else if(active_status_byte != 0){
 800192a:	782b      	ldrb	r3, [r5, #0]
 800192c:	2b00      	cmp	r3, #0
 800192e:	d000      	beq.n	8001932 <UART2_RX_transfer_complete_callback+0x26>
 8001930:	e0c0      	b.n	8001ab4 <UART2_RX_transfer_complete_callback+0x1a8>
				}
			}
		}
	}

	*rx_buffer = 0;
 8001932:	2300      	movs	r3, #0

	HAL_UART_Receive_DMA(&huart2, (uint8_t*)rx_buffer, sizeof(rx_buffer));
 8001934:	2201      	movs	r2, #1
 8001936:	0021      	movs	r1, r4
 8001938:	48ca      	ldr	r0, [pc, #808]	@ (8001c64 <UART2_RX_transfer_complete_callback+0x358>)
	*rx_buffer = 0;
 800193a:	7023      	strb	r3, [r4, #0]
	HAL_UART_Receive_DMA(&huart2, (uint8_t*)rx_buffer, sizeof(rx_buffer));
 800193c:	f005 fb82 	bl	8007044 <HAL_UART_Receive_DMA>
}
 8001940:	bcc0      	pop	{r6, r7}
 8001942:	46b9      	mov	r9, r7
 8001944:	46b0      	mov	r8, r6
 8001946:	bdf8      	pop	{r3, r4, r5, r6, r7, pc}
			if(Is_Data_Buffer_Empty(&MIDI_data) == YES){
 8001948:	48c7      	ldr	r0, [pc, #796]	@ (8001c68 <UART2_RX_transfer_complete_callback+0x35c>)
 800194a:	f7ff f8d9 	bl	8000b00 <Is_Data_Buffer_Empty>
 800194e:	2801      	cmp	r0, #1
 8001950:	d1ef      	bne.n	8001932 <UART2_RX_transfer_complete_callback+0x26>
				if(Is_Status_Byte(rx_buffer) == YES){
 8001952:	0020      	movs	r0, r4
 8001954:	f7ff f858 	bl	8000a08 <Is_Status_Byte>
 8001958:	2801      	cmp	r0, #1
 800195a:	d1ea      	bne.n	8001932 <UART2_RX_transfer_complete_callback+0x26>
					if(Is_PC_Status_Byte(rx_buffer) == YES){
 800195c:	0020      	movs	r0, r4
 800195e:	f7ff f85d 	bl	8000a1c <Is_PC_Status_Byte>
 8001962:	2801      	cmp	r0, #1
 8001964:	d100      	bne.n	8001968 <UART2_RX_transfer_complete_callback+0x5c>
 8001966:	e1df      	b.n	8001d28 <UART2_RX_transfer_complete_callback+0x41c>
					else if(Is_CC_Status_Byte(rx_buffer) == YES){
 8001968:	0020      	movs	r0, r4
 800196a:	f7ff f85f 	bl	8000a2c <Is_CC_Status_Byte>
 800196e:	2801      	cmp	r0, #1
 8001970:	d100      	bne.n	8001974 <UART2_RX_transfer_complete_callback+0x68>
 8001972:	e1d9      	b.n	8001d28 <UART2_RX_transfer_complete_callback+0x41c>
					else if(Is_Sysex_Start_Status_Byte(rx_buffer) == YES){
 8001974:	0020      	movs	r0, r4
 8001976:	f7ff f8af 	bl	8000ad8 <Is_Sysex_Start_Status_Byte>
 800197a:	2801      	cmp	r0, #1
 800197c:	d1d9      	bne.n	8001932 <UART2_RX_transfer_complete_callback+0x26>
						active_status_byte = (uint8_t)*rx_buffer;
 800197e:	7823      	ldrb	r3, [r4, #0]
						Set_Status_Bit(&statuses, Software_IP_CAP_Idle_Timer_Is_Running);
 8001980:	2140      	movs	r1, #64	@ 0x40
						active_status_byte = (uint8_t)*rx_buffer;
 8001982:	b2db      	uxtb	r3, r3
 8001984:	702b      	strb	r3, [r5, #0]
						running_status_byte = 0;
 8001986:	4bb9      	ldr	r3, [pc, #740]	@ (8001c6c <UART2_RX_transfer_complete_callback+0x360>)
						Set_Status_Bit(&statuses, Software_IP_CAP_Idle_Timer_Is_Running);
 8001988:	48b9      	ldr	r0, [pc, #740]	@ (8001c70 <UART2_RX_transfer_complete_callback+0x364>)
						running_status_byte = 0;
 800198a:	701e      	strb	r6, [r3, #0]
						Set_Status_Bit(&statuses, Software_IP_CAP_Idle_Timer_Is_Running);
 800198c:	f001 fcb8 	bl	8003300 <Set_Status_Bit>
 8001990:	e7cf      	b.n	8001932 <UART2_RX_transfer_complete_callback+0x26>
		if(Get_Status_Bit(&statuses, Start_Required_Before_Sync_Mode) == YES){
 8001992:	4eb7      	ldr	r6, [pc, #732]	@ (8001c70 <UART2_RX_transfer_complete_callback+0x364>)
 8001994:	2180      	movs	r1, #128	@ 0x80
 8001996:	0030      	movs	r0, r6
 8001998:	f001 fcac 	bl	80032f4 <Get_Status_Bit>
 800199c:	2801      	cmp	r0, #1
 800199e:	d1c8      	bne.n	8001932 <UART2_RX_transfer_complete_callback+0x26>
			if((MIDI_CLK_fsm == NOT_COMPILING) && (IP_CAP_fsm.current_state == IDLE)
 80019a0:	4fb4      	ldr	r7, [pc, #720]	@ (8001c74 <UART2_RX_transfer_complete_callback+0x368>)
 80019a2:	783b      	ldrb	r3, [r7, #0]
 80019a4:	2b00      	cmp	r3, #0
 80019a6:	d100      	bne.n	80019aa <UART2_RX_transfer_complete_callback+0x9e>
 80019a8:	e0be      	b.n	8001b28 <UART2_RX_transfer_complete_callback+0x21c>
 80019aa:	4db3      	ldr	r5, [pc, #716]	@ (8001c78 <UART2_RX_transfer_complete_callback+0x36c>)
			else if(speed_fsm.current_state.speed_exclusive_state == MIDI_CLK_PENDING_A0_MODE){
 80019ac:	782b      	ldrb	r3, [r5, #0]
 80019ae:	2b09      	cmp	r3, #9
 80019b0:	d100      	bne.n	80019b4 <UART2_RX_transfer_complete_callback+0xa8>
 80019b2:	e120      	b.n	8001bf6 <UART2_RX_transfer_complete_callback+0x2ea>
			else if(speed_fsm.current_state.speed_exclusive_state == MIDI_CLK_PENDING_A1_MODE){
 80019b4:	782b      	ldrb	r3, [r5, #0]
 80019b6:	b2da      	uxtb	r2, r3
 80019b8:	2b0a      	cmp	r3, #10
 80019ba:	d100      	bne.n	80019be <UART2_RX_transfer_complete_callback+0xb2>
 80019bc:	e178      	b.n	8001cb0 <UART2_RX_transfer_complete_callback+0x3a4>
			else if(speed_fsm.current_state.speed_exclusive_state == MIDI_CLK_PENDING_B0_MODE){
 80019be:	782b      	ldrb	r3, [r5, #0]
 80019c0:	2b0b      	cmp	r3, #11
 80019c2:	d100      	bne.n	80019c6 <UART2_RX_transfer_complete_callback+0xba>
 80019c4:	e199      	b.n	8001cfa <UART2_RX_transfer_complete_callback+0x3ee>
			else if(speed_fsm.current_state.speed_exclusive_state == MIDI_CLK_PENDING_B1_MODE){
 80019c6:	782b      	ldrb	r3, [r5, #0]
 80019c8:	2b0c      	cmp	r3, #12
 80019ca:	d100      	bne.n	80019ce <UART2_RX_transfer_complete_callback+0xc2>
 80019cc:	e1c1      	b.n	8001d52 <UART2_RX_transfer_complete_callback+0x446>
			else if(speed_fsm.current_state.speed_exclusive_state == MIDI_CLK_PENDING_B2_MODE){
 80019ce:	782b      	ldrb	r3, [r5, #0]
 80019d0:	b2da      	uxtb	r2, r3
 80019d2:	4690      	mov	r8, r2
 80019d4:	2b0d      	cmp	r3, #13
 80019d6:	d100      	bne.n	80019da <UART2_RX_transfer_complete_callback+0xce>
 80019d8:	e1e5      	b.n	8001da6 <UART2_RX_transfer_complete_callback+0x49a>
			else if((speed_fsm.current_state.speed_exclusive_state == MIDI_CLK_MODE) && (Get_Status_Bit(&statuses, Software_IP_CAP_Idle_Timer_Has_Timed_Out) == NO)){
 80019da:	782b      	ldrb	r3, [r5, #0]
 80019dc:	2b08      	cmp	r3, #8
 80019de:	d100      	bne.n	80019e2 <UART2_RX_transfer_complete_callback+0xd6>
 80019e0:	e2b6      	b.n	8001f50 <UART2_RX_transfer_complete_callback+0x644>
			else if((speed_fsm.current_state.speed_exclusive_state == MIDI_CLK_MODE) && (IP_CAP_fsm.current_state == IDLE) && (Get_Status_Bit(&statuses, Software_IP_CAP_Idle_Timer_Has_Timed_Out) == YES)){
 80019e2:	782b      	ldrb	r3, [r5, #0]
 80019e4:	b2da      	uxtb	r2, r3
 80019e6:	4690      	mov	r8, r2
 80019e8:	2b08      	cmp	r3, #8
 80019ea:	d100      	bne.n	80019ee <UART2_RX_transfer_complete_callback+0xe2>
 80019ec:	e23d      	b.n	8001e6a <UART2_RX_transfer_complete_callback+0x55e>
			else if(speed_fsm.current_state.speed_exclusive_state == MIDI_CLK_RESYNC_A0_MODE){
 80019ee:	782b      	ldrb	r3, [r5, #0]
 80019f0:	2b0e      	cmp	r3, #14
 80019f2:	d100      	bne.n	80019f6 <UART2_RX_transfer_complete_callback+0xea>
 80019f4:	e25f      	b.n	8001eb6 <UART2_RX_transfer_complete_callback+0x5aa>
			else if(speed_fsm.current_state.speed_exclusive_state == MIDI_CLK_RESYNC_A1_MODE){
 80019f6:	782b      	ldrb	r3, [r5, #0]
 80019f8:	b2d9      	uxtb	r1, r3
 80019fa:	2b0f      	cmp	r3, #15
 80019fc:	d100      	bne.n	8001a00 <UART2_RX_transfer_complete_callback+0xf4>
 80019fe:	e2c4      	b.n	8001f8a <UART2_RX_transfer_complete_callback+0x67e>
			else if(speed_fsm.current_state.speed_exclusive_state == MIDI_CLK_RESYNC_B0_MODE){
 8001a00:	782b      	ldrb	r3, [r5, #0]
 8001a02:	2b10      	cmp	r3, #16
 8001a04:	d100      	bne.n	8001a08 <UART2_RX_transfer_complete_callback+0xfc>
 8001a06:	e313      	b.n	8002030 <UART2_RX_transfer_complete_callback+0x724>
			else if(speed_fsm.current_state.speed_exclusive_state == MIDI_CLK_RESYNC_B1_MODE){
 8001a08:	782b      	ldrb	r3, [r5, #0]
 8001a0a:	2b11      	cmp	r3, #17
 8001a0c:	d100      	bne.n	8001a10 <UART2_RX_transfer_complete_callback+0x104>
 8001a0e:	e325      	b.n	800205c <UART2_RX_transfer_complete_callback+0x750>
			else if(speed_fsm.current_state.speed_exclusive_state == MIDI_CLK_RESYNC_B2_MODE){
 8001a10:	782b      	ldrb	r3, [r5, #0]
 8001a12:	b2da      	uxtb	r2, r3
 8001a14:	4690      	mov	r8, r2
 8001a16:	2b12      	cmp	r3, #18
 8001a18:	d000      	beq.n	8001a1c <UART2_RX_transfer_complete_callback+0x110>
 8001a1a:	e78a      	b.n	8001932 <UART2_RX_transfer_complete_callback+0x26>
				if(*rx_buffer == SYSTEM_REAL_TIME_MIDI_CLOCK){
 8001a1c:	7823      	ldrb	r3, [r4, #0]
 8001a1e:	2bf8      	cmp	r3, #248	@ 0xf8
 8001a20:	d000      	beq.n	8001a24 <UART2_RX_transfer_complete_callback+0x118>
 8001a22:	e786      	b.n	8001932 <UART2_RX_transfer_complete_callback+0x26>
					Set_Oscillator_Values(&params_to_be_loaded);
 8001a24:	4f95      	ldr	r7, [pc, #596]	@ (8001c7c <UART2_RX_transfer_complete_callback+0x370>)
 8001a26:	0038      	movs	r0, r7
 8001a28:	f000 fe34 	bl	8002694 <Set_Oscillator_Values>
					HAL_GPIO_WritePin(SW_OUT_GPIO_Port, SW_OUT_Pin, 1);
 8001a2c:	2180      	movs	r1, #128	@ 0x80
 8001a2e:	20a0      	movs	r0, #160	@ 0xa0
 8001a30:	2201      	movs	r2, #1
 8001a32:	0089      	lsls	r1, r1, #2
 8001a34:	05c0      	lsls	r0, r0, #23
 8001a36:	f002 fe19 	bl	800466c <HAL_GPIO_WritePin>
					HAL_GPIO_WritePin(LD3_GPIO_Port, LD3_Pin, 0);
 8001a3a:	2200      	movs	r2, #0
 8001a3c:	2140      	movs	r1, #64	@ 0x40
 8001a3e:	4890      	ldr	r0, [pc, #576]	@ (8001c80 <UART2_RX_transfer_complete_callback+0x374>)
 8001a40:	f002 fe14 	bl	800466c <HAL_GPIO_WritePin>
					HAL_GPIO_WritePin(SW_OUT_GPIO_Port, SW_OUT_Pin, 0);
 8001a44:	2180      	movs	r1, #128	@ 0x80
 8001a46:	20a0      	movs	r0, #160	@ 0xa0
 8001a48:	2200      	movs	r2, #0
 8001a4a:	0089      	lsls	r1, r1, #2
 8001a4c:	05c0      	lsls	r0, r0, #23
 8001a4e:	f002 fe0d 	bl	800466c <HAL_GPIO_WritePin>
					HAL_GPIO_WritePin(LD3_GPIO_Port, LD3_Pin, 1);
 8001a52:	2201      	movs	r2, #1
 8001a54:	2140      	movs	r1, #64	@ 0x40
 8001a56:	488a      	ldr	r0, [pc, #552]	@ (8001c80 <UART2_RX_transfer_complete_callback+0x374>)
 8001a58:	f002 fe08 	bl	800466c <HAL_GPIO_WritePin>
					speed_fsm.prev_state.speed_exclusive_state = MIDI_CLK_RESYNC_B2_MODE;
 8001a5c:	4643      	mov	r3, r8
 8001a5e:	706b      	strb	r3, [r5, #1]
					speed_fsm.current_state.speed_exclusive_state = MIDI_CLK_MODE;
 8001a60:	2308      	movs	r3, #8
					MIDI_CLK_tag = 1;
 8001a62:	2201      	movs	r2, #1
					speed_fsm.current_state.speed_exclusive_state = MIDI_CLK_MODE;
 8001a64:	702b      	strb	r3, [r5, #0]
 8001a66:	4698      	mov	r8, r3
					MIDI_CLK_tag = 1;
 8001a68:	4b86      	ldr	r3, [pc, #536]	@ (8001c84 <UART2_RX_transfer_complete_callback+0x378>)
					Stop_OC_TIM(&htim3, TIM_CHANNEL_1); //do we need?
 8001a6a:	2100      	movs	r1, #0
 8001a6c:	4886      	ldr	r0, [pc, #536]	@ (8001c88 <UART2_RX_transfer_complete_callback+0x37c>)
					MIDI_CLK_tag = 1;
 8001a6e:	701a      	strb	r2, [r3, #0]
					Stop_OC_TIM(&htim3, TIM_CHANNEL_1); //do we need?
 8001a70:	f001 fc12 	bl	8003298 <Stop_OC_TIM>
					IP_CAP_fsm.current_state = IDLE; //force idle so next edge is forced to be computed as first edge
 8001a74:	2200      	movs	r2, #0
 8001a76:	4691      	mov	r9, r2
 8001a78:	4b84      	ldr	r3, [pc, #528]	@ (8001c8c <UART2_RX_transfer_complete_callback+0x380>)
					Copy_Params_Structs(&params_to_be_loaded, &params_working);
 8001a7a:	4985      	ldr	r1, [pc, #532]	@ (8001c90 <UART2_RX_transfer_complete_callback+0x384>)
 8001a7c:	0038      	movs	r0, r7
					IP_CAP_fsm.current_state = IDLE; //force idle so next edge is forced to be computed as first edge
 8001a7e:	701a      	strb	r2, [r3, #0]
					Copy_Params_Structs(&params_to_be_loaded, &params_working);
 8001a80:	f000 fd26 	bl	80024d0 <Copy_Params_Structs>
					Copy_Params_Structs(&params_to_be_loaded, &params);
 8001a84:	4d83      	ldr	r5, [pc, #524]	@ (8001c94 <UART2_RX_transfer_complete_callback+0x388>)
 8001a86:	0038      	movs	r0, r7
 8001a88:	0029      	movs	r1, r5
 8001a8a:	f000 fd21 	bl	80024d0 <Copy_Params_Structs>
					Set_Status_Bit(&statuses, First_Sync_Complete);
 8001a8e:	4641      	mov	r1, r8
 8001a90:	0030      	movs	r0, r6
 8001a92:	f001 fc35 	bl	8003300 <Set_Status_Bit>
					Calculate_Next_Main_Oscillator_Values(&params, (enum Next_Values_Processing_Mode)REGULAR_MODE);
 8001a96:	4649      	mov	r1, r9
 8001a98:	0028      	movs	r0, r5
 8001a9a:	f000 fe13 	bl	80026c4 <Calculate_Next_Main_Oscillator_Values>
					Write_Next_Main_Oscillator_Values_to_Delay_Line(&params, &delay_line);
 8001a9e:	0028      	movs	r0, r5
 8001aa0:	497d      	ldr	r1, [pc, #500]	@ (8001c98 <UART2_RX_transfer_complete_callback+0x38c>)
 8001aa2:	f000 fe9d 	bl	80027e0 <Write_Next_Main_Oscillator_Values_to_Delay_Line>
					HAL_ADC_Start_DMA(&hadc1, (uint32_t*)ADCResultsDMA, (uint32_t)num_ADC_conversions); //this function takes ages to execute!
 8001aa6:	4b7d      	ldr	r3, [pc, #500]	@ (8001c9c <UART2_RX_transfer_complete_callback+0x390>)
 8001aa8:	497d      	ldr	r1, [pc, #500]	@ (8001ca0 <UART2_RX_transfer_complete_callback+0x394>)
 8001aaa:	781a      	ldrb	r2, [r3, #0]
 8001aac:	487d      	ldr	r0, [pc, #500]	@ (8001ca4 <UART2_RX_transfer_complete_callback+0x398>)
 8001aae:	f002 f85d 	bl	8003b6c <HAL_ADC_Start_DMA>
 8001ab2:	e73e      	b.n	8001932 <UART2_RX_transfer_complete_callback+0x26>
			if(Get_Status_Bit(&statuses, Software_MIDI_Timer_Has_Timed_Out) == YES){
 8001ab4:	2180      	movs	r1, #128	@ 0x80
 8001ab6:	4e6e      	ldr	r6, [pc, #440]	@ (8001c70 <UART2_RX_transfer_complete_callback+0x364>)
 8001ab8:	0089      	lsls	r1, r1, #2
 8001aba:	0030      	movs	r0, r6
 8001abc:	f001 fc1a 	bl	80032f4 <Get_Status_Bit>
 8001ac0:	2801      	cmp	r0, #1
 8001ac2:	d026      	beq.n	8001b12 <UART2_RX_transfer_complete_callback+0x206>
				if(Is_Data_Byte(rx_buffer) == YES){
 8001ac4:	0020      	movs	r0, r4
 8001ac6:	f7fe ffa3 	bl	8000a10 <Is_Data_Byte>
 8001aca:	2801      	cmp	r0, #1
 8001acc:	d07e      	beq.n	8001bcc <UART2_RX_transfer_complete_callback+0x2c0>
					Clear_Data_Buffer(&MIDI_data);
 8001ace:	4866      	ldr	r0, [pc, #408]	@ (8001c68 <UART2_RX_transfer_complete_callback+0x35c>)
 8001ad0:	f7ff f82e 	bl	8000b30 <Clear_Data_Buffer>
					Reset_and_Stop_MIDI_Software_Timer(&midi_counter, &statuses);
 8001ad4:	0031      	movs	r1, r6
 8001ad6:	4874      	ldr	r0, [pc, #464]	@ (8001ca8 <UART2_RX_transfer_complete_callback+0x39c>)
 8001ad8:	f7ff f860 	bl	8000b9c <Reset_and_Stop_MIDI_Software_Timer>
					if(Is_PC_Status_Byte(rx_buffer) == YES){
 8001adc:	0020      	movs	r0, r4
 8001ade:	f7fe ff9d 	bl	8000a1c <Is_PC_Status_Byte>
 8001ae2:	2801      	cmp	r0, #1
 8001ae4:	d058      	beq.n	8001b98 <UART2_RX_transfer_complete_callback+0x28c>
					else if(Is_CC_Status_Byte(rx_buffer) == YES){
 8001ae6:	0020      	movs	r0, r4
 8001ae8:	f7fe ffa0 	bl	8000a2c <Is_CC_Status_Byte>
 8001aec:	2801      	cmp	r0, #1
 8001aee:	d053      	beq.n	8001b98 <UART2_RX_transfer_complete_callback+0x28c>
					else if(Is_Sysex_Start_Status_Byte(rx_buffer) == YES){
 8001af0:	0020      	movs	r0, r4
 8001af2:	f7fe fff1 	bl	8000ad8 <Is_Sysex_Start_Status_Byte>
 8001af6:	2801      	cmp	r0, #1
 8001af8:	d000      	beq.n	8001afc <UART2_RX_transfer_complete_callback+0x1f0>
 8001afa:	e71a      	b.n	8001932 <UART2_RX_transfer_complete_callback+0x26>
						running_status_byte = 0;
 8001afc:	2200      	movs	r2, #0
						active_status_byte = (uint8_t)*rx_buffer;
 8001afe:	7823      	ldrb	r3, [r4, #0]
						Set_Status_Bit(&statuses, Software_IP_CAP_Idle_Timer_Is_Running);
 8001b00:	2140      	movs	r1, #64	@ 0x40
						active_status_byte = (uint8_t)*rx_buffer;
 8001b02:	b2db      	uxtb	r3, r3
 8001b04:	702b      	strb	r3, [r5, #0]
						running_status_byte = 0;
 8001b06:	4b59      	ldr	r3, [pc, #356]	@ (8001c6c <UART2_RX_transfer_complete_callback+0x360>)
						Set_Status_Bit(&statuses, Software_IP_CAP_Idle_Timer_Is_Running);
 8001b08:	0030      	movs	r0, r6
						running_status_byte = 0;
 8001b0a:	701a      	strb	r2, [r3, #0]
						Set_Status_Bit(&statuses, Software_IP_CAP_Idle_Timer_Is_Running);
 8001b0c:	f001 fbf8 	bl	8003300 <Set_Status_Bit>
 8001b10:	e70f      	b.n	8001932 <UART2_RX_transfer_complete_callback+0x26>
				active_status_byte = 0;
 8001b12:	2300      	movs	r3, #0
				Clear_Data_Buffer(&MIDI_data);
 8001b14:	4854      	ldr	r0, [pc, #336]	@ (8001c68 <UART2_RX_transfer_complete_callback+0x35c>)
				active_status_byte = 0;
 8001b16:	702b      	strb	r3, [r5, #0]
				Clear_Data_Buffer(&MIDI_data);
 8001b18:	f7ff f80a 	bl	8000b30 <Clear_Data_Buffer>
				Clear_Status_Bit(&statuses, Software_MIDI_Timer_Has_Timed_Out);
 8001b1c:	2180      	movs	r1, #128	@ 0x80
 8001b1e:	0030      	movs	r0, r6
 8001b20:	0089      	lsls	r1, r1, #2
 8001b22:	f001 fbf1 	bl	8003308 <Clear_Status_Bit>
 8001b26:	e704      	b.n	8001932 <UART2_RX_transfer_complete_callback+0x26>
			if((MIDI_CLK_fsm == NOT_COMPILING) && (IP_CAP_fsm.current_state == IDLE)
 8001b28:	4b58      	ldr	r3, [pc, #352]	@ (8001c8c <UART2_RX_transfer_complete_callback+0x380>)
					&& ((speed_fsm.current_state.speed_exclusive_state == TAP_MODE)
 8001b2a:	4d53      	ldr	r5, [pc, #332]	@ (8001c78 <UART2_RX_transfer_complete_callback+0x36c>)
			if((MIDI_CLK_fsm == NOT_COMPILING) && (IP_CAP_fsm.current_state == IDLE)
 8001b2c:	781b      	ldrb	r3, [r3, #0]
 8001b2e:	2b00      	cmp	r3, #0
 8001b30:	d000      	beq.n	8001b34 <UART2_RX_transfer_complete_callback+0x228>
 8001b32:	e73b      	b.n	80019ac <UART2_RX_transfer_complete_callback+0xa0>
					&& ((speed_fsm.current_state.speed_exclusive_state == TAP_MODE)
 8001b34:	782b      	ldrb	r3, [r5, #0]
 8001b36:	2b04      	cmp	r3, #4
 8001b38:	d00c      	beq.n	8001b54 <UART2_RX_transfer_complete_callback+0x248>
					|| (speed_fsm.current_state.shared_state == MANUAL_MODE)
 8001b3a:	782b      	ldrb	r3, [r5, #0]
 8001b3c:	2b01      	cmp	r3, #1
 8001b3e:	d009      	beq.n	8001b54 <UART2_RX_transfer_complete_callback+0x248>
					|| (speed_fsm.current_state.speed_exclusive_state == CLK_IN_MODE)
 8001b40:	782b      	ldrb	r3, [r5, #0]
 8001b42:	2b06      	cmp	r3, #6
 8001b44:	d006      	beq.n	8001b54 <UART2_RX_transfer_complete_callback+0x248>
					|| (speed_fsm.current_state.shared_state == PC_MODE)
 8001b46:	782b      	ldrb	r3, [r5, #0]
 8001b48:	2b03      	cmp	r3, #3
 8001b4a:	d003      	beq.n	8001b54 <UART2_RX_transfer_complete_callback+0x248>
					|| (speed_fsm.current_state.shared_state == CC_MODE))){
 8001b4c:	782b      	ldrb	r3, [r5, #0]
 8001b4e:	2b02      	cmp	r3, #2
 8001b50:	d000      	beq.n	8001b54 <UART2_RX_transfer_complete_callback+0x248>
 8001b52:	e72b      	b.n	80019ac <UART2_RX_transfer_complete_callback+0xa0>
				if(*rx_buffer == SYSTEM_REAL_TIME_START){
 8001b54:	7823      	ldrb	r3, [r4, #0]
 8001b56:	2bfa      	cmp	r3, #250	@ 0xfa
 8001b58:	d100      	bne.n	8001b5c <UART2_RX_transfer_complete_callback+0x250>
 8001b5a:	e105      	b.n	8001d68 <UART2_RX_transfer_complete_callback+0x45c>
				else if(*rx_buffer == SYSTEM_REAL_TIME_MIDI_CLOCK){
 8001b5c:	7823      	ldrb	r3, [r4, #0]
 8001b5e:	2bf8      	cmp	r3, #248	@ 0xf8
 8001b60:	d000      	beq.n	8001b64 <UART2_RX_transfer_complete_callback+0x258>
 8001b62:	e6e6      	b.n	8001932 <UART2_RX_transfer_complete_callback+0x26>
					speed_fsm.prev_state = speed_fsm.current_state;
 8001b64:	782b      	ldrb	r3, [r5, #0]
					HAL_GPIO_WritePin(SW_OUT_GPIO_Port, SW_OUT_Pin, 0);
 8001b66:	2180      	movs	r1, #128	@ 0x80
					speed_fsm.prev_state = speed_fsm.current_state;
 8001b68:	706b      	strb	r3, [r5, #1]
					speed_fsm.current_state.speed_exclusive_state = MIDI_CLK_PENDING_B0_MODE;
 8001b6a:	230b      	movs	r3, #11
					HAL_GPIO_WritePin(SW_OUT_GPIO_Port, SW_OUT_Pin, 0);
 8001b6c:	20a0      	movs	r0, #160	@ 0xa0
					speed_fsm.current_state.speed_exclusive_state = MIDI_CLK_PENDING_B0_MODE;
 8001b6e:	702b      	strb	r3, [r5, #0]
					MIDI_CLK_tag = 0; //just in case
 8001b70:	2300      	movs	r3, #0
 8001b72:	4d44      	ldr	r5, [pc, #272]	@ (8001c84 <UART2_RX_transfer_complete_callback+0x378>)
					HAL_GPIO_WritePin(SW_OUT_GPIO_Port, SW_OUT_Pin, 0);
 8001b74:	2200      	movs	r2, #0
 8001b76:	0089      	lsls	r1, r1, #2
 8001b78:	05c0      	lsls	r0, r0, #23
					MIDI_CLK_tag = 0; //just in case
 8001b7a:	702b      	strb	r3, [r5, #0]
					HAL_GPIO_WritePin(SW_OUT_GPIO_Port, SW_OUT_Pin, 0);
 8001b7c:	f002 fd76 	bl	800466c <HAL_GPIO_WritePin>
					HAL_GPIO_WritePin(LD3_GPIO_Port, LD3_Pin, 1);
 8001b80:	2201      	movs	r2, #1
 8001b82:	2140      	movs	r1, #64	@ 0x40
 8001b84:	483e      	ldr	r0, [pc, #248]	@ (8001c80 <UART2_RX_transfer_complete_callback+0x374>)
 8001b86:	f002 fd71 	bl	800466c <HAL_GPIO_WritePin>
					MIDI_CLK_fsm = COMPILING;
 8001b8a:	2301      	movs	r3, #1
 8001b8c:	703b      	strb	r3, [r7, #0]
					MIDI_CLK_tag++;
 8001b8e:	782b      	ldrb	r3, [r5, #0]
 8001b90:	3301      	adds	r3, #1
 8001b92:	b2db      	uxtb	r3, r3
 8001b94:	702b      	strb	r3, [r5, #0]
 8001b96:	e6cc      	b.n	8001932 <UART2_RX_transfer_complete_callback+0x26>
						running_status_byte = (uint8_t)*rx_buffer;
 8001b98:	7823      	ldrb	r3, [r4, #0]
 8001b9a:	4a34      	ldr	r2, [pc, #208]	@ (8001c6c <UART2_RX_transfer_complete_callback+0x360>)
 8001b9c:	b2db      	uxtb	r3, r3
 8001b9e:	7013      	strb	r3, [r2, #0]
						if(Is_Channelised_Status_Byte_On_Basic_Channel(rx_buffer, MIDI_basic_channel) == YES){
 8001ba0:	4b42      	ldr	r3, [pc, #264]	@ (8001cac <UART2_RX_transfer_complete_callback+0x3a0>)
 8001ba2:	0020      	movs	r0, r4
 8001ba4:	7819      	ldrb	r1, [r3, #0]
 8001ba6:	b2c9      	uxtb	r1, r1
 8001ba8:	f7fe ff9c 	bl	8000ae4 <Is_Channelised_Status_Byte_On_Basic_Channel>
 8001bac:	2801      	cmp	r0, #1
 8001bae:	d005      	beq.n	8001bbc <UART2_RX_transfer_complete_callback+0x2b0>
							if(Is_OMNI_On(&statuses) == YES){
 8001bb0:	0030      	movs	r0, r6
 8001bb2:	f7fe ffe9 	bl	8000b88 <Is_OMNI_On>
 8001bb6:	2801      	cmp	r0, #1
 8001bb8:	d000      	beq.n	8001bbc <UART2_RX_transfer_complete_callback+0x2b0>
 8001bba:	e6ba      	b.n	8001932 <UART2_RX_transfer_complete_callback+0x26>
								active_status_byte = (uint8_t)*rx_buffer;
 8001bbc:	7823      	ldrb	r3, [r4, #0]
								Set_Status_Bit(&statuses, Software_IP_CAP_Idle_Timer_Is_Running);
 8001bbe:	2140      	movs	r1, #64	@ 0x40
								active_status_byte = (uint8_t)*rx_buffer;
 8001bc0:	b2db      	uxtb	r3, r3
								Set_Status_Bit(&statuses, Software_IP_CAP_Idle_Timer_Is_Running);
 8001bc2:	0030      	movs	r0, r6
								active_status_byte = (uint8_t)*rx_buffer;
 8001bc4:	702b      	strb	r3, [r5, #0]
								Set_Status_Bit(&statuses, Software_IP_CAP_Idle_Timer_Is_Running);
 8001bc6:	f001 fb9b 	bl	8003300 <Set_Status_Bit>
 8001bca:	e6b2      	b.n	8001932 <UART2_RX_transfer_complete_callback+0x26>
					if(Is_PC_Status_Byte(&active_status_byte) == YES){
 8001bcc:	0028      	movs	r0, r5
 8001bce:	f7fe ff25 	bl	8000a1c <Is_PC_Status_Byte>
 8001bd2:	2801      	cmp	r0, #1
 8001bd4:	d029      	beq.n	8001c2a <UART2_RX_transfer_complete_callback+0x31e>
					else if(Is_CC_Status_Byte(&active_status_byte) == YES){
 8001bd6:	0028      	movs	r0, r5
 8001bd8:	f7fe ff28 	bl	8000a2c <Is_CC_Status_Byte>
 8001bdc:	2801      	cmp	r0, #1
 8001bde:	d100      	bne.n	8001be2 <UART2_RX_transfer_complete_callback+0x2d6>
 8001be0:	e07e      	b.n	8001ce0 <UART2_RX_transfer_complete_callback+0x3d4>
					else if(Is_Sysex_Start_Status_Byte(&active_status_byte) == YES){
 8001be2:	0028      	movs	r0, r5
 8001be4:	f7fe ff78 	bl	8000ad8 <Is_Sysex_Start_Status_Byte>
 8001be8:	2801      	cmp	r0, #1
 8001bea:	d000      	beq.n	8001bee <UART2_RX_transfer_complete_callback+0x2e2>
 8001bec:	e6a1      	b.n	8001932 <UART2_RX_transfer_complete_callback+0x26>
						if(Is_Data_Buffer_Empty(&MIDI_data) == YES){
 8001bee:	481e      	ldr	r0, [pc, #120]	@ (8001c68 <UART2_RX_transfer_complete_callback+0x35c>)
 8001bf0:	f7fe ff86 	bl	8000b00 <Is_Data_Buffer_Empty>
						}
 8001bf4:	e69d      	b.n	8001932 <UART2_RX_transfer_complete_callback+0x26>
				if(*rx_buffer == SYSTEM_REAL_TIME_MIDI_CLOCK){
 8001bf6:	7823      	ldrb	r3, [r4, #0]
 8001bf8:	2bf8      	cmp	r3, #248	@ 0xf8
 8001bfa:	d000      	beq.n	8001bfe <UART2_RX_transfer_complete_callback+0x2f2>
 8001bfc:	e699      	b.n	8001932 <UART2_RX_transfer_complete_callback+0x26>
					HAL_GPIO_WritePin(SW_OUT_GPIO_Port, SW_OUT_Pin, 0);
 8001bfe:	2180      	movs	r1, #128	@ 0x80
 8001c00:	20a0      	movs	r0, #160	@ 0xa0
 8001c02:	2200      	movs	r2, #0
 8001c04:	0089      	lsls	r1, r1, #2
 8001c06:	05c0      	lsls	r0, r0, #23
 8001c08:	f002 fd30 	bl	800466c <HAL_GPIO_WritePin>
					HAL_GPIO_WritePin(LD3_GPIO_Port, LD3_Pin, 1);
 8001c0c:	2201      	movs	r2, #1
 8001c0e:	2140      	movs	r1, #64	@ 0x40
 8001c10:	481b      	ldr	r0, [pc, #108]	@ (8001c80 <UART2_RX_transfer_complete_callback+0x374>)
 8001c12:	f002 fd2b 	bl	800466c <HAL_GPIO_WritePin>
					MIDI_CLK_fsm = COMPILING;
 8001c16:	2301      	movs	r3, #1
					MIDI_CLK_tag++;
 8001c18:	4a1a      	ldr	r2, [pc, #104]	@ (8001c84 <UART2_RX_transfer_complete_callback+0x378>)
					MIDI_CLK_fsm = COMPILING;
 8001c1a:	703b      	strb	r3, [r7, #0]
					MIDI_CLK_tag++;
 8001c1c:	7813      	ldrb	r3, [r2, #0]
 8001c1e:	3301      	adds	r3, #1
 8001c20:	b2db      	uxtb	r3, r3
 8001c22:	7013      	strb	r3, [r2, #0]
					speed_fsm.current_state.speed_exclusive_state = MIDI_CLK_PENDING_A1_MODE;
 8001c24:	230a      	movs	r3, #10
 8001c26:	702b      	strb	r3, [r5, #0]
 8001c28:	e683      	b.n	8001932 <UART2_RX_transfer_complete_callback+0x26>
						if(Is_Data_Buffer_Empty(&MIDI_data) == YES){
 8001c2a:	4f0f      	ldr	r7, [pc, #60]	@ (8001c68 <UART2_RX_transfer_complete_callback+0x35c>)
 8001c2c:	0038      	movs	r0, r7
 8001c2e:	f7fe ff67 	bl	8000b00 <Is_Data_Buffer_Empty>
 8001c32:	2801      	cmp	r0, #1
 8001c34:	d000      	beq.n	8001c38 <UART2_RX_transfer_complete_callback+0x32c>
 8001c36:	e67c      	b.n	8001932 <UART2_RX_transfer_complete_callback+0x26>
							if(Is_Program_Change_Data_Byte_In_Range(rx_buffer, NUM_PRESETS) == YES){
 8001c38:	2104      	movs	r1, #4
 8001c3a:	0020      	movs	r0, r4
 8001c3c:	f7fe ff86 	bl	8000b4c <Is_Program_Change_Data_Byte_In_Range>
 8001c40:	2801      	cmp	r0, #1
 8001c42:	d100      	bne.n	8001c46 <UART2_RX_transfer_complete_callback+0x33a>
 8001c44:	e215      	b.n	8002072 <UART2_RX_transfer_complete_callback+0x766>
							Clear_Data_Buffer(&MIDI_data);
 8001c46:	0038      	movs	r0, r7
 8001c48:	f7fe ff72 	bl	8000b30 <Clear_Data_Buffer>
							active_status_byte = 0;
 8001c4c:	2300      	movs	r3, #0
							Reset_and_Stop_MIDI_Software_Timer(&midi_counter, &statuses);
 8001c4e:	0031      	movs	r1, r6
 8001c50:	4815      	ldr	r0, [pc, #84]	@ (8001ca8 <UART2_RX_transfer_complete_callback+0x39c>)
							active_status_byte = 0;
 8001c52:	702b      	strb	r3, [r5, #0]
							Reset_and_Stop_MIDI_Software_Timer(&midi_counter, &statuses);
 8001c54:	f7fe ffa2 	bl	8000b9c <Reset_and_Stop_MIDI_Software_Timer>
 8001c58:	e66b      	b.n	8001932 <UART2_RX_transfer_complete_callback+0x26>
 8001c5a:	46c0      	nop			@ (mov r8, r8)
 8001c5c:	200004d4 	.word	0x200004d4
 8001c60:	200004cf 	.word	0x200004cf
 8001c64:	200005f4 	.word	0x200005f4
 8001c68:	200004c4 	.word	0x200004c4
 8001c6c:	200004ce 	.word	0x200004ce
 8001c70:	20000c20 	.word	0x20000c20
 8001c74:	20000cbe 	.word	0x20000cbe
 8001c78:	2000043c 	.word	0x2000043c
 8001c7c:	20000c48 	.word	0x20000c48
 8001c80:	50000800 	.word	0x50000800
 8001c84:	20000c0e 	.word	0x20000c0e
 8001c88:	2000077c 	.word	0x2000077c
 8001c8c:	20000428 	.word	0x20000428
 8001c90:	20000c24 	.word	0x20000c24
 8001c94:	20000c90 	.word	0x20000c90
 8001c98:	20000020 	.word	0x20000020
 8001c9c:	08007c69 	.word	0x08007c69
 8001ca0:	20000cb4 	.word	0x20000cb4
 8001ca4:	20000b84 	.word	0x20000b84
 8001ca8:	20000c18 	.word	0x20000c18
 8001cac:	200004d0 	.word	0x200004d0
				if(*rx_buffer == SYSTEM_REAL_TIME_MIDI_CLOCK){
 8001cb0:	7823      	ldrb	r3, [r4, #0]
 8001cb2:	2bf8      	cmp	r3, #248	@ 0xf8
 8001cb4:	d000      	beq.n	8001cb8 <UART2_RX_transfer_complete_callback+0x3ac>
 8001cb6:	e63c      	b.n	8001932 <UART2_RX_transfer_complete_callback+0x26>
					MIDI_CLK_fsm = COMPILING; //just in case
 8001cb8:	2001      	movs	r0, #1
					MIDI_CLK_tag++;
 8001cba:	49d0      	ldr	r1, [pc, #832]	@ (8001ffc <UART2_RX_transfer_complete_callback+0x6f0>)
					MIDI_CLK_fsm = COMPILING; //just in case
 8001cbc:	7038      	strb	r0, [r7, #0]
					MIDI_CLK_tag++;
 8001cbe:	780b      	ldrb	r3, [r1, #0]
 8001cc0:	3301      	adds	r3, #1
 8001cc2:	b2db      	uxtb	r3, r3
 8001cc4:	700b      	strb	r3, [r1, #0]
					if(MIDI_CLK_tag < 12){
 8001cc6:	780b      	ldrb	r3, [r1, #0]
 8001cc8:	2b0b      	cmp	r3, #11
 8001cca:	d800      	bhi.n	8001cce <UART2_RX_transfer_complete_callback+0x3c2>
 8001ccc:	e0ab      	b.n	8001e26 <UART2_RX_transfer_complete_callback+0x51a>
					else if(MIDI_CLK_tag < 25){
 8001cce:	780b      	ldrb	r3, [r1, #0]
 8001cd0:	2b18      	cmp	r3, #24
 8001cd2:	d800      	bhi.n	8001cd6 <UART2_RX_transfer_complete_callback+0x3ca>
 8001cd4:	e0b4      	b.n	8001e40 <UART2_RX_transfer_complete_callback+0x534>
						speed_fsm.current_state.speed_exclusive_state = MIDI_CLK_MODE;
 8001cd6:	2308      	movs	r3, #8
						speed_fsm.prev_state.speed_exclusive_state = MIDI_CLK_PENDING_A1_MODE;
 8001cd8:	706a      	strb	r2, [r5, #1]
						speed_fsm.current_state.speed_exclusive_state = MIDI_CLK_MODE;
 8001cda:	702b      	strb	r3, [r5, #0]
						MIDI_CLK_tag = 1;
 8001cdc:	7008      	strb	r0, [r1, #0]
 8001cde:	e628      	b.n	8001932 <UART2_RX_transfer_complete_callback+0x26>
						if(Is_Data_Buffer_Empty(&MIDI_data) == YES){
 8001ce0:	4fc7      	ldr	r7, [pc, #796]	@ (8002000 <UART2_RX_transfer_complete_callback+0x6f4>)
 8001ce2:	0038      	movs	r0, r7
 8001ce4:	f7fe ff0c 	bl	8000b00 <Is_Data_Buffer_Empty>
							MIDI_data.MIDI_data_buffer[0] = *rx_buffer;
 8001ce8:	7823      	ldrb	r3, [r4, #0]
 8001cea:	b2db      	uxtb	r3, r3
						if(Is_Data_Buffer_Empty(&MIDI_data) == YES){
 8001cec:	2801      	cmp	r0, #1
 8001cee:	d143      	bne.n	8001d78 <UART2_RX_transfer_complete_callback+0x46c>
							midi_counter = 0; //reset timer
 8001cf0:	2200      	movs	r2, #0
							MIDI_data.MIDI_data_buffer[0] = *rx_buffer;
 8001cf2:	703b      	strb	r3, [r7, #0]
							midi_counter = 0; //reset timer
 8001cf4:	4bc3      	ldr	r3, [pc, #780]	@ (8002004 <UART2_RX_transfer_complete_callback+0x6f8>)
 8001cf6:	601a      	str	r2, [r3, #0]
 8001cf8:	e61b      	b.n	8001932 <UART2_RX_transfer_complete_callback+0x26>
				if(*rx_buffer == SYSTEM_REAL_TIME_MIDI_CLOCK){
 8001cfa:	7823      	ldrb	r3, [r4, #0]
 8001cfc:	2bf8      	cmp	r3, #248	@ 0xf8
 8001cfe:	d000      	beq.n	8001d02 <UART2_RX_transfer_complete_callback+0x3f6>
 8001d00:	e617      	b.n	8001932 <UART2_RX_transfer_complete_callback+0x26>
					MIDI_CLK_fsm = COMPILING; //just in case
 8001d02:	2101      	movs	r1, #1
					MIDI_CLK_tag++;
 8001d04:	4abd      	ldr	r2, [pc, #756]	@ (8001ffc <UART2_RX_transfer_complete_callback+0x6f0>)
					MIDI_CLK_fsm = COMPILING; //just in case
 8001d06:	7039      	strb	r1, [r7, #0]
					MIDI_CLK_tag++;
 8001d08:	7813      	ldrb	r3, [r2, #0]
 8001d0a:	3301      	adds	r3, #1
 8001d0c:	b2db      	uxtb	r3, r3
 8001d0e:	7013      	strb	r3, [r2, #0]
					if(MIDI_CLK_tag < 12){
 8001d10:	7813      	ldrb	r3, [r2, #0]
 8001d12:	2b0b      	cmp	r3, #11
 8001d14:	d800      	bhi.n	8001d18 <UART2_RX_transfer_complete_callback+0x40c>
 8001d16:	e086      	b.n	8001e26 <UART2_RX_transfer_complete_callback+0x51a>
					else if(MIDI_CLK_tag < 25){
 8001d18:	7813      	ldrb	r3, [r2, #0]
 8001d1a:	2b18      	cmp	r3, #24
 8001d1c:	d800      	bhi.n	8001d20 <UART2_RX_transfer_complete_callback+0x414>
 8001d1e:	e08f      	b.n	8001e40 <UART2_RX_transfer_complete_callback+0x534>
						speed_fsm.current_state.speed_exclusive_state = MIDI_CLK_PENDING_B1_MODE;
 8001d20:	230c      	movs	r3, #12
						MIDI_CLK_tag = 1;
 8001d22:	7011      	strb	r1, [r2, #0]
						speed_fsm.current_state.speed_exclusive_state = MIDI_CLK_PENDING_B1_MODE;
 8001d24:	702b      	strb	r3, [r5, #0]
 8001d26:	e604      	b.n	8001932 <UART2_RX_transfer_complete_callback+0x26>
						running_status_byte = (uint8_t)*rx_buffer;
 8001d28:	7823      	ldrb	r3, [r4, #0]
 8001d2a:	4ab7      	ldr	r2, [pc, #732]	@ (8002008 <UART2_RX_transfer_complete_callback+0x6fc>)
 8001d2c:	b2db      	uxtb	r3, r3
 8001d2e:	7013      	strb	r3, [r2, #0]
						if(Is_Channelised_Status_Byte_On_Basic_Channel(rx_buffer, MIDI_basic_channel) == YES){
 8001d30:	4bb6      	ldr	r3, [pc, #728]	@ (800200c <UART2_RX_transfer_complete_callback+0x700>)
 8001d32:	0020      	movs	r0, r4
 8001d34:	7819      	ldrb	r1, [r3, #0]
 8001d36:	b2c9      	uxtb	r1, r1
 8001d38:	f7fe fed4 	bl	8000ae4 <Is_Channelised_Status_Byte_On_Basic_Channel>
 8001d3c:	2801      	cmp	r0, #1
 8001d3e:	d100      	bne.n	8001d42 <UART2_RX_transfer_complete_callback+0x436>
 8001d40:	e08b      	b.n	8001e5a <UART2_RX_transfer_complete_callback+0x54e>
							if(Is_OMNI_On(&statuses) == YES){
 8001d42:	4eb3      	ldr	r6, [pc, #716]	@ (8002010 <UART2_RX_transfer_complete_callback+0x704>)
 8001d44:	0030      	movs	r0, r6
 8001d46:	f7fe ff1f 	bl	8000b88 <Is_OMNI_On>
 8001d4a:	2801      	cmp	r0, #1
 8001d4c:	d000      	beq.n	8001d50 <UART2_RX_transfer_complete_callback+0x444>
 8001d4e:	e5f0      	b.n	8001932 <UART2_RX_transfer_complete_callback+0x26>
 8001d50:	e734      	b.n	8001bbc <UART2_RX_transfer_complete_callback+0x2b0>
				if(*rx_buffer == SYSTEM_REAL_TIME_MIDI_CLOCK){
 8001d52:	7823      	ldrb	r3, [r4, #0]
 8001d54:	2bf8      	cmp	r3, #248	@ 0xf8
 8001d56:	d100      	bne.n	8001d5a <UART2_RX_transfer_complete_callback+0x44e>
 8001d58:	e0c7      	b.n	8001eea <UART2_RX_transfer_complete_callback+0x5de>
				else if(*rx_buffer == SYSTEM_REAL_TIME_START){
 8001d5a:	7823      	ldrb	r3, [r4, #0]
 8001d5c:	2bfa      	cmp	r3, #250	@ 0xfa
 8001d5e:	d000      	beq.n	8001d62 <UART2_RX_transfer_complete_callback+0x456>
 8001d60:	e5e7      	b.n	8001932 <UART2_RX_transfer_complete_callback+0x26>
					speed_fsm.current_state.speed_exclusive_state = MIDI_CLK_PENDING_B2_MODE;
 8001d62:	3bed      	subs	r3, #237	@ 0xed
 8001d64:	702b      	strb	r3, [r5, #0]
 8001d66:	e5e4      	b.n	8001932 <UART2_RX_transfer_complete_callback+0x26>
					speed_fsm.prev_state = speed_fsm.current_state;
 8001d68:	782b      	ldrb	r3, [r5, #0]
					MIDI_CLK_tag = 0; //just in case
 8001d6a:	2200      	movs	r2, #0
					speed_fsm.prev_state = speed_fsm.current_state;
 8001d6c:	706b      	strb	r3, [r5, #1]
					speed_fsm.current_state.speed_exclusive_state = MIDI_CLK_PENDING_A0_MODE;
 8001d6e:	2309      	movs	r3, #9
 8001d70:	702b      	strb	r3, [r5, #0]
					MIDI_CLK_tag = 0; //just in case
 8001d72:	4ba2      	ldr	r3, [pc, #648]	@ (8001ffc <UART2_RX_transfer_complete_callback+0x6f0>)
 8001d74:	701a      	strb	r2, [r3, #0]
 8001d76:	e5dc      	b.n	8001932 <UART2_RX_transfer_complete_callback+0x26>
							Reset_and_Stop_MIDI_Software_Timer(&midi_counter, &statuses);
 8001d78:	0031      	movs	r1, r6
 8001d7a:	48a2      	ldr	r0, [pc, #648]	@ (8002004 <UART2_RX_transfer_complete_callback+0x6f8>)
							MIDI_data.MIDI_data_buffer[1] = *rx_buffer;
 8001d7c:	707b      	strb	r3, [r7, #1]
							Reset_and_Stop_MIDI_Software_Timer(&midi_counter, &statuses);
 8001d7e:	f7fe ff0d 	bl	8000b9c <Reset_and_Stop_MIDI_Software_Timer>
							if(Is_Utilised_Channel_Mode_CC_First_Data_Byte(&MIDI_data.MIDI_data_buffer[0]) == YES){
 8001d82:	0038      	movs	r0, r7
 8001d84:	f7fe fe5a 	bl	8000a3c <Is_Utilised_Channel_Mode_CC_First_Data_Byte>
 8001d88:	2801      	cmp	r0, #1
 8001d8a:	d100      	bne.n	8001d8e <UART2_RX_transfer_complete_callback+0x482>
 8001d8c:	e0bc      	b.n	8001f08 <UART2_RX_transfer_complete_callback+0x5fc>
							else if(Is_Utilised_CC_First_Data_Byte(&MIDI_data.MIDI_data_buffer[0]) == YES){
 8001d8e:	0038      	movs	r0, r7
 8001d90:	f7fe fe6a 	bl	8000a68 <Is_Utilised_CC_First_Data_Byte>
 8001d94:	2801      	cmp	r0, #1
 8001d96:	d100      	bne.n	8001d9a <UART2_RX_transfer_complete_callback+0x48e>
 8001d98:	e10e      	b.n	8001fb8 <UART2_RX_transfer_complete_callback+0x6ac>
								active_status_byte = 0;
 8001d9a:	2300      	movs	r3, #0
								Clear_Data_Buffer(&MIDI_data);
 8001d9c:	0038      	movs	r0, r7
								active_status_byte = 0;
 8001d9e:	702b      	strb	r3, [r5, #0]
								Clear_Data_Buffer(&MIDI_data);
 8001da0:	f7fe fec6 	bl	8000b30 <Clear_Data_Buffer>
 8001da4:	e5c5      	b.n	8001932 <UART2_RX_transfer_complete_callback+0x26>
				if(*rx_buffer == SYSTEM_REAL_TIME_MIDI_CLOCK){
 8001da6:	7823      	ldrb	r3, [r4, #0]
 8001da8:	2bf8      	cmp	r3, #248	@ 0xf8
 8001daa:	d000      	beq.n	8001dae <UART2_RX_transfer_complete_callback+0x4a2>
 8001dac:	e5c1      	b.n	8001932 <UART2_RX_transfer_complete_callback+0x26>
					Set_Oscillator_Values(&params_to_be_loaded);
 8001dae:	4b99      	ldr	r3, [pc, #612]	@ (8002014 <UART2_RX_transfer_complete_callback+0x708>)
 8001db0:	0018      	movs	r0, r3
 8001db2:	4699      	mov	r9, r3
 8001db4:	f000 fc6e 	bl	8002694 <Set_Oscillator_Values>
					HAL_GPIO_WritePin(SW_OUT_GPIO_Port, SW_OUT_Pin, 1);
 8001db8:	2180      	movs	r1, #128	@ 0x80
 8001dba:	20a0      	movs	r0, #160	@ 0xa0
 8001dbc:	2201      	movs	r2, #1
 8001dbe:	0089      	lsls	r1, r1, #2
 8001dc0:	05c0      	lsls	r0, r0, #23
 8001dc2:	f002 fc53 	bl	800466c <HAL_GPIO_WritePin>
					HAL_GPIO_WritePin(LD3_GPIO_Port, LD3_Pin, 0);
 8001dc6:	2200      	movs	r2, #0
 8001dc8:	2140      	movs	r1, #64	@ 0x40
 8001dca:	4893      	ldr	r0, [pc, #588]	@ (8002018 <UART2_RX_transfer_complete_callback+0x70c>)
 8001dcc:	f002 fc4e 	bl	800466c <HAL_GPIO_WritePin>
					HAL_GPIO_WritePin(SW_OUT_GPIO_Port, SW_OUT_Pin, 0);
 8001dd0:	2180      	movs	r1, #128	@ 0x80
 8001dd2:	20a0      	movs	r0, #160	@ 0xa0
 8001dd4:	2200      	movs	r2, #0
 8001dd6:	0089      	lsls	r1, r1, #2
 8001dd8:	05c0      	lsls	r0, r0, #23
 8001dda:	f002 fc47 	bl	800466c <HAL_GPIO_WritePin>
					HAL_GPIO_WritePin(LD3_GPIO_Port, LD3_Pin, 1);
 8001dde:	2201      	movs	r2, #1
 8001de0:	2140      	movs	r1, #64	@ 0x40
 8001de2:	488d      	ldr	r0, [pc, #564]	@ (8002018 <UART2_RX_transfer_complete_callback+0x70c>)
 8001de4:	f002 fc42 	bl	800466c <HAL_GPIO_WritePin>
					MIDI_CLK_fsm = COMPILING; //just in case
 8001de8:	2301      	movs	r3, #1
					MIDI_CLK_tag = 1;
 8001dea:	4a84      	ldr	r2, [pc, #528]	@ (8001ffc <UART2_RX_transfer_complete_callback+0x6f0>)
					MIDI_CLK_fsm = COMPILING; //just in case
 8001dec:	703b      	strb	r3, [r7, #0]
					MIDI_CLK_tag = 1;
 8001dee:	7013      	strb	r3, [r2, #0]
					speed_fsm.current_state.speed_exclusive_state = MIDI_CLK_MODE;
 8001df0:	2708      	movs	r7, #8
					speed_fsm.prev_state.speed_exclusive_state = MIDI_CLK_PENDING_B2_MODE;
 8001df2:	4643      	mov	r3, r8
					Stop_OC_TIM(&htim3, TIM_CHANNEL_1); //do we need?
 8001df4:	2100      	movs	r1, #0
 8001df6:	4889      	ldr	r0, [pc, #548]	@ (800201c <UART2_RX_transfer_complete_callback+0x710>)
					speed_fsm.prev_state.speed_exclusive_state = MIDI_CLK_PENDING_B2_MODE;
 8001df8:	706b      	strb	r3, [r5, #1]
					speed_fsm.current_state.speed_exclusive_state = MIDI_CLK_MODE;
 8001dfa:	702f      	strb	r7, [r5, #0]
					Stop_OC_TIM(&htim3, TIM_CHANNEL_1); //do we need?
 8001dfc:	f001 fa4c 	bl	8003298 <Stop_OC_TIM>
					IP_CAP_fsm.current_state = IDLE; //force idle so next edge is forced to be computed as first edge
 8001e00:	2200      	movs	r2, #0
 8001e02:	4690      	mov	r8, r2
 8001e04:	4b86      	ldr	r3, [pc, #536]	@ (8002020 <UART2_RX_transfer_complete_callback+0x714>)
					Copy_Params_Structs(&params_to_be_loaded, &params_working);
 8001e06:	4987      	ldr	r1, [pc, #540]	@ (8002024 <UART2_RX_transfer_complete_callback+0x718>)
 8001e08:	4648      	mov	r0, r9
					IP_CAP_fsm.current_state = IDLE; //force idle so next edge is forced to be computed as first edge
 8001e0a:	701a      	strb	r2, [r3, #0]
					Copy_Params_Structs(&params_to_be_loaded, &params_working);
 8001e0c:	f000 fb60 	bl	80024d0 <Copy_Params_Structs>
					Copy_Params_Structs(&params_to_be_loaded, &params);
 8001e10:	4d85      	ldr	r5, [pc, #532]	@ (8002028 <UART2_RX_transfer_complete_callback+0x71c>)
 8001e12:	4648      	mov	r0, r9
 8001e14:	0029      	movs	r1, r5
 8001e16:	f000 fb5b 	bl	80024d0 <Copy_Params_Structs>
					Set_Status_Bit(&statuses, First_Sync_Complete);
 8001e1a:	0039      	movs	r1, r7
 8001e1c:	0030      	movs	r0, r6
 8001e1e:	f001 fa6f 	bl	8003300 <Set_Status_Bit>
					Calculate_Next_Main_Oscillator_Values(&params, (enum Next_Values_Processing_Mode)REGULAR_MODE);
 8001e22:	4641      	mov	r1, r8
 8001e24:	e638      	b.n	8001a98 <UART2_RX_transfer_complete_callback+0x18c>
						HAL_GPIO_WritePin(SW_OUT_GPIO_Port, SW_OUT_Pin, 0);
 8001e26:	2180      	movs	r1, #128	@ 0x80
 8001e28:	20a0      	movs	r0, #160	@ 0xa0
 8001e2a:	2200      	movs	r2, #0
 8001e2c:	0089      	lsls	r1, r1, #2
 8001e2e:	05c0      	lsls	r0, r0, #23
 8001e30:	f002 fc1c 	bl	800466c <HAL_GPIO_WritePin>
						HAL_GPIO_WritePin(LD3_GPIO_Port, LD3_Pin, 1);
 8001e34:	2201      	movs	r2, #1
 8001e36:	2140      	movs	r1, #64	@ 0x40
 8001e38:	4877      	ldr	r0, [pc, #476]	@ (8002018 <UART2_RX_transfer_complete_callback+0x70c>)
 8001e3a:	f002 fc17 	bl	800466c <HAL_GPIO_WritePin>
 8001e3e:	e578      	b.n	8001932 <UART2_RX_transfer_complete_callback+0x26>
						HAL_GPIO_WritePin(SW_OUT_GPIO_Port, SW_OUT_Pin, 1);
 8001e40:	2180      	movs	r1, #128	@ 0x80
 8001e42:	20a0      	movs	r0, #160	@ 0xa0
 8001e44:	2201      	movs	r2, #1
 8001e46:	0089      	lsls	r1, r1, #2
 8001e48:	05c0      	lsls	r0, r0, #23
 8001e4a:	f002 fc0f 	bl	800466c <HAL_GPIO_WritePin>
						HAL_GPIO_WritePin(LD3_GPIO_Port, LD3_Pin, 0);
 8001e4e:	2200      	movs	r2, #0
 8001e50:	2140      	movs	r1, #64	@ 0x40
 8001e52:	4871      	ldr	r0, [pc, #452]	@ (8002018 <UART2_RX_transfer_complete_callback+0x70c>)
 8001e54:	f002 fc0a 	bl	800466c <HAL_GPIO_WritePin>
 8001e58:	e56b      	b.n	8001932 <UART2_RX_transfer_complete_callback+0x26>
							active_status_byte = (uint8_t)*rx_buffer;
 8001e5a:	7823      	ldrb	r3, [r4, #0]
							Set_Status_Bit(&statuses, Software_IP_CAP_Idle_Timer_Is_Running);
 8001e5c:	2140      	movs	r1, #64	@ 0x40
							active_status_byte = (uint8_t)*rx_buffer;
 8001e5e:	b2db      	uxtb	r3, r3
							Set_Status_Bit(&statuses, Software_IP_CAP_Idle_Timer_Is_Running);
 8001e60:	486b      	ldr	r0, [pc, #428]	@ (8002010 <UART2_RX_transfer_complete_callback+0x704>)
							active_status_byte = (uint8_t)*rx_buffer;
 8001e62:	702b      	strb	r3, [r5, #0]
							Set_Status_Bit(&statuses, Software_IP_CAP_Idle_Timer_Is_Running);
 8001e64:	f001 fa4c 	bl	8003300 <Set_Status_Bit>
 8001e68:	e563      	b.n	8001932 <UART2_RX_transfer_complete_callback+0x26>
			else if((speed_fsm.current_state.speed_exclusive_state == MIDI_CLK_MODE) && (IP_CAP_fsm.current_state == IDLE) && (Get_Status_Bit(&statuses, Software_IP_CAP_Idle_Timer_Has_Timed_Out) == YES)){
 8001e6a:	4b6d      	ldr	r3, [pc, #436]	@ (8002020 <UART2_RX_transfer_complete_callback+0x714>)
 8001e6c:	781b      	ldrb	r3, [r3, #0]
 8001e6e:	b2da      	uxtb	r2, r3
 8001e70:	4691      	mov	r9, r2
 8001e72:	2b00      	cmp	r3, #0
 8001e74:	d000      	beq.n	8001e78 <UART2_RX_transfer_complete_callback+0x56c>
 8001e76:	e5ba      	b.n	80019ee <UART2_RX_transfer_complete_callback+0xe2>
 8001e78:	2120      	movs	r1, #32
 8001e7a:	0030      	movs	r0, r6
 8001e7c:	f001 fa3a 	bl	80032f4 <Get_Status_Bit>
 8001e80:	2801      	cmp	r0, #1
 8001e82:	d000      	beq.n	8001e86 <UART2_RX_transfer_complete_callback+0x57a>
 8001e84:	e5b3      	b.n	80019ee <UART2_RX_transfer_complete_callback+0xe2>
				if(*rx_buffer == SYSTEM_REAL_TIME_MIDI_CLOCK){
 8001e86:	7823      	ldrb	r3, [r4, #0]
 8001e88:	2bf8      	cmp	r3, #248	@ 0xf8
 8001e8a:	d100      	bne.n	8001e8e <UART2_RX_transfer_complete_callback+0x582>
 8001e8c:	e10b      	b.n	80020a6 <UART2_RX_transfer_complete_callback+0x79a>
				else if(*rx_buffer == SYSTEM_REAL_TIME_START){
 8001e8e:	7823      	ldrb	r3, [r4, #0]
 8001e90:	2bfa      	cmp	r3, #250	@ 0xfa
 8001e92:	d000      	beq.n	8001e96 <UART2_RX_transfer_complete_callback+0x58a>
 8001e94:	e54d      	b.n	8001932 <UART2_RX_transfer_complete_callback+0x26>
					MIDI_CLK_tag = 0; //just in case
 8001e96:	464a      	mov	r2, r9
 8001e98:	4b58      	ldr	r3, [pc, #352]	@ (8001ffc <UART2_RX_transfer_complete_callback+0x6f0>)
 8001e9a:	701a      	strb	r2, [r3, #0]
					speed_fsm.current_state.speed_exclusive_state = MIDI_CLK_RESYNC_A0_MODE;
 8001e9c:	230e      	movs	r3, #14
 8001e9e:	702b      	strb	r3, [r5, #0]
					speed_fsm.prev_state.speed_exclusive_state = MIDI_CLK_MODE;
 8001ea0:	4643      	mov	r3, r8
					Clear_Status_Bit(&statuses, Software_IP_CAP_Idle_Timer_Has_Timed_Out);
 8001ea2:	0030      	movs	r0, r6
 8001ea4:	2120      	movs	r1, #32
					speed_fsm.prev_state.speed_exclusive_state = MIDI_CLK_MODE;
 8001ea6:	706b      	strb	r3, [r5, #1]
					Clear_Status_Bit(&statuses, Software_IP_CAP_Idle_Timer_Has_Timed_Out);
 8001ea8:	f001 fa2e 	bl	8003308 <Clear_Status_Bit>
					Clear_Status_Bit(&statuses, Software_IP_CAP_Idle_Timer_Is_Running);
 8001eac:	2140      	movs	r1, #64	@ 0x40
 8001eae:	0030      	movs	r0, r6
 8001eb0:	f001 fa2a 	bl	8003308 <Clear_Status_Bit>
 8001eb4:	e53d      	b.n	8001932 <UART2_RX_transfer_complete_callback+0x26>
				if(*rx_buffer == SYSTEM_REAL_TIME_MIDI_CLOCK){
 8001eb6:	7823      	ldrb	r3, [r4, #0]
 8001eb8:	2bf8      	cmp	r3, #248	@ 0xf8
 8001eba:	d000      	beq.n	8001ebe <UART2_RX_transfer_complete_callback+0x5b2>
 8001ebc:	e539      	b.n	8001932 <UART2_RX_transfer_complete_callback+0x26>
					HAL_GPIO_WritePin(SW_OUT_GPIO_Port, SW_OUT_Pin, 0);
 8001ebe:	2180      	movs	r1, #128	@ 0x80
 8001ec0:	20a0      	movs	r0, #160	@ 0xa0
 8001ec2:	2200      	movs	r2, #0
 8001ec4:	0089      	lsls	r1, r1, #2
 8001ec6:	05c0      	lsls	r0, r0, #23
 8001ec8:	f002 fbd0 	bl	800466c <HAL_GPIO_WritePin>
					HAL_GPIO_WritePin(LD3_GPIO_Port, LD3_Pin, 1);
 8001ecc:	2201      	movs	r2, #1
 8001ece:	2140      	movs	r1, #64	@ 0x40
 8001ed0:	4851      	ldr	r0, [pc, #324]	@ (8002018 <UART2_RX_transfer_complete_callback+0x70c>)
 8001ed2:	f002 fbcb 	bl	800466c <HAL_GPIO_WritePin>
					MIDI_CLK_fsm = COMPILING;
 8001ed6:	2301      	movs	r3, #1
					MIDI_CLK_tag++;
 8001ed8:	4a48      	ldr	r2, [pc, #288]	@ (8001ffc <UART2_RX_transfer_complete_callback+0x6f0>)
					MIDI_CLK_fsm = COMPILING;
 8001eda:	703b      	strb	r3, [r7, #0]
					MIDI_CLK_tag++;
 8001edc:	7813      	ldrb	r3, [r2, #0]
 8001ede:	3301      	adds	r3, #1
 8001ee0:	b2db      	uxtb	r3, r3
 8001ee2:	7013      	strb	r3, [r2, #0]
					speed_fsm.current_state.speed_exclusive_state = MIDI_CLK_RESYNC_A1_MODE;
 8001ee4:	230f      	movs	r3, #15
 8001ee6:	702b      	strb	r3, [r5, #0]
 8001ee8:	e523      	b.n	8001932 <UART2_RX_transfer_complete_callback+0x26>
					MIDI_CLK_fsm = COMPILING; //just in case
 8001eea:	2101      	movs	r1, #1
					MIDI_CLK_tag++;
 8001eec:	4b43      	ldr	r3, [pc, #268]	@ (8001ffc <UART2_RX_transfer_complete_callback+0x6f0>)
					MIDI_CLK_fsm = COMPILING; //just in case
 8001eee:	7039      	strb	r1, [r7, #0]
					MIDI_CLK_tag++;
 8001ef0:	781a      	ldrb	r2, [r3, #0]
 8001ef2:	3201      	adds	r2, #1
 8001ef4:	b2d2      	uxtb	r2, r2
 8001ef6:	701a      	strb	r2, [r3, #0]
					if(MIDI_CLK_tag < 12){
 8001ef8:	781a      	ldrb	r2, [r3, #0]
 8001efa:	2a0b      	cmp	r2, #11
 8001efc:	d993      	bls.n	8001e26 <UART2_RX_transfer_complete_callback+0x51a>
					else if(MIDI_CLK_tag < 25){
 8001efe:	781a      	ldrb	r2, [r3, #0]
 8001f00:	2a18      	cmp	r2, #24
 8001f02:	d99d      	bls.n	8001e40 <UART2_RX_transfer_complete_callback+0x534>
						MIDI_CLK_tag = 1;
 8001f04:	7019      	strb	r1, [r3, #0]
 8001f06:	e514      	b.n	8001932 <UART2_RX_transfer_complete_callback+0x26>
								if(Is_Channelised_Status_Byte_On_Basic_Channel(&active_status_byte, MIDI_basic_channel) == YES){
 8001f08:	4b40      	ldr	r3, [pc, #256]	@ (800200c <UART2_RX_transfer_complete_callback+0x700>)
 8001f0a:	0028      	movs	r0, r5
 8001f0c:	7819      	ldrb	r1, [r3, #0]
 8001f0e:	b2c9      	uxtb	r1, r1
 8001f10:	f7fe fde8 	bl	8000ae4 <Is_Channelised_Status_Byte_On_Basic_Channel>
 8001f14:	2801      	cmp	r0, #1
 8001f16:	d000      	beq.n	8001f1a <UART2_RX_transfer_complete_callback+0x60e>
 8001f18:	e73f      	b.n	8001d9a <UART2_RX_transfer_complete_callback+0x48e>
									if(Channel_Mode_CC_Second_Data_Byte_Is_Valid_Given_Utilised_First_Data_Byte(&MIDI_data.MIDI_data_buffer[0], &MIDI_data.MIDI_data_buffer[1]) == YES){
 8001f1a:	0038      	movs	r0, r7
 8001f1c:	4943      	ldr	r1, [pc, #268]	@ (800202c <UART2_RX_transfer_complete_callback+0x720>)
 8001f1e:	f7fe fdbd 	bl	8000a9c <Channel_Mode_CC_Second_Data_Byte_Is_Valid_Given_Utilised_First_Data_Byte>
 8001f22:	2801      	cmp	r0, #1
 8001f24:	d000      	beq.n	8001f28 <UART2_RX_transfer_complete_callback+0x61c>
 8001f26:	e738      	b.n	8001d9a <UART2_RX_transfer_complete_callback+0x48e>
										if(MIDI_data.MIDI_data_buffer[1] == RESET_ALL_CONTROLLERS){
 8001f28:	787b      	ldrb	r3, [r7, #1]
 8001f2a:	2b79      	cmp	r3, #121	@ 0x79
 8001f2c:	d100      	bne.n	8001f30 <UART2_RX_transfer_complete_callback+0x624>
 8001f2e:	e0cb      	b.n	80020c8 <UART2_RX_transfer_complete_callback+0x7bc>
										else if(MIDI_data.MIDI_data_buffer[1] == LOCAL_CONTROL){
 8001f30:	787b      	ldrb	r3, [r7, #1]
 8001f32:	2b7a      	cmp	r3, #122	@ 0x7a
 8001f34:	d100      	bne.n	8001f38 <UART2_RX_transfer_complete_callback+0x62c>
 8001f36:	e0c4      	b.n	80020c2 <UART2_RX_transfer_complete_callback+0x7b6>
										else if(MIDI_data.MIDI_data_buffer[1] == OMNI_MODE_OFF){
 8001f38:	787b      	ldrb	r3, [r7, #1]
 8001f3a:	2b7c      	cmp	r3, #124	@ 0x7c
 8001f3c:	d100      	bne.n	8001f40 <UART2_RX_transfer_complete_callback+0x634>
 8001f3e:	e0bc      	b.n	80020ba <UART2_RX_transfer_complete_callback+0x7ae>
										else if(MIDI_data.MIDI_data_buffer[1] == OMNI_MODE_ON){
 8001f40:	787b      	ldrb	r3, [r7, #1]
 8001f42:	2b7d      	cmp	r3, #125	@ 0x7d
 8001f44:	d000      	beq.n	8001f48 <UART2_RX_transfer_complete_callback+0x63c>
 8001f46:	e728      	b.n	8001d9a <UART2_RX_transfer_complete_callback+0x48e>
											Set_OMNI_On(&statuses);
 8001f48:	0030      	movs	r0, r6
 8001f4a:	f7fe fe99 	bl	8000c80 <Set_OMNI_On>
								active_status_byte = 0;
 8001f4e:	e724      	b.n	8001d9a <UART2_RX_transfer_complete_callback+0x48e>
			else if((speed_fsm.current_state.speed_exclusive_state == MIDI_CLK_MODE) && (Get_Status_Bit(&statuses, Software_IP_CAP_Idle_Timer_Has_Timed_Out) == NO)){
 8001f50:	2120      	movs	r1, #32
 8001f52:	0030      	movs	r0, r6
 8001f54:	f001 f9ce 	bl	80032f4 <Get_Status_Bit>
 8001f58:	2800      	cmp	r0, #0
 8001f5a:	d000      	beq.n	8001f5e <UART2_RX_transfer_complete_callback+0x652>
 8001f5c:	e541      	b.n	80019e2 <UART2_RX_transfer_complete_callback+0xd6>
				if(*rx_buffer == SYSTEM_REAL_TIME_MIDI_CLOCK){
 8001f5e:	7823      	ldrb	r3, [r4, #0]
 8001f60:	2bf8      	cmp	r3, #248	@ 0xf8
 8001f62:	d000      	beq.n	8001f66 <UART2_RX_transfer_complete_callback+0x65a>
 8001f64:	e4e5      	b.n	8001932 <UART2_RX_transfer_complete_callback+0x26>
					MIDI_CLK_fsm = COMPILING; //just in case
 8001f66:	3bf7      	subs	r3, #247	@ 0xf7
 8001f68:	703b      	strb	r3, [r7, #0]
					MIDI_CLK_tag++;
 8001f6a:	4b24      	ldr	r3, [pc, #144]	@ (8001ffc <UART2_RX_transfer_complete_callback+0x6f0>)
 8001f6c:	781a      	ldrb	r2, [r3, #0]
 8001f6e:	3201      	adds	r2, #1
 8001f70:	b2d2      	uxtb	r2, r2
 8001f72:	701a      	strb	r2, [r3, #0]
					if(MIDI_CLK_tag < 12){
 8001f74:	781a      	ldrb	r2, [r3, #0]
 8001f76:	2a0b      	cmp	r2, #11
 8001f78:	d800      	bhi.n	8001f7c <UART2_RX_transfer_complete_callback+0x670>
 8001f7a:	e754      	b.n	8001e26 <UART2_RX_transfer_complete_callback+0x51a>
					else if(MIDI_CLK_tag < 25){
 8001f7c:	781a      	ldrb	r2, [r3, #0]
 8001f7e:	2a18      	cmp	r2, #24
 8001f80:	d800      	bhi.n	8001f84 <UART2_RX_transfer_complete_callback+0x678>
 8001f82:	e75d      	b.n	8001e40 <UART2_RX_transfer_complete_callback+0x534>
						MIDI_CLK_tag = 1;
 8001f84:	2201      	movs	r2, #1
 8001f86:	701a      	strb	r2, [r3, #0]
 8001f88:	e4d3      	b.n	8001932 <UART2_RX_transfer_complete_callback+0x26>
				if(*rx_buffer == SYSTEM_REAL_TIME_MIDI_CLOCK){
 8001f8a:	7823      	ldrb	r3, [r4, #0]
 8001f8c:	2bf8      	cmp	r3, #248	@ 0xf8
 8001f8e:	d000      	beq.n	8001f92 <UART2_RX_transfer_complete_callback+0x686>
 8001f90:	e4cf      	b.n	8001932 <UART2_RX_transfer_complete_callback+0x26>
					MIDI_CLK_tag++;
 8001f92:	4b1a      	ldr	r3, [pc, #104]	@ (8001ffc <UART2_RX_transfer_complete_callback+0x6f0>)
 8001f94:	781a      	ldrb	r2, [r3, #0]
 8001f96:	3201      	adds	r2, #1
 8001f98:	b2d2      	uxtb	r2, r2
 8001f9a:	701a      	strb	r2, [r3, #0]
					if(MIDI_CLK_tag < 12){
 8001f9c:	781a      	ldrb	r2, [r3, #0]
 8001f9e:	2a0b      	cmp	r2, #11
 8001fa0:	d800      	bhi.n	8001fa4 <UART2_RX_transfer_complete_callback+0x698>
 8001fa2:	e740      	b.n	8001e26 <UART2_RX_transfer_complete_callback+0x51a>
					else if(MIDI_CLK_tag < 25){
 8001fa4:	781a      	ldrb	r2, [r3, #0]
 8001fa6:	2a18      	cmp	r2, #24
 8001fa8:	d800      	bhi.n	8001fac <UART2_RX_transfer_complete_callback+0x6a0>
 8001faa:	e749      	b.n	8001e40 <UART2_RX_transfer_complete_callback+0x534>
						speed_fsm.current_state.speed_exclusive_state = MIDI_CLK_MODE;
 8001fac:	2208      	movs	r2, #8
						speed_fsm.prev_state.speed_exclusive_state = MIDI_CLK_RESYNC_A1_MODE;
 8001fae:	7069      	strb	r1, [r5, #1]
						speed_fsm.current_state.speed_exclusive_state = MIDI_CLK_MODE;
 8001fb0:	702a      	strb	r2, [r5, #0]
						MIDI_CLK_tag = 1;
 8001fb2:	3a07      	subs	r2, #7
 8001fb4:	701a      	strb	r2, [r3, #0]
 8001fb6:	e4bc      	b.n	8001932 <UART2_RX_transfer_complete_callback+0x26>
								if((Is_Channelised_Status_Byte_On_Basic_Channel(&active_status_byte, MIDI_basic_channel) == YES)
 8001fb8:	4b14      	ldr	r3, [pc, #80]	@ (800200c <UART2_RX_transfer_complete_callback+0x700>)
 8001fba:	0028      	movs	r0, r5
 8001fbc:	7819      	ldrb	r1, [r3, #0]
 8001fbe:	b2c9      	uxtb	r1, r1
 8001fc0:	f7fe fd90 	bl	8000ae4 <Is_Channelised_Status_Byte_On_Basic_Channel>
 8001fc4:	2801      	cmp	r0, #1
 8001fc6:	d005      	beq.n	8001fd4 <UART2_RX_transfer_complete_callback+0x6c8>
										|| (Is_OMNI_On(&statuses) == YES)){
 8001fc8:	0030      	movs	r0, r6
 8001fca:	f7fe fddd 	bl	8000b88 <Is_OMNI_On>
 8001fce:	2801      	cmp	r0, #1
 8001fd0:	d000      	beq.n	8001fd4 <UART2_RX_transfer_complete_callback+0x6c8>
 8001fd2:	e6e2      	b.n	8001d9a <UART2_RX_transfer_complete_callback+0x48e>
									if(MIDI_data.MIDI_data_buffer[0] == WAVESHAPE_CC){
 8001fd4:	783b      	ldrb	r3, [r7, #0]
 8001fd6:	2b14      	cmp	r3, #20
 8001fd8:	d061      	beq.n	800209e <UART2_RX_transfer_complete_callback+0x792>
									else if(MIDI_data.MIDI_data_buffer[0] == SPEED_CC){
 8001fda:	783b      	ldrb	r3, [r7, #0]
 8001fdc:	2b15      	cmp	r3, #21
 8001fde:	d05a      	beq.n	8002096 <UART2_RX_transfer_complete_callback+0x78a>
									else if(MIDI_data.MIDI_data_buffer[0] == DEPTH_CC){
 8001fe0:	783b      	ldrb	r3, [r7, #0]
 8001fe2:	2b16      	cmp	r3, #22
 8001fe4:	d053      	beq.n	800208e <UART2_RX_transfer_complete_callback+0x782>
									else if(MIDI_data.MIDI_data_buffer[0] == SYMMETRY_CC){
 8001fe6:	783b      	ldrb	r3, [r7, #0]
 8001fe8:	2b17      	cmp	r3, #23
 8001fea:	d04c      	beq.n	8002086 <UART2_RX_transfer_complete_callback+0x77a>
									else if(MIDI_data.MIDI_data_buffer[0] == PHASE_CC){
 8001fec:	783b      	ldrb	r3, [r7, #0]
 8001fee:	2b18      	cmp	r3, #24
 8001ff0:	d000      	beq.n	8001ff4 <UART2_RX_transfer_complete_callback+0x6e8>
 8001ff2:	e6d2      	b.n	8001d9a <UART2_RX_transfer_complete_callback+0x48e>
										Set_Phase_to_CC_Mode_and_Value((uint8_t*)&MIDI_data.MIDI_data_buffer[1]);
 8001ff4:	480d      	ldr	r0, [pc, #52]	@ (800202c <UART2_RX_transfer_complete_callback+0x720>)
 8001ff6:	f7fe fcd1 	bl	800099c <Set_Phase_to_CC_Mode_and_Value>
								active_status_byte = 0;
 8001ffa:	e6ce      	b.n	8001d9a <UART2_RX_transfer_complete_callback+0x48e>
 8001ffc:	20000c0e 	.word	0x20000c0e
 8002000:	200004c4 	.word	0x200004c4
 8002004:	20000c18 	.word	0x20000c18
 8002008:	200004ce 	.word	0x200004ce
 800200c:	200004d0 	.word	0x200004d0
 8002010:	20000c20 	.word	0x20000c20
 8002014:	20000c48 	.word	0x20000c48
 8002018:	50000800 	.word	0x50000800
 800201c:	2000077c 	.word	0x2000077c
 8002020:	20000428 	.word	0x20000428
 8002024:	20000c24 	.word	0x20000c24
 8002028:	20000c90 	.word	0x20000c90
 800202c:	200004c5 	.word	0x200004c5
				if(*rx_buffer == SYSTEM_REAL_TIME_MIDI_CLOCK){
 8002030:	7823      	ldrb	r3, [r4, #0]
 8002032:	2bf8      	cmp	r3, #248	@ 0xf8
 8002034:	d000      	beq.n	8002038 <UART2_RX_transfer_complete_callback+0x72c>
 8002036:	e47c      	b.n	8001932 <UART2_RX_transfer_complete_callback+0x26>
					MIDI_CLK_tag++;
 8002038:	4b26      	ldr	r3, [pc, #152]	@ (80020d4 <UART2_RX_transfer_complete_callback+0x7c8>)
 800203a:	781a      	ldrb	r2, [r3, #0]
 800203c:	3201      	adds	r2, #1
 800203e:	b2d2      	uxtb	r2, r2
 8002040:	701a      	strb	r2, [r3, #0]
					if(MIDI_CLK_tag < 12){
 8002042:	781a      	ldrb	r2, [r3, #0]
 8002044:	2a0b      	cmp	r2, #11
 8002046:	d800      	bhi.n	800204a <UART2_RX_transfer_complete_callback+0x73e>
 8002048:	e6ed      	b.n	8001e26 <UART2_RX_transfer_complete_callback+0x51a>
					else if(MIDI_CLK_tag < 25){
 800204a:	781a      	ldrb	r2, [r3, #0]
 800204c:	2a18      	cmp	r2, #24
 800204e:	d800      	bhi.n	8002052 <UART2_RX_transfer_complete_callback+0x746>
 8002050:	e6f6      	b.n	8001e40 <UART2_RX_transfer_complete_callback+0x534>
						speed_fsm.current_state.speed_exclusive_state = MIDI_CLK_RESYNC_B1_MODE;
 8002052:	2211      	movs	r2, #17
 8002054:	702a      	strb	r2, [r5, #0]
						MIDI_CLK_tag = 1;
 8002056:	3a10      	subs	r2, #16
 8002058:	701a      	strb	r2, [r3, #0]
 800205a:	e46a      	b.n	8001932 <UART2_RX_transfer_complete_callback+0x26>
				if(*rx_buffer == SYSTEM_REAL_TIME_MIDI_CLOCK){
 800205c:	7823      	ldrb	r3, [r4, #0]
 800205e:	2bf8      	cmp	r3, #248	@ 0xf8
 8002060:	d100      	bne.n	8002064 <UART2_RX_transfer_complete_callback+0x758>
 8002062:	e782      	b.n	8001f6a <UART2_RX_transfer_complete_callback+0x65e>
				else if(*rx_buffer == SYSTEM_REAL_TIME_START){
 8002064:	7823      	ldrb	r3, [r4, #0]
 8002066:	2bfa      	cmp	r3, #250	@ 0xfa
 8002068:	d000      	beq.n	800206c <UART2_RX_transfer_complete_callback+0x760>
 800206a:	e462      	b.n	8001932 <UART2_RX_transfer_complete_callback+0x26>
					speed_fsm.current_state.speed_exclusive_state = MIDI_CLK_RESYNC_B2_MODE;
 800206c:	3be8      	subs	r3, #232	@ 0xe8
 800206e:	702b      	strb	r3, [r5, #0]
 8002070:	e45f      	b.n	8001932 <UART2_RX_transfer_complete_callback+0x26>
								Set_All_Pots_to_PC_Mode();
 8002072:	f7fe fca3 	bl	80009bc <Set_All_Pots_to_PC_Mode>
								preset_selected = (enum Preset_Selected)*rx_buffer + 1; //since 0 is no preset selected, we have to add 1
 8002076:	7823      	ldrb	r3, [r4, #0]
 8002078:	4a17      	ldr	r2, [pc, #92]	@ (80020d8 <UART2_RX_transfer_complete_callback+0x7cc>)
 800207a:	3301      	adds	r3, #1
 800207c:	b2db      	uxtb	r3, r3
 800207e:	7013      	strb	r3, [r2, #0]
								Update_Params_Based_On_Mode_Selected(); // Update parameters immediately with preset values
 8002080:	f7fe fa0a 	bl	8000498 <Update_Params_Based_On_Mode_Selected>
 8002084:	e5df      	b.n	8001c46 <UART2_RX_transfer_complete_callback+0x33a>
										Set_Symmetry_to_CC_Mode_and_Value((uint8_t*)&MIDI_data.MIDI_data_buffer[1]);
 8002086:	4815      	ldr	r0, [pc, #84]	@ (80020dc <UART2_RX_transfer_complete_callback+0x7d0>)
 8002088:	f7fe fc78 	bl	800097c <Set_Symmetry_to_CC_Mode_and_Value>
 800208c:	e685      	b.n	8001d9a <UART2_RX_transfer_complete_callback+0x48e>
										Set_Depth_to_CC_Mode_and_Value((uint8_t*)&MIDI_data.MIDI_data_buffer[1]);
 800208e:	4813      	ldr	r0, [pc, #76]	@ (80020dc <UART2_RX_transfer_complete_callback+0x7d0>)
 8002090:	f7fe fc64 	bl	800095c <Set_Depth_to_CC_Mode_and_Value>
 8002094:	e681      	b.n	8001d9a <UART2_RX_transfer_complete_callback+0x48e>
										Set_Speed_to_CC_Mode_and_Value((uint8_t*)&MIDI_data.MIDI_data_buffer[1]);
 8002096:	4811      	ldr	r0, [pc, #68]	@ (80020dc <UART2_RX_transfer_complete_callback+0x7d0>)
 8002098:	f7fe fc50 	bl	800093c <Set_Speed_to_CC_Mode_and_Value>
 800209c:	e67d      	b.n	8001d9a <UART2_RX_transfer_complete_callback+0x48e>
										Set_Waveshape_to_CC_Mode_and_Value((uint8_t*)&MIDI_data.MIDI_data_buffer[1]);
 800209e:	480f      	ldr	r0, [pc, #60]	@ (80020dc <UART2_RX_transfer_complete_callback+0x7d0>)
 80020a0:	f7fe fc3c 	bl	800091c <Set_Waveshape_to_CC_Mode_and_Value>
 80020a4:	e679      	b.n	8001d9a <UART2_RX_transfer_complete_callback+0x48e>
					MIDI_CLK_tag = 0; //just in case
 80020a6:	464b      	mov	r3, r9
 80020a8:	4a0a      	ldr	r2, [pc, #40]	@ (80020d4 <UART2_RX_transfer_complete_callback+0x7c8>)
 80020aa:	7013      	strb	r3, [r2, #0]
					MIDI_CLK_tag++;
 80020ac:	7813      	ldrb	r3, [r2, #0]
 80020ae:	3301      	adds	r3, #1
 80020b0:	b2db      	uxtb	r3, r3
 80020b2:	7013      	strb	r3, [r2, #0]
					speed_fsm.current_state.speed_exclusive_state = MIDI_CLK_RESYNC_B0_MODE;
 80020b4:	2310      	movs	r3, #16
					MIDI_CLK_fsm = COMPILING;
 80020b6:	7038      	strb	r0, [r7, #0]
					speed_fsm.current_state.speed_exclusive_state = MIDI_CLK_RESYNC_B0_MODE;
 80020b8:	e6f1      	b.n	8001e9e <UART2_RX_transfer_complete_callback+0x592>
											Set_OMNI_Off(&statuses);
 80020ba:	0030      	movs	r0, r6
 80020bc:	f7fe fdd8 	bl	8000c70 <Set_OMNI_Off>
 80020c0:	e66b      	b.n	8001d9a <UART2_RX_transfer_complete_callback+0x48e>
											Set_Local_Control();
 80020c2:	f7fe fdad 	bl	8000c20 <Set_Local_Control>
 80020c6:	e668      	b.n	8001d9a <UART2_RX_transfer_complete_callback+0x48e>
											Reset_All_Controllers(&params, &delay_line);
 80020c8:	4905      	ldr	r1, [pc, #20]	@ (80020e0 <UART2_RX_transfer_complete_callback+0x7d4>)
 80020ca:	4806      	ldr	r0, [pc, #24]	@ (80020e4 <UART2_RX_transfer_complete_callback+0x7d8>)
 80020cc:	f7fe fd78 	bl	8000bc0 <Reset_All_Controllers>
 80020d0:	e663      	b.n	8001d9a <UART2_RX_transfer_complete_callback+0x48e>
 80020d2:	46c0      	nop			@ (mov r8, r8)
 80020d4:	20000c0e 	.word	0x20000c0e
 80020d8:	20000478 	.word	0x20000478
 80020dc:	200004c5 	.word	0x200004c5
 80020e0:	20000020 	.word	0x20000020
 80020e4:	20000c90 	.word	0x20000c90

080020e8 <HAL_GPIO_EXTI_Falling_Callback>:

void HAL_GPIO_EXTI_Falling_Callback(uint16_t GPIO_Pin){
 80020e8:	b510      	push	{r4, lr}

	if((GPIO_Pin == CLK_IN_Pin)){ //if specifically CLK IN pin with falling interrupt
 80020ea:	2880      	cmp	r0, #128	@ 0x80
 80020ec:	d000      	beq.n	80020f0 <HAL_GPIO_EXTI_Falling_Callback+0x8>

			HAL_GPIO_WritePin(SW_OUT_GPIO_Port, SW_OUT_Pin, 1);
			HAL_GPIO_WritePin(LD3_GPIO_Port, LD3_Pin, 0);
		}
	}
}
 80020ee:	bd10      	pop	{r4, pc}
		if((speed_fsm.current_state.speed_exclusive_state == CLK_IN_MODE) || (speed_fsm.current_state.speed_exclusive_state == CLK_IN_PENDING_MODE)){
 80020f0:	4b09      	ldr	r3, [pc, #36]	@ (8002118 <HAL_GPIO_EXTI_Falling_Callback+0x30>)
 80020f2:	781a      	ldrb	r2, [r3, #0]
 80020f4:	2a06      	cmp	r2, #6
 80020f6:	d002      	beq.n	80020fe <HAL_GPIO_EXTI_Falling_Callback+0x16>
 80020f8:	781b      	ldrb	r3, [r3, #0]
 80020fa:	2b07      	cmp	r3, #7
 80020fc:	d1f7      	bne.n	80020ee <HAL_GPIO_EXTI_Falling_Callback+0x6>
			HAL_GPIO_WritePin(SW_OUT_GPIO_Port, SW_OUT_Pin, 1);
 80020fe:	2180      	movs	r1, #128	@ 0x80
 8002100:	20a0      	movs	r0, #160	@ 0xa0
 8002102:	2201      	movs	r2, #1
 8002104:	0089      	lsls	r1, r1, #2
 8002106:	05c0      	lsls	r0, r0, #23
 8002108:	f002 fab0 	bl	800466c <HAL_GPIO_WritePin>
			HAL_GPIO_WritePin(LD3_GPIO_Port, LD3_Pin, 0);
 800210c:	2200      	movs	r2, #0
 800210e:	2140      	movs	r1, #64	@ 0x40
 8002110:	4802      	ldr	r0, [pc, #8]	@ (800211c <HAL_GPIO_EXTI_Falling_Callback+0x34>)
 8002112:	f002 faab 	bl	800466c <HAL_GPIO_WritePin>
}
 8002116:	e7ea      	b.n	80020ee <HAL_GPIO_EXTI_Falling_Callback+0x6>
 8002118:	2000043c 	.word	0x2000043c
 800211c:	50000800 	.word	0x50000800

08002120 <HAL_GPIO_EXTI_Rising_Callback>:

void HAL_GPIO_EXTI_Rising_Callback(uint16_t GPIO_Pin){
 8002120:	b570      	push	{r4, r5, r6, lr}

	//HAL_GPIO_WritePin(MONITOR_GPIO_Port, MONITOR_Pin, 1);

	if((GPIO_Pin == CLK_IN_Pin)){ //if specifically CLK IN pin with rising interrupt
 8002122:	2880      	cmp	r0, #128	@ 0x80
 8002124:	d000      	beq.n	8002128 <HAL_GPIO_EXTI_Rising_Callback+0x8>
		}

	}

	//HAL_GPIO_WritePin(MONITOR_GPIO_Port, MONITOR_Pin, 0);
}
 8002126:	bd70      	pop	{r4, r5, r6, pc}
		if(speed_fsm.current_state.shared_state == MANUAL_MODE){
 8002128:	4c3b      	ldr	r4, [pc, #236]	@ (8002218 <HAL_GPIO_EXTI_Rising_Callback+0xf8>)
 800212a:	7823      	ldrb	r3, [r4, #0]
 800212c:	b2dd      	uxtb	r5, r3
 800212e:	2b01      	cmp	r3, #1
 8002130:	d023      	beq.n	800217a <HAL_GPIO_EXTI_Rising_Callback+0x5a>
		else if(speed_fsm.current_state.shared_state == PC_MODE){
 8002132:	7823      	ldrb	r3, [r4, #0]
 8002134:	b2dd      	uxtb	r5, r3
 8002136:	2b03      	cmp	r3, #3
 8002138:	d01f      	beq.n	800217a <HAL_GPIO_EXTI_Rising_Callback+0x5a>
		else if(speed_fsm.current_state.shared_state == CC_MODE){
 800213a:	7823      	ldrb	r3, [r4, #0]
 800213c:	b2dd      	uxtb	r5, r3
 800213e:	2b02      	cmp	r3, #2
 8002140:	d01b      	beq.n	800217a <HAL_GPIO_EXTI_Rising_Callback+0x5a>
		else if((speed_fsm.current_state.speed_exclusive_state == TAP_MODE) && (IP_CAP_fsm.current_state == IDLE) && (Get_Status_Bit(&statuses, Software_IP_CAP_Idle_Timer_Has_Timed_Out) == YES)){
 8002142:	7823      	ldrb	r3, [r4, #0]
 8002144:	b2dd      	uxtb	r5, r3
 8002146:	2b04      	cmp	r3, #4
 8002148:	d027      	beq.n	800219a <HAL_GPIO_EXTI_Rising_Callback+0x7a>
		else if((speed_fsm.current_state.speed_exclusive_state == MIDI_CLK_MODE) && (IP_CAP_fsm.current_state == IDLE) && (Get_Status_Bit(&statuses, Software_IP_CAP_Idle_Timer_Has_Timed_Out) == YES)){
 800214a:	7823      	ldrb	r3, [r4, #0]
 800214c:	b2dd      	uxtb	r5, r3
 800214e:	2b08      	cmp	r3, #8
 8002150:	d046      	beq.n	80021e0 <HAL_GPIO_EXTI_Rising_Callback+0xc0>
		else if(speed_fsm.current_state.speed_exclusive_state == CLK_IN_PENDING_MODE){ //second edge
 8002152:	7823      	ldrb	r3, [r4, #0]
 8002154:	b2dd      	uxtb	r5, r3
 8002156:	2b07      	cmp	r3, #7
 8002158:	d04e      	beq.n	80021f8 <HAL_GPIO_EXTI_Rising_Callback+0xd8>
		else if(speed_fsm.current_state.speed_exclusive_state == CLK_IN_MODE){
 800215a:	7823      	ldrb	r3, [r4, #0]
 800215c:	2b06      	cmp	r3, #6
 800215e:	d1e2      	bne.n	8002126 <HAL_GPIO_EXTI_Rising_Callback+0x6>
			HAL_GPIO_WritePin(SW_OUT_GPIO_Port, SW_OUT_Pin, 0);
 8002160:	2180      	movs	r1, #128	@ 0x80
 8002162:	20a0      	movs	r0, #160	@ 0xa0
 8002164:	2200      	movs	r2, #0
 8002166:	0089      	lsls	r1, r1, #2
 8002168:	05c0      	lsls	r0, r0, #23
 800216a:	f002 fa7f 	bl	800466c <HAL_GPIO_WritePin>
			HAL_GPIO_WritePin(LD3_GPIO_Port, LD3_Pin, 1);
 800216e:	2201      	movs	r2, #1
 8002170:	2140      	movs	r1, #64	@ 0x40
 8002172:	482a      	ldr	r0, [pc, #168]	@ (800221c <HAL_GPIO_EXTI_Rising_Callback+0xfc>)
 8002174:	f002 fa7a 	bl	800466c <HAL_GPIO_WritePin>
}
 8002178:	e7d5      	b.n	8002126 <HAL_GPIO_EXTI_Rising_Callback+0x6>
			HAL_GPIO_WritePin(SW_OUT_GPIO_Port, SW_OUT_Pin, 0);
 800217a:	2180      	movs	r1, #128	@ 0x80
 800217c:	20a0      	movs	r0, #160	@ 0xa0
 800217e:	2200      	movs	r2, #0
 8002180:	0089      	lsls	r1, r1, #2
 8002182:	05c0      	lsls	r0, r0, #23
 8002184:	f002 fa72 	bl	800466c <HAL_GPIO_WritePin>
			HAL_GPIO_WritePin(LD3_GPIO_Port, LD3_Pin, 1);
 8002188:	2201      	movs	r2, #1
 800218a:	2140      	movs	r1, #64	@ 0x40
 800218c:	4823      	ldr	r0, [pc, #140]	@ (800221c <HAL_GPIO_EXTI_Rising_Callback+0xfc>)
 800218e:	f002 fa6d 	bl	800466c <HAL_GPIO_WritePin>
			speed_fsm.current_state.speed_exclusive_state = CLK_IN_PENDING_MODE;
 8002192:	2307      	movs	r3, #7
			speed_fsm.prev_state.shared_state = CC_MODE;
 8002194:	7065      	strb	r5, [r4, #1]
			speed_fsm.current_state.speed_exclusive_state = CLK_IN_PENDING_MODE;
 8002196:	7023      	strb	r3, [r4, #0]
 8002198:	e7c5      	b.n	8002126 <HAL_GPIO_EXTI_Rising_Callback+0x6>
		else if((speed_fsm.current_state.speed_exclusive_state == TAP_MODE) && (IP_CAP_fsm.current_state == IDLE) && (Get_Status_Bit(&statuses, Software_IP_CAP_Idle_Timer_Has_Timed_Out) == YES)){
 800219a:	4b21      	ldr	r3, [pc, #132]	@ (8002220 <HAL_GPIO_EXTI_Rising_Callback+0x100>)
 800219c:	781b      	ldrb	r3, [r3, #0]
 800219e:	2b00      	cmp	r3, #0
 80021a0:	d1d3      	bne.n	800214a <HAL_GPIO_EXTI_Rising_Callback+0x2a>
 80021a2:	4e20      	ldr	r6, [pc, #128]	@ (8002224 <HAL_GPIO_EXTI_Rising_Callback+0x104>)
 80021a4:	2120      	movs	r1, #32
 80021a6:	0030      	movs	r0, r6
 80021a8:	f001 f8a4 	bl	80032f4 <Get_Status_Bit>
 80021ac:	2801      	cmp	r0, #1
 80021ae:	d1cc      	bne.n	800214a <HAL_GPIO_EXTI_Rising_Callback+0x2a>
			HAL_GPIO_WritePin(SW_OUT_GPIO_Port, SW_OUT_Pin, 0);
 80021b0:	2180      	movs	r1, #128	@ 0x80
 80021b2:	20a0      	movs	r0, #160	@ 0xa0
 80021b4:	2200      	movs	r2, #0
 80021b6:	0089      	lsls	r1, r1, #2
 80021b8:	05c0      	lsls	r0, r0, #23
 80021ba:	f002 fa57 	bl	800466c <HAL_GPIO_WritePin>
			HAL_GPIO_WritePin(LD3_GPIO_Port, LD3_Pin, 1);
 80021be:	2201      	movs	r2, #1
 80021c0:	2140      	movs	r1, #64	@ 0x40
 80021c2:	4816      	ldr	r0, [pc, #88]	@ (800221c <HAL_GPIO_EXTI_Rising_Callback+0xfc>)
 80021c4:	f002 fa52 	bl	800466c <HAL_GPIO_WritePin>
			speed_fsm.current_state.speed_exclusive_state = CLK_IN_PENDING_MODE;
 80021c8:	2307      	movs	r3, #7
			Clear_Status_Bit(&statuses, Software_IP_CAP_Idle_Timer_Has_Timed_Out);
 80021ca:	0030      	movs	r0, r6
			speed_fsm.prev_state.speed_exclusive_state = MIDI_CLK_MODE;
 80021cc:	7065      	strb	r5, [r4, #1]
			Clear_Status_Bit(&statuses, Software_IP_CAP_Idle_Timer_Has_Timed_Out);
 80021ce:	2120      	movs	r1, #32
			speed_fsm.current_state.speed_exclusive_state = CLK_IN_PENDING_MODE;
 80021d0:	7023      	strb	r3, [r4, #0]
			Clear_Status_Bit(&statuses, Software_IP_CAP_Idle_Timer_Has_Timed_Out);
 80021d2:	f001 f899 	bl	8003308 <Clear_Status_Bit>
			Clear_Status_Bit(&statuses, Software_IP_CAP_Idle_Timer_Is_Running);
 80021d6:	2140      	movs	r1, #64	@ 0x40
 80021d8:	0030      	movs	r0, r6
 80021da:	f001 f895 	bl	8003308 <Clear_Status_Bit>
 80021de:	e7a2      	b.n	8002126 <HAL_GPIO_EXTI_Rising_Callback+0x6>
		else if((speed_fsm.current_state.speed_exclusive_state == MIDI_CLK_MODE) && (IP_CAP_fsm.current_state == IDLE) && (Get_Status_Bit(&statuses, Software_IP_CAP_Idle_Timer_Has_Timed_Out) == YES)){
 80021e0:	4b0f      	ldr	r3, [pc, #60]	@ (8002220 <HAL_GPIO_EXTI_Rising_Callback+0x100>)
 80021e2:	781b      	ldrb	r3, [r3, #0]
 80021e4:	2b00      	cmp	r3, #0
 80021e6:	d1b4      	bne.n	8002152 <HAL_GPIO_EXTI_Rising_Callback+0x32>
 80021e8:	4e0e      	ldr	r6, [pc, #56]	@ (8002224 <HAL_GPIO_EXTI_Rising_Callback+0x104>)
 80021ea:	2120      	movs	r1, #32
 80021ec:	0030      	movs	r0, r6
 80021ee:	f001 f881 	bl	80032f4 <Get_Status_Bit>
 80021f2:	2801      	cmp	r0, #1
 80021f4:	d1ad      	bne.n	8002152 <HAL_GPIO_EXTI_Rising_Callback+0x32>
 80021f6:	e7db      	b.n	80021b0 <HAL_GPIO_EXTI_Rising_Callback+0x90>
			HAL_GPIO_WritePin(SW_OUT_GPIO_Port, SW_OUT_Pin, 0);
 80021f8:	2180      	movs	r1, #128	@ 0x80
 80021fa:	20a0      	movs	r0, #160	@ 0xa0
 80021fc:	2200      	movs	r2, #0
 80021fe:	0089      	lsls	r1, r1, #2
 8002200:	05c0      	lsls	r0, r0, #23
 8002202:	f002 fa33 	bl	800466c <HAL_GPIO_WritePin>
			HAL_GPIO_WritePin(LD3_GPIO_Port, LD3_Pin, 1);
 8002206:	2201      	movs	r2, #1
 8002208:	2140      	movs	r1, #64	@ 0x40
 800220a:	4804      	ldr	r0, [pc, #16]	@ (800221c <HAL_GPIO_EXTI_Rising_Callback+0xfc>)
 800220c:	f002 fa2e 	bl	800466c <HAL_GPIO_WritePin>
			speed_fsm.current_state.speed_exclusive_state = CLK_IN_MODE;
 8002210:	2306      	movs	r3, #6
			speed_fsm.prev_state.speed_exclusive_state = CLK_IN_PENDING_MODE;
 8002212:	7065      	strb	r5, [r4, #1]
			speed_fsm.current_state.speed_exclusive_state = CLK_IN_MODE;
 8002214:	7023      	strb	r3, [r4, #0]
 8002216:	e786      	b.n	8002126 <HAL_GPIO_EXTI_Rising_Callback+0x6>
 8002218:	2000043c 	.word	0x2000043c
 800221c:	50000800 	.word	0x50000800
 8002220:	20000428 	.word	0x20000428
 8002224:	20000c20 	.word	0x20000c20

08002228 <LPTIM1_callback>:

	static volatile struct Tap_Tempo_Switch_States tap_tempo_switch_states = {0};

	//CHECK IF NEED TO TAP_PENDING TRANSITION

	uint8_t pin_state = (uint8_t)HAL_GPIO_ReadPin(SW_IN_GPIO_Port, SW_IN_Pin);
 8002228:	2180      	movs	r1, #128	@ 0x80
 800222a:	20a0      	movs	r0, #160	@ 0xa0
void LPTIM1_callback(LPTIM_HandleTypeDef *hlptim){
 800222c:	b5f8      	push	{r3, r4, r5, r6, r7, lr}
	uint8_t pin_state = (uint8_t)HAL_GPIO_ReadPin(SW_IN_GPIO_Port, SW_IN_Pin);
 800222e:	00c9      	lsls	r1, r1, #3
 8002230:	05c0      	lsls	r0, r0, #23
 8002232:	f002 fa15 	bl	8004660 <HAL_GPIO_ReadPin>

	if((speed_fsm.current_state.shared_state == MANUAL_MODE) && (pin_state == 0)){
 8002236:	4c70      	ldr	r4, [pc, #448]	@ (80023f8 <LPTIM1_callback+0x1d0>)
 8002238:	7823      	ldrb	r3, [r4, #0]
 800223a:	b2da      	uxtb	r2, r3
 800223c:	2b01      	cmp	r3, #1
 800223e:	d04f      	beq.n	80022e0 <LPTIM1_callback+0xb8>

		speed_fsm.current_state.speed_exclusive_state = TAP_PENDING_MODE;
		speed_fsm.prev_state.shared_state = MANUAL_MODE;
	}
	else if((speed_fsm.current_state.shared_state == CC_MODE) && (pin_state == 0)){
 8002240:	7823      	ldrb	r3, [r4, #0]
 8002242:	b2da      	uxtb	r2, r3
 8002244:	2b02      	cmp	r3, #2
 8002246:	d025      	beq.n	8002294 <LPTIM1_callback+0x6c>

		speed_fsm.current_state.speed_exclusive_state = TAP_PENDING_MODE;
		speed_fsm.prev_state.shared_state = CC_MODE;
	}
	else if((speed_fsm.current_state.shared_state == PC_MODE) && (pin_state == 0)){
 8002248:	7823      	ldrb	r3, [r4, #0]
 800224a:	b2da      	uxtb	r2, r3
 800224c:	2b03      	cmp	r3, #3
 800224e:	d100      	bne.n	8002252 <LPTIM1_callback+0x2a>
 8002250:	e0a6      	b.n	80023a0 <LPTIM1_callback+0x178>

		speed_fsm.current_state.speed_exclusive_state = TAP_PENDING_MODE;
		speed_fsm.prev_state.shared_state = PC_MODE;
	}
	else if((speed_fsm.current_state.speed_exclusive_state == CLK_IN_MODE) && (pin_state == 0) && (IP_CAP_fsm.current_state == IDLE) && (Get_Status_Bit(&statuses, Software_IP_CAP_Idle_Timer_Has_Timed_Out) == YES)){
 8002252:	7823      	ldrb	r3, [r4, #0]
 8002254:	b2de      	uxtb	r6, r3
 8002256:	2b06      	cmp	r3, #6
 8002258:	d067      	beq.n	800232a <LPTIM1_callback+0x102>
		speed_fsm.prev_state.speed_exclusive_state = CLK_IN_MODE;

		Clear_Status_Bit(&statuses, Software_IP_CAP_Idle_Timer_Has_Timed_Out);
		Clear_Status_Bit(&statuses, Software_IP_CAP_Idle_Timer_Is_Running);
	}
	else if((speed_fsm.current_state.speed_exclusive_state == MIDI_CLK_MODE) && (pin_state == 0) && (IP_CAP_fsm.current_state == IDLE) && (Get_Status_Bit(&statuses, Software_IP_CAP_Idle_Timer_Has_Timed_Out) == YES)){
 800225a:	7823      	ldrb	r3, [r4, #0]
 800225c:	2b08      	cmp	r3, #8
 800225e:	d145      	bne.n	80022ec <LPTIM1_callback+0xc4>
 8002260:	2800      	cmp	r0, #0
 8002262:	d143      	bne.n	80022ec <LPTIM1_callback+0xc4>
 8002264:	4d65      	ldr	r5, [pc, #404]	@ (80023fc <LPTIM1_callback+0x1d4>)
 8002266:	782b      	ldrb	r3, [r5, #0]
 8002268:	2b00      	cmp	r3, #0
 800226a:	d13f      	bne.n	80022ec <LPTIM1_callback+0xc4>
 800226c:	4d64      	ldr	r5, [pc, #400]	@ (8002400 <LPTIM1_callback+0x1d8>)
 800226e:	2120      	movs	r1, #32
 8002270:	0028      	movs	r0, r5
 8002272:	f001 f83f 	bl	80032f4 <Get_Status_Bit>
 8002276:	2801      	cmp	r0, #1
 8002278:	d138      	bne.n	80022ec <LPTIM1_callback+0xc4>

		speed_fsm.current_state.speed_exclusive_state = TAP_PENDING_MODE;
 800227a:	2305      	movs	r3, #5
		speed_fsm.prev_state.speed_exclusive_state = MIDI_CLK_MODE;

		Clear_Status_Bit(&statuses, Software_IP_CAP_Idle_Timer_Has_Timed_Out);
 800227c:	0028      	movs	r0, r5
		speed_fsm.current_state.speed_exclusive_state = TAP_PENDING_MODE;
 800227e:	7023      	strb	r3, [r4, #0]
		Clear_Status_Bit(&statuses, Software_IP_CAP_Idle_Timer_Has_Timed_Out);
 8002280:	2120      	movs	r1, #32
		speed_fsm.prev_state.speed_exclusive_state = MIDI_CLK_MODE;
 8002282:	3303      	adds	r3, #3
 8002284:	7063      	strb	r3, [r4, #1]
		Clear_Status_Bit(&statuses, Software_IP_CAP_Idle_Timer_Has_Timed_Out);
 8002286:	f001 f83f 	bl	8003308 <Clear_Status_Bit>
		Clear_Status_Bit(&statuses, Software_IP_CAP_Idle_Timer_Is_Running);
 800228a:	2140      	movs	r1, #64	@ 0x40
 800228c:	0028      	movs	r0, r5
 800228e:	f001 f83b 	bl	8003308 <Clear_Status_Bit>
 8002292:	e02b      	b.n	80022ec <LPTIM1_callback+0xc4>
	else if((speed_fsm.current_state.shared_state == CC_MODE) && (pin_state == 0)){
 8002294:	2800      	cmp	r0, #0
 8002296:	d126      	bne.n	80022e6 <LPTIM1_callback+0xbe>
		speed_fsm.current_state.speed_exclusive_state = TAP_PENDING_MODE;
 8002298:	3303      	adds	r3, #3
 800229a:	7023      	strb	r3, [r4, #0]
		speed_fsm.prev_state.shared_state = CC_MODE;
 800229c:	7062      	strb	r2, [r4, #1]
	}

	//CHECK TAP TEMPO STATE
	if((speed_fsm.current_state.speed_exclusive_state == TAP_PENDING_MODE) || (speed_fsm.current_state.speed_exclusive_state == TAP_MODE)){
 800229e:	7823      	ldrb	r3, [r4, #0]
 80022a0:	2b05      	cmp	r3, #5
 80022a2:	d126      	bne.n	80022f2 <LPTIM1_callback+0xca>

		Check_Tap_Tempo_Switch_State(&tap_tempo_switch_states);
 80022a4:	4d57      	ldr	r5, [pc, #348]	@ (8002404 <LPTIM1_callback+0x1dc>)
 80022a6:	0028      	movs	r0, r5
 80022a8:	f7fe fd44 	bl	8000d34 <Check_Tap_Tempo_Switch_State>

		if(tap_tempo_switch_states.tap_tempo_switch_state == DEPRESSED){
 80022ac:	782b      	ldrb	r3, [r5, #0]
 80022ae:	2b01      	cmp	r3, #1
 80022b0:	d100      	bne.n	80022b4 <LPTIM1_callback+0x8c>
 80022b2:	e080      	b.n	80023b6 <LPTIM1_callback+0x18e>
			//HAL_GPIO_WritePin(MONITOR_GPIO_Port, MONITOR_Pin, 0);
			HAL_GPIO_WritePin(SW_OUT_GPIO_Port, SW_OUT_Pin, 0);
			HAL_GPIO_WritePin(LD3_GPIO_Port, LD3_Pin, 1);

		}
		else if(tap_tempo_switch_states.tap_tempo_switch_state == NOT_DEPRESSED){
 80022b4:	782b      	ldrb	r3, [r5, #0]
 80022b6:	2b00      	cmp	r3, #0
 80022b8:	d11e      	bne.n	80022f8 <LPTIM1_callback+0xd0>

			//HAL_GPIO_WritePin(MONITOR_GPIO_Port, MONITOR_Pin, 1);
			HAL_GPIO_WritePin(SW_OUT_GPIO_Port, SW_OUT_Pin, 1); //reset
 80022ba:	2180      	movs	r1, #128	@ 0x80
 80022bc:	20a0      	movs	r0, #160	@ 0xa0
 80022be:	2201      	movs	r2, #1
 80022c0:	0089      	lsls	r1, r1, #2
 80022c2:	05c0      	lsls	r0, r0, #23
 80022c4:	f002 f9d2 	bl	800466c <HAL_GPIO_WritePin>
			HAL_GPIO_WritePin(LD3_GPIO_Port, LD3_Pin, 0);
 80022c8:	2200      	movs	r2, #0
 80022ca:	2140      	movs	r1, #64	@ 0x40
 80022cc:	484e      	ldr	r0, [pc, #312]	@ (8002408 <LPTIM1_callback+0x1e0>)
 80022ce:	f002 f9cd 	bl	800466c <HAL_GPIO_WritePin>
	//SET PREVIOUS STATE TO CURRENT STATE
	//tap_tempo_switch_states.tap_tempo_switch_prev_state = tap_tempo_switch_states.tap_tempo_switch_state;


	//PERFORM SPEED POT CHECKING
	if((speed_fsm.current_state.shared_state == PC_MODE) || (speed_fsm.current_state.shared_state == CC_MODE)){
 80022d2:	7823      	ldrb	r3, [r4, #0]
 80022d4:	2b03      	cmp	r3, #3
 80022d6:	d112      	bne.n	80022fe <LPTIM1_callback+0xd6>
			HAL_GPIO_WritePin(LD3_GPIO_Port, LD3_Pin, 0);

			MIDI_CLK_fsm = NOT_COMPILING;
			MIDI_CLK_tag = 0;

			Speed_Pot_Check(&params_manual);
 80022d8:	484c      	ldr	r0, [pc, #304]	@ (800240c <LPTIM1_callback+0x1e4>)
 80022da:	f7fe fce5 	bl	8000ca8 <Speed_Pot_Check>
 80022de:	e01a      	b.n	8002316 <LPTIM1_callback+0xee>
	if((speed_fsm.current_state.shared_state == MANUAL_MODE) && (pin_state == 0)){
 80022e0:	2800      	cmp	r0, #0
 80022e2:	d01e      	beq.n	8002322 <LPTIM1_callback+0xfa>
	else if((speed_fsm.current_state.shared_state == CC_MODE) && (pin_state == 0)){
 80022e4:	7823      	ldrb	r3, [r4, #0]
	else if((speed_fsm.current_state.shared_state == PC_MODE) && (pin_state == 0)){
 80022e6:	7823      	ldrb	r3, [r4, #0]
	else if((speed_fsm.current_state.speed_exclusive_state == CLK_IN_MODE) && (pin_state == 0) && (IP_CAP_fsm.current_state == IDLE) && (Get_Status_Bit(&statuses, Software_IP_CAP_Idle_Timer_Has_Timed_Out) == YES)){
 80022e8:	7823      	ldrb	r3, [r4, #0]
	else if((speed_fsm.current_state.speed_exclusive_state == MIDI_CLK_MODE) && (pin_state == 0) && (IP_CAP_fsm.current_state == IDLE) && (Get_Status_Bit(&statuses, Software_IP_CAP_Idle_Timer_Has_Timed_Out) == YES)){
 80022ea:	7823      	ldrb	r3, [r4, #0]
	if((speed_fsm.current_state.speed_exclusive_state == TAP_PENDING_MODE) || (speed_fsm.current_state.speed_exclusive_state == TAP_MODE)){
 80022ec:	7823      	ldrb	r3, [r4, #0]
 80022ee:	2b05      	cmp	r3, #5
 80022f0:	d0d8      	beq.n	80022a4 <LPTIM1_callback+0x7c>
 80022f2:	7823      	ldrb	r3, [r4, #0]
 80022f4:	2b04      	cmp	r3, #4
 80022f6:	d0d5      	beq.n	80022a4 <LPTIM1_callback+0x7c>
	if((speed_fsm.current_state.shared_state == PC_MODE) || (speed_fsm.current_state.shared_state == CC_MODE)){
 80022f8:	7823      	ldrb	r3, [r4, #0]
 80022fa:	2b03      	cmp	r3, #3
 80022fc:	d0ec      	beq.n	80022d8 <LPTIM1_callback+0xb0>
 80022fe:	7823      	ldrb	r3, [r4, #0]
 8002300:	2b02      	cmp	r3, #2
 8002302:	d0e9      	beq.n	80022d8 <LPTIM1_callback+0xb0>
	else if((speed_fsm.current_state.speed_exclusive_state == CLK_IN_MODE) && (IP_CAP_fsm.current_state == IDLE)){
 8002304:	7823      	ldrb	r3, [r4, #0]
 8002306:	2b06      	cmp	r3, #6
 8002308:	d019      	beq.n	800233e <LPTIM1_callback+0x116>
	else if((speed_fsm.current_state.speed_exclusive_state == MIDI_CLK_MODE) && (IP_CAP_fsm.current_state == IDLE)){
 800230a:	7823      	ldrb	r3, [r4, #0]
 800230c:	2b08      	cmp	r3, #8
 800230e:	d026      	beq.n	800235e <LPTIM1_callback+0x136>
		}
	}
	else if((speed_fsm.current_state.speed_exclusive_state == TAP_MODE) && (IP_CAP_fsm.current_state == IDLE)){
 8002310:	7823      	ldrb	r3, [r4, #0]
 8002312:	2b04      	cmp	r3, #4
 8002314:	d04a      	beq.n	80023ac <LPTIM1_callback+0x184>
			Speed_Pot_Check(&params_manual);
		}
	}

	//SET TIMER TRIGGER
	HAL_LPTIM_SetOnce_Start_IT(&hlptim1, LPTIM1_CCR_CHECK, LPTIM1_CCR_CHECK);
 8002316:	22fa      	movs	r2, #250	@ 0xfa
 8002318:	21fa      	movs	r1, #250	@ 0xfa
 800231a:	483d      	ldr	r0, [pc, #244]	@ (8002410 <LPTIM1_callback+0x1e8>)
 800231c:	f002 fbde 	bl	8004adc <HAL_LPTIM_SetOnce_Start_IT>

}
 8002320:	bdf8      	pop	{r3, r4, r5, r6, r7, pc}
		speed_fsm.current_state.speed_exclusive_state = TAP_PENDING_MODE;
 8002322:	3304      	adds	r3, #4
 8002324:	7023      	strb	r3, [r4, #0]
		speed_fsm.prev_state.shared_state = MANUAL_MODE;
 8002326:	7062      	strb	r2, [r4, #1]
 8002328:	e7e0      	b.n	80022ec <LPTIM1_callback+0xc4>
	else if((speed_fsm.current_state.speed_exclusive_state == CLK_IN_MODE) && (pin_state == 0) && (IP_CAP_fsm.current_state == IDLE) && (Get_Status_Bit(&statuses, Software_IP_CAP_Idle_Timer_Has_Timed_Out) == YES)){
 800232a:	2800      	cmp	r0, #0
 800232c:	d1dd      	bne.n	80022ea <LPTIM1_callback+0xc2>
 800232e:	4d33      	ldr	r5, [pc, #204]	@ (80023fc <LPTIM1_callback+0x1d4>)
 8002330:	782b      	ldrb	r3, [r5, #0]
 8002332:	2b00      	cmp	r3, #0
 8002334:	d04c      	beq.n	80023d0 <LPTIM1_callback+0x1a8>
	else if((speed_fsm.current_state.speed_exclusive_state == MIDI_CLK_MODE) && (pin_state == 0) && (IP_CAP_fsm.current_state == IDLE) && (Get_Status_Bit(&statuses, Software_IP_CAP_Idle_Timer_Has_Timed_Out) == YES)){
 8002336:	7823      	ldrb	r3, [r4, #0]
 8002338:	2b08      	cmp	r3, #8
 800233a:	d1d7      	bne.n	80022ec <LPTIM1_callback+0xc4>
 800233c:	e793      	b.n	8002266 <LPTIM1_callback+0x3e>
	else if((speed_fsm.current_state.speed_exclusive_state == CLK_IN_MODE) && (IP_CAP_fsm.current_state == IDLE)){
 800233e:	4b2f      	ldr	r3, [pc, #188]	@ (80023fc <LPTIM1_callback+0x1d4>)
 8002340:	781b      	ldrb	r3, [r3, #0]
 8002342:	2b00      	cmp	r3, #0
 8002344:	d1e1      	bne.n	800230a <LPTIM1_callback+0xe2>
		Set_Status_Bit(&statuses, Software_IP_CAP_Idle_Timer_Is_Running);
 8002346:	4c2e      	ldr	r4, [pc, #184]	@ (8002400 <LPTIM1_callback+0x1d8>)
 8002348:	2140      	movs	r1, #64	@ 0x40
 800234a:	0020      	movs	r0, r4
 800234c:	f000 ffd8 	bl	8003300 <Set_Status_Bit>
		if(Get_Status_Bit(&statuses, Software_IP_CAP_Idle_Timer_Has_Timed_Out) == YES){
 8002350:	2120      	movs	r1, #32
 8002352:	0020      	movs	r0, r4
 8002354:	f000 ffce 	bl	80032f4 <Get_Status_Bit>
 8002358:	2801      	cmp	r0, #1
 800235a:	d1dc      	bne.n	8002316 <LPTIM1_callback+0xee>
 800235c:	e7bc      	b.n	80022d8 <LPTIM1_callback+0xb0>
	else if((speed_fsm.current_state.speed_exclusive_state == MIDI_CLK_MODE) && (IP_CAP_fsm.current_state == IDLE)){
 800235e:	4b27      	ldr	r3, [pc, #156]	@ (80023fc <LPTIM1_callback+0x1d4>)
 8002360:	781b      	ldrb	r3, [r3, #0]
 8002362:	b2dd      	uxtb	r5, r3
 8002364:	2b00      	cmp	r3, #0
 8002366:	d1d3      	bne.n	8002310 <LPTIM1_callback+0xe8>
		Set_Status_Bit(&statuses, Software_IP_CAP_Idle_Timer_Is_Running);
 8002368:	4c25      	ldr	r4, [pc, #148]	@ (8002400 <LPTIM1_callback+0x1d8>)
 800236a:	2140      	movs	r1, #64	@ 0x40
 800236c:	0020      	movs	r0, r4
 800236e:	f000 ffc7 	bl	8003300 <Set_Status_Bit>
		if(Get_Status_Bit(&statuses, Software_IP_CAP_Idle_Timer_Has_Timed_Out) == YES){
 8002372:	2120      	movs	r1, #32
 8002374:	0020      	movs	r0, r4
 8002376:	f000 ffbd 	bl	80032f4 <Get_Status_Bit>
 800237a:	2801      	cmp	r0, #1
 800237c:	d1cb      	bne.n	8002316 <LPTIM1_callback+0xee>
			HAL_GPIO_WritePin(SW_OUT_GPIO_Port, SW_OUT_Pin, 1); //reset
 800237e:	2180      	movs	r1, #128	@ 0x80
 8002380:	20a0      	movs	r0, #160	@ 0xa0
 8002382:	2201      	movs	r2, #1
 8002384:	0089      	lsls	r1, r1, #2
 8002386:	05c0      	lsls	r0, r0, #23
 8002388:	f002 f970 	bl	800466c <HAL_GPIO_WritePin>
			HAL_GPIO_WritePin(LD3_GPIO_Port, LD3_Pin, 0);
 800238c:	2200      	movs	r2, #0
 800238e:	2140      	movs	r1, #64	@ 0x40
 8002390:	481d      	ldr	r0, [pc, #116]	@ (8002408 <LPTIM1_callback+0x1e0>)
 8002392:	f002 f96b 	bl	800466c <HAL_GPIO_WritePin>
			MIDI_CLK_fsm = NOT_COMPILING;
 8002396:	4b1f      	ldr	r3, [pc, #124]	@ (8002414 <LPTIM1_callback+0x1ec>)
 8002398:	701d      	strb	r5, [r3, #0]
			MIDI_CLK_tag = 0;
 800239a:	4b1f      	ldr	r3, [pc, #124]	@ (8002418 <LPTIM1_callback+0x1f0>)
 800239c:	701d      	strb	r5, [r3, #0]
 800239e:	e79b      	b.n	80022d8 <LPTIM1_callback+0xb0>
	else if((speed_fsm.current_state.shared_state == PC_MODE) && (pin_state == 0)){
 80023a0:	2800      	cmp	r0, #0
 80023a2:	d1a1      	bne.n	80022e8 <LPTIM1_callback+0xc0>
		speed_fsm.current_state.speed_exclusive_state = TAP_PENDING_MODE;
 80023a4:	3302      	adds	r3, #2
 80023a6:	7023      	strb	r3, [r4, #0]
		speed_fsm.prev_state.shared_state = PC_MODE;
 80023a8:	7062      	strb	r2, [r4, #1]
 80023aa:	e79f      	b.n	80022ec <LPTIM1_callback+0xc4>
	else if((speed_fsm.current_state.speed_exclusive_state == TAP_MODE) && (IP_CAP_fsm.current_state == IDLE)){
 80023ac:	4b13      	ldr	r3, [pc, #76]	@ (80023fc <LPTIM1_callback+0x1d4>)
 80023ae:	781b      	ldrb	r3, [r3, #0]
 80023b0:	2b00      	cmp	r3, #0
 80023b2:	d1b0      	bne.n	8002316 <LPTIM1_callback+0xee>
 80023b4:	e7c7      	b.n	8002346 <LPTIM1_callback+0x11e>
			HAL_GPIO_WritePin(SW_OUT_GPIO_Port, SW_OUT_Pin, 0);
 80023b6:	2180      	movs	r1, #128	@ 0x80
 80023b8:	20a0      	movs	r0, #160	@ 0xa0
 80023ba:	2200      	movs	r2, #0
 80023bc:	0089      	lsls	r1, r1, #2
 80023be:	05c0      	lsls	r0, r0, #23
 80023c0:	f002 f954 	bl	800466c <HAL_GPIO_WritePin>
			HAL_GPIO_WritePin(LD3_GPIO_Port, LD3_Pin, 1);
 80023c4:	2201      	movs	r2, #1
 80023c6:	2140      	movs	r1, #64	@ 0x40
 80023c8:	480f      	ldr	r0, [pc, #60]	@ (8002408 <LPTIM1_callback+0x1e0>)
 80023ca:	f002 f94f 	bl	800466c <HAL_GPIO_WritePin>
 80023ce:	e793      	b.n	80022f8 <LPTIM1_callback+0xd0>
	else if((speed_fsm.current_state.speed_exclusive_state == CLK_IN_MODE) && (pin_state == 0) && (IP_CAP_fsm.current_state == IDLE) && (Get_Status_Bit(&statuses, Software_IP_CAP_Idle_Timer_Has_Timed_Out) == YES)){
 80023d0:	4f0b      	ldr	r7, [pc, #44]	@ (8002400 <LPTIM1_callback+0x1d8>)
 80023d2:	2120      	movs	r1, #32
 80023d4:	0038      	movs	r0, r7
 80023d6:	f000 ff8d 	bl	80032f4 <Get_Status_Bit>
 80023da:	2801      	cmp	r0, #1
 80023dc:	d1ab      	bne.n	8002336 <LPTIM1_callback+0x10e>
		speed_fsm.current_state.speed_exclusive_state = TAP_PENDING_MODE;
 80023de:	2305      	movs	r3, #5
		Clear_Status_Bit(&statuses, Software_IP_CAP_Idle_Timer_Has_Timed_Out);
 80023e0:	0038      	movs	r0, r7
 80023e2:	2120      	movs	r1, #32
		speed_fsm.current_state.speed_exclusive_state = TAP_PENDING_MODE;
 80023e4:	7023      	strb	r3, [r4, #0]
		speed_fsm.prev_state.speed_exclusive_state = CLK_IN_MODE;
 80023e6:	7066      	strb	r6, [r4, #1]
		Clear_Status_Bit(&statuses, Software_IP_CAP_Idle_Timer_Has_Timed_Out);
 80023e8:	f000 ff8e 	bl	8003308 <Clear_Status_Bit>
		Clear_Status_Bit(&statuses, Software_IP_CAP_Idle_Timer_Is_Running);
 80023ec:	2140      	movs	r1, #64	@ 0x40
 80023ee:	0038      	movs	r0, r7
 80023f0:	f000 ff8a 	bl	8003308 <Clear_Status_Bit>
 80023f4:	e77a      	b.n	80022ec <LPTIM1_callback+0xc4>
 80023f6:	46c0      	nop			@ (mov r8, r8)
 80023f8:	2000043c 	.word	0x2000043c
 80023fc:	20000428 	.word	0x20000428
 8002400:	20000c20 	.word	0x20000c20
 8002404:	20000c0c 	.word	0x20000c0c
 8002408:	50000800 	.word	0x50000800
 800240c:	20000c6c 	.word	0x20000c6c
 8002410:	200004e0 	.word	0x200004e0
 8002414:	20000cbe 	.word	0x20000cbe
 8002418:	20000c0e 	.word	0x20000c0e

0800241c <TIM17_callback>:

void TIM17_callback(TIM_HandleTypeDef *htim){


}
 800241c:	4770      	bx	lr
 800241e:	46c0      	nop			@ (mov r8, r8)

08002420 <TIM14_callback>:

void TIM14_callback(TIM_HandleTypeDef *htim){
 8002420:	4770      	bx	lr
 8002422:	46c0      	nop			@ (mov r8, r8)

08002424 <Input_Capture_Processing>:
volatile uint32_t TIM2_ch1_input_capture_value;
volatile uint16_t interrupt_period = 0;
volatile uint8_t MIDI_CLK_tag = 0;

//FUNCTION DEFINITIONS
uint8_t Input_Capture_Processing(volatile uint16_t interrupt_period_value, struct Params *params_ptr){
 8002424:	b5f0      	push	{r4, r5, r6, r7, lr}
 8002426:	b083      	sub	sp, #12
 8002428:	466b      	mov	r3, sp
 800242a:	000f      	movs	r7, r1
 800242c:	80d8      	strh	r0, [r3, #6]

	//HAL_GPIO_WritePin(MONITOR_GPIO_Port, MONITOR_Pin, 1);

	Clear_Status_Bit(&statuses, Input_Capture_Processing_Can_Be_Started); //reset flag
 800242e:	2104      	movs	r1, #4
 8002430:	481a      	ldr	r0, [pc, #104]	@ (800249c <Input_Capture_Processing+0x78>)
uint8_t Input_Capture_Processing(volatile uint16_t interrupt_period_value, struct Params *params_ptr){
 8002432:	1d9d      	adds	r5, r3, #6
	Clear_Status_Bit(&statuses, Input_Capture_Processing_Can_Be_Started); //reset flag
 8002434:	f000 ff68 	bl	8003308 <Clear_Status_Bit>

	//DETERMINE WHAT TO SET THE RAW_START_VALUE AND BASE_PRESCALER TO BASED ON THE I/P CAPTURE VALUE
	//CHECK FOR PRIMALITY
	if(isPrime(interrupt_period_value) == YES){
 8002438:	8828      	ldrh	r0, [r5, #0]
 800243a:	b280      	uxth	r0, r0
 800243c:	f000 ff36 	bl	80032ac <isPrime>
 8002440:	2801      	cmp	r0, #1
 8002442:	d103      	bne.n	800244c <Input_Capture_Processing+0x28>

		interrupt_period_value += 1;
 8002444:	882b      	ldrh	r3, [r5, #0]
 8002446:	3301      	adds	r3, #1
 8002448:	b29b      	uxth	r3, r3
 800244a:	802b      	strh	r3, [r5, #0]
	}

	//START FINDING FACTORS
	uint32_t N = interrupt_period_value << 6; //calculate the N-value which is prescaler_meas * interrupt_period_meas. The measurement prescaler is used which is 64. (TIM2 has a prescaler of 64*512, but since we divide this value by 512, the prescaler is then just 64).
 800244c:	2480      	movs	r4, #128	@ 0x80
 800244e:	882e      	ldrh	r6, [r5, #0]
 8002450:	0064      	lsls	r4, r4, #1
 8002452:	01b6      	lsls	r6, r6, #6

	for(uint8_t i = 0; i < 129; i++){ //check from period = 264 to 128 - there will be a prescaler for every non-prime value of N
 8002454:	e003      	b.n	800245e <Input_Capture_Processing+0x3a>
 8002456:	3c01      	subs	r4, #1
 8002458:	b2a4      	uxth	r4, r4
 800245a:	2c7f      	cmp	r4, #127	@ 0x7f
 800245c:	d00e      	beq.n	800247c <Input_Capture_Processing+0x58>

		interrupt_period_value = 256 - i;
 800245e:	802c      	strh	r4, [r5, #0]
		uint16_t remainder = N % interrupt_period_value;
 8002460:	8829      	ldrh	r1, [r5, #0]
 8002462:	0030      	movs	r0, r6
 8002464:	b289      	uxth	r1, r1
 8002466:	f7fd fed3 	bl	8000210 <__aeabi_uidivmod>

		if(remainder == 0){ //check if no remainder -> integer
 800246a:	2900      	cmp	r1, #0
 800246c:	d1f3      	bne.n	8002456 <Input_Capture_Processing+0x32>

			params_ptr->raw_prescaler = N / interrupt_period_value;
 800246e:	8829      	ldrh	r1, [r5, #0]
 8002470:	0030      	movs	r0, r6
 8002472:	b289      	uxth	r1, r1
 8002474:	f7fd fe46 	bl	8000104 <__udivsi3>
 8002478:	b280      	uxth	r0, r0
 800247a:	8378      	strh	r0, [r7, #26]
			break;
		}
	}

	params_ptr->raw_start_value = 256 - interrupt_period_value;
 800247c:	2380      	movs	r3, #128	@ 0x80
 800247e:	882a      	ldrh	r2, [r5, #0]
 8002480:	005b      	lsls	r3, r3, #1
 8002482:	1a9b      	subs	r3, r3, r2
 8002484:	b29b      	uxth	r3, r3

	Calculate_Next_Main_Oscillator_Values(params_ptr, (enum Next_Values_Processing_Mode)IP_CAPTURE_MODE);
 8002486:	2101      	movs	r1, #1
	params_ptr->raw_start_value = 256 - interrupt_period_value;
 8002488:	827b      	strh	r3, [r7, #18]
	Calculate_Next_Main_Oscillator_Values(params_ptr, (enum Next_Values_Processing_Mode)IP_CAPTURE_MODE);
 800248a:	0038      	movs	r0, r7
 800248c:	f000 f91a 	bl	80026c4 <Calculate_Next_Main_Oscillator_Values>
	Process_TIM16_Final_Start_Value_and_Final_Prescaler(params_ptr);
 8002490:	0038      	movs	r0, r7
 8002492:	f000 fdb7 	bl	8003004 <Process_TIM16_Final_Start_Value_and_Final_Prescaler>

	//HAL_GPIO_WritePin(MONITOR_GPIO_Port, MONITOR_Pin, 0);

	return 1;
}
 8002496:	2001      	movs	r0, #1
 8002498:	b003      	add	sp, #12
 800249a:	bdf0      	pop	{r4, r5, r6, r7, pc}
 800249c:	20000c20 	.word	0x20000c20

080024a0 <Start_Input_Capture_Timer>:

uint8_t Start_Input_Capture_Timer(void){
 80024a0:	b570      	push	{r4, r5, r6, lr}
	return ok;
}

uint8_t Start_IC_TIM(TIM_HandleTypeDef *TIM, uint32_t IC_TIM_channel){

	uint8_t ok_AND = HAL_TIM_Base_Start_IT(&htim2);
 80024a2:	4d0a      	ldr	r5, [pc, #40]	@ (80024cc <Start_Input_Capture_Timer+0x2c>)
 80024a4:	0028      	movs	r0, r5
 80024a6:	f003 f953 	bl	8005750 <HAL_TIM_Base_Start_IT>
	ok_AND &= HAL_TIM_IC_Start_IT(&htim2, IC_TIM_channel);
 80024aa:	2100      	movs	r1, #0
	uint8_t ok_AND = HAL_TIM_Base_Start_IT(&htim2);
 80024ac:	0004      	movs	r4, r0
	ok_AND &= HAL_TIM_IC_Start_IT(&htim2, IC_TIM_channel);
 80024ae:	0028      	movs	r0, r5
 80024b0:	f003 fd56 	bl	8005f60 <HAL_TIM_IC_Start_IT>
 80024b4:	4004      	ands	r4, r0
 80024b6:	b2e4      	uxtb	r4, r4

	if(ok_AND != HAL_OK){
 80024b8:	2c00      	cmp	r4, #0
 80024ba:	d101      	bne.n	80024c0 <Start_Input_Capture_Timer+0x20>
}
 80024bc:	0020      	movs	r0, r4
 80024be:	bd70      	pop	{r4, r5, r6, pc}

		Error_Handler();
 80024c0:	f7fe fffa 	bl	80014b8 <Error_Handler>
		Error_Handler();
 80024c4:	f7fe fff8 	bl	80014b8 <Error_Handler>
 80024c8:	e7f8      	b.n	80024bc <Start_Input_Capture_Timer+0x1c>
 80024ca:	46c0      	nop			@ (mov r8, r8)
 80024cc:	20000838 	.word	0x20000838

080024d0 <Copy_Params_Structs>:
	}

	return ok_AND;
}

uint8_t Copy_Params_Structs(struct Params *src_ptr, struct Params *dst_ptr){
 80024d0:	0003      	movs	r3, r0
 80024d2:	b510      	push	{r4, lr}
 80024d4:	0008      	movs	r0, r1

	*dst_ptr = *src_ptr;
 80024d6:	2224      	movs	r2, #36	@ 0x24
 80024d8:	0019      	movs	r1, r3
 80024da:	f005 fba1 	bl	8007c20 <memcpy>

	return 1;
}
 80024de:	2001      	movs	r0, #1
 80024e0:	bd10      	pop	{r4, pc}
 80024e2:	46c0      	nop			@ (mov r8, r8)

080024e4 <Start_Measurement_Reelapse_Timer>:

uint8_t Start_Measurement_Reelapse_Timer(void){
 80024e4:	b510      	push	{r4, lr}

	Stop_OC_TIM(&htim3, TIM_CHANNEL_1);
 80024e6:	4c09      	ldr	r4, [pc, #36]	@ (800250c <Start_Measurement_Reelapse_Timer+0x28>)
 80024e8:	2100      	movs	r1, #0
 80024ea:	0020      	movs	r0, r4
 80024ec:	f000 fed4 	bl	8003298 <Stop_OC_TIM>
	__HAL_TIM_SET_COUNTER(&htim3, 0);
 80024f0:	2300      	movs	r3, #0
 80024f2:	6822      	ldr	r2, [r4, #0]
	__HAL_TIM_SET_COMPARE(&htim3, TIM_CHANNEL_1, interrupt_period);
	Start_OC_TIM(&htim3, TIM_CHANNEL_1);
 80024f4:	2100      	movs	r1, #0
	__HAL_TIM_SET_COUNTER(&htim3, 0);
 80024f6:	6253      	str	r3, [r2, #36]	@ 0x24
	__HAL_TIM_SET_COMPARE(&htim3, TIM_CHANNEL_1, interrupt_period);
 80024f8:	4b05      	ldr	r3, [pc, #20]	@ (8002510 <Start_Measurement_Reelapse_Timer+0x2c>)
	Start_OC_TIM(&htim3, TIM_CHANNEL_1);
 80024fa:	0020      	movs	r0, r4
	__HAL_TIM_SET_COMPARE(&htim3, TIM_CHANNEL_1, interrupt_period);
 80024fc:	881b      	ldrh	r3, [r3, #0]
 80024fe:	b29b      	uxth	r3, r3
 8002500:	6353      	str	r3, [r2, #52]	@ 0x34
	Start_OC_TIM(&htim3, TIM_CHANNEL_1);
 8002502:	f000 febf 	bl	8003284 <Start_OC_TIM>

	return 1;
}
 8002506:	2001      	movs	r0, #1
 8002508:	bd10      	pop	{r4, pc}
 800250a:	46c0      	nop			@ (mov r8, r8)
 800250c:	2000077c 	.word	0x2000077c
 8002510:	20000c10 	.word	0x20000c10

08002514 <Begin_Input_Capture_Measurement>:

uint8_t Begin_Input_Capture_Measurement(void){

	__HAL_TIM_SET_COUNTER(&htim2, 0); //begin measurement
 8002514:	2200      	movs	r2, #0
 8002516:	4b02      	ldr	r3, [pc, #8]	@ (8002520 <Begin_Input_Capture_Measurement+0xc>)

	return 1;
}
 8002518:	2001      	movs	r0, #1
	__HAL_TIM_SET_COUNTER(&htim2, 0); //begin measurement
 800251a:	681b      	ldr	r3, [r3, #0]
 800251c:	625a      	str	r2, [r3, #36]	@ 0x24
}
 800251e:	4770      	bx	lr
 8002520:	20000838 	.word	0x20000838

08002524 <main>:
//INCLUDES
#include "main.h"
#include "main_vars.h"

int main(void)
{
 8002524:	b5f8      	push	{r3, r4, r5, r6, r7, lr}
 8002526:	46de      	mov	lr, fp
 8002528:	4657      	mov	r7, sl
 800252a:	464e      	mov	r6, r9
 800252c:	4645      	mov	r5, r8
 800252e:	b5e0      	push	{r5, r6, r7, lr}
	//SYSTEM INIT
	System_Init();
 8002530:	f7fe ffc4 	bl	80014bc <System_Init>

	//STARTUP
	Startup();
 8002534:	f000 f9d0 	bl	80028d8 <Startup>
 8002538:	4b30      	ldr	r3, [pc, #192]	@ (80025fc <main+0xd8>)
			//HAL_GPIO_WritePin(MONITOR_GPIO_Port, MONITOR_Pin, 0);
		}

		if(Get_Status_Bit(&statuses, Software_IP_CAP_Idle_Timer_Is_Running) == YES){

			if(idle_counter < IDLE_COUNT){
 800253a:	26fa      	movs	r6, #250	@ 0xfa
 800253c:	4699      	mov	r9, r3
 800253e:	4b30      	ldr	r3, [pc, #192]	@ (8002600 <main+0xdc>)
 8002540:	4c30      	ldr	r4, [pc, #192]	@ (8002604 <main+0xe0>)
 8002542:	469b      	mov	fp, r3
 8002544:	4b30      	ldr	r3, [pc, #192]	@ (8002608 <main+0xe4>)
 8002546:	4d31      	ldr	r5, [pc, #196]	@ (800260c <main+0xe8>)
 8002548:	469a      	mov	sl, r3
 800254a:	4f31      	ldr	r7, [pc, #196]	@ (8002610 <main+0xec>)
 800254c:	01f6      	lsls	r6, r6, #7
			}
			else{

				Clear_Status_Bit(&statuses, Software_IP_CAP_Idle_Timer_Is_Running);
				Set_Status_Bit(&statuses, Software_IP_CAP_Idle_Timer_Has_Timed_Out);
				idle_counter = 0;
 800254e:	2300      	movs	r3, #0
 8002550:	4698      	mov	r8, r3
 8002552:	e006      	b.n	8002562 <main+0x3e>
			}
		}
		if(Get_Status_Bit(&statuses, Software_MIDI_Timer_Is_Running) == YES){
 8002554:	2180      	movs	r1, #128	@ 0x80
 8002556:	0020      	movs	r0, r4
 8002558:	0049      	lsls	r1, r1, #1
 800255a:	f000 fecb 	bl	80032f4 <Get_Status_Bit>
 800255e:	2801      	cmp	r0, #1
 8002560:	d01a      	beq.n	8002598 <main+0x74>
		if(Get_Status_Bit(&statuses, Input_Capture_Processing_Can_Be_Started) == YES){
 8002562:	2104      	movs	r1, #4
 8002564:	0020      	movs	r0, r4
 8002566:	f000 fec5 	bl	80032f4 <Get_Status_Bit>
 800256a:	2801      	cmp	r0, #1
 800256c:	d01c      	beq.n	80025a8 <main+0x84>
		if(Get_Status_Bit(&statuses, Software_IP_CAP_Idle_Timer_Is_Running) == YES){
 800256e:	2140      	movs	r1, #64	@ 0x40
 8002570:	0020      	movs	r0, r4
 8002572:	f000 febf 	bl	80032f4 <Get_Status_Bit>
 8002576:	2801      	cmp	r0, #1
 8002578:	d1ec      	bne.n	8002554 <main+0x30>
			if(idle_counter < IDLE_COUNT){
 800257a:	682b      	ldr	r3, [r5, #0]
 800257c:	42b3      	cmp	r3, r6
 800257e:	d21a      	bcs.n	80025b6 <main+0x92>
				if(IP_CAP_fsm.current_state != IDLE){
 8002580:	783a      	ldrb	r2, [r7, #0]
 8002582:	2a00      	cmp	r2, #0
 8002584:	d122      	bne.n	80025cc <main+0xa8>
		if(Get_Status_Bit(&statuses, Software_MIDI_Timer_Is_Running) == YES){
 8002586:	2180      	movs	r1, #128	@ 0x80
					idle_counter++;
 8002588:	3301      	adds	r3, #1
		if(Get_Status_Bit(&statuses, Software_MIDI_Timer_Is_Running) == YES){
 800258a:	0020      	movs	r0, r4
 800258c:	0049      	lsls	r1, r1, #1
					idle_counter++;
 800258e:	602b      	str	r3, [r5, #0]
		if(Get_Status_Bit(&statuses, Software_MIDI_Timer_Is_Running) == YES){
 8002590:	f000 feb0 	bl	80032f4 <Get_Status_Bit>
 8002594:	2801      	cmp	r0, #1
 8002596:	d1e4      	bne.n	8002562 <main+0x3e>

			if(midi_counter < MIDI_COUNT){
 8002598:	464b      	mov	r3, r9
 800259a:	681b      	ldr	r3, [r3, #0]
 800259c:	42b3      	cmp	r3, r6
 800259e:	d220      	bcs.n	80025e2 <main+0xbe>

				midi_counter++;
 80025a0:	3301      	adds	r3, #1
 80025a2:	464a      	mov	r2, r9
 80025a4:	6013      	str	r3, [r2, #0]
 80025a6:	e7d2      	b.n	800254e <main+0x2a>
			Input_Capture_Processing(interrupt_period, &params_to_be_loaded);
 80025a8:	465b      	mov	r3, fp
 80025aa:	8818      	ldrh	r0, [r3, #0]
 80025ac:	4651      	mov	r1, sl
 80025ae:	b280      	uxth	r0, r0
 80025b0:	f7ff ff38 	bl	8002424 <Input_Capture_Processing>
 80025b4:	e7db      	b.n	800256e <main+0x4a>
				Clear_Status_Bit(&statuses, Software_IP_CAP_Idle_Timer_Is_Running);
 80025b6:	2140      	movs	r1, #64	@ 0x40
 80025b8:	0020      	movs	r0, r4
 80025ba:	f000 fea5 	bl	8003308 <Clear_Status_Bit>
				Set_Status_Bit(&statuses, Software_IP_CAP_Idle_Timer_Has_Timed_Out);
 80025be:	2120      	movs	r1, #32
 80025c0:	0020      	movs	r0, r4
 80025c2:	f000 fe9d 	bl	8003300 <Set_Status_Bit>
				idle_counter = 0;
 80025c6:	4643      	mov	r3, r8
 80025c8:	602b      	str	r3, [r5, #0]
 80025ca:	e7c3      	b.n	8002554 <main+0x30>
					Clear_Status_Bit(&statuses, Software_IP_CAP_Idle_Timer_Is_Running);
 80025cc:	2140      	movs	r1, #64	@ 0x40
 80025ce:	0020      	movs	r0, r4
 80025d0:	f000 fe9a 	bl	8003308 <Clear_Status_Bit>
					Clear_Status_Bit(&statuses, Software_IP_CAP_Idle_Timer_Has_Timed_Out);
 80025d4:	2120      	movs	r1, #32
 80025d6:	0020      	movs	r0, r4
 80025d8:	f000 fe96 	bl	8003308 <Clear_Status_Bit>
					idle_counter = 0;
 80025dc:	2300      	movs	r3, #0
 80025de:	602b      	str	r3, [r5, #0]
 80025e0:	e7b8      	b.n	8002554 <main+0x30>
			}
			else{

				Clear_Status_Bit(&statuses, Software_MIDI_Timer_Is_Running);
 80025e2:	2180      	movs	r1, #128	@ 0x80
 80025e4:	0020      	movs	r0, r4
 80025e6:	0049      	lsls	r1, r1, #1
 80025e8:	f000 fe8e 	bl	8003308 <Clear_Status_Bit>
				Set_Status_Bit(&statuses, Software_MIDI_Timer_Has_Timed_Out);
 80025ec:	2180      	movs	r1, #128	@ 0x80
 80025ee:	0020      	movs	r0, r4
 80025f0:	0089      	lsls	r1, r1, #2
 80025f2:	f000 fe85 	bl	8003300 <Set_Status_Bit>
 80025f6:	2300      	movs	r3, #0
 80025f8:	e7d3      	b.n	80025a2 <main+0x7e>
 80025fa:	46c0      	nop			@ (mov r8, r8)
 80025fc:	20000c18 	.word	0x20000c18
 8002600:	20000c10 	.word	0x20000c10
 8002604:	20000c20 	.word	0x20000c20
 8002608:	20000c48 	.word	0x20000c48
 800260c:	20000c1c 	.word	0x20000c1c
 8002610:	20000428 	.word	0x20000428

08002614 <Start_PWM_Gen_Timer_Main_and_Secondary_Oscillators>:
								.duty_delay_line_start_offset = 1,  //initial value is 1st index - to give us space to fill index 0
								.duty_delay_line_finish_offset = FINAL_INDEX + 1}; //initial value is 512th index, one larger than the index of the final sample

//FUNCTION DEFINITIONS
uint8_t Start_PWM_Gen_Timer_Main_and_Secondary_Oscillators(TIM_HandleTypeDef *TIM, uint32_t PWM_TIM_channel_1, uint32_t PWM_TIM_channel_2)
{
 8002614:	b5f8      	push	{r3, r4, r5, r6, r7, lr}
 8002616:	0016      	movs	r6, r2
 8002618:	0005      	movs	r5, r0
 800261a:	000f      	movs	r7, r1
	uint8_t ok_OR = 0;
	ok_OR |= HAL_TIM_Base_Start(TIM);
 800261c:	f003 f86a 	bl	80056f4 <HAL_TIM_Base_Start>
	ok_OR |= HAL_TIM_PWM_Start(TIM, PWM_TIM_channel_1); //start PWM
 8002620:	0039      	movs	r1, r7
	ok_OR |= HAL_TIM_Base_Start(TIM);
 8002622:	0004      	movs	r4, r0
	ok_OR |= HAL_TIM_PWM_Start(TIM, PWM_TIM_channel_1); //start PWM
 8002624:	0028      	movs	r0, r5
 8002626:	f003 fb5d 	bl	8005ce4 <HAL_TIM_PWM_Start>
	ok_OR |= HAL_TIM_PWM_Start(TIM, PWM_TIM_channel_2); //start PWM
 800262a:	0031      	movs	r1, r6
	ok_OR |= HAL_TIM_PWM_Start(TIM, PWM_TIM_channel_1); //start PWM
 800262c:	4304      	orrs	r4, r0
	ok_OR |= HAL_TIM_PWM_Start(TIM, PWM_TIM_channel_2); //start PWM
 800262e:	0028      	movs	r0, r5
 8002630:	f003 fb58 	bl	8005ce4 <HAL_TIM_PWM_Start>
	ok_OR |= HAL_TIM_PWM_Start(TIM, PWM_TIM_channel_1); //start PWM
 8002634:	b2e4      	uxtb	r4, r4
	ok_OR |= HAL_TIM_PWM_Start(TIM, PWM_TIM_channel_2); //start PWM
 8002636:	4304      	orrs	r4, r0
 8002638:	b2e4      	uxtb	r4, r4

	if(ok_OR != HAL_OK){
 800263a:	2c00      	cmp	r4, #0
 800263c:	d101      	bne.n	8002642 <Start_PWM_Gen_Timer_Main_and_Secondary_Oscillators+0x2e>

		Error_Handler();
	}

	return ok_OR;
}
 800263e:	0020      	movs	r0, r4
 8002640:	bdf8      	pop	{r3, r4, r5, r6, r7, pc}
		Error_Handler();
 8002642:	f7fe ff39 	bl	80014b8 <Error_Handler>
 8002646:	e7fa      	b.n	800263e <Start_PWM_Gen_Timer_Main_and_Secondary_Oscillators+0x2a>

08002648 <Start_Freq_Gen_Timer>:

uint8_t Start_Freq_Gen_Timer(void)
{
 8002648:	b510      	push	{r4, lr}
	uint8_t ok = Start_OC_TIM(&htim16, TIM_CHANNEL_1); //start freq. gen.
 800264a:	2100      	movs	r1, #0
 800264c:	4804      	ldr	r0, [pc, #16]	@ (8002660 <Start_Freq_Gen_Timer+0x18>)
 800264e:	f000 fe19 	bl	8003284 <Start_OC_TIM>
 8002652:	1e04      	subs	r4, r0, #0

	if(ok != HAL_OK){
 8002654:	d101      	bne.n	800265a <Start_Freq_Gen_Timer+0x12>

		Error_Handler();
	}

	return ok;
}
 8002656:	0020      	movs	r0, r4
 8002658:	bd10      	pop	{r4, pc}
		Error_Handler();
 800265a:	f7fe ff2d 	bl	80014b8 <Error_Handler>
 800265e:	e7fa      	b.n	8002656 <Start_Freq_Gen_Timer+0xe>
 8002660:	200008f4 	.word	0x200008f4

08002664 <Process_TIM16_Raw_Start_Value_and_Raw_Prescaler>:

	uint32_t speed_control = 0;
	uint8_t how_many_128 = 0;

    //speed_control = (speed_adc_10_bit/1024)*'range macro'
    speed_control = params_ptr->speed * NUMBER_OF_FREQUENCY_STEPS;
 8002664:	8902      	ldrh	r2, [r0, #8]
 8002666:	0093      	lsls	r3, r2, #2
 8002668:	189b      	adds	r3, r3, r2
 800266a:	019b      	lsls	r3, r3, #6
 800266c:	189b      	adds	r3, r3, r2
 800266e:	005b      	lsls	r3, r3, #1
 8002670:	189b      	adds	r3, r3, r2
    speed_control = speed_control >> SPEED_ADC_RESOLUTION;

    how_many_128 = (uint8_t)(speed_control >> 7); //divide by 128, i.e. return how many 128s go into the speed_control
 8002672:	0c59      	lsrs	r1, r3, #17
    params_ptr->raw_start_value = (uint16_t)(speed_control - (uint16_t)(how_many_128 << 7)); //how_many_128*128
 8002674:	b2ca      	uxtb	r2, r1
 8002676:	01d2      	lsls	r2, r2, #7
    speed_control = speed_control >> SPEED_ADC_RESOLUTION;
 8002678:	0a9b      	lsrs	r3, r3, #10
    params_ptr->raw_start_value = (uint16_t)(speed_control - (uint16_t)(how_many_128 << 7)); //how_many_128*128
 800267a:	1a9b      	subs	r3, r3, r2
 800267c:	b29b      	uxth	r3, r3
 800267e:	8243      	strh	r3, [r0, #18]
    params_ptr->raw_prescaler = SLOWEST_SPEED_PRESCALER >> how_many_128;
 8002680:	22ff      	movs	r2, #255	@ 0xff
 8002682:	2380      	movs	r3, #128	@ 0x80
 8002684:	400a      	ands	r2, r1
 8002686:	00db      	lsls	r3, r3, #3
 8002688:	4113      	asrs	r3, r2
 800268a:	b29b      	uxth	r3, r3
 800268c:	8343      	strh	r3, [r0, #26]

    return 1;
}
 800268e:	2001      	movs	r0, #1
 8002690:	4770      	bx	lr
 8002692:	46c0      	nop			@ (mov r8, r8)

08002694 <Set_Oscillator_Values>:
uint8_t Set_Oscillator_Values(struct Params* params_ptr){

	////////////////////////////////////////////////////////
	//SET THE CURRENT(prev) VALUES FOR THE MAIN OSCILLATOR//
	////////////////////////////////////////////////////////
	__HAL_TIM_SET_AUTORELOAD(&htim16, params_ptr->final_ARR);
 8002694:	4909      	ldr	r1, [pc, #36]	@ (80026bc <Set_Oscillator_Values+0x28>)
 8002696:	8b03      	ldrh	r3, [r0, #24]
 8002698:	680a      	ldr	r2, [r1, #0]
 800269a:	b29b      	uxth	r3, r3
 800269c:	62d3      	str	r3, [r2, #44]	@ 0x2c
 800269e:	8b03      	ldrh	r3, [r0, #24]
 80026a0:	60cb      	str	r3, [r1, #12]
	__HAL_TIM_SET_PRESCALER(&htim16, params_ptr->final_prescaler_minus_one); //have to take one off the divisor
 80026a2:	8bc3      	ldrh	r3, [r0, #30]
 80026a4:	b29b      	uxth	r3, r3
 80026a6:	6293      	str	r3, [r2, #40]	@ 0x28

	__HAL_TIM_SET_COMPARE(&htim1, TIM_CHANNEL_2, params_ptr->prev_duty); //updates the CCR register of TIM14, which sets duty, i.e. the ON time relative to the total period which is set by the ARR.
 80026a8:	4a05      	ldr	r2, [pc, #20]	@ (80026c0 <Set_Oscillator_Values+0x2c>)
 80026aa:	8843      	ldrh	r3, [r0, #2]
 80026ac:	6812      	ldr	r2, [r2, #0]
 80026ae:	b29b      	uxth	r3, r3
 80026b0:	6393      	str	r3, [r2, #56]	@ 0x38

	/////////////////////////////////////////////////////////////
	//SET THE CURRENT(prev) VALUES FOR THE SECONDARY OSCILLATOR//
	/////////////////////////////////////////////////////////////
	__HAL_TIM_SET_COMPARE(&htim1, TIM_CHANNEL_4, params_ptr->duty_delayed); //updates the CCR register of TIM14, which sets duty, i.e. the ON time relative to the total period which is set by the ARR.
 80026b2:	8883      	ldrh	r3, [r0, #4]

	return 1;
}
 80026b4:	2001      	movs	r0, #1
	__HAL_TIM_SET_COMPARE(&htim1, TIM_CHANNEL_4, params_ptr->duty_delayed); //updates the CCR register of TIM14, which sets duty, i.e. the ON time relative to the total period which is set by the ARR.
 80026b6:	b29b      	uxth	r3, r3
 80026b8:	6413      	str	r3, [r2, #64]	@ 0x40
}
 80026ba:	4770      	bx	lr
 80026bc:	200008f4 	.word	0x200008f4
 80026c0:	200006c0 	.word	0x200006c0

080026c4 <Calculate_Next_Main_Oscillator_Values>:

uint8_t Calculate_Next_Main_Oscillator_Values(struct Params* params_ptr, enum Next_Values_Processing_Mode mode){

	if(mode == REGULAR_MODE){
 80026c4:	2900      	cmp	r1, #0
 80026c6:	d11e      	bne.n	8002706 <Calculate_Next_Main_Oscillator_Values+0x42>

		params_ptr->index++;
 80026c8:	89c3      	ldrh	r3, [r0, #14]
 80026ca:	3301      	adds	r3, #1
 80026cc:	b29b      	uxth	r3, r3
 80026ce:	81c3      	strh	r3, [r0, #14]

		if(params_ptr->index == FINAL_INDEX + 1){
 80026d0:	2380      	movs	r3, #128	@ 0x80
 80026d2:	89c2      	ldrh	r2, [r0, #14]
 80026d4:	009b      	lsls	r3, r3, #2
 80026d6:	429a      	cmp	r2, r3
 80026d8:	d053      	beq.n	8002782 <Calculate_Next_Main_Oscillator_Values+0xbe>
			params_ptr->index = 0;
		}

		if(params_ptr->index == FIRST_QUADRANT_START_INDEX){
 80026da:	89c3      	ldrh	r3, [r0, #14]
 80026dc:	b29a      	uxth	r2, r3
 80026de:	2b00      	cmp	r3, #0
 80026e0:	d04c      	beq.n	800277c <Calculate_Next_Main_Oscillator_Values+0xb8>
			params_ptr->quadrant = FIRST_QUADRANT;
			params_ptr->halfcycle = FIRST_HALFCYCLE;
		}
		else if(params_ptr->index == SECOND_QUADRANT_START_INDEX){
 80026e2:	89c3      	ldrh	r3, [r0, #14]
 80026e4:	2b80      	cmp	r3, #128	@ 0x80
 80026e6:	d04e      	beq.n	8002786 <Calculate_Next_Main_Oscillator_Values+0xc2>
			params_ptr->quadrant = SECOND_QUADRANT;
			params_ptr->halfcycle = FIRST_HALFCYCLE;
		}
		else if(params_ptr->index == THIRD_QUADRANT_START_INDEX){
 80026e8:	2380      	movs	r3, #128	@ 0x80
 80026ea:	89c2      	ldrh	r2, [r0, #14]
 80026ec:	005b      	lsls	r3, r3, #1
 80026ee:	429a      	cmp	r2, r3
 80026f0:	d051      	beq.n	8002796 <Calculate_Next_Main_Oscillator_Values+0xd2>
			params_ptr->quadrant = FIRST_QUADRANT;
			params_ptr->halfcycle = SECOND_HALFCYCLE;
		}
		else if(params_ptr->index == FOURTH_QUADRANT_START_INDEX){
 80026f2:	23c0      	movs	r3, #192	@ 0xc0
 80026f4:	89c2      	ldrh	r2, [r0, #14]
 80026f6:	005b      	lsls	r3, r3, #1
 80026f8:	429a      	cmp	r2, r3
 80026fa:	d108      	bne.n	800270e <Calculate_Next_Main_Oscillator_Values+0x4a>
			params_ptr->quadrant = SECOND_QUADRANT;
 80026fc:	3b80      	subs	r3, #128	@ 0x80
 80026fe:	3bff      	subs	r3, #255	@ 0xff
 8002700:	7443      	strb	r3, [r0, #17]
			params_ptr->halfcycle = SECOND_HALFCYCLE;
 8002702:	7403      	strb	r3, [r0, #16]
 8002704:	e003      	b.n	800270e <Calculate_Next_Main_Oscillator_Values+0x4a>
		}
	}
	else if(mode == IP_CAPTURE_MODE){
 8002706:	2901      	cmp	r1, #1
 8002708:	d050      	beq.n	80027ac <Calculate_Next_Main_Oscillator_Values+0xe8>
			params_ptr->index = SQUARE_WAVE_TEMPO_APEX_INDEX;
			params_ptr->quadrant = CURRENT_QUADRANT_SQUARE_SYNCED;
			params_ptr->halfcycle = CURRENT_HALFCYCLE_SQUARE_SYNCED;
		}
	}
	else if(mode == STARTUP_MODE){
 800270a:	2902      	cmp	r1, #2
 800270c:	d032      	beq.n	8002774 <Calculate_Next_Main_Oscillator_Values+0xb0>
			params_ptr->halfcycle = FIRST_HALFCYCLE;
		}
	}

	//ONCE INDEX IS SET, FIND THE DUTY VALUE
	if(params_ptr->waveshape == TRIANGLE_MODE){
 800270e:	7983      	ldrb	r3, [r0, #6]
 8002710:	2b00      	cmp	r3, #0
 8002712:	d117      	bne.n	8002744 <Calculate_Next_Main_Oscillator_Values+0x80>
		params_ptr->duty = tri_wavetable[params_ptr->index];
 8002714:	89c2      	ldrh	r2, [r0, #14]
 8002716:	4b2f      	ldr	r3, [pc, #188]	@ (80027d4 <Calculate_Next_Main_Oscillator_Values+0x110>)
 8002718:	0052      	lsls	r2, r2, #1
 800271a:	5ad3      	ldrh	r3, [r2, r3]
 800271c:	8003      	strh	r3, [r0, #0]

	//APPLY DEPTH
	#if DEPTH_ON_OR_OFF == 1

		//Apply Depth
		if(params_ptr->depth == ((1 << DEPTH_ADC_RESOLUTION) - 1)){ //255
 800271e:	7a83      	ldrb	r3, [r0, #10]
 8002720:	2b7f      	cmp	r3, #127	@ 0x7f
 8002722:	d01e      	beq.n	8002762 <Calculate_Next_Main_Oscillator_Values+0x9e>
			params_ptr->duty = PWM_DUTY_VALUE_MAX - params_ptr->duty;
		}
		else if(params_ptr->depth != 0){
 8002724:	7a83      	ldrb	r3, [r0, #10]
 8002726:	2b00      	cmp	r3, #0
 8002728:	d021      	beq.n	800276e <Calculate_Next_Main_Oscillator_Values+0xaa>

			//duty = 1023 - duty*(current_depth >> 8);
			uint32_t multiply_product = 0;
			multiply_product = (params_ptr->duty) * (params_ptr->depth);
 800272a:	8803      	ldrh	r3, [r0, #0]
 800272c:	7a82      	ldrb	r2, [r0, #10]
 800272e:	435a      	muls	r2, r3
			params_ptr->duty = PWM_DUTY_VALUE_MAX - (multiply_product >> DEPTH_ADC_RESOLUTION);
 8002730:	4b29      	ldr	r3, [pc, #164]	@ (80027d8 <Calculate_Next_Main_Oscillator_Values+0x114>)
 8002732:	09d2      	lsrs	r2, r2, #7
 8002734:	1a9b      	subs	r3, r3, r2
 8002736:	b29b      	uxth	r3, r3
 8002738:	8003      	strh	r3, [r0, #0]
		}

	#endif

	//SET THE NEXT VALUE FOR THE MAIN OSCILLATOR
	params_ptr->prev_duty = params_ptr->duty;
 800273a:	8803      	ldrh	r3, [r0, #0]
 800273c:	b29b      	uxth	r3, r3
 800273e:	8043      	strh	r3, [r0, #2]

	return 1;
}
 8002740:	2001      	movs	r0, #1
 8002742:	4770      	bx	lr
	else if(params_ptr->waveshape == SINE_MODE){
 8002744:	7983      	ldrb	r3, [r0, #6]
 8002746:	2b01      	cmp	r3, #1
 8002748:	d02a      	beq.n	80027a0 <Calculate_Next_Main_Oscillator_Values+0xdc>
	else if((params_ptr->waveshape == SQUARE_MODE) && (params_ptr->index < THIRD_QUADRANT_START_INDEX)){
 800274a:	7983      	ldrb	r3, [r0, #6]
 800274c:	2b02      	cmp	r3, #2
 800274e:	d03a      	beq.n	80027c6 <Calculate_Next_Main_Oscillator_Values+0x102>
	else if((params_ptr->waveshape == SQUARE_MODE) && (params_ptr->index >= THIRD_QUADRANT_START_INDEX)){
 8002750:	7983      	ldrb	r3, [r0, #6]
 8002752:	2b02      	cmp	r3, #2
 8002754:	d1e3      	bne.n	800271e <Calculate_Next_Main_Oscillator_Values+0x5a>
 8002756:	89c3      	ldrh	r3, [r0, #14]
 8002758:	2bff      	cmp	r3, #255	@ 0xff
 800275a:	d9e0      	bls.n	800271e <Calculate_Next_Main_Oscillator_Values+0x5a>
		params_ptr->duty = PWM_DUTY_VALUE_MIN;
 800275c:	2300      	movs	r3, #0
 800275e:	8003      	strh	r3, [r0, #0]
 8002760:	e7dd      	b.n	800271e <Calculate_Next_Main_Oscillator_Values+0x5a>
			params_ptr->duty = PWM_DUTY_VALUE_MAX - params_ptr->duty;
 8002762:	8802      	ldrh	r2, [r0, #0]
 8002764:	4b1c      	ldr	r3, [pc, #112]	@ (80027d8 <Calculate_Next_Main_Oscillator_Values+0x114>)
 8002766:	1a9b      	subs	r3, r3, r2
 8002768:	b29b      	uxth	r3, r3
 800276a:	8003      	strh	r3, [r0, #0]
 800276c:	e7e5      	b.n	800273a <Calculate_Next_Main_Oscillator_Values+0x76>
			params_ptr->duty = PWM_DUTY_VALUE_MAX; //if depth is 0, just output 1023
 800276e:	4b1a      	ldr	r3, [pc, #104]	@ (80027d8 <Calculate_Next_Main_Oscillator_Values+0x114>)
 8002770:	8003      	strh	r3, [r0, #0]
 8002772:	e7e2      	b.n	800273a <Calculate_Next_Main_Oscillator_Values+0x76>
		if(params_ptr->index == FIRST_QUADRANT_START_INDEX){
 8002774:	89c3      	ldrh	r3, [r0, #14]
 8002776:	b29a      	uxth	r2, r3
 8002778:	2b00      	cmp	r3, #0
 800277a:	d1c8      	bne.n	800270e <Calculate_Next_Main_Oscillator_Values+0x4a>
			params_ptr->quadrant = FIRST_QUADRANT;
 800277c:	7442      	strb	r2, [r0, #17]
			params_ptr->halfcycle = FIRST_HALFCYCLE;
 800277e:	7402      	strb	r2, [r0, #16]
 8002780:	e7c5      	b.n	800270e <Calculate_Next_Main_Oscillator_Values+0x4a>
			params_ptr->index = 0;
 8002782:	81c1      	strh	r1, [r0, #14]
 8002784:	e7a9      	b.n	80026da <Calculate_Next_Main_Oscillator_Values+0x16>
			params_ptr->quadrant = SECOND_QUADRANT;
 8002786:	3b7f      	subs	r3, #127	@ 0x7f
 8002788:	7443      	strb	r3, [r0, #17]
			params_ptr->halfcycle = FIRST_HALFCYCLE;
 800278a:	2300      	movs	r3, #0
 800278c:	7403      	strb	r3, [r0, #16]
 800278e:	e7be      	b.n	800270e <Calculate_Next_Main_Oscillator_Values+0x4a>
			params_ptr->index = SINE_OR_TRIANGLE_WAVE_TEMPO_PERCEIVED_APEX_INDEX;
 8002790:	23a7      	movs	r3, #167	@ 0xa7
 8002792:	005b      	lsls	r3, r3, #1
 8002794:	81c3      	strh	r3, [r0, #14]
			params_ptr->quadrant = CURRENT_QUADRANT_SINE_OR_TRI_SYNCED;
 8002796:	2300      	movs	r3, #0
 8002798:	7443      	strb	r3, [r0, #17]
			params_ptr->halfcycle = CURRENT_HALFCYCLE_SINE_OR_TRI_SYNCED;
 800279a:	3301      	adds	r3, #1
 800279c:	7403      	strb	r3, [r0, #16]
 800279e:	e7b6      	b.n	800270e <Calculate_Next_Main_Oscillator_Values+0x4a>
		params_ptr->duty = sine_wavetable[params_ptr->index];
 80027a0:	89c2      	ldrh	r2, [r0, #14]
 80027a2:	4b0e      	ldr	r3, [pc, #56]	@ (80027dc <Calculate_Next_Main_Oscillator_Values+0x118>)
 80027a4:	0052      	lsls	r2, r2, #1
 80027a6:	5ad3      	ldrh	r3, [r2, r3]
 80027a8:	8003      	strh	r3, [r0, #0]
 80027aa:	e7b8      	b.n	800271e <Calculate_Next_Main_Oscillator_Values+0x5a>
		if(params_ptr->waveshape == SINE_MODE || params_ptr->waveshape == TRIANGLE_MODE){
 80027ac:	7983      	ldrb	r3, [r0, #6]
 80027ae:	2b01      	cmp	r3, #1
 80027b0:	d0ee      	beq.n	8002790 <Calculate_Next_Main_Oscillator_Values+0xcc>
 80027b2:	7983      	ldrb	r3, [r0, #6]
 80027b4:	2b00      	cmp	r3, #0
 80027b6:	d0eb      	beq.n	8002790 <Calculate_Next_Main_Oscillator_Values+0xcc>
			params_ptr->index = SQUARE_WAVE_TEMPO_APEX_INDEX;
 80027b8:	2380      	movs	r3, #128	@ 0x80
 80027ba:	005b      	lsls	r3, r3, #1
 80027bc:	81c3      	strh	r3, [r0, #14]
			params_ptr->quadrant = CURRENT_QUADRANT_SQUARE_SYNCED;
 80027be:	2300      	movs	r3, #0
 80027c0:	7443      	strb	r3, [r0, #17]
			params_ptr->halfcycle = CURRENT_HALFCYCLE_SQUARE_SYNCED;
 80027c2:	7401      	strb	r1, [r0, #16]
 80027c4:	e7a3      	b.n	800270e <Calculate_Next_Main_Oscillator_Values+0x4a>
	else if((params_ptr->waveshape == SQUARE_MODE) && (params_ptr->index < THIRD_QUADRANT_START_INDEX)){
 80027c6:	89c3      	ldrh	r3, [r0, #14]
 80027c8:	2bff      	cmp	r3, #255	@ 0xff
 80027ca:	d8c1      	bhi.n	8002750 <Calculate_Next_Main_Oscillator_Values+0x8c>
		params_ptr->duty = PWM_DUTY_VALUE_MAX;
 80027cc:	4b02      	ldr	r3, [pc, #8]	@ (80027d8 <Calculate_Next_Main_Oscillator_Values+0x114>)
 80027ce:	8003      	strh	r3, [r0, #0]
 80027d0:	e7a5      	b.n	800271e <Calculate_Next_Main_Oscillator_Values+0x5a>
 80027d2:	46c0      	nop			@ (mov r8, r8)
 80027d4:	08007c6c 	.word	0x08007c6c
 80027d8:	000003ff 	.word	0x000003ff
 80027dc:	0800806c 	.word	0x0800806c

080027e0 <Write_Next_Main_Oscillator_Values_to_Delay_Line>:

uint8_t Write_Next_Main_Oscillator_Values_to_Delay_Line(struct Params* params_ptr, struct Delay_Line* delay_line_ptr){
 80027e0:	b510      	push	{r4, lr}

	//STORE THE VALUES IN THE APPROPRIATE '0TH - 1' INDEX RELATIVE TO THE START POINTER
		if(delay_line_ptr->duty_delay_line_start_offset != 0){
 80027e2:	4b29      	ldr	r3, [pc, #164]	@ (8002888 <Write_Next_Main_Oscillator_Values_to_Delay_Line+0xa8>)
 80027e4:	5aca      	ldrh	r2, [r1, r3]
 80027e6:	2a00      	cmp	r2, #0
 80027e8:	d026      	beq.n	8002838 <Write_Next_Main_Oscillator_Values_to_Delay_Line+0x58>
			delay_line_ptr->duty_delay_line_storage_array[delay_line_ptr->duty_delay_line_start_offset - 1] = params_ptr->duty;
 80027ea:	5acb      	ldrh	r3, [r1, r3]
 80027ec:	8802      	ldrh	r2, [r0, #0]
 80027ee:	3b01      	subs	r3, #1
 80027f0:	b292      	uxth	r2, r2
 80027f2:	005b      	lsls	r3, r3, #1
 80027f4:	525a      	strh	r2, [r3, r1]
		else{
			delay_line_ptr->duty_delay_line_storage_array[FINAL_INDEX + 1] = params_ptr->duty;
		}

		//DECREMENT THE START AND FINISH POINTERS
		if(delay_line_ptr->duty_delay_line_start_offset == 0){
 80027f6:	4b24      	ldr	r3, [pc, #144]	@ (8002888 <Write_Next_Main_Oscillator_Values_to_Delay_Line+0xa8>)
 80027f8:	5aca      	ldrh	r2, [r1, r3]
 80027fa:	2a00      	cmp	r2, #0
 80027fc:	d125      	bne.n	800284a <Write_Next_Main_Oscillator_Values_to_Delay_Line+0x6a>
			delay_line_ptr->duty_delay_line_start_offset = FINAL_INDEX + 1;
 80027fe:	2280      	movs	r2, #128	@ 0x80
 8002800:	0092      	lsls	r2, r2, #2
 8002802:	52ca      	strh	r2, [r1, r3]
			delay_line_ptr->duty_delay_line_finish_offset = delay_line_ptr->duty_delay_line_finish_offset - 1;
 8002804:	4a21      	ldr	r2, [pc, #132]	@ (800288c <Write_Next_Main_Oscillator_Values_to_Delay_Line+0xac>)
 8002806:	5a8b      	ldrh	r3, [r1, r2]
 8002808:	3b01      	subs	r3, #1
 800280a:	b29b      	uxth	r3, r3
 800280c:	528b      	strh	r3, [r1, r2]
			delay_line_ptr->duty_delay_line_start_offset = delay_line_ptr->duty_delay_line_start_offset - 1;
			delay_line_ptr->duty_delay_line_finish_offset = delay_line_ptr->duty_delay_line_finish_offset - 1;
		}

		//DETERMINE THE DELAYED WAVE'S VALUES
		if(delay_line_ptr->duty_delay_line_start_offset + params_ptr->duty_delay_line_read_pointer_offset > FINAL_INDEX + 1){ //if the desired starting index falls off the end of the array
 800280e:	4a1e      	ldr	r2, [pc, #120]	@ (8002888 <Write_Next_Main_Oscillator_Values_to_Delay_Line+0xa8>)
 8002810:	5a8b      	ldrh	r3, [r1, r2]
 8002812:	8c44      	ldrh	r4, [r0, #34]	@ 0x22
 8002814:	191b      	adds	r3, r3, r4
 8002816:	2480      	movs	r4, #128	@ 0x80
 8002818:	00a4      	lsls	r4, r4, #2
 800281a:	42a3      	cmp	r3, r4
 800281c:	dd21      	ble.n	8002862 <Write_Next_Main_Oscillator_Values_to_Delay_Line+0x82>
			params_ptr->duty_delayed = *(delay_line_ptr->duty_delay_line_storage_array + (delay_line_ptr->duty_delay_line_start_offset + params_ptr->duty_delay_line_read_pointer_offset - (FINAL_INDEX + 1)));
 800281e:	5a8b      	ldrh	r3, [r1, r2]
 8002820:	8c42      	ldrh	r2, [r0, #34]	@ 0x22
 8002822:	189b      	adds	r3, r3, r2
 8002824:	4a1a      	ldr	r2, [pc, #104]	@ (8002890 <Write_Next_Main_Oscillator_Values_to_Delay_Line+0xb0>)
 8002826:	4694      	mov	ip, r2
 8002828:	4463      	add	r3, ip
 800282a:	005b      	lsls	r3, r3, #1
 800282c:	18cb      	adds	r3, r1, r3
 800282e:	881b      	ldrh	r3, [r3, #0]
 8002830:	b29b      	uxth	r3, r3
 8002832:	8083      	strh	r3, [r0, #4]
		else{
			params_ptr->duty_delayed = *(delay_line_ptr->duty_delay_line_storage_array + delay_line_ptr->duty_delay_line_start_offset + params_ptr->duty_delay_line_read_pointer_offset);
		}

	return 1;
}
 8002834:	2001      	movs	r0, #1
 8002836:	bd10      	pop	{r4, pc}
			delay_line_ptr->duty_delay_line_storage_array[FINAL_INDEX + 1] = params_ptr->duty;
 8002838:	2280      	movs	r2, #128	@ 0x80
 800283a:	8803      	ldrh	r3, [r0, #0]
 800283c:	00d2      	lsls	r2, r2, #3
 800283e:	b29b      	uxth	r3, r3
 8002840:	528b      	strh	r3, [r1, r2]
		if(delay_line_ptr->duty_delay_line_start_offset == 0){
 8002842:	4b11      	ldr	r3, [pc, #68]	@ (8002888 <Write_Next_Main_Oscillator_Values_to_Delay_Line+0xa8>)
 8002844:	5aca      	ldrh	r2, [r1, r3]
 8002846:	2a00      	cmp	r2, #0
 8002848:	d0d9      	beq.n	80027fe <Write_Next_Main_Oscillator_Values_to_Delay_Line+0x1e>
		else if(delay_line_ptr->duty_delay_line_finish_offset == 0){
 800284a:	4a10      	ldr	r2, [pc, #64]	@ (800288c <Write_Next_Main_Oscillator_Values_to_Delay_Line+0xac>)
 800284c:	5a8c      	ldrh	r4, [r1, r2]
 800284e:	2c00      	cmp	r4, #0
 8002850:	d110      	bne.n	8002874 <Write_Next_Main_Oscillator_Values_to_Delay_Line+0x94>
			delay_line_ptr->duty_delay_line_finish_offset = FINAL_INDEX + 1;
 8002852:	2480      	movs	r4, #128	@ 0x80
 8002854:	00a4      	lsls	r4, r4, #2
 8002856:	528c      	strh	r4, [r1, r2]
			delay_line_ptr->duty_delay_line_start_offset = delay_line_ptr->duty_delay_line_start_offset - 1;
 8002858:	5aca      	ldrh	r2, [r1, r3]
 800285a:	3a01      	subs	r2, #1
 800285c:	b292      	uxth	r2, r2
 800285e:	52ca      	strh	r2, [r1, r3]
 8002860:	e7d5      	b.n	800280e <Write_Next_Main_Oscillator_Values_to_Delay_Line+0x2e>
			params_ptr->duty_delayed = *(delay_line_ptr->duty_delay_line_storage_array + delay_line_ptr->duty_delay_line_start_offset + params_ptr->duty_delay_line_read_pointer_offset);
 8002862:	5a8b      	ldrh	r3, [r1, r2]
 8002864:	8c42      	ldrh	r2, [r0, #34]	@ 0x22
 8002866:	189b      	adds	r3, r3, r2
 8002868:	005b      	lsls	r3, r3, #1
 800286a:	18c9      	adds	r1, r1, r3
 800286c:	880b      	ldrh	r3, [r1, #0]
 800286e:	b29b      	uxth	r3, r3
 8002870:	8083      	strh	r3, [r0, #4]
 8002872:	e7df      	b.n	8002834 <Write_Next_Main_Oscillator_Values_to_Delay_Line+0x54>
			delay_line_ptr->duty_delay_line_start_offset = delay_line_ptr->duty_delay_line_start_offset - 1;
 8002874:	5acc      	ldrh	r4, [r1, r3]
 8002876:	3c01      	subs	r4, #1
 8002878:	b2a4      	uxth	r4, r4
 800287a:	52cc      	strh	r4, [r1, r3]
			delay_line_ptr->duty_delay_line_finish_offset = delay_line_ptr->duty_delay_line_finish_offset - 1;
 800287c:	5a8b      	ldrh	r3, [r1, r2]
 800287e:	3b01      	subs	r3, #1
 8002880:	b29b      	uxth	r3, r3
 8002882:	528b      	strh	r3, [r1, r2]
 8002884:	e7c3      	b.n	800280e <Write_Next_Main_Oscillator_Values_to_Delay_Line+0x2e>
 8002886:	46c0      	nop			@ (mov r8, r8)
 8002888:	00000402 	.word	0x00000402
 800288c:	00000404 	.word	0x00000404
 8002890:	7ffffe00 	.word	0x7ffffe00

08002894 <Process_ADC_Conversion_Values>:

uint8_t Process_ADC_Conversion_Values(struct Params* params_ptr, volatile uint16_t* ADCResultsDMA_ptr){

	//GET WAVESHAPE
	uint16_t ADC_result = ADCResultsDMA_ptr[WAVESHAPE_ADC_RESULT_INDEX] >> 5; //set ADC_Result to waveshape index value, truncate to 7-bit
 8002894:	880b      	ldrh	r3, [r1, #0]
 8002896:	095b      	lsrs	r3, r3, #5

	if(ADC_result <= TRIANGLE_MODE_ADC_THRESHOLD){
 8002898:	2b2a      	cmp	r3, #42	@ 0x2a
 800289a:	d813      	bhi.n	80028c4 <Process_ADC_Conversion_Values+0x30>
		params_ptr->waveshape = TRIANGLE_MODE; //triangle wave
 800289c:	2300      	movs	r3, #0
 800289e:	7183      	strb	r3, [r0, #6]
	else if (ADC_result <= SQUARE_MODE_ADC_THRESHOLD){
		params_ptr->waveshape = SQUARE_MODE; //square wave
	}

	//GET SPEED
	uint16_t temp_speed = ADCResultsDMA_ptr[SPEED_ADC_RESULT_INDEX] >> 5; //truncate to 7-bit
 80028a0:	884b      	ldrh	r3, [r1, #2]
 80028a2:	095b      	lsrs	r3, r3, #5
	temp_speed <<= 3; //convert to 10-bit
 80028a4:	00db      	lsls	r3, r3, #3
	params_ptr->speed = temp_speed;
 80028a6:	8103      	strh	r3, [r0, #8]

	//GET DEPTH
	#if DEPTH_ON_OR_OFF == ON

		uint8_t temp_depth = ADCResultsDMA_ptr[DEPTH_ADC_RESULT_INDEX] >> 5; //truncate to 7-bit
 80028a8:	888b      	ldrh	r3, [r1, #4]
 80028aa:	095b      	lsrs	r3, r3, #5
 80028ac:	b2db      	uxtb	r3, r3
		params_ptr->depth = temp_depth;
 80028ae:	7283      	strb	r3, [r0, #10]
	#endif

	//GET SYMMETRY
	#if SYMMETRY_ON_OR_OFF == ON

		uint16_t temp_symmetry = ADCResultsDMA_ptr[SYMMETRY_ADC_RESULT_INDEX] >> 5; //truncate to 7-bit
 80028b0:	88cb      	ldrh	r3, [r1, #6]
 80028b2:	095b      	lsrs	r3, r3, #5
		temp_symmetry <<= 1; //convert to 8-bit
 80028b4:	005b      	lsls	r3, r3, #1
		params_ptr->symmetry = temp_symmetry;
 80028b6:	8183      	strh	r3, [r0, #12]

	#endif

	//GET DELAY LINE READ POINTER OFFSET

	uint16_t temp_delay = ADCResultsDMA_ptr[DUTY_DELAY_LINE_READ_POINTER_OFFSET_ADC_RESULT_INDEX] >> 5; //truncate to 7-bit
 80028b8:	890b      	ldrh	r3, [r1, #8]
 80028ba:	095b      	lsrs	r3, r3, #5
	temp_delay <<= 2; //convert to 9-bit
 80028bc:	009b      	lsls	r3, r3, #2
	params_ptr->duty_delay_line_read_pointer_offset = temp_delay;
 80028be:	8443      	strh	r3, [r0, #34]	@ 0x22

	return 1;
}
 80028c0:	2001      	movs	r0, #1
 80028c2:	4770      	bx	lr
	else if (ADC_result <= SINE_MODE_ADC_THRESHOLD){
 80028c4:	2b55      	cmp	r3, #85	@ 0x55
 80028c6:	d802      	bhi.n	80028ce <Process_ADC_Conversion_Values+0x3a>
		params_ptr->waveshape = SINE_MODE; //sine wave
 80028c8:	2301      	movs	r3, #1
 80028ca:	7183      	strb	r3, [r0, #6]
 80028cc:	e7e8      	b.n	80028a0 <Process_ADC_Conversion_Values+0xc>
	else if (ADC_result <= SQUARE_MODE_ADC_THRESHOLD){
 80028ce:	2b7f      	cmp	r3, #127	@ 0x7f
 80028d0:	d8e6      	bhi.n	80028a0 <Process_ADC_Conversion_Values+0xc>
		params_ptr->waveshape = SQUARE_MODE; //square wave
 80028d2:	2302      	movs	r3, #2
 80028d4:	7183      	strb	r3, [r0, #6]
 80028d6:	e7e3      	b.n	80028a0 <Process_ADC_Conversion_Values+0xc>

080028d8 <Startup>:

#include "stm32g0xx_ll_lptim.h"

#include "CC_and_PC.h" //for some reason compiler shits itself if this is included in startup.h

uint8_t __attribute__((optimize("O0")))Startup(void){
 80028d8:	b590      	push	{r4, r7, lr}
 80028da:	b085      	sub	sp, #20
 80028dc:	af02      	add	r7, sp, #8

	//Shouldn't be required now we have a default state set below, even in case flash not programmed //Set_Status_Bit(&statuses, Start_Required_Before_Sync_Mode); //set default mode to requiring START MIDI message before beginning a sync

	HAL_NVIC_DisableIRQ(EXTI4_15_IRQn);
 80028de:	2007      	movs	r0, #7
 80028e0:	f001 fb32 	bl	8003f48 <HAL_NVIC_DisableIRQ>

	__HAL_TIM_ENABLE_IT(&htim2, TIM_IT_UPDATE); //make sure the overflow (update) interrupt is enabled for TIM2
 80028e4:	4b56      	ldr	r3, [pc, #344]	@ (8002a40 <Startup+0x168>)
 80028e6:	681b      	ldr	r3, [r3, #0]
 80028e8:	68da      	ldr	r2, [r3, #12]
 80028ea:	4b55      	ldr	r3, [pc, #340]	@ (8002a40 <Startup+0x168>)
 80028ec:	681b      	ldr	r3, [r3, #0]
 80028ee:	2101      	movs	r1, #1
 80028f0:	430a      	orrs	r2, r1
 80028f2:	60da      	str	r2, [r3, #12]
	__HAL_TIM_ENABLE_IT(&htim16, TIM_IT_UPDATE); //make sure the overflow (update) interrupt is enabled for TIM16
 80028f4:	4b53      	ldr	r3, [pc, #332]	@ (8002a44 <Startup+0x16c>)
 80028f6:	681b      	ldr	r3, [r3, #0]
 80028f8:	68da      	ldr	r2, [r3, #12]
 80028fa:	4b52      	ldr	r3, [pc, #328]	@ (8002a44 <Startup+0x16c>)
 80028fc:	681b      	ldr	r3, [r3, #0]
 80028fe:	2101      	movs	r1, #1
 8002900:	430a      	orrs	r2, r1
 8002902:	60da      	str	r2, [r3, #12]

	//SET DEFAULT PIN STATES
	HAL_GPIO_WritePin(SW_OUT_GPIO_Port, SW_OUT_Pin, 1); //latch high the debounced o/p
 8002904:	2380      	movs	r3, #128	@ 0x80
 8002906:	0099      	lsls	r1, r3, #2
 8002908:	23a0      	movs	r3, #160	@ 0xa0
 800290a:	05db      	lsls	r3, r3, #23
 800290c:	2201      	movs	r2, #1
 800290e:	0018      	movs	r0, r3
 8002910:	f001 feac 	bl	800466c <HAL_GPIO_WritePin>
	HAL_GPIO_WritePin(HACK_POT_HIGH_GPIO_Port, HACK_POT_HIGH_Pin, 1);
 8002914:	2380      	movs	r3, #128	@ 0x80
 8002916:	0159      	lsls	r1, r3, #5
 8002918:	23a0      	movs	r3, #160	@ 0xa0
 800291a:	05db      	lsls	r3, r3, #23
 800291c:	2201      	movs	r2, #1
 800291e:	0018      	movs	r0, r3
 8002920:	f001 fea4 	bl	800466c <HAL_GPIO_WritePin>
	HAL_GPIO_WritePin(HACK_POT_LOW_GPIO_Port, HACK_POT_LOW_Pin, 0);
 8002924:	23a0      	movs	r3, #160	@ 0xa0
 8002926:	05db      	lsls	r3, r3, #23
 8002928:	2200      	movs	r2, #0
 800292a:	2180      	movs	r1, #128	@ 0x80
 800292c:	0018      	movs	r0, r3
 800292e:	f001 fe9d 	bl	800466c <HAL_GPIO_WritePin>

	//Point Arrays to Presets
	Initialise_Preset_Arrays();
 8002932:	f7fd fd89 	bl	8000448 <Initialise_Preset_Arrays>

	//Read User Presets From Flash, regardless of whether they have been written to before
	Read_and_Interpret_User_Presets_From_Flash();
 8002936:	f7fd ff2f 	bl	8000798 <Read_and_Interpret_User_Presets_From_Flash>

	//Read 'User Preset Used' Bytes, 'Start Required Before MIDI CLK' Byte, MIDI Omni On/Off Status Bit, and MIDI Basic Channel
	Read_and_Interpret_Misc_From_Flash(MISC_FLASH_MEMORY_ADDRESS, user_presets_used_array, &statuses, &MIDI_basic_channel, NUM_PRESETS);
 800293a:	4b43      	ldr	r3, [pc, #268]	@ (8002a48 <Startup+0x170>)
 800293c:	4a43      	ldr	r2, [pc, #268]	@ (8002a4c <Startup+0x174>)
 800293e:	4944      	ldr	r1, [pc, #272]	@ (8002a50 <Startup+0x178>)
 8002940:	4c44      	ldr	r4, [pc, #272]	@ (8002a54 <Startup+0x17c>)
 8002942:	2004      	movs	r0, #4
 8002944:	9000      	str	r0, [sp, #0]
 8002946:	0020      	movs	r0, r4
 8002948:	f7fd fe86 	bl	8000658 <Read_and_Interpret_Misc_From_Flash>

	//Set the Converted Preset Array to the Relevant Factory/User Preset depending upon the 'User Preset Used' Byte read from Flash
	Update_Converted_Preset_Array_with_User_or_Factory_Presets(presets_converted_array,
 800294c:	4b42      	ldr	r3, [pc, #264]	@ (8002a58 <Startup+0x180>)
 800294e:	4a43      	ldr	r2, [pc, #268]	@ (8002a5c <Startup+0x184>)
 8002950:	493f      	ldr	r1, [pc, #252]	@ (8002a50 <Startup+0x178>)
 8002952:	4843      	ldr	r0, [pc, #268]	@ (8002a60 <Startup+0x188>)
 8002954:	2404      	movs	r4, #4
 8002956:	9400      	str	r4, [sp, #0]
 8002958:	f7fd fef2 	bl	8000740 <Update_Converted_Preset_Array_with_User_or_Factory_Presets>
												  	  	  	  factory_presets_array,
															  user_presets_array,
															  NUM_PRESETS);

	//GET ADC VALUES
	HAL_ADC_Start_DMA(&hadc1, (uint32_t*)ADCResultsDMA, (uint32_t)num_ADC_conversions);
 800295c:	4b41      	ldr	r3, [pc, #260]	@ (8002a64 <Startup+0x18c>)
 800295e:	781b      	ldrb	r3, [r3, #0]
 8002960:	001a      	movs	r2, r3
 8002962:	4941      	ldr	r1, [pc, #260]	@ (8002a68 <Startup+0x190>)
 8002964:	4b41      	ldr	r3, [pc, #260]	@ (8002a6c <Startup+0x194>)
 8002966:	0018      	movs	r0, r3
 8002968:	f001 f900 	bl	8003b6c <HAL_ADC_Start_DMA>

	//WAIT
	while(Get_Status_Bit(&statuses, Initial_ADC_Conversion_Complete) == NO){}; //wait while first ADC conversion is ongoing - raw and final values will be computed within this time
 800296c:	46c0      	nop			@ (mov r8, r8)
 800296e:	4b37      	ldr	r3, [pc, #220]	@ (8002a4c <Startup+0x174>)
 8002970:	2110      	movs	r1, #16
 8002972:	0018      	movs	r0, r3
 8002974:	f000 fcbe 	bl	80032f4 <Get_Status_Bit>
 8002978:	1e03      	subs	r3, r0, #0
 800297a:	d0f8      	beq.n	800296e <Startup+0x96>

	// re-initialise all values in delay line storage array to middle value of wave (if sine/triangle mode) or bottom of wave if square mode, as they are initialised to 0 on startup
	for(uint16_t i = 0; i < FINAL_INDEX + 2; i++){ //513
 800297c:	1dbb      	adds	r3, r7, #6
 800297e:	2200      	movs	r2, #0
 8002980:	801a      	strh	r2, [r3, #0]
 8002982:	e02c      	b.n	80029de <Startup+0x106>

		if(params.waveshape == SQUARE_MODE){
 8002984:	4b3a      	ldr	r3, [pc, #232]	@ (8002a70 <Startup+0x198>)
 8002986:	799b      	ldrb	r3, [r3, #6]
 8002988:	b2db      	uxtb	r3, r3
 800298a:	2b02      	cmp	r3, #2
 800298c:	d111      	bne.n	80029b2 <Startup+0xda>

			delay_line.duty_delay_line_storage_array[i] = PWM_DUTY_VALUE_MAX - ((params.depth * PWM_DUTY_VALUE_MAX) >> DEPTH_ADC_RESOLUTION);
 800298e:	4b38      	ldr	r3, [pc, #224]	@ (8002a70 <Startup+0x198>)
 8002990:	7a9b      	ldrb	r3, [r3, #10]
 8002992:	b2db      	uxtb	r3, r3
 8002994:	001a      	movs	r2, r3
 8002996:	0013      	movs	r3, r2
 8002998:	029b      	lsls	r3, r3, #10
 800299a:	1a9b      	subs	r3, r3, r2
 800299c:	11db      	asrs	r3, r3, #7
 800299e:	b29b      	uxth	r3, r3
 80029a0:	1dba      	adds	r2, r7, #6
 80029a2:	8812      	ldrh	r2, [r2, #0]
 80029a4:	4933      	ldr	r1, [pc, #204]	@ (8002a74 <Startup+0x19c>)
 80029a6:	1acb      	subs	r3, r1, r3
 80029a8:	b299      	uxth	r1, r3
 80029aa:	4b33      	ldr	r3, [pc, #204]	@ (8002a78 <Startup+0x1a0>)
 80029ac:	0052      	lsls	r2, r2, #1
 80029ae:	52d1      	strh	r1, [r2, r3]
 80029b0:	e010      	b.n	80029d4 <Startup+0xfc>
		}
		else{

			delay_line.duty_delay_line_storage_array[i] = PWM_DUTY_VALUE_MAX - (((params.depth * PWM_DUTY_VALUE_MAX) >> DEPTH_ADC_RESOLUTION) >> 1);
 80029b2:	4b2f      	ldr	r3, [pc, #188]	@ (8002a70 <Startup+0x198>)
 80029b4:	7a9b      	ldrb	r3, [r3, #10]
 80029b6:	b2db      	uxtb	r3, r3
 80029b8:	001a      	movs	r2, r3
 80029ba:	0013      	movs	r3, r2
 80029bc:	029b      	lsls	r3, r3, #10
 80029be:	1a9b      	subs	r3, r3, r2
 80029c0:	121b      	asrs	r3, r3, #8
 80029c2:	b29b      	uxth	r3, r3
 80029c4:	1dba      	adds	r2, r7, #6
 80029c6:	8812      	ldrh	r2, [r2, #0]
 80029c8:	492a      	ldr	r1, [pc, #168]	@ (8002a74 <Startup+0x19c>)
 80029ca:	1acb      	subs	r3, r1, r3
 80029cc:	b299      	uxth	r1, r3
 80029ce:	4b2a      	ldr	r3, [pc, #168]	@ (8002a78 <Startup+0x1a0>)
 80029d0:	0052      	lsls	r2, r2, #1
 80029d2:	52d1      	strh	r1, [r2, r3]
	for(uint16_t i = 0; i < FINAL_INDEX + 2; i++){ //513
 80029d4:	1dbb      	adds	r3, r7, #6
 80029d6:	881a      	ldrh	r2, [r3, #0]
 80029d8:	1dbb      	adds	r3, r7, #6
 80029da:	3201      	adds	r2, #1
 80029dc:	801a      	strh	r2, [r3, #0]
 80029de:	1dbb      	adds	r3, r7, #6
 80029e0:	881a      	ldrh	r2, [r3, #0]
 80029e2:	2380      	movs	r3, #128	@ 0x80
 80029e4:	009b      	lsls	r3, r3, #2
 80029e6:	429a      	cmp	r2, r3
 80029e8:	d9cc      	bls.n	8002984 <Startup+0xac>
		}
	}

	//PREPARE OSCILLATORS
	Calculate_Next_Main_Oscillator_Values(&params, (enum Next_Values_Processing_Mode)STARTUP_MODE);
 80029ea:	4b21      	ldr	r3, [pc, #132]	@ (8002a70 <Startup+0x198>)
 80029ec:	2102      	movs	r1, #2
 80029ee:	0018      	movs	r0, r3
 80029f0:	f7ff fe68 	bl	80026c4 <Calculate_Next_Main_Oscillator_Values>
	Write_Next_Main_Oscillator_Values_to_Delay_Line(&params, &delay_line);
 80029f4:	4a20      	ldr	r2, [pc, #128]	@ (8002a78 <Startup+0x1a0>)
 80029f6:	4b1e      	ldr	r3, [pc, #120]	@ (8002a70 <Startup+0x198>)
 80029f8:	0011      	movs	r1, r2
 80029fa:	0018      	movs	r0, r3
 80029fc:	f7ff fef0 	bl	80027e0 <Write_Next_Main_Oscillator_Values_to_Delay_Line>
	Set_Oscillator_Values(&params);
 8002a00:	4b1b      	ldr	r3, [pc, #108]	@ (8002a70 <Startup+0x198>)
 8002a02:	0018      	movs	r0, r3
 8002a04:	f7ff fe46 	bl	8002694 <Set_Oscillator_Values>

	//START FREQ. GEN and PWM GEN TIMERS and ENABLE PWM OUTPUT
	Start_PWM_Gen_Timer_Main_and_Secondary_Oscillators(&htim1, TIM_CHANNEL_2, TIM_CHANNEL_4);
 8002a08:	4b1c      	ldr	r3, [pc, #112]	@ (8002a7c <Startup+0x1a4>)
 8002a0a:	220c      	movs	r2, #12
 8002a0c:	2104      	movs	r1, #4
 8002a0e:	0018      	movs	r0, r3
 8002a10:	f7ff fe00 	bl	8002614 <Start_PWM_Gen_Timer_Main_and_Secondary_Oscillators>
	Start_Freq_Gen_Timer();
 8002a14:	f7ff fe18 	bl	8002648 <Start_Freq_Gen_Timer>

	//START UART RECEIVE
	Start_UART_Receive();
 8002a18:	f7fe f93a 	bl	8000c90 <Start_UART_Receive>

	//START IP CAP
	Start_Input_Capture_Timer();
 8002a1c:	f7ff fd40 	bl	80024a0 <Start_Input_Capture_Timer>

	//ENABLE INTERRUPTS
	Global_Interrupt_Enable();
 8002a20:	f000 fc64 	bl	80032ec <Global_Interrupt_Enable>

	//ENABLE TAP-TEMPO SWITCH CHECKING
	HAL_LPTIM_SetOnce_Start_IT(&hlptim1, LPTIM1_CCR_CHECK, LPTIM1_CCR_CHECK);
 8002a24:	4b16      	ldr	r3, [pc, #88]	@ (8002a80 <Startup+0x1a8>)
 8002a26:	22fa      	movs	r2, #250	@ 0xfa
 8002a28:	21fa      	movs	r1, #250	@ 0xfa
 8002a2a:	0018      	movs	r0, r3
 8002a2c:	f002 f856 	bl	8004adc <HAL_LPTIM_SetOnce_Start_IT>

	//ENABLE EXTI
	HAL_NVIC_EnableIRQ(EXTI4_15_IRQn);
 8002a30:	2007      	movs	r0, #7
 8002a32:	f001 fa7d 	bl	8003f30 <HAL_NVIC_EnableIRQ>

	return 1;
 8002a36:	2301      	movs	r3, #1
}
 8002a38:	0018      	movs	r0, r3
 8002a3a:	46bd      	mov	sp, r7
 8002a3c:	b003      	add	sp, #12
 8002a3e:	bd90      	pop	{r4, r7, pc}
 8002a40:	20000838 	.word	0x20000838
 8002a44:	200008f4 	.word	0x200008f4
 8002a48:	200004d0 	.word	0x200004d0
 8002a4c:	20000c20 	.word	0x20000c20
 8002a50:	20000474 	.word	0x20000474
 8002a54:	0800f820 	.word	0x0800f820
 8002a58:	200004a4 	.word	0x200004a4
 8002a5c:	200004b4 	.word	0x200004b4
 8002a60:	2000047c 	.word	0x2000047c
 8002a64:	08007c69 	.word	0x08007c69
 8002a68:	20000cb4 	.word	0x20000cb4
 8002a6c:	20000b84 	.word	0x20000b84
 8002a70:	20000c90 	.word	0x20000c90
 8002a74:	000003ff 	.word	0x000003ff
 8002a78:	20000020 	.word	0x20000020
 8002a7c:	200006c0 	.word	0x200006c0
 8002a80:	200004e0 	.word	0x200004e0

08002a84 <Advance_Pending_States>:

//FUNCTION DEFINITIONS
uint8_t Advance_Pending_States(void){

	//UPDATE SPEED FSM
	union Speed_FSM_States current_state = speed_fsm.current_state;
 8002a84:	4b09      	ldr	r3, [pc, #36]	@ (8002aac <Advance_Pending_States+0x28>)
 8002a86:	781a      	ldrb	r2, [r3, #0]

	if(speed_fsm.current_state.speed_exclusive_state == TAP_PENDING_MODE){
 8002a88:	7819      	ldrb	r1, [r3, #0]
	union Speed_FSM_States current_state = speed_fsm.current_state;
 8002a8a:	b2d2      	uxtb	r2, r2
	if(speed_fsm.current_state.speed_exclusive_state == TAP_PENDING_MODE){
 8002a8c:	2905      	cmp	r1, #5
 8002a8e:	d00a      	beq.n	8002aa6 <Advance_Pending_States+0x22>

		speed_fsm.current_state.speed_exclusive_state = TAP_MODE;
	}
	else if(speed_fsm.current_state.speed_exclusive_state == CLK_IN_PENDING_MODE){
 8002a90:	7819      	ldrb	r1, [r3, #0]
 8002a92:	2907      	cmp	r1, #7
 8002a94:	d007      	beq.n	8002aa6 <Advance_Pending_States+0x22>
	}

	//DON'T ADD MIDI CLK CODE


	if(!((current_state.speed_exclusive_state == CLK_IN_MODE) || (current_state.speed_exclusive_state == TAP_MODE))){
 8002a96:	2102      	movs	r1, #2
 8002a98:	0010      	movs	r0, r2
 8002a9a:	4388      	bics	r0, r1
 8002a9c:	2804      	cmp	r0, #4
 8002a9e:	d000      	beq.n	8002aa2 <Advance_Pending_States+0x1e>

		speed_fsm.prev_state = current_state;
 8002aa0:	705a      	strb	r2, [r3, #1]
	}

	return 1;
}
 8002aa2:	2001      	movs	r0, #1
 8002aa4:	4770      	bx	lr
		speed_fsm.current_state.speed_exclusive_state = CLK_IN_MODE;
 8002aa6:	3901      	subs	r1, #1
 8002aa8:	7019      	strb	r1, [r3, #0]
 8002aaa:	e7f4      	b.n	8002a96 <Advance_Pending_States+0x12>
 8002aac:	2000043c 	.word	0x2000043c

08002ab0 <HAL_MspInit>:

  /* USER CODE BEGIN MspInit 0 */

  /* USER CODE END MspInit 0 */

  __HAL_RCC_SYSCFG_CLK_ENABLE();
 8002ab0:	2201      	movs	r2, #1
 8002ab2:	4b0a      	ldr	r3, [pc, #40]	@ (8002adc <HAL_MspInit+0x2c>)
{
 8002ab4:	b082      	sub	sp, #8
  __HAL_RCC_SYSCFG_CLK_ENABLE();
 8002ab6:	6c19      	ldr	r1, [r3, #64]	@ 0x40
 8002ab8:	4311      	orrs	r1, r2
 8002aba:	6419      	str	r1, [r3, #64]	@ 0x40
 8002abc:	6c19      	ldr	r1, [r3, #64]	@ 0x40
 8002abe:	400a      	ands	r2, r1
  __HAL_RCC_PWR_CLK_ENABLE();
 8002ac0:	2180      	movs	r1, #128	@ 0x80
  __HAL_RCC_SYSCFG_CLK_ENABLE();
 8002ac2:	9200      	str	r2, [sp, #0]
 8002ac4:	9a00      	ldr	r2, [sp, #0]
  __HAL_RCC_PWR_CLK_ENABLE();
 8002ac6:	6bda      	ldr	r2, [r3, #60]	@ 0x3c
 8002ac8:	0549      	lsls	r1, r1, #21
 8002aca:	430a      	orrs	r2, r1
 8002acc:	63da      	str	r2, [r3, #60]	@ 0x3c
 8002ace:	6bdb      	ldr	r3, [r3, #60]	@ 0x3c
 8002ad0:	400b      	ands	r3, r1
 8002ad2:	9301      	str	r3, [sp, #4]
 8002ad4:	9b01      	ldr	r3, [sp, #4]
  /* System interrupt init*/

  /* USER CODE BEGIN MspInit 1 */

  /* USER CODE END MspInit 1 */
}
 8002ad6:	b002      	add	sp, #8
 8002ad8:	4770      	bx	lr
 8002ada:	46c0      	nop			@ (mov r8, r8)
 8002adc:	40021000 	.word	0x40021000

08002ae0 <HAL_ADC_MspInit>:
* This function configures the hardware resources used in this example
* @param hadc: ADC handle pointer
* @retval None
*/
void HAL_ADC_MspInit(ADC_HandleTypeDef* hadc)
{
 8002ae0:	b530      	push	{r4, r5, lr}
 8002ae2:	0004      	movs	r4, r0
 8002ae4:	b089      	sub	sp, #36	@ 0x24
  GPIO_InitTypeDef GPIO_InitStruct = {0};
 8002ae6:	2214      	movs	r2, #20
 8002ae8:	2100      	movs	r1, #0
 8002aea:	a802      	add	r0, sp, #8
 8002aec:	f005 f86c 	bl	8007bc8 <memset>
  if(hadc->Instance==ADC1)
 8002af0:	4b1f      	ldr	r3, [pc, #124]	@ (8002b70 <HAL_ADC_MspInit+0x90>)
 8002af2:	6822      	ldr	r2, [r4, #0]
 8002af4:	429a      	cmp	r2, r3
 8002af6:	d001      	beq.n	8002afc <HAL_ADC_MspInit+0x1c>

  /* USER CODE END ADC1_MspInit 1 */

  }

}
 8002af8:	b009      	add	sp, #36	@ 0x24
 8002afa:	bd30      	pop	{r4, r5, pc}
    __HAL_RCC_ADC_CLK_ENABLE();
 8002afc:	2180      	movs	r1, #128	@ 0x80
 8002afe:	4b1d      	ldr	r3, [pc, #116]	@ (8002b74 <HAL_ADC_MspInit+0x94>)
 8002b00:	0349      	lsls	r1, r1, #13
 8002b02:	6c1a      	ldr	r2, [r3, #64]	@ 0x40
    HAL_GPIO_Init(GPIOA, &GPIO_InitStruct);
 8002b04:	20a0      	movs	r0, #160	@ 0xa0
    __HAL_RCC_ADC_CLK_ENABLE();
 8002b06:	430a      	orrs	r2, r1
 8002b08:	641a      	str	r2, [r3, #64]	@ 0x40
 8002b0a:	6c1a      	ldr	r2, [r3, #64]	@ 0x40
    HAL_GPIO_Init(GPIOA, &GPIO_InitStruct);
 8002b0c:	05c0      	lsls	r0, r0, #23
    __HAL_RCC_ADC_CLK_ENABLE();
 8002b0e:	400a      	ands	r2, r1
 8002b10:	9200      	str	r2, [sp, #0]
 8002b12:	9a00      	ldr	r2, [sp, #0]
    __HAL_RCC_GPIOA_CLK_ENABLE();
 8002b14:	2201      	movs	r2, #1
 8002b16:	6b59      	ldr	r1, [r3, #52]	@ 0x34
 8002b18:	4311      	orrs	r1, r2
 8002b1a:	6359      	str	r1, [r3, #52]	@ 0x34
 8002b1c:	6b5b      	ldr	r3, [r3, #52]	@ 0x34
    HAL_GPIO_Init(GPIOA, &GPIO_InitStruct);
 8002b1e:	a902      	add	r1, sp, #8
    __HAL_RCC_GPIOA_CLK_ENABLE();
 8002b20:	401a      	ands	r2, r3
 8002b22:	9201      	str	r2, [sp, #4]
 8002b24:	9b01      	ldr	r3, [sp, #4]
    GPIO_InitStruct.Pin = GPIO_PIN_0|GPIO_PIN_1|GPIO_PIN_4|GPIO_PIN_5|GPIO_PIN_6;
 8002b26:	2273      	movs	r2, #115	@ 0x73
 8002b28:	2303      	movs	r3, #3
 8002b2a:	9202      	str	r2, [sp, #8]
 8002b2c:	9303      	str	r3, [sp, #12]
    HAL_GPIO_Init(GPIOA, &GPIO_InitStruct);
 8002b2e:	f001 fbe7 	bl	8004300 <HAL_GPIO_Init>
    hdma_adc1.Instance = DMA1_Channel1;
 8002b32:	4d11      	ldr	r5, [pc, #68]	@ (8002b78 <HAL_ADC_MspInit+0x98>)
 8002b34:	4b11      	ldr	r3, [pc, #68]	@ (8002b7c <HAL_ADC_MspInit+0x9c>)
    hdma_adc1.Init.MemInc = DMA_MINC_ENABLE;
 8002b36:	2280      	movs	r2, #128	@ 0x80
    hdma_adc1.Instance = DMA1_Channel1;
 8002b38:	602b      	str	r3, [r5, #0]
    hdma_adc1.Init.Request = DMA_REQUEST_ADC1;
 8002b3a:	2305      	movs	r3, #5
 8002b3c:	606b      	str	r3, [r5, #4]
    hdma_adc1.Init.Direction = DMA_PERIPH_TO_MEMORY;
 8002b3e:	2300      	movs	r3, #0
    hdma_adc1.Init.MemInc = DMA_MINC_ENABLE;
 8002b40:	612a      	str	r2, [r5, #16]
    hdma_adc1.Init.PeriphDataAlignment = DMA_PDATAALIGN_HALFWORD;
 8002b42:	3280      	adds	r2, #128	@ 0x80
    hdma_adc1.Init.Direction = DMA_PERIPH_TO_MEMORY;
 8002b44:	60ab      	str	r3, [r5, #8]
    hdma_adc1.Init.PeriphInc = DMA_PINC_DISABLE;
 8002b46:	60eb      	str	r3, [r5, #12]
    hdma_adc1.Init.PeriphDataAlignment = DMA_PDATAALIGN_HALFWORD;
 8002b48:	616a      	str	r2, [r5, #20]
    hdma_adc1.Init.Mode = DMA_NORMAL;
 8002b4a:	61eb      	str	r3, [r5, #28]
    hdma_adc1.Init.MemDataAlignment = DMA_MDATAALIGN_HALFWORD;
 8002b4c:	2280      	movs	r2, #128	@ 0x80
    hdma_adc1.Init.Priority = DMA_PRIORITY_HIGH;
 8002b4e:	2380      	movs	r3, #128	@ 0x80
    hdma_adc1.Init.MemDataAlignment = DMA_MDATAALIGN_HALFWORD;
 8002b50:	00d2      	lsls	r2, r2, #3
    hdma_adc1.Init.Priority = DMA_PRIORITY_HIGH;
 8002b52:	019b      	lsls	r3, r3, #6
    if (HAL_DMA_Init(&hdma_adc1) != HAL_OK)
 8002b54:	0028      	movs	r0, r5
    hdma_adc1.Init.MemDataAlignment = DMA_MDATAALIGN_HALFWORD;
 8002b56:	61aa      	str	r2, [r5, #24]
    hdma_adc1.Init.Priority = DMA_PRIORITY_HIGH;
 8002b58:	622b      	str	r3, [r5, #32]
    if (HAL_DMA_Init(&hdma_adc1) != HAL_OK)
 8002b5a:	f001 fa1f 	bl	8003f9c <HAL_DMA_Init>
 8002b5e:	2800      	cmp	r0, #0
 8002b60:	d102      	bne.n	8002b68 <HAL_ADC_MspInit+0x88>
    __HAL_LINKDMA(hadc,DMA_Handle,hdma_adc1);
 8002b62:	6525      	str	r5, [r4, #80]	@ 0x50
 8002b64:	62ac      	str	r4, [r5, #40]	@ 0x28
}
 8002b66:	e7c7      	b.n	8002af8 <HAL_ADC_MspInit+0x18>
      Error_Handler();
 8002b68:	f7fe fca6 	bl	80014b8 <Error_Handler>
 8002b6c:	e7f9      	b.n	8002b62 <HAL_ADC_MspInit+0x82>
 8002b6e:	46c0      	nop			@ (mov r8, r8)
 8002b70:	40012400 	.word	0x40012400
 8002b74:	40021000 	.word	0x40021000
 8002b78:	20000b28 	.word	0x20000b28
 8002b7c:	40020008 	.word	0x40020008

08002b80 <HAL_LPTIM_MspInit>:
* This function configures the hardware resources used in this example
* @param hlptim: LPTIM handle pointer
* @retval None
*/
void HAL_LPTIM_MspInit(LPTIM_HandleTypeDef* hlptim)
{
 8002b80:	b510      	push	{r4, lr}
 8002b82:	0004      	movs	r4, r0
 8002b84:	b094      	sub	sp, #80	@ 0x50
  GPIO_InitTypeDef GPIO_InitStruct = {0};
 8002b86:	2214      	movs	r2, #20
 8002b88:	2100      	movs	r1, #0
 8002b8a:	a804      	add	r0, sp, #16
 8002b8c:	f005 f81c 	bl	8007bc8 <memset>
  RCC_PeriphCLKInitTypeDef PeriphClkInit = {0};
 8002b90:	2228      	movs	r2, #40	@ 0x28
 8002b92:	2100      	movs	r1, #0
 8002b94:	a80a      	add	r0, sp, #40	@ 0x28
 8002b96:	f005 f817 	bl	8007bc8 <memset>
  if(hlptim->Instance==LPTIM1)
 8002b9a:	6823      	ldr	r3, [r4, #0]
 8002b9c:	4a31      	ldr	r2, [pc, #196]	@ (8002c64 <HAL_LPTIM_MspInit+0xe4>)
 8002b9e:	4293      	cmp	r3, r2
 8002ba0:	d004      	beq.n	8002bac <HAL_LPTIM_MspInit+0x2c>

  /* USER CODE BEGIN LPTIM1_MspInit 1 */

  /* USER CODE END LPTIM1_MspInit 1 */
  }
  else if(hlptim->Instance==LPTIM2)
 8002ba2:	4a31      	ldr	r2, [pc, #196]	@ (8002c68 <HAL_LPTIM_MspInit+0xe8>)
 8002ba4:	4293      	cmp	r3, r2
 8002ba6:	d02b      	beq.n	8002c00 <HAL_LPTIM_MspInit+0x80>
  /* USER CODE BEGIN LPTIM2_MspInit 1 */

  /* USER CODE END LPTIM2_MspInit 1 */
  }

}
 8002ba8:	b014      	add	sp, #80	@ 0x50
 8002baa:	bd10      	pop	{r4, pc}
    PeriphClkInit.PeriphClockSelection = RCC_PERIPHCLK_LPTIM1;
 8002bac:	2380      	movs	r3, #128	@ 0x80
    if (HAL_RCCEx_PeriphCLKConfig(&PeriphClkInit) != HAL_OK)
 8002bae:	a80a      	add	r0, sp, #40	@ 0x28
    PeriphClkInit.PeriphClockSelection = RCC_PERIPHCLK_LPTIM1;
 8002bb0:	009b      	lsls	r3, r3, #2
 8002bb2:	930a      	str	r3, [sp, #40]	@ 0x28
    if (HAL_RCCEx_PeriphCLKConfig(&PeriphClkInit) != HAL_OK)
 8002bb4:	f002 fbb8 	bl	8005328 <HAL_RCCEx_PeriphCLKConfig>
 8002bb8:	2800      	cmp	r0, #0
 8002bba:	d14c      	bne.n	8002c56 <HAL_LPTIM_MspInit+0xd6>
    __HAL_RCC_LPTIM1_CLK_ENABLE();
 8002bbc:	2280      	movs	r2, #128	@ 0x80
 8002bbe:	4b2b      	ldr	r3, [pc, #172]	@ (8002c6c <HAL_LPTIM_MspInit+0xec>)
 8002bc0:	0612      	lsls	r2, r2, #24
 8002bc2:	6bd9      	ldr	r1, [r3, #60]	@ 0x3c
    HAL_GPIO_Init(GPIOB, &GPIO_InitStruct);
 8002bc4:	482a      	ldr	r0, [pc, #168]	@ (8002c70 <HAL_LPTIM_MspInit+0xf0>)
    __HAL_RCC_LPTIM1_CLK_ENABLE();
 8002bc6:	430a      	orrs	r2, r1
 8002bc8:	63da      	str	r2, [r3, #60]	@ 0x3c
 8002bca:	6bda      	ldr	r2, [r3, #60]	@ 0x3c
 8002bcc:	0fd2      	lsrs	r2, r2, #31
 8002bce:	07d2      	lsls	r2, r2, #31
 8002bd0:	9200      	str	r2, [sp, #0]
 8002bd2:	9a00      	ldr	r2, [sp, #0]
    __HAL_RCC_GPIOB_CLK_ENABLE();
 8002bd4:	2202      	movs	r2, #2
 8002bd6:	6b59      	ldr	r1, [r3, #52]	@ 0x34
 8002bd8:	4311      	orrs	r1, r2
 8002bda:	6359      	str	r1, [r3, #52]	@ 0x34
 8002bdc:	6b5b      	ldr	r3, [r3, #52]	@ 0x34
    HAL_GPIO_Init(GPIOB, &GPIO_InitStruct);
 8002bde:	a904      	add	r1, sp, #16
    __HAL_RCC_GPIOB_CLK_ENABLE();
 8002be0:	401a      	ands	r2, r3
 8002be2:	9201      	str	r2, [sp, #4]
 8002be4:	9b01      	ldr	r3, [sp, #4]
    GPIO_InitStruct.Pin = GPIO_PIN_0;
 8002be6:	2201      	movs	r2, #1
 8002be8:	2302      	movs	r3, #2
 8002bea:	9204      	str	r2, [sp, #16]
 8002bec:	9305      	str	r3, [sp, #20]
 8002bee:	2200      	movs	r2, #0
 8002bf0:	2300      	movs	r3, #0
 8002bf2:	9206      	str	r2, [sp, #24]
 8002bf4:	9307      	str	r3, [sp, #28]
    GPIO_InitStruct.Alternate = GPIO_AF5_LPTIM1;
 8002bf6:	2305      	movs	r3, #5
 8002bf8:	9308      	str	r3, [sp, #32]
    HAL_GPIO_Init(GPIOB, &GPIO_InitStruct);
 8002bfa:	f001 fb81 	bl	8004300 <HAL_GPIO_Init>
 8002bfe:	e7d3      	b.n	8002ba8 <HAL_LPTIM_MspInit+0x28>
    PeriphClkInit.PeriphClockSelection = RCC_PERIPHCLK_LPTIM2;
 8002c00:	2380      	movs	r3, #128	@ 0x80
    if (HAL_RCCEx_PeriphCLKConfig(&PeriphClkInit) != HAL_OK)
 8002c02:	a80a      	add	r0, sp, #40	@ 0x28
    PeriphClkInit.PeriphClockSelection = RCC_PERIPHCLK_LPTIM2;
 8002c04:	00db      	lsls	r3, r3, #3
 8002c06:	930a      	str	r3, [sp, #40]	@ 0x28
    if (HAL_RCCEx_PeriphCLKConfig(&PeriphClkInit) != HAL_OK)
 8002c08:	f002 fb8e 	bl	8005328 <HAL_RCCEx_PeriphCLKConfig>
 8002c0c:	2800      	cmp	r0, #0
 8002c0e:	d125      	bne.n	8002c5c <HAL_LPTIM_MspInit+0xdc>
    __HAL_RCC_LPTIM2_CLK_ENABLE();
 8002c10:	2180      	movs	r1, #128	@ 0x80
 8002c12:	4b16      	ldr	r3, [pc, #88]	@ (8002c6c <HAL_LPTIM_MspInit+0xec>)
 8002c14:	05c9      	lsls	r1, r1, #23
 8002c16:	6bda      	ldr	r2, [r3, #60]	@ 0x3c
    HAL_GPIO_Init(GPIOA, &GPIO_InitStruct);
 8002c18:	20a0      	movs	r0, #160	@ 0xa0
    __HAL_RCC_LPTIM2_CLK_ENABLE();
 8002c1a:	430a      	orrs	r2, r1
 8002c1c:	63da      	str	r2, [r3, #60]	@ 0x3c
 8002c1e:	6bda      	ldr	r2, [r3, #60]	@ 0x3c
    HAL_GPIO_Init(GPIOA, &GPIO_InitStruct);
 8002c20:	05c0      	lsls	r0, r0, #23
    __HAL_RCC_LPTIM2_CLK_ENABLE();
 8002c22:	400a      	ands	r2, r1
 8002c24:	9202      	str	r2, [sp, #8]
 8002c26:	9a02      	ldr	r2, [sp, #8]
    __HAL_RCC_GPIOA_CLK_ENABLE();
 8002c28:	2201      	movs	r2, #1
 8002c2a:	6b59      	ldr	r1, [r3, #52]	@ 0x34
 8002c2c:	4311      	orrs	r1, r2
 8002c2e:	6359      	str	r1, [r3, #52]	@ 0x34
 8002c30:	6b5b      	ldr	r3, [r3, #52]	@ 0x34
    HAL_GPIO_Init(GPIOA, &GPIO_InitStruct);
 8002c32:	a904      	add	r1, sp, #16
    __HAL_RCC_GPIOA_CLK_ENABLE();
 8002c34:	401a      	ands	r2, r3
 8002c36:	9203      	str	r2, [sp, #12]
    GPIO_InitStruct.Pin = GPIO_PIN_8;
 8002c38:	2280      	movs	r2, #128	@ 0x80
    __HAL_RCC_GPIOA_CLK_ENABLE();
 8002c3a:	9b03      	ldr	r3, [sp, #12]
    GPIO_InitStruct.Pin = GPIO_PIN_8;
 8002c3c:	2302      	movs	r3, #2
 8002c3e:	0052      	lsls	r2, r2, #1
 8002c40:	9204      	str	r2, [sp, #16]
 8002c42:	9305      	str	r3, [sp, #20]
 8002c44:	2200      	movs	r2, #0
 8002c46:	2300      	movs	r3, #0
 8002c48:	9206      	str	r2, [sp, #24]
 8002c4a:	9307      	str	r3, [sp, #28]
    GPIO_InitStruct.Alternate = GPIO_AF5_LPTIM2;
 8002c4c:	2305      	movs	r3, #5
 8002c4e:	9308      	str	r3, [sp, #32]
    HAL_GPIO_Init(GPIOA, &GPIO_InitStruct);
 8002c50:	f001 fb56 	bl	8004300 <HAL_GPIO_Init>
}
 8002c54:	e7a8      	b.n	8002ba8 <HAL_LPTIM_MspInit+0x28>
      Error_Handler();
 8002c56:	f7fe fc2f 	bl	80014b8 <Error_Handler>
 8002c5a:	e7af      	b.n	8002bbc <HAL_LPTIM_MspInit+0x3c>
      Error_Handler();
 8002c5c:	f7fe fc2c 	bl	80014b8 <Error_Handler>
 8002c60:	e7d6      	b.n	8002c10 <HAL_LPTIM_MspInit+0x90>
 8002c62:	46c0      	nop			@ (mov r8, r8)
 8002c64:	40007c00 	.word	0x40007c00
 8002c68:	40009400 	.word	0x40009400
 8002c6c:	40021000 	.word	0x40021000
 8002c70:	50000400 	.word	0x50000400

08002c74 <HAL_TIM_Base_MspInit>:
* @param htim_base: TIM_Base handle pointer
* @retval None
*/

void HAL_TIM_Base_MspInit(TIM_HandleTypeDef* htim_base)
{
 8002c74:	b510      	push	{r4, lr}
 8002c76:	0004      	movs	r4, r0
 8002c78:	b098      	sub	sp, #96	@ 0x60
  GPIO_InitTypeDef GPIO_InitStruct = {0};
 8002c7a:	2214      	movs	r2, #20
 8002c7c:	2100      	movs	r1, #0
 8002c7e:	a808      	add	r0, sp, #32
 8002c80:	f004 ffa2 	bl	8007bc8 <memset>
  RCC_PeriphCLKInitTypeDef PeriphClkInit = {0};
 8002c84:	2228      	movs	r2, #40	@ 0x28
 8002c86:	2100      	movs	r1, #0
 8002c88:	a80e      	add	r0, sp, #56	@ 0x38
 8002c8a:	f004 ff9d 	bl	8007bc8 <memset>
  if(htim_base->Instance==TIM1)
 8002c8e:	6823      	ldr	r3, [r4, #0]
 8002c90:	4a4e      	ldr	r2, [pc, #312]	@ (8002dcc <HAL_TIM_Base_MspInit+0x158>)
 8002c92:	4293      	cmp	r3, r2
 8002c94:	d025      	beq.n	8002ce2 <HAL_TIM_Base_MspInit+0x6e>
    __HAL_RCC_TIM1_CLK_ENABLE();
  /* USER CODE BEGIN TIM1_MspInit 1 */

  /* USER CODE END TIM1_MspInit 1 */
  }
  else if(htim_base->Instance==TIM2)
 8002c96:	2280      	movs	r2, #128	@ 0x80
 8002c98:	05d2      	lsls	r2, r2, #23
 8002c9a:	4293      	cmp	r3, r2
 8002c9c:	d034      	beq.n	8002d08 <HAL_TIM_Base_MspInit+0x94>
    HAL_NVIC_EnableIRQ(TIM2_IRQn);
    /* USER CODE BEGIN TIM2_MspInit 1 */

    /* USER CODE END TIM2_MspInit 1 */
    }
  else if(htim_base->Instance==TIM3)
 8002c9e:	4a4c      	ldr	r2, [pc, #304]	@ (8002dd0 <HAL_TIM_Base_MspInit+0x15c>)
 8002ca0:	4293      	cmp	r3, r2
 8002ca2:	d057      	beq.n	8002d54 <HAL_TIM_Base_MspInit+0xe0>
    HAL_NVIC_EnableIRQ(TIM3_IRQn);
  /* USER CODE BEGIN TIM3_MspInit 1 */

  /* USER CODE END TIM3_MspInit 1 */
  }
  else if(htim_base->Instance==TIM16)
 8002ca4:	4a4b      	ldr	r2, [pc, #300]	@ (8002dd4 <HAL_TIM_Base_MspInit+0x160>)
 8002ca6:	4293      	cmp	r3, r2
 8002ca8:	d008      	beq.n	8002cbc <HAL_TIM_Base_MspInit+0x48>
    HAL_NVIC_EnableIRQ(TIM16_IRQn);
  /* USER CODE BEGIN TIM16_MspInit 1 */

  /* USER CODE END TIM16_MspInit 1 */
  }
  else if(htim_base->Instance==TIM17)
 8002caa:	4a4b      	ldr	r2, [pc, #300]	@ (8002dd8 <HAL_TIM_Base_MspInit+0x164>)
 8002cac:	4293      	cmp	r3, r2
 8002cae:	d063      	beq.n	8002d78 <HAL_TIM_Base_MspInit+0x104>
    HAL_NVIC_EnableIRQ(TIM17_IRQn);
  /* USER CODE BEGIN TIM17_MspInit 1 */

  /* USER CODE END TIM17_MspInit 1 */
  }
  else if(htim_base->Instance==TIM14)
 8002cb0:	4a4a      	ldr	r2, [pc, #296]	@ (8002ddc <HAL_TIM_Base_MspInit+0x168>)
 8002cb2:	4293      	cmp	r3, r2
 8002cb4:	d100      	bne.n	8002cb8 <HAL_TIM_Base_MspInit+0x44>
 8002cb6:	e072      	b.n	8002d9e <HAL_TIM_Base_MspInit+0x12a>
    /* USER CODE BEGIN TIM14_MspInit 1 */

    /* USER CODE END TIM14_MspInit 1 */
    }

}
 8002cb8:	b018      	add	sp, #96	@ 0x60
 8002cba:	bd10      	pop	{r4, pc}
    __HAL_RCC_TIM16_CLK_ENABLE();
 8002cbc:	2180      	movs	r1, #128	@ 0x80
 8002cbe:	4b48      	ldr	r3, [pc, #288]	@ (8002de0 <HAL_TIM_Base_MspInit+0x16c>)
 8002cc0:	0289      	lsls	r1, r1, #10
 8002cc2:	6c1a      	ldr	r2, [r3, #64]	@ 0x40
    HAL_NVIC_SetPriority(TIM16_IRQn, 0, 0);
 8002cc4:	2015      	movs	r0, #21
    __HAL_RCC_TIM16_CLK_ENABLE();
 8002cc6:	430a      	orrs	r2, r1
 8002cc8:	641a      	str	r2, [r3, #64]	@ 0x40
 8002cca:	6c1b      	ldr	r3, [r3, #64]	@ 0x40
    HAL_NVIC_SetPriority(TIM16_IRQn, 0, 0);
 8002ccc:	2200      	movs	r2, #0
    __HAL_RCC_TIM16_CLK_ENABLE();
 8002cce:	400b      	ands	r3, r1
 8002cd0:	9305      	str	r3, [sp, #20]
    HAL_NVIC_SetPriority(TIM16_IRQn, 0, 0);
 8002cd2:	2100      	movs	r1, #0
    __HAL_RCC_TIM16_CLK_ENABLE();
 8002cd4:	9b05      	ldr	r3, [sp, #20]
    HAL_NVIC_SetPriority(TIM16_IRQn, 0, 0);
 8002cd6:	f001 f901 	bl	8003edc <HAL_NVIC_SetPriority>
    HAL_NVIC_EnableIRQ(TIM16_IRQn);
 8002cda:	2015      	movs	r0, #21
 8002cdc:	f001 f928 	bl	8003f30 <HAL_NVIC_EnableIRQ>
 8002ce0:	e7ea      	b.n	8002cb8 <HAL_TIM_Base_MspInit+0x44>
    PeriphClkInit.PeriphClockSelection = RCC_PERIPHCLK_TIM1;
 8002ce2:	2380      	movs	r3, #128	@ 0x80
    if (HAL_RCCEx_PeriphCLKConfig(&PeriphClkInit) != HAL_OK)
 8002ce4:	a80e      	add	r0, sp, #56	@ 0x38
    PeriphClkInit.PeriphClockSelection = RCC_PERIPHCLK_TIM1;
 8002ce6:	039b      	lsls	r3, r3, #14
 8002ce8:	930e      	str	r3, [sp, #56]	@ 0x38
    if (HAL_RCCEx_PeriphCLKConfig(&PeriphClkInit) != HAL_OK)
 8002cea:	f002 fb1d 	bl	8005328 <HAL_RCCEx_PeriphCLKConfig>
 8002cee:	2800      	cmp	r0, #0
 8002cf0:	d168      	bne.n	8002dc4 <HAL_TIM_Base_MspInit+0x150>
    __HAL_RCC_TIM1_CLK_ENABLE();
 8002cf2:	2180      	movs	r1, #128	@ 0x80
 8002cf4:	4b3a      	ldr	r3, [pc, #232]	@ (8002de0 <HAL_TIM_Base_MspInit+0x16c>)
 8002cf6:	0109      	lsls	r1, r1, #4
 8002cf8:	6c1a      	ldr	r2, [r3, #64]	@ 0x40
 8002cfa:	430a      	orrs	r2, r1
 8002cfc:	641a      	str	r2, [r3, #64]	@ 0x40
 8002cfe:	6c1b      	ldr	r3, [r3, #64]	@ 0x40
 8002d00:	400b      	ands	r3, r1
 8002d02:	9301      	str	r3, [sp, #4]
 8002d04:	9b01      	ldr	r3, [sp, #4]
 8002d06:	e7d7      	b.n	8002cb8 <HAL_TIM_Base_MspInit+0x44>
    __HAL_RCC_TIM2_CLK_ENABLE();
 8002d08:	2201      	movs	r2, #1
 8002d0a:	4b35      	ldr	r3, [pc, #212]	@ (8002de0 <HAL_TIM_Base_MspInit+0x16c>)
    GPIO_InitStruct.Pin = IP_CAP_Pin;
 8002d0c:	2080      	movs	r0, #128	@ 0x80
    __HAL_RCC_TIM2_CLK_ENABLE();
 8002d0e:	6bd9      	ldr	r1, [r3, #60]	@ 0x3c
    GPIO_InitStruct.Pin = IP_CAP_Pin;
 8002d10:	0200      	lsls	r0, r0, #8
    __HAL_RCC_TIM2_CLK_ENABLE();
 8002d12:	4311      	orrs	r1, r2
 8002d14:	63d9      	str	r1, [r3, #60]	@ 0x3c
 8002d16:	6bd9      	ldr	r1, [r3, #60]	@ 0x3c
 8002d18:	4011      	ands	r1, r2
 8002d1a:	9102      	str	r1, [sp, #8]
 8002d1c:	9902      	ldr	r1, [sp, #8]
    __HAL_RCC_GPIOA_CLK_ENABLE();
 8002d1e:	6b59      	ldr	r1, [r3, #52]	@ 0x34
 8002d20:	4311      	orrs	r1, r2
 8002d22:	6359      	str	r1, [r3, #52]	@ 0x34
    GPIO_InitStruct.Pin = IP_CAP_Pin;
 8002d24:	2102      	movs	r1, #2
    __HAL_RCC_GPIOA_CLK_ENABLE();
 8002d26:	6b5b      	ldr	r3, [r3, #52]	@ 0x34
    GPIO_InitStruct.Pin = IP_CAP_Pin;
 8002d28:	9008      	str	r0, [sp, #32]
 8002d2a:	9109      	str	r1, [sp, #36]	@ 0x24
    __HAL_RCC_GPIOA_CLK_ENABLE();
 8002d2c:	4013      	ands	r3, r2
 8002d2e:	9303      	str	r3, [sp, #12]
    HAL_GPIO_Init(IP_CAP_GPIO_Port, &GPIO_InitStruct);
 8002d30:	20a0      	movs	r0, #160	@ 0xa0
    __HAL_RCC_GPIOA_CLK_ENABLE();
 8002d32:	9b03      	ldr	r3, [sp, #12]
    GPIO_InitStruct.Alternate = GPIO_AF2_TIM2;
 8002d34:	2302      	movs	r3, #2
    HAL_GPIO_Init(IP_CAP_GPIO_Port, &GPIO_InitStruct);
 8002d36:	a908      	add	r1, sp, #32
 8002d38:	05c0      	lsls	r0, r0, #23
    GPIO_InitStruct.Pull = GPIO_PULLUP; //even though we do not 'technically' need a pullup as a push-pull O/P will be driving the I/P cap pin, I think it is better to ensure the I/P cap input properly idles
 8002d3a:	920a      	str	r2, [sp, #40]	@ 0x28
    GPIO_InitStruct.Alternate = GPIO_AF2_TIM2;
 8002d3c:	930c      	str	r3, [sp, #48]	@ 0x30
    HAL_GPIO_Init(IP_CAP_GPIO_Port, &GPIO_InitStruct);
 8002d3e:	f001 fadf 	bl	8004300 <HAL_GPIO_Init>
    HAL_NVIC_SetPriority(TIM2_IRQn, 2, 2);
 8002d42:	2202      	movs	r2, #2
 8002d44:	2102      	movs	r1, #2
 8002d46:	200f      	movs	r0, #15
 8002d48:	f001 f8c8 	bl	8003edc <HAL_NVIC_SetPriority>
    HAL_NVIC_EnableIRQ(TIM2_IRQn);
 8002d4c:	200f      	movs	r0, #15
 8002d4e:	f001 f8ef 	bl	8003f30 <HAL_NVIC_EnableIRQ>
 8002d52:	e7b1      	b.n	8002cb8 <HAL_TIM_Base_MspInit+0x44>
    __HAL_RCC_TIM3_CLK_ENABLE();
 8002d54:	2302      	movs	r3, #2
 8002d56:	4a22      	ldr	r2, [pc, #136]	@ (8002de0 <HAL_TIM_Base_MspInit+0x16c>)
    HAL_NVIC_SetPriority(TIM3_IRQn, 0, 0);
 8002d58:	2010      	movs	r0, #16
    __HAL_RCC_TIM3_CLK_ENABLE();
 8002d5a:	6bd1      	ldr	r1, [r2, #60]	@ 0x3c
 8002d5c:	4319      	orrs	r1, r3
 8002d5e:	63d1      	str	r1, [r2, #60]	@ 0x3c
 8002d60:	6bd2      	ldr	r2, [r2, #60]	@ 0x3c
    HAL_NVIC_SetPriority(TIM3_IRQn, 0, 0);
 8002d62:	2100      	movs	r1, #0
    __HAL_RCC_TIM3_CLK_ENABLE();
 8002d64:	4013      	ands	r3, r2
 8002d66:	9304      	str	r3, [sp, #16]
    HAL_NVIC_SetPriority(TIM3_IRQn, 0, 0);
 8002d68:	2200      	movs	r2, #0
    __HAL_RCC_TIM3_CLK_ENABLE();
 8002d6a:	9b04      	ldr	r3, [sp, #16]
    HAL_NVIC_SetPriority(TIM3_IRQn, 0, 0);
 8002d6c:	f001 f8b6 	bl	8003edc <HAL_NVIC_SetPriority>
    HAL_NVIC_EnableIRQ(TIM3_IRQn);
 8002d70:	2010      	movs	r0, #16
 8002d72:	f001 f8dd 	bl	8003f30 <HAL_NVIC_EnableIRQ>
 8002d76:	e79f      	b.n	8002cb8 <HAL_TIM_Base_MspInit+0x44>
    __HAL_RCC_TIM17_CLK_ENABLE();
 8002d78:	2180      	movs	r1, #128	@ 0x80
 8002d7a:	4b19      	ldr	r3, [pc, #100]	@ (8002de0 <HAL_TIM_Base_MspInit+0x16c>)
 8002d7c:	02c9      	lsls	r1, r1, #11
 8002d7e:	6c1a      	ldr	r2, [r3, #64]	@ 0x40
    HAL_NVIC_SetPriority(TIM17_IRQn, 3, 3);
 8002d80:	2016      	movs	r0, #22
    __HAL_RCC_TIM17_CLK_ENABLE();
 8002d82:	430a      	orrs	r2, r1
 8002d84:	641a      	str	r2, [r3, #64]	@ 0x40
 8002d86:	6c1b      	ldr	r3, [r3, #64]	@ 0x40
    HAL_NVIC_SetPriority(TIM17_IRQn, 3, 3);
 8002d88:	2203      	movs	r2, #3
    __HAL_RCC_TIM17_CLK_ENABLE();
 8002d8a:	400b      	ands	r3, r1
 8002d8c:	9306      	str	r3, [sp, #24]
    HAL_NVIC_SetPriority(TIM17_IRQn, 3, 3);
 8002d8e:	2103      	movs	r1, #3
    __HAL_RCC_TIM17_CLK_ENABLE();
 8002d90:	9b06      	ldr	r3, [sp, #24]
    HAL_NVIC_SetPriority(TIM17_IRQn, 3, 3);
 8002d92:	f001 f8a3 	bl	8003edc <HAL_NVIC_SetPriority>
    HAL_NVIC_EnableIRQ(TIM17_IRQn);
 8002d96:	2016      	movs	r0, #22
 8002d98:	f001 f8ca 	bl	8003f30 <HAL_NVIC_EnableIRQ>
 8002d9c:	e78c      	b.n	8002cb8 <HAL_TIM_Base_MspInit+0x44>
      __HAL_RCC_TIM14_CLK_ENABLE();
 8002d9e:	2180      	movs	r1, #128	@ 0x80
 8002da0:	4b0f      	ldr	r3, [pc, #60]	@ (8002de0 <HAL_TIM_Base_MspInit+0x16c>)
 8002da2:	0209      	lsls	r1, r1, #8
 8002da4:	6c1a      	ldr	r2, [r3, #64]	@ 0x40
      HAL_NVIC_SetPriority(TIM14_IRQn, 3, 3);
 8002da6:	2013      	movs	r0, #19
      __HAL_RCC_TIM14_CLK_ENABLE();
 8002da8:	430a      	orrs	r2, r1
 8002daa:	641a      	str	r2, [r3, #64]	@ 0x40
 8002dac:	6c1b      	ldr	r3, [r3, #64]	@ 0x40
      HAL_NVIC_SetPriority(TIM14_IRQn, 3, 3);
 8002dae:	2203      	movs	r2, #3
      __HAL_RCC_TIM14_CLK_ENABLE();
 8002db0:	400b      	ands	r3, r1
 8002db2:	9307      	str	r3, [sp, #28]
      HAL_NVIC_SetPriority(TIM14_IRQn, 3, 3);
 8002db4:	2103      	movs	r1, #3
      __HAL_RCC_TIM14_CLK_ENABLE();
 8002db6:	9b07      	ldr	r3, [sp, #28]
      HAL_NVIC_SetPriority(TIM14_IRQn, 3, 3);
 8002db8:	f001 f890 	bl	8003edc <HAL_NVIC_SetPriority>
      HAL_NVIC_EnableIRQ(TIM14_IRQn);
 8002dbc:	2013      	movs	r0, #19
 8002dbe:	f001 f8b7 	bl	8003f30 <HAL_NVIC_EnableIRQ>
}
 8002dc2:	e779      	b.n	8002cb8 <HAL_TIM_Base_MspInit+0x44>
      Error_Handler();
 8002dc4:	f7fe fb78 	bl	80014b8 <Error_Handler>
 8002dc8:	e793      	b.n	8002cf2 <HAL_TIM_Base_MspInit+0x7e>
 8002dca:	46c0      	nop			@ (mov r8, r8)
 8002dcc:	40012c00 	.word	0x40012c00
 8002dd0:	40000400 	.word	0x40000400
 8002dd4:	40014400 	.word	0x40014400
 8002dd8:	40014800 	.word	0x40014800
 8002ddc:	40002000 	.word	0x40002000
 8002de0:	40021000 	.word	0x40021000

08002de4 <HAL_TIM_MspPostInit>:

void HAL_TIM_MspPostInit(TIM_HandleTypeDef* htim)
{
 8002de4:	b530      	push	{r4, r5, lr}
 8002de6:	0004      	movs	r4, r0
 8002de8:	b089      	sub	sp, #36	@ 0x24
  GPIO_InitTypeDef GPIO_InitStruct = {0};
 8002dea:	2214      	movs	r2, #20
 8002dec:	2100      	movs	r1, #0
 8002dee:	a802      	add	r0, sp, #8
 8002df0:	f004 feea 	bl	8007bc8 <memset>
  if(htim->Instance==TIM1)
 8002df4:	4b16      	ldr	r3, [pc, #88]	@ (8002e50 <HAL_TIM_MspPostInit+0x6c>)
 8002df6:	6822      	ldr	r2, [r4, #0]
 8002df8:	429a      	cmp	r2, r3
 8002dfa:	d001      	beq.n	8002e00 <HAL_TIM_MspPostInit+0x1c>
  /* USER CODE BEGIN TIM1_MspPostInit 1 */

  /* USER CODE END TIM1_MspPostInit 1 */
  }

}
 8002dfc:	b009      	add	sp, #36	@ 0x24
 8002dfe:	bd30      	pop	{r4, r5, pc}
    __HAL_RCC_GPIOA_CLK_ENABLE();
 8002e00:	2501      	movs	r5, #1
    __HAL_RCC_GPIOB_CLK_ENABLE();
 8002e02:	2402      	movs	r4, #2
    __HAL_RCC_GPIOA_CLK_ENABLE();
 8002e04:	4b13      	ldr	r3, [pc, #76]	@ (8002e54 <HAL_TIM_MspPostInit+0x70>)
    HAL_GPIO_Init(SECONDARY_OSCILLATOR_GPIO_Port, &GPIO_InitStruct);
 8002e06:	20a0      	movs	r0, #160	@ 0xa0
    __HAL_RCC_GPIOA_CLK_ENABLE();
 8002e08:	6b5a      	ldr	r2, [r3, #52]	@ 0x34
    HAL_GPIO_Init(SECONDARY_OSCILLATOR_GPIO_Port, &GPIO_InitStruct);
 8002e0a:	a902      	add	r1, sp, #8
    __HAL_RCC_GPIOA_CLK_ENABLE();
 8002e0c:	432a      	orrs	r2, r5
 8002e0e:	635a      	str	r2, [r3, #52]	@ 0x34
 8002e10:	6b5a      	ldr	r2, [r3, #52]	@ 0x34
    HAL_GPIO_Init(SECONDARY_OSCILLATOR_GPIO_Port, &GPIO_InitStruct);
 8002e12:	05c0      	lsls	r0, r0, #23
    __HAL_RCC_GPIOA_CLK_ENABLE();
 8002e14:	402a      	ands	r2, r5
 8002e16:	9200      	str	r2, [sp, #0]
 8002e18:	9a00      	ldr	r2, [sp, #0]
    __HAL_RCC_GPIOB_CLK_ENABLE();
 8002e1a:	6b5a      	ldr	r2, [r3, #52]	@ 0x34
 8002e1c:	4322      	orrs	r2, r4
 8002e1e:	635a      	str	r2, [r3, #52]	@ 0x34
 8002e20:	6b5b      	ldr	r3, [r3, #52]	@ 0x34
    GPIO_InitStruct.Pin = SECONDARY_OSCILLATOR_Pin;
 8002e22:	2280      	movs	r2, #128	@ 0x80
    __HAL_RCC_GPIOB_CLK_ENABLE();
 8002e24:	4023      	ands	r3, r4
 8002e26:	9301      	str	r3, [sp, #4]
 8002e28:	9b01      	ldr	r3, [sp, #4]
    GPIO_InitStruct.Pin = SECONDARY_OSCILLATOR_Pin;
 8002e2a:	2302      	movs	r3, #2
 8002e2c:	0112      	lsls	r2, r2, #4
 8002e2e:	9202      	str	r2, [sp, #8]
 8002e30:	9303      	str	r3, [sp, #12]
    GPIO_InitStruct.Alternate = GPIO_AF2_TIM1;
 8002e32:	9406      	str	r4, [sp, #24]
    HAL_GPIO_Init(SECONDARY_OSCILLATOR_GPIO_Port, &GPIO_InitStruct);
 8002e34:	f001 fa64 	bl	8004300 <HAL_GPIO_Init>
    GPIO_InitStruct.Pin = MAIN_OSCILLATOR_Pin;
 8002e38:	2308      	movs	r3, #8
 8002e3a:	9302      	str	r3, [sp, #8]
    GPIO_InitStruct.Pull = GPIO_NOPULL;
 8002e3c:	2300      	movs	r3, #0
    HAL_GPIO_Init(MAIN_OSCILLATOR_GPIO_Port, &GPIO_InitStruct);
 8002e3e:	4806      	ldr	r0, [pc, #24]	@ (8002e58 <HAL_TIM_MspPostInit+0x74>)
 8002e40:	a902      	add	r1, sp, #8
    GPIO_InitStruct.Mode = GPIO_MODE_AF_PP;
 8002e42:	9403      	str	r4, [sp, #12]
    GPIO_InitStruct.Pull = GPIO_NOPULL;
 8002e44:	9304      	str	r3, [sp, #16]
    GPIO_InitStruct.Speed = GPIO_SPEED_FREQ_LOW;
 8002e46:	9305      	str	r3, [sp, #20]
    GPIO_InitStruct.Alternate = GPIO_AF1_TIM1;
 8002e48:	9506      	str	r5, [sp, #24]
    HAL_GPIO_Init(MAIN_OSCILLATOR_GPIO_Port, &GPIO_InitStruct);
 8002e4a:	f001 fa59 	bl	8004300 <HAL_GPIO_Init>
}
 8002e4e:	e7d5      	b.n	8002dfc <HAL_TIM_MspPostInit+0x18>
 8002e50:	40012c00 	.word	0x40012c00
 8002e54:	40021000 	.word	0x40021000
 8002e58:	50000400 	.word	0x50000400

08002e5c <HAL_UART_MspInit>:
* This function configures the hardware resources used in this example
* @param huart: UART handle pointer
* @retval None
*/
void HAL_UART_MspInit(UART_HandleTypeDef* huart)
{
 8002e5c:	b530      	push	{r4, r5, lr}
 8002e5e:	0004      	movs	r4, r0
 8002e60:	b089      	sub	sp, #36	@ 0x24
  GPIO_InitTypeDef GPIO_InitStruct = {0};
 8002e62:	2214      	movs	r2, #20
 8002e64:	2100      	movs	r1, #0
 8002e66:	a802      	add	r0, sp, #8
 8002e68:	f004 feae 	bl	8007bc8 <memset>
  if(huart->Instance==USART2)
 8002e6c:	4b30      	ldr	r3, [pc, #192]	@ (8002f30 <HAL_UART_MspInit+0xd4>)
 8002e6e:	6822      	ldr	r2, [r4, #0]
 8002e70:	429a      	cmp	r2, r3
 8002e72:	d001      	beq.n	8002e78 <HAL_UART_MspInit+0x1c>

  /* USER CODE END USART2_MspInit 1 */

  }

}
 8002e74:	b009      	add	sp, #36	@ 0x24
 8002e76:	bd30      	pop	{r4, r5, pc}
    __HAL_RCC_USART2_CLK_ENABLE();
 8002e78:	2180      	movs	r1, #128	@ 0x80
 8002e7a:	4b2e      	ldr	r3, [pc, #184]	@ (8002f34 <HAL_UART_MspInit+0xd8>)
 8002e7c:	0289      	lsls	r1, r1, #10
 8002e7e:	6bda      	ldr	r2, [r3, #60]	@ 0x3c
    GPIO_InitStruct.Pin = T_VCP_TX_Pin|T_VCP_RX_Pin;
 8002e80:	200c      	movs	r0, #12
    __HAL_RCC_USART2_CLK_ENABLE();
 8002e82:	430a      	orrs	r2, r1
 8002e84:	63da      	str	r2, [r3, #60]	@ 0x3c
 8002e86:	6bda      	ldr	r2, [r3, #60]	@ 0x3c
 8002e88:	400a      	ands	r2, r1
 8002e8a:	9200      	str	r2, [sp, #0]
 8002e8c:	9a00      	ldr	r2, [sp, #0]
    __HAL_RCC_GPIOA_CLK_ENABLE();
 8002e8e:	2201      	movs	r2, #1
 8002e90:	6b59      	ldr	r1, [r3, #52]	@ 0x34
 8002e92:	4311      	orrs	r1, r2
 8002e94:	6359      	str	r1, [r3, #52]	@ 0x34
    GPIO_InitStruct.Pin = T_VCP_TX_Pin|T_VCP_RX_Pin;
 8002e96:	2102      	movs	r1, #2
    __HAL_RCC_GPIOA_CLK_ENABLE();
 8002e98:	6b5b      	ldr	r3, [r3, #52]	@ 0x34
    GPIO_InitStruct.Pin = T_VCP_TX_Pin|T_VCP_RX_Pin;
 8002e9a:	9002      	str	r0, [sp, #8]
 8002e9c:	9103      	str	r1, [sp, #12]
    HAL_GPIO_Init(GPIOA, &GPIO_InitStruct);
 8002e9e:	20a0      	movs	r0, #160	@ 0xa0
    __HAL_RCC_GPIOA_CLK_ENABLE();
 8002ea0:	4013      	ands	r3, r2
 8002ea2:	9301      	str	r3, [sp, #4]
    HAL_GPIO_Init(GPIOA, &GPIO_InitStruct);
 8002ea4:	05c0      	lsls	r0, r0, #23
 8002ea6:	a902      	add	r1, sp, #8
    __HAL_RCC_GPIOA_CLK_ENABLE();
 8002ea8:	9b01      	ldr	r3, [sp, #4]
    GPIO_InitStruct.Pull = GPIO_PULLUP;
 8002eaa:	9204      	str	r2, [sp, #16]
    GPIO_InitStruct.Alternate = GPIO_AF1_USART2;
 8002eac:	9206      	str	r2, [sp, #24]
    HAL_GPIO_Init(GPIOA, &GPIO_InitStruct);
 8002eae:	f001 fa27 	bl	8004300 <HAL_GPIO_Init>
    hdma_usart2_rx.Instance = DMA1_Channel2;
 8002eb2:	4d21      	ldr	r5, [pc, #132]	@ (8002f38 <HAL_UART_MspInit+0xdc>)
 8002eb4:	4b21      	ldr	r3, [pc, #132]	@ (8002f3c <HAL_UART_MspInit+0xe0>)
    hdma_usart2_rx.Init.MemInc = DMA_MINC_ENABLE;
 8002eb6:	2280      	movs	r2, #128	@ 0x80
    hdma_usart2_rx.Instance = DMA1_Channel2;
 8002eb8:	602b      	str	r3, [r5, #0]
    hdma_usart2_rx.Init.Request = DMA_REQUEST_USART2_RX;
 8002eba:	2334      	movs	r3, #52	@ 0x34
 8002ebc:	606b      	str	r3, [r5, #4]
    hdma_usart2_rx.Init.Direction = DMA_PERIPH_TO_MEMORY;
 8002ebe:	2300      	movs	r3, #0
 8002ec0:	60ab      	str	r3, [r5, #8]
    hdma_usart2_rx.Init.PeriphInc = DMA_PINC_DISABLE;
 8002ec2:	60eb      	str	r3, [r5, #12]
    hdma_usart2_rx.Init.PeriphDataAlignment = DMA_PDATAALIGN_BYTE;
 8002ec4:	616b      	str	r3, [r5, #20]
    hdma_usart2_rx.Init.MemDataAlignment = DMA_MDATAALIGN_BYTE;
 8002ec6:	61ab      	str	r3, [r5, #24]
    hdma_usart2_rx.Init.Mode = DMA_NORMAL;
 8002ec8:	61eb      	str	r3, [r5, #28]
    hdma_usart2_rx.Init.Priority = DMA_PRIORITY_MEDIUM;
 8002eca:	2380      	movs	r3, #128	@ 0x80
    if (HAL_DMA_Init(&hdma_usart2_rx) != HAL_OK)
 8002ecc:	0028      	movs	r0, r5
    hdma_usart2_rx.Init.Priority = DMA_PRIORITY_MEDIUM;
 8002ece:	015b      	lsls	r3, r3, #5
    hdma_usart2_rx.Init.MemInc = DMA_MINC_ENABLE;
 8002ed0:	612a      	str	r2, [r5, #16]
    hdma_usart2_rx.Init.Priority = DMA_PRIORITY_MEDIUM;
 8002ed2:	622b      	str	r3, [r5, #32]
    if (HAL_DMA_Init(&hdma_usart2_rx) != HAL_OK)
 8002ed4:	f001 f862 	bl	8003f9c <HAL_DMA_Init>
 8002ed8:	2800      	cmp	r0, #0
 8002eda:	d122      	bne.n	8002f22 <HAL_UART_MspInit+0xc6>
    __HAL_LINKDMA(huart,hdmarx,hdma_usart2_rx);
 8002edc:	2280      	movs	r2, #128	@ 0x80
    hdma_usart2_tx.Instance = DMA1_Channel3;
 8002ede:	4b18      	ldr	r3, [pc, #96]	@ (8002f40 <HAL_UART_MspInit+0xe4>)
    __HAL_LINKDMA(huart,hdmarx,hdma_usart2_rx);
 8002ee0:	50a5      	str	r5, [r4, r2]
 8002ee2:	62ac      	str	r4, [r5, #40]	@ 0x28
    hdma_usart2_tx.Instance = DMA1_Channel3;
 8002ee4:	4d17      	ldr	r5, [pc, #92]	@ (8002f44 <HAL_UART_MspInit+0xe8>)
 8002ee6:	602b      	str	r3, [r5, #0]
    hdma_usart2_tx.Init.Request = DMA_REQUEST_USART2_TX;
 8002ee8:	2335      	movs	r3, #53	@ 0x35
 8002eea:	606b      	str	r3, [r5, #4]
    hdma_usart2_tx.Init.Direction = DMA_MEMORY_TO_PERIPH;
 8002eec:	3b25      	subs	r3, #37	@ 0x25
 8002eee:	60ab      	str	r3, [r5, #8]
    hdma_usart2_tx.Init.PeriphInc = DMA_PINC_DISABLE;
 8002ef0:	2300      	movs	r3, #0
 8002ef2:	60eb      	str	r3, [r5, #12]
    hdma_usart2_tx.Init.PeriphDataAlignment = DMA_PDATAALIGN_BYTE;
 8002ef4:	616b      	str	r3, [r5, #20]
    hdma_usart2_tx.Init.MemDataAlignment = DMA_MDATAALIGN_BYTE;
 8002ef6:	61ab      	str	r3, [r5, #24]
    hdma_usart2_tx.Init.Mode = DMA_NORMAL;
 8002ef8:	61eb      	str	r3, [r5, #28]
    hdma_usart2_tx.Init.Priority = DMA_PRIORITY_MEDIUM;
 8002efa:	2380      	movs	r3, #128	@ 0x80
    if (HAL_DMA_Init(&hdma_usart2_tx) != HAL_OK)
 8002efc:	0028      	movs	r0, r5
    hdma_usart2_tx.Init.Priority = DMA_PRIORITY_MEDIUM;
 8002efe:	015b      	lsls	r3, r3, #5
    hdma_usart2_tx.Init.MemInc = DMA_MINC_ENABLE;
 8002f00:	612a      	str	r2, [r5, #16]
    hdma_usart2_tx.Init.Priority = DMA_PRIORITY_MEDIUM;
 8002f02:	622b      	str	r3, [r5, #32]
    if (HAL_DMA_Init(&hdma_usart2_tx) != HAL_OK)
 8002f04:	f001 f84a 	bl	8003f9c <HAL_DMA_Init>
 8002f08:	2800      	cmp	r0, #0
 8002f0a:	d10d      	bne.n	8002f28 <HAL_UART_MspInit+0xcc>
    HAL_NVIC_SetPriority(USART2_IRQn, 1, 1);
 8002f0c:	2201      	movs	r2, #1
 8002f0e:	2101      	movs	r1, #1
 8002f10:	201c      	movs	r0, #28
    __HAL_LINKDMA(huart,hdmatx,hdma_usart2_tx);
 8002f12:	67e5      	str	r5, [r4, #124]	@ 0x7c
 8002f14:	62ac      	str	r4, [r5, #40]	@ 0x28
    HAL_NVIC_SetPriority(USART2_IRQn, 1, 1);
 8002f16:	f000 ffe1 	bl	8003edc <HAL_NVIC_SetPriority>
    HAL_NVIC_EnableIRQ(USART2_IRQn);
 8002f1a:	201c      	movs	r0, #28
 8002f1c:	f001 f808 	bl	8003f30 <HAL_NVIC_EnableIRQ>
}
 8002f20:	e7a8      	b.n	8002e74 <HAL_UART_MspInit+0x18>
      Error_Handler();
 8002f22:	f7fe fac9 	bl	80014b8 <Error_Handler>
 8002f26:	e7d9      	b.n	8002edc <HAL_UART_MspInit+0x80>
      Error_Handler();
 8002f28:	f7fe fac6 	bl	80014b8 <Error_Handler>
 8002f2c:	e7ee      	b.n	8002f0c <HAL_UART_MspInit+0xb0>
 8002f2e:	46c0      	nop			@ (mov r8, r8)
 8002f30:	40004400 	.word	0x40004400
 8002f34:	40021000 	.word	0x40021000
 8002f38:	20000598 	.word	0x20000598
 8002f3c:	4002001c 	.word	0x4002001c
 8002f40:	40020030 	.word	0x40020030
 8002f44:	2000053c 	.word	0x2000053c

08002f48 <NMI_Handler>:
{
  /* USER CODE BEGIN NonMaskableInt_IRQn 0 */

  /* USER CODE END NonMaskableInt_IRQn 0 */
  /* USER CODE BEGIN NonMaskableInt_IRQn 1 */
   while (1)
 8002f48:	e7fe      	b.n	8002f48 <NMI_Handler>
 8002f4a:	46c0      	nop			@ (mov r8, r8)

08002f4c <HardFault_Handler>:
void HardFault_Handler(void)
{
  /* USER CODE BEGIN HardFault_IRQn 0 */

  /* USER CODE END HardFault_IRQn 0 */
  while (1)
 8002f4c:	e7fe      	b.n	8002f4c <HardFault_Handler>
 8002f4e:	46c0      	nop			@ (mov r8, r8)

08002f50 <SVC_Handler>:

  /* USER CODE END SVC_IRQn 0 */
  /* USER CODE BEGIN SVC_IRQn 1 */

  /* USER CODE END SVC_IRQn 1 */
}
 8002f50:	4770      	bx	lr
 8002f52:	46c0      	nop			@ (mov r8, r8)

08002f54 <PendSV_Handler>:

/**
  * @brief This function handles Pendable request for system service.
  */
void PendSV_Handler(void)
 8002f54:	4770      	bx	lr
 8002f56:	46c0      	nop			@ (mov r8, r8)

08002f58 <SysTick_Handler>:

/**
  * @brief This function handles System tick timer.
  */
void SysTick_Handler(void)
{
 8002f58:	b510      	push	{r4, lr}
  /* USER CODE BEGIN SysTick_IRQn 0 */

  /* USER CODE END SysTick_IRQn 0 */
  HAL_IncTick();
 8002f5a:	f000 fa3d 	bl	80033d8 <HAL_IncTick>
  /* USER CODE BEGIN SysTick_IRQn 1 */

  /* USER CODE END SysTick_IRQn 1 */
}
 8002f5e:	bd10      	pop	{r4, pc}

08002f60 <EXTI4_15_IRQHandler>:

/**
  * @brief This function handles EXTI line 4 to 15 interrupts.
  */
void EXTI4_15_IRQHandler(void)
{
 8002f60:	b510      	push	{r4, lr}
  /* USER CODE BEGIN EXTI4_15_IRQn 0 */

  /* USER CODE END EXTI4_15_IRQn 0 */

	HAL_GPIO_EXTI_IRQHandler(CLK_IN_Pin);
 8002f62:	2080      	movs	r0, #128	@ 0x80
 8002f64:	f001 fb88 	bl	8004678 <HAL_GPIO_EXTI_IRQHandler>
	//HAL_GPIO_EXTI_IRQHandler(SW_IN_Pin);

  /* USER CODE BEGIN EXTI4_15_IRQn 1 */

  /* USER CODE END EXTI4_15_IRQn 1 */
}
 8002f68:	bd10      	pop	{r4, pc}
 8002f6a:	46c0      	nop			@ (mov r8, r8)

08002f6c <DMA1_Channel1_IRQHandler>:

/**
  * @brief This function handles DMA1 channel 1 interrupt.
  */
void DMA1_Channel1_IRQHandler(void)
{
 8002f6c:	b510      	push	{r4, lr}
  /* USER CODE BEGIN DMA1_Channel1_IRQn 0 */

  /* USER CODE END DMA1_Channel1_IRQn 0 */
  HAL_DMA_IRQHandler(&hdma_adc1);
 8002f6e:	4802      	ldr	r0, [pc, #8]	@ (8002f78 <DMA1_Channel1_IRQHandler+0xc>)
 8002f70:	f001 f96a 	bl	8004248 <HAL_DMA_IRQHandler>
  /* USER CODE BEGIN DMA1_Channel1_IRQn 1 */

  /* USER CODE END DMA1_Channel1_IRQn 1 */
}
 8002f74:	bd10      	pop	{r4, pc}
 8002f76:	46c0      	nop			@ (mov r8, r8)
 8002f78:	20000b28 	.word	0x20000b28

08002f7c <DMA1_Channel2_3_IRQHandler>:

/**
  * @brief This function handles DMA1 channel 2 and channel 3 interrupts.
  */
void DMA1_Channel2_3_IRQHandler(void)
{
 8002f7c:	b510      	push	{r4, lr}
  /* USER CODE BEGIN DMA1_Channel2_3_IRQn 0 */

  /* USER CODE END DMA1_Channel2_3_IRQn 0 */
  HAL_DMA_IRQHandler(&hdma_usart2_rx);
 8002f7e:	4803      	ldr	r0, [pc, #12]	@ (8002f8c <DMA1_Channel2_3_IRQHandler+0x10>)
 8002f80:	f001 f962 	bl	8004248 <HAL_DMA_IRQHandler>
  HAL_DMA_IRQHandler(&hdma_usart2_tx);
 8002f84:	4802      	ldr	r0, [pc, #8]	@ (8002f90 <DMA1_Channel2_3_IRQHandler+0x14>)
 8002f86:	f001 f95f 	bl	8004248 <HAL_DMA_IRQHandler>
  /* USER CODE BEGIN DMA1_Channel2_3_IRQn 1 */

  /* USER CODE END DMA1_Channel2_3_IRQn 1 */
}
 8002f8a:	bd10      	pop	{r4, pc}
 8002f8c:	20000598 	.word	0x20000598
 8002f90:	2000053c 	.word	0x2000053c

08002f94 <TIM2_IRQHandler>:

/**
  * @brief This function handles TIM2 global interrupt.
  */
void TIM2_IRQHandler(void)
{
 8002f94:	b510      	push	{r4, lr}
  /* USER CODE BEGIN TIM2_IRQn 0 */

  /* USER CODE END TIM2_IRQn 0 */
  HAL_TIM_IRQHandler(&htim2);
 8002f96:	4802      	ldr	r0, [pc, #8]	@ (8002fa0 <TIM2_IRQHandler+0xc>)
 8002f98:	f003 f878 	bl	800608c <HAL_TIM_IRQHandler>
  /* USER CODE BEGIN TIM2_IRQn 1 */

  /* USER CODE END TIM2_IRQn 1 */
}
 8002f9c:	bd10      	pop	{r4, pc}
 8002f9e:	46c0      	nop			@ (mov r8, r8)
 8002fa0:	20000838 	.word	0x20000838

08002fa4 <TIM3_IRQHandler>:

/**
  * @brief This function handles TIM3 global interrupt.
  */
void TIM3_IRQHandler(void)
{
 8002fa4:	b510      	push	{r4, lr}
  /* USER CODE BEGIN TIM3_IRQn 0 */

  /* USER CODE END TIM3_IRQn 0 */
  HAL_TIM_IRQHandler(&htim3);
 8002fa6:	4802      	ldr	r0, [pc, #8]	@ (8002fb0 <TIM3_IRQHandler+0xc>)
 8002fa8:	f003 f870 	bl	800608c <HAL_TIM_IRQHandler>
  /* USER CODE BEGIN TIM3_IRQn 1 */

  /* USER CODE END TIM3_IRQn 1 */
}
 8002fac:	bd10      	pop	{r4, pc}
 8002fae:	46c0      	nop			@ (mov r8, r8)
 8002fb0:	2000077c 	.word	0x2000077c

08002fb4 <TIM16_IRQHandler>:

/**
  * @brief This function handles TIM16 global interrupt.
  */
void TIM16_IRQHandler(void)
{
 8002fb4:	b510      	push	{r4, lr}
  /* USER CODE BEGIN TIM16_IRQn 0 */

  /* USER CODE END TIM16_IRQn 0 */
  HAL_TIM_IRQHandler(&htim16);
 8002fb6:	4802      	ldr	r0, [pc, #8]	@ (8002fc0 <TIM16_IRQHandler+0xc>)
 8002fb8:	f003 f868 	bl	800608c <HAL_TIM_IRQHandler>
  /* USER CODE BEGIN TIM16_IRQn 1 */

  /* USER CODE END TIM16_IRQn 1 */
}
 8002fbc:	bd10      	pop	{r4, pc}
 8002fbe:	46c0      	nop			@ (mov r8, r8)
 8002fc0:	200008f4 	.word	0x200008f4

08002fc4 <USART2_IRQHandler>:

/**
  * @brief This function handles USART2 global interrupt / USART2 wake-up interrupt through EXTI line 26.
  */
void USART2_IRQHandler(void)
{
 8002fc4:	b510      	push	{r4, lr}
  /* USER CODE BEGIN USART2_IRQn 0 */

  /* USER CODE END USART2_IRQn 0 */
  HAL_UART_IRQHandler(&huart2);
 8002fc6:	4802      	ldr	r0, [pc, #8]	@ (8002fd0 <USART2_IRQHandler+0xc>)
 8002fc8:	f004 f8bc 	bl	8007144 <HAL_UART_IRQHandler>
  /* USER CODE BEGIN USART2_IRQn 1 */

  /* USER CODE END USART2_IRQn 1 */
}
 8002fcc:	bd10      	pop	{r4, pc}
 8002fce:	46c0      	nop			@ (mov r8, r8)
 8002fd0:	200005f4 	.word	0x200005f4

08002fd4 <LPTIM1_IRQHandler>:
/* USER CODE BEGIN 1 */

/* USER CODE END 1 */

void LPTIM1_IRQHandler(void)
{
 8002fd4:	b510      	push	{r4, lr}
  HAL_LPTIM_IRQHandler(&hlptim1);
 8002fd6:	4802      	ldr	r0, [pc, #8]	@ (8002fe0 <LPTIM1_IRQHandler+0xc>)
 8002fd8:	f001 fbfa 	bl	80047d0 <HAL_LPTIM_IRQHandler>
}
 8002fdc:	bd10      	pop	{r4, pc}
 8002fde:	46c0      	nop			@ (mov r8, r8)
 8002fe0:	200004e0 	.word	0x200004e0

08002fe4 <TIM17_IRQHandler>:


void TIM17_IRQHandler(void)
{
 8002fe4:	b510      	push	{r4, lr}
  /* USER CODE BEGIN TIM17_IRQn 0 */

  /* USER CODE END TIM17_IRQn 0 */
  HAL_TIM_IRQHandler(&htim17);
 8002fe6:	4802      	ldr	r0, [pc, #8]	@ (8002ff0 <TIM17_IRQHandler+0xc>)
 8002fe8:	f003 f850 	bl	800608c <HAL_TIM_IRQHandler>
  /* USER CODE BEGIN TIM17_IRQn 1 */

  /* USER CODE END TIM17_IRQn 1 */
}
 8002fec:	bd10      	pop	{r4, pc}
 8002fee:	46c0      	nop			@ (mov r8, r8)
 8002ff0:	200009b0 	.word	0x200009b0

08002ff4 <TIM14_IRQHandler>:

/**
  * @brief This function handles TIM14 global interrupt.
  */
void TIM14_IRQHandler(void)
{
 8002ff4:	b510      	push	{r4, lr}
  /* USER CODE BEGIN TIM14_IRQn 0 */

  /* USER CODE END TIM14_IRQn 0 */
  HAL_TIM_IRQHandler(&htim14);
 8002ff6:	4802      	ldr	r0, [pc, #8]	@ (8003000 <TIM14_IRQHandler+0xc>)
 8002ff8:	f003 f848 	bl	800608c <HAL_TIM_IRQHandler>
  /* USER CODE BEGIN TIM14_IRQn 1 */

  /* USER CODE END TIM14_IRQn 1 */
}
 8002ffc:	bd10      	pop	{r4, pc}
 8002ffe:	46c0      	nop			@ (mov r8, r8)
 8003000:	20000a6c 	.word	0x20000a6c

08003004 <Process_TIM16_Final_Start_Value_and_Final_Prescaler>:
    	params_ptr->final_prescaler = params_ptr->raw_prescaler;
    }
    return 1;
}

uint8_t Process_TIM16_Final_Start_Value_and_Final_Prescaler(struct Params* params_ptr){
 8003004:	b5f0      	push	{r4, r5, r6, r7, lr}
 8003006:	46d6      	mov	lr, sl
 8003008:	464f      	mov	r7, r9
 800300a:	4646      	mov	r6, r8
 800300c:	b5c0      	push	{r6, r7, lr}

			uint8_t pot_rotation_corrected = 0;
			enum Symmetry_Status symmetry_status = CW;

			//DETERMINE IF CW OR CCW SYMMETRY POT ROTATION
			if(params_ptr->symmetry < SYMMETRY_ADC_HALF_SCALE){ //adc = 0-127
 800300e:	8982      	ldrh	r2, [r0, #12]
			else{ //adc is 128-255
				symmetry_status = CCW;
			}

			//DETERMINE WHETHER TO SHORTEN OR LENGTHEN BASED ON CURRENT INDEX AND SYMMETRY POT POSITION
			if((params_ptr->waveshape == SINE_MODE) || (params_ptr->waveshape == TRIANGLE_MODE)){
 8003010:	7983      	ldrb	r3, [r0, #6]
uint8_t Process_TIM16_Final_Start_Value_and_Final_Prescaler(struct Params* params_ptr){
 8003012:	0004      	movs	r4, r0
			if(params_ptr->symmetry < SYMMETRY_ADC_HALF_SCALE){ //adc = 0-127
 8003014:	b292      	uxth	r2, r2
			if((params_ptr->waveshape == SINE_MODE) || (params_ptr->waveshape == TRIANGLE_MODE)){
 8003016:	2b01      	cmp	r3, #1
 8003018:	d050      	beq.n	80030bc <Process_TIM16_Final_Start_Value_and_Final_Prescaler+0xb8>
 800301a:	7983      	ldrb	r3, [r0, #6]
 800301c:	2b00      	cmp	r3, #0
 800301e:	d04d      	beq.n	80030bc <Process_TIM16_Final_Start_Value_and_Final_Prescaler+0xb8>

						symmetry_type_for_halfcycle = LENGTHEN;
					}
				}
			}
			else if(params_ptr->waveshape == SQUARE_MODE){
 8003020:	7983      	ldrb	r3, [r0, #6]
 8003022:	2b02      	cmp	r3, #2
 8003024:	d100      	bne.n	8003028 <Process_TIM16_Final_Start_Value_and_Final_Prescaler+0x24>
 8003026:	e0d3      	b.n	80031d0 <Process_TIM16_Final_Start_Value_and_Final_Prescaler+0x1cc>
						symmetry_type_for_halfcycle = LENGTHEN;
					}
				}
			}

			if(symmetry_status == CW){
 8003028:	2700      	movs	r7, #0
 800302a:	2a7f      	cmp	r2, #127	@ 0x7f
 800302c:	d850      	bhi.n	80030d0 <Process_TIM16_Final_Start_Value_and_Final_Prescaler+0xcc>

				pot_rotation_corrected = SYMMETRY_ADC_HALF_SCALE - 1 - params_ptr->symmetry;
 800302e:	227f      	movs	r2, #127	@ 0x7f
 8003030:	89a3      	ldrh	r3, [r4, #12]
 8003032:	1ad2      	subs	r2, r2, r3
 8003034:	b2d2      	uxtb	r2, r2

				pot_rotation_corrected = SYMMETRY_ADC_HALF_SCALE - 1 - (SYMMETRY_ADC_FULL_SCALE - params_ptr->symmetry);
			}

			//HAVE TO BE uin16_t FOR 1ST AND 3RD VARIABLES HERE BECAUSE A uint8_t IS LIMITED TO 255!
			uint16_t two_fifty_six_minus_TIM16_raw_start_value = 256 - params_ptr->raw_start_value;
 8003036:	8a65      	ldrh	r5, [r4, #18]
 8003038:	b2ab      	uxth	r3, r5
 800303a:	4698      	mov	r8, r3
 800303c:	2380      	movs	r3, #128	@ 0x80
 800303e:	005b      	lsls	r3, r3, #1
 8003040:	1b5d      	subs	r5, r3, r5
 8003042:	b2ad      	uxth	r5, r5

			//uint16_t two_fifty_six_minus_TIM16_raw_start_value_multiplied_by_PRC = (two_fifty_six_minus_TIM16_raw_start_value * pot_rotation_corrected);
			//COMMENT LINE BELOW IN AND LINE ABOVE OUT TO EXPERIMENT WITH MORE EXTREME SYMMETRY ADJUSTMENT
			uint16_t two_fifty_six_minus_TIM16_raw_start_value_multiplied_by_PRC = ((two_fifty_six_minus_TIM16_raw_start_value * pot_rotation_corrected) * 12) >> 3; //x(12/8) - 12/8 is the absolute maximum we can get away with
 8003044:	436a      	muls	r2, r5
 8003046:	0056      	lsls	r6, r2, #1
 8003048:	18b6      	adds	r6, r6, r2
 800304a:	1076      	asrs	r6, r6, #1

			uint16_t two_fifty_six_minus_TIM16_raw_start_value_multiplied_by_PRC_and_shifted_by_ADC_bits = (uint16_t)(two_fifty_six_minus_TIM16_raw_start_value_multiplied_by_PRC >> SYMMETRY_ADC_NUM_BITS);
 800304c:	b2b2      	uxth	r2, r6
 800304e:	0a12      	lsrs	r2, r2, #8
 8003050:	4691      	mov	r9, r2


			//HAVE TO BE uin16_t HERE BECAUSE A uint8_t IS LIMITED TO 255!
			uint16_t manipulated_period_shorten = two_fifty_six_minus_TIM16_raw_start_value - two_fifty_six_minus_TIM16_raw_start_value_multiplied_by_PRC_and_shifted_by_ADC_bits; //manipulated shorten will always be less than 256
 8003052:	1aaa      	subs	r2, r5, r2

			uint16_t manipulated_period_lengthen = two_fifty_six_minus_TIM16_raw_start_value + two_fifty_six_minus_TIM16_raw_start_value_multiplied_by_PRC_and_shifted_by_ADC_bits; //manipulated lengthen can be greater than 256 up to 381
 8003054:	444d      	add	r5, r9
			uint16_t manipulated_period_shorten = two_fifty_six_minus_TIM16_raw_start_value - two_fifty_six_minus_TIM16_raw_start_value_multiplied_by_PRC_and_shifted_by_ADC_bits; //manipulated shorten will always be less than 256
 8003056:	b292      	uxth	r2, r2


			if((manipulated_period_lengthen < 256) || ((manipulated_period_lengthen == 256) && (unsigned_bitwise_modulo(two_fifty_six_minus_TIM16_raw_start_value_multiplied_by_PRC, 8) == 0))){

				if(unsigned_bitwise_modulo(two_fifty_six_minus_TIM16_raw_start_value_multiplied_by_PRC, 8) == 128){
 8003058:	0436      	lsls	r6, r6, #16
			uint16_t manipulated_period_lengthen = two_fifty_six_minus_TIM16_raw_start_value + two_fifty_six_minus_TIM16_raw_start_value_multiplied_by_PRC_and_shifted_by_ADC_bits; //manipulated lengthen can be greater than 256 up to 381
 800305a:	b2ad      	uxth	r5, r5
			uint16_t manipulated_period_shorten = two_fifty_six_minus_TIM16_raw_start_value - two_fifty_six_minus_TIM16_raw_start_value_multiplied_by_PRC_and_shifted_by_ADC_bits; //manipulated shorten will always be less than 256
 800305c:	4692      	mov	sl, r2
				if(unsigned_bitwise_modulo(two_fifty_six_minus_TIM16_raw_start_value_multiplied_by_PRC, 8) == 128){
 800305e:	0c36      	lsrs	r6, r6, #16
			if((manipulated_period_lengthen < 256) || ((manipulated_period_lengthen == 256) && (unsigned_bitwise_modulo(two_fifty_six_minus_TIM16_raw_start_value_multiplied_by_PRC, 8) == 0))){
 8003060:	2dff      	cmp	r5, #255	@ 0xff
 8003062:	d800      	bhi.n	8003066 <Process_TIM16_Final_Start_Value_and_Final_Prescaler+0x62>
 8003064:	e082      	b.n	800316c <Process_TIM16_Final_Start_Value_and_Final_Prescaler+0x168>
 8003066:	429d      	cmp	r5, r3
 8003068:	d100      	bne.n	800306c <Process_TIM16_Final_Start_Value_and_Final_Prescaler+0x68>
 800306a:	e0ce      	b.n	800320a <Process_TIM16_Final_Start_Value_and_Final_Prescaler+0x206>
				}
			}

			else if((manipulated_period_lengthen > 256) || ((manipulated_period_lengthen == 256) && (unsigned_bitwise_modulo(two_fifty_six_minus_TIM16_raw_start_value_multiplied_by_PRC, 8) > 0))){

				if(unsigned_bitwise_modulo(two_fifty_six_minus_TIM16_raw_start_value_multiplied_by_PRC, 8) == 128){
 800306c:	2108      	movs	r1, #8
 800306e:	0030      	movs	r0, r6
 8003070:	f000 f936 	bl	80032e0 <unsigned_bitwise_modulo>
 8003074:	2880      	cmp	r0, #128	@ 0x80
 8003076:	d044      	beq.n	8003102 <Process_TIM16_Final_Start_Value_and_Final_Prescaler+0xfe>
							TIM16_final_start_value_oscillation_mode = OSCILLATE_UPWARDS;
							params_ptr->prescaler_adjust = MULTIPLY_BY_TWO;
						}
					}
				}
				else if(unsigned_bitwise_modulo(two_fifty_six_minus_TIM16_raw_start_value_multiplied_by_PRC, 8) == 0){
 8003078:	2108      	movs	r1, #8
 800307a:	0030      	movs	r0, r6
 800307c:	f000 f930 	bl	80032e0 <unsigned_bitwise_modulo>
 8003080:	2800      	cmp	r0, #0
 8003082:	d044      	beq.n	800310e <Process_TIM16_Final_Start_Value_and_Final_Prescaler+0x10a>
							TIM16_final_start_value_oscillation_mode = OSCILLATE_UPWARDS;
							params_ptr->prescaler_adjust = MULTIPLY_BY_TWO;
						}
					}
				}
				else if(unsigned_bitwise_modulo(two_fifty_six_minus_TIM16_raw_start_value_multiplied_by_PRC, 8) < 128){
 8003084:	2108      	movs	r1, #8
 8003086:	0030      	movs	r0, r6
 8003088:	f000 f92a 	bl	80032e0 <unsigned_bitwise_modulo>
 800308c:	287f      	cmp	r0, #127	@ 0x7f
 800308e:	d93e      	bls.n	800310e <Process_TIM16_Final_Start_Value_and_Final_Prescaler+0x10a>
							TIM16_final_start_value_oscillation_mode = OSCILLATE_UPWARDS;
							params_ptr->prescaler_adjust = MULTIPLY_BY_TWO;
						}
					}
				}
				else if(unsigned_bitwise_modulo(two_fifty_six_minus_TIM16_raw_start_value_multiplied_by_PRC, 8) > 128){
 8003090:	2108      	movs	r1, #8
 8003092:	0030      	movs	r0, r6
 8003094:	f000 f924 	bl	80032e0 <unsigned_bitwise_modulo>
 8003098:	2880      	cmp	r0, #128	@ 0x80
 800309a:	d832      	bhi.n	8003102 <Process_TIM16_Final_Start_Value_and_Final_Prescaler+0xfe>
			}

	        //DETERMINE THE TIM16_FINAL_START_VALUE FROM MANIPULATED_PERIOD_LENGTHEN/SHORTEN CALCULATED
	        //NOTE INVERSE RELATIONSHIP BETWEEN TIM16_FINAL_START_VALUE AND MANIPULATED_PERIOD_LENGTHEN/SHORTEN BECAUSE 256-TIM16_FINAL_START_VALUE = MANIPULATED_PERIOD_LENGTHEN/SHORTEN
	        //ODD VALUES OF CURRENT_INDEX WILL FEATURE THE ADJUSTED(OSCILLATED) VALUE
	        if(symmetry_type_for_halfcycle == SHORTEN){
 800309c:	2f00      	cmp	r7, #0
 800309e:	d041      	beq.n	8003124 <Process_TIM16_Final_Start_Value_and_Final_Prescaler+0x120>
	        }
	        else if(symmetry_type_for_halfcycle == LENGTHEN){

	            if(TIM16_final_start_value_oscillation_mode == DO_NOT_OSCILLATE){

	                params_ptr->final_start_value = 256 - manipulated_period_lengthen;
 80030a0:	2380      	movs	r3, #128	@ 0x80
 80030a2:	005b      	lsls	r3, r3, #1
 80030a4:	1b5b      	subs	r3, r3, r5
 80030a6:	b29b      	uxth	r3, r3

	                    params_ptr->final_start_value = 256 - manipulated_period_lengthen;
	                }
	                else{ //if current index is odd

	                    params_ptr->final_start_value = 256 - manipulated_period_lengthen - 1;
 80030a8:	82a3      	strh	r3, [r4, #20]
    if(params_ptr->prescaler_adjust == MULTIPLY_BY_TWO){
 80030aa:	2320      	movs	r3, #32
 80030ac:	5ce2      	ldrb	r2, [r4, r3]
 80030ae:	2a01      	cmp	r2, #1
 80030b0:	d142      	bne.n	8003138 <Process_TIM16_Final_Start_Value_and_Final_Prescaler+0x134>
    	params_ptr->final_prescaler = params_ptr->raw_prescaler << 1;
 80030b2:	8b63      	ldrh	r3, [r4, #26]
 80030b4:	005b      	lsls	r3, r3, #1
 80030b6:	b29b      	uxth	r3, r3
 80030b8:	83a3      	strh	r3, [r4, #28]
 80030ba:	e043      	b.n	8003144 <Process_TIM16_Final_Start_Value_and_Final_Prescaler+0x140>
				if((params_ptr->halfcycle == FIRST_HALFCYCLE && params_ptr->quadrant == FIRST_QUADRANT) || (params_ptr->halfcycle == SECOND_HALFCYCLE && params_ptr->quadrant == SECOND_QUADRANT)){
 80030bc:	7c23      	ldrb	r3, [r4, #16]
 80030be:	2b00      	cmp	r3, #0
 80030c0:	d10a      	bne.n	80030d8 <Process_TIM16_Final_Start_Value_and_Final_Prescaler+0xd4>
 80030c2:	7c63      	ldrb	r3, [r4, #17]
 80030c4:	2b00      	cmp	r3, #0
 80030c6:	d107      	bne.n	80030d8 <Process_TIM16_Final_Start_Value_and_Final_Prescaler+0xd4>
					if(symmetry_status == CW){
 80030c8:	2700      	movs	r7, #0
 80030ca:	2a7f      	cmp	r2, #127	@ 0x7f
 80030cc:	d800      	bhi.n	80030d0 <Process_TIM16_Final_Start_Value_and_Final_Prescaler+0xcc>
 80030ce:	e087      	b.n	80031e0 <Process_TIM16_Final_Start_Value_and_Final_Prescaler+0x1dc>
				pot_rotation_corrected = SYMMETRY_ADC_HALF_SCALE - 1 - (SYMMETRY_ADC_FULL_SCALE - params_ptr->symmetry);
 80030d0:	89a2      	ldrh	r2, [r4, #12]
 80030d2:	3a80      	subs	r2, #128	@ 0x80
 80030d4:	b2d2      	uxtb	r2, r2
 80030d6:	e7ae      	b.n	8003036 <Process_TIM16_Final_Start_Value_and_Final_Prescaler+0x32>
				if((params_ptr->halfcycle == FIRST_HALFCYCLE && params_ptr->quadrant == FIRST_QUADRANT) || (params_ptr->halfcycle == SECOND_HALFCYCLE && params_ptr->quadrant == SECOND_QUADRANT)){
 80030d8:	7c23      	ldrb	r3, [r4, #16]
 80030da:	2b01      	cmp	r3, #1
 80030dc:	d100      	bne.n	80030e0 <Process_TIM16_Final_Start_Value_and_Final_Prescaler+0xdc>
 80030de:	e072      	b.n	80031c6 <Process_TIM16_Final_Start_Value_and_Final_Prescaler+0x1c2>
				else if((params_ptr->halfcycle == FIRST_HALFCYCLE && params_ptr->quadrant == SECOND_QUADRANT) || (params_ptr->halfcycle == SECOND_HALFCYCLE && params_ptr->quadrant == FIRST_QUADRANT)){
 80030e0:	7c23      	ldrb	r3, [r4, #16]
 80030e2:	2b00      	cmp	r3, #0
 80030e4:	d102      	bne.n	80030ec <Process_TIM16_Final_Start_Value_and_Final_Prescaler+0xe8>
 80030e6:	7c63      	ldrb	r3, [r4, #17]
 80030e8:	2b01      	cmp	r3, #1
 80030ea:	d005      	beq.n	80030f8 <Process_TIM16_Final_Start_Value_and_Final_Prescaler+0xf4>
 80030ec:	7c23      	ldrb	r3, [r4, #16]
 80030ee:	2b01      	cmp	r3, #1
 80030f0:	d19a      	bne.n	8003028 <Process_TIM16_Final_Start_Value_and_Final_Prescaler+0x24>
 80030f2:	7c63      	ldrb	r3, [r4, #17]
 80030f4:	2b00      	cmp	r3, #0
 80030f6:	d197      	bne.n	8003028 <Process_TIM16_Final_Start_Value_and_Final_Prescaler+0x24>
						symmetry_type_for_halfcycle = LENGTHEN;
 80030f8:	2701      	movs	r7, #1
					if(symmetry_status == CW){
 80030fa:	2a7f      	cmp	r2, #127	@ 0x7f
 80030fc:	d8e8      	bhi.n	80030d0 <Process_TIM16_Final_Start_Value_and_Final_Prescaler+0xcc>
 80030fe:	2700      	movs	r7, #0
 8003100:	e795      	b.n	800302e <Process_TIM16_Final_Start_Value_and_Final_Prescaler+0x2a>
					manipulated_period_shorten = manipulated_period_shorten - 1; //DONE
 8003102:	4653      	mov	r3, sl
 8003104:	3b01      	subs	r3, #1
 8003106:	b29b      	uxth	r3, r3
 8003108:	469a      	mov	sl, r3
					manipulated_period_lengthen = manipulated_period_lengthen + 1; //DONE
 800310a:	3501      	adds	r5, #1
 800310c:	b2ad      	uxth	r5, r5
					if(unsigned_bitwise_modulo(manipulated_period_lengthen, 1) == 0){
 800310e:	0028      	movs	r0, r5
 8003110:	2101      	movs	r1, #1
 8003112:	f000 f8e5 	bl	80032e0 <unsigned_bitwise_modulo>
						manipulated_period_lengthen = manipulated_period_lengthen >> 1; //DONE
 8003116:	086d      	lsrs	r5, r5, #1
							params_ptr->prescaler_adjust = DO_NOTHING;
 8003118:	2320      	movs	r3, #32
					if(unsigned_bitwise_modulo(manipulated_period_lengthen, 1) == 0){
 800311a:	2800      	cmp	r0, #0
 800311c:	d142      	bne.n	80031a4 <Process_TIM16_Final_Start_Value_and_Final_Prescaler+0x1a0>
						if(symmetry_type_for_halfcycle == SHORTEN){
 800311e:	2f00      	cmp	r7, #0
 8003120:	d160      	bne.n	80031e4 <Process_TIM16_Final_Start_Value_and_Final_Prescaler+0x1e0>
							params_ptr->prescaler_adjust = DO_NOTHING;
 8003122:	54e7      	strb	r7, [r4, r3]
	                params_ptr->final_start_value = 256 - manipulated_period_shorten;
 8003124:	2380      	movs	r3, #128	@ 0x80
 8003126:	4652      	mov	r2, sl
 8003128:	005b      	lsls	r3, r3, #1
 800312a:	1a9b      	subs	r3, r3, r2
 800312c:	b29b      	uxth	r3, r3
 800312e:	82a3      	strh	r3, [r4, #20]
    if(params_ptr->prescaler_adjust == MULTIPLY_BY_TWO){
 8003130:	2320      	movs	r3, #32
 8003132:	5ce2      	ldrb	r2, [r4, r3]
 8003134:	2a01      	cmp	r2, #1
 8003136:	d0bc      	beq.n	80030b2 <Process_TIM16_Final_Start_Value_and_Final_Prescaler+0xae>
    else if(params_ptr->prescaler_adjust == DO_NOTHING){
 8003138:	5ce3      	ldrb	r3, [r4, r3]
 800313a:	2b00      	cmp	r3, #0
 800313c:	d102      	bne.n	8003144 <Process_TIM16_Final_Start_Value_and_Final_Prescaler+0x140>
    	params_ptr->final_prescaler = params_ptr->raw_prescaler;
 800313e:	8b63      	ldrh	r3, [r4, #26]
 8003140:	b29b      	uxth	r3, r3
 8003142:	83a3      	strh	r3, [r4, #28]
		params_ptr->final_start_value = params_ptr->raw_start_value;
		params_ptr->prescaler_adjust = DO_NOTHING;
        Adjust_TIM16_Prescaler(params_ptr);
    #endif

    params_ptr->final_period = 256 - params_ptr->final_start_value;
 8003144:	2380      	movs	r3, #128	@ 0x80
 8003146:	8aa2      	ldrh	r2, [r4, #20]
 8003148:	005b      	lsls	r3, r3, #1
 800314a:	1a9b      	subs	r3, r3, r2
 800314c:	b29b      	uxth	r3, r3
 800314e:	82e3      	strh	r3, [r4, #22]
    params_ptr->final_ARR = params_ptr->final_period - 1;
 8003150:	8ae3      	ldrh	r3, [r4, #22]
    params_ptr->final_prescaler_minus_one = params_ptr->final_prescaler - 1;

    return 1;
}
 8003152:	2001      	movs	r0, #1
    params_ptr->final_ARR = params_ptr->final_period - 1;
 8003154:	3b01      	subs	r3, #1
 8003156:	b29b      	uxth	r3, r3
 8003158:	8323      	strh	r3, [r4, #24]
    params_ptr->final_prescaler_minus_one = params_ptr->final_prescaler - 1;
 800315a:	8ba3      	ldrh	r3, [r4, #28]
 800315c:	3b01      	subs	r3, #1
 800315e:	b29b      	uxth	r3, r3
 8003160:	83e3      	strh	r3, [r4, #30]
}
 8003162:	bce0      	pop	{r5, r6, r7}
 8003164:	46ba      	mov	sl, r7
 8003166:	46b1      	mov	r9, r6
 8003168:	46a8      	mov	r8, r5
 800316a:	bdf0      	pop	{r4, r5, r6, r7, pc}
				if(unsigned_bitwise_modulo(two_fifty_six_minus_TIM16_raw_start_value_multiplied_by_PRC, 8) == 128){
 800316c:	2108      	movs	r1, #8
 800316e:	0030      	movs	r0, r6
 8003170:	f000 f8b6 	bl	80032e0 <unsigned_bitwise_modulo>
 8003174:	2880      	cmp	r0, #128	@ 0x80
 8003176:	d13c      	bne.n	80031f2 <Process_TIM16_Final_Start_Value_and_Final_Prescaler+0x1ee>
					params_ptr->prescaler_adjust = DO_NOTHING;
 8003178:	2320      	movs	r3, #32
 800317a:	2200      	movs	r2, #0
 800317c:	54e2      	strb	r2, [r4, r3]
	        if(symmetry_type_for_halfcycle == SHORTEN){
 800317e:	2f00      	cmp	r7, #0
 8003180:	d114      	bne.n	80031ac <Process_TIM16_Final_Start_Value_and_Final_Prescaler+0x1a8>
	                if(unsigned_bitwise_modulo(params_ptr->index, 1) == 0){ //if current index is even
 8003182:	89e0      	ldrh	r0, [r4, #14]
 8003184:	2101      	movs	r1, #1
 8003186:	b280      	uxth	r0, r0
 8003188:	f000 f8aa 	bl	80032e0 <unsigned_bitwise_modulo>
 800318c:	4643      	mov	r3, r8
 800318e:	3b01      	subs	r3, #1
 8003190:	3bff      	subs	r3, #255	@ 0xff
 8003192:	444b      	add	r3, r9
 8003194:	b29b      	uxth	r3, r3
 8003196:	2800      	cmp	r0, #0
 8003198:	d14a      	bne.n	8003230 <Process_TIM16_Final_Start_Value_and_Final_Prescaler+0x22c>
	                    params_ptr->final_start_value = 256 - manipulated_period_shorten;
 800319a:	3301      	adds	r3, #1
 800319c:	33ff      	adds	r3, #255	@ 0xff
 800319e:	b29b      	uxth	r3, r3
 80031a0:	82a3      	strh	r3, [r4, #20]
 80031a2:	e7c5      	b.n	8003130 <Process_TIM16_Final_Start_Value_and_Final_Prescaler+0x12c>
						if(symmetry_type_for_halfcycle == SHORTEN){
 80031a4:	2f00      	cmp	r7, #0
 80031a6:	d0bc      	beq.n	8003122 <Process_TIM16_Final_Start_Value_and_Final_Prescaler+0x11e>
							params_ptr->prescaler_adjust = MULTIPLY_BY_TWO;
 80031a8:	2201      	movs	r2, #1
 80031aa:	54e2      	strb	r2, [r4, r3]
	                if(unsigned_bitwise_modulo(params_ptr->index, 1) == 0){ //if current index is even
 80031ac:	89e0      	ldrh	r0, [r4, #14]
 80031ae:	2101      	movs	r1, #1
 80031b0:	b280      	uxth	r0, r0
 80031b2:	f000 f895 	bl	80032e0 <unsigned_bitwise_modulo>
 80031b6:	2800      	cmp	r0, #0
 80031b8:	d14c      	bne.n	8003254 <Process_TIM16_Final_Start_Value_and_Final_Prescaler+0x250>
	                    params_ptr->final_start_value = 256 - manipulated_period_lengthen;
 80031ba:	2380      	movs	r3, #128	@ 0x80
 80031bc:	005b      	lsls	r3, r3, #1
 80031be:	1b5b      	subs	r3, r3, r5
 80031c0:	b29b      	uxth	r3, r3
 80031c2:	82a3      	strh	r3, [r4, #20]
 80031c4:	e7b4      	b.n	8003130 <Process_TIM16_Final_Start_Value_and_Final_Prescaler+0x12c>
				if((params_ptr->halfcycle == FIRST_HALFCYCLE && params_ptr->quadrant == FIRST_QUADRANT) || (params_ptr->halfcycle == SECOND_HALFCYCLE && params_ptr->quadrant == SECOND_QUADRANT)){
 80031c6:	7c63      	ldrb	r3, [r4, #17]
 80031c8:	2b01      	cmp	r3, #1
 80031ca:	d000      	beq.n	80031ce <Process_TIM16_Final_Start_Value_and_Final_Prescaler+0x1ca>
 80031cc:	e788      	b.n	80030e0 <Process_TIM16_Final_Start_Value_and_Final_Prescaler+0xdc>
 80031ce:	e77b      	b.n	80030c8 <Process_TIM16_Final_Start_Value_and_Final_Prescaler+0xc4>
				if(params_ptr->halfcycle == FIRST_HALFCYCLE){
 80031d0:	7c03      	ldrb	r3, [r0, #16]
 80031d2:	b2df      	uxtb	r7, r3
 80031d4:	2b00      	cmp	r3, #0
 80031d6:	d000      	beq.n	80031da <Process_TIM16_Final_Start_Value_and_Final_Prescaler+0x1d6>
 80031d8:	e78e      	b.n	80030f8 <Process_TIM16_Final_Start_Value_and_Final_Prescaler+0xf4>
					if(symmetry_status == CW){
 80031da:	2a7f      	cmp	r2, #127	@ 0x7f
 80031dc:	d900      	bls.n	80031e0 <Process_TIM16_Final_Start_Value_and_Final_Prescaler+0x1dc>
 80031de:	e777      	b.n	80030d0 <Process_TIM16_Final_Start_Value_and_Final_Prescaler+0xcc>
						symmetry_type_for_halfcycle = LENGTHEN;
 80031e0:	2701      	movs	r7, #1
 80031e2:	e724      	b.n	800302e <Process_TIM16_Final_Start_Value_and_Final_Prescaler+0x2a>
							params_ptr->prescaler_adjust = MULTIPLY_BY_TWO;
 80031e4:	2201      	movs	r2, #1
 80031e6:	54e2      	strb	r2, [r4, r3]
	                params_ptr->final_start_value = 256 - manipulated_period_lengthen;
 80031e8:	33e0      	adds	r3, #224	@ 0xe0
 80031ea:	1b5b      	subs	r3, r3, r5
 80031ec:	b29b      	uxth	r3, r3
	                    params_ptr->final_start_value = 256 - manipulated_period_lengthen - 1;
 80031ee:	82a3      	strh	r3, [r4, #20]
 80031f0:	e75b      	b.n	80030aa <Process_TIM16_Final_Start_Value_and_Final_Prescaler+0xa6>
				else if(unsigned_bitwise_modulo(two_fifty_six_minus_TIM16_raw_start_value_multiplied_by_PRC, 8) == 0){
 80031f2:	2108      	movs	r1, #8
 80031f4:	0030      	movs	r0, r6
 80031f6:	f000 f873 	bl	80032e0 <unsigned_bitwise_modulo>
 80031fa:	2800      	cmp	r0, #0
 80031fc:	d11d      	bne.n	800323a <Process_TIM16_Final_Start_Value_and_Final_Prescaler+0x236>
					params_ptr->prescaler_adjust = DO_NOTHING;
 80031fe:	2320      	movs	r3, #32
 8003200:	54e0      	strb	r0, [r4, r3]
	        if(symmetry_type_for_halfcycle == SHORTEN){
 8003202:	2f00      	cmp	r7, #0
 8003204:	d000      	beq.n	8003208 <Process_TIM16_Final_Start_Value_and_Final_Prescaler+0x204>
 8003206:	e74b      	b.n	80030a0 <Process_TIM16_Final_Start_Value_and_Final_Prescaler+0x9c>
 8003208:	e78c      	b.n	8003124 <Process_TIM16_Final_Start_Value_and_Final_Prescaler+0x120>
			if((manipulated_period_lengthen < 256) || ((manipulated_period_lengthen == 256) && (unsigned_bitwise_modulo(two_fifty_six_minus_TIM16_raw_start_value_multiplied_by_PRC, 8) == 0))){
 800320a:	2108      	movs	r1, #8
 800320c:	0030      	movs	r0, r6
 800320e:	f000 f867 	bl	80032e0 <unsigned_bitwise_modulo>
 8003212:	2800      	cmp	r0, #0
 8003214:	d0aa      	beq.n	800316c <Process_TIM16_Final_Start_Value_and_Final_Prescaler+0x168>
			else if((manipulated_period_lengthen > 256) || ((manipulated_period_lengthen == 256) && (unsigned_bitwise_modulo(two_fifty_six_minus_TIM16_raw_start_value_multiplied_by_PRC, 8) > 0))){
 8003216:	2108      	movs	r1, #8
 8003218:	0030      	movs	r0, r6
 800321a:	f000 f861 	bl	80032e0 <unsigned_bitwise_modulo>
 800321e:	2800      	cmp	r0, #0
 8003220:	d000      	beq.n	8003224 <Process_TIM16_Final_Start_Value_and_Final_Prescaler+0x220>
 8003222:	e723      	b.n	800306c <Process_TIM16_Final_Start_Value_and_Final_Prescaler+0x68>
	        if(symmetry_type_for_halfcycle == SHORTEN){
 8003224:	2300      	movs	r3, #0
 8003226:	2f00      	cmp	r7, #0
 8003228:	d100      	bne.n	800322c <Process_TIM16_Final_Start_Value_and_Final_Prescaler+0x228>
 800322a:	e77b      	b.n	8003124 <Process_TIM16_Final_Start_Value_and_Final_Prescaler+0x120>
	                    params_ptr->final_start_value = 256 - manipulated_period_lengthen - 1;
 800322c:	82a3      	strh	r3, [r4, #20]
 800322e:	e73c      	b.n	80030aa <Process_TIM16_Final_Start_Value_and_Final_Prescaler+0xa6>
	                    params_ptr->final_start_value = 256 - manipulated_period_shorten + 1;
 8003230:	3302      	adds	r3, #2
 8003232:	33ff      	adds	r3, #255	@ 0xff
 8003234:	b29b      	uxth	r3, r3
 8003236:	82a3      	strh	r3, [r4, #20]
 8003238:	e77a      	b.n	8003130 <Process_TIM16_Final_Start_Value_and_Final_Prescaler+0x12c>
				else if(unsigned_bitwise_modulo(two_fifty_six_minus_TIM16_raw_start_value_multiplied_by_PRC, 8) < 128){
 800323a:	2108      	movs	r1, #8
 800323c:	0030      	movs	r0, r6
 800323e:	f000 f84f 	bl	80032e0 <unsigned_bitwise_modulo>
 8003242:	287f      	cmp	r0, #127	@ 0x7f
 8003244:	d80b      	bhi.n	800325e <Process_TIM16_Final_Start_Value_and_Final_Prescaler+0x25a>
					params_ptr->prescaler_adjust = DO_NOTHING;
 8003246:	2320      	movs	r3, #32
 8003248:	2200      	movs	r2, #0
 800324a:	54e2      	strb	r2, [r4, r3]
	        if(symmetry_type_for_halfcycle == SHORTEN){
 800324c:	2f00      	cmp	r7, #0
 800324e:	d100      	bne.n	8003252 <Process_TIM16_Final_Start_Value_and_Final_Prescaler+0x24e>
 8003250:	e768      	b.n	8003124 <Process_TIM16_Final_Start_Value_and_Final_Prescaler+0x120>
 8003252:	e7c9      	b.n	80031e8 <Process_TIM16_Final_Start_Value_and_Final_Prescaler+0x1e4>
	                    params_ptr->final_start_value = 256 - manipulated_period_lengthen - 1;
 8003254:	23ff      	movs	r3, #255	@ 0xff
 8003256:	1b5b      	subs	r3, r3, r5
 8003258:	b29b      	uxth	r3, r3
 800325a:	82a3      	strh	r3, [r4, #20]
 800325c:	e725      	b.n	80030aa <Process_TIM16_Final_Start_Value_and_Final_Prescaler+0xa6>
				else if(unsigned_bitwise_modulo(two_fifty_six_minus_TIM16_raw_start_value_multiplied_by_PRC, 8) > 128){
 800325e:	2108      	movs	r1, #8
 8003260:	0030      	movs	r0, r6
 8003262:	f000 f83d 	bl	80032e0 <unsigned_bitwise_modulo>
 8003266:	2880      	cmp	r0, #128	@ 0x80
 8003268:	d800      	bhi.n	800326c <Process_TIM16_Final_Start_Value_and_Final_Prescaler+0x268>
 800326a:	e717      	b.n	800309c <Process_TIM16_Final_Start_Value_and_Final_Prescaler+0x98>
					params_ptr->prescaler_adjust = DO_NOTHING;
 800326c:	2320      	movs	r3, #32
 800326e:	2200      	movs	r2, #0
 8003270:	54e2      	strb	r2, [r4, r3]
	        if(symmetry_type_for_halfcycle == SHORTEN){
 8003272:	2f00      	cmp	r7, #0
 8003274:	d1ee      	bne.n	8003254 <Process_TIM16_Final_Start_Value_and_Final_Prescaler+0x250>
					manipulated_period_shorten = manipulated_period_shorten - 1; //DONE
 8003276:	4653      	mov	r3, sl
 8003278:	3b01      	subs	r3, #1
 800327a:	b29b      	uxth	r3, r3
 800327c:	469a      	mov	sl, r3
 800327e:	e751      	b.n	8003124 <Process_TIM16_Final_Start_Value_and_Final_Prescaler+0x120>

08003280 <SystemInit>:
{
  /* Configure the Vector Table location -------------------------------------*/
#if defined(USER_VECT_TAB_ADDRESS)
  SCB->VTOR = VECT_TAB_BASE_ADDRESS | VECT_TAB_OFFSET; /* Vector Table Relocation */
#endif /* USER_VECT_TAB_ADDRESS */
}
 8003280:	4770      	bx	lr
 8003282:	46c0      	nop			@ (mov r8, r8)

08003284 <Start_OC_TIM>:
//INCLUDES
#include "timers.h"

//FUNCTION DEFINITIONS
uint8_t Start_OC_TIM(TIM_HandleTypeDef *TIM, uint32_t OC_TIM_channel){
 8003284:	b510      	push	{r4, lr}

	uint8_t ok = HAL_TIM_OC_Start_IT(TIM, OC_TIM_channel); //_IT variant of function
 8003286:	f002 fb6b 	bl	8005960 <HAL_TIM_OC_Start_IT>
 800328a:	1e04      	subs	r4, r0, #0
	//means the timer will generate an interrupt on delay_elapsed (CNT = CCR) condition

	if(ok != HAL_OK){
 800328c:	d101      	bne.n	8003292 <Start_OC_TIM+0xe>

		Error_Handler();
	}

	return ok;
}
 800328e:	0020      	movs	r0, r4
 8003290:	bd10      	pop	{r4, pc}
		Error_Handler();
 8003292:	f7fe f911 	bl	80014b8 <Error_Handler>
 8003296:	e7fa      	b.n	800328e <Start_OC_TIM+0xa>

08003298 <Stop_OC_TIM>:

uint8_t Stop_OC_TIM(TIM_HandleTypeDef *TIM, uint32_t OC_TIM_channel){
 8003298:	b510      	push	{r4, lr}

	uint8_t ok = HAL_TIM_OC_Stop_IT(TIM, OC_TIM_channel);
 800329a:	f002 fbe1 	bl	8005a60 <HAL_TIM_OC_Stop_IT>
 800329e:	1e04      	subs	r4, r0, #0

	if(ok != HAL_OK){
 80032a0:	d101      	bne.n	80032a6 <Stop_OC_TIM+0xe>

		Error_Handler();
	}

	return ok;
}
 80032a2:	0020      	movs	r0, r4
 80032a4:	bd10      	pop	{r4, pc}
		Error_Handler();
 80032a6:	f7fe f907 	bl	80014b8 <Error_Handler>
 80032aa:	e7fa      	b.n	80032a2 <Stop_OC_TIM+0xa>

080032ac <isPrime>:
#include "utility.h"

enum Validate isPrime(uint16_t x){
 80032ac:	b570      	push	{r4, r5, r6, lr}
 80032ae:	0005      	movs	r5, r0
    for (uint16_t d = 2; d * d <= x; d++) {
 80032b0:	2803      	cmp	r0, #3
 80032b2:	d910      	bls.n	80032d6 <isPrime+0x2a>
        if (x % d == 0)
 80032b4:	07c3      	lsls	r3, r0, #31
 80032b6:	d510      	bpl.n	80032da <isPrime+0x2e>
    for (uint16_t d = 2; d * d <= x; d++) {
 80032b8:	2402      	movs	r4, #2
 80032ba:	e006      	b.n	80032ca <isPrime+0x1e>
        if (x % d == 0)
 80032bc:	0021      	movs	r1, r4
 80032be:	0028      	movs	r0, r5
 80032c0:	f7fc ffa6 	bl	8000210 <__aeabi_uidivmod>
 80032c4:	b289      	uxth	r1, r1
 80032c6:	2900      	cmp	r1, #0
 80032c8:	d007      	beq.n	80032da <isPrime+0x2e>
    for (uint16_t d = 2; d * d <= x; d++) {
 80032ca:	3401      	adds	r4, #1
 80032cc:	b2a4      	uxth	r4, r4
 80032ce:	0023      	movs	r3, r4
 80032d0:	4363      	muls	r3, r4
 80032d2:	42ab      	cmp	r3, r5
 80032d4:	ddf2      	ble.n	80032bc <isPrime+0x10>
            return NO;
    }
    return YES;
 80032d6:	2001      	movs	r0, #1
}
 80032d8:	bd70      	pop	{r4, r5, r6, pc}
            return NO;
 80032da:	2000      	movs	r0, #0
 80032dc:	e7fc      	b.n	80032d8 <isPrime+0x2c>
 80032de:	46c0      	nop			@ (mov r8, r8)

080032e0 <unsigned_bitwise_modulo>:

uint32_t unsigned_bitwise_modulo(uint32_t dividend, uint8_t base_2_exponent){

    return dividend & ((1 << base_2_exponent) - 1);
 80032e0:	2301      	movs	r3, #1
 80032e2:	408b      	lsls	r3, r1
 80032e4:	3b01      	subs	r3, #1
 80032e6:	4018      	ands	r0, r3
}
 80032e8:	4770      	bx	lr
 80032ea:	46c0      	nop			@ (mov r8, r8)

080032ec <Global_Interrupt_Enable>:
  __ASM volatile ("cpsie i" : : : "memory");
 80032ec:	b662      	cpsie	i

uint8_t Global_Interrupt_Enable(void){

	__enable_irq();
	return 1;
}
 80032ee:	2001      	movs	r0, #1
 80032f0:	4770      	bx	lr
 80032f2:	46c0      	nop			@ (mov r8, r8)

080032f4 <Get_Status_Bit>:
	return 1;
}

enum Validate Get_Status_Bit(volatile uint32_t *bits, enum Status_Bit bit){

    if(*bits & bit){
 80032f4:	6800      	ldr	r0, [r0, #0]
 80032f6:	4008      	ands	r0, r1
 80032f8:	1e43      	subs	r3, r0, #1
 80032fa:	4198      	sbcs	r0, r3

    else{

        return (enum Validate) NO;
    }
}
 80032fc:	b2c0      	uxtb	r0, r0
 80032fe:	4770      	bx	lr

08003300 <Set_Status_Bit>:

void Set_Status_Bit(volatile uint32_t *bits, enum Status_Bit bit){

	*bits |= bit;
 8003300:	6803      	ldr	r3, [r0, #0]
 8003302:	4319      	orrs	r1, r3
 8003304:	6001      	str	r1, [r0, #0]
}
 8003306:	4770      	bx	lr

08003308 <Clear_Status_Bit>:

void Clear_Status_Bit(volatile uint32_t *bits, enum Status_Bit bit){

	*bits &= ~bit;
 8003308:	6803      	ldr	r3, [r0, #0]
 800330a:	438b      	bics	r3, r1
 800330c:	6003      	str	r3, [r0, #0]
}
 800330e:	4770      	bx	lr

08003310 <Reset_Handler>:

  .section .text.Reset_Handler
  .weak Reset_Handler
  .type Reset_Handler, %function
Reset_Handler:
  ldr   r0, =_estack
 8003310:	480d      	ldr	r0, [pc, #52]	@ (8003348 <LoopForever+0x2>)
  mov   sp, r0          /* set stack pointer */
 8003312:	4685      	mov	sp, r0

/* Call the clock system initialization function.*/
  bl  SystemInit
 8003314:	f7ff ffb4 	bl	8003280 <SystemInit>

/* Copy the data segment initializers from flash to SRAM */
  ldr r0, =_sdata
 8003318:	480c      	ldr	r0, [pc, #48]	@ (800334c <LoopForever+0x6>)
  ldr r1, =_edata
 800331a:	490d      	ldr	r1, [pc, #52]	@ (8003350 <LoopForever+0xa>)
  ldr r2, =_sidata
 800331c:	4a0d      	ldr	r2, [pc, #52]	@ (8003354 <LoopForever+0xe>)
  movs r3, #0
 800331e:	2300      	movs	r3, #0
  b LoopCopyDataInit
 8003320:	e002      	b.n	8003328 <LoopCopyDataInit>

08003322 <CopyDataInit>:

CopyDataInit:
  ldr r4, [r2, r3]
 8003322:	58d4      	ldr	r4, [r2, r3]
  str r4, [r0, r3]
 8003324:	50c4      	str	r4, [r0, r3]
  adds r3, r3, #4
 8003326:	3304      	adds	r3, #4

08003328 <LoopCopyDataInit>:

LoopCopyDataInit:
  adds r4, r0, r3
 8003328:	18c4      	adds	r4, r0, r3
  cmp r4, r1
 800332a:	428c      	cmp	r4, r1
  bcc CopyDataInit
 800332c:	d3f9      	bcc.n	8003322 <CopyDataInit>

/* Zero fill the bss segment. */
  ldr r2, =_sbss
 800332e:	4a0a      	ldr	r2, [pc, #40]	@ (8003358 <LoopForever+0x12>)
  ldr r4, =_ebss
 8003330:	4c0a      	ldr	r4, [pc, #40]	@ (800335c <LoopForever+0x16>)
  movs r3, #0
 8003332:	2300      	movs	r3, #0
  b LoopFillZerobss
 8003334:	e001      	b.n	800333a <LoopFillZerobss>

08003336 <FillZerobss>:

FillZerobss:
  str  r3, [r2]
 8003336:	6013      	str	r3, [r2, #0]
  adds r2, r2, #4
 8003338:	3204      	adds	r2, #4

0800333a <LoopFillZerobss>:

LoopFillZerobss:
  cmp r2, r4
 800333a:	42a2      	cmp	r2, r4
  bcc FillZerobss
 800333c:	d3fb      	bcc.n	8003336 <FillZerobss>

/* Call static constructors */
  bl __libc_init_array
 800333e:	f004 fc4b 	bl	8007bd8 <__libc_init_array>
/* Call the application s entry point.*/
  bl main
 8003342:	f7ff f8ef 	bl	8002524 <main>

08003346 <LoopForever>:

LoopForever:
  b LoopForever
 8003346:	e7fe      	b.n	8003346 <LoopForever>
  ldr   r0, =_estack
 8003348:	20002000 	.word	0x20002000
  ldr r0, =_sdata
 800334c:	20000000 	.word	0x20000000
  ldr r1, =_edata
 8003350:	2000044c 	.word	0x2000044c
  ldr r2, =_sidata
 8003354:	08008794 	.word	0x08008794
  ldr r2, =_sbss
 8003358:	20000450 	.word	0x20000450
  ldr r4, =_ebss
 800335c:	20000cc4 	.word	0x20000cc4

08003360 <ADC1_IRQHandler>:
 * @retval None
*/
  .section .text.Default_Handler,"ax",%progbits
Default_Handler:
Infinite_Loop:
  b Infinite_Loop
 8003360:	e7fe      	b.n	8003360 <ADC1_IRQHandler>
	...

08003364 <HAL_InitTick>:
  *       implementation  in user file.
  * @param TickPriority Tick interrupt priority.
  * @retval HAL status
  */
__weak HAL_StatusTypeDef HAL_InitTick(uint32_t TickPriority)
{
 8003364:	b570      	push	{r4, r5, r6, lr}
  HAL_StatusTypeDef  status = HAL_OK;

  /* Check uwTickFreq for MisraC 2012 (even if uwTickFreq is a enum type that doesn't take the value zero)*/ 
  if ((uint32_t)uwTickFreq != 0U)
 8003366:	4b0f      	ldr	r3, [pc, #60]	@ (80033a4 <HAL_InitTick+0x40>)
{
 8003368:	0004      	movs	r4, r0
  if ((uint32_t)uwTickFreq != 0U)
 800336a:	7819      	ldrb	r1, [r3, #0]
 800336c:	2900      	cmp	r1, #0
 800336e:	d101      	bne.n	8003374 <HAL_InitTick+0x10>
        status = HAL_ERROR;
      }
    }
    else
    {
      status = HAL_ERROR;
 8003370:	2001      	movs	r0, #1
    status = HAL_ERROR;
  }

  /* Return function status */
  return status;
}
 8003372:	bd70      	pop	{r4, r5, r6, pc}
    if (HAL_SYSTICK_Config(SystemCoreClock / (1000U /(uint32_t)uwTickFreq)) == 0U)
 8003374:	20fa      	movs	r0, #250	@ 0xfa
 8003376:	0080      	lsls	r0, r0, #2
 8003378:	f7fc fec4 	bl	8000104 <__udivsi3>
 800337c:	4d0a      	ldr	r5, [pc, #40]	@ (80033a8 <HAL_InitTick+0x44>)
 800337e:	0001      	movs	r1, r0
 8003380:	6828      	ldr	r0, [r5, #0]
 8003382:	f7fc febf 	bl	8000104 <__udivsi3>
 8003386:	f000 fdef 	bl	8003f68 <HAL_SYSTICK_Config>
 800338a:	2800      	cmp	r0, #0
 800338c:	d1f0      	bne.n	8003370 <HAL_InitTick+0xc>
      if (TickPriority < (1UL << __NVIC_PRIO_BITS))
 800338e:	2c03      	cmp	r4, #3
 8003390:	d8ee      	bhi.n	8003370 <HAL_InitTick+0xc>
        HAL_NVIC_SetPriority(SysTick_IRQn, TickPriority, 0U);
 8003392:	3801      	subs	r0, #1
 8003394:	2200      	movs	r2, #0
 8003396:	0021      	movs	r1, r4
 8003398:	f000 fda0 	bl	8003edc <HAL_NVIC_SetPriority>
        uwTickPrio = TickPriority;
 800339c:	4b03      	ldr	r3, [pc, #12]	@ (80033ac <HAL_InitTick+0x48>)
 800339e:	2000      	movs	r0, #0
 80033a0:	601c      	str	r4, [r3, #0]
  return status;
 80033a2:	e7e6      	b.n	8003372 <HAL_InitTick+0xe>
 80033a4:	20000444 	.word	0x20000444
 80033a8:	20000440 	.word	0x20000440
 80033ac:	20000448 	.word	0x20000448

080033b0 <HAL_Init>:
  __HAL_FLASH_PREFETCH_BUFFER_ENABLE();
 80033b0:	2380      	movs	r3, #128	@ 0x80
 80033b2:	4a08      	ldr	r2, [pc, #32]	@ (80033d4 <HAL_Init+0x24>)
 80033b4:	005b      	lsls	r3, r3, #1
 80033b6:	6811      	ldr	r1, [r2, #0]
{
 80033b8:	b510      	push	{r4, lr}
  __HAL_FLASH_PREFETCH_BUFFER_ENABLE();
 80033ba:	430b      	orrs	r3, r1
  if (HAL_InitTick(TICK_INT_PRIORITY) != HAL_OK)
 80033bc:	2000      	movs	r0, #0
  __HAL_FLASH_PREFETCH_BUFFER_ENABLE();
 80033be:	6013      	str	r3, [r2, #0]
  if (HAL_InitTick(TICK_INT_PRIORITY) != HAL_OK)
 80033c0:	f7ff ffd0 	bl	8003364 <HAL_InitTick>
 80033c4:	1e04      	subs	r4, r0, #0
 80033c6:	d002      	beq.n	80033ce <HAL_Init+0x1e>
    status = HAL_ERROR;
 80033c8:	2401      	movs	r4, #1
}
 80033ca:	0020      	movs	r0, r4
 80033cc:	bd10      	pop	{r4, pc}
  HAL_MspInit();
 80033ce:	f7ff fb6f 	bl	8002ab0 <HAL_MspInit>
 80033d2:	e7fa      	b.n	80033ca <HAL_Init+0x1a>
 80033d4:	40022000 	.word	0x40022000

080033d8 <HAL_IncTick>:
  *      implementations in user file.
  * @retval None
  */
__weak void HAL_IncTick(void)
{
  uwTick += (uint32_t)uwTickFreq;
 80033d8:	4a03      	ldr	r2, [pc, #12]	@ (80033e8 <HAL_IncTick+0x10>)
 80033da:	4b04      	ldr	r3, [pc, #16]	@ (80033ec <HAL_IncTick+0x14>)
 80033dc:	6811      	ldr	r1, [r2, #0]
 80033de:	781b      	ldrb	r3, [r3, #0]
 80033e0:	185b      	adds	r3, r3, r1
 80033e2:	6013      	str	r3, [r2, #0]
}
 80033e4:	4770      	bx	lr
 80033e6:	46c0      	nop			@ (mov r8, r8)
 80033e8:	20000cc0 	.word	0x20000cc0
 80033ec:	20000444 	.word	0x20000444

080033f0 <HAL_GetTick>:
  *       implementations in user file.
  * @retval tick value
  */
__weak uint32_t HAL_GetTick(void)
{
  return uwTick;
 80033f0:	4b01      	ldr	r3, [pc, #4]	@ (80033f8 <HAL_GetTick+0x8>)
 80033f2:	6818      	ldr	r0, [r3, #0]
}
 80033f4:	4770      	bx	lr
 80033f6:	46c0      	nop			@ (mov r8, r8)
 80033f8:	20000cc0 	.word	0x20000cc0

080033fc <ADC_DMAConvCplt>:
{
  /* Retrieve ADC handle corresponding to current DMA handle */
  ADC_HandleTypeDef *hadc = (ADC_HandleTypeDef *)((DMA_HandleTypeDef *)hdma)->Parent;

  /* Update state machine on conversion status if not in error state */
  if ((hadc->State & (HAL_ADC_STATE_ERROR_INTERNAL | HAL_ADC_STATE_ERROR_DMA)) == 0UL)
 80033fc:	2150      	movs	r1, #80	@ 0x50
{
 80033fe:	0003      	movs	r3, r0
  ADC_HandleTypeDef *hadc = (ADC_HandleTypeDef *)((DMA_HandleTypeDef *)hdma)->Parent;
 8003400:	6a80      	ldr	r0, [r0, #40]	@ 0x28
{
 8003402:	b510      	push	{r4, lr}
  if ((hadc->State & (HAL_ADC_STATE_ERROR_INTERNAL | HAL_ADC_STATE_ERROR_DMA)) == 0UL)
 8003404:	6d82      	ldr	r2, [r0, #88]	@ 0x58
 8003406:	4211      	tst	r1, r2
 8003408:	d10d      	bne.n	8003426 <ADC_DMAConvCplt+0x2a>
  {
    /* Set ADC state */
    SET_BIT(hadc->State, HAL_ADC_STATE_REG_EOC);
 800340a:	2380      	movs	r3, #128	@ 0x80
 800340c:	6d82      	ldr	r2, [r0, #88]	@ 0x58
 800340e:	009b      	lsls	r3, r3, #2
 8003410:	4313      	orrs	r3, r2
  * @retval Value "0" if trigger source external trigger
  *         Value "1" if trigger source SW start.
  */
__STATIC_INLINE uint32_t LL_ADC_REG_IsTriggerSourceSWStart(const ADC_TypeDef *ADCx)
{
  return ((READ_BIT(ADCx->CFGR1, ADC_CFGR1_EXTEN) == (LL_ADC_REG_TRIG_SOFTWARE & ADC_CFGR1_EXTEN)) ? 1UL : 0UL);
 8003412:	22c0      	movs	r2, #192	@ 0xc0
 8003414:	6583      	str	r3, [r0, #88]	@ 0x58

    /* Determine whether any further conversion upcoming on group regular     */
    /* by external trigger, continuous mode or scan sequence on going         */
    /* to disable interruption.                                               */
    if ((LL_ADC_REG_IsTriggerSourceSWStart(hadc->Instance) != 0UL)
 8003416:	6803      	ldr	r3, [r0, #0]
 8003418:	0112      	lsls	r2, r2, #4
 800341a:	68d9      	ldr	r1, [r3, #12]
 800341c:	4211      	tst	r1, r2
 800341e:	d00d      	beq.n	800343c <ADC_DMAConvCplt+0x40>
      }
    }

    /* Conversion complete callback */
#if (USE_HAL_ADC_REGISTER_CALLBACKS == 1)
    hadc->ConvCpltCallback(hadc);
 8003420:	6e43      	ldr	r3, [r0, #100]	@ 0x64
 8003422:	4798      	blx	r3
    {
      /* Call ADC DMA error callback */
      hadc->DMA_Handle->XferErrorCallback(hdma);
    }
  }
}
 8003424:	bd10      	pop	{r4, pc}
    if ((hadc->State & HAL_ADC_STATE_ERROR_INTERNAL) != 0UL)
 8003426:	6d82      	ldr	r2, [r0, #88]	@ 0x58
 8003428:	06d2      	lsls	r2, r2, #27
 800342a:	d502      	bpl.n	8003432 <ADC_DMAConvCplt+0x36>
      hadc->ErrorCallback(hadc);
 800342c:	6f03      	ldr	r3, [r0, #112]	@ 0x70
 800342e:	4798      	blx	r3
 8003430:	e7f8      	b.n	8003424 <ADC_DMAConvCplt+0x28>
      hadc->DMA_Handle->XferErrorCallback(hdma);
 8003432:	6d02      	ldr	r2, [r0, #80]	@ 0x50
 8003434:	0018      	movs	r0, r3
 8003436:	6b52      	ldr	r2, [r2, #52]	@ 0x34
 8003438:	4790      	blx	r2
}
 800343a:	e7f3      	b.n	8003424 <ADC_DMAConvCplt+0x28>
        && (hadc->Init.ContinuousConvMode == DISABLE)
 800343c:	7e82      	ldrb	r2, [r0, #26]
 800343e:	2a00      	cmp	r2, #0
 8003440:	d1ee      	bne.n	8003420 <ADC_DMAConvCplt+0x24>
      if (__HAL_ADC_GET_FLAG(hadc, ADC_FLAG_EOS))
 8003442:	681a      	ldr	r2, [r3, #0]
 8003444:	0712      	lsls	r2, r2, #28
 8003446:	d5eb      	bpl.n	8003420 <ADC_DMAConvCplt+0x24>
  * @param  ADCx ADC instance
  * @retval 0: no conversion is on going on ADC group regular.
  */
__STATIC_INLINE uint32_t LL_ADC_REG_IsConversionOngoing(const ADC_TypeDef *ADCx)
{
  return ((READ_BIT(ADCx->CR, ADC_CR_ADSTART) == (ADC_CR_ADSTART)) ? 1UL : 0UL);
 8003448:	689a      	ldr	r2, [r3, #8]
 800344a:	0752      	lsls	r2, r2, #29
 800344c:	d508      	bpl.n	8003460 <ADC_DMAConvCplt+0x64>
          SET_BIT(hadc->State, HAL_ADC_STATE_ERROR_CONFIG);
 800344e:	2220      	movs	r2, #32
 8003450:	6d83      	ldr	r3, [r0, #88]	@ 0x58
 8003452:	4313      	orrs	r3, r2
 8003454:	6583      	str	r3, [r0, #88]	@ 0x58
          SET_BIT(hadc->ErrorCode, HAL_ADC_ERROR_INTERNAL);
 8003456:	6dc3      	ldr	r3, [r0, #92]	@ 0x5c
 8003458:	3a1f      	subs	r2, #31
 800345a:	4313      	orrs	r3, r2
 800345c:	65c3      	str	r3, [r0, #92]	@ 0x5c
 800345e:	e7df      	b.n	8003420 <ADC_DMAConvCplt+0x24>
          __HAL_ADC_DISABLE_IT(hadc, ADC_IT_EOC | ADC_IT_EOS);
 8003460:	210c      	movs	r1, #12
 8003462:	685a      	ldr	r2, [r3, #4]
 8003464:	438a      	bics	r2, r1
 8003466:	605a      	str	r2, [r3, #4]
          ADC_STATE_CLR_SET(hadc->State,
 8003468:	6d83      	ldr	r3, [r0, #88]	@ 0x58
 800346a:	4a03      	ldr	r2, [pc, #12]	@ (8003478 <ADC_DMAConvCplt+0x7c>)
 800346c:	4013      	ands	r3, r2
 800346e:	3204      	adds	r2, #4
 8003470:	32ff      	adds	r2, #255	@ 0xff
 8003472:	4313      	orrs	r3, r2
 8003474:	6583      	str	r3, [r0, #88]	@ 0x58
 8003476:	e7d3      	b.n	8003420 <ADC_DMAConvCplt+0x24>
 8003478:	fffffefe 	.word	0xfffffefe

0800347c <ADC_DMAHalfConvCplt>:
  * @brief  DMA half transfer complete callback.
  * @param hdma pointer to DMA handle.
  * @retval None
  */
static void ADC_DMAHalfConvCplt(DMA_HandleTypeDef *hdma)
{
 800347c:	b510      	push	{r4, lr}
  /* Retrieve ADC handle corresponding to current DMA handle */
  ADC_HandleTypeDef *hadc = (ADC_HandleTypeDef *)((DMA_HandleTypeDef *)hdma)->Parent;
 800347e:	6a80      	ldr	r0, [r0, #40]	@ 0x28

  /* Half conversion callback */
#if (USE_HAL_ADC_REGISTER_CALLBACKS == 1)
  hadc->ConvHalfCpltCallback(hadc);
 8003480:	6e83      	ldr	r3, [r0, #104]	@ 0x68
 8003482:	4798      	blx	r3
#else
  HAL_ADC_ConvHalfCpltCallback(hadc);
#endif /* USE_HAL_ADC_REGISTER_CALLBACKS */
}
 8003484:	bd10      	pop	{r4, pc}
 8003486:	46c0      	nop			@ (mov r8, r8)

08003488 <ADC_DMAError>:
{
  /* Retrieve ADC handle corresponding to current DMA handle */
  ADC_HandleTypeDef *hadc = (ADC_HandleTypeDef *)((DMA_HandleTypeDef *)hdma)->Parent;

  /* Set ADC state */
  SET_BIT(hadc->State, HAL_ADC_STATE_ERROR_DMA);
 8003488:	2240      	movs	r2, #64	@ 0x40
  ADC_HandleTypeDef *hadc = (ADC_HandleTypeDef *)((DMA_HandleTypeDef *)hdma)->Parent;
 800348a:	6a80      	ldr	r0, [r0, #40]	@ 0x28
{
 800348c:	b510      	push	{r4, lr}
  SET_BIT(hadc->State, HAL_ADC_STATE_ERROR_DMA);
 800348e:	6d83      	ldr	r3, [r0, #88]	@ 0x58
 8003490:	4313      	orrs	r3, r2
 8003492:	6583      	str	r3, [r0, #88]	@ 0x58

  /* Set ADC error code to DMA error */
  SET_BIT(hadc->ErrorCode, HAL_ADC_ERROR_DMA);
 8003494:	6dc3      	ldr	r3, [r0, #92]	@ 0x5c
 8003496:	3a3c      	subs	r2, #60	@ 0x3c
 8003498:	4313      	orrs	r3, r2
 800349a:	65c3      	str	r3, [r0, #92]	@ 0x5c

  /* Error callback */
#if (USE_HAL_ADC_REGISTER_CALLBACKS == 1)
  hadc->ErrorCallback(hadc);
 800349c:	6f03      	ldr	r3, [r0, #112]	@ 0x70
 800349e:	4798      	blx	r3
#else
  HAL_ADC_ErrorCallback(hadc);
#endif /* USE_HAL_ADC_REGISTER_CALLBACKS */
}
 80034a0:	bd10      	pop	{r4, pc}
 80034a2:	46c0      	nop			@ (mov r8, r8)

080034a4 <HAL_ADC_ErrorCallback>:
__weak void HAL_ADC_ErrorCallback(ADC_HandleTypeDef *hadc)
 80034a4:	4770      	bx	lr
 80034a6:	46c0      	nop			@ (mov r8, r8)

080034a8 <HAL_ADC_ConvCpltCallback>:
__weak void HAL_ADC_ConvCpltCallback(ADC_HandleTypeDef *hadc)
 80034a8:	4770      	bx	lr
 80034aa:	46c0      	nop			@ (mov r8, r8)

080034ac <HAL_ADC_ConvHalfCpltCallback>:
__weak void HAL_ADC_ConvHalfCpltCallback(ADC_HandleTypeDef *hadc)
 80034ac:	4770      	bx	lr
 80034ae:	46c0      	nop			@ (mov r8, r8)

080034b0 <HAL_ADC_LevelOutOfWindowCallback>:
__weak void HAL_ADC_LevelOutOfWindowCallback(ADC_HandleTypeDef *hadc)
 80034b0:	4770      	bx	lr
 80034b2:	46c0      	nop			@ (mov r8, r8)

080034b4 <HAL_ADC_Init>:
{
 80034b4:	b5f0      	push	{r4, r5, r6, r7, lr}
 80034b6:	46d6      	mov	lr, sl
 80034b8:	464f      	mov	r7, r9
 80034ba:	4646      	mov	r6, r8
  __IO uint32_t wait_loop_index = 0UL;
 80034bc:	2300      	movs	r3, #0
{
 80034be:	b5c0      	push	{r6, r7, lr}
 80034c0:	b082      	sub	sp, #8
 80034c2:	1e04      	subs	r4, r0, #0
  __IO uint32_t wait_loop_index = 0UL;
 80034c4:	9301      	str	r3, [sp, #4]
  if (hadc == NULL)
 80034c6:	d044      	beq.n	8003552 <HAL_ADC_Init+0x9e>
  if (hadc->State == HAL_ADC_STATE_RESET)
 80034c8:	6d83      	ldr	r3, [r0, #88]	@ 0x58
 80034ca:	2b00      	cmp	r3, #0
 80034cc:	d118      	bne.n	8003500 <HAL_ADC_Init+0x4c>
    if (hadc->MspInitCallback == NULL)
 80034ce:	2280      	movs	r2, #128	@ 0x80
    hadc->ConvCpltCallback              = HAL_ADC_ConvCpltCallback;                 /* Legacy weak callback */
 80034d0:	4b89      	ldr	r3, [pc, #548]	@ (80036f8 <HAL_ADC_Init+0x244>)
 80034d2:	6643      	str	r3, [r0, #100]	@ 0x64
    hadc->ConvHalfCpltCallback          = HAL_ADC_ConvHalfCpltCallback;             /* Legacy weak callback */
 80034d4:	4b89      	ldr	r3, [pc, #548]	@ (80036fc <HAL_ADC_Init+0x248>)
 80034d6:	6683      	str	r3, [r0, #104]	@ 0x68
    hadc->LevelOutOfWindowCallback      = HAL_ADC_LevelOutOfWindowCallback;         /* Legacy weak callback */
 80034d8:	4b89      	ldr	r3, [pc, #548]	@ (8003700 <HAL_ADC_Init+0x24c>)
 80034da:	66c3      	str	r3, [r0, #108]	@ 0x6c
    hadc->ErrorCallback                 = HAL_ADC_ErrorCallback;                    /* Legacy weak callback */
 80034dc:	4b89      	ldr	r3, [pc, #548]	@ (8003704 <HAL_ADC_Init+0x250>)
 80034de:	6703      	str	r3, [r0, #112]	@ 0x70
    hadc->LevelOutOfWindow2Callback     = HAL_ADCEx_LevelOutOfWindow2Callback;      /* Legacy weak callback */
 80034e0:	4b89      	ldr	r3, [pc, #548]	@ (8003708 <HAL_ADC_Init+0x254>)
 80034e2:	6743      	str	r3, [r0, #116]	@ 0x74
    hadc->LevelOutOfWindow3Callback     = HAL_ADCEx_LevelOutOfWindow3Callback;      /* Legacy weak callback */
 80034e4:	4b89      	ldr	r3, [pc, #548]	@ (800370c <HAL_ADC_Init+0x258>)
 80034e6:	6783      	str	r3, [r0, #120]	@ 0x78
    hadc->EndOfSamplingCallback         = HAL_ADCEx_EndOfSamplingCallback;          /* Legacy weak callback */
 80034e8:	4b89      	ldr	r3, [pc, #548]	@ (8003710 <HAL_ADC_Init+0x25c>)
 80034ea:	67c3      	str	r3, [r0, #124]	@ 0x7c
    if (hadc->MspInitCallback == NULL)
 80034ec:	5883      	ldr	r3, [r0, r2]
 80034ee:	2b00      	cmp	r3, #0
 80034f0:	d100      	bne.n	80034f4 <HAL_ADC_Init+0x40>
 80034f2:	e0e3      	b.n	80036bc <HAL_ADC_Init+0x208>
    hadc->MspInitCallback(hadc);
 80034f4:	0020      	movs	r0, r4
 80034f6:	4798      	blx	r3
    ADC_CLEAR_ERRORCODE(hadc);
 80034f8:	2300      	movs	r3, #0
    hadc->Lock = HAL_UNLOCKED;
 80034fa:	2254      	movs	r2, #84	@ 0x54
    ADC_CLEAR_ERRORCODE(hadc);
 80034fc:	65e3      	str	r3, [r4, #92]	@ 0x5c
    hadc->Lock = HAL_UNLOCKED;
 80034fe:	54a3      	strb	r3, [r4, r2]
  return ((READ_BIT(ADCx->CR, ADC_CR_ADVREGEN) == (ADC_CR_ADVREGEN)) ? 1UL : 0UL);
 8003500:	2380      	movs	r3, #128	@ 0x80
  if (LL_ADC_IsInternalRegulatorEnabled(hadc->Instance) == 0UL)
 8003502:	6825      	ldr	r5, [r4, #0]
 8003504:	055b      	lsls	r3, r3, #21
 8003506:	68aa      	ldr	r2, [r5, #8]
 8003508:	421a      	tst	r2, r3
 800350a:	d115      	bne.n	8003538 <HAL_ADC_Init+0x84>
  MODIFY_REG(ADCx->CR,
 800350c:	68aa      	ldr	r2, [r5, #8]
 800350e:	4981      	ldr	r1, [pc, #516]	@ (8003714 <HAL_ADC_Init+0x260>)
 8003510:	400a      	ands	r2, r1
 8003512:	4313      	orrs	r3, r2
 8003514:	60ab      	str	r3, [r5, #8]
    wait_loop_index = ((LL_ADC_DELAY_INTERNAL_REGUL_STAB_US / 10UL) * ((SystemCoreClock / (100000UL * 2UL)) + 1UL));
 8003516:	4b80      	ldr	r3, [pc, #512]	@ (8003718 <HAL_ADC_Init+0x264>)
 8003518:	4980      	ldr	r1, [pc, #512]	@ (800371c <HAL_ADC_Init+0x268>)
 800351a:	6818      	ldr	r0, [r3, #0]
 800351c:	f7fc fdf2 	bl	8000104 <__udivsi3>
 8003520:	3001      	adds	r0, #1
 8003522:	0040      	lsls	r0, r0, #1
 8003524:	9001      	str	r0, [sp, #4]
    while (wait_loop_index != 0UL)
 8003526:	9b01      	ldr	r3, [sp, #4]
 8003528:	2b00      	cmp	r3, #0
 800352a:	d005      	beq.n	8003538 <HAL_ADC_Init+0x84>
      wait_loop_index--;
 800352c:	9b01      	ldr	r3, [sp, #4]
 800352e:	3b01      	subs	r3, #1
 8003530:	9301      	str	r3, [sp, #4]
    while (wait_loop_index != 0UL)
 8003532:	9b01      	ldr	r3, [sp, #4]
 8003534:	2b00      	cmp	r3, #0
 8003536:	d1f9      	bne.n	800352c <HAL_ADC_Init+0x78>
  return ((READ_BIT(ADCx->CR, ADC_CR_ADVREGEN) == (ADC_CR_ADVREGEN)) ? 1UL : 0UL);
 8003538:	68ab      	ldr	r3, [r5, #8]
  HAL_StatusTypeDef tmp_hal_status = HAL_OK;
 800353a:	2000      	movs	r0, #0
 800353c:	00db      	lsls	r3, r3, #3
 800353e:	d400      	bmi.n	8003542 <HAL_ADC_Init+0x8e>
 8003540:	e09d      	b.n	800367e <HAL_ADC_Init+0x1ca>
  return ((READ_BIT(ADCx->CR, ADC_CR_ADSTART) == (ADC_CR_ADSTART)) ? 1UL : 0UL);
 8003542:	68ab      	ldr	r3, [r5, #8]
 8003544:	075b      	lsls	r3, r3, #29
 8003546:	d50b      	bpl.n	8003560 <HAL_ADC_Init+0xac>
  if (((hadc->State & HAL_ADC_STATE_ERROR_INTERNAL) == 0UL)
 8003548:	6da3      	ldr	r3, [r4, #88]	@ 0x58
    SET_BIT(hadc->State, HAL_ADC_STATE_ERROR_INTERNAL);
 800354a:	2210      	movs	r2, #16
 800354c:	6da3      	ldr	r3, [r4, #88]	@ 0x58
 800354e:	4313      	orrs	r3, r2
 8003550:	65a3      	str	r3, [r4, #88]	@ 0x58
    return HAL_ERROR;
 8003552:	2001      	movs	r0, #1
}
 8003554:	b002      	add	sp, #8
 8003556:	bce0      	pop	{r5, r6, r7}
 8003558:	46ba      	mov	sl, r7
 800355a:	46b1      	mov	r9, r6
 800355c:	46a8      	mov	r8, r5
 800355e:	bdf0      	pop	{r4, r5, r6, r7, pc}
  if (((hadc->State & HAL_ADC_STATE_ERROR_INTERNAL) == 0UL)
 8003560:	6da3      	ldr	r3, [r4, #88]	@ 0x58
 8003562:	06db      	lsls	r3, r3, #27
 8003564:	d4f1      	bmi.n	800354a <HAL_ADC_Init+0x96>
    ADC_STATE_CLR_SET(hadc->State,
 8003566:	6da3      	ldr	r3, [r4, #88]	@ 0x58
 8003568:	4a6d      	ldr	r2, [pc, #436]	@ (8003720 <HAL_ADC_Init+0x26c>)
                    ADC_SCAN_SEQ_MODE(hadc->Init.ScanConvMode)                     |
 800356a:	6921      	ldr	r1, [r4, #16]
    ADC_STATE_CLR_SET(hadc->State,
 800356c:	4013      	ands	r3, r2
 800356e:	3206      	adds	r2, #6
 8003570:	32ff      	adds	r2, #255	@ 0xff
 8003572:	4313      	orrs	r3, r2
 8003574:	65a3      	str	r3, [r4, #88]	@ 0x58
  return ((READ_BIT(ADCx->CR, ADC_CR_ADEN) == (ADC_CR_ADEN)) ? 1UL : 0UL);
 8003576:	68ab      	ldr	r3, [r5, #8]
 8003578:	07db      	lsls	r3, r3, #31
 800357a:	d45c      	bmi.n	8003636 <HAL_ADC_Init+0x182>
                    ADC_CFGR1_OVERRUN(hadc->Init.Overrun)                          |
 800357c:	6b27      	ldr	r7, [r4, #48]	@ 0x30
 800357e:	68a2      	ldr	r2, [r4, #8]
 8003580:	1e7b      	subs	r3, r7, #1
 8003582:	419f      	sbcs	r7, r3
 8003584:	68e3      	ldr	r3, [r4, #12]
                    ADC_CFGR1_CONTINUOUS((uint32_t)hadc->Init.ContinuousConvMode)  |
 8003586:	7ea6      	ldrb	r6, [r4, #26]
 8003588:	431a      	orrs	r2, r3
                    ADC_CFGR1_AUTOWAIT((uint32_t)hadc->Init.LowPowerAutoWait)      |
 800358a:	7e23      	ldrb	r3, [r4, #24]
                    ADC_CFGR1_OVERRUN(hadc->Init.Overrun)                          |
 800358c:	033f      	lsls	r7, r7, #12
                    ADC_CFGR1_AUTOWAIT((uint32_t)hadc->Init.LowPowerAutoWait)      |
 800358e:	039b      	lsls	r3, r3, #14
 8003590:	431a      	orrs	r2, r3
                    ADC_CFGR1_AUTOOFF((uint32_t)hadc->Init.LowPowerAutoPowerOff)   |
 8003592:	7e63      	ldrb	r3, [r4, #25]
 8003594:	03db      	lsls	r3, r3, #15
 8003596:	431a      	orrs	r2, r3
                    ADC_CFGR1_CONTINUOUS((uint32_t)hadc->Init.ContinuousConvMode)  |
 8003598:	0373      	lsls	r3, r6, #13
 800359a:	431a      	orrs	r2, r3
                    ADC_SCAN_SEQ_MODE(hadc->Init.ScanConvMode)                     |
 800359c:	2900      	cmp	r1, #0
 800359e:	da00      	bge.n	80035a2 <HAL_ADC_Init+0xee>
 80035a0:	e098      	b.n	80036d4 <HAL_ADC_Init+0x220>
 80035a2:	2380      	movs	r3, #128	@ 0x80
 80035a4:	039b      	lsls	r3, r3, #14
 80035a6:	469c      	mov	ip, r3
                    ADC_CFGR1_DMACONTREQ((uint32_t)hadc->Init.DMAContinuousRequests));
 80035a8:	232c      	movs	r3, #44	@ 0x2c
 80035aa:	5ce3      	ldrb	r3, [r4, r3]
 80035ac:	005b      	lsls	r3, r3, #1
                    ADC_SCAN_SEQ_MODE(hadc->Init.ScanConvMode)                     |
 80035ae:	4313      	orrs	r3, r2
 80035b0:	433b      	orrs	r3, r7
 80035b2:	4662      	mov	r2, ip
      if (hadc->Init.DiscontinuousConvMode == ENABLE)
 80035b4:	2720      	movs	r7, #32
                    ADC_SCAN_SEQ_MODE(hadc->Init.ScanConvMode)                     |
 80035b6:	4313      	orrs	r3, r2
      if (hadc->Init.DiscontinuousConvMode == ENABLE)
 80035b8:	5de2      	ldrb	r2, [r4, r7]
 80035ba:	2a01      	cmp	r2, #1
 80035bc:	d100      	bne.n	80035c0 <HAL_ADC_Init+0x10c>
 80035be:	e08d      	b.n	80036dc <HAL_ADC_Init+0x228>
      if (hadc->Init.ExternalTrigConv != ADC_SOFTWARE_START)
 80035c0:	6a62      	ldr	r2, [r4, #36]	@ 0x24
 80035c2:	2a00      	cmp	r2, #0
 80035c4:	d005      	beq.n	80035d2 <HAL_ADC_Init+0x11e>
        tmp_cfgr1 |= ((hadc->Init.ExternalTrigConv & ADC_CFGR1_EXTSEL) |
 80035c6:	26e0      	movs	r6, #224	@ 0xe0
 80035c8:	0076      	lsls	r6, r6, #1
 80035ca:	4032      	ands	r2, r6
 80035cc:	6aa6      	ldr	r6, [r4, #40]	@ 0x28
 80035ce:	4332      	orrs	r2, r6
 80035d0:	4313      	orrs	r3, r2
      if (hadc->Init.OversamplingMode == ENABLE)
 80035d2:	273c      	movs	r7, #60	@ 0x3c
      MODIFY_REG(hadc->Instance->CFGR1,
 80035d4:	68ea      	ldr	r2, [r5, #12]
 80035d6:	4e53      	ldr	r6, [pc, #332]	@ (8003724 <HAL_ADC_Init+0x270>)
 80035d8:	4032      	ands	r2, r6
 80035da:	4313      	orrs	r3, r2
      tmp_cfgr2 |= ((hadc->Init.ClockPrescaler & ADC_CFGR2_CKMODE) |
 80035dc:	6866      	ldr	r6, [r4, #4]
      MODIFY_REG(hadc->Instance->CFGR1,
 80035de:	60eb      	str	r3, [r5, #12]
      tmp_cfgr2 |= ((hadc->Init.ClockPrescaler & ADC_CFGR2_CKMODE) |
 80035e0:	6ce2      	ldr	r2, [r4, #76]	@ 0x4c
      if (hadc->Init.OversamplingMode == ENABLE)
 80035e2:	5de7      	ldrb	r7, [r4, r7]
      tmp_cfgr2 |= ((hadc->Init.ClockPrescaler & ADC_CFGR2_CKMODE) |
 80035e4:	0fb3      	lsrs	r3, r6, #30
 80035e6:	079b      	lsls	r3, r3, #30
 80035e8:	469a      	mov	sl, r3
      if (hadc->Init.OversamplingMode == ENABLE)
 80035ea:	46bc      	mov	ip, r7
      tmp_cfgr2 |= ((hadc->Init.ClockPrescaler & ADC_CFGR2_CKMODE) |
 80035ec:	431a      	orrs	r2, r3
      if (hadc->Init.OversamplingMode == ENABLE)
 80035ee:	2f01      	cmp	r7, #1
 80035f0:	d109      	bne.n	8003606 <HAL_ADC_Init+0x152>
        tmp_cfgr2 |= (ADC_CFGR2_OVSE |
 80035f2:	6c67      	ldr	r7, [r4, #68]	@ 0x44
 80035f4:	6c23      	ldr	r3, [r4, #64]	@ 0x40
 80035f6:	433b      	orrs	r3, r7
 80035f8:	431a      	orrs	r2, r3
 80035fa:	4653      	mov	r3, sl
 80035fc:	6ca7      	ldr	r7, [r4, #72]	@ 0x48
 80035fe:	433a      	orrs	r2, r7
 8003600:	431a      	orrs	r2, r3
 8003602:	4663      	mov	r3, ip
 8003604:	431a      	orrs	r2, r3
      MODIFY_REG(hadc->Instance->CFGR2,
 8003606:	692b      	ldr	r3, [r5, #16]
 8003608:	4f47      	ldr	r7, [pc, #284]	@ (8003728 <HAL_ADC_Init+0x274>)
 800360a:	403b      	ands	r3, r7
 800360c:	4313      	orrs	r3, r2
      if (((hadc->Init.ClockPrescaler) != ADC_CLOCK_SYNC_PCLK_DIV1) &&
 800360e:	2280      	movs	r2, #128	@ 0x80
      MODIFY_REG(hadc->Instance->CFGR2,
 8003610:	612b      	str	r3, [r5, #16]
      if (((hadc->Init.ClockPrescaler) != ADC_CLOCK_SYNC_PCLK_DIV1) &&
 8003612:	0073      	lsls	r3, r6, #1
 8003614:	085b      	lsrs	r3, r3, #1
 8003616:	05d2      	lsls	r2, r2, #23
 8003618:	4293      	cmp	r3, r2
 800361a:	d00c      	beq.n	8003636 <HAL_ADC_Init+0x182>
          ((hadc->Init.ClockPrescaler) != ADC_CLOCK_SYNC_PCLK_DIV2) &&
 800361c:	2380      	movs	r3, #128	@ 0x80
 800361e:	061b      	lsls	r3, r3, #24
 8003620:	429e      	cmp	r6, r3
 8003622:	d008      	beq.n	8003636 <HAL_ADC_Init+0x182>
        MODIFY_REG(ADC1_COMMON->CCR,
 8003624:	4a41      	ldr	r2, [pc, #260]	@ (800372c <HAL_ADC_Init+0x278>)
 8003626:	4f42      	ldr	r7, [pc, #264]	@ (8003730 <HAL_ADC_Init+0x27c>)
 8003628:	6813      	ldr	r3, [r2, #0]
 800362a:	403b      	ands	r3, r7
 800362c:	27f0      	movs	r7, #240	@ 0xf0
 800362e:	03bf      	lsls	r7, r7, #14
 8003630:	403e      	ands	r6, r7
 8003632:	4333      	orrs	r3, r6
 8003634:	6013      	str	r3, [r2, #0]
  MODIFY_REG(ADCx->SMPR,
 8003636:	2607      	movs	r6, #7
 8003638:	2770      	movs	r7, #112	@ 0x70
 800363a:	696b      	ldr	r3, [r5, #20]
    LL_ADC_SetSamplingTimeCommonChannels(hadc->Instance, LL_ADC_SAMPLINGTIME_COMMON_1, hadc->Init.SamplingTimeCommon1);
 800363c:	6b62      	ldr	r2, [r4, #52]	@ 0x34
 800363e:	43b3      	bics	r3, r6
 8003640:	4313      	orrs	r3, r2
 8003642:	616b      	str	r3, [r5, #20]
 8003644:	696e      	ldr	r6, [r5, #20]
 8003646:	6ba3      	ldr	r3, [r4, #56]	@ 0x38
 8003648:	43be      	bics	r6, r7
 800364a:	011b      	lsls	r3, r3, #4
 800364c:	4333      	orrs	r3, r6
 800364e:	616b      	str	r3, [r5, #20]
    if (hadc->Init.ScanConvMode == ADC_SCAN_DISABLE)
 8003650:	2900      	cmp	r1, #0
 8003652:	d122      	bne.n	800369a <HAL_ADC_Init+0x1e6>
      SET_BIT(hadc->Instance->CHSELR,
 8003654:	2310      	movs	r3, #16
 8003656:	6aa9      	ldr	r1, [r5, #40]	@ 0x28
 8003658:	425b      	negs	r3, r3
 800365a:	430b      	orrs	r3, r1
 800365c:	62ab      	str	r3, [r5, #40]	@ 0x28
  return (uint32_t)((READ_BIT(ADCx->SMPR, ADC_SMPR_SMP1 << (SamplingTimeY & ADC_SAMPLING_TIME_SMP_SHIFT_MASK)))
 800365e:	2307      	movs	r3, #7
 8003660:	6969      	ldr	r1, [r5, #20]
 8003662:	400b      	ands	r3, r1
    if (LL_ADC_GetSamplingTimeCommonChannels(hadc->Instance, LL_ADC_SAMPLINGTIME_COMMON_1)
 8003664:	429a      	cmp	r2, r3
 8003666:	d02c      	beq.n	80036c2 <HAL_ADC_Init+0x20e>
      ADC_STATE_CLR_SET(hadc->State,
 8003668:	2212      	movs	r2, #18
 800366a:	6da3      	ldr	r3, [r4, #88]	@ 0x58
 800366c:	4393      	bics	r3, r2
 800366e:	3a02      	subs	r2, #2
 8003670:	4313      	orrs	r3, r2
 8003672:	65a3      	str	r3, [r4, #88]	@ 0x58
      SET_BIT(hadc->ErrorCode, HAL_ADC_ERROR_INTERNAL);
 8003674:	6de3      	ldr	r3, [r4, #92]	@ 0x5c
 8003676:	3a0f      	subs	r2, #15
 8003678:	4313      	orrs	r3, r2
 800367a:	65e3      	str	r3, [r4, #92]	@ 0x5c
      tmp_hal_status = HAL_ERROR;
 800367c:	e769      	b.n	8003552 <HAL_ADC_Init+0x9e>
    SET_BIT(hadc->State, HAL_ADC_STATE_ERROR_INTERNAL);
 800367e:	2210      	movs	r2, #16
 8003680:	6da3      	ldr	r3, [r4, #88]	@ 0x58
    tmp_hal_status = HAL_ERROR;
 8003682:	2001      	movs	r0, #1
    SET_BIT(hadc->State, HAL_ADC_STATE_ERROR_INTERNAL);
 8003684:	4313      	orrs	r3, r2
 8003686:	65a3      	str	r3, [r4, #88]	@ 0x58
    SET_BIT(hadc->ErrorCode, HAL_ADC_ERROR_INTERNAL);
 8003688:	6de3      	ldr	r3, [r4, #92]	@ 0x5c
 800368a:	3a0f      	subs	r2, #15
 800368c:	4313      	orrs	r3, r2
 800368e:	65e3      	str	r3, [r4, #92]	@ 0x5c
  return ((READ_BIT(ADCx->CR, ADC_CR_ADSTART) == (ADC_CR_ADSTART)) ? 1UL : 0UL);
 8003690:	68ab      	ldr	r3, [r5, #8]
 8003692:	075b      	lsls	r3, r3, #29
 8003694:	d400      	bmi.n	8003698 <HAL_ADC_Init+0x1e4>
 8003696:	e763      	b.n	8003560 <HAL_ADC_Init+0xac>
 8003698:	e756      	b.n	8003548 <HAL_ADC_Init+0x94>
    else if (hadc->Init.ScanConvMode == ADC_SCAN_ENABLE)
 800369a:	2380      	movs	r3, #128	@ 0x80
 800369c:	039b      	lsls	r3, r3, #14
 800369e:	4299      	cmp	r1, r3
 80036a0:	d1dd      	bne.n	800365e <HAL_ADC_Init+0x1aa>
      MODIFY_REG(hadc->Instance->CHSELR,
 80036a2:	211c      	movs	r1, #28
 80036a4:	6aab      	ldr	r3, [r5, #40]	@ 0x28
 80036a6:	69e3      	ldr	r3, [r4, #28]
 80036a8:	3b01      	subs	r3, #1
 80036aa:	009b      	lsls	r3, r3, #2
 80036ac:	4019      	ands	r1, r3
 80036ae:	2310      	movs	r3, #16
 80036b0:	425b      	negs	r3, r3
 80036b2:	408b      	lsls	r3, r1
 80036b4:	6e21      	ldr	r1, [r4, #96]	@ 0x60
 80036b6:	430b      	orrs	r3, r1
 80036b8:	62ab      	str	r3, [r5, #40]	@ 0x28
 80036ba:	e7d0      	b.n	800365e <HAL_ADC_Init+0x1aa>
      hadc->MspInitCallback = HAL_ADC_MspInit; /* Legacy weak MspInit  */
 80036bc:	4b1d      	ldr	r3, [pc, #116]	@ (8003734 <HAL_ADC_Init+0x280>)
 80036be:	5083      	str	r3, [r0, r2]
 80036c0:	e718      	b.n	80034f4 <HAL_ADC_Init+0x40>
      ADC_CLEAR_ERRORCODE(hadc);
 80036c2:	2300      	movs	r3, #0
      ADC_STATE_CLR_SET(hadc->State,
 80036c4:	2203      	movs	r2, #3
      ADC_CLEAR_ERRORCODE(hadc);
 80036c6:	65e3      	str	r3, [r4, #92]	@ 0x5c
      ADC_STATE_CLR_SET(hadc->State,
 80036c8:	6da3      	ldr	r3, [r4, #88]	@ 0x58
 80036ca:	4393      	bics	r3, r2
 80036cc:	3a02      	subs	r2, #2
 80036ce:	4313      	orrs	r3, r2
 80036d0:	65a3      	str	r3, [r4, #88]	@ 0x58
 80036d2:	e73f      	b.n	8003554 <HAL_ADC_Init+0xa0>
                    ADC_SCAN_SEQ_MODE(hadc->Init.ScanConvMode)                     |
 80036d4:	004b      	lsls	r3, r1, #1
 80036d6:	085b      	lsrs	r3, r3, #1
 80036d8:	469c      	mov	ip, r3
 80036da:	e765      	b.n	80035a8 <HAL_ADC_Init+0xf4>
        if (hadc->Init.ContinuousConvMode == DISABLE)
 80036dc:	2e00      	cmp	r6, #0
 80036de:	d103      	bne.n	80036e8 <HAL_ADC_Init+0x234>
          tmp_cfgr1 |= ADC_CFGR1_DISCEN;
 80036e0:	2280      	movs	r2, #128	@ 0x80
 80036e2:	0252      	lsls	r2, r2, #9
 80036e4:	4313      	orrs	r3, r2
 80036e6:	e76b      	b.n	80035c0 <HAL_ADC_Init+0x10c>
          SET_BIT(hadc->State, HAL_ADC_STATE_ERROR_CONFIG);
 80036e8:	6da6      	ldr	r6, [r4, #88]	@ 0x58
 80036ea:	433e      	orrs	r6, r7
 80036ec:	65a6      	str	r6, [r4, #88]	@ 0x58
          SET_BIT(hadc->ErrorCode, HAL_ADC_ERROR_INTERNAL);
 80036ee:	6de6      	ldr	r6, [r4, #92]	@ 0x5c
 80036f0:	4332      	orrs	r2, r6
 80036f2:	65e2      	str	r2, [r4, #92]	@ 0x5c
 80036f4:	e764      	b.n	80035c0 <HAL_ADC_Init+0x10c>
 80036f6:	46c0      	nop			@ (mov r8, r8)
 80036f8:	080034a9 	.word	0x080034a9
 80036fc:	080034ad 	.word	0x080034ad
 8003700:	080034b1 	.word	0x080034b1
 8003704:	080034a5 	.word	0x080034a5
 8003708:	08003ed1 	.word	0x08003ed1
 800370c:	08003ed5 	.word	0x08003ed5
 8003710:	08003ed9 	.word	0x08003ed9
 8003714:	6fffffe8 	.word	0x6fffffe8
 8003718:	20000440 	.word	0x20000440
 800371c:	00030d40 	.word	0x00030d40
 8003720:	fffffefd 	.word	0xfffffefd
 8003724:	ffde0201 	.word	0xffde0201
 8003728:	1ffffc02 	.word	0x1ffffc02
 800372c:	40012708 	.word	0x40012708
 8003730:	ffc3ffff 	.word	0xffc3ffff
 8003734:	08002ae1 	.word	0x08002ae1

08003738 <HAL_ADC_RegisterCallback>:
  if (pCallback == NULL)
 8003738:	2a00      	cmp	r2, #0
 800373a:	d013      	beq.n	8003764 <HAL_ADC_RegisterCallback+0x2c>
  if ((hadc->State & HAL_ADC_STATE_READY) != 0UL)
 800373c:	6d83      	ldr	r3, [r0, #88]	@ 0x58
 800373e:	07db      	lsls	r3, r3, #31
 8003740:	d505      	bpl.n	800374e <HAL_ADC_RegisterCallback+0x16>
    switch (CallbackID)
 8003742:	290a      	cmp	r1, #10
 8003744:	d80e      	bhi.n	8003764 <HAL_ADC_RegisterCallback+0x2c>
 8003746:	4b17      	ldr	r3, [pc, #92]	@ (80037a4 <HAL_ADC_RegisterCallback+0x6c>)
 8003748:	0089      	lsls	r1, r1, #2
 800374a:	585b      	ldr	r3, [r3, r1]
 800374c:	469f      	mov	pc, r3
  else if (HAL_ADC_STATE_RESET == hadc->State)
 800374e:	6d83      	ldr	r3, [r0, #88]	@ 0x58
 8003750:	2b00      	cmp	r3, #0
 8003752:	d107      	bne.n	8003764 <HAL_ADC_RegisterCallback+0x2c>
    switch (CallbackID)
 8003754:	2909      	cmp	r1, #9
 8003756:	d00b      	beq.n	8003770 <HAL_ADC_RegisterCallback+0x38>
 8003758:	290a      	cmp	r1, #10
 800375a:	d103      	bne.n	8003764 <HAL_ADC_RegisterCallback+0x2c>
        hadc->MspDeInitCallback = pCallback;
 800375c:	2384      	movs	r3, #132	@ 0x84
 800375e:	50c2      	str	r2, [r0, r3]
  HAL_StatusTypeDef status = HAL_OK;
 8003760:	2000      	movs	r0, #0
 8003762:	e004      	b.n	800376e <HAL_ADC_RegisterCallback+0x36>
        hadc->ErrorCode |= HAL_ADC_ERROR_INVALID_CALLBACK;
 8003764:	2210      	movs	r2, #16
 8003766:	6dc3      	ldr	r3, [r0, #92]	@ 0x5c
 8003768:	4313      	orrs	r3, r2
 800376a:	65c3      	str	r3, [r0, #92]	@ 0x5c
    return HAL_ERROR;
 800376c:	2001      	movs	r0, #1
}
 800376e:	4770      	bx	lr
        hadc->MspInitCallback = pCallback;
 8003770:	2380      	movs	r3, #128	@ 0x80
 8003772:	50c2      	str	r2, [r0, r3]
  HAL_StatusTypeDef status = HAL_OK;
 8003774:	2000      	movs	r0, #0
 8003776:	e7fa      	b.n	800376e <HAL_ADC_RegisterCallback+0x36>
        hadc->ErrorCallback = pCallback;
 8003778:	6702      	str	r2, [r0, #112]	@ 0x70
  HAL_StatusTypeDef status = HAL_OK;
 800377a:	2000      	movs	r0, #0
 800377c:	e7f7      	b.n	800376e <HAL_ADC_RegisterCallback+0x36>
        hadc->LevelOutOfWindow2Callback = pCallback;
 800377e:	6742      	str	r2, [r0, #116]	@ 0x74
  HAL_StatusTypeDef status = HAL_OK;
 8003780:	2000      	movs	r0, #0
 8003782:	e7f4      	b.n	800376e <HAL_ADC_RegisterCallback+0x36>
        hadc->LevelOutOfWindow3Callback = pCallback;
 8003784:	6782      	str	r2, [r0, #120]	@ 0x78
  HAL_StatusTypeDef status = HAL_OK;
 8003786:	2000      	movs	r0, #0
 8003788:	e7f1      	b.n	800376e <HAL_ADC_RegisterCallback+0x36>
        hadc->EndOfSamplingCallback = pCallback;
 800378a:	67c2      	str	r2, [r0, #124]	@ 0x7c
  HAL_StatusTypeDef status = HAL_OK;
 800378c:	2000      	movs	r0, #0
 800378e:	e7ee      	b.n	800376e <HAL_ADC_RegisterCallback+0x36>
        hadc->ConvHalfCpltCallback = pCallback;
 8003790:	6682      	str	r2, [r0, #104]	@ 0x68
  HAL_StatusTypeDef status = HAL_OK;
 8003792:	2000      	movs	r0, #0
 8003794:	e7eb      	b.n	800376e <HAL_ADC_RegisterCallback+0x36>
        hadc->LevelOutOfWindowCallback = pCallback;
 8003796:	66c2      	str	r2, [r0, #108]	@ 0x6c
  HAL_StatusTypeDef status = HAL_OK;
 8003798:	2000      	movs	r0, #0
 800379a:	e7e8      	b.n	800376e <HAL_ADC_RegisterCallback+0x36>
        hadc->ConvCpltCallback = pCallback;
 800379c:	6642      	str	r2, [r0, #100]	@ 0x64
  HAL_StatusTypeDef status = HAL_OK;
 800379e:	2000      	movs	r0, #0
 80037a0:	e7e5      	b.n	800376e <HAL_ADC_RegisterCallback+0x36>
 80037a2:	46c0      	nop			@ (mov r8, r8)
 80037a4:	080084cc 	.word	0x080084cc

080037a8 <HAL_ADC_ConfigChannel>:
{
 80037a8:	b5f0      	push	{r4, r5, r6, r7, lr}
 80037aa:	46de      	mov	lr, fp
 80037ac:	4657      	mov	r7, sl
 80037ae:	464e      	mov	r6, r9
 80037b0:	4645      	mov	r5, r8
  __IO uint32_t wait_loop_index = 0UL;
 80037b2:	2300      	movs	r3, #0
{
 80037b4:	0004      	movs	r4, r0
 80037b6:	b5e0      	push	{r5, r6, r7, lr}
 80037b8:	b085      	sub	sp, #20
  __IO uint32_t wait_loop_index = 0UL;
 80037ba:	9303      	str	r3, [sp, #12]
  __HAL_LOCK(hadc);
 80037bc:	3354      	adds	r3, #84	@ 0x54
 80037be:	5ce2      	ldrb	r2, [r4, r3]
  if ((hadc->Init.ScanConvMode == ADC_SCAN_SEQ_FIXED)       ||
 80037c0:	6900      	ldr	r0, [r0, #16]
  __HAL_LOCK(hadc);
 80037c2:	2a01      	cmp	r2, #1
 80037c4:	d100      	bne.n	80037c8 <HAL_ADC_ConfigChannel+0x20>
 80037c6:	e09a      	b.n	80038fe <HAL_ADC_ConfigChannel+0x156>
 80037c8:	2201      	movs	r2, #1
 80037ca:	54e2      	strb	r2, [r4, r3]
  if (LL_ADC_REG_IsConversionOngoing(hadc->Instance) == 0UL)
 80037cc:	6823      	ldr	r3, [r4, #0]
 80037ce:	3203      	adds	r2, #3
 80037d0:	689e      	ldr	r6, [r3, #8]
 80037d2:	4232      	tst	r2, r6
 80037d4:	d00e      	beq.n	80037f4 <HAL_ADC_ConfigChannel+0x4c>
    tmp_hal_status = HAL_ERROR;
 80037d6:	2001      	movs	r0, #1
    SET_BIT(hadc->State, HAL_ADC_STATE_ERROR_CONFIG);
 80037d8:	6da3      	ldr	r3, [r4, #88]	@ 0x58
 80037da:	321c      	adds	r2, #28
 80037dc:	4313      	orrs	r3, r2
 80037de:	65a3      	str	r3, [r4, #88]	@ 0x58
  __HAL_UNLOCK(hadc);
 80037e0:	2354      	movs	r3, #84	@ 0x54
 80037e2:	2200      	movs	r2, #0
 80037e4:	54e2      	strb	r2, [r4, r3]
}
 80037e6:	b005      	add	sp, #20
 80037e8:	bcf0      	pop	{r4, r5, r6, r7}
 80037ea:	46bb      	mov	fp, r7
 80037ec:	46b2      	mov	sl, r6
 80037ee:	46a9      	mov	r9, r5
 80037f0:	46a0      	mov	r8, r4
 80037f2:	bdf0      	pop	{r4, r5, r6, r7, pc}
    if (pConfig->Rank != ADC_RANK_NONE)
 80037f4:	684e      	ldr	r6, [r1, #4]
      if ((hadc->Init.ScanConvMode == ADC_SCAN_SEQ_FIXED)       ||
 80037f6:	4390      	bics	r0, r2
 80037f8:	4684      	mov	ip, r0
        LL_ADC_REG_SetSequencerChAdd(hadc->Instance, pConfig->Channel);
 80037fa:	6808      	ldr	r0, [r1, #0]
    if (pConfig->Rank != ADC_RANK_NONE)
 80037fc:	2e02      	cmp	r6, #2
 80037fe:	d05e      	beq.n	80038be <HAL_ADC_ConfigChannel+0x116>
  SET_BIT(ADCx->CHSELR, (Channel & ADC_CHANNEL_ID_BITFIELD_MASK));
 8003800:	0347      	lsls	r7, r0, #13
 8003802:	0b7d      	lsrs	r5, r7, #13
      if ((hadc->Init.ScanConvMode == ADC_SCAN_SEQ_FIXED)       ||
 8003804:	2780      	movs	r7, #128	@ 0x80
 8003806:	9500      	str	r5, [sp, #0]
 8003808:	063f      	lsls	r7, r7, #24
 800380a:	45bc      	cmp	ip, r7
 800380c:	d053      	beq.n	80038b6 <HAL_ADC_ConfigChannel+0x10e>
        MODIFY_REG(hadc->ADCGroupRegularSequencerRanks,
 800380e:	6e27      	ldr	r7, [r4, #96]	@ 0x60
 8003810:	46bb      	mov	fp, r7
 8003812:	271f      	movs	r7, #31
 8003814:	46b8      	mov	r8, r7
 8003816:	4037      	ands	r7, r6
 8003818:	46ba      	mov	sl, r7
 800381a:	270f      	movs	r7, #15
 800381c:	4655      	mov	r5, sl
 800381e:	40af      	lsls	r7, r5
 8003820:	43fd      	mvns	r5, r7
 8003822:	46bc      	mov	ip, r7
 8003824:	9501      	str	r5, [sp, #4]
 8003826:	465f      	mov	r7, fp
 8003828:	4665      	mov	r5, ip
 800382a:	43af      	bics	r7, r5
 800382c:	9d00      	ldr	r5, [sp, #0]
 800382e:	46b9      	mov	r9, r7
 8003830:	2d00      	cmp	r5, #0
 8003832:	d166      	bne.n	8003902 <HAL_ADC_ConfigChannel+0x15a>
 8003834:	4645      	mov	r5, r8
 8003836:	0e82      	lsrs	r2, r0, #26
 8003838:	4015      	ands	r5, r2
 800383a:	002a      	movs	r2, r5
 800383c:	4655      	mov	r5, sl
 800383e:	40aa      	lsls	r2, r5
 8003840:	464d      	mov	r5, r9
 8003842:	4315      	orrs	r5, r2
 8003844:	46a9      	mov	r9, r5
 8003846:	464a      	mov	r2, r9
        if (((pConfig->Rank >> 2UL) + 1UL) <= hadc->Init.NbrOfConversion)
 8003848:	08b6      	lsrs	r6, r6, #2
        MODIFY_REG(hadc->ADCGroupRegularSequencerRanks,
 800384a:	6622      	str	r2, [r4, #96]	@ 0x60
        if (((pConfig->Rank >> 2UL) + 1UL) <= hadc->Init.NbrOfConversion)
 800384c:	69e2      	ldr	r2, [r4, #28]
 800384e:	3601      	adds	r6, #1
 8003850:	4296      	cmp	r6, r2
 8003852:	d808      	bhi.n	8003866 <HAL_ADC_ConfigChannel+0xbe>
  MODIFY_REG(ADCx->CHSELR,
 8003854:	4656      	mov	r6, sl
 8003856:	0082      	lsls	r2, r0, #2
 8003858:	0f12      	lsrs	r2, r2, #28
 800385a:	40b2      	lsls	r2, r6
 800385c:	6a9d      	ldr	r5, [r3, #40]	@ 0x28
 800385e:	9e01      	ldr	r6, [sp, #4]
 8003860:	4035      	ands	r5, r6
 8003862:	432a      	orrs	r2, r5
 8003864:	629a      	str	r2, [r3, #40]	@ 0x28
  MODIFY_REG(ADCx->SMPR,
 8003866:	0205      	lsls	r5, r0, #8
 8003868:	688a      	ldr	r2, [r1, #8]
 800386a:	0029      	movs	r1, r5
 800386c:	695e      	ldr	r6, [r3, #20]
 800386e:	402a      	ands	r2, r5
 8003870:	4d66      	ldr	r5, [pc, #408]	@ (8003a0c <HAL_ADC_ConfigChannel+0x264>)
 8003872:	438e      	bics	r6, r1
 8003874:	402a      	ands	r2, r5
 8003876:	4332      	orrs	r2, r6
 8003878:	615a      	str	r2, [r3, #20]
      if (__LL_ADC_IS_CHANNEL_INTERNAL(pConfig->Channel))
 800387a:	2800      	cmp	r0, #0
 800387c:	db01      	blt.n	8003882 <HAL_ADC_ConfigChannel+0xda>
  HAL_StatusTypeDef tmp_hal_status = HAL_OK;
 800387e:	2000      	movs	r0, #0
 8003880:	e7ae      	b.n	80037e0 <HAL_ADC_ConfigChannel+0x38>
  return (uint32_t)(READ_BIT(ADCxy_COMMON->CCR, ADC_CCR_VREFEN | ADC_CCR_TSEN | ADC_CCR_VBATEN));
 8003882:	21e0      	movs	r1, #224	@ 0xe0
 8003884:	4d62      	ldr	r5, [pc, #392]	@ (8003a10 <HAL_ADC_ConfigChannel+0x268>)
        if ((pConfig->Channel == ADC_CHANNEL_TEMPSENSOR) &&
 8003886:	4a63      	ldr	r2, [pc, #396]	@ (8003a14 <HAL_ADC_ConfigChannel+0x26c>)
 8003888:	682b      	ldr	r3, [r5, #0]
 800388a:	0449      	lsls	r1, r1, #17
 800388c:	4019      	ands	r1, r3
 800388e:	4290      	cmp	r0, r2
 8003890:	d04c      	beq.n	800392c <HAL_ADC_ConfigChannel+0x184>
        else if ((pConfig->Channel == ADC_CHANNEL_VBAT)
 8003892:	4a61      	ldr	r2, [pc, #388]	@ (8003a18 <HAL_ADC_ConfigChannel+0x270>)
 8003894:	4290      	cmp	r0, r2
 8003896:	d040      	beq.n	800391a <HAL_ADC_ConfigChannel+0x172>
        else if ((pConfig->Channel == ADC_CHANNEL_VREFINT) &&
 8003898:	4a60      	ldr	r2, [pc, #384]	@ (8003a1c <HAL_ADC_ConfigChannel+0x274>)
 800389a:	4290      	cmp	r0, r2
 800389c:	d1ef      	bne.n	800387e <HAL_ADC_ConfigChannel+0xd6>
                 ((tmp_config_internal_channel & LL_ADC_PATH_INTERNAL_VREFINT) == 0UL))
 800389e:	2280      	movs	r2, #128	@ 0x80
 80038a0:	03d2      	lsls	r2, r2, #15
        else if ((pConfig->Channel == ADC_CHANNEL_VREFINT) &&
 80038a2:	4213      	tst	r3, r2
 80038a4:	d1eb      	bne.n	800387e <HAL_ADC_ConfigChannel+0xd6>
  MODIFY_REG(ADCxy_COMMON->CCR, ADC_CCR_VREFEN | ADC_CCR_TSEN | ADC_CCR_VBATEN, PathInternal);
 80038a6:	682b      	ldr	r3, [r5, #0]
 80038a8:	485d      	ldr	r0, [pc, #372]	@ (8003a20 <HAL_ADC_ConfigChannel+0x278>)
 80038aa:	4003      	ands	r3, r0
 80038ac:	430b      	orrs	r3, r1
 80038ae:	431a      	orrs	r2, r3
  HAL_StatusTypeDef tmp_hal_status = HAL_OK;
 80038b0:	2000      	movs	r0, #0
 80038b2:	602a      	str	r2, [r5, #0]
 80038b4:	e794      	b.n	80037e0 <HAL_ADC_ConfigChannel+0x38>
  SET_BIT(ADCx->CHSELR, (Channel & ADC_CHANNEL_ID_BITFIELD_MASK));
 80038b6:	6a9a      	ldr	r2, [r3, #40]	@ 0x28
 80038b8:	432a      	orrs	r2, r5
 80038ba:	629a      	str	r2, [r3, #40]	@ 0x28
}
 80038bc:	e7d3      	b.n	8003866 <HAL_ADC_ConfigChannel+0xbe>
      if ((hadc->Init.ScanConvMode == ADC_SCAN_SEQ_FIXED)       ||
 80038be:	2280      	movs	r2, #128	@ 0x80
 80038c0:	0612      	lsls	r2, r2, #24
 80038c2:	4594      	cmp	ip, r2
 80038c4:	d104      	bne.n	80038d0 <HAL_ADC_ConfigChannel+0x128>
  CLEAR_BIT(ADCx->CHSELR, (Channel & ADC_CHANNEL_ID_BITFIELD_MASK));
 80038c6:	6a9a      	ldr	r2, [r3, #40]	@ 0x28
 80038c8:	0341      	lsls	r1, r0, #13
 80038ca:	0b49      	lsrs	r1, r1, #13
 80038cc:	438a      	bics	r2, r1
 80038ce:	629a      	str	r2, [r3, #40]	@ 0x28
      if (__LL_ADC_IS_CHANNEL_INTERNAL(pConfig->Channel))
 80038d0:	2800      	cmp	r0, #0
 80038d2:	dad4      	bge.n	800387e <HAL_ADC_ConfigChannel+0xd6>
  return (uint32_t)(READ_BIT(ADCxy_COMMON->CCR, ADC_CCR_VREFEN | ADC_CCR_TSEN | ADC_CCR_VBATEN));
 80038d4:	4a4e      	ldr	r2, [pc, #312]	@ (8003a10 <HAL_ADC_ConfigChannel+0x268>)
        if (pConfig->Channel == ADC_CHANNEL_TEMPSENSOR)
 80038d6:	494f      	ldr	r1, [pc, #316]	@ (8003a14 <HAL_ADC_ConfigChannel+0x26c>)
 80038d8:	6813      	ldr	r3, [r2, #0]
 80038da:	4288      	cmp	r0, r1
 80038dc:	d023      	beq.n	8003926 <HAL_ADC_ConfigChannel+0x17e>
        else if (pConfig->Channel == ADC_CHANNEL_VBAT)
 80038de:	494e      	ldr	r1, [pc, #312]	@ (8003a18 <HAL_ADC_ConfigChannel+0x270>)
 80038e0:	4288      	cmp	r0, r1
 80038e2:	d04a      	beq.n	800397a <HAL_ADC_ConfigChannel+0x1d2>
        else if (pConfig->Channel == ADC_CHANNEL_VREFINT)
 80038e4:	494d      	ldr	r1, [pc, #308]	@ (8003a1c <HAL_ADC_ConfigChannel+0x274>)
 80038e6:	4288      	cmp	r0, r1
 80038e8:	d1c9      	bne.n	800387e <HAL_ADC_ConfigChannel+0xd6>
          LL_ADC_SetCommonPathInternalCh(__LL_ADC_COMMON_INSTANCE(hadc->Instance),
 80038ea:	20c0      	movs	r0, #192	@ 0xc0
  MODIFY_REG(ADCxy_COMMON->CCR, ADC_CCR_VREFEN | ADC_CCR_TSEN | ADC_CCR_VBATEN, PathInternal);
 80038ec:	6811      	ldr	r1, [r2, #0]
 80038ee:	0440      	lsls	r0, r0, #17
 80038f0:	4003      	ands	r3, r0
 80038f2:	484b      	ldr	r0, [pc, #300]	@ (8003a20 <HAL_ADC_ConfigChannel+0x278>)
 80038f4:	4001      	ands	r1, r0
 80038f6:	430b      	orrs	r3, r1
  HAL_StatusTypeDef tmp_hal_status = HAL_OK;
 80038f8:	2000      	movs	r0, #0
 80038fa:	6013      	str	r3, [r2, #0]
 80038fc:	e770      	b.n	80037e0 <HAL_ADC_ConfigChannel+0x38>
  __HAL_LOCK(hadc);
 80038fe:	2002      	movs	r0, #2
 8003900:	e771      	b.n	80037e6 <HAL_ADC_ConfigChannel+0x3e>
        MODIFY_REG(hadc->ADCGroupRegularSequencerRanks,
 8003902:	2501      	movs	r5, #1
 8003904:	4205      	tst	r5, r0
 8003906:	d19e      	bne.n	8003846 <HAL_ADC_ConfigChannel+0x9e>
 8003908:	2702      	movs	r7, #2
 800390a:	4207      	tst	r7, r0
 800390c:	d02d      	beq.n	800396a <HAL_ADC_ConfigChannel+0x1c2>
 800390e:	4652      	mov	r2, sl
 8003910:	4095      	lsls	r5, r2
 8003912:	464a      	mov	r2, r9
 8003914:	432a      	orrs	r2, r5
 8003916:	4691      	mov	r9, r2
 8003918:	e795      	b.n	8003846 <HAL_ADC_ConfigChannel+0x9e>
                 && ((tmp_config_internal_channel & LL_ADC_PATH_INTERNAL_VBAT) == 0UL))
 800391a:	2280      	movs	r2, #128	@ 0x80
 800391c:	0452      	lsls	r2, r2, #17
 800391e:	4213      	tst	r3, r2
 8003920:	d0c1      	beq.n	80038a6 <HAL_ADC_ConfigChannel+0xfe>
  HAL_StatusTypeDef tmp_hal_status = HAL_OK;
 8003922:	2000      	movs	r0, #0
 8003924:	e75c      	b.n	80037e0 <HAL_ADC_ConfigChannel+0x38>
          LL_ADC_SetCommonPathInternalCh(__LL_ADC_COMMON_INSTANCE(hadc->Instance),
 8003926:	20a0      	movs	r0, #160	@ 0xa0
 8003928:	6811      	ldr	r1, [r2, #0]
 800392a:	e7e0      	b.n	80038ee <HAL_ADC_ConfigChannel+0x146>
            ((tmp_config_internal_channel & LL_ADC_PATH_INTERNAL_TEMPSENSOR) == 0UL))
 800392c:	2280      	movs	r2, #128	@ 0x80
 800392e:	0412      	lsls	r2, r2, #16
        if ((pConfig->Channel == ADC_CHANNEL_TEMPSENSOR) &&
 8003930:	4213      	tst	r3, r2
 8003932:	d1a4      	bne.n	800387e <HAL_ADC_ConfigChannel+0xd6>
 8003934:	682b      	ldr	r3, [r5, #0]
 8003936:	483a      	ldr	r0, [pc, #232]	@ (8003a20 <HAL_ADC_ConfigChannel+0x278>)
 8003938:	4003      	ands	r3, r0
 800393a:	430b      	orrs	r3, r1
 800393c:	431a      	orrs	r2, r3
          wait_loop_index = ((LL_ADC_DELAY_TEMPSENSOR_STAB_US / 10UL) * ((SystemCoreClock / (100000UL * 2UL)) + 1UL));
 800393e:	4b39      	ldr	r3, [pc, #228]	@ (8003a24 <HAL_ADC_ConfigChannel+0x27c>)
 8003940:	602a      	str	r2, [r5, #0]
 8003942:	6818      	ldr	r0, [r3, #0]
 8003944:	4938      	ldr	r1, [pc, #224]	@ (8003a28 <HAL_ADC_ConfigChannel+0x280>)
 8003946:	f7fc fbdd 	bl	8000104 <__udivsi3>
 800394a:	3001      	adds	r0, #1
 800394c:	0043      	lsls	r3, r0, #1
 800394e:	181b      	adds	r3, r3, r0
 8003950:	009b      	lsls	r3, r3, #2
 8003952:	9303      	str	r3, [sp, #12]
          while (wait_loop_index != 0UL)
 8003954:	9b03      	ldr	r3, [sp, #12]
 8003956:	2b00      	cmp	r3, #0
 8003958:	d091      	beq.n	800387e <HAL_ADC_ConfigChannel+0xd6>
            wait_loop_index--;
 800395a:	9b03      	ldr	r3, [sp, #12]
 800395c:	3b01      	subs	r3, #1
 800395e:	9303      	str	r3, [sp, #12]
          while (wait_loop_index != 0UL)
 8003960:	9b03      	ldr	r3, [sp, #12]
 8003962:	2b00      	cmp	r3, #0
 8003964:	d1f9      	bne.n	800395a <HAL_ADC_ConfigChannel+0x1b2>
  HAL_StatusTypeDef tmp_hal_status = HAL_OK;
 8003966:	2000      	movs	r0, #0
 8003968:	e73a      	b.n	80037e0 <HAL_ADC_ConfigChannel+0x38>
        MODIFY_REG(hadc->ADCGroupRegularSequencerRanks,
 800396a:	4202      	tst	r2, r0
 800396c:	d009      	beq.n	8003982 <HAL_ADC_ConfigChannel+0x1da>
 800396e:	4652      	mov	r2, sl
 8003970:	4097      	lsls	r7, r2
 8003972:	464a      	mov	r2, r9
 8003974:	433a      	orrs	r2, r7
 8003976:	4691      	mov	r9, r2
 8003978:	e765      	b.n	8003846 <HAL_ADC_ConfigChannel+0x9e>
          LL_ADC_SetCommonPathInternalCh(__LL_ADC_COMMON_INSTANCE(hadc->Instance),
 800397a:	20c0      	movs	r0, #192	@ 0xc0
 800397c:	6811      	ldr	r1, [r2, #0]
 800397e:	0400      	lsls	r0, r0, #16
 8003980:	e7b6      	b.n	80038f0 <HAL_ADC_ConfigChannel+0x148>
        MODIFY_REG(hadc->ADCGroupRegularSequencerRanks,
 8003982:	0702      	lsls	r2, r0, #28
 8003984:	d501      	bpl.n	800398a <HAL_ADC_ConfigChannel+0x1e2>
 8003986:	2203      	movs	r2, #3
 8003988:	e758      	b.n	800383c <HAL_ADC_ConfigChannel+0x94>
 800398a:	06c2      	lsls	r2, r0, #27
 800398c:	d501      	bpl.n	8003992 <HAL_ADC_ConfigChannel+0x1ea>
 800398e:	2204      	movs	r2, #4
 8003990:	e754      	b.n	800383c <HAL_ADC_ConfigChannel+0x94>
 8003992:	0682      	lsls	r2, r0, #26
 8003994:	d501      	bpl.n	800399a <HAL_ADC_ConfigChannel+0x1f2>
 8003996:	2205      	movs	r2, #5
 8003998:	e750      	b.n	800383c <HAL_ADC_ConfigChannel+0x94>
 800399a:	0642      	lsls	r2, r0, #25
 800399c:	d501      	bpl.n	80039a2 <HAL_ADC_ConfigChannel+0x1fa>
 800399e:	2206      	movs	r2, #6
 80039a0:	e74c      	b.n	800383c <HAL_ADC_ConfigChannel+0x94>
 80039a2:	0602      	lsls	r2, r0, #24
 80039a4:	d501      	bpl.n	80039aa <HAL_ADC_ConfigChannel+0x202>
 80039a6:	2207      	movs	r2, #7
 80039a8:	e748      	b.n	800383c <HAL_ADC_ConfigChannel+0x94>
 80039aa:	05c2      	lsls	r2, r0, #23
 80039ac:	d501      	bpl.n	80039b2 <HAL_ADC_ConfigChannel+0x20a>
 80039ae:	2208      	movs	r2, #8
 80039b0:	e744      	b.n	800383c <HAL_ADC_ConfigChannel+0x94>
 80039b2:	0582      	lsls	r2, r0, #22
 80039b4:	d501      	bpl.n	80039ba <HAL_ADC_ConfigChannel+0x212>
 80039b6:	2209      	movs	r2, #9
 80039b8:	e740      	b.n	800383c <HAL_ADC_ConfigChannel+0x94>
 80039ba:	0542      	lsls	r2, r0, #21
 80039bc:	d501      	bpl.n	80039c2 <HAL_ADC_ConfigChannel+0x21a>
 80039be:	220a      	movs	r2, #10
 80039c0:	e73c      	b.n	800383c <HAL_ADC_ConfigChannel+0x94>
 80039c2:	0502      	lsls	r2, r0, #20
 80039c4:	d501      	bpl.n	80039ca <HAL_ADC_ConfigChannel+0x222>
 80039c6:	220b      	movs	r2, #11
 80039c8:	e738      	b.n	800383c <HAL_ADC_ConfigChannel+0x94>
 80039ca:	04c2      	lsls	r2, r0, #19
 80039cc:	d501      	bpl.n	80039d2 <HAL_ADC_ConfigChannel+0x22a>
 80039ce:	220c      	movs	r2, #12
 80039d0:	e734      	b.n	800383c <HAL_ADC_ConfigChannel+0x94>
 80039d2:	0482      	lsls	r2, r0, #18
 80039d4:	d501      	bpl.n	80039da <HAL_ADC_ConfigChannel+0x232>
 80039d6:	220d      	movs	r2, #13
 80039d8:	e730      	b.n	800383c <HAL_ADC_ConfigChannel+0x94>
 80039da:	0442      	lsls	r2, r0, #17
 80039dc:	d501      	bpl.n	80039e2 <HAL_ADC_ConfigChannel+0x23a>
 80039de:	220e      	movs	r2, #14
 80039e0:	e72c      	b.n	800383c <HAL_ADC_ConfigChannel+0x94>
 80039e2:	0402      	lsls	r2, r0, #16
 80039e4:	d504      	bpl.n	80039f0 <HAL_ADC_ConfigChannel+0x248>
 80039e6:	465a      	mov	r2, fp
 80039e8:	4665      	mov	r5, ip
 80039ea:	432a      	orrs	r2, r5
 80039ec:	4691      	mov	r9, r2
 80039ee:	e72a      	b.n	8003846 <HAL_ADC_ConfigChannel+0x9e>
 80039f0:	03c2      	lsls	r2, r0, #15
 80039f2:	d501      	bpl.n	80039f8 <HAL_ADC_ConfigChannel+0x250>
 80039f4:	2210      	movs	r2, #16
 80039f6:	e721      	b.n	800383c <HAL_ADC_ConfigChannel+0x94>
 80039f8:	0382      	lsls	r2, r0, #14
 80039fa:	d501      	bpl.n	8003a00 <HAL_ADC_ConfigChannel+0x258>
 80039fc:	2211      	movs	r2, #17
 80039fe:	e71d      	b.n	800383c <HAL_ADC_ConfigChannel+0x94>
 8003a00:	0342      	lsls	r2, r0, #13
 8003a02:	d400      	bmi.n	8003a06 <HAL_ADC_ConfigChannel+0x25e>
 8003a04:	e71f      	b.n	8003846 <HAL_ADC_ConfigChannel+0x9e>
 8003a06:	2212      	movs	r2, #18
 8003a08:	e718      	b.n	800383c <HAL_ADC_ConfigChannel+0x94>
 8003a0a:	46c0      	nop			@ (mov r8, r8)
 8003a0c:	07ffff00 	.word	0x07ffff00
 8003a10:	40012708 	.word	0x40012708
 8003a14:	b0001000 	.word	0xb0001000
 8003a18:	b8004000 	.word	0xb8004000
 8003a1c:	b4002000 	.word	0xb4002000
 8003a20:	fe3fffff 	.word	0xfe3fffff
 8003a24:	20000440 	.word	0x20000440
 8003a28:	00030d40 	.word	0x00030d40

08003a2c <ADC_ConversionStop>:
  if (LL_ADC_REG_IsConversionOngoing(hadc->Instance) != 0UL)
 8003a2c:	6802      	ldr	r2, [r0, #0]
{
 8003a2e:	b570      	push	{r4, r5, r6, lr}
  return ((READ_BIT(ADCx->CR, ADC_CR_ADSTART) == (ADC_CR_ADSTART)) ? 1UL : 0UL);
 8003a30:	6893      	ldr	r3, [r2, #8]
 8003a32:	0004      	movs	r4, r0
 8003a34:	075b      	lsls	r3, r3, #29
 8003a36:	d516      	bpl.n	8003a66 <ADC_ConversionStop+0x3a>
  return ((READ_BIT(ADCx->CR, ADC_CR_ADDIS) == (ADC_CR_ADDIS)) ? 1UL : 0UL);
 8003a38:	6893      	ldr	r3, [r2, #8]
 8003a3a:	079b      	lsls	r3, r3, #30
 8003a3c:	d515      	bpl.n	8003a6a <ADC_ConversionStop+0x3e>
    tickstart = HAL_GetTick();
 8003a3e:	f7ff fcd7 	bl	80033f0 <HAL_GetTick>
    while ((hadc->Instance->CR & ADC_CR_ADSTART) != 0UL)
 8003a42:	6823      	ldr	r3, [r4, #0]
    tickstart = HAL_GetTick();
 8003a44:	0006      	movs	r6, r0
    while ((hadc->Instance->CR & ADC_CR_ADSTART) != 0UL)
 8003a46:	689b      	ldr	r3, [r3, #8]
 8003a48:	075b      	lsls	r3, r3, #29
 8003a4a:	d50c      	bpl.n	8003a66 <ADC_ConversionStop+0x3a>
        if ((hadc->Instance->CR & ADC_CR_ADSTART) != 0UL)
 8003a4c:	2504      	movs	r5, #4
      if ((HAL_GetTick() - tickstart) > ADC_STOP_CONVERSION_TIMEOUT)
 8003a4e:	f7ff fccf 	bl	80033f0 <HAL_GetTick>
        if ((hadc->Instance->CR & ADC_CR_ADSTART) != 0UL)
 8003a52:	6823      	ldr	r3, [r4, #0]
      if ((HAL_GetTick() - tickstart) > ADC_STOP_CONVERSION_TIMEOUT)
 8003a54:	1b80      	subs	r0, r0, r6
 8003a56:	2802      	cmp	r0, #2
 8003a58:	d902      	bls.n	8003a60 <ADC_ConversionStop+0x34>
        if ((hadc->Instance->CR & ADC_CR_ADSTART) != 0UL)
 8003a5a:	689a      	ldr	r2, [r3, #8]
 8003a5c:	4215      	tst	r5, r2
 8003a5e:	d112      	bne.n	8003a86 <ADC_ConversionStop+0x5a>
    while ((hadc->Instance->CR & ADC_CR_ADSTART) != 0UL)
 8003a60:	689b      	ldr	r3, [r3, #8]
 8003a62:	421d      	tst	r5, r3
 8003a64:	d1f3      	bne.n	8003a4e <ADC_ConversionStop+0x22>
  return HAL_OK;
 8003a66:	2000      	movs	r0, #0
}
 8003a68:	bd70      	pop	{r4, r5, r6, pc}
  MODIFY_REG(ADCx->CR,
 8003a6a:	6893      	ldr	r3, [r2, #8]
 8003a6c:	490b      	ldr	r1, [pc, #44]	@ (8003a9c <ADC_ConversionStop+0x70>)
 8003a6e:	400b      	ands	r3, r1
 8003a70:	2110      	movs	r1, #16
 8003a72:	430b      	orrs	r3, r1
 8003a74:	6093      	str	r3, [r2, #8]
    tickstart = HAL_GetTick();
 8003a76:	f7ff fcbb 	bl	80033f0 <HAL_GetTick>
    while ((hadc->Instance->CR & ADC_CR_ADSTART) != 0UL)
 8003a7a:	6823      	ldr	r3, [r4, #0]
    tickstart = HAL_GetTick();
 8003a7c:	0006      	movs	r6, r0
    while ((hadc->Instance->CR & ADC_CR_ADSTART) != 0UL)
 8003a7e:	689b      	ldr	r3, [r3, #8]
 8003a80:	075b      	lsls	r3, r3, #29
 8003a82:	d4e3      	bmi.n	8003a4c <ADC_ConversionStop+0x20>
 8003a84:	e7ef      	b.n	8003a66 <ADC_ConversionStop+0x3a>
          SET_BIT(hadc->State, HAL_ADC_STATE_ERROR_INTERNAL);
 8003a86:	2210      	movs	r2, #16
 8003a88:	6da3      	ldr	r3, [r4, #88]	@ 0x58
          SET_BIT(hadc->ErrorCode, HAL_ADC_ERROR_INTERNAL);
 8003a8a:	2001      	movs	r0, #1
          SET_BIT(hadc->State, HAL_ADC_STATE_ERROR_INTERNAL);
 8003a8c:	4313      	orrs	r3, r2
 8003a8e:	65a3      	str	r3, [r4, #88]	@ 0x58
          SET_BIT(hadc->ErrorCode, HAL_ADC_ERROR_INTERNAL);
 8003a90:	6de3      	ldr	r3, [r4, #92]	@ 0x5c
 8003a92:	3a0f      	subs	r2, #15
 8003a94:	4313      	orrs	r3, r2
 8003a96:	65e3      	str	r3, [r4, #92]	@ 0x5c
          return HAL_ERROR;
 8003a98:	e7e6      	b.n	8003a68 <ADC_ConversionStop+0x3c>
 8003a9a:	46c0      	nop			@ (mov r8, r8)
 8003a9c:	7fffffe8 	.word	0x7fffffe8

08003aa0 <ADC_Enable>:
  __IO uint32_t wait_loop_index = 0UL;
 8003aa0:	2300      	movs	r3, #0
  return ((READ_BIT(ADCx->CR, ADC_CR_ADEN) == (ADC_CR_ADEN)) ? 1UL : 0UL);
 8003aa2:	2201      	movs	r2, #1
{
 8003aa4:	b5f0      	push	{r4, r5, r6, r7, lr}
 8003aa6:	b083      	sub	sp, #12
  __IO uint32_t wait_loop_index = 0UL;
 8003aa8:	9301      	str	r3, [sp, #4]
  if (LL_ADC_IsEnabled(hadc->Instance) == 0UL)
 8003aaa:	6803      	ldr	r3, [r0, #0]
{
 8003aac:	0004      	movs	r4, r0
 8003aae:	6899      	ldr	r1, [r3, #8]
 8003ab0:	420a      	tst	r2, r1
 8003ab2:	d11f      	bne.n	8003af4 <ADC_Enable+0x54>
    if ((hadc->Instance->CR & (ADC_CR_ADCAL | ADC_CR_ADSTP | ADC_CR_ADSTART | ADC_CR_ADDIS | ADC_CR_ADEN)) != 0UL)
 8003ab4:	6898      	ldr	r0, [r3, #8]
 8003ab6:	4928      	ldr	r1, [pc, #160]	@ (8003b58 <ADC_Enable+0xb8>)
 8003ab8:	4208      	tst	r0, r1
 8003aba:	d11e      	bne.n	8003afa <ADC_Enable+0x5a>
  MODIFY_REG(ADCx->CR,
 8003abc:	6899      	ldr	r1, [r3, #8]
 8003abe:	4827      	ldr	r0, [pc, #156]	@ (8003b5c <ADC_Enable+0xbc>)
 8003ac0:	4001      	ands	r1, r0
 8003ac2:	430a      	orrs	r2, r1
 8003ac4:	609a      	str	r2, [r3, #8]
  return (uint32_t)(READ_BIT(ADCxy_COMMON->CCR, ADC_CCR_VREFEN | ADC_CCR_TSEN | ADC_CCR_VBATEN));
 8003ac6:	4b26      	ldr	r3, [pc, #152]	@ (8003b60 <ADC_Enable+0xc0>)
 8003ac8:	681b      	ldr	r3, [r3, #0]
    if ((LL_ADC_GetCommonPathInternalCh(__LL_ADC_COMMON_INSTANCE(hadc->Instance)) & LL_ADC_PATH_INTERNAL_TEMPSENSOR)
 8003aca:	021b      	lsls	r3, r3, #8
 8003acc:	d50f      	bpl.n	8003aee <ADC_Enable+0x4e>
                         * ((SystemCoreClock / (100000UL * 2UL)) + 1UL));
 8003ace:	4b25      	ldr	r3, [pc, #148]	@ (8003b64 <ADC_Enable+0xc4>)
 8003ad0:	4925      	ldr	r1, [pc, #148]	@ (8003b68 <ADC_Enable+0xc8>)
 8003ad2:	6818      	ldr	r0, [r3, #0]
 8003ad4:	f7fc fb16 	bl	8000104 <__udivsi3>
 8003ad8:	3001      	adds	r0, #1
      wait_loop_index = ((LL_ADC_DELAY_TEMPSENSOR_BUFFER_STAB_US / 10UL)
 8003ada:	9001      	str	r0, [sp, #4]
      while (wait_loop_index != 0UL)
 8003adc:	9b01      	ldr	r3, [sp, #4]
 8003ade:	2b00      	cmp	r3, #0
 8003ae0:	d005      	beq.n	8003aee <ADC_Enable+0x4e>
        wait_loop_index--;
 8003ae2:	9b01      	ldr	r3, [sp, #4]
 8003ae4:	3b01      	subs	r3, #1
 8003ae6:	9301      	str	r3, [sp, #4]
      while (wait_loop_index != 0UL)
 8003ae8:	9b01      	ldr	r3, [sp, #4]
 8003aea:	2b00      	cmp	r3, #0
 8003aec:	d1f9      	bne.n	8003ae2 <ADC_Enable+0x42>
    if (hadc->Init.LowPowerAutoPowerOff != ENABLE)
 8003aee:	7e63      	ldrb	r3, [r4, #25]
 8003af0:	2b01      	cmp	r3, #1
 8003af2:	d10b      	bne.n	8003b0c <ADC_Enable+0x6c>
  return HAL_OK;
 8003af4:	2000      	movs	r0, #0
}
 8003af6:	b003      	add	sp, #12
 8003af8:	bdf0      	pop	{r4, r5, r6, r7, pc}
      SET_BIT(hadc->State, HAL_ADC_STATE_ERROR_INTERNAL);
 8003afa:	2110      	movs	r1, #16
 8003afc:	6da3      	ldr	r3, [r4, #88]	@ 0x58
      return HAL_ERROR;
 8003afe:	2001      	movs	r0, #1
      SET_BIT(hadc->State, HAL_ADC_STATE_ERROR_INTERNAL);
 8003b00:	430b      	orrs	r3, r1
 8003b02:	65a3      	str	r3, [r4, #88]	@ 0x58
      SET_BIT(hadc->ErrorCode, HAL_ADC_ERROR_INTERNAL);
 8003b04:	6de3      	ldr	r3, [r4, #92]	@ 0x5c
 8003b06:	4313      	orrs	r3, r2
 8003b08:	65e3      	str	r3, [r4, #92]	@ 0x5c
      return HAL_ERROR;
 8003b0a:	e7f4      	b.n	8003af6 <ADC_Enable+0x56>
      tickstart = HAL_GetTick();
 8003b0c:	f7ff fc70 	bl	80033f0 <HAL_GetTick>
      while (__HAL_ADC_GET_FLAG(hadc, ADC_FLAG_RDY) == 0UL)
 8003b10:	6823      	ldr	r3, [r4, #0]
      tickstart = HAL_GetTick();
 8003b12:	0006      	movs	r6, r0
      while (__HAL_ADC_GET_FLAG(hadc, ADC_FLAG_RDY) == 0UL)
 8003b14:	681a      	ldr	r2, [r3, #0]
 8003b16:	07d2      	lsls	r2, r2, #31
 8003b18:	d4ec      	bmi.n	8003af4 <ADC_Enable+0x54>
  return ((READ_BIT(ADCx->CR, ADC_CR_ADEN) == (ADC_CR_ADEN)) ? 1UL : 0UL);
 8003b1a:	2501      	movs	r5, #1
  MODIFY_REG(ADCx->CR,
 8003b1c:	4f0f      	ldr	r7, [pc, #60]	@ (8003b5c <ADC_Enable+0xbc>)
  return ((READ_BIT(ADCx->CR, ADC_CR_ADEN) == (ADC_CR_ADEN)) ? 1UL : 0UL);
 8003b1e:	689a      	ldr	r2, [r3, #8]
 8003b20:	4215      	tst	r5, r2
 8003b22:	d103      	bne.n	8003b2c <ADC_Enable+0x8c>
  MODIFY_REG(ADCx->CR,
 8003b24:	689a      	ldr	r2, [r3, #8]
 8003b26:	403a      	ands	r2, r7
 8003b28:	432a      	orrs	r2, r5
 8003b2a:	609a      	str	r2, [r3, #8]
        if ((HAL_GetTick() - tickstart) > ADC_ENABLE_TIMEOUT)
 8003b2c:	f7ff fc60 	bl	80033f0 <HAL_GetTick>
          if (__HAL_ADC_GET_FLAG(hadc, ADC_FLAG_RDY) == 0UL)
 8003b30:	6823      	ldr	r3, [r4, #0]
        if ((HAL_GetTick() - tickstart) > ADC_ENABLE_TIMEOUT)
 8003b32:	1b80      	subs	r0, r0, r6
 8003b34:	2802      	cmp	r0, #2
 8003b36:	d902      	bls.n	8003b3e <ADC_Enable+0x9e>
          if (__HAL_ADC_GET_FLAG(hadc, ADC_FLAG_RDY) == 0UL)
 8003b38:	681a      	ldr	r2, [r3, #0]
 8003b3a:	4215      	tst	r5, r2
 8003b3c:	d003      	beq.n	8003b46 <ADC_Enable+0xa6>
      while (__HAL_ADC_GET_FLAG(hadc, ADC_FLAG_RDY) == 0UL)
 8003b3e:	681a      	ldr	r2, [r3, #0]
 8003b40:	4215      	tst	r5, r2
 8003b42:	d0ec      	beq.n	8003b1e <ADC_Enable+0x7e>
 8003b44:	e7d6      	b.n	8003af4 <ADC_Enable+0x54>
            SET_BIT(hadc->State, HAL_ADC_STATE_ERROR_INTERNAL);
 8003b46:	2210      	movs	r2, #16
 8003b48:	6da3      	ldr	r3, [r4, #88]	@ 0x58
      return HAL_ERROR;
 8003b4a:	2001      	movs	r0, #1
            SET_BIT(hadc->State, HAL_ADC_STATE_ERROR_INTERNAL);
 8003b4c:	4313      	orrs	r3, r2
 8003b4e:	65a3      	str	r3, [r4, #88]	@ 0x58
            SET_BIT(hadc->ErrorCode, HAL_ADC_ERROR_INTERNAL);
 8003b50:	6de3      	ldr	r3, [r4, #92]	@ 0x5c
 8003b52:	432b      	orrs	r3, r5
 8003b54:	65e3      	str	r3, [r4, #92]	@ 0x5c
            return HAL_ERROR;
 8003b56:	e7ce      	b.n	8003af6 <ADC_Enable+0x56>
 8003b58:	80000017 	.word	0x80000017
 8003b5c:	7fffffe8 	.word	0x7fffffe8
 8003b60:	40012708 	.word	0x40012708
 8003b64:	20000440 	.word	0x20000440
 8003b68:	00030d40 	.word	0x00030d40

08003b6c <HAL_ADC_Start_DMA>:
{
 8003b6c:	b5f0      	push	{r4, r5, r6, r7, lr}
 8003b6e:	46c6      	mov	lr, r8
  if (LL_ADC_REG_IsConversionOngoing(hadc->Instance) == 0UL)
 8003b70:	6805      	ldr	r5, [r0, #0]
{
 8003b72:	0004      	movs	r4, r0
  return ((READ_BIT(ADCx->CR, ADC_CR_ADSTART) == (ADC_CR_ADSTART)) ? 1UL : 0UL);
 8003b74:	68ae      	ldr	r6, [r5, #8]
 8003b76:	4688      	mov	r8, r1
 8003b78:	0017      	movs	r7, r2
    __HAL_LOCK(hadc);
 8003b7a:	2002      	movs	r0, #2
{
 8003b7c:	b500      	push	{lr}
 8003b7e:	0776      	lsls	r6, r6, #29
 8003b80:	d414      	bmi.n	8003bac <HAL_ADC_Start_DMA+0x40>
    __HAL_LOCK(hadc);
 8003b82:	2254      	movs	r2, #84	@ 0x54
 8003b84:	5ca3      	ldrb	r3, [r4, r2]
 8003b86:	2b01      	cmp	r3, #1
 8003b88:	d010      	beq.n	8003bac <HAL_ADC_Start_DMA+0x40>
 8003b8a:	2301      	movs	r3, #1
 8003b8c:	54a3      	strb	r3, [r4, r2]
    if ((hadc->Instance->CFGR1 & ADC_CFGR1_DMAEN) == 0UL)
 8003b8e:	68ea      	ldr	r2, [r5, #12]
 8003b90:	4213      	tst	r3, r2
 8003b92:	d106      	bne.n	8003ba2 <HAL_ADC_Start_DMA+0x36>
  return ((READ_BIT(ADCx->CR, ADC_CR_ADEN) == (ADC_CR_ADEN)) ? 1UL : 0UL);
 8003b94:	68aa      	ldr	r2, [r5, #8]
 8003b96:	4213      	tst	r3, r2
 8003b98:	d131      	bne.n	8003bfe <HAL_ADC_Start_DMA+0x92>
      hadc->Instance->CFGR1 |= ADC_CFGR1_DMAEN;
 8003b9a:	2201      	movs	r2, #1
 8003b9c:	68eb      	ldr	r3, [r5, #12]
 8003b9e:	4313      	orrs	r3, r2
 8003ba0:	60eb      	str	r3, [r5, #12]
    tmp_hal_status = ADC_Enable(hadc);
 8003ba2:	0020      	movs	r0, r4
 8003ba4:	f7ff ff7c 	bl	8003aa0 <ADC_Enable>
    if (tmp_hal_status == HAL_OK)
 8003ba8:	2800      	cmp	r0, #0
 8003baa:	d002      	beq.n	8003bb2 <HAL_ADC_Start_DMA+0x46>
}
 8003bac:	bc80      	pop	{r7}
 8003bae:	46b8      	mov	r8, r7
 8003bb0:	bdf0      	pop	{r4, r5, r6, r7, pc}
      ADC_STATE_CLR_SET(hadc->State,
 8003bb2:	6da2      	ldr	r2, [r4, #88]	@ 0x58
 8003bb4:	4b15      	ldr	r3, [pc, #84]	@ (8003c0c <HAL_ADC_Start_DMA+0xa0>)
      hadc->DMA_Handle->XferCpltCallback = ADC_DMAConvCplt;
 8003bb6:	6d25      	ldr	r5, [r4, #80]	@ 0x50
      ADC_STATE_CLR_SET(hadc->State,
 8003bb8:	401a      	ands	r2, r3
 8003bba:	2380      	movs	r3, #128	@ 0x80
 8003bbc:	005b      	lsls	r3, r3, #1
 8003bbe:	4313      	orrs	r3, r2
 8003bc0:	65a3      	str	r3, [r4, #88]	@ 0x58
      hadc->DMA_Handle->XferCpltCallback = ADC_DMAConvCplt;
 8003bc2:	4b13      	ldr	r3, [pc, #76]	@ (8003c10 <HAL_ADC_Start_DMA+0xa4>)
      ADC_CLEAR_ERRORCODE(hadc);
 8003bc4:	65e0      	str	r0, [r4, #92]	@ 0x5c
      hadc->DMA_Handle->XferCpltCallback = ADC_DMAConvCplt;
 8003bc6:	62eb      	str	r3, [r5, #44]	@ 0x2c
      hadc->DMA_Handle->XferHalfCpltCallback = ADC_DMAHalfConvCplt;
 8003bc8:	4b12      	ldr	r3, [pc, #72]	@ (8003c14 <HAL_ADC_Start_DMA+0xa8>)
      __HAL_ADC_ENABLE_IT(hadc, ADC_IT_OVR);
 8003bca:	2210      	movs	r2, #16
      hadc->DMA_Handle->XferHalfCpltCallback = ADC_DMAHalfConvCplt;
 8003bcc:	632b      	str	r3, [r5, #48]	@ 0x30
      hadc->DMA_Handle->XferErrorCallback = ADC_DMAError;
 8003bce:	4b12      	ldr	r3, [pc, #72]	@ (8003c18 <HAL_ADC_Start_DMA+0xac>)
      __HAL_ADC_CLEAR_FLAG(hadc, (ADC_FLAG_EOC | ADC_FLAG_EOS | ADC_FLAG_OVR));
 8003bd0:	6821      	ldr	r1, [r4, #0]
      hadc->DMA_Handle->XferErrorCallback = ADC_DMAError;
 8003bd2:	636b      	str	r3, [r5, #52]	@ 0x34
      __HAL_ADC_CLEAR_FLAG(hadc, (ADC_FLAG_EOC | ADC_FLAG_EOS | ADC_FLAG_OVR));
 8003bd4:	231c      	movs	r3, #28
 8003bd6:	600b      	str	r3, [r1, #0]
      __HAL_UNLOCK(hadc);
 8003bd8:	3338      	adds	r3, #56	@ 0x38
 8003bda:	54e0      	strb	r0, [r4, r3]
      __HAL_ADC_ENABLE_IT(hadc, ADC_IT_OVR);
 8003bdc:	684b      	ldr	r3, [r1, #4]
      tmp_hal_status = HAL_DMA_Start_IT(hadc->DMA_Handle, (uint32_t)&hadc->Instance->DR, (uint32_t)pData, Length);
 8003bde:	0028      	movs	r0, r5
      __HAL_ADC_ENABLE_IT(hadc, ADC_IT_OVR);
 8003be0:	4313      	orrs	r3, r2
 8003be2:	604b      	str	r3, [r1, #4]
      tmp_hal_status = HAL_DMA_Start_IT(hadc->DMA_Handle, (uint32_t)&hadc->Instance->DR, (uint32_t)pData, Length);
 8003be4:	4642      	mov	r2, r8
 8003be6:	003b      	movs	r3, r7
 8003be8:	3140      	adds	r1, #64	@ 0x40
 8003bea:	f000 fa4d 	bl	8004088 <HAL_DMA_Start_IT>
      LL_ADC_REG_StartConversion(hadc->Instance);
 8003bee:	6822      	ldr	r2, [r4, #0]
  MODIFY_REG(ADCx->CR,
 8003bf0:	490a      	ldr	r1, [pc, #40]	@ (8003c1c <HAL_ADC_Start_DMA+0xb0>)
 8003bf2:	6893      	ldr	r3, [r2, #8]
 8003bf4:	400b      	ands	r3, r1
 8003bf6:	2104      	movs	r1, #4
 8003bf8:	430b      	orrs	r3, r1
 8003bfa:	6093      	str	r3, [r2, #8]
}
 8003bfc:	e7d6      	b.n	8003bac <HAL_ADC_Start_DMA+0x40>
  MODIFY_REG(ADCx->CR,
 8003bfe:	68ab      	ldr	r3, [r5, #8]
 8003c00:	4a06      	ldr	r2, [pc, #24]	@ (8003c1c <HAL_ADC_Start_DMA+0xb0>)
 8003c02:	4013      	ands	r3, r2
 8003c04:	4303      	orrs	r3, r0
 8003c06:	60ab      	str	r3, [r5, #8]
}
 8003c08:	e7c7      	b.n	8003b9a <HAL_ADC_Start_DMA+0x2e>
 8003c0a:	46c0      	nop			@ (mov r8, r8)
 8003c0c:	fffff0fe 	.word	0xfffff0fe
 8003c10:	080033fd 	.word	0x080033fd
 8003c14:	0800347d 	.word	0x0800347d
 8003c18:	08003489 	.word	0x08003489
 8003c1c:	7fffffe8 	.word	0x7fffffe8

08003c20 <ADC_Disable>:
  return ((READ_BIT(ADCx->CR, ADC_CR_ADDIS) == (ADC_CR_ADDIS)) ? 1UL : 0UL);
 8003c20:	2202      	movs	r2, #2
{
 8003c22:	b5f8      	push	{r3, r4, r5, r6, r7, lr}
  const uint32_t tmp_adc_is_disable_on_going = LL_ADC_IsDisableOngoing(hadc->Instance);
 8003c24:	6803      	ldr	r3, [r0, #0]
{
 8003c26:	0004      	movs	r4, r0
 8003c28:	6899      	ldr	r1, [r3, #8]
 8003c2a:	420a      	tst	r2, r1
 8003c2c:	d002      	beq.n	8003c34 <ADC_Disable+0x14>
  return ((READ_BIT(ADCx->CR, ADC_CR_ADEN) == (ADC_CR_ADEN)) ? 1UL : 0UL);
 8003c2e:	689b      	ldr	r3, [r3, #8]
  return HAL_OK;
 8003c30:	2000      	movs	r0, #0
}
 8003c32:	bdf8      	pop	{r3, r4, r5, r6, r7, pc}
 8003c34:	2101      	movs	r1, #1
 8003c36:	6898      	ldr	r0, [r3, #8]
 8003c38:	4201      	tst	r1, r0
 8003c3a:	d0f9      	beq.n	8003c30 <ADC_Disable+0x10>
    if ((hadc->Instance->CR & (ADC_CR_ADSTART | ADC_CR_ADEN)) == ADC_CR_ADEN)
 8003c3c:	2705      	movs	r7, #5
 8003c3e:	6898      	ldr	r0, [r3, #8]
 8003c40:	4007      	ands	r7, r0
 8003c42:	2f01      	cmp	r7, #1
 8003c44:	d008      	beq.n	8003c58 <ADC_Disable+0x38>
      SET_BIT(hadc->State, HAL_ADC_STATE_ERROR_INTERNAL);
 8003c46:	2210      	movs	r2, #16
 8003c48:	6da3      	ldr	r3, [r4, #88]	@ 0x58
      return HAL_ERROR;
 8003c4a:	2001      	movs	r0, #1
      SET_BIT(hadc->State, HAL_ADC_STATE_ERROR_INTERNAL);
 8003c4c:	4313      	orrs	r3, r2
 8003c4e:	65a3      	str	r3, [r4, #88]	@ 0x58
      SET_BIT(hadc->ErrorCode, HAL_ADC_ERROR_INTERNAL);
 8003c50:	6de3      	ldr	r3, [r4, #92]	@ 0x5c
 8003c52:	430b      	orrs	r3, r1
 8003c54:	65e3      	str	r3, [r4, #92]	@ 0x5c
      return HAL_ERROR;
 8003c56:	e7ec      	b.n	8003c32 <ADC_Disable+0x12>
  MODIFY_REG(ADCx->CR,
 8003c58:	6899      	ldr	r1, [r3, #8]
 8003c5a:	4812      	ldr	r0, [pc, #72]	@ (8003ca4 <ADC_Disable+0x84>)
        if ((hadc->Instance->CR & ADC_CR_ADEN) != 0UL)
 8003c5c:	2501      	movs	r5, #1
 8003c5e:	4001      	ands	r1, r0
 8003c60:	430a      	orrs	r2, r1
 8003c62:	609a      	str	r2, [r3, #8]
      __HAL_ADC_CLEAR_FLAG(hadc, (ADC_FLAG_EOSMP | ADC_FLAG_RDY));
 8003c64:	2203      	movs	r2, #3
 8003c66:	601a      	str	r2, [r3, #0]
    tickstart = HAL_GetTick();
 8003c68:	f7ff fbc2 	bl	80033f0 <HAL_GetTick>
    while ((hadc->Instance->CR & ADC_CR_ADEN) != 0UL)
 8003c6c:	6823      	ldr	r3, [r4, #0]
    tickstart = HAL_GetTick();
 8003c6e:	0006      	movs	r6, r0
    while ((hadc->Instance->CR & ADC_CR_ADEN) != 0UL)
 8003c70:	689b      	ldr	r3, [r3, #8]
 8003c72:	421f      	tst	r7, r3
 8003c74:	d0dc      	beq.n	8003c30 <ADC_Disable+0x10>
      if ((HAL_GetTick() - tickstart) > ADC_DISABLE_TIMEOUT)
 8003c76:	f7ff fbbb 	bl	80033f0 <HAL_GetTick>
        if ((hadc->Instance->CR & ADC_CR_ADEN) != 0UL)
 8003c7a:	6823      	ldr	r3, [r4, #0]
      if ((HAL_GetTick() - tickstart) > ADC_DISABLE_TIMEOUT)
 8003c7c:	1b80      	subs	r0, r0, r6
 8003c7e:	2802      	cmp	r0, #2
 8003c80:	d902      	bls.n	8003c88 <ADC_Disable+0x68>
        if ((hadc->Instance->CR & ADC_CR_ADEN) != 0UL)
 8003c82:	689a      	ldr	r2, [r3, #8]
 8003c84:	4215      	tst	r5, r2
 8003c86:	d103      	bne.n	8003c90 <ADC_Disable+0x70>
    while ((hadc->Instance->CR & ADC_CR_ADEN) != 0UL)
 8003c88:	689b      	ldr	r3, [r3, #8]
 8003c8a:	421d      	tst	r5, r3
 8003c8c:	d1f3      	bne.n	8003c76 <ADC_Disable+0x56>
 8003c8e:	e7cf      	b.n	8003c30 <ADC_Disable+0x10>
          SET_BIT(hadc->State, HAL_ADC_STATE_ERROR_INTERNAL);
 8003c90:	2210      	movs	r2, #16
 8003c92:	6da3      	ldr	r3, [r4, #88]	@ 0x58
      return HAL_ERROR;
 8003c94:	2001      	movs	r0, #1
          SET_BIT(hadc->State, HAL_ADC_STATE_ERROR_INTERNAL);
 8003c96:	4313      	orrs	r3, r2
 8003c98:	65a3      	str	r3, [r4, #88]	@ 0x58
          SET_BIT(hadc->ErrorCode, HAL_ADC_ERROR_INTERNAL);
 8003c9a:	6de3      	ldr	r3, [r4, #92]	@ 0x5c
 8003c9c:	432b      	orrs	r3, r5
 8003c9e:	65e3      	str	r3, [r4, #92]	@ 0x5c
          return HAL_ERROR;
 8003ca0:	e7c7      	b.n	8003c32 <ADC_Disable+0x12>
 8003ca2:	46c0      	nop			@ (mov r8, r8)
 8003ca4:	7fffffe8 	.word	0x7fffffe8

08003ca8 <HAL_ADC_Stop_DMA>:
  __HAL_LOCK(hadc);
 8003ca8:	2354      	movs	r3, #84	@ 0x54
{
 8003caa:	b570      	push	{r4, r5, r6, lr}
  __HAL_LOCK(hadc);
 8003cac:	5cc2      	ldrb	r2, [r0, r3]
{
 8003cae:	0004      	movs	r4, r0
  __HAL_LOCK(hadc);
 8003cb0:	2a01      	cmp	r2, #1
 8003cb2:	d025      	beq.n	8003d00 <HAL_ADC_Stop_DMA+0x58>
 8003cb4:	2201      	movs	r2, #1
 8003cb6:	54c2      	strb	r2, [r0, r3]
  tmp_hal_status = ADC_ConversionStop(hadc);
 8003cb8:	f7ff feb8 	bl	8003a2c <ADC_ConversionStop>
 8003cbc:	1e05      	subs	r5, r0, #0
  if (tmp_hal_status == HAL_OK)
 8003cbe:	d11a      	bne.n	8003cf6 <HAL_ADC_Stop_DMA+0x4e>
    if (hadc->DMA_Handle->State == HAL_DMA_STATE_BUSY)
 8003cc0:	2325      	movs	r3, #37	@ 0x25
 8003cc2:	6d20      	ldr	r0, [r4, #80]	@ 0x50
 8003cc4:	5cc3      	ldrb	r3, [r0, r3]
 8003cc6:	2b02      	cmp	r3, #2
 8003cc8:	d01c      	beq.n	8003d04 <HAL_ADC_Stop_DMA+0x5c>
    __HAL_ADC_DISABLE_IT(hadc, ADC_IT_OVR);
 8003cca:	2110      	movs	r1, #16
 8003ccc:	6822      	ldr	r2, [r4, #0]
      tmp_hal_status = ADC_Disable(hadc);
 8003cce:	0020      	movs	r0, r4
    __HAL_ADC_DISABLE_IT(hadc, ADC_IT_OVR);
 8003cd0:	6853      	ldr	r3, [r2, #4]
 8003cd2:	438b      	bics	r3, r1
 8003cd4:	6053      	str	r3, [r2, #4]
      tmp_hal_status = ADC_Disable(hadc);
 8003cd6:	f7ff ffa3 	bl	8003c20 <ADC_Disable>
 8003cda:	1e05      	subs	r5, r0, #0
    if (tmp_hal_status == HAL_OK)
 8003cdc:	d106      	bne.n	8003cec <HAL_ADC_Stop_DMA+0x44>
      ADC_STATE_CLR_SET(hadc->State,
 8003cde:	6da3      	ldr	r3, [r4, #88]	@ 0x58
 8003ce0:	4a13      	ldr	r2, [pc, #76]	@ (8003d30 <HAL_ADC_Stop_DMA+0x88>)
 8003ce2:	4013      	ands	r3, r2
 8003ce4:	3204      	adds	r2, #4
 8003ce6:	32ff      	adds	r2, #255	@ 0xff
 8003ce8:	4313      	orrs	r3, r2
 8003cea:	65a3      	str	r3, [r4, #88]	@ 0x58
    CLEAR_BIT(hadc->Instance->CFGR1, ADC_CFGR1_DMAEN);
 8003cec:	2101      	movs	r1, #1
 8003cee:	6822      	ldr	r2, [r4, #0]
 8003cf0:	68d3      	ldr	r3, [r2, #12]
 8003cf2:	438b      	bics	r3, r1
 8003cf4:	60d3      	str	r3, [r2, #12]
  __HAL_UNLOCK(hadc);
 8003cf6:	2354      	movs	r3, #84	@ 0x54
 8003cf8:	2200      	movs	r2, #0
 8003cfa:	54e2      	strb	r2, [r4, r3]
}
 8003cfc:	0028      	movs	r0, r5
 8003cfe:	bd70      	pop	{r4, r5, r6, pc}
  __HAL_LOCK(hadc);
 8003d00:	2502      	movs	r5, #2
 8003d02:	e7fb      	b.n	8003cfc <HAL_ADC_Stop_DMA+0x54>
      tmp_hal_status = HAL_DMA_Abort(hadc->DMA_Handle);
 8003d04:	f000 fa28 	bl	8004158 <HAL_DMA_Abort>
 8003d08:	1e05      	subs	r5, r0, #0
      if (tmp_hal_status != HAL_OK)
 8003d0a:	d0de      	beq.n	8003cca <HAL_ADC_Stop_DMA+0x22>
        SET_BIT(hadc->State, HAL_ADC_STATE_ERROR_DMA);
 8003d0c:	2240      	movs	r2, #64	@ 0x40
    __HAL_ADC_DISABLE_IT(hadc, ADC_IT_OVR);
 8003d0e:	2110      	movs	r1, #16
        SET_BIT(hadc->State, HAL_ADC_STATE_ERROR_DMA);
 8003d10:	6da3      	ldr	r3, [r4, #88]	@ 0x58
      (void)ADC_Disable(hadc);
 8003d12:	0020      	movs	r0, r4
        SET_BIT(hadc->State, HAL_ADC_STATE_ERROR_DMA);
 8003d14:	4313      	orrs	r3, r2
    __HAL_ADC_DISABLE_IT(hadc, ADC_IT_OVR);
 8003d16:	6822      	ldr	r2, [r4, #0]
        SET_BIT(hadc->State, HAL_ADC_STATE_ERROR_DMA);
 8003d18:	65a3      	str	r3, [r4, #88]	@ 0x58
    __HAL_ADC_DISABLE_IT(hadc, ADC_IT_OVR);
 8003d1a:	6853      	ldr	r3, [r2, #4]
 8003d1c:	438b      	bics	r3, r1
 8003d1e:	6053      	str	r3, [r2, #4]
      (void)ADC_Disable(hadc);
 8003d20:	f7ff ff7e 	bl	8003c20 <ADC_Disable>
    CLEAR_BIT(hadc->Instance->CFGR1, ADC_CFGR1_DMAEN);
 8003d24:	2101      	movs	r1, #1
 8003d26:	6822      	ldr	r2, [r4, #0]
 8003d28:	68d3      	ldr	r3, [r2, #12]
 8003d2a:	438b      	bics	r3, r1
 8003d2c:	60d3      	str	r3, [r2, #12]
 8003d2e:	e7e2      	b.n	8003cf6 <HAL_ADC_Stop_DMA+0x4e>
 8003d30:	fffffefe 	.word	0xfffffefe

08003d34 <HAL_ADCEx_Calibration_Start>:
  *         HAL_ADC_GetValue() (value on 7 bits: from DR[6;0]).
  * @param  hadc       ADC handle
  * @retval HAL status
  */
HAL_StatusTypeDef HAL_ADCEx_Calibration_Start(ADC_HandleTypeDef *hadc)
{
 8003d34:	b5f0      	push	{r4, r5, r6, r7, lr}
 8003d36:	46de      	mov	lr, fp
 8003d38:	4657      	mov	r7, sl
 8003d3a:	464e      	mov	r6, r9
 8003d3c:	4645      	mov	r5, r8
  HAL_StatusTypeDef tmp_hal_status;
  __IO uint32_t wait_loop_index = 0UL;
 8003d3e:	2300      	movs	r3, #0
{
 8003d40:	b5e0      	push	{r5, r6, r7, lr}
 8003d42:	b085      	sub	sp, #20
  __IO uint32_t wait_loop_index = 0UL;
 8003d44:	9302      	str	r3, [sp, #8]
  __IO uint32_t delay_cpu_cycles;

  /* Check the parameters */
  assert_param(IS_ADC_ALL_INSTANCE(hadc->Instance));

  __HAL_LOCK(hadc);
 8003d46:	3354      	adds	r3, #84	@ 0x54
 8003d48:	5cc2      	ldrb	r2, [r0, r3]
{
 8003d4a:	0004      	movs	r4, r0
  __HAL_LOCK(hadc);
 8003d4c:	2a01      	cmp	r2, #1
 8003d4e:	d100      	bne.n	8003d52 <HAL_ADCEx_Calibration_Start+0x1e>
 8003d50:	e0af      	b.n	8003eb2 <HAL_ADCEx_Calibration_Start+0x17e>
 8003d52:	2701      	movs	r7, #1
 8003d54:	54c7      	strb	r7, [r0, r3]

  /* Calibration prerequisite: ADC must be disabled. */

  /* Disable the ADC (if not already disabled) */
  tmp_hal_status = ADC_Disable(hadc);
 8003d56:	f7ff ff63 	bl	8003c20 <ADC_Disable>
  return ((READ_BIT(ADCx->CR, ADC_CR_ADEN) == (ADC_CR_ADEN)) ? 1UL : 0UL);
 8003d5a:	003d      	movs	r5, r7

  /* Check if ADC is effectively disabled */
  if (LL_ADC_IsEnabled(hadc->Instance) == 0UL)
 8003d5c:	6823      	ldr	r3, [r4, #0]
  tmp_hal_status = ADC_Disable(hadc);
 8003d5e:	9001      	str	r0, [sp, #4]
 8003d60:	689a      	ldr	r2, [r3, #8]
 8003d62:	4015      	ands	r5, r2
 8003d64:	4217      	tst	r7, r2
 8003d66:	d136      	bne.n	8003dd6 <HAL_ADCEx_Calibration_Start+0xa2>
  {
    /* Set ADC state */
    ADC_STATE_CLR_SET(hadc->State,
 8003d68:	6da2      	ldr	r2, [r4, #88]	@ 0x58
 8003d6a:	4953      	ldr	r1, [pc, #332]	@ (8003eb8 <HAL_ADCEx_Calibration_Start+0x184>)
  MODIFY_REG(ADCx->CR,
 8003d6c:	2080      	movs	r0, #128	@ 0x80
 8003d6e:	400a      	ands	r2, r1
 8003d70:	3106      	adds	r1, #6
 8003d72:	31ff      	adds	r1, #255	@ 0xff
 8003d74:	430a      	orrs	r2, r1
 8003d76:	65a2      	str	r2, [r4, #88]	@ 0x58
    /* Note: Specificity of this STM32 series: Calibration factor is          */
    /*       available in data register and also transferred by DMA.          */
    /*       To not insert ADC calibration factor among ADC conversion data   */
    /*       in array variable, DMA transfer must be disabled during          */
    /*       calibration.                                                     */
    backup_setting_cfgr1 = READ_BIT(hadc->Instance->CFGR1, ADC_CFGR1_DMAEN | ADC_CFGR1_DMACFG | ADC_CFGR1_AUTOFF);
 8003d78:	68da      	ldr	r2, [r3, #12]
    CLEAR_BIT(hadc->Instance->CFGR1, ADC_CFGR1_DMAEN | ADC_CFGR1_DMACFG | ADC_CFGR1_AUTOFF);
 8003d7a:	4950      	ldr	r1, [pc, #320]	@ (8003ebc <HAL_ADCEx_Calibration_Start+0x188>)
    backup_setting_cfgr1 = READ_BIT(hadc->Instance->CFGR1, ADC_CFGR1_DMAEN | ADC_CFGR1_DMACFG | ADC_CFGR1_AUTOFF);
 8003d7c:	4693      	mov	fp, r2
    CLEAR_BIT(hadc->Instance->CFGR1, ADC_CFGR1_DMAEN | ADC_CFGR1_DMACFG | ADC_CFGR1_AUTOFF);
 8003d7e:	68da      	ldr	r2, [r3, #12]
  return (uint32_t)(READ_BIT(ADCx->CALFACT, ADC_CALFACT_CALFACT));
 8003d80:	277f      	movs	r7, #127	@ 0x7f
 8003d82:	400a      	ands	r2, r1
 8003d84:	60da      	str	r2, [r3, #12]
  MODIFY_REG(ADCx->CR,
 8003d86:	4a4e      	ldr	r2, [pc, #312]	@ (8003ec0 <HAL_ADCEx_Calibration_Start+0x18c>)
 8003d88:	2108      	movs	r1, #8
 8003d8a:	4694      	mov	ip, r2

      /* Wait for calibration completion */
      while (LL_ADC_IsCalibrationOnGoing(hadc->Instance) != 0UL)
      {
        wait_loop_index++;
        if (wait_loop_index >= ADC_CALIBRATION_TIMEOUT)
 8003d8c:	4a4d      	ldr	r2, [pc, #308]	@ (8003ec4 <HAL_ADCEx_Calibration_Start+0x190>)
 8003d8e:	0600      	lsls	r0, r0, #24
 8003d90:	4692      	mov	sl, r2
  return (uint32_t)(READ_BIT(ADCx->CALFACT, ADC_CALFACT_CALFACT));
 8003d92:	22b4      	movs	r2, #180	@ 0xb4
 8003d94:	4691      	mov	r9, r2
 8003d96:	e006      	b.n	8003da6 <HAL_ADCEx_Calibration_Start+0x72>
 8003d98:	464a      	mov	r2, r9
 8003d9a:	589a      	ldr	r2, [r3, r2]
    for (calibration_index = 0UL; calibration_index < 8UL; calibration_index++)
 8003d9c:	3901      	subs	r1, #1
 8003d9e:	403a      	ands	r2, r7

          return HAL_ERROR;
        }
      }

      calibration_factor_accumulated += LL_ADC_GetCalibrationFactor(hadc->Instance);
 8003da0:	18ad      	adds	r5, r5, r2
    for (calibration_index = 0UL; calibration_index < 8UL; calibration_index++)
 8003da2:	2900      	cmp	r1, #0
 8003da4:	d026      	beq.n	8003df4 <HAL_ADCEx_Calibration_Start+0xc0>
  MODIFY_REG(ADCx->CR,
 8003da6:	4666      	mov	r6, ip
 8003da8:	689a      	ldr	r2, [r3, #8]
 8003daa:	4032      	ands	r2, r6
 8003dac:	4302      	orrs	r2, r0
 8003dae:	609a      	str	r2, [r3, #8]
  return ((READ_BIT(ADCx->CR, ADC_CR_ADCAL) == (ADC_CR_ADCAL)) ? 1UL : 0UL);
 8003db0:	689a      	ldr	r2, [r3, #8]
 8003db2:	2a00      	cmp	r2, #0
 8003db4:	daf0      	bge.n	8003d98 <HAL_ADCEx_Calibration_Start+0x64>
        wait_loop_index++;
 8003db6:	9a02      	ldr	r2, [sp, #8]
 8003db8:	3201      	adds	r2, #1
 8003dba:	9202      	str	r2, [sp, #8]
        if (wait_loop_index >= ADC_CALIBRATION_TIMEOUT)
 8003dbc:	9a02      	ldr	r2, [sp, #8]
 8003dbe:	4552      	cmp	r2, sl
 8003dc0:	d9f6      	bls.n	8003db0 <HAL_ADCEx_Calibration_Start+0x7c>
          ADC_STATE_CLR_SET(hadc->State,
 8003dc2:	2212      	movs	r2, #18
 8003dc4:	6da3      	ldr	r3, [r4, #88]	@ 0x58
 8003dc6:	4393      	bics	r3, r2
 8003dc8:	3a02      	subs	r2, #2
 8003dca:	4313      	orrs	r3, r2
 8003dcc:	65a3      	str	r3, [r4, #88]	@ 0x58
          __HAL_UNLOCK(hadc);
 8003dce:	2200      	movs	r2, #0
 8003dd0:	2354      	movs	r3, #84	@ 0x54
 8003dd2:	54e2      	strb	r2, [r4, r3]
          return HAL_ERROR;
 8003dd4:	e059      	b.n	8003e8a <HAL_ADCEx_Calibration_Start+0x156>
                      HAL_ADC_STATE_BUSY_INTERNAL,
                      HAL_ADC_STATE_READY);
  }
  else
  {
    SET_BIT(hadc->State, HAL_ADC_STATE_ERROR_INTERNAL);
 8003dd6:	2210      	movs	r2, #16
 8003dd8:	6da3      	ldr	r3, [r4, #88]	@ 0x58
 8003dda:	4313      	orrs	r3, r2
 8003ddc:	65a3      	str	r3, [r4, #88]	@ 0x58

    /* Note: No need to update variable "tmp_hal_status" here: already set    */
    /*       to state "HAL_ERROR" by function disabling the ADC.              */
  }

  __HAL_UNLOCK(hadc);
 8003dde:	2354      	movs	r3, #84	@ 0x54
 8003de0:	2200      	movs	r2, #0
 8003de2:	54e2      	strb	r2, [r4, r3]

  return tmp_hal_status;
}
 8003de4:	9801      	ldr	r0, [sp, #4]
 8003de6:	b005      	add	sp, #20
 8003de8:	bcf0      	pop	{r4, r5, r6, r7}
 8003dea:	46bb      	mov	fp, r7
 8003dec:	46b2      	mov	sl, r6
 8003dee:	46a9      	mov	r9, r5
 8003df0:	46a0      	mov	r8, r4
 8003df2:	bdf0      	pop	{r4, r5, r6, r7, pc}
  MODIFY_REG(ADCx->CR,
 8003df4:	689a      	ldr	r2, [r3, #8]
 8003df6:	4832      	ldr	r0, [pc, #200]	@ (8003ec0 <HAL_ADCEx_Calibration_Start+0x18c>)
    calibration_factor_accumulated /= calibration_index;
 8003df8:	08e9      	lsrs	r1, r5, #3
 8003dfa:	4002      	ands	r2, r0
 8003dfc:	2001      	movs	r0, #1
 8003dfe:	4302      	orrs	r2, r0
 8003e00:	609a      	str	r2, [r3, #8]
    if (LL_ADC_GetClock(hadc->Instance) == LL_ADC_CLOCK_ASYNC)
 8003e02:	2280      	movs	r2, #128	@ 0x80
  return (uint32_t)(READ_BIT(ADCx->CFGR2, ADC_CFGR2_CKMODE));
 8003e04:	691d      	ldr	r5, [r3, #16]
 8003e06:	05d2      	lsls	r2, r2, #23
 8003e08:	4295      	cmp	r5, r2
 8003e0a:	d218      	bcs.n	8003e3e <HAL_ADCEx_Calibration_Start+0x10a>
  return (uint32_t)(READ_BIT(ADCxy_COMMON->CCR, ADC_CCR_PRESC));
 8003e0c:	25f0      	movs	r5, #240	@ 0xf0
 8003e0e:	4a2e      	ldr	r2, [pc, #184]	@ (8003ec8 <HAL_ADCEx_Calibration_Start+0x194>)
 8003e10:	03ad      	lsls	r5, r5, #14
 8003e12:	6812      	ldr	r2, [r2, #0]
 8003e14:	402a      	ands	r2, r5
      if (adc_clk_async_presc >= LL_ADC_CLOCK_ASYNC_DIV16)
 8003e16:	25e0      	movs	r5, #224	@ 0xe0
 8003e18:	036d      	lsls	r5, r5, #13
 8003e1a:	42aa      	cmp	r2, r5
 8003e1c:	d30f      	bcc.n	8003e3e <HAL_ADCEx_Calibration_Start+0x10a>
        delay_cpu_cycles = (1UL << ((adc_clk_async_presc >> ADC_CCR_PRESC_Pos) - 3UL));
 8003e1e:	0c92      	lsrs	r2, r2, #18
 8003e20:	3a03      	subs	r2, #3
 8003e22:	4090      	lsls	r0, r2
 8003e24:	9003      	str	r0, [sp, #12]
        delay_cpu_cycles >>= 1UL;
 8003e26:	9a03      	ldr	r2, [sp, #12]
 8003e28:	0852      	lsrs	r2, r2, #1
 8003e2a:	9203      	str	r2, [sp, #12]
        while (delay_cpu_cycles != 0UL)
 8003e2c:	9a03      	ldr	r2, [sp, #12]
 8003e2e:	2a00      	cmp	r2, #0
 8003e30:	d005      	beq.n	8003e3e <HAL_ADCEx_Calibration_Start+0x10a>
          delay_cpu_cycles--;
 8003e32:	9a03      	ldr	r2, [sp, #12]
 8003e34:	3a01      	subs	r2, #1
 8003e36:	9203      	str	r2, [sp, #12]
        while (delay_cpu_cycles != 0UL)
 8003e38:	9a03      	ldr	r2, [sp, #12]
 8003e3a:	2a00      	cmp	r2, #0
 8003e3c:	d1f9      	bne.n	8003e32 <HAL_ADCEx_Calibration_Start+0xfe>
  MODIFY_REG(ADCx->CALFACT,
 8003e3e:	22b4      	movs	r2, #180	@ 0xb4
 8003e40:	207f      	movs	r0, #127	@ 0x7f
 8003e42:	589d      	ldr	r5, [r3, r2]
 8003e44:	4385      	bics	r5, r0
 8003e46:	430d      	orrs	r5, r1
 8003e48:	509d      	str	r5, [r3, r2]
  MODIFY_REG(ADCx->CR,
 8003e4a:	689a      	ldr	r2, [r3, #8]
 8003e4c:	491c      	ldr	r1, [pc, #112]	@ (8003ec0 <HAL_ADCEx_Calibration_Start+0x18c>)
 8003e4e:	400a      	ands	r2, r1
 8003e50:	2102      	movs	r1, #2
 8003e52:	430a      	orrs	r2, r1
 8003e54:	609a      	str	r2, [r3, #8]
    tickstart = HAL_GetTick();
 8003e56:	f7ff facb 	bl	80033f0 <HAL_GetTick>
    while (LL_ADC_IsEnabled(hadc->Instance) != 0UL)
 8003e5a:	6823      	ldr	r3, [r4, #0]
    tickstart = HAL_GetTick();
 8003e5c:	0005      	movs	r5, r0
  return ((READ_BIT(ADCx->CR, ADC_CR_ADEN) == (ADC_CR_ADEN)) ? 1UL : 0UL);
 8003e5e:	689a      	ldr	r2, [r3, #8]
 8003e60:	07d2      	lsls	r2, r2, #31
 8003e62:	d519      	bpl.n	8003e98 <HAL_ADCEx_Calibration_Start+0x164>
 8003e64:	2301      	movs	r3, #1
 8003e66:	4698      	mov	r8, r3
      if ((HAL_GetTick() - tickstart) > ADC_DISABLE_TIMEOUT)
 8003e68:	f7ff fac2 	bl	80033f0 <HAL_GetTick>
        if (LL_ADC_IsEnabled(hadc->Instance) != 0UL)
 8003e6c:	6823      	ldr	r3, [r4, #0]
      if ((HAL_GetTick() - tickstart) > ADC_DISABLE_TIMEOUT)
 8003e6e:	1b40      	subs	r0, r0, r5
 8003e70:	2802      	cmp	r0, #2
 8003e72:	d90d      	bls.n	8003e90 <HAL_ADCEx_Calibration_Start+0x15c>
 8003e74:	2201      	movs	r2, #1
 8003e76:	6899      	ldr	r1, [r3, #8]
 8003e78:	420a      	tst	r2, r1
 8003e7a:	d009      	beq.n	8003e90 <HAL_ADCEx_Calibration_Start+0x15c>
          SET_BIT(hadc->State, HAL_ADC_STATE_ERROR_INTERNAL);
 8003e7c:	2110      	movs	r1, #16
 8003e7e:	6da3      	ldr	r3, [r4, #88]	@ 0x58
 8003e80:	430b      	orrs	r3, r1
 8003e82:	65a3      	str	r3, [r4, #88]	@ 0x58
          SET_BIT(hadc->ErrorCode, HAL_ADC_ERROR_INTERNAL);
 8003e84:	6de3      	ldr	r3, [r4, #92]	@ 0x5c
 8003e86:	4313      	orrs	r3, r2
 8003e88:	65e3      	str	r3, [r4, #92]	@ 0x5c
          return HAL_ERROR;
 8003e8a:	2301      	movs	r3, #1
 8003e8c:	9301      	str	r3, [sp, #4]
 8003e8e:	e7a9      	b.n	8003de4 <HAL_ADCEx_Calibration_Start+0xb0>
 8003e90:	4641      	mov	r1, r8
 8003e92:	689a      	ldr	r2, [r3, #8]
 8003e94:	4211      	tst	r1, r2
 8003e96:	d1e7      	bne.n	8003e68 <HAL_ADCEx_Calibration_Start+0x134>
    backup_setting_cfgr1 = READ_BIT(hadc->Instance->CFGR1, ADC_CFGR1_DMAEN | ADC_CFGR1_DMACFG | ADC_CFGR1_AUTOFF);
 8003e98:	465f      	mov	r7, fp
 8003e9a:	490c      	ldr	r1, [pc, #48]	@ (8003ecc <HAL_ADCEx_Calibration_Start+0x198>)
    SET_BIT(hadc->Instance->CFGR1, backup_setting_cfgr1);
 8003e9c:	68da      	ldr	r2, [r3, #12]
    backup_setting_cfgr1 = READ_BIT(hadc->Instance->CFGR1, ADC_CFGR1_DMAEN | ADC_CFGR1_DMACFG | ADC_CFGR1_AUTOFF);
 8003e9e:	400f      	ands	r7, r1
    SET_BIT(hadc->Instance->CFGR1, backup_setting_cfgr1);
 8003ea0:	4317      	orrs	r7, r2
    ADC_STATE_CLR_SET(hadc->State,
 8003ea2:	2203      	movs	r2, #3
    SET_BIT(hadc->Instance->CFGR1, backup_setting_cfgr1);
 8003ea4:	60df      	str	r7, [r3, #12]
    ADC_STATE_CLR_SET(hadc->State,
 8003ea6:	6da3      	ldr	r3, [r4, #88]	@ 0x58
 8003ea8:	4393      	bics	r3, r2
 8003eaa:	3a02      	subs	r2, #2
 8003eac:	4313      	orrs	r3, r2
 8003eae:	65a3      	str	r3, [r4, #88]	@ 0x58
 8003eb0:	e795      	b.n	8003dde <HAL_ADCEx_Calibration_Start+0xaa>
  __HAL_LOCK(hadc);
 8003eb2:	2302      	movs	r3, #2
 8003eb4:	9301      	str	r3, [sp, #4]
 8003eb6:	e795      	b.n	8003de4 <HAL_ADCEx_Calibration_Start+0xb0>
 8003eb8:	fffffefd 	.word	0xfffffefd
 8003ebc:	ffff7ffc 	.word	0xffff7ffc
 8003ec0:	7fffffe8 	.word	0x7fffffe8
 8003ec4:	0002f1ff 	.word	0x0002f1ff
 8003ec8:	40012708 	.word	0x40012708
 8003ecc:	00008003 	.word	0x00008003

08003ed0 <HAL_ADCEx_LevelOutOfWindow2Callback>:
  UNUSED(hadc);

  /* NOTE : This function should not be modified. When the callback is needed,
            function HAL_ADCEx_LevelOutOfWindow2Callback must be implemented in the user file.
  */
}
 8003ed0:	4770      	bx	lr
 8003ed2:	46c0      	nop			@ (mov r8, r8)

08003ed4 <HAL_ADCEx_LevelOutOfWindow3Callback>:
/**
  * @brief  Analog watchdog 3 callback in non-blocking mode.
  * @param hadc ADC handle
  * @retval None
  */
__weak void HAL_ADCEx_LevelOutOfWindow3Callback(ADC_HandleTypeDef *hadc)
 8003ed4:	4770      	bx	lr
 8003ed6:	46c0      	nop			@ (mov r8, r8)

08003ed8 <HAL_ADCEx_EndOfSamplingCallback>:
/**
  * @brief  End Of Sampling callback in non-blocking mode.
  * @param hadc ADC handle
  * @retval None
  */
__weak void HAL_ADCEx_EndOfSamplingCallback(ADC_HandleTypeDef *hadc)
 8003ed8:	4770      	bx	lr
 8003eda:	46c0      	nop			@ (mov r8, r8)

08003edc <HAL_NVIC_SetPriority>:
 */
__STATIC_INLINE void __NVIC_SetPriority(IRQn_Type IRQn, uint32_t priority)
{
  if ((int32_t)(IRQn) >= 0)
  {
    NVIC->IP[_IP_IDX(IRQn)]  = ((uint32_t)(NVIC->IP[_IP_IDX(IRQn)]  & ~(0xFFUL << _BIT_SHIFT(IRQn))) |
 8003edc:	22ff      	movs	r2, #255	@ 0xff
 8003ede:	2303      	movs	r3, #3
  *         with stm32g0xx devices, this parameter is a dummy value and it is ignored, because
  *         no subpriority supported in Cortex M0+ based products.
  * @retval None
  */
void HAL_NVIC_SetPriority(IRQn_Type IRQn, uint32_t PreemptPriority, uint32_t SubPriority)
{
 8003ee0:	b510      	push	{r4, lr}
 8003ee2:	0014      	movs	r4, r2
 8003ee4:	4003      	ands	r3, r0
 8003ee6:	00db      	lsls	r3, r3, #3
 8003ee8:	409c      	lsls	r4, r3
       (((priority << (8U - __NVIC_PRIO_BITS)) & (uint32_t)0xFFUL) << _BIT_SHIFT(IRQn)));
 8003eea:	0189      	lsls	r1, r1, #6
 8003eec:	400a      	ands	r2, r1
    NVIC->IP[_IP_IDX(IRQn)]  = ((uint32_t)(NVIC->IP[_IP_IDX(IRQn)]  & ~(0xFFUL << _BIT_SHIFT(IRQn))) |
 8003eee:	43e4      	mvns	r4, r4
       (((priority << (8U - __NVIC_PRIO_BITS)) & (uint32_t)0xFFUL) << _BIT_SHIFT(IRQn)));
 8003ef0:	409a      	lsls	r2, r3
  if ((int32_t)(IRQn) >= 0)
 8003ef2:	2800      	cmp	r0, #0
 8003ef4:	db0b      	blt.n	8003f0e <HAL_NVIC_SetPriority+0x32>
    NVIC->IP[_IP_IDX(IRQn)]  = ((uint32_t)(NVIC->IP[_IP_IDX(IRQn)]  & ~(0xFFUL << _BIT_SHIFT(IRQn))) |
 8003ef6:	4b0c      	ldr	r3, [pc, #48]	@ (8003f28 <HAL_NVIC_SetPriority+0x4c>)
 8003ef8:	21c0      	movs	r1, #192	@ 0xc0
 8003efa:	469c      	mov	ip, r3
 8003efc:	0880      	lsrs	r0, r0, #2
 8003efe:	0080      	lsls	r0, r0, #2
 8003f00:	4460      	add	r0, ip
 8003f02:	0089      	lsls	r1, r1, #2
 8003f04:	5843      	ldr	r3, [r0, r1]
 8003f06:	4023      	ands	r3, r4
 8003f08:	4313      	orrs	r3, r2
 8003f0a:	5043      	str	r3, [r0, r1]
  UNUSED(SubPriority);

  /* Check the parameters */
  assert_param(IS_NVIC_PREEMPTION_PRIORITY(PreemptPriority));
  NVIC_SetPriority(IRQn, PreemptPriority);
}
 8003f0c:	bd10      	pop	{r4, pc}
  }
  else
  {
    SCB->SHP[_SHP_IDX(IRQn)] = ((uint32_t)(SCB->SHP[_SHP_IDX(IRQn)] & ~(0xFFUL << _BIT_SHIFT(IRQn))) |
 8003f0e:	230f      	movs	r3, #15
 8003f10:	4906      	ldr	r1, [pc, #24]	@ (8003f2c <HAL_NVIC_SetPriority+0x50>)
 8003f12:	4003      	ands	r3, r0
 8003f14:	468c      	mov	ip, r1
 8003f16:	3b08      	subs	r3, #8
 8003f18:	089b      	lsrs	r3, r3, #2
 8003f1a:	009b      	lsls	r3, r3, #2
 8003f1c:	4463      	add	r3, ip
 8003f1e:	69d9      	ldr	r1, [r3, #28]
 8003f20:	400c      	ands	r4, r1
 8003f22:	4314      	orrs	r4, r2
 8003f24:	61dc      	str	r4, [r3, #28]
 8003f26:	e7f1      	b.n	8003f0c <HAL_NVIC_SetPriority+0x30>
 8003f28:	e000e100 	.word	0xe000e100
 8003f2c:	e000ed00 	.word	0xe000ed00

08003f30 <HAL_NVIC_EnableIRQ>:
  if ((int32_t)(IRQn) >= 0)
 8003f30:	2800      	cmp	r0, #0
 8003f32:	db05      	blt.n	8003f40 <HAL_NVIC_EnableIRQ+0x10>
    NVIC->ISER[0U] = (uint32_t)(1UL << (((uint32_t)IRQn) & 0x1FUL));
 8003f34:	221f      	movs	r2, #31
 8003f36:	2301      	movs	r3, #1
 8003f38:	4002      	ands	r2, r0
 8003f3a:	4093      	lsls	r3, r2
 8003f3c:	4a01      	ldr	r2, [pc, #4]	@ (8003f44 <HAL_NVIC_EnableIRQ+0x14>)
 8003f3e:	6013      	str	r3, [r2, #0]
  /* Check the parameters */
  assert_param(IS_NVIC_DEVICE_IRQ(IRQn));

  /* Enable interrupt */
  NVIC_EnableIRQ(IRQn);
}
 8003f40:	4770      	bx	lr
 8003f42:	46c0      	nop			@ (mov r8, r8)
 8003f44:	e000e100 	.word	0xe000e100

08003f48 <HAL_NVIC_DisableIRQ>:
  if ((int32_t)(IRQn) >= 0)
 8003f48:	2800      	cmp	r0, #0
 8003f4a:	db0a      	blt.n	8003f62 <HAL_NVIC_DisableIRQ+0x1a>
    NVIC->ICER[0U] = (uint32_t)(1UL << (((uint32_t)IRQn) & 0x1FUL));
 8003f4c:	221f      	movs	r2, #31
 8003f4e:	2301      	movs	r3, #1
 8003f50:	4002      	ands	r2, r0
 8003f52:	4093      	lsls	r3, r2
 8003f54:	2280      	movs	r2, #128	@ 0x80
 8003f56:	4903      	ldr	r1, [pc, #12]	@ (8003f64 <HAL_NVIC_DisableIRQ+0x1c>)
 8003f58:	508b      	str	r3, [r1, r2]
  \details Acts as a special kind of Data Memory Barrier.
           It completes when all explicit memory accesses before this instruction complete.
 */
__STATIC_FORCEINLINE void __DSB(void)
{
  __ASM volatile ("dsb 0xF":::"memory");
 8003f5a:	f3bf 8f4f 	dsb	sy
  __ASM volatile ("isb 0xF":::"memory");
 8003f5e:	f3bf 8f6f 	isb	sy
  /* Check the parameters */
  assert_param(IS_NVIC_DEVICE_IRQ(IRQn));

  /* Disable interrupt */
  NVIC_DisableIRQ(IRQn);
}
 8003f62:	4770      	bx	lr
 8003f64:	e000e100 	.word	0xe000e100

08003f68 <HAL_SYSTICK_Config>:
           function <b>SysTick_Config</b> is not included. In this case, the file <b><i>device</i>.h</b>
           must contain a vendor-specific implementation of this function.
 */
__STATIC_INLINE uint32_t SysTick_Config(uint32_t ticks)
{
  if ((ticks - 1UL) > SysTick_LOAD_RELOAD_Msk)
 8003f68:	2280      	movs	r2, #128	@ 0x80
 8003f6a:	1e43      	subs	r3, r0, #1
 8003f6c:	0452      	lsls	r2, r2, #17
  {
    return (1UL);                                                   /* Reload value impossible */
 8003f6e:	2001      	movs	r0, #1
  if ((ticks - 1UL) > SysTick_LOAD_RELOAD_Msk)
 8003f70:	4293      	cmp	r3, r2
 8003f72:	d20e      	bcs.n	8003f92 <HAL_SYSTICK_Config+0x2a>
    SCB->SHP[_SHP_IDX(IRQn)] = ((uint32_t)(SCB->SHP[_SHP_IDX(IRQn)] & ~(0xFFUL << _BIT_SHIFT(IRQn))) |
 8003f74:	21c0      	movs	r1, #192	@ 0xc0
  }

  SysTick->LOAD  = (uint32_t)(ticks - 1UL);                         /* set reload register */
 8003f76:	4a07      	ldr	r2, [pc, #28]	@ (8003f94 <HAL_SYSTICK_Config+0x2c>)
    SCB->SHP[_SHP_IDX(IRQn)] = ((uint32_t)(SCB->SHP[_SHP_IDX(IRQn)] & ~(0xFFUL << _BIT_SHIFT(IRQn))) |
 8003f78:	4807      	ldr	r0, [pc, #28]	@ (8003f98 <HAL_SYSTICK_Config+0x30>)
  SysTick->LOAD  = (uint32_t)(ticks - 1UL);                         /* set reload register */
 8003f7a:	6053      	str	r3, [r2, #4]
    SCB->SHP[_SHP_IDX(IRQn)] = ((uint32_t)(SCB->SHP[_SHP_IDX(IRQn)] & ~(0xFFUL << _BIT_SHIFT(IRQn))) |
 8003f7c:	6a03      	ldr	r3, [r0, #32]
 8003f7e:	0609      	lsls	r1, r1, #24
 8003f80:	021b      	lsls	r3, r3, #8
 8003f82:	0a1b      	lsrs	r3, r3, #8
 8003f84:	430b      	orrs	r3, r1
 8003f86:	6203      	str	r3, [r0, #32]
  NVIC_SetPriority (SysTick_IRQn, (1UL << __NVIC_PRIO_BITS) - 1UL); /* set Priority for Systick Interrupt */
  SysTick->VAL   = 0UL;                                             /* Load the SysTick Counter Value */
 8003f88:	2300      	movs	r3, #0
  SysTick->CTRL  = SysTick_CTRL_CLKSOURCE_Msk |
                   SysTick_CTRL_TICKINT_Msk   |
                   SysTick_CTRL_ENABLE_Msk;                         /* Enable SysTick IRQ and SysTick Timer */
  return (0UL);                                                     /* Function successful */
 8003f8a:	2000      	movs	r0, #0
  SysTick->VAL   = 0UL;                                             /* Load the SysTick Counter Value */
 8003f8c:	6093      	str	r3, [r2, #8]
  SysTick->CTRL  = SysTick_CTRL_CLKSOURCE_Msk |
 8003f8e:	3307      	adds	r3, #7
 8003f90:	6013      	str	r3, [r2, #0]
  *                  - 1  Function failed.
  */
uint32_t HAL_SYSTICK_Config(uint32_t TicksNumb)
{
  return SysTick_Config(TicksNumb);
}
 8003f92:	4770      	bx	lr
 8003f94:	e000e010 	.word	0xe000e010
 8003f98:	e000ed00 	.word	0xe000ed00

08003f9c <HAL_DMA_Init>:
  * @param hdma Pointer to a DMA_HandleTypeDef structure that contains
  *             the configuration information for the specified DMA Channel.
  * @retval HAL status
  */
HAL_StatusTypeDef HAL_DMA_Init(DMA_HandleTypeDef *hdma)
{
 8003f9c:	b5f0      	push	{r4, r5, r6, r7, lr}
 8003f9e:	46c6      	mov	lr, r8
 8003fa0:	0004      	movs	r4, r0
 8003fa2:	b500      	push	{lr}
  /* Check the DMA handle allocation */
  if (hdma == NULL)
 8003fa4:	2800      	cmp	r0, #0
 8003fa6:	d060      	beq.n	800406a <HAL_DMA_Init+0xce>
    /* DMA2 */
    hdma->ChannelIndex = (((uint32_t)hdma->Instance - (uint32_t)DMA2_Channel1) / ((uint32_t)DMA2_Channel2 - (uint32_t)DMA2_Channel1)) << 2U;
    hdma->DmaBaseAddress = DMA2;
  }
#else
  hdma->ChannelIndex = (((uint32_t)hdma->Instance - (uint32_t)DMA1_Channel1) / ((uint32_t)DMA1_Channel2 - (uint32_t)DMA1_Channel1)) << 2U;
 8003fa8:	6805      	ldr	r5, [r0, #0]
 8003faa:	4b31      	ldr	r3, [pc, #196]	@ (8004070 <HAL_DMA_Init+0xd4>)
 8003fac:	2114      	movs	r1, #20
 8003fae:	18e8      	adds	r0, r5, r3
 8003fb0:	f7fc f8a8 	bl	8000104 <__udivsi3>
 8003fb4:	0083      	lsls	r3, r0, #2
 8003fb6:	6423      	str	r3, [r4, #64]	@ 0x40
#endif /* DMA2 */

  /* Change DMA peripheral state */
  hdma->State = HAL_DMA_STATE_BUSY;
 8003fb8:	2202      	movs	r2, #2
 8003fba:	2325      	movs	r3, #37	@ 0x25
 8003fbc:	54e2      	strb	r2, [r4, r3]

  /* Clear PL, MSIZE, PSIZE, MINC, PINC, CIRC, DIR and MEM2MEM bits */
  CLEAR_BIT(hdma->Instance->CCR, (DMA_CCR_PL    | DMA_CCR_MSIZE  | DMA_CCR_PSIZE  | \
 8003fbe:	682b      	ldr	r3, [r5, #0]
 8003fc0:	4a2c      	ldr	r2, [pc, #176]	@ (8004074 <HAL_DMA_Init+0xd8>)
                                  DMA_CCR_MINC  | DMA_CCR_PINC   | DMA_CCR_CIRC   | \
                                  DMA_CCR_DIR   | DMA_CCR_MEM2MEM));

  /* Set the DMA Channel configuration */
  SET_BIT(hdma->Instance->CCR, (hdma->Init.Direction           |                               \
 8003fc2:	68a6      	ldr	r6, [r4, #8]
  CLEAR_BIT(hdma->Instance->CCR, (DMA_CCR_PL    | DMA_CCR_MSIZE  | DMA_CCR_PSIZE  | \
 8003fc4:	4013      	ands	r3, r2
 8003fc6:	602b      	str	r3, [r5, #0]
  SET_BIT(hdma->Instance->CCR, (hdma->Init.Direction           |                               \
 8003fc8:	68e3      	ldr	r3, [r4, #12]
 8003fca:	6921      	ldr	r1, [r4, #16]
 8003fcc:	4333      	orrs	r3, r6
 8003fce:	430b      	orrs	r3, r1
 8003fd0:	6961      	ldr	r1, [r4, #20]
 8003fd2:	682a      	ldr	r2, [r5, #0]
 8003fd4:	430b      	orrs	r3, r1
 8003fd6:	69a1      	ldr	r1, [r4, #24]
 8003fd8:	430b      	orrs	r3, r1
 8003fda:	69e1      	ldr	r1, [r4, #28]
 8003fdc:	430b      	orrs	r3, r1
 8003fde:	6a21      	ldr	r1, [r4, #32]
 8003fe0:	430b      	orrs	r3, r1
 8003fe2:	4313      	orrs	r3, r2
 8003fe4:	602b      	str	r3, [r5, #0]
    /* Prepare channel_number used for DMAmuxChannelStatusMask computation */
    channel_number = (((((uint32_t)hdma->Instance & 0xFFU) - 8U) / 20U) + 7U);
  }
#else
  /* Associate a DMA Channel to a DMAMUX channel */
  hdma->DMAmuxChannel = (DMAMUX_Channel_TypeDef *)(uint32_t)((uint32_t)DMAMUX1_Channel0 + ((hdma->ChannelIndex >> 2U) * ((uint32_t)DMAMUX1_Channel1 - (uint32_t)DMAMUX1_Channel0)));
 8003fe6:	4b24      	ldr	r3, [pc, #144]	@ (8004078 <HAL_DMA_Init+0xdc>)

  /* Prepare channel_number used for DMAmuxChannelStatusMask computation */
  channel_number = (((uint32_t)hdma->Instance & 0xFFU) - 8U) / 20U;
 8003fe8:	2114      	movs	r1, #20
  hdma->DMAmuxChannel = (DMAMUX_Channel_TypeDef *)(uint32_t)((uint32_t)DMAMUX1_Channel0 + ((hdma->ChannelIndex >> 2U) * ((uint32_t)DMAMUX1_Channel1 - (uint32_t)DMAMUX1_Channel0)));
 8003fea:	469c      	mov	ip, r3
 8003fec:	4460      	add	r0, ip
 8003fee:	0087      	lsls	r7, r0, #2
  channel_number = (((uint32_t)hdma->Instance & 0xFFU) - 8U) / 20U;
 8003ff0:	20ff      	movs	r0, #255	@ 0xff
#endif /* DMA2 */

  /* Initialize the field DMAmuxChannelStatus to DMAMUX1_ChannelStatus base */
  hdma->DMAmuxChannelStatus = DMAMUX1_ChannelStatus;
 8003ff2:	4b22      	ldr	r3, [pc, #136]	@ (800407c <HAL_DMA_Init+0xe0>)
  channel_number = (((uint32_t)hdma->Instance & 0xFFU) - 8U) / 20U;
 8003ff4:	4028      	ands	r0, r5
  hdma->DMAmuxChannelStatus = DMAMUX1_ChannelStatus;
 8003ff6:	64a3      	str	r3, [r4, #72]	@ 0x48
  hdma->DMAmuxChannel = (DMAMUX_Channel_TypeDef *)(uint32_t)((uint32_t)DMAMUX1_Channel0 + ((hdma->ChannelIndex >> 2U) * ((uint32_t)DMAMUX1_Channel1 - (uint32_t)DMAMUX1_Channel0)));
 8003ff8:	6467      	str	r7, [r4, #68]	@ 0x44
  channel_number = (((uint32_t)hdma->Instance & 0xFFU) - 8U) / 20U;
 8003ffa:	3808      	subs	r0, #8
  hdma->DMAmuxChannelStatus = DMAMUX1_ChannelStatus;
 8003ffc:	4698      	mov	r8, r3
  channel_number = (((uint32_t)hdma->Instance & 0xFFU) - 8U) / 20U;
 8003ffe:	f7fc f881 	bl	8000104 <__udivsi3>

  /* Initialize the field DMAmuxChannelStatusMask with the corresponding index of the DMAMUX channel selected for the current ChannelIndex */
  hdma->DMAmuxChannelStatusMask = 1UL << (channel_number & 0x1FU);
 8004002:	231f      	movs	r3, #31
 8004004:	2201      	movs	r2, #1
 8004006:	4003      	ands	r3, r0
 8004008:	0010      	movs	r0, r2
 800400a:	4098      	lsls	r0, r3
  if (hdma->Init.Direction == DMA_MEMORY_TO_MEMORY)
 800400c:	2380      	movs	r3, #128	@ 0x80
  hdma->DMAmuxChannelStatusMask = 1UL << (channel_number & 0x1FU);
 800400e:	64e0      	str	r0, [r4, #76]	@ 0x4c
  if (hdma->Init.Direction == DMA_MEMORY_TO_MEMORY)
 8004010:	01db      	lsls	r3, r3, #7
 8004012:	429e      	cmp	r6, r3
 8004014:	d01f      	beq.n	8004056 <HAL_DMA_Init+0xba>
  hdma->DMAmuxChannel->CCR = (hdma->Init.Request & DMAMUX_CxCR_DMAREQ_ID);
 8004016:	233f      	movs	r3, #63	@ 0x3f
  hdma->DMAmuxChannelStatus->CFR = hdma->DMAmuxChannelStatusMask;
 8004018:	4645      	mov	r5, r8
  hdma->DMAmuxChannel->CCR = (hdma->Init.Request & DMAMUX_CxCR_DMAREQ_ID);
 800401a:	6861      	ldr	r1, [r4, #4]
 800401c:	400b      	ands	r3, r1
  if (((hdma->Init.Request >  0UL) && (hdma->Init.Request <= DMA_REQUEST_GENERATOR3)))
 800401e:	3901      	subs	r1, #1
  hdma->DMAmuxChannel->CCR = (hdma->Init.Request & DMAMUX_CxCR_DMAREQ_ID);
 8004020:	603b      	str	r3, [r7, #0]
  hdma->DMAmuxChannelStatus->CFR = hdma->DMAmuxChannelStatusMask;
 8004022:	6068      	str	r0, [r5, #4]
  if (((hdma->Init.Request >  0UL) && (hdma->Init.Request <= DMA_REQUEST_GENERATOR3)))
 8004024:	2903      	cmp	r1, #3
 8004026:	d81b      	bhi.n	8004060 <HAL_DMA_Init+0xc4>
static void DMA_CalcDMAMUXRequestGenBaseAndMask(DMA_HandleTypeDef *hdma)
{
  uint32_t request =  hdma->Init.Request & DMAMUX_CxCR_DMAREQ_ID;

  /* DMA Channels are connected to DMAMUX1 request generator blocks*/
  hdma->DMAmuxRequestGen = (DMAMUX_RequestGen_TypeDef *)((uint32_t)(((uint32_t)DMAMUX1_RequestGenerator0) + ((request - 1U) * 4U)));
 8004028:	4915      	ldr	r1, [pc, #84]	@ (8004080 <HAL_DMA_Init+0xe4>)

  hdma->DMAmuxRequestGenStatus = DMAMUX1_RequestGenStatus;
 800402a:	4816      	ldr	r0, [pc, #88]	@ (8004084 <HAL_DMA_Init+0xe8>)
  hdma->DMAmuxRequestGen = (DMAMUX_RequestGen_TypeDef *)((uint32_t)(((uint32_t)DMAMUX1_RequestGenerator0) + ((request - 1U) * 4U)));
 800402c:	1859      	adds	r1, r3, r1

  /* here "Request" is either DMA_REQUEST_GENERATOR0 to DMA_REQUEST_GENERATOR3, i.e. <= 4*/
  hdma->DMAmuxRequestGenStatusMask = 1UL << ((request - 1U) & 0x3U);
 800402e:	3b01      	subs	r3, #1
 8004030:	409a      	lsls	r2, r3
    hdma->DMAmuxRequestGen->RGCR = 0U;
 8004032:	2300      	movs	r3, #0
  hdma->DMAmuxRequestGen = (DMAMUX_RequestGen_TypeDef *)((uint32_t)(((uint32_t)DMAMUX1_RequestGenerator0) + ((request - 1U) * 4U)));
 8004034:	0089      	lsls	r1, r1, #2
 8004036:	6521      	str	r1, [r4, #80]	@ 0x50
  hdma->DMAmuxRequestGenStatus = DMAMUX1_RequestGenStatus;
 8004038:	6560      	str	r0, [r4, #84]	@ 0x54
  hdma->DMAmuxRequestGenStatusMask = 1UL << ((request - 1U) & 0x3U);
 800403a:	65a2      	str	r2, [r4, #88]	@ 0x58
    hdma->DMAmuxRequestGen->RGCR = 0U;
 800403c:	600b      	str	r3, [r1, #0]
    hdma->DMAmuxRequestGenStatus->RGCFR = hdma->DMAmuxRequestGenStatusMask;
 800403e:	6042      	str	r2, [r0, #4]
  hdma->ErrorCode = HAL_DMA_ERROR_NONE;
 8004040:	2300      	movs	r3, #0
  hdma->State = HAL_DMA_STATE_READY;
 8004042:	2225      	movs	r2, #37	@ 0x25
 8004044:	2101      	movs	r1, #1
  return HAL_OK;
 8004046:	2000      	movs	r0, #0
  hdma->ErrorCode = HAL_DMA_ERROR_NONE;
 8004048:	63e3      	str	r3, [r4, #60]	@ 0x3c
  hdma->State = HAL_DMA_STATE_READY;
 800404a:	54a1      	strb	r1, [r4, r2]
  __HAL_UNLOCK(hdma);
 800404c:	3a01      	subs	r2, #1
 800404e:	54a3      	strb	r3, [r4, r2]
}
 8004050:	bc80      	pop	{r7}
 8004052:	46b8      	mov	r8, r7
 8004054:	bdf0      	pop	{r4, r5, r6, r7, pc}
    hdma->Init.Request = DMA_REQUEST_MEM2MEM;
 8004056:	2300      	movs	r3, #0
 8004058:	6063      	str	r3, [r4, #4]
  hdma->DMAmuxChannel->CCR = (hdma->Init.Request & DMAMUX_CxCR_DMAREQ_ID);
 800405a:	603b      	str	r3, [r7, #0]
  hdma->DMAmuxChannelStatus->CFR = hdma->DMAmuxChannelStatusMask;
 800405c:	4643      	mov	r3, r8
 800405e:	6058      	str	r0, [r3, #4]
    hdma->DMAmuxRequestGen = 0U;
 8004060:	2300      	movs	r3, #0
 8004062:	6523      	str	r3, [r4, #80]	@ 0x50
    hdma->DMAmuxRequestGenStatus = 0U;
 8004064:	6563      	str	r3, [r4, #84]	@ 0x54
    hdma->DMAmuxRequestGenStatusMask = 0U;
 8004066:	65a3      	str	r3, [r4, #88]	@ 0x58
 8004068:	e7ea      	b.n	8004040 <HAL_DMA_Init+0xa4>
    return HAL_ERROR;
 800406a:	2001      	movs	r0, #1
 800406c:	e7f0      	b.n	8004050 <HAL_DMA_Init+0xb4>
 800406e:	46c0      	nop			@ (mov r8, r8)
 8004070:	bffdfff8 	.word	0xbffdfff8
 8004074:	ffff800f 	.word	0xffff800f
 8004078:	10008200 	.word	0x10008200
 800407c:	40020880 	.word	0x40020880
 8004080:	1000823f 	.word	0x1000823f
 8004084:	40020940 	.word	0x40020940

08004088 <HAL_DMA_Start_IT>:
{
 8004088:	b5f0      	push	{r4, r5, r6, r7, lr}
 800408a:	46c6      	mov	lr, r8
  __HAL_LOCK(hdma);
 800408c:	2424      	movs	r4, #36	@ 0x24
{
 800408e:	b500      	push	{lr}
  __HAL_LOCK(hdma);
 8004090:	5d05      	ldrb	r5, [r0, r4]
 8004092:	2d01      	cmp	r5, #1
 8004094:	d04f      	beq.n	8004136 <HAL_DMA_Start_IT+0xae>
 8004096:	2501      	movs	r5, #1
  if (hdma->State == HAL_DMA_STATE_READY)
 8004098:	2625      	movs	r6, #37	@ 0x25
  __HAL_LOCK(hdma);
 800409a:	5505      	strb	r5, [r0, r4]
  if (hdma->State == HAL_DMA_STATE_READY)
 800409c:	5d85      	ldrb	r5, [r0, r6]
 800409e:	b2ef      	uxtb	r7, r5
 80040a0:	2d01      	cmp	r5, #1
 80040a2:	d007      	beq.n	80040b4 <HAL_DMA_Start_IT+0x2c>
    hdma->ErrorCode = HAL_DMA_ERROR_BUSY;
 80040a4:	2380      	movs	r3, #128	@ 0x80
 80040a6:	63c3      	str	r3, [r0, #60]	@ 0x3c
    __HAL_UNLOCK(hdma);
 80040a8:	2300      	movs	r3, #0
 80040aa:	5503      	strb	r3, [r0, r4]
    status = HAL_ERROR;
 80040ac:	2001      	movs	r0, #1
}
 80040ae:	bc80      	pop	{r7}
 80040b0:	46b8      	mov	r8, r7
 80040b2:	bdf0      	pop	{r4, r5, r6, r7, pc}
    hdma->State = HAL_DMA_STATE_BUSY;
 80040b4:	3c22      	subs	r4, #34	@ 0x22
 80040b6:	5584      	strb	r4, [r0, r6]
    hdma->ErrorCode = HAL_DMA_ERROR_NONE;
 80040b8:	2400      	movs	r4, #0
 80040ba:	63c4      	str	r4, [r0, #60]	@ 0x3c
    __HAL_DMA_DISABLE(hdma);
 80040bc:	6804      	ldr	r4, [r0, #0]
  hdma->DMAmuxChannelStatus->CFR = hdma->DMAmuxChannelStatusMask;
 80040be:	6cc6      	ldr	r6, [r0, #76]	@ 0x4c
    __HAL_DMA_DISABLE(hdma);
 80040c0:	6825      	ldr	r5, [r4, #0]
 80040c2:	43bd      	bics	r5, r7
 80040c4:	6025      	str	r5, [r4, #0]
  hdma->DMAmuxChannelStatus->CFR = hdma->DMAmuxChannelStatusMask;
 80040c6:	6c85      	ldr	r5, [r0, #72]	@ 0x48
 80040c8:	606e      	str	r6, [r5, #4]
  if (hdma->DMAmuxRequestGen != 0U)
 80040ca:	6d06      	ldr	r6, [r0, #80]	@ 0x50
 80040cc:	2e00      	cmp	r6, #0
 80040ce:	d002      	beq.n	80040d6 <HAL_DMA_Start_IT+0x4e>
    hdma->DMAmuxRequestGenStatus->RGCFR = hdma->DMAmuxRequestGenStatusMask;
 80040d0:	6d45      	ldr	r5, [r0, #84]	@ 0x54
 80040d2:	6d87      	ldr	r7, [r0, #88]	@ 0x58
 80040d4:	606f      	str	r7, [r5, #4]
  __HAL_DMA_CLEAR_FLAG(hdma, (DMA_FLAG_GI1 << (hdma->ChannelIndex & 0x1CU)));
 80040d6:	4d1f      	ldr	r5, [pc, #124]	@ (8004154 <HAL_DMA_Start_IT+0xcc>)
 80040d8:	6c07      	ldr	r7, [r0, #64]	@ 0x40
 80040da:	46ac      	mov	ip, r5
 80040dc:	686d      	ldr	r5, [r5, #4]
 80040de:	46a8      	mov	r8, r5
 80040e0:	251c      	movs	r5, #28
 80040e2:	402f      	ands	r7, r5
 80040e4:	3d1b      	subs	r5, #27
 80040e6:	40bd      	lsls	r5, r7
 80040e8:	4647      	mov	r7, r8
 80040ea:	433d      	orrs	r5, r7
 80040ec:	4667      	mov	r7, ip
 80040ee:	607d      	str	r5, [r7, #4]
  hdma->Instance->CNDTR = DataLength;
 80040f0:	6063      	str	r3, [r4, #4]
  if ((hdma->Init.Direction) == DMA_MEMORY_TO_PERIPH)
 80040f2:	6883      	ldr	r3, [r0, #8]
 80040f4:	2b10      	cmp	r3, #16
 80040f6:	d020      	beq.n	800413a <HAL_DMA_Start_IT+0xb2>
    hdma->Instance->CPAR = SrcAddress;
 80040f8:	60a1      	str	r1, [r4, #8]
    hdma->Instance->CMAR = DstAddress;
 80040fa:	60e2      	str	r2, [r4, #12]
    if (NULL != hdma->XferHalfCpltCallback)
 80040fc:	6b03      	ldr	r3, [r0, #48]	@ 0x30
 80040fe:	2b00      	cmp	r3, #0
 8004100:	d01e      	beq.n	8004140 <HAL_DMA_Start_IT+0xb8>
      __HAL_DMA_ENABLE_IT(hdma, (DMA_IT_TC | DMA_IT_HT | DMA_IT_TE));
 8004102:	220e      	movs	r2, #14
 8004104:	6823      	ldr	r3, [r4, #0]
 8004106:	4313      	orrs	r3, r2
 8004108:	6023      	str	r3, [r4, #0]
    if ((hdma->DMAmuxChannel->CCR & DMAMUX_CxCR_SE) != 0U)
 800410a:	6c42      	ldr	r2, [r0, #68]	@ 0x44
 800410c:	6813      	ldr	r3, [r2, #0]
 800410e:	03db      	lsls	r3, r3, #15
 8004110:	d504      	bpl.n	800411c <HAL_DMA_Start_IT+0x94>
      hdma->DMAmuxChannel->CCR |= DMAMUX_CxCR_SOIE;
 8004112:	2380      	movs	r3, #128	@ 0x80
 8004114:	6811      	ldr	r1, [r2, #0]
 8004116:	005b      	lsls	r3, r3, #1
 8004118:	430b      	orrs	r3, r1
 800411a:	6013      	str	r3, [r2, #0]
    if (hdma->DMAmuxRequestGen != 0U)
 800411c:	2e00      	cmp	r6, #0
 800411e:	d004      	beq.n	800412a <HAL_DMA_Start_IT+0xa2>
      hdma->DMAmuxRequestGen->RGCR |= DMAMUX_RGxCR_OIE;
 8004120:	2380      	movs	r3, #128	@ 0x80
 8004122:	6832      	ldr	r2, [r6, #0]
 8004124:	005b      	lsls	r3, r3, #1
 8004126:	4313      	orrs	r3, r2
 8004128:	6033      	str	r3, [r6, #0]
    __HAL_DMA_ENABLE(hdma);
 800412a:	2201      	movs	r2, #1
 800412c:	6823      	ldr	r3, [r4, #0]
  HAL_StatusTypeDef status = HAL_OK;
 800412e:	2000      	movs	r0, #0
    __HAL_DMA_ENABLE(hdma);
 8004130:	4313      	orrs	r3, r2
 8004132:	6023      	str	r3, [r4, #0]
 8004134:	e7bb      	b.n	80040ae <HAL_DMA_Start_IT+0x26>
  __HAL_LOCK(hdma);
 8004136:	2002      	movs	r0, #2
 8004138:	e7b9      	b.n	80040ae <HAL_DMA_Start_IT+0x26>
    hdma->Instance->CPAR = DstAddress;
 800413a:	60a2      	str	r2, [r4, #8]
    hdma->Instance->CMAR = SrcAddress;
 800413c:	60e1      	str	r1, [r4, #12]
 800413e:	e7dd      	b.n	80040fc <HAL_DMA_Start_IT+0x74>
      __HAL_DMA_DISABLE_IT(hdma, DMA_IT_HT);
 8004140:	2204      	movs	r2, #4
 8004142:	6823      	ldr	r3, [r4, #0]
 8004144:	4393      	bics	r3, r2
 8004146:	6023      	str	r3, [r4, #0]
      __HAL_DMA_ENABLE_IT(hdma, (DMA_IT_TC | DMA_IT_TE));
 8004148:	6823      	ldr	r3, [r4, #0]
 800414a:	3206      	adds	r2, #6
 800414c:	4313      	orrs	r3, r2
 800414e:	6023      	str	r3, [r4, #0]
 8004150:	e7db      	b.n	800410a <HAL_DMA_Start_IT+0x82>
 8004152:	46c0      	nop			@ (mov r8, r8)
 8004154:	40020000 	.word	0x40020000

08004158 <HAL_DMA_Abort>:
{
 8004158:	b570      	push	{r4, r5, r6, lr}
  if (NULL == hdma)
 800415a:	2800      	cmp	r0, #0
 800415c:	d032      	beq.n	80041c4 <HAL_DMA_Abort+0x6c>
  if (hdma->State != HAL_DMA_STATE_BUSY)
 800415e:	2325      	movs	r3, #37	@ 0x25
 8004160:	5cc3      	ldrb	r3, [r0, r3]
 8004162:	2b02      	cmp	r3, #2
 8004164:	d129      	bne.n	80041ba <HAL_DMA_Abort+0x62>
    __HAL_DMA_DISABLE_IT(hdma, (DMA_IT_TC | DMA_IT_HT | DMA_IT_TE));
 8004166:	210e      	movs	r1, #14
 8004168:	6802      	ldr	r2, [r0, #0]
    hdma->DMAmuxChannel->CCR &= ~DMAMUX_CxCR_SOIE;
 800416a:	4c17      	ldr	r4, [pc, #92]	@ (80041c8 <HAL_DMA_Abort+0x70>)
    __HAL_DMA_DISABLE_IT(hdma, (DMA_IT_TC | DMA_IT_HT | DMA_IT_TE));
 800416c:	6813      	ldr	r3, [r2, #0]
    __HAL_DMA_CLEAR_FLAG(hdma, ((DMA_FLAG_GI1) << (hdma->ChannelIndex  & 0x1CU)));
 800416e:	261c      	movs	r6, #28
    __HAL_DMA_DISABLE_IT(hdma, (DMA_IT_TC | DMA_IT_HT | DMA_IT_TE));
 8004170:	438b      	bics	r3, r1
    hdma->DMAmuxChannel->CCR &= ~DMAMUX_CxCR_SOIE;
 8004172:	6c41      	ldr	r1, [r0, #68]	@ 0x44
    __HAL_DMA_DISABLE_IT(hdma, (DMA_IT_TC | DMA_IT_HT | DMA_IT_TE));
 8004174:	6013      	str	r3, [r2, #0]
    hdma->DMAmuxChannel->CCR &= ~DMAMUX_CxCR_SOIE;
 8004176:	680b      	ldr	r3, [r1, #0]
 8004178:	4023      	ands	r3, r4
 800417a:	600b      	str	r3, [r1, #0]
    __HAL_DMA_DISABLE(hdma);
 800417c:	2301      	movs	r3, #1
 800417e:	6811      	ldr	r1, [r2, #0]
 8004180:	4399      	bics	r1, r3
 8004182:	6011      	str	r1, [r2, #0]
    __HAL_DMA_CLEAR_FLAG(hdma, ((DMA_FLAG_GI1) << (hdma->ChannelIndex  & 0x1CU)));
 8004184:	6c02      	ldr	r2, [r0, #64]	@ 0x40
 8004186:	4911      	ldr	r1, [pc, #68]	@ (80041cc <HAL_DMA_Abort+0x74>)
 8004188:	4032      	ands	r2, r6
 800418a:	4093      	lsls	r3, r2
 800418c:	684d      	ldr	r5, [r1, #4]
 800418e:	432b      	orrs	r3, r5
 8004190:	604b      	str	r3, [r1, #4]
    hdma->DMAmuxChannelStatus->CFR = hdma->DMAmuxChannelStatusMask;
 8004192:	6cc2      	ldr	r2, [r0, #76]	@ 0x4c
 8004194:	6c83      	ldr	r3, [r0, #72]	@ 0x48
 8004196:	605a      	str	r2, [r3, #4]
    if (hdma->DMAmuxRequestGen != 0U)
 8004198:	6d03      	ldr	r3, [r0, #80]	@ 0x50
 800419a:	2b00      	cmp	r3, #0
 800419c:	d005      	beq.n	80041aa <HAL_DMA_Abort+0x52>
      hdma->DMAmuxRequestGen->RGCR &= ~DMAMUX_RGxCR_OIE;
 800419e:	681a      	ldr	r2, [r3, #0]
 80041a0:	4022      	ands	r2, r4
 80041a2:	601a      	str	r2, [r3, #0]
      hdma->DMAmuxRequestGenStatus->RGCFR = hdma->DMAmuxRequestGenStatusMask;
 80041a4:	6d43      	ldr	r3, [r0, #84]	@ 0x54
 80041a6:	6d82      	ldr	r2, [r0, #88]	@ 0x58
 80041a8:	605a      	str	r2, [r3, #4]
    hdma->State = HAL_DMA_STATE_READY;
 80041aa:	2325      	movs	r3, #37	@ 0x25
 80041ac:	2201      	movs	r2, #1
 80041ae:	54c2      	strb	r2, [r0, r3]
    __HAL_UNLOCK(hdma);
 80041b0:	2200      	movs	r2, #0
 80041b2:	3b01      	subs	r3, #1
 80041b4:	54c2      	strb	r2, [r0, r3]
  return HAL_OK;
 80041b6:	2000      	movs	r0, #0
}
 80041b8:	bd70      	pop	{r4, r5, r6, pc}
    hdma->ErrorCode = HAL_DMA_ERROR_NO_XFER;
 80041ba:	2304      	movs	r3, #4
    __HAL_UNLOCK(hdma);
 80041bc:	2200      	movs	r2, #0
    hdma->ErrorCode = HAL_DMA_ERROR_NO_XFER;
 80041be:	63c3      	str	r3, [r0, #60]	@ 0x3c
    __HAL_UNLOCK(hdma);
 80041c0:	3320      	adds	r3, #32
 80041c2:	54c2      	strb	r2, [r0, r3]
    return HAL_ERROR;
 80041c4:	2001      	movs	r0, #1
 80041c6:	e7f7      	b.n	80041b8 <HAL_DMA_Abort+0x60>
 80041c8:	fffffeff 	.word	0xfffffeff
 80041cc:	40020000 	.word	0x40020000

080041d0 <HAL_DMA_Abort_IT>:
  if (hdma->State != HAL_DMA_STATE_BUSY)
 80041d0:	2325      	movs	r3, #37	@ 0x25
{
 80041d2:	b570      	push	{r4, r5, r6, lr}
  if (hdma->State != HAL_DMA_STATE_BUSY)
 80041d4:	5cc3      	ldrb	r3, [r0, r3]
 80041d6:	2b02      	cmp	r3, #2
 80041d8:	d003      	beq.n	80041e2 <HAL_DMA_Abort_IT+0x12>
    hdma->ErrorCode = HAL_DMA_ERROR_NO_XFER;
 80041da:	2304      	movs	r3, #4
 80041dc:	63c3      	str	r3, [r0, #60]	@ 0x3c
    status = HAL_ERROR;
 80041de:	2001      	movs	r0, #1
}
 80041e0:	bd70      	pop	{r4, r5, r6, pc}
    __HAL_DMA_DISABLE_IT(hdma, (DMA_IT_TC | DMA_IT_HT | DMA_IT_TE));
 80041e2:	210e      	movs	r1, #14
 80041e4:	6802      	ldr	r2, [r0, #0]
    __HAL_DMA_CLEAR_FLAG(hdma, ((DMA_FLAG_GI1) << (hdma->ChannelIndex & 0x1CU)));
 80041e6:	261c      	movs	r6, #28
    __HAL_DMA_DISABLE_IT(hdma, (DMA_IT_TC | DMA_IT_HT | DMA_IT_TE));
 80041e8:	6813      	ldr	r3, [r2, #0]
    hdma->DMAmuxChannel->CCR &= ~DMAMUX_CxCR_SOIE;
 80041ea:	4c15      	ldr	r4, [pc, #84]	@ (8004240 <HAL_DMA_Abort_IT+0x70>)
    __HAL_DMA_DISABLE_IT(hdma, (DMA_IT_TC | DMA_IT_HT | DMA_IT_TE));
 80041ec:	438b      	bics	r3, r1
 80041ee:	6013      	str	r3, [r2, #0]
    __HAL_DMA_DISABLE(hdma);
 80041f0:	2301      	movs	r3, #1
 80041f2:	6811      	ldr	r1, [r2, #0]
 80041f4:	4399      	bics	r1, r3
 80041f6:	6011      	str	r1, [r2, #0]
    hdma->DMAmuxChannel->CCR &= ~DMAMUX_CxCR_SOIE;
 80041f8:	6c41      	ldr	r1, [r0, #68]	@ 0x44
 80041fa:	680a      	ldr	r2, [r1, #0]
 80041fc:	4022      	ands	r2, r4
 80041fe:	600a      	str	r2, [r1, #0]
    __HAL_DMA_CLEAR_FLAG(hdma, ((DMA_FLAG_GI1) << (hdma->ChannelIndex & 0x1CU)));
 8004200:	6c02      	ldr	r2, [r0, #64]	@ 0x40
 8004202:	4910      	ldr	r1, [pc, #64]	@ (8004244 <HAL_DMA_Abort_IT+0x74>)
 8004204:	4032      	ands	r2, r6
 8004206:	4093      	lsls	r3, r2
 8004208:	684d      	ldr	r5, [r1, #4]
 800420a:	432b      	orrs	r3, r5
 800420c:	604b      	str	r3, [r1, #4]
    hdma->DMAmuxChannelStatus->CFR = hdma->DMAmuxChannelStatusMask;
 800420e:	6cc2      	ldr	r2, [r0, #76]	@ 0x4c
 8004210:	6c83      	ldr	r3, [r0, #72]	@ 0x48
 8004212:	605a      	str	r2, [r3, #4]
    if (hdma->DMAmuxRequestGen != 0U)
 8004214:	6d03      	ldr	r3, [r0, #80]	@ 0x50
 8004216:	2b00      	cmp	r3, #0
 8004218:	d005      	beq.n	8004226 <HAL_DMA_Abort_IT+0x56>
      hdma->DMAmuxRequestGen->RGCR &= ~DMAMUX_RGxCR_OIE;
 800421a:	681a      	ldr	r2, [r3, #0]
 800421c:	4022      	ands	r2, r4
 800421e:	601a      	str	r2, [r3, #0]
      hdma->DMAmuxRequestGenStatus->RGCFR = hdma->DMAmuxRequestGenStatusMask;
 8004220:	6d43      	ldr	r3, [r0, #84]	@ 0x54
 8004222:	6d82      	ldr	r2, [r0, #88]	@ 0x58
 8004224:	605a      	str	r2, [r3, #4]
    hdma->State = HAL_DMA_STATE_READY;
 8004226:	2325      	movs	r3, #37	@ 0x25
 8004228:	2201      	movs	r2, #1
 800422a:	54c2      	strb	r2, [r0, r3]
    __HAL_UNLOCK(hdma);
 800422c:	2200      	movs	r2, #0
 800422e:	3b01      	subs	r3, #1
 8004230:	54c2      	strb	r2, [r0, r3]
    if (hdma->XferAbortCallback != NULL)
 8004232:	6b83      	ldr	r3, [r0, #56]	@ 0x38
 8004234:	2b00      	cmp	r3, #0
 8004236:	d000      	beq.n	800423a <HAL_DMA_Abort_IT+0x6a>
      hdma->XferAbortCallback(hdma);
 8004238:	4798      	blx	r3
  HAL_StatusTypeDef status = HAL_OK;
 800423a:	2000      	movs	r0, #0
 800423c:	e7d0      	b.n	80041e0 <HAL_DMA_Abort_IT+0x10>
 800423e:	46c0      	nop			@ (mov r8, r8)
 8004240:	fffffeff 	.word	0xfffffeff
 8004244:	40020000 	.word	0x40020000

08004248 <HAL_DMA_IRQHandler>:
{
 8004248:	b570      	push	{r4, r5, r6, lr}
  if (((flag_it & (DMA_FLAG_HT1 << (hdma->ChannelIndex & 0x1CU))) != 0U) && ((source_it & DMA_IT_HT) != 0U))
 800424a:	211c      	movs	r1, #28
 800424c:	2404      	movs	r4, #4
  uint32_t flag_it = DMA1->ISR;
 800424e:	4b2b      	ldr	r3, [pc, #172]	@ (80042fc <HAL_DMA_IRQHandler+0xb4>)
  uint32_t source_it = hdma->Instance->CCR;
 8004250:	6806      	ldr	r6, [r0, #0]
  uint32_t flag_it = DMA1->ISR;
 8004252:	681a      	ldr	r2, [r3, #0]
  if (((flag_it & (DMA_FLAG_HT1 << (hdma->ChannelIndex & 0x1CU))) != 0U) && ((source_it & DMA_IT_HT) != 0U))
 8004254:	6c03      	ldr	r3, [r0, #64]	@ 0x40
  uint32_t source_it = hdma->Instance->CCR;
 8004256:	6835      	ldr	r5, [r6, #0]
  if (((flag_it & (DMA_FLAG_HT1 << (hdma->ChannelIndex & 0x1CU))) != 0U) && ((source_it & DMA_IT_HT) != 0U))
 8004258:	400b      	ands	r3, r1
 800425a:	0021      	movs	r1, r4
 800425c:	4099      	lsls	r1, r3
 800425e:	420a      	tst	r2, r1
 8004260:	d010      	beq.n	8004284 <HAL_DMA_IRQHandler+0x3c>
 8004262:	422c      	tst	r4, r5
 8004264:	d00e      	beq.n	8004284 <HAL_DMA_IRQHandler+0x3c>
      if ((hdma->Instance->CCR & DMA_CCR_CIRC) == 0U)
 8004266:	6833      	ldr	r3, [r6, #0]
 8004268:	069b      	lsls	r3, r3, #26
 800426a:	d402      	bmi.n	8004272 <HAL_DMA_IRQHandler+0x2a>
        __HAL_DMA_DISABLE_IT(hdma, DMA_IT_HT);
 800426c:	6833      	ldr	r3, [r6, #0]
 800426e:	43a3      	bics	r3, r4
 8004270:	6033      	str	r3, [r6, #0]
      __HAL_DMA_CLEAR_FLAG(hdma, (DMA_FLAG_HT1 << (hdma->ChannelIndex & 0x1CU)));
 8004272:	4b22      	ldr	r3, [pc, #136]	@ (80042fc <HAL_DMA_IRQHandler+0xb4>)
 8004274:	685a      	ldr	r2, [r3, #4]
 8004276:	4311      	orrs	r1, r2
 8004278:	6059      	str	r1, [r3, #4]
      if (hdma->XferHalfCpltCallback != NULL)
 800427a:	6b03      	ldr	r3, [r0, #48]	@ 0x30
 800427c:	2b00      	cmp	r3, #0
 800427e:	d000      	beq.n	8004282 <HAL_DMA_IRQHandler+0x3a>
      hdma->XferErrorCallback(hdma);
 8004280:	4798      	blx	r3
}
 8004282:	bd70      	pop	{r4, r5, r6, pc}
  else if ((0U != (flag_it & (DMA_FLAG_TC1 << (hdma->ChannelIndex & 0x1CU)))) && (0U != (source_it & DMA_IT_TC)))
 8004284:	2402      	movs	r4, #2
 8004286:	0021      	movs	r1, r4
 8004288:	4099      	lsls	r1, r3
 800428a:	420a      	tst	r2, r1
 800428c:	d017      	beq.n	80042be <HAL_DMA_IRQHandler+0x76>
 800428e:	422c      	tst	r4, r5
 8004290:	d015      	beq.n	80042be <HAL_DMA_IRQHandler+0x76>
      if ((hdma->Instance->CCR & DMA_CCR_CIRC) == 0U)
 8004292:	6833      	ldr	r3, [r6, #0]
 8004294:	069b      	lsls	r3, r3, #26
 8004296:	d406      	bmi.n	80042a6 <HAL_DMA_IRQHandler+0x5e>
        __HAL_DMA_DISABLE_IT(hdma, DMA_IT_TE | DMA_IT_TC);
 8004298:	220a      	movs	r2, #10
 800429a:	6833      	ldr	r3, [r6, #0]
 800429c:	4393      	bics	r3, r2
 800429e:	6033      	str	r3, [r6, #0]
        hdma->State = HAL_DMA_STATE_READY;
 80042a0:	2325      	movs	r3, #37	@ 0x25
 80042a2:	3a09      	subs	r2, #9
 80042a4:	54c2      	strb	r2, [r0, r3]
      __HAL_DMA_CLEAR_FLAG(hdma, (DMA_FLAG_TC1 << (hdma->ChannelIndex & 0x1CU)));
 80042a6:	4b15      	ldr	r3, [pc, #84]	@ (80042fc <HAL_DMA_IRQHandler+0xb4>)
 80042a8:	685a      	ldr	r2, [r3, #4]
 80042aa:	4311      	orrs	r1, r2
 80042ac:	6059      	str	r1, [r3, #4]
      __HAL_UNLOCK(hdma);
 80042ae:	2200      	movs	r2, #0
 80042b0:	2324      	movs	r3, #36	@ 0x24
 80042b2:	54c2      	strb	r2, [r0, r3]
      if (hdma->XferCpltCallback != NULL)
 80042b4:	6ac3      	ldr	r3, [r0, #44]	@ 0x2c
 80042b6:	2b00      	cmp	r3, #0
 80042b8:	d0e3      	beq.n	8004282 <HAL_DMA_IRQHandler+0x3a>
      hdma->XferErrorCallback(hdma);
 80042ba:	4798      	blx	r3
  return;
 80042bc:	e7e1      	b.n	8004282 <HAL_DMA_IRQHandler+0x3a>
  else if (((flag_it & (DMA_FLAG_TE1 << (hdma->ChannelIndex & 0x1CU))) != 0U) && ((source_it & DMA_IT_TE) != 0U))
 80042be:	2108      	movs	r1, #8
 80042c0:	000c      	movs	r4, r1
 80042c2:	409c      	lsls	r4, r3
 80042c4:	4222      	tst	r2, r4
 80042c6:	d0dc      	beq.n	8004282 <HAL_DMA_IRQHandler+0x3a>
 80042c8:	4229      	tst	r1, r5
 80042ca:	d0da      	beq.n	8004282 <HAL_DMA_IRQHandler+0x3a>
    __HAL_DMA_DISABLE_IT(hdma, (DMA_IT_TC | DMA_IT_HT | DMA_IT_TE));
 80042cc:	6832      	ldr	r2, [r6, #0]
 80042ce:	3106      	adds	r1, #6
 80042d0:	438a      	bics	r2, r1
 80042d2:	6032      	str	r2, [r6, #0]
    __HAL_DMA_CLEAR_FLAG(hdma, (DMA_FLAG_GI1 << (hdma->ChannelIndex & 0x1CU)));
 80042d4:	2201      	movs	r2, #1
 80042d6:	0015      	movs	r5, r2
 80042d8:	409d      	lsls	r5, r3
 80042da:	002b      	movs	r3, r5
 80042dc:	4907      	ldr	r1, [pc, #28]	@ (80042fc <HAL_DMA_IRQHandler+0xb4>)
 80042de:	684c      	ldr	r4, [r1, #4]
 80042e0:	4323      	orrs	r3, r4
 80042e2:	604b      	str	r3, [r1, #4]
    hdma->State = HAL_DMA_STATE_READY;
 80042e4:	2325      	movs	r3, #37	@ 0x25
    hdma->ErrorCode = HAL_DMA_ERROR_TE;
 80042e6:	63c2      	str	r2, [r0, #60]	@ 0x3c
    hdma->State = HAL_DMA_STATE_READY;
 80042e8:	54c2      	strb	r2, [r0, r3]
    __HAL_UNLOCK(hdma);
 80042ea:	2200      	movs	r2, #0
 80042ec:	3b01      	subs	r3, #1
 80042ee:	54c2      	strb	r2, [r0, r3]
    if (hdma->XferErrorCallback != NULL)
 80042f0:	6b43      	ldr	r3, [r0, #52]	@ 0x34
 80042f2:	2b00      	cmp	r3, #0
 80042f4:	d0c5      	beq.n	8004282 <HAL_DMA_IRQHandler+0x3a>
      hdma->XferErrorCallback(hdma);
 80042f6:	4798      	blx	r3
  return;
 80042f8:	e7c3      	b.n	8004282 <HAL_DMA_IRQHandler+0x3a>
 80042fa:	46c0      	nop			@ (mov r8, r8)
 80042fc:	40020000 	.word	0x40020000

08004300 <HAL_GPIO_Init>:
  * @param  GPIO_Init pointer to a GPIO_InitTypeDef structure that contains
  *         the configuration information for the specified GPIO peripheral.
  * @retval None
  */
void HAL_GPIO_Init(GPIO_TypeDef  *GPIOx, GPIO_InitTypeDef *GPIO_Init)
{
 8004300:	b5f0      	push	{r4, r5, r6, r7, lr}
 8004302:	46de      	mov	lr, fp
 8004304:	4657      	mov	r7, sl
 8004306:	464e      	mov	r6, r9
 8004308:	4645      	mov	r5, r8
 800430a:	b5e0      	push	{r5, r6, r7, lr}
  assert_param(IS_GPIO_ALL_INSTANCE(GPIOx));
  assert_param(IS_GPIO_PIN(GPIO_Init->Pin));
  assert_param(IS_GPIO_MODE(GPIO_Init->Mode));

  /* Configure the port pins */
  while (((GPIO_Init->Pin) >> position) != 0x00u)
 800430c:	680a      	ldr	r2, [r1, #0]
{
 800430e:	468b      	mov	fp, r1
 8004310:	b085      	sub	sp, #20
  while (((GPIO_Init->Pin) >> position) != 0x00u)
 8004312:	2a00      	cmp	r2, #0
 8004314:	d06a      	beq.n	80043ec <HAL_GPIO_Init+0xec>
 8004316:	21a0      	movs	r1, #160	@ 0xa0
  uint32_t position = 0x00u;
 8004318:	2300      	movs	r3, #0
 800431a:	05c9      	lsls	r1, r1, #23
 800431c:	4288      	cmp	r0, r1
 800431e:	d100      	bne.n	8004322 <HAL_GPIO_Init+0x22>
 8004320:	e0c5      	b.n	80044ae <HAL_GPIO_Init+0x1ae>
  {
    /* Get current io position */
    iocurrent = (GPIO_Init->Pin) & (1uL << position);
 8004322:	2101      	movs	r1, #1
 8004324:	4099      	lsls	r1, r3
 8004326:	468c      	mov	ip, r1
 8004328:	4011      	ands	r1, r2
 800432a:	468a      	mov	sl, r1

    if (iocurrent != 0x00u)
 800432c:	4661      	mov	r1, ip
 800432e:	420a      	tst	r2, r1
 8004330:	d058      	beq.n	80043e4 <HAL_GPIO_Init+0xe4>
        /* Check the Speed parameter */
        assert_param(IS_GPIO_SPEED(GPIO_Init->Speed));

        /* Configure the IO Speed */
        temp = GPIOx->OSPEEDR;
        temp &= ~(GPIO_OSPEEDR_OSPEED0 << (position * 2u));
 8004332:	2503      	movs	r5, #3
      if (((GPIO_Init->Mode & GPIO_MODE) == MODE_OUTPUT) || ((GPIO_Init->Mode & GPIO_MODE) == MODE_AF))
 8004334:	4659      	mov	r1, fp
 8004336:	005e      	lsls	r6, r3, #1
        temp &= ~(GPIO_OSPEEDR_OSPEED0 << (position * 2u));
 8004338:	40b5      	lsls	r5, r6
      if (((GPIO_Init->Mode & GPIO_MODE) == MODE_OUTPUT) || ((GPIO_Init->Mode & GPIO_MODE) == MODE_AF))
 800433a:	684c      	ldr	r4, [r1, #4]
 800433c:	2103      	movs	r1, #3
        temp &= ~(GPIO_OSPEEDR_OSPEED0 << (position * 2u));
 800433e:	43ed      	mvns	r5, r5
      if (((GPIO_Init->Mode & GPIO_MODE) == MODE_OUTPUT) || ((GPIO_Init->Mode & GPIO_MODE) == MODE_AF))
 8004340:	4021      	ands	r1, r4
 8004342:	1e4f      	subs	r7, r1, #1
        temp &= ~(GPIO_OSPEEDR_OSPEED0 << (position * 2u));
 8004344:	9501      	str	r5, [sp, #4]
      if (((GPIO_Init->Mode & GPIO_MODE) == MODE_OUTPUT) || ((GPIO_Init->Mode & GPIO_MODE) == MODE_AF))
 8004346:	2f01      	cmp	r7, #1
 8004348:	d957      	bls.n	80043fa <HAL_GPIO_Init+0xfa>
        temp &= ~(GPIO_OTYPER_OT0 << position) ;
        temp |= (((GPIO_Init->Mode & OUTPUT_TYPE) >> OUTPUT_TYPE_Pos) << position);
        GPIOx->OTYPER = temp;
      }

      if ((GPIO_Init->Mode & GPIO_MODE) != MODE_ANALOG)
 800434a:	2903      	cmp	r1, #3
 800434c:	d000      	beq.n	8004350 <HAL_GPIO_Init+0x50>
 800434e:	e15f      	b.n	8004610 <HAL_GPIO_Init+0x310>
      }

      /* Configure IO Direction mode (Input, Output, Alternate or Analog) */
      temp = GPIOx->MODER;
      temp &= ~(GPIO_MODER_MODE0 << (position * 2u));
      temp |= ((GPIO_Init->Mode & GPIO_MODE) << (position * 2u));
 8004350:	40b1      	lsls	r1, r6
      temp = GPIOx->MODER;
 8004352:	6807      	ldr	r7, [r0, #0]
      temp &= ~(GPIO_MODER_MODE0 << (position * 2u));
 8004354:	9d01      	ldr	r5, [sp, #4]
 8004356:	403d      	ands	r5, r7
      temp |= ((GPIO_Init->Mode & GPIO_MODE) << (position * 2u));
 8004358:	4329      	orrs	r1, r5
      GPIOx->MODER = temp;
 800435a:	6001      	str	r1, [r0, #0]

      /*--------------------- EXTI Mode Configuration ------------------------*/
      /* Configure the External Interrupt or event for the current IO */
      if ((GPIO_Init->Mode & EXTI_MODE) != 0x00u)
 800435c:	21c0      	movs	r1, #192	@ 0xc0
 800435e:	0289      	lsls	r1, r1, #10
 8004360:	420c      	tst	r4, r1
 8004362:	d03f      	beq.n	80043e4 <HAL_GPIO_Init+0xe4>
      {
        temp = EXTI->EXTICR[position >> 2u];
        temp &= ~(0x0FuL << (8u * (position & 0x03u)));
 8004364:	2603      	movs	r6, #3
 8004366:	270f      	movs	r7, #15
 8004368:	4db9      	ldr	r5, [pc, #740]	@ (8004650 <HAL_GPIO_Init+0x350>)
 800436a:	401e      	ands	r6, r3
 800436c:	46ac      	mov	ip, r5
 800436e:	00f6      	lsls	r6, r6, #3
 8004370:	40b7      	lsls	r7, r6
        temp = EXTI->EXTICR[position >> 2u];
 8004372:	0899      	lsrs	r1, r3, #2
 8004374:	0089      	lsls	r1, r1, #2
 8004376:	4461      	add	r1, ip
 8004378:	6e0d      	ldr	r5, [r1, #96]	@ 0x60
        temp &= ~(0x0FuL << (8u * (position & 0x03u)));
 800437a:	43bd      	bics	r5, r7
        temp |= (GPIO_GET_INDEX(GPIOx) << (8u * (position & 0x03u)));
 800437c:	4fb5      	ldr	r7, [pc, #724]	@ (8004654 <HAL_GPIO_Init+0x354>)
 800437e:	42b8      	cmp	r0, r7
 8004380:	d100      	bne.n	8004384 <HAL_GPIO_Init+0x84>
 8004382:	e090      	b.n	80044a6 <HAL_GPIO_Init+0x1a6>
 8004384:	4fb4      	ldr	r7, [pc, #720]	@ (8004658 <HAL_GPIO_Init+0x358>)
 8004386:	42b8      	cmp	r0, r7
 8004388:	d100      	bne.n	800438c <HAL_GPIO_Init+0x8c>
 800438a:	e07b      	b.n	8004484 <HAL_GPIO_Init+0x184>
 800438c:	4fb3      	ldr	r7, [pc, #716]	@ (800465c <HAL_GPIO_Init+0x35c>)
 800438e:	42b8      	cmp	r0, r7
 8004390:	d100      	bne.n	8004394 <HAL_GPIO_Init+0x94>
 8004392:	e139      	b.n	8004608 <HAL_GPIO_Init+0x308>
 8004394:	2705      	movs	r7, #5
 8004396:	40b7      	lsls	r7, r6
 8004398:	433d      	orrs	r5, r7
        EXTI->EXTICR[position >> 2u] = temp;

        /* Clear Rising Falling edge configuration */
        temp = EXTI->RTSR1;
        temp &= ~(iocurrent);
        if ((GPIO_Init->Mode & TRIGGER_RISING) != 0x00u)
 800439a:	2680      	movs	r6, #128	@ 0x80
        EXTI->EXTICR[position >> 2u] = temp;
 800439c:	660d      	str	r5, [r1, #96]	@ 0x60
        temp &= ~(iocurrent);
 800439e:	4655      	mov	r5, sl
        temp = EXTI->RTSR1;
 80043a0:	49ab      	ldr	r1, [pc, #684]	@ (8004650 <HAL_GPIO_Init+0x350>)
        if ((GPIO_Init->Mode & TRIGGER_RISING) != 0x00u)
 80043a2:	0376      	lsls	r6, r6, #13
        temp &= ~(iocurrent);
 80043a4:	43ed      	mvns	r5, r5
        temp = EXTI->RTSR1;
 80043a6:	6809      	ldr	r1, [r1, #0]
        if ((GPIO_Init->Mode & TRIGGER_RISING) != 0x00u)
 80043a8:	4234      	tst	r4, r6
 80043aa:	d000      	beq.n	80043ae <HAL_GPIO_Init+0xae>
 80043ac:	e078      	b.n	80044a0 <HAL_GPIO_Init+0x1a0>
        temp &= ~(iocurrent);
 80043ae:	4029      	ands	r1, r5
        {
          temp |= iocurrent;
        }
        EXTI->RTSR1 = temp;
 80043b0:	4ea7      	ldr	r6, [pc, #668]	@ (8004650 <HAL_GPIO_Init+0x350>)
 80043b2:	6031      	str	r1, [r6, #0]

        temp = EXTI->FTSR1;
 80043b4:	6871      	ldr	r1, [r6, #4]
        temp &= ~(iocurrent);
        if ((GPIO_Init->Mode & TRIGGER_FALLING) != 0x00u)
 80043b6:	2680      	movs	r6, #128	@ 0x80
 80043b8:	03b6      	lsls	r6, r6, #14
 80043ba:	4234      	tst	r4, r6
 80043bc:	d16d      	bne.n	800449a <HAL_GPIO_Init+0x19a>
        temp &= ~(iocurrent);
 80043be:	4029      	ands	r1, r5
        {
          temp |= iocurrent;
        }
        EXTI->FTSR1 = temp;
 80043c0:	4ea3      	ldr	r6, [pc, #652]	@ (8004650 <HAL_GPIO_Init+0x350>)
 80043c2:	6071      	str	r1, [r6, #4]

        /* Clear EXTI line configuration */
        temp = EXTI->EMR1;
 80043c4:	2184      	movs	r1, #132	@ 0x84
 80043c6:	5871      	ldr	r1, [r6, r1]
        temp &= ~(iocurrent);
        if ((GPIO_Init->Mode & EXTI_EVT) != 0x00u)
 80043c8:	03a6      	lsls	r6, r4, #14
 80043ca:	d463      	bmi.n	8004494 <HAL_GPIO_Init+0x194>
        temp &= ~(iocurrent);
 80043cc:	4029      	ands	r1, r5
        {
          temp |= iocurrent;
        }
        EXTI->EMR1 = temp;
 80043ce:	2684      	movs	r6, #132	@ 0x84
 80043d0:	4f9f      	ldr	r7, [pc, #636]	@ (8004650 <HAL_GPIO_Init+0x350>)
 80043d2:	51b9      	str	r1, [r7, r6]

        temp = EXTI->IMR1;
 80043d4:	2180      	movs	r1, #128	@ 0x80
 80043d6:	5879      	ldr	r1, [r7, r1]
        temp &= ~(iocurrent);
        if ((GPIO_Init->Mode & EXTI_IT) != 0x00u)
 80043d8:	03e4      	lsls	r4, r4, #15
 80043da:	d457      	bmi.n	800448c <HAL_GPIO_Init+0x18c>
        temp &= ~(iocurrent);
 80043dc:	4029      	ands	r1, r5
        {
          temp |= iocurrent;
        }
        EXTI->IMR1 = temp;
 80043de:	2480      	movs	r4, #128	@ 0x80
 80043e0:	4d9b      	ldr	r5, [pc, #620]	@ (8004650 <HAL_GPIO_Init+0x350>)
 80043e2:	5129      	str	r1, [r5, r4]
  while (((GPIO_Init->Pin) >> position) != 0x00u)
 80043e4:	0011      	movs	r1, r2
      }
    }

    position++;
 80043e6:	3301      	adds	r3, #1
  while (((GPIO_Init->Pin) >> position) != 0x00u)
 80043e8:	40d9      	lsrs	r1, r3
 80043ea:	d19a      	bne.n	8004322 <HAL_GPIO_Init+0x22>
  }
}
 80043ec:	b005      	add	sp, #20
 80043ee:	bcf0      	pop	{r4, r5, r6, r7}
 80043f0:	46bb      	mov	fp, r7
 80043f2:	46b2      	mov	sl, r6
 80043f4:	46a9      	mov	r9, r5
 80043f6:	46a0      	mov	r8, r4
 80043f8:	bdf0      	pop	{r4, r5, r6, r7, pc}
        temp = GPIOx->OSPEEDR;
 80043fa:	6887      	ldr	r7, [r0, #8]
        temp &= ~(GPIO_OSPEEDR_OSPEED0 << (position * 2u));
 80043fc:	402f      	ands	r7, r5
 80043fe:	46b9      	mov	r9, r7
        temp |= (GPIO_Init->Speed << (position * 2u));
 8004400:	465f      	mov	r7, fp
 8004402:	68ff      	ldr	r7, [r7, #12]
 8004404:	40b7      	lsls	r7, r6
 8004406:	46b8      	mov	r8, r7
 8004408:	464f      	mov	r7, r9
 800440a:	4645      	mov	r5, r8
 800440c:	432f      	orrs	r7, r5
        GPIOx->OSPEEDR = temp;
 800440e:	6087      	str	r7, [r0, #8]
        temp = GPIOx->OTYPER;
 8004410:	6845      	ldr	r5, [r0, #4]
        temp &= ~(GPIO_OTYPER_OT0 << position) ;
 8004412:	002f      	movs	r7, r5
 8004414:	4665      	mov	r5, ip
 8004416:	43af      	bics	r7, r5
        temp |= (((GPIO_Init->Mode & OUTPUT_TYPE) >> OUTPUT_TYPE_Pos) << position);
 8004418:	0925      	lsrs	r5, r4, #4
        temp &= ~(GPIO_OTYPER_OT0 << position) ;
 800441a:	46b8      	mov	r8, r7
        temp |= (((GPIO_Init->Mode & OUTPUT_TYPE) >> OUTPUT_TYPE_Pos) << position);
 800441c:	002f      	movs	r7, r5
 800441e:	2501      	movs	r5, #1
 8004420:	402f      	ands	r7, r5
 8004422:	409f      	lsls	r7, r3
 8004424:	46bc      	mov	ip, r7
 8004426:	4647      	mov	r7, r8
 8004428:	4665      	mov	r5, ip
 800442a:	432f      	orrs	r7, r5
        GPIOx->OTYPER = temp;
 800442c:	6047      	str	r7, [r0, #4]
        temp = GPIOx->PUPDR;
 800442e:	68c5      	ldr	r5, [r0, #12]
        temp &= ~(GPIO_PUPDR_PUPD0 << (position * 2u));
 8004430:	002f      	movs	r7, r5
 8004432:	9d01      	ldr	r5, [sp, #4]
 8004434:	402f      	ands	r7, r5
        temp |= ((GPIO_Init->Pull) << (position * 2u));
 8004436:	465d      	mov	r5, fp
 8004438:	68ad      	ldr	r5, [r5, #8]
        temp &= ~(GPIO_PUPDR_PUPD0 << (position * 2u));
 800443a:	46b8      	mov	r8, r7
        temp |= ((GPIO_Init->Pull) << (position * 2u));
 800443c:	002f      	movs	r7, r5
 800443e:	40b7      	lsls	r7, r6
 8004440:	46bc      	mov	ip, r7
 8004442:	4647      	mov	r7, r8
 8004444:	4665      	mov	r5, ip
 8004446:	432f      	orrs	r7, r5
        GPIOx->PUPDR = temp;
 8004448:	60c7      	str	r7, [r0, #12]
      if ((GPIO_Init->Mode & GPIO_MODE) == MODE_AF)
 800444a:	2902      	cmp	r1, #2
 800444c:	d000      	beq.n	8004450 <HAL_GPIO_Init+0x150>
 800444e:	e77f      	b.n	8004350 <HAL_GPIO_Init+0x50>
        temp = GPIOx->AFR[position >> 3u];
 8004450:	08dd      	lsrs	r5, r3, #3
 8004452:	00ad      	lsls	r5, r5, #2
 8004454:	46ac      	mov	ip, r5
 8004456:	4484      	add	ip, r0
 8004458:	4665      	mov	r5, ip
 800445a:	6a2f      	ldr	r7, [r5, #32]
        temp &= ~(0xFu << ((position & 0x07u) * 4u));
 800445c:	2507      	movs	r5, #7
 800445e:	401d      	ands	r5, r3
 8004460:	00ad      	lsls	r5, r5, #2
 8004462:	46a8      	mov	r8, r5
        temp = GPIOx->AFR[position >> 3u];
 8004464:	9702      	str	r7, [sp, #8]
        temp &= ~(0xFu << ((position & 0x07u) * 4u));
 8004466:	250f      	movs	r5, #15
 8004468:	4647      	mov	r7, r8
 800446a:	40bd      	lsls	r5, r7
 800446c:	9f02      	ldr	r7, [sp, #8]
 800446e:	43af      	bics	r7, r5
        temp |= ((GPIO_Init->Alternate) << ((position & 0x07u) * 4u));
 8004470:	465d      	mov	r5, fp
        temp &= ~(0xFu << ((position & 0x07u) * 4u));
 8004472:	9702      	str	r7, [sp, #8]
        temp |= ((GPIO_Init->Alternate) << ((position & 0x07u) * 4u));
 8004474:	4647      	mov	r7, r8
 8004476:	692d      	ldr	r5, [r5, #16]
 8004478:	40bd      	lsls	r5, r7
 800447a:	9f02      	ldr	r7, [sp, #8]
 800447c:	432f      	orrs	r7, r5
        GPIOx->AFR[position >> 3u] = temp;
 800447e:	4665      	mov	r5, ip
 8004480:	622f      	str	r7, [r5, #32]
 8004482:	e765      	b.n	8004350 <HAL_GPIO_Init+0x50>
        temp |= (GPIO_GET_INDEX(GPIOx) << (8u * (position & 0x03u)));
 8004484:	2702      	movs	r7, #2
 8004486:	40b7      	lsls	r7, r6
 8004488:	433d      	orrs	r5, r7
 800448a:	e786      	b.n	800439a <HAL_GPIO_Init+0x9a>
          temp |= iocurrent;
 800448c:	4654      	mov	r4, sl
 800448e:	430c      	orrs	r4, r1
 8004490:	0021      	movs	r1, r4
 8004492:	e7a4      	b.n	80043de <HAL_GPIO_Init+0xde>
          temp |= iocurrent;
 8004494:	4656      	mov	r6, sl
 8004496:	4331      	orrs	r1, r6
 8004498:	e799      	b.n	80043ce <HAL_GPIO_Init+0xce>
          temp |= iocurrent;
 800449a:	4656      	mov	r6, sl
 800449c:	4331      	orrs	r1, r6
 800449e:	e78f      	b.n	80043c0 <HAL_GPIO_Init+0xc0>
          temp |= iocurrent;
 80044a0:	4656      	mov	r6, sl
 80044a2:	4331      	orrs	r1, r6
 80044a4:	e784      	b.n	80043b0 <HAL_GPIO_Init+0xb0>
        temp |= (GPIO_GET_INDEX(GPIOx) << (8u * (position & 0x03u)));
 80044a6:	2701      	movs	r7, #1
 80044a8:	40b7      	lsls	r7, r6
 80044aa:	433d      	orrs	r5, r7
 80044ac:	e775      	b.n	800439a <HAL_GPIO_Init+0x9a>
    iocurrent = (GPIO_Init->Pin) & (1uL << position);
 80044ae:	2101      	movs	r1, #1
 80044b0:	468a      	mov	sl, r1
        if ((GPIO_Init->Mode & TRIGGER_RISING) != 0x00u)
 80044b2:	4659      	mov	r1, fp
 80044b4:	9102      	str	r1, [sp, #8]
 80044b6:	e040      	b.n	800453a <HAL_GPIO_Init+0x23a>
      if ((GPIO_Init->Mode & GPIO_MODE) != MODE_ANALOG)
 80044b8:	2903      	cmp	r1, #3
 80044ba:	d000      	beq.n	80044be <HAL_GPIO_Init+0x1be>
 80044bc:	e0b5      	b.n	800462a <HAL_GPIO_Init+0x32a>
      temp |= ((GPIO_Init->Mode & GPIO_MODE) << (position * 2u));
 80044be:	40b1      	lsls	r1, r6
      temp = GPIOx->MODER;
 80044c0:	6807      	ldr	r7, [r0, #0]
      temp &= ~(GPIO_MODER_MODE0 << (position * 2u));
 80044c2:	9d01      	ldr	r5, [sp, #4]
 80044c4:	403d      	ands	r5, r7
      temp |= ((GPIO_Init->Mode & GPIO_MODE) << (position * 2u));
 80044c6:	4329      	orrs	r1, r5
      GPIOx->MODER = temp;
 80044c8:	6001      	str	r1, [r0, #0]
      if ((GPIO_Init->Mode & EXTI_MODE) != 0x00u)
 80044ca:	21c0      	movs	r1, #192	@ 0xc0
 80044cc:	0289      	lsls	r1, r1, #10
 80044ce:	420c      	tst	r4, r1
 80044d0:	d02e      	beq.n	8004530 <HAL_GPIO_Init+0x230>
        temp &= ~(0x0FuL << (8u * (position & 0x03u)));
 80044d2:	2603      	movs	r6, #3
 80044d4:	270f      	movs	r7, #15
 80044d6:	4d5e      	ldr	r5, [pc, #376]	@ (8004650 <HAL_GPIO_Init+0x350>)
 80044d8:	401e      	ands	r6, r3
 80044da:	46ac      	mov	ip, r5
 80044dc:	00f6      	lsls	r6, r6, #3
 80044de:	40b7      	lsls	r7, r6
        temp = EXTI->EXTICR[position >> 2u];
 80044e0:	0899      	lsrs	r1, r3, #2
 80044e2:	0089      	lsls	r1, r1, #2
 80044e4:	4461      	add	r1, ip
 80044e6:	6e0d      	ldr	r5, [r1, #96]	@ 0x60
        if ((GPIO_Init->Mode & TRIGGER_RISING) != 0x00u)
 80044e8:	2680      	movs	r6, #128	@ 0x80
        temp &= ~(0x0FuL << (8u * (position & 0x03u)));
 80044ea:	43bd      	bics	r5, r7
        EXTI->EXTICR[position >> 2u] = temp;
 80044ec:	660d      	str	r5, [r1, #96]	@ 0x60
        temp = EXTI->RTSR1;
 80044ee:	4661      	mov	r1, ip
        temp &= ~(iocurrent);
 80044f0:	465d      	mov	r5, fp
        if ((GPIO_Init->Mode & TRIGGER_RISING) != 0x00u)
 80044f2:	0376      	lsls	r6, r6, #13
        temp &= ~(iocurrent);
 80044f4:	43ed      	mvns	r5, r5
        temp = EXTI->RTSR1;
 80044f6:	6809      	ldr	r1, [r1, #0]
        if ((GPIO_Init->Mode & TRIGGER_RISING) != 0x00u)
 80044f8:	4234      	tst	r4, r6
 80044fa:	d000      	beq.n	80044fe <HAL_GPIO_Init+0x1fe>
 80044fc:	e081      	b.n	8004602 <HAL_GPIO_Init+0x302>
        temp &= ~(iocurrent);
 80044fe:	4029      	ands	r1, r5
        EXTI->RTSR1 = temp;
 8004500:	4e53      	ldr	r6, [pc, #332]	@ (8004650 <HAL_GPIO_Init+0x350>)
 8004502:	6031      	str	r1, [r6, #0]
        temp = EXTI->FTSR1;
 8004504:	6871      	ldr	r1, [r6, #4]
        if ((GPIO_Init->Mode & TRIGGER_FALLING) != 0x00u)
 8004506:	02a6      	lsls	r6, r4, #10
 8004508:	d478      	bmi.n	80045fc <HAL_GPIO_Init+0x2fc>
        temp &= ~(iocurrent);
 800450a:	4029      	ands	r1, r5
        EXTI->FTSR1 = temp;
 800450c:	4e50      	ldr	r6, [pc, #320]	@ (8004650 <HAL_GPIO_Init+0x350>)
 800450e:	6071      	str	r1, [r6, #4]
        temp = EXTI->EMR1;
 8004510:	2184      	movs	r1, #132	@ 0x84
 8004512:	5871      	ldr	r1, [r6, r1]
        if ((GPIO_Init->Mode & EXTI_EVT) != 0x00u)
 8004514:	03a6      	lsls	r6, r4, #14
 8004516:	d46e      	bmi.n	80045f6 <HAL_GPIO_Init+0x2f6>
        temp &= ~(iocurrent);
 8004518:	4029      	ands	r1, r5
        EXTI->EMR1 = temp;
 800451a:	2684      	movs	r6, #132	@ 0x84
 800451c:	4f4c      	ldr	r7, [pc, #304]	@ (8004650 <HAL_GPIO_Init+0x350>)
 800451e:	51b9      	str	r1, [r7, r6]
        temp = EXTI->IMR1;
 8004520:	2180      	movs	r1, #128	@ 0x80
 8004522:	5879      	ldr	r1, [r7, r1]
        if ((GPIO_Init->Mode & EXTI_IT) != 0x00u)
 8004524:	03e4      	lsls	r4, r4, #15
 8004526:	d463      	bmi.n	80045f0 <HAL_GPIO_Init+0x2f0>
        temp &= ~(iocurrent);
 8004528:	4029      	ands	r1, r5
        EXTI->IMR1 = temp;
 800452a:	2480      	movs	r4, #128	@ 0x80
 800452c:	4d48      	ldr	r5, [pc, #288]	@ (8004650 <HAL_GPIO_Init+0x350>)
 800452e:	5129      	str	r1, [r5, r4]
  while (((GPIO_Init->Pin) >> position) != 0x00u)
 8004530:	0011      	movs	r1, r2
    position++;
 8004532:	3301      	adds	r3, #1
  while (((GPIO_Init->Pin) >> position) != 0x00u)
 8004534:	40d9      	lsrs	r1, r3
 8004536:	d100      	bne.n	800453a <HAL_GPIO_Init+0x23a>
 8004538:	e758      	b.n	80043ec <HAL_GPIO_Init+0xec>
    iocurrent = (GPIO_Init->Pin) & (1uL << position);
 800453a:	4651      	mov	r1, sl
 800453c:	4099      	lsls	r1, r3
 800453e:	468c      	mov	ip, r1
 8004540:	4011      	ands	r1, r2
 8004542:	468b      	mov	fp, r1
    if (iocurrent != 0x00u)
 8004544:	4661      	mov	r1, ip
 8004546:	4211      	tst	r1, r2
 8004548:	d0f2      	beq.n	8004530 <HAL_GPIO_Init+0x230>
        temp &= ~(GPIO_OSPEEDR_OSPEED0 << (position * 2u));
 800454a:	2503      	movs	r5, #3
 800454c:	005e      	lsls	r6, r3, #1
 800454e:	40b5      	lsls	r5, r6
      if (((GPIO_Init->Mode & GPIO_MODE) == MODE_OUTPUT) || ((GPIO_Init->Mode & GPIO_MODE) == MODE_AF))
 8004550:	9902      	ldr	r1, [sp, #8]
        temp &= ~(GPIO_OSPEEDR_OSPEED0 << (position * 2u));
 8004552:	43ed      	mvns	r5, r5
      if (((GPIO_Init->Mode & GPIO_MODE) == MODE_OUTPUT) || ((GPIO_Init->Mode & GPIO_MODE) == MODE_AF))
 8004554:	684c      	ldr	r4, [r1, #4]
 8004556:	2103      	movs	r1, #3
 8004558:	4021      	ands	r1, r4
 800455a:	1e4f      	subs	r7, r1, #1
        temp &= ~(GPIO_OSPEEDR_OSPEED0 << (position * 2u));
 800455c:	9501      	str	r5, [sp, #4]
      if (((GPIO_Init->Mode & GPIO_MODE) == MODE_OUTPUT) || ((GPIO_Init->Mode & GPIO_MODE) == MODE_AF))
 800455e:	2f01      	cmp	r7, #1
 8004560:	d8aa      	bhi.n	80044b8 <HAL_GPIO_Init+0x1b8>
        temp = GPIOx->OSPEEDR;
 8004562:	6887      	ldr	r7, [r0, #8]
        temp &= ~(GPIO_OSPEEDR_OSPEED0 << (position * 2u));
 8004564:	402f      	ands	r7, r5
        temp |= (GPIO_Init->Speed << (position * 2u));
 8004566:	9d02      	ldr	r5, [sp, #8]
        temp &= ~(GPIO_OSPEEDR_OSPEED0 << (position * 2u));
 8004568:	46b9      	mov	r9, r7
        temp |= (GPIO_Init->Speed << (position * 2u));
 800456a:	68ef      	ldr	r7, [r5, #12]
 800456c:	40b7      	lsls	r7, r6
 800456e:	46b8      	mov	r8, r7
 8004570:	464f      	mov	r7, r9
 8004572:	4645      	mov	r5, r8
 8004574:	432f      	orrs	r7, r5
        GPIOx->OSPEEDR = temp;
 8004576:	6087      	str	r7, [r0, #8]
        temp = GPIOx->OTYPER;
 8004578:	6845      	ldr	r5, [r0, #4]
        temp &= ~(GPIO_OTYPER_OT0 << position) ;
 800457a:	002f      	movs	r7, r5
 800457c:	4665      	mov	r5, ip
 800457e:	43af      	bics	r7, r5
        temp |= (((GPIO_Init->Mode & OUTPUT_TYPE) >> OUTPUT_TYPE_Pos) << position);
 8004580:	0925      	lsrs	r5, r4, #4
        temp &= ~(GPIO_OTYPER_OT0 << position) ;
 8004582:	46b8      	mov	r8, r7
        temp |= (((GPIO_Init->Mode & OUTPUT_TYPE) >> OUTPUT_TYPE_Pos) << position);
 8004584:	002f      	movs	r7, r5
 8004586:	4655      	mov	r5, sl
 8004588:	402f      	ands	r7, r5
 800458a:	409f      	lsls	r7, r3
 800458c:	46bc      	mov	ip, r7
 800458e:	4647      	mov	r7, r8
 8004590:	4665      	mov	r5, ip
 8004592:	432f      	orrs	r7, r5
        GPIOx->OTYPER = temp;
 8004594:	6047      	str	r7, [r0, #4]
        temp = GPIOx->PUPDR;
 8004596:	68c5      	ldr	r5, [r0, #12]
        temp &= ~(GPIO_PUPDR_PUPD0 << (position * 2u));
 8004598:	002f      	movs	r7, r5
 800459a:	9d01      	ldr	r5, [sp, #4]
 800459c:	402f      	ands	r7, r5
        temp |= ((GPIO_Init->Pull) << (position * 2u));
 800459e:	9d02      	ldr	r5, [sp, #8]
        temp &= ~(GPIO_PUPDR_PUPD0 << (position * 2u));
 80045a0:	46b8      	mov	r8, r7
        temp |= ((GPIO_Init->Pull) << (position * 2u));
 80045a2:	68ad      	ldr	r5, [r5, #8]
 80045a4:	002f      	movs	r7, r5
 80045a6:	40b7      	lsls	r7, r6
 80045a8:	46bc      	mov	ip, r7
 80045aa:	4647      	mov	r7, r8
 80045ac:	4665      	mov	r5, ip
 80045ae:	432f      	orrs	r7, r5
        GPIOx->PUPDR = temp;
 80045b0:	60c7      	str	r7, [r0, #12]
      if ((GPIO_Init->Mode & GPIO_MODE) == MODE_AF)
 80045b2:	2902      	cmp	r1, #2
 80045b4:	d183      	bne.n	80044be <HAL_GPIO_Init+0x1be>
        temp = GPIOx->AFR[position >> 3u];
 80045b6:	08dd      	lsrs	r5, r3, #3
 80045b8:	00ad      	lsls	r5, r5, #2
 80045ba:	46ac      	mov	ip, r5
 80045bc:	25a0      	movs	r5, #160	@ 0xa0
 80045be:	05ed      	lsls	r5, r5, #23
 80045c0:	46a8      	mov	r8, r5
        temp |= ((GPIO_Init->Alternate) << ((position & 0x07u) * 4u));
 80045c2:	44c4      	add	ip, r8
        temp = GPIOx->AFR[position >> 3u];
 80045c4:	4665      	mov	r5, ip
 80045c6:	6a2f      	ldr	r7, [r5, #32]
        temp &= ~(0xFu << ((position & 0x07u) * 4u));
 80045c8:	2507      	movs	r5, #7
 80045ca:	401d      	ands	r5, r3
 80045cc:	00ad      	lsls	r5, r5, #2
 80045ce:	46a9      	mov	r9, r5
        temp = GPIOx->AFR[position >> 3u];
 80045d0:	9703      	str	r7, [sp, #12]
        temp &= ~(0xFu << ((position & 0x07u) * 4u));
 80045d2:	250f      	movs	r5, #15
 80045d4:	464f      	mov	r7, r9
 80045d6:	40bd      	lsls	r5, r7
 80045d8:	9f03      	ldr	r7, [sp, #12]
 80045da:	43af      	bics	r7, r5
 80045dc:	9703      	str	r7, [sp, #12]
        temp |= ((GPIO_Init->Alternate) << ((position & 0x07u) * 4u));
 80045de:	464f      	mov	r7, r9
 80045e0:	9d02      	ldr	r5, [sp, #8]
 80045e2:	692d      	ldr	r5, [r5, #16]
 80045e4:	40bd      	lsls	r5, r7
 80045e6:	9f03      	ldr	r7, [sp, #12]
 80045e8:	432f      	orrs	r7, r5
        GPIOx->AFR[position >> 3u] = temp;
 80045ea:	4665      	mov	r5, ip
 80045ec:	622f      	str	r7, [r5, #32]
 80045ee:	e766      	b.n	80044be <HAL_GPIO_Init+0x1be>
          temp |= iocurrent;
 80045f0:	465c      	mov	r4, fp
 80045f2:	4321      	orrs	r1, r4
 80045f4:	e799      	b.n	800452a <HAL_GPIO_Init+0x22a>
          temp |= iocurrent;
 80045f6:	465e      	mov	r6, fp
 80045f8:	4331      	orrs	r1, r6
 80045fa:	e78e      	b.n	800451a <HAL_GPIO_Init+0x21a>
          temp |= iocurrent;
 80045fc:	465e      	mov	r6, fp
 80045fe:	4331      	orrs	r1, r6
 8004600:	e784      	b.n	800450c <HAL_GPIO_Init+0x20c>
          temp |= iocurrent;
 8004602:	465e      	mov	r6, fp
 8004604:	4331      	orrs	r1, r6
 8004606:	e77b      	b.n	8004500 <HAL_GPIO_Init+0x200>
        temp |= (GPIO_GET_INDEX(GPIOx) << (8u * (position & 0x03u)));
 8004608:	2703      	movs	r7, #3
 800460a:	40b7      	lsls	r7, r6
 800460c:	433d      	orrs	r5, r7
 800460e:	e6c4      	b.n	800439a <HAL_GPIO_Init+0x9a>
 8004610:	002f      	movs	r7, r5
        temp = GPIOx->PUPDR;
 8004612:	68c5      	ldr	r5, [r0, #12]
        temp &= ~(GPIO_PUPDR_PUPD0 << (position * 2u));
 8004614:	403d      	ands	r5, r7
 8004616:	46a8      	mov	r8, r5
        temp |= ((GPIO_Init->Pull) << (position * 2u));
 8004618:	465d      	mov	r5, fp
 800461a:	68ad      	ldr	r5, [r5, #8]
 800461c:	40b5      	lsls	r5, r6
 800461e:	46ac      	mov	ip, r5
 8004620:	4645      	mov	r5, r8
 8004622:	4667      	mov	r7, ip
 8004624:	433d      	orrs	r5, r7
        GPIOx->PUPDR = temp;
 8004626:	60c5      	str	r5, [r0, #12]
      if ((GPIO_Init->Mode & GPIO_MODE) == MODE_AF)
 8004628:	e692      	b.n	8004350 <HAL_GPIO_Init+0x50>
 800462a:	002f      	movs	r7, r5
        temp = GPIOx->PUPDR;
 800462c:	25a0      	movs	r5, #160	@ 0xa0
 800462e:	05ed      	lsls	r5, r5, #23
 8004630:	46a8      	mov	r8, r5
 8004632:	68ed      	ldr	r5, [r5, #12]
        temp &= ~(GPIO_PUPDR_PUPD0 << (position * 2u));
 8004634:	403d      	ands	r5, r7
 8004636:	46a9      	mov	r9, r5
        temp |= ((GPIO_Init->Pull) << (position * 2u));
 8004638:	9d02      	ldr	r5, [sp, #8]
 800463a:	68ad      	ldr	r5, [r5, #8]
 800463c:	40b5      	lsls	r5, r6
 800463e:	46ac      	mov	ip, r5
 8004640:	464d      	mov	r5, r9
 8004642:	4667      	mov	r7, ip
 8004644:	433d      	orrs	r5, r7
 8004646:	46ac      	mov	ip, r5
        GPIOx->PUPDR = temp;
 8004648:	4645      	mov	r5, r8
 800464a:	4667      	mov	r7, ip
 800464c:	60ef      	str	r7, [r5, #12]
      if ((GPIO_Init->Mode & GPIO_MODE) == MODE_AF)
 800464e:	e736      	b.n	80044be <HAL_GPIO_Init+0x1be>
 8004650:	40021800 	.word	0x40021800
 8004654:	50000400 	.word	0x50000400
 8004658:	50000800 	.word	0x50000800
 800465c:	50000c00 	.word	0x50000c00

08004660 <HAL_GPIO_ReadPin>:
  GPIO_PinState bitstatus;

  /* Check the parameters */
  assert_param(IS_GPIO_PIN(GPIO_Pin));

  if ((GPIOx->IDR & GPIO_Pin) != 0x00u)
 8004660:	6900      	ldr	r0, [r0, #16]
 8004662:	4008      	ands	r0, r1
 8004664:	1e43      	subs	r3, r0, #1
 8004666:	4198      	sbcs	r0, r3
  }
  else
  {
    bitstatus = GPIO_PIN_RESET;
  }
  return bitstatus;
 8004668:	b2c0      	uxtb	r0, r0
}
 800466a:	4770      	bx	lr

0800466c <HAL_GPIO_WritePin>:
{
  /* Check the parameters */
  assert_param(IS_GPIO_PIN(GPIO_Pin));
  assert_param(IS_GPIO_PIN_ACTION(PinState));

  if (PinState != GPIO_PIN_RESET)
 800466c:	2a00      	cmp	r2, #0
 800466e:	d001      	beq.n	8004674 <HAL_GPIO_WritePin+0x8>
  {
    GPIOx->BSRR = (uint32_t)GPIO_Pin;
 8004670:	6181      	str	r1, [r0, #24]
  }
  else
  {
    GPIOx->BRR = (uint32_t)GPIO_Pin;
  }
}
 8004672:	4770      	bx	lr
    GPIOx->BRR = (uint32_t)GPIO_Pin;
 8004674:	6281      	str	r1, [r0, #40]	@ 0x28
}
 8004676:	e7fc      	b.n	8004672 <HAL_GPIO_WritePin+0x6>

08004678 <HAL_GPIO_EXTI_IRQHandler>:
  * @retval None
  */
void HAL_GPIO_EXTI_IRQHandler(uint16_t GPIO_Pin)
{
  /* EXTI line interrupt detected */
  if (__HAL_GPIO_EXTI_GET_RISING_IT(GPIO_Pin) != 0x00u)
 8004678:	4b0b      	ldr	r3, [pc, #44]	@ (80046a8 <HAL_GPIO_EXTI_IRQHandler+0x30>)
{
 800467a:	b510      	push	{r4, lr}
  if (__HAL_GPIO_EXTI_GET_RISING_IT(GPIO_Pin) != 0x00u)
 800467c:	68da      	ldr	r2, [r3, #12]
{
 800467e:	0004      	movs	r4, r0
  if (__HAL_GPIO_EXTI_GET_RISING_IT(GPIO_Pin) != 0x00u)
 8004680:	4210      	tst	r0, r2
 8004682:	d104      	bne.n	800468e <HAL_GPIO_EXTI_IRQHandler+0x16>
  {
    __HAL_GPIO_EXTI_CLEAR_RISING_IT(GPIO_Pin);
    HAL_GPIO_EXTI_Rising_Callback(GPIO_Pin);
  }

  if (__HAL_GPIO_EXTI_GET_FALLING_IT(GPIO_Pin) != 0x00u)
 8004684:	4b08      	ldr	r3, [pc, #32]	@ (80046a8 <HAL_GPIO_EXTI_IRQHandler+0x30>)
 8004686:	691a      	ldr	r2, [r3, #16]
 8004688:	4222      	tst	r2, r4
 800468a:	d107      	bne.n	800469c <HAL_GPIO_EXTI_IRQHandler+0x24>
  {
    __HAL_GPIO_EXTI_CLEAR_FALLING_IT(GPIO_Pin);
    HAL_GPIO_EXTI_Falling_Callback(GPIO_Pin);
  }
}
 800468c:	bd10      	pop	{r4, pc}
    __HAL_GPIO_EXTI_CLEAR_RISING_IT(GPIO_Pin);
 800468e:	60d8      	str	r0, [r3, #12]
    HAL_GPIO_EXTI_Rising_Callback(GPIO_Pin);
 8004690:	f7fd fd46 	bl	8002120 <HAL_GPIO_EXTI_Rising_Callback>
  if (__HAL_GPIO_EXTI_GET_FALLING_IT(GPIO_Pin) != 0x00u)
 8004694:	4b04      	ldr	r3, [pc, #16]	@ (80046a8 <HAL_GPIO_EXTI_IRQHandler+0x30>)
 8004696:	691a      	ldr	r2, [r3, #16]
 8004698:	4222      	tst	r2, r4
 800469a:	d0f7      	beq.n	800468c <HAL_GPIO_EXTI_IRQHandler+0x14>
    HAL_GPIO_EXTI_Falling_Callback(GPIO_Pin);
 800469c:	0020      	movs	r0, r4
    __HAL_GPIO_EXTI_CLEAR_FALLING_IT(GPIO_Pin);
 800469e:	611c      	str	r4, [r3, #16]
    HAL_GPIO_EXTI_Falling_Callback(GPIO_Pin);
 80046a0:	f7fd fd22 	bl	80020e8 <HAL_GPIO_EXTI_Falling_Callback>
}
 80046a4:	e7f2      	b.n	800468c <HAL_GPIO_EXTI_IRQHandler+0x14>
 80046a6:	46c0      	nop			@ (mov r8, r8)
 80046a8:	40021800 	.word	0x40021800

080046ac <HAL_LPTIM_DirectionDownCallback>:
/**
  * @brief  Direction counter changed from Up to Down callback in non-blocking mode.
  * @param  hlptim LPTIM handle
  * @retval None
  */
__weak void HAL_LPTIM_DirectionDownCallback(LPTIM_HandleTypeDef *hlptim)
 80046ac:	4770      	bx	lr
 80046ae:	46c0      	nop			@ (mov r8, r8)

080046b0 <HAL_LPTIM_CompareMatchCallback>:
__weak void HAL_LPTIM_CompareMatchCallback(LPTIM_HandleTypeDef *hlptim)
 80046b0:	4770      	bx	lr
 80046b2:	46c0      	nop			@ (mov r8, r8)

080046b4 <HAL_LPTIM_AutoReloadMatchCallback>:
__weak void HAL_LPTIM_AutoReloadMatchCallback(LPTIM_HandleTypeDef *hlptim)
 80046b4:	4770      	bx	lr
 80046b6:	46c0      	nop			@ (mov r8, r8)

080046b8 <HAL_LPTIM_TriggerCallback>:
__weak void HAL_LPTIM_TriggerCallback(LPTIM_HandleTypeDef *hlptim)
 80046b8:	4770      	bx	lr
 80046ba:	46c0      	nop			@ (mov r8, r8)

080046bc <HAL_LPTIM_CompareWriteCallback>:
__weak void HAL_LPTIM_CompareWriteCallback(LPTIM_HandleTypeDef *hlptim)
 80046bc:	4770      	bx	lr
 80046be:	46c0      	nop			@ (mov r8, r8)

080046c0 <HAL_LPTIM_AutoReloadWriteCallback>:
__weak void HAL_LPTIM_AutoReloadWriteCallback(LPTIM_HandleTypeDef *hlptim)
 80046c0:	4770      	bx	lr
 80046c2:	46c0      	nop			@ (mov r8, r8)

080046c4 <HAL_LPTIM_DirectionUpCallback>:
__weak void HAL_LPTIM_DirectionUpCallback(LPTIM_HandleTypeDef *hlptim)
 80046c4:	4770      	bx	lr
 80046c6:	46c0      	nop			@ (mov r8, r8)

080046c8 <HAL_LPTIM_Init>:
{
 80046c8:	b5f8      	push	{r3, r4, r5, r6, r7, lr}
 80046ca:	1e04      	subs	r4, r0, #0
  if (hlptim == NULL)
 80046cc:	d062      	beq.n	8004794 <HAL_LPTIM_Init+0xcc>
  if (hlptim->State == HAL_LPTIM_STATE_RESET)
 80046ce:	2336      	movs	r3, #54	@ 0x36
 80046d0:	5cc3      	ldrb	r3, [r0, r3]
 80046d2:	b2da      	uxtb	r2, r3
 80046d4:	2b00      	cmp	r3, #0
 80046d6:	d114      	bne.n	8004702 <HAL_LPTIM_Init+0x3a>
    hlptim->Lock = HAL_UNLOCKED;
 80046d8:	3335      	adds	r3, #53	@ 0x35
 80046da:	54c2      	strb	r2, [r0, r3]
  * @retval None
  */
static void LPTIM_ResetCallback(LPTIM_HandleTypeDef *lptim)
{
  /* Reset the LPTIM callback to the legacy weak callbacks */
  lptim->CompareMatchCallback    = HAL_LPTIM_CompareMatchCallback;
 80046dc:	4b30      	ldr	r3, [pc, #192]	@ (80047a0 <HAL_LPTIM_Init+0xd8>)
 80046de:	6403      	str	r3, [r0, #64]	@ 0x40
  lptim->AutoReloadMatchCallback = HAL_LPTIM_AutoReloadMatchCallback;
 80046e0:	4b30      	ldr	r3, [pc, #192]	@ (80047a4 <HAL_LPTIM_Init+0xdc>)
 80046e2:	6443      	str	r3, [r0, #68]	@ 0x44
  lptim->TriggerCallback         = HAL_LPTIM_TriggerCallback;
 80046e4:	4b30      	ldr	r3, [pc, #192]	@ (80047a8 <HAL_LPTIM_Init+0xe0>)
 80046e6:	6483      	str	r3, [r0, #72]	@ 0x48
  lptim->CompareWriteCallback    = HAL_LPTIM_CompareWriteCallback;
 80046e8:	4b30      	ldr	r3, [pc, #192]	@ (80047ac <HAL_LPTIM_Init+0xe4>)
 80046ea:	64c3      	str	r3, [r0, #76]	@ 0x4c
  lptim->AutoReloadWriteCallback = HAL_LPTIM_AutoReloadWriteCallback;
 80046ec:	4b30      	ldr	r3, [pc, #192]	@ (80047b0 <HAL_LPTIM_Init+0xe8>)
 80046ee:	6503      	str	r3, [r0, #80]	@ 0x50
  lptim->DirectionUpCallback     = HAL_LPTIM_DirectionUpCallback;
 80046f0:	4b30      	ldr	r3, [pc, #192]	@ (80047b4 <HAL_LPTIM_Init+0xec>)
 80046f2:	6543      	str	r3, [r0, #84]	@ 0x54
  lptim->DirectionDownCallback   = HAL_LPTIM_DirectionDownCallback;
 80046f4:	4b30      	ldr	r3, [pc, #192]	@ (80047b8 <HAL_LPTIM_Init+0xf0>)
 80046f6:	6583      	str	r3, [r0, #88]	@ 0x58
    if (hlptim->MspInitCallback == NULL)
 80046f8:	6b83      	ldr	r3, [r0, #56]	@ 0x38
 80046fa:	2b00      	cmp	r3, #0
 80046fc:	d04c      	beq.n	8004798 <HAL_LPTIM_Init+0xd0>
    hlptim->MspInitCallback(hlptim);
 80046fe:	0020      	movs	r0, r4
 8004700:	4798      	blx	r3
  hlptim->State = HAL_LPTIM_STATE_BUSY;
 8004702:	2336      	movs	r3, #54	@ 0x36
 8004704:	2202      	movs	r2, #2
 8004706:	54e2      	strb	r2, [r4, r3]
  tmpcfgr = hlptim->Instance->CFGR;
 8004708:	6820      	ldr	r0, [r4, #0]
  if ((hlptim->Init.Clock.Source == LPTIM_CLOCKSOURCE_ULPTIM)
 800470a:	6865      	ldr	r5, [r4, #4]
  tmpcfgr = hlptim->Instance->CFGR;
 800470c:	68c3      	ldr	r3, [r0, #12]
      || (hlptim->Init.CounterSource == LPTIM_COUNTERSOURCE_EXTERNAL))
 800470e:	6aa6      	ldr	r6, [r4, #40]	@ 0x28
  if ((hlptim->Init.Clock.Source == LPTIM_CLOCKSOURCE_ULPTIM)
 8004710:	2d01      	cmp	r5, #1
 8004712:	d038      	beq.n	8004786 <HAL_LPTIM_Init+0xbe>
      || (hlptim->Init.CounterSource == LPTIM_COUNTERSOURCE_EXTERNAL))
 8004714:	2280      	movs	r2, #128	@ 0x80
 8004716:	0412      	lsls	r2, r2, #16
 8004718:	4296      	cmp	r6, r2
 800471a:	d034      	beq.n	8004786 <HAL_LPTIM_Init+0xbe>
  if (hlptim->Init.Trigger.Source != LPTIM_TRIGSOURCE_SOFTWARE)
 800471c:	6961      	ldr	r1, [r4, #20]
 800471e:	4a27      	ldr	r2, [pc, #156]	@ (80047bc <HAL_LPTIM_Init+0xf4>)
 8004720:	4291      	cmp	r1, r2
 8004722:	d001      	beq.n	8004728 <HAL_LPTIM_Init+0x60>
    tmpcfgr &= (uint32_t)(~(LPTIM_CFGR_TRGFLT | LPTIM_CFGR_TRIGSEL));
 8004724:	4a26      	ldr	r2, [pc, #152]	@ (80047c0 <HAL_LPTIM_Init+0xf8>)
 8004726:	4013      	ands	r3, r2
  tmpcfgr &= (uint32_t)(~(LPTIM_CFGR_CKSEL | LPTIM_CFGR_TRIGEN | LPTIM_CFGR_PRELOAD |
 8004728:	4a26      	ldr	r2, [pc, #152]	@ (80047c4 <HAL_LPTIM_Init+0xfc>)
              hlptim->Init.UpdateMode      |
 800472a:	68a7      	ldr	r7, [r4, #8]
  tmpcfgr &= (uint32_t)(~(LPTIM_CFGR_CKSEL | LPTIM_CFGR_TRIGEN | LPTIM_CFGR_PRELOAD |
 800472c:	401a      	ands	r2, r3
              hlptim->Init.UpdateMode      |
 800472e:	002b      	movs	r3, r5
 8004730:	4333      	orrs	r3, r6
 8004732:	433b      	orrs	r3, r7
 8004734:	6a27      	ldr	r7, [r4, #32]
 8004736:	433b      	orrs	r3, r7
 8004738:	6a67      	ldr	r7, [r4, #36]	@ 0x24
 800473a:	433b      	orrs	r3, r7
  tmpcfgr |= (hlptim->Init.Clock.Source    |
 800473c:	4313      	orrs	r3, r2
  if (hlptim->Init.Clock.Source == LPTIM_CLOCKSOURCE_APBCLOCK_LPOSC)
 800473e:	2d00      	cmp	r5, #0
 8004740:	d018      	beq.n	8004774 <HAL_LPTIM_Init+0xac>
  if ((hlptim->Init.Clock.Source == LPTIM_CLOCKSOURCE_ULPTIM)
 8004742:	2d01      	cmp	r5, #1
 8004744:	d11a      	bne.n	800477c <HAL_LPTIM_Init+0xb4>
    tmpcfgr |= (hlptim->Init.UltraLowPowerClock.Polarity |
 8004746:	68e2      	ldr	r2, [r4, #12]
 8004748:	6925      	ldr	r5, [r4, #16]
 800474a:	432a      	orrs	r2, r5
 800474c:	4313      	orrs	r3, r2
  if (hlptim->Init.Trigger.Source != LPTIM_TRIGSOURCE_SOFTWARE)
 800474e:	4a1b      	ldr	r2, [pc, #108]	@ (80047bc <HAL_LPTIM_Init+0xf4>)
 8004750:	4291      	cmp	r1, r2
 8004752:	d004      	beq.n	800475e <HAL_LPTIM_Init+0x96>
    tmpcfgr |= (hlptim->Init.Trigger.Source     |
 8004754:	69a2      	ldr	r2, [r4, #24]
 8004756:	4311      	orrs	r1, r2
                hlptim->Init.Trigger.ActiveEdge |
 8004758:	69e2      	ldr	r2, [r4, #28]
 800475a:	4311      	orrs	r1, r2
    tmpcfgr |= (hlptim->Init.Trigger.Source     |
 800475c:	430b      	orrs	r3, r1
  if (hlptim->Instance == LPTIM1)
 800475e:	4a1a      	ldr	r2, [pc, #104]	@ (80047c8 <HAL_LPTIM_Init+0x100>)
  hlptim->Instance->CFGR = tmpcfgr;
 8004760:	60c3      	str	r3, [r0, #12]
    hlptim->Instance->CFGR2 = (hlptim->Init.Input1Source | hlptim->Init.Input2Source);
 8004762:	6ae3      	ldr	r3, [r4, #44]	@ 0x2c
  if (hlptim->Instance == LPTIM1)
 8004764:	4290      	cmp	r0, r2
 8004766:	d011      	beq.n	800478c <HAL_LPTIM_Init+0xc4>
    hlptim->Instance->CFGR2 = hlptim->Init.Input1Source;
 8004768:	6243      	str	r3, [r0, #36]	@ 0x24
  hlptim->State = HAL_LPTIM_STATE_READY;
 800476a:	2336      	movs	r3, #54	@ 0x36
 800476c:	2201      	movs	r2, #1
  return HAL_OK;
 800476e:	2000      	movs	r0, #0
  hlptim->State = HAL_LPTIM_STATE_READY;
 8004770:	54e2      	strb	r2, [r4, r3]
}
 8004772:	bdf8      	pop	{r3, r4, r5, r6, r7, pc}
    tmpcfgr |= (hlptim->Init.Trigger.SampleTime |
 8004774:	69e2      	ldr	r2, [r4, #28]
 8004776:	6925      	ldr	r5, [r4, #16]
 8004778:	432a      	orrs	r2, r5
 800477a:	4313      	orrs	r3, r2
      || (hlptim->Init.CounterSource == LPTIM_COUNTERSOURCE_EXTERNAL))
 800477c:	2280      	movs	r2, #128	@ 0x80
 800477e:	0412      	lsls	r2, r2, #16
 8004780:	4296      	cmp	r6, r2
 8004782:	d1e4      	bne.n	800474e <HAL_LPTIM_Init+0x86>
 8004784:	e7df      	b.n	8004746 <HAL_LPTIM_Init+0x7e>
    tmpcfgr &= (uint32_t)(~(LPTIM_CFGR_CKPOL | LPTIM_CFGR_CKFLT));
 8004786:	221e      	movs	r2, #30
 8004788:	4393      	bics	r3, r2
 800478a:	e7c7      	b.n	800471c <HAL_LPTIM_Init+0x54>
    hlptim->Instance->CFGR2 = (hlptim->Init.Input1Source | hlptim->Init.Input2Source);
 800478c:	6b22      	ldr	r2, [r4, #48]	@ 0x30
 800478e:	4313      	orrs	r3, r2
 8004790:	6243      	str	r3, [r0, #36]	@ 0x24
 8004792:	e7ea      	b.n	800476a <HAL_LPTIM_Init+0xa2>
    return HAL_ERROR;
 8004794:	2001      	movs	r0, #1
 8004796:	e7ec      	b.n	8004772 <HAL_LPTIM_Init+0xaa>
      hlptim->MspInitCallback = HAL_LPTIM_MspInit;
 8004798:	4b0c      	ldr	r3, [pc, #48]	@ (80047cc <HAL_LPTIM_Init+0x104>)
 800479a:	6383      	str	r3, [r0, #56]	@ 0x38
 800479c:	e7af      	b.n	80046fe <HAL_LPTIM_Init+0x36>
 800479e:	46c0      	nop			@ (mov r8, r8)
 80047a0:	080046b1 	.word	0x080046b1
 80047a4:	080046b5 	.word	0x080046b5
 80047a8:	080046b9 	.word	0x080046b9
 80047ac:	080046bd 	.word	0x080046bd
 80047b0:	080046c1 	.word	0x080046c1
 80047b4:	080046c5 	.word	0x080046c5
 80047b8:	080046ad 	.word	0x080046ad
 80047bc:	0000ffff 	.word	0x0000ffff
 80047c0:	ffff1f3f 	.word	0xffff1f3f
 80047c4:	ff19f1fe 	.word	0xff19f1fe
 80047c8:	40007c00 	.word	0x40007c00
 80047cc:	08002b81 	.word	0x08002b81

080047d0 <HAL_LPTIM_IRQHandler>:
  if (__HAL_LPTIM_GET_FLAG(hlptim, LPTIM_FLAG_CMPM) != RESET)
 80047d0:	2201      	movs	r2, #1
 80047d2:	6803      	ldr	r3, [r0, #0]
{
 80047d4:	b510      	push	{r4, lr}
  if (__HAL_LPTIM_GET_FLAG(hlptim, LPTIM_FLAG_CMPM) != RESET)
 80047d6:	6819      	ldr	r1, [r3, #0]
{
 80047d8:	0004      	movs	r4, r0
  if (__HAL_LPTIM_GET_FLAG(hlptim, LPTIM_FLAG_CMPM) != RESET)
 80047da:	420a      	tst	r2, r1
 80047dc:	d002      	beq.n	80047e4 <HAL_LPTIM_IRQHandler+0x14>
    if (__HAL_LPTIM_GET_IT_SOURCE(hlptim, LPTIM_IT_CMPM) != RESET)
 80047de:	6899      	ldr	r1, [r3, #8]
 80047e0:	420a      	tst	r2, r1
 80047e2:	d14c      	bne.n	800487e <HAL_LPTIM_IRQHandler+0xae>
  if (__HAL_LPTIM_GET_FLAG(hlptim, LPTIM_FLAG_ARRM) != RESET)
 80047e4:	2202      	movs	r2, #2
 80047e6:	6819      	ldr	r1, [r3, #0]
 80047e8:	420a      	tst	r2, r1
 80047ea:	d002      	beq.n	80047f2 <HAL_LPTIM_IRQHandler+0x22>
    if (__HAL_LPTIM_GET_IT_SOURCE(hlptim, LPTIM_IT_ARRM) != RESET)
 80047ec:	6899      	ldr	r1, [r3, #8]
 80047ee:	420a      	tst	r2, r1
 80047f0:	d13f      	bne.n	8004872 <HAL_LPTIM_IRQHandler+0xa2>
  if (__HAL_LPTIM_GET_FLAG(hlptim, LPTIM_FLAG_EXTTRIG) != RESET)
 80047f2:	2204      	movs	r2, #4
 80047f4:	6819      	ldr	r1, [r3, #0]
 80047f6:	420a      	tst	r2, r1
 80047f8:	d002      	beq.n	8004800 <HAL_LPTIM_IRQHandler+0x30>
    if (__HAL_LPTIM_GET_IT_SOURCE(hlptim, LPTIM_IT_EXTTRIG) != RESET)
 80047fa:	6899      	ldr	r1, [r3, #8]
 80047fc:	420a      	tst	r2, r1
 80047fe:	d132      	bne.n	8004866 <HAL_LPTIM_IRQHandler+0x96>
  if (__HAL_LPTIM_GET_FLAG(hlptim, LPTIM_FLAG_CMPOK) != RESET)
 8004800:	2208      	movs	r2, #8
 8004802:	6819      	ldr	r1, [r3, #0]
 8004804:	420a      	tst	r2, r1
 8004806:	d002      	beq.n	800480e <HAL_LPTIM_IRQHandler+0x3e>
    if (__HAL_LPTIM_GET_IT_SOURCE(hlptim, LPTIM_IT_CMPOK) != RESET)
 8004808:	6899      	ldr	r1, [r3, #8]
 800480a:	420a      	tst	r2, r1
 800480c:	d125      	bne.n	800485a <HAL_LPTIM_IRQHandler+0x8a>
  if (__HAL_LPTIM_GET_FLAG(hlptim, LPTIM_FLAG_ARROK) != RESET)
 800480e:	2210      	movs	r2, #16
 8004810:	6819      	ldr	r1, [r3, #0]
 8004812:	420a      	tst	r2, r1
 8004814:	d002      	beq.n	800481c <HAL_LPTIM_IRQHandler+0x4c>
    if (__HAL_LPTIM_GET_IT_SOURCE(hlptim, LPTIM_IT_ARROK) != RESET)
 8004816:	6899      	ldr	r1, [r3, #8]
 8004818:	420a      	tst	r2, r1
 800481a:	d118      	bne.n	800484e <HAL_LPTIM_IRQHandler+0x7e>
  if (__HAL_LPTIM_GET_FLAG(hlptim, LPTIM_FLAG_UP) != RESET)
 800481c:	2220      	movs	r2, #32
 800481e:	6819      	ldr	r1, [r3, #0]
 8004820:	420a      	tst	r2, r1
 8004822:	d002      	beq.n	800482a <HAL_LPTIM_IRQHandler+0x5a>
    if (__HAL_LPTIM_GET_IT_SOURCE(hlptim, LPTIM_IT_UP) != RESET)
 8004824:	6899      	ldr	r1, [r3, #8]
 8004826:	420a      	tst	r2, r1
 8004828:	d10b      	bne.n	8004842 <HAL_LPTIM_IRQHandler+0x72>
  if (__HAL_LPTIM_GET_FLAG(hlptim, LPTIM_FLAG_DOWN) != RESET)
 800482a:	2240      	movs	r2, #64	@ 0x40
 800482c:	6819      	ldr	r1, [r3, #0]
 800482e:	420a      	tst	r2, r1
 8004830:	d006      	beq.n	8004840 <HAL_LPTIM_IRQHandler+0x70>
    if (__HAL_LPTIM_GET_IT_SOURCE(hlptim, LPTIM_IT_DOWN) != RESET)
 8004832:	6899      	ldr	r1, [r3, #8]
 8004834:	420a      	tst	r2, r1
 8004836:	d003      	beq.n	8004840 <HAL_LPTIM_IRQHandler+0x70>
      __HAL_LPTIM_CLEAR_FLAG(hlptim, LPTIM_FLAG_DOWN);
 8004838:	605a      	str	r2, [r3, #4]
      hlptim->DirectionDownCallback(hlptim);
 800483a:	0020      	movs	r0, r4
 800483c:	6da3      	ldr	r3, [r4, #88]	@ 0x58
 800483e:	4798      	blx	r3
}
 8004840:	bd10      	pop	{r4, pc}
      __HAL_LPTIM_CLEAR_FLAG(hlptim, LPTIM_FLAG_UP);
 8004842:	605a      	str	r2, [r3, #4]
      hlptim->DirectionUpCallback(hlptim);
 8004844:	0020      	movs	r0, r4
 8004846:	6d63      	ldr	r3, [r4, #84]	@ 0x54
 8004848:	4798      	blx	r3
  if (__HAL_LPTIM_GET_FLAG(hlptim, LPTIM_FLAG_DOWN) != RESET)
 800484a:	6823      	ldr	r3, [r4, #0]
 800484c:	e7ed      	b.n	800482a <HAL_LPTIM_IRQHandler+0x5a>
      __HAL_LPTIM_CLEAR_FLAG(hlptim, LPTIM_FLAG_ARROK);
 800484e:	605a      	str	r2, [r3, #4]
      hlptim->AutoReloadWriteCallback(hlptim);
 8004850:	0020      	movs	r0, r4
 8004852:	6d23      	ldr	r3, [r4, #80]	@ 0x50
 8004854:	4798      	blx	r3
  if (__HAL_LPTIM_GET_FLAG(hlptim, LPTIM_FLAG_UP) != RESET)
 8004856:	6823      	ldr	r3, [r4, #0]
 8004858:	e7e0      	b.n	800481c <HAL_LPTIM_IRQHandler+0x4c>
      __HAL_LPTIM_CLEAR_FLAG(hlptim, LPTIM_FLAG_CMPOK);
 800485a:	605a      	str	r2, [r3, #4]
      hlptim->CompareWriteCallback(hlptim);
 800485c:	0020      	movs	r0, r4
 800485e:	6ce3      	ldr	r3, [r4, #76]	@ 0x4c
 8004860:	4798      	blx	r3
  if (__HAL_LPTIM_GET_FLAG(hlptim, LPTIM_FLAG_ARROK) != RESET)
 8004862:	6823      	ldr	r3, [r4, #0]
 8004864:	e7d3      	b.n	800480e <HAL_LPTIM_IRQHandler+0x3e>
      __HAL_LPTIM_CLEAR_FLAG(hlptim, LPTIM_FLAG_EXTTRIG);
 8004866:	605a      	str	r2, [r3, #4]
      hlptim->TriggerCallback(hlptim);
 8004868:	0020      	movs	r0, r4
 800486a:	6ca3      	ldr	r3, [r4, #72]	@ 0x48
 800486c:	4798      	blx	r3
  if (__HAL_LPTIM_GET_FLAG(hlptim, LPTIM_FLAG_CMPOK) != RESET)
 800486e:	6823      	ldr	r3, [r4, #0]
 8004870:	e7c6      	b.n	8004800 <HAL_LPTIM_IRQHandler+0x30>
      __HAL_LPTIM_CLEAR_FLAG(hlptim, LPTIM_FLAG_ARRM);
 8004872:	605a      	str	r2, [r3, #4]
      hlptim->AutoReloadMatchCallback(hlptim);
 8004874:	0020      	movs	r0, r4
 8004876:	6c63      	ldr	r3, [r4, #68]	@ 0x44
 8004878:	4798      	blx	r3
  if (__HAL_LPTIM_GET_FLAG(hlptim, LPTIM_FLAG_EXTTRIG) != RESET)
 800487a:	6823      	ldr	r3, [r4, #0]
 800487c:	e7b9      	b.n	80047f2 <HAL_LPTIM_IRQHandler+0x22>
      __HAL_LPTIM_CLEAR_FLAG(hlptim, LPTIM_FLAG_CMPM);
 800487e:	605a      	str	r2, [r3, #4]
      hlptim->CompareMatchCallback(hlptim);
 8004880:	6c03      	ldr	r3, [r0, #64]	@ 0x40
 8004882:	4798      	blx	r3
  if (__HAL_LPTIM_GET_FLAG(hlptim, LPTIM_FLAG_ARRM) != RESET)
 8004884:	6823      	ldr	r3, [r4, #0]
 8004886:	e7ad      	b.n	80047e4 <HAL_LPTIM_IRQHandler+0x14>

08004888 <HAL_LPTIM_RegisterCallback>:
{
 8004888:	0003      	movs	r3, r0
 800488a:	b530      	push	{r4, r5, lr}
  if (pCallback == NULL)
 800488c:	2a00      	cmp	r2, #0
 800488e:	d019      	beq.n	80048c4 <HAL_LPTIM_RegisterCallback+0x3c>
  if (hlptim->State == HAL_LPTIM_STATE_READY)
 8004890:	2536      	movs	r5, #54	@ 0x36
 8004892:	5d44      	ldrb	r4, [r0, r5]
 8004894:	b2e0      	uxtb	r0, r4
 8004896:	2c01      	cmp	r4, #1
 8004898:	d008      	beq.n	80048ac <HAL_LPTIM_RegisterCallback+0x24>
  else if (hlptim->State == HAL_LPTIM_STATE_RESET)
 800489a:	5d5c      	ldrb	r4, [r3, r5]
    return HAL_ERROR;
 800489c:	2001      	movs	r0, #1
  else if (hlptim->State == HAL_LPTIM_STATE_RESET)
 800489e:	2c00      	cmp	r4, #0
 80048a0:	d103      	bne.n	80048aa <HAL_LPTIM_RegisterCallback+0x22>
    switch (CallbackID)
 80048a2:	2900      	cmp	r1, #0
 80048a4:	d00b      	beq.n	80048be <HAL_LPTIM_RegisterCallback+0x36>
 80048a6:	2901      	cmp	r1, #1
 80048a8:	d006      	beq.n	80048b8 <HAL_LPTIM_RegisterCallback+0x30>
}
 80048aa:	bd30      	pop	{r4, r5, pc}
    switch (CallbackID)
 80048ac:	2908      	cmp	r1, #8
 80048ae:	d8fc      	bhi.n	80048aa <HAL_LPTIM_RegisterCallback+0x22>
 80048b0:	4810      	ldr	r0, [pc, #64]	@ (80048f4 <HAL_LPTIM_RegisterCallback+0x6c>)
 80048b2:	0089      	lsls	r1, r1, #2
 80048b4:	5841      	ldr	r1, [r0, r1]
 80048b6:	468f      	mov	pc, r1
  HAL_StatusTypeDef status = HAL_OK;
 80048b8:	2000      	movs	r0, #0
        hlptim->MspDeInitCallback = pCallback;
 80048ba:	63da      	str	r2, [r3, #60]	@ 0x3c
        break;
 80048bc:	e7f5      	b.n	80048aa <HAL_LPTIM_RegisterCallback+0x22>
  HAL_StatusTypeDef status = HAL_OK;
 80048be:	2000      	movs	r0, #0
        hlptim->MspInitCallback = pCallback;
 80048c0:	639a      	str	r2, [r3, #56]	@ 0x38
        break;
 80048c2:	e7f2      	b.n	80048aa <HAL_LPTIM_RegisterCallback+0x22>
    return HAL_ERROR;
 80048c4:	2001      	movs	r0, #1
 80048c6:	e7f0      	b.n	80048aa <HAL_LPTIM_RegisterCallback+0x22>
  HAL_StatusTypeDef status = HAL_OK;
 80048c8:	2000      	movs	r0, #0
        hlptim->AutoReloadMatchCallback = pCallback;
 80048ca:	645a      	str	r2, [r3, #68]	@ 0x44
        break;
 80048cc:	e7ed      	b.n	80048aa <HAL_LPTIM_RegisterCallback+0x22>
  HAL_StatusTypeDef status = HAL_OK;
 80048ce:	2000      	movs	r0, #0
        hlptim->TriggerCallback = pCallback;
 80048d0:	649a      	str	r2, [r3, #72]	@ 0x48
        break;
 80048d2:	e7ea      	b.n	80048aa <HAL_LPTIM_RegisterCallback+0x22>
  HAL_StatusTypeDef status = HAL_OK;
 80048d4:	2000      	movs	r0, #0
        hlptim->CompareWriteCallback = pCallback;
 80048d6:	64da      	str	r2, [r3, #76]	@ 0x4c
        break;
 80048d8:	e7e7      	b.n	80048aa <HAL_LPTIM_RegisterCallback+0x22>
  HAL_StatusTypeDef status = HAL_OK;
 80048da:	2000      	movs	r0, #0
        hlptim->AutoReloadWriteCallback = pCallback;
 80048dc:	651a      	str	r2, [r3, #80]	@ 0x50
        break;
 80048de:	e7e4      	b.n	80048aa <HAL_LPTIM_RegisterCallback+0x22>
  HAL_StatusTypeDef status = HAL_OK;
 80048e0:	2000      	movs	r0, #0
        hlptim->DirectionDownCallback = pCallback;
 80048e2:	659a      	str	r2, [r3, #88]	@ 0x58
        break;
 80048e4:	e7e1      	b.n	80048aa <HAL_LPTIM_RegisterCallback+0x22>
  HAL_StatusTypeDef status = HAL_OK;
 80048e6:	2000      	movs	r0, #0
        hlptim->CompareMatchCallback = pCallback;
 80048e8:	641a      	str	r2, [r3, #64]	@ 0x40
        break;
 80048ea:	e7de      	b.n	80048aa <HAL_LPTIM_RegisterCallback+0x22>
  HAL_StatusTypeDef status = HAL_OK;
 80048ec:	2000      	movs	r0, #0
        hlptim->DirectionUpCallback = pCallback;
 80048ee:	655a      	str	r2, [r3, #84]	@ 0x54
        break;
 80048f0:	e7db      	b.n	80048aa <HAL_LPTIM_RegisterCallback+0x22>
 80048f2:	46c0      	nop			@ (mov r8, r8)
 80048f4:	080084f8 	.word	0x080084f8

080048f8 <LPTIM_Disable>:
  *         Please check Errata Sheet ES0335 for more details under "MCU may remain
  *         stuck in LPTIM interrupt when entering Stop mode" section.
  * @retval None
  */
void LPTIM_Disable(LPTIM_HandleTypeDef *hlptim)
{
 80048f8:	b5f0      	push	{r4, r5, r6, r7, lr}
 80048fa:	4645      	mov	r5, r8
 80048fc:	46de      	mov	lr, fp
 80048fe:	4657      	mov	r7, sl
 8004900:	464e      	mov	r6, r9
 8004902:	b5e0      	push	{r5, r6, r7, lr}
 8004904:	0005      	movs	r5, r0
 8004906:	b083      	sub	sp, #12
  __ASM volatile ("MRS %0, primask" : "=r" (result) :: "memory");
 8004908:	f3ef 8310 	mrs	r3, PRIMASK
 800490c:	9301      	str	r3, [sp, #4]
  __ASM volatile ("MSR primask, %0" : : "r" (priMask) : "memory");
 800490e:	2301      	movs	r3, #1
 8004910:	f383 8810 	msr	PRIMASK, r3
  primask_bit = __get_PRIMASK();
  __set_PRIMASK(1) ;

  /*********** Save LPTIM Config ***********/
  /* Save LPTIM source clock */
  switch ((uint32_t)hlptim->Instance)
 8004914:	4b69      	ldr	r3, [pc, #420]	@ (8004abc <LPTIM_Disable+0x1c4>)
 8004916:	6804      	ldr	r4, [r0, #0]
 8004918:	429c      	cmp	r4, r3
 800491a:	d100      	bne.n	800491e <LPTIM_Disable+0x26>
 800491c:	e079      	b.n	8004a12 <LPTIM_Disable+0x11a>
 800491e:	4b68      	ldr	r3, [pc, #416]	@ (8004ac0 <LPTIM_Disable+0x1c8>)
 8004920:	429c      	cmp	r4, r3
 8004922:	d02e      	beq.n	8004982 <LPTIM_Disable+0x8a>
    default:
      break;
  }

  /* Save LPTIM configuration registers */
  tmpIER = hlptim->Instance->IER;
 8004924:	68a3      	ldr	r3, [r4, #8]
 8004926:	469a      	mov	sl, r3
  tmpCFGR = hlptim->Instance->CFGR;
 8004928:	68e3      	ldr	r3, [r4, #12]
 800492a:	4699      	mov	r9, r3
  tmpCMP = hlptim->Instance->CMP;
 800492c:	6963      	ldr	r3, [r4, #20]
  tmpARR = hlptim->Instance->ARR;
 800492e:	69a6      	ldr	r6, [r4, #24]
  tmpCFGR2 = hlptim->Instance->CFGR2;
 8004930:	6a62      	ldr	r2, [r4, #36]	@ 0x24
 8004932:	4690      	mov	r8, r2
    default:
      break;
  }

  /*********** Restore LPTIM Config ***********/
  if ((tmpCMP != 0UL) || (tmpARR != 0UL))
 8004934:	001a      	movs	r2, r3
 8004936:	4332      	orrs	r2, r6
 8004938:	d00f      	beq.n	800495a <LPTIM_Disable+0x62>
#endif /* LPTIM2 */
      default:
        break;
    }

    if (tmpCMP != 0UL)
 800493a:	2b00      	cmp	r3, #0
 800493c:	d000      	beq.n	8004940 <LPTIM_Disable+0x48>
 800493e:	e093      	b.n	8004a68 <LPTIM_Disable+0x170>
        hlptim->State = HAL_LPTIM_STATE_TIMEOUT;
      }
      __HAL_LPTIM_CLEAR_FLAG(hlptim, LPTIM_FLAG_CMPOK);
    }

    if (tmpARR != 0UL)
 8004940:	001f      	movs	r7, r3
 8004942:	2e00      	cmp	r6, #0
 8004944:	d000      	beq.n	8004948 <LPTIM_Disable+0x50>
 8004946:	e0b6      	b.n	8004ab6 <LPTIM_Disable+0x1be>

      __HAL_LPTIM_CLEAR_FLAG(hlptim, LPTIM_FLAG_ARROK);
    }

    /* Restore LPTIM source kernel clock */
    switch ((uint32_t)hlptim->Instance)
 8004948:	4b5d      	ldr	r3, [pc, #372]	@ (8004ac0 <LPTIM_Disable+0x1c8>)
 800494a:	429c      	cmp	r4, r3
 800494c:	d105      	bne.n	800495a <LPTIM_Disable+0x62>
      case LPTIM1_BASE:
        __HAL_RCC_LPTIM1_CONFIG(tmpclksource);
        break;
#if defined(LPTIM2)
      case LPTIM2_BASE:
        __HAL_RCC_LPTIM2_CONFIG(tmpclksource);
 800494e:	4a5d      	ldr	r2, [pc, #372]	@ (8004ac4 <LPTIM_Disable+0x1cc>)
 8004950:	495d      	ldr	r1, [pc, #372]	@ (8004ac8 <LPTIM_Disable+0x1d0>)
 8004952:	6d53      	ldr	r3, [r2, #84]	@ 0x54
 8004954:	400b      	ands	r3, r1
 8004956:	433b      	orrs	r3, r7
 8004958:	6553      	str	r3, [r2, #84]	@ 0x54
        break;
    }
  }

  /* Restore configuration registers (LPTIM should be disabled first) */
  hlptim->Instance->CR &= ~(LPTIM_CR_ENABLE);
 800495a:	2201      	movs	r2, #1
 800495c:	6923      	ldr	r3, [r4, #16]
 800495e:	4393      	bics	r3, r2
 8004960:	6123      	str	r3, [r4, #16]
  hlptim->Instance->IER = tmpIER;
 8004962:	4653      	mov	r3, sl
 8004964:	60a3      	str	r3, [r4, #8]
  hlptim->Instance->CFGR = tmpCFGR;
 8004966:	464b      	mov	r3, r9
 8004968:	60e3      	str	r3, [r4, #12]
  hlptim->Instance->CFGR2 = tmpCFGR2;
 800496a:	4643      	mov	r3, r8
 800496c:	6263      	str	r3, [r4, #36]	@ 0x24
 800496e:	9b01      	ldr	r3, [sp, #4]
 8004970:	f383 8810 	msr	PRIMASK, r3

  /* Exit critical section: restore previous priority mask */
  __set_PRIMASK(primask_bit);
}
 8004974:	b003      	add	sp, #12
 8004976:	bcf0      	pop	{r4, r5, r6, r7}
 8004978:	46bb      	mov	fp, r7
 800497a:	46b2      	mov	sl, r6
 800497c:	46a9      	mov	r9, r5
 800497e:	46a0      	mov	r8, r4
 8004980:	bdf0      	pop	{r4, r5, r6, r7, pc}
      tmpclksource = __HAL_RCC_GET_LPTIM2_SOURCE();
 8004982:	4a50      	ldr	r2, [pc, #320]	@ (8004ac4 <LPTIM_Disable+0x1cc>)
 8004984:	6d50      	ldr	r0, [r2, #84]	@ 0x54
  tmpIER = hlptim->Instance->IER;
 8004986:	68a3      	ldr	r3, [r4, #8]
 8004988:	469a      	mov	sl, r3
  tmpCFGR = hlptim->Instance->CFGR;
 800498a:	68e3      	ldr	r3, [r4, #12]
 800498c:	4699      	mov	r9, r3
  tmpCMP = hlptim->Instance->CMP;
 800498e:	6963      	ldr	r3, [r4, #20]
  tmpARR = hlptim->Instance->ARR;
 8004990:	69a6      	ldr	r6, [r4, #24]
  tmpCFGR2 = hlptim->Instance->CFGR2;
 8004992:	6a61      	ldr	r1, [r4, #36]	@ 0x24
 8004994:	4688      	mov	r8, r1
      __HAL_RCC_LPTIM2_FORCE_RESET();
 8004996:	6ad1      	ldr	r1, [r2, #44]	@ 0x2c
 8004998:	468c      	mov	ip, r1
 800499a:	2180      	movs	r1, #128	@ 0x80
 800499c:	4667      	mov	r7, ip
 800499e:	05c9      	lsls	r1, r1, #23
 80049a0:	4339      	orrs	r1, r7
 80049a2:	62d1      	str	r1, [r2, #44]	@ 0x2c
      __HAL_RCC_LPTIM2_RELEASE_RESET();
 80049a4:	6ad1      	ldr	r1, [r2, #44]	@ 0x2c
 80049a6:	4f49      	ldr	r7, [pc, #292]	@ (8004acc <LPTIM_Disable+0x1d4>)
 80049a8:	4039      	ands	r1, r7
 80049aa:	62d1      	str	r1, [r2, #44]	@ 0x2c
  if ((tmpCMP != 0UL) || (tmpARR != 0UL))
 80049ac:	0019      	movs	r1, r3
 80049ae:	4331      	orrs	r1, r6
 80049b0:	d0d3      	beq.n	800495a <LPTIM_Disable+0x62>
      tmpclksource = __HAL_RCC_GET_LPTIM2_SOURCE();
 80049b2:	21c0      	movs	r1, #192	@ 0xc0
 80049b4:	0389      	lsls	r1, r1, #14
 80049b6:	4008      	ands	r0, r1
 80049b8:	0007      	movs	r7, r0
        __HAL_RCC_LPTIM2_CONFIG(RCC_LPTIM2CLKSOURCE_PCLK1);
 80049ba:	6d51      	ldr	r1, [r2, #84]	@ 0x54
 80049bc:	4842      	ldr	r0, [pc, #264]	@ (8004ac8 <LPTIM_Disable+0x1d0>)
 80049be:	4001      	ands	r1, r0
 80049c0:	6551      	str	r1, [r2, #84]	@ 0x54
    if (tmpCMP != 0UL)
 80049c2:	2b00      	cmp	r3, #0
 80049c4:	d152      	bne.n	8004a6c <LPTIM_Disable+0x174>
    if (tmpARR != 0UL)
 80049c6:	2e00      	cmp	r6, #0
 80049c8:	d0c1      	beq.n	800494e <LPTIM_Disable+0x56>
 80049ca:	4b41      	ldr	r3, [pc, #260]	@ (8004ad0 <LPTIM_Disable+0x1d8>)
 80049cc:	469b      	mov	fp, r3
      hlptim->Instance->CR |= LPTIM_CR_ENABLE;
 80049ce:	2201      	movs	r2, #1
 80049d0:	6923      	ldr	r3, [r4, #16]
  uint32_t count = TIMEOUT * (SystemCoreClock / 20UL / 1000UL);
 80049d2:	4940      	ldr	r1, [pc, #256]	@ (8004ad4 <LPTIM_Disable+0x1dc>)
      hlptim->Instance->CR |= LPTIM_CR_ENABLE;
 80049d4:	4313      	orrs	r3, r2
 80049d6:	6123      	str	r3, [r4, #16]
  uint32_t count = TIMEOUT * (SystemCoreClock / 20UL / 1000UL);
 80049d8:	465b      	mov	r3, fp
      hlptim->Instance->ARR = tmpARR;
 80049da:	61a6      	str	r6, [r4, #24]
  uint32_t count = TIMEOUT * (SystemCoreClock / 20UL / 1000UL);
 80049dc:	6818      	ldr	r0, [r3, #0]
 80049de:	f7fb fb91 	bl	8000104 <__udivsi3>
  } while ((!(__HAL_LPTIM_GET_FLAG((hlptim), (flag)))) && (count != 0UL));
 80049e2:	2110      	movs	r1, #16
  uint32_t count = TIMEOUT * (SystemCoreClock / 20UL / 1000UL);
 80049e4:	0143      	lsls	r3, r0, #5
 80049e6:	1a1b      	subs	r3, r3, r0
 80049e8:	009b      	lsls	r3, r3, #2
 80049ea:	181b      	adds	r3, r3, r0
 80049ec:	00db      	lsls	r3, r3, #3
    count--;
 80049ee:	3b01      	subs	r3, #1
    if (count == 0UL)
 80049f0:	2b00      	cmp	r3, #0
 80049f2:	d034      	beq.n	8004a5e <LPTIM_Disable+0x166>
  } while ((!(__HAL_LPTIM_GET_FLAG((hlptim), (flag)))) && (count != 0UL));
 80049f4:	6822      	ldr	r2, [r4, #0]
 80049f6:	4211      	tst	r1, r2
 80049f8:	d0f9      	beq.n	80049ee <LPTIM_Disable+0xf6>
      __HAL_LPTIM_CLEAR_FLAG(hlptim, LPTIM_FLAG_ARROK);
 80049fa:	2310      	movs	r3, #16
 80049fc:	6063      	str	r3, [r4, #4]
    switch ((uint32_t)hlptim->Instance)
 80049fe:	4b2f      	ldr	r3, [pc, #188]	@ (8004abc <LPTIM_Disable+0x1c4>)
 8004a00:	429c      	cmp	r4, r3
 8004a02:	d1a1      	bne.n	8004948 <LPTIM_Disable+0x50>
        __HAL_RCC_LPTIM1_CONFIG(tmpclksource);
 8004a04:	4a2f      	ldr	r2, [pc, #188]	@ (8004ac4 <LPTIM_Disable+0x1cc>)
 8004a06:	4934      	ldr	r1, [pc, #208]	@ (8004ad8 <LPTIM_Disable+0x1e0>)
 8004a08:	6d53      	ldr	r3, [r2, #84]	@ 0x54
 8004a0a:	400b      	ands	r3, r1
 8004a0c:	433b      	orrs	r3, r7
 8004a0e:	6553      	str	r3, [r2, #84]	@ 0x54
        break;
 8004a10:	e7a3      	b.n	800495a <LPTIM_Disable+0x62>
      tmpclksource = __HAL_RCC_GET_LPTIM1_SOURCE();
 8004a12:	4a2c      	ldr	r2, [pc, #176]	@ (8004ac4 <LPTIM_Disable+0x1cc>)
 8004a14:	6d50      	ldr	r0, [r2, #84]	@ 0x54
  tmpIER = hlptim->Instance->IER;
 8004a16:	68a3      	ldr	r3, [r4, #8]
 8004a18:	469a      	mov	sl, r3
  tmpCFGR = hlptim->Instance->CFGR;
 8004a1a:	68e3      	ldr	r3, [r4, #12]
 8004a1c:	4699      	mov	r9, r3
  tmpCMP = hlptim->Instance->CMP;
 8004a1e:	6963      	ldr	r3, [r4, #20]
  tmpARR = hlptim->Instance->ARR;
 8004a20:	69a6      	ldr	r6, [r4, #24]
  tmpCFGR2 = hlptim->Instance->CFGR2;
 8004a22:	6a61      	ldr	r1, [r4, #36]	@ 0x24
 8004a24:	4688      	mov	r8, r1
      __HAL_RCC_LPTIM1_FORCE_RESET();
 8004a26:	6ad1      	ldr	r1, [r2, #44]	@ 0x2c
 8004a28:	468c      	mov	ip, r1
 8004a2a:	2180      	movs	r1, #128	@ 0x80
 8004a2c:	4667      	mov	r7, ip
 8004a2e:	0609      	lsls	r1, r1, #24
 8004a30:	4339      	orrs	r1, r7
 8004a32:	62d1      	str	r1, [r2, #44]	@ 0x2c
      __HAL_RCC_LPTIM1_RELEASE_RESET();
 8004a34:	6ad1      	ldr	r1, [r2, #44]	@ 0x2c
 8004a36:	0049      	lsls	r1, r1, #1
 8004a38:	0849      	lsrs	r1, r1, #1
 8004a3a:	62d1      	str	r1, [r2, #44]	@ 0x2c
  if ((tmpCMP != 0UL) || (tmpARR != 0UL))
 8004a3c:	0019      	movs	r1, r3
 8004a3e:	4331      	orrs	r1, r6
 8004a40:	d100      	bne.n	8004a44 <LPTIM_Disable+0x14c>
 8004a42:	e78a      	b.n	800495a <LPTIM_Disable+0x62>
      tmpclksource = __HAL_RCC_GET_LPTIM1_SOURCE();
 8004a44:	21c0      	movs	r1, #192	@ 0xc0
 8004a46:	0309      	lsls	r1, r1, #12
 8004a48:	4008      	ands	r0, r1
 8004a4a:	0007      	movs	r7, r0
        __HAL_RCC_LPTIM1_CONFIG(RCC_LPTIM1CLKSOURCE_PCLK1);
 8004a4c:	6d51      	ldr	r1, [r2, #84]	@ 0x54
 8004a4e:	4822      	ldr	r0, [pc, #136]	@ (8004ad8 <LPTIM_Disable+0x1e0>)
 8004a50:	4001      	ands	r1, r0
 8004a52:	6551      	str	r1, [r2, #84]	@ 0x54
    if (tmpCMP != 0UL)
 8004a54:	2b00      	cmp	r3, #0
 8004a56:	d109      	bne.n	8004a6c <LPTIM_Disable+0x174>
    if (tmpARR != 0UL)
 8004a58:	2e00      	cmp	r6, #0
 8004a5a:	d0d3      	beq.n	8004a04 <LPTIM_Disable+0x10c>
 8004a5c:	e7b5      	b.n	80049ca <LPTIM_Disable+0xd2>
  } while ((!(__HAL_LPTIM_GET_FLAG((hlptim), (flag)))) && (count != 0UL));
 8004a5e:	6823      	ldr	r3, [r4, #0]
        hlptim->State = HAL_LPTIM_STATE_TIMEOUT;
 8004a60:	2203      	movs	r2, #3
 8004a62:	2336      	movs	r3, #54	@ 0x36
 8004a64:	54ea      	strb	r2, [r5, r3]
 8004a66:	e7c8      	b.n	80049fa <LPTIM_Disable+0x102>
 8004a68:	2200      	movs	r2, #0
 8004a6a:	0017      	movs	r7, r2
      hlptim->Instance->CR |= LPTIM_CR_ENABLE;
 8004a6c:	2101      	movs	r1, #1
 8004a6e:	6922      	ldr	r2, [r4, #16]
 8004a70:	430a      	orrs	r2, r1
 8004a72:	6122      	str	r2, [r4, #16]
      hlptim->Instance->CMP = tmpCMP;
 8004a74:	6163      	str	r3, [r4, #20]
  uint32_t count = TIMEOUT * (SystemCoreClock / 20UL / 1000UL);
 8004a76:	4b16      	ldr	r3, [pc, #88]	@ (8004ad0 <LPTIM_Disable+0x1d8>)
 8004a78:	4916      	ldr	r1, [pc, #88]	@ (8004ad4 <LPTIM_Disable+0x1dc>)
 8004a7a:	6818      	ldr	r0, [r3, #0]
 8004a7c:	469b      	mov	fp, r3
 8004a7e:	f7fb fb41 	bl	8000104 <__udivsi3>
  } while ((!(__HAL_LPTIM_GET_FLAG((hlptim), (flag)))) && (count != 0UL));
 8004a82:	2108      	movs	r1, #8
  uint32_t count = TIMEOUT * (SystemCoreClock / 20UL / 1000UL);
 8004a84:	0143      	lsls	r3, r0, #5
 8004a86:	1a1b      	subs	r3, r3, r0
 8004a88:	009b      	lsls	r3, r3, #2
 8004a8a:	181b      	adds	r3, r3, r0
 8004a8c:	00db      	lsls	r3, r3, #3
    count--;
 8004a8e:	3b01      	subs	r3, #1
    if (count == 0UL)
 8004a90:	2b00      	cmp	r3, #0
 8004a92:	d007      	beq.n	8004aa4 <LPTIM_Disable+0x1ac>
  } while ((!(__HAL_LPTIM_GET_FLAG((hlptim), (flag)))) && (count != 0UL));
 8004a94:	6822      	ldr	r2, [r4, #0]
 8004a96:	4211      	tst	r1, r2
 8004a98:	d0f9      	beq.n	8004a8e <LPTIM_Disable+0x196>
      __HAL_LPTIM_CLEAR_FLAG(hlptim, LPTIM_FLAG_CMPOK);
 8004a9a:	2308      	movs	r3, #8
 8004a9c:	6063      	str	r3, [r4, #4]
    if (tmpARR != 0UL)
 8004a9e:	2e00      	cmp	r6, #0
 8004aa0:	d0ad      	beq.n	80049fe <LPTIM_Disable+0x106>
 8004aa2:	e794      	b.n	80049ce <LPTIM_Disable+0xd6>
  } while ((!(__HAL_LPTIM_GET_FLAG((hlptim), (flag)))) && (count != 0UL));
 8004aa4:	6823      	ldr	r3, [r4, #0]
        hlptim->State = HAL_LPTIM_STATE_TIMEOUT;
 8004aa6:	2203      	movs	r2, #3
 8004aa8:	2336      	movs	r3, #54	@ 0x36
 8004aaa:	54ea      	strb	r2, [r5, r3]
      __HAL_LPTIM_CLEAR_FLAG(hlptim, LPTIM_FLAG_CMPOK);
 8004aac:	2308      	movs	r3, #8
 8004aae:	6063      	str	r3, [r4, #4]
    if (tmpARR != 0UL)
 8004ab0:	2e00      	cmp	r6, #0
 8004ab2:	d0a4      	beq.n	80049fe <LPTIM_Disable+0x106>
 8004ab4:	e78b      	b.n	80049ce <LPTIM_Disable+0xd6>
 8004ab6:	2300      	movs	r3, #0
 8004ab8:	001f      	movs	r7, r3
 8004aba:	e786      	b.n	80049ca <LPTIM_Disable+0xd2>
 8004abc:	40007c00 	.word	0x40007c00
 8004ac0:	40009400 	.word	0x40009400
 8004ac4:	40021000 	.word	0x40021000
 8004ac8:	ffcfffff 	.word	0xffcfffff
 8004acc:	bfffffff 	.word	0xbfffffff
 8004ad0:	20000440 	.word	0x20000440
 8004ad4:	00004e20 	.word	0x00004e20
 8004ad8:	fff3ffff 	.word	0xfff3ffff

08004adc <HAL_LPTIM_SetOnce_Start_IT>:
{
 8004adc:	b570      	push	{r4, r5, r6, lr}
  hlptim->State = HAL_LPTIM_STATE_BUSY;
 8004ade:	2336      	movs	r3, #54	@ 0x36
{
 8004ae0:	0016      	movs	r6, r2
  hlptim->State = HAL_LPTIM_STATE_BUSY;
 8004ae2:	2202      	movs	r2, #2
 8004ae4:	54c2      	strb	r2, [r0, r3]
  hlptim->Instance->CFGR |= LPTIM_CFGR_WAVE;
 8004ae6:	2380      	movs	r3, #128	@ 0x80
 8004ae8:	6804      	ldr	r4, [r0, #0]
 8004aea:	035b      	lsls	r3, r3, #13
 8004aec:	68e2      	ldr	r2, [r4, #12]
{
 8004aee:	0005      	movs	r5, r0
  hlptim->Instance->CFGR |= LPTIM_CFGR_WAVE;
 8004af0:	4313      	orrs	r3, r2
  __HAL_LPTIM_ENABLE(hlptim);
 8004af2:	2201      	movs	r2, #1
  hlptim->Instance->CFGR |= LPTIM_CFGR_WAVE;
 8004af4:	60e3      	str	r3, [r4, #12]
  __HAL_LPTIM_ENABLE(hlptim);
 8004af6:	6923      	ldr	r3, [r4, #16]
 8004af8:	4313      	orrs	r3, r2
 8004afa:	6123      	str	r3, [r4, #16]
  __HAL_LPTIM_CLEAR_FLAG(hlptim, LPTIM_FLAG_ARROK);
 8004afc:	2310      	movs	r3, #16
 8004afe:	6063      	str	r3, [r4, #4]
  uint32_t count = TIMEOUT * (SystemCoreClock / 20UL / 1000UL);
 8004b00:	4b25      	ldr	r3, [pc, #148]	@ (8004b98 <HAL_LPTIM_SetOnce_Start_IT+0xbc>)
  __HAL_LPTIM_AUTORELOAD_SET(hlptim, Period);
 8004b02:	61a1      	str	r1, [r4, #24]
  uint32_t count = TIMEOUT * (SystemCoreClock / 20UL / 1000UL);
 8004b04:	6818      	ldr	r0, [r3, #0]
 8004b06:	4925      	ldr	r1, [pc, #148]	@ (8004b9c <HAL_LPTIM_SetOnce_Start_IT+0xc0>)
 8004b08:	f7fb fafc 	bl	8000104 <__udivsi3>
 8004b0c:	0143      	lsls	r3, r0, #5
 8004b0e:	1a1b      	subs	r3, r3, r0
 8004b10:	009b      	lsls	r3, r3, #2
 8004b12:	181b      	adds	r3, r3, r0
 8004b14:	00db      	lsls	r3, r3, #3
 8004b16:	001a      	movs	r2, r3
  } while ((!(__HAL_LPTIM_GET_FLAG((hlptim), (flag)))) && (count != 0UL));
 8004b18:	2010      	movs	r0, #16
    count--;
 8004b1a:	3a01      	subs	r2, #1
    if (count == 0UL)
 8004b1c:	2a00      	cmp	r2, #0
 8004b1e:	d037      	beq.n	8004b90 <HAL_LPTIM_SetOnce_Start_IT+0xb4>
  } while ((!(__HAL_LPTIM_GET_FLAG((hlptim), (flag)))) && (count != 0UL));
 8004b20:	6821      	ldr	r1, [r4, #0]
 8004b22:	4208      	tst	r0, r1
 8004b24:	d0f9      	beq.n	8004b1a <HAL_LPTIM_SetOnce_Start_IT+0x3e>
  __HAL_LPTIM_CLEAR_FLAG(hlptim, LPTIM_FLAG_CMPOK);
 8004b26:	2208      	movs	r2, #8
 8004b28:	6062      	str	r2, [r4, #4]
  __HAL_LPTIM_COMPARE_SET(hlptim, Pulse);
 8004b2a:	6166      	str	r6, [r4, #20]
  } while ((!(__HAL_LPTIM_GET_FLAG((hlptim), (flag)))) && (count != 0UL));
 8004b2c:	2608      	movs	r6, #8
    count--;
 8004b2e:	3b01      	subs	r3, #1
    if (count == 0UL)
 8004b30:	2b00      	cmp	r3, #0
 8004b32:	d02d      	beq.n	8004b90 <HAL_LPTIM_SetOnce_Start_IT+0xb4>
  } while ((!(__HAL_LPTIM_GET_FLAG((hlptim), (flag)))) && (count != 0UL));
 8004b34:	6822      	ldr	r2, [r4, #0]
 8004b36:	4216      	tst	r6, r2
 8004b38:	d0f9      	beq.n	8004b2e <HAL_LPTIM_SetOnce_Start_IT+0x52>
  __HAL_LPTIM_DISABLE(hlptim);
 8004b3a:	0028      	movs	r0, r5
 8004b3c:	f7ff fedc 	bl	80048f8 <LPTIM_Disable>
  return hlptim->State;
 8004b40:	2336      	movs	r3, #54	@ 0x36
 8004b42:	5ceb      	ldrb	r3, [r5, r3]
  if (HAL_LPTIM_GetState(hlptim) == HAL_LPTIM_STATE_TIMEOUT)
 8004b44:	2b03      	cmp	r3, #3
 8004b46:	d024      	beq.n	8004b92 <HAL_LPTIM_SetOnce_Start_IT+0xb6>
  __HAL_LPTIM_ENABLE_IT(hlptim, LPTIM_IT_ARROK);
 8004b48:	2110      	movs	r1, #16
 8004b4a:	682b      	ldr	r3, [r5, #0]
 8004b4c:	689a      	ldr	r2, [r3, #8]
 8004b4e:	430a      	orrs	r2, r1
 8004b50:	609a      	str	r2, [r3, #8]
  __HAL_LPTIM_ENABLE_IT(hlptim, LPTIM_IT_CMPOK);
 8004b52:	689a      	ldr	r2, [r3, #8]
  __HAL_LPTIM_ENABLE_IT(hlptim, LPTIM_IT_ARRM);
 8004b54:	390e      	subs	r1, #14
  __HAL_LPTIM_ENABLE_IT(hlptim, LPTIM_IT_CMPOK);
 8004b56:	4332      	orrs	r2, r6
 8004b58:	609a      	str	r2, [r3, #8]
  __HAL_LPTIM_ENABLE_IT(hlptim, LPTIM_IT_ARRM);
 8004b5a:	689a      	ldr	r2, [r3, #8]
 8004b5c:	430a      	orrs	r2, r1
 8004b5e:	609a      	str	r2, [r3, #8]
  __HAL_LPTIM_ENABLE_IT(hlptim, LPTIM_IT_CMPM);
 8004b60:	689a      	ldr	r2, [r3, #8]
 8004b62:	3901      	subs	r1, #1
 8004b64:	430a      	orrs	r2, r1
 8004b66:	609a      	str	r2, [r3, #8]
  if ((hlptim->Init.Trigger.Source) != LPTIM_TRIGSOURCE_SOFTWARE)
 8004b68:	6969      	ldr	r1, [r5, #20]
 8004b6a:	4a0d      	ldr	r2, [pc, #52]	@ (8004ba0 <HAL_LPTIM_SetOnce_Start_IT+0xc4>)
 8004b6c:	4291      	cmp	r1, r2
 8004b6e:	d003      	beq.n	8004b78 <HAL_LPTIM_SetOnce_Start_IT+0x9c>
    __HAL_LPTIM_ENABLE_IT(hlptim, LPTIM_IT_EXTTRIG);
 8004b70:	2104      	movs	r1, #4
 8004b72:	689a      	ldr	r2, [r3, #8]
 8004b74:	430a      	orrs	r2, r1
 8004b76:	609a      	str	r2, [r3, #8]
  __HAL_LPTIM_ENABLE(hlptim);
 8004b78:	2101      	movs	r1, #1
  __HAL_LPTIM_START_SINGLE(hlptim);
 8004b7a:	2002      	movs	r0, #2
  __HAL_LPTIM_ENABLE(hlptim);
 8004b7c:	691a      	ldr	r2, [r3, #16]
 8004b7e:	430a      	orrs	r2, r1
 8004b80:	611a      	str	r2, [r3, #16]
  __HAL_LPTIM_START_SINGLE(hlptim);
 8004b82:	691a      	ldr	r2, [r3, #16]
 8004b84:	4302      	orrs	r2, r0
 8004b86:	611a      	str	r2, [r3, #16]
  hlptim->State = HAL_LPTIM_STATE_READY;
 8004b88:	2336      	movs	r3, #54	@ 0x36
  return HAL_OK;
 8004b8a:	2000      	movs	r0, #0
  hlptim->State = HAL_LPTIM_STATE_READY;
 8004b8c:	54e9      	strb	r1, [r5, r3]
}
 8004b8e:	bd70      	pop	{r4, r5, r6, pc}
  } while ((!(__HAL_LPTIM_GET_FLAG((hlptim), (flag)))) && (count != 0UL));
 8004b90:	6823      	ldr	r3, [r4, #0]
    return HAL_TIMEOUT;
 8004b92:	2003      	movs	r0, #3
 8004b94:	e7fb      	b.n	8004b8e <HAL_LPTIM_SetOnce_Start_IT+0xb2>
 8004b96:	46c0      	nop			@ (mov r8, r8)
 8004b98:	20000440 	.word	0x20000440
 8004b9c:	00004e20 	.word	0x00004e20
 8004ba0:	0000ffff 	.word	0x0000ffff

08004ba4 <HAL_PWREx_ControlVoltageScaling>:
  *        cleared before returning the status. If the flag is not cleared within
  *        6 microseconds, HAL_TIMEOUT status is reported.
  * @retval HAL Status
  */
HAL_StatusTypeDef HAL_PWREx_ControlVoltageScaling(uint32_t VoltageScaling)
{
 8004ba4:	b570      	push	{r4, r5, r6, lr}
  uint32_t wait_loop_index;

  assert_param(IS_PWR_VOLTAGE_SCALING_RANGE(VoltageScaling));

  /* Modify voltage scaling range */
  MODIFY_REG(PWR->CR1, PWR_CR1_VOS, VoltageScaling);
 8004ba6:	4c13      	ldr	r4, [pc, #76]	@ (8004bf4 <HAL_PWREx_ControlVoltageScaling+0x50>)
 8004ba8:	4a13      	ldr	r2, [pc, #76]	@ (8004bf8 <HAL_PWREx_ControlVoltageScaling+0x54>)
 8004baa:	6823      	ldr	r3, [r4, #0]
        return HAL_TIMEOUT;
      }
    }
  }

  return HAL_OK;
 8004bac:	2500      	movs	r5, #0
  MODIFY_REG(PWR->CR1, PWR_CR1_VOS, VoltageScaling);
 8004bae:	4013      	ands	r3, r2
 8004bb0:	4303      	orrs	r3, r0
 8004bb2:	6023      	str	r3, [r4, #0]
  if (VoltageScaling == PWR_REGULATOR_VOLTAGE_SCALE1)
 8004bb4:	2380      	movs	r3, #128	@ 0x80
 8004bb6:	009b      	lsls	r3, r3, #2
 8004bb8:	4298      	cmp	r0, r3
 8004bba:	d001      	beq.n	8004bc0 <HAL_PWREx_ControlVoltageScaling+0x1c>
}
 8004bbc:	0028      	movs	r0, r5
 8004bbe:	bd70      	pop	{r4, r5, r6, pc}
    wait_loop_index = ((PWR_VOSF_SETTING_DELAY_6_US * SystemCoreClock) / 1000000U) + 1U;
 8004bc0:	4b0e      	ldr	r3, [pc, #56]	@ (8004bfc <HAL_PWREx_ControlVoltageScaling+0x58>)
 8004bc2:	490f      	ldr	r1, [pc, #60]	@ (8004c00 <HAL_PWREx_ControlVoltageScaling+0x5c>)
 8004bc4:	681b      	ldr	r3, [r3, #0]
 8004bc6:	0058      	lsls	r0, r3, #1
 8004bc8:	18c0      	adds	r0, r0, r3
 8004bca:	0040      	lsls	r0, r0, #1
 8004bcc:	f7fb fa9a 	bl	8000104 <__udivsi3>
    while (HAL_IS_BIT_SET(PWR->SR2, PWR_SR2_VOSF))
 8004bd0:	2280      	movs	r2, #128	@ 0x80
 8004bd2:	6963      	ldr	r3, [r4, #20]
 8004bd4:	00d2      	lsls	r2, r2, #3
    wait_loop_index = ((PWR_VOSF_SETTING_DELAY_6_US * SystemCoreClock) / 1000000U) + 1U;
 8004bd6:	3001      	adds	r0, #1
    while (HAL_IS_BIT_SET(PWR->SR2, PWR_SR2_VOSF))
 8004bd8:	4213      	tst	r3, r2
 8004bda:	d102      	bne.n	8004be2 <HAL_PWREx_ControlVoltageScaling+0x3e>
 8004bdc:	e7ee      	b.n	8004bbc <HAL_PWREx_ControlVoltageScaling+0x18>
      if (wait_loop_index != 0U)
 8004bde:	2800      	cmp	r0, #0
 8004be0:	d005      	beq.n	8004bee <HAL_PWREx_ControlVoltageScaling+0x4a>
    while (HAL_IS_BIT_SET(PWR->SR2, PWR_SR2_VOSF))
 8004be2:	6963      	ldr	r3, [r4, #20]
        wait_loop_index--;
 8004be4:	3801      	subs	r0, #1
    while (HAL_IS_BIT_SET(PWR->SR2, PWR_SR2_VOSF))
 8004be6:	4213      	tst	r3, r2
 8004be8:	d1f9      	bne.n	8004bde <HAL_PWREx_ControlVoltageScaling+0x3a>
  return HAL_OK;
 8004bea:	2500      	movs	r5, #0
 8004bec:	e7e6      	b.n	8004bbc <HAL_PWREx_ControlVoltageScaling+0x18>
        return HAL_TIMEOUT;
 8004bee:	2503      	movs	r5, #3
 8004bf0:	e7e4      	b.n	8004bbc <HAL_PWREx_ControlVoltageScaling+0x18>
 8004bf2:	46c0      	nop			@ (mov r8, r8)
 8004bf4:	40007000 	.word	0x40007000
 8004bf8:	fffff9ff 	.word	0xfffff9ff
 8004bfc:	20000440 	.word	0x20000440
 8004c00:	000f4240 	.word	0x000f4240

08004c04 <HAL_RCC_OscConfig>:
  *         supported by this function. User should request a transition to LSE Off
  *         first and then to LSE On or LSE Bypass.
  * @retval HAL status
  */
HAL_StatusTypeDef HAL_RCC_OscConfig(RCC_OscInitTypeDef  *RCC_OscInitStruct)
{
 8004c04:	b5f0      	push	{r4, r5, r6, r7, lr}
 8004c06:	46ce      	mov	lr, r9
 8004c08:	4647      	mov	r7, r8
 8004c0a:	b580      	push	{r7, lr}
 8004c0c:	0004      	movs	r4, r0
 8004c0e:	b083      	sub	sp, #12
  uint32_t tickstart;
  uint32_t temp_sysclksrc;
  uint32_t temp_pllckcfg;

  /* Check Null pointer */
  if (RCC_OscInitStruct == NULL)
 8004c10:	2800      	cmp	r0, #0
 8004c12:	d027      	beq.n	8004c64 <HAL_RCC_OscConfig+0x60>

  /* Check the parameters */
  assert_param(IS_RCC_OSCILLATORTYPE(RCC_OscInitStruct->OscillatorType));

  /*------------------------------- HSE Configuration ------------------------*/
  if (((RCC_OscInitStruct->OscillatorType) & RCC_OSCILLATORTYPE_HSE) == RCC_OSCILLATORTYPE_HSE)
 8004c14:	6803      	ldr	r3, [r0, #0]
 8004c16:	07da      	lsls	r2, r3, #31
 8004c18:	d511      	bpl.n	8004c3e <HAL_RCC_OscConfig+0x3a>
  {
    /* Check the parameters */
    assert_param(IS_RCC_HSE(RCC_OscInitStruct->HSEState));

    temp_sysclksrc = __HAL_RCC_GET_SYSCLK_SOURCE();
 8004c1a:	2238      	movs	r2, #56	@ 0x38
 8004c1c:	49c0      	ldr	r1, [pc, #768]	@ (8004f20 <HAL_RCC_OscConfig+0x31c>)
 8004c1e:	6888      	ldr	r0, [r1, #8]
    temp_pllckcfg = __HAL_RCC_GET_PLL_OSCSOURCE();
 8004c20:	68c9      	ldr	r1, [r1, #12]
    temp_sysclksrc = __HAL_RCC_GET_SYSCLK_SOURCE();
 8004c22:	4002      	ands	r2, r0

    /* When the HSE is used as system clock or clock source for PLL in these cases it is not allowed to be disabled */
    if (((temp_sysclksrc == RCC_SYSCLKSOURCE_STATUS_PLLCLK) && (temp_pllckcfg == RCC_PLLSOURCE_HSE))
 8004c24:	2a10      	cmp	r2, #16
 8004c26:	d100      	bne.n	8004c2a <HAL_RCC_OscConfig+0x26>
 8004c28:	e0cc      	b.n	8004dc4 <HAL_RCC_OscConfig+0x1c0>
        || (temp_sysclksrc == RCC_SYSCLKSOURCE_STATUS_HSE))
 8004c2a:	2a08      	cmp	r2, #8
 8004c2c:	d000      	beq.n	8004c30 <HAL_RCC_OscConfig+0x2c>
 8004c2e:	e0cd      	b.n	8004dcc <HAL_RCC_OscConfig+0x1c8>
    {
      if ((READ_BIT(RCC->CR, RCC_CR_HSERDY) != 0U) && (RCC_OscInitStruct->HSEState == RCC_HSE_OFF))
 8004c30:	4abb      	ldr	r2, [pc, #748]	@ (8004f20 <HAL_RCC_OscConfig+0x31c>)
 8004c32:	6812      	ldr	r2, [r2, #0]
 8004c34:	0392      	lsls	r2, r2, #14
 8004c36:	d502      	bpl.n	8004c3e <HAL_RCC_OscConfig+0x3a>
 8004c38:	6862      	ldr	r2, [r4, #4]
 8004c3a:	2a00      	cmp	r2, #0
 8004c3c:	d012      	beq.n	8004c64 <HAL_RCC_OscConfig+0x60>
        }
      }
    }
  }
  /*----------------------------- HSI Configuration --------------------------*/
  if (((RCC_OscInitStruct->OscillatorType) & RCC_OSCILLATORTYPE_HSI) == RCC_OSCILLATORTYPE_HSI)
 8004c3e:	079a      	lsls	r2, r3, #30
 8004c40:	d532      	bpl.n	8004ca8 <HAL_RCC_OscConfig+0xa4>
    assert_param(IS_RCC_HSI(RCC_OscInitStruct->HSIState));
    assert_param(IS_RCC_HSI_CALIBRATION_VALUE(RCC_OscInitStruct->HSICalibrationValue));
    assert_param(IS_RCC_HSIDIV(RCC_OscInitStruct->HSIDiv));

    /* Check if HSI16 is used as system clock or as PLL source when PLL is selected as system clock */
    temp_sysclksrc = __HAL_RCC_GET_SYSCLK_SOURCE();
 8004c42:	2338      	movs	r3, #56	@ 0x38
 8004c44:	4ab6      	ldr	r2, [pc, #728]	@ (8004f20 <HAL_RCC_OscConfig+0x31c>)
 8004c46:	6891      	ldr	r1, [r2, #8]
 8004c48:	400b      	ands	r3, r1
    temp_pllckcfg = __HAL_RCC_GET_PLL_OSCSOURCE();
 8004c4a:	68d1      	ldr	r1, [r2, #12]
    if (((temp_sysclksrc == RCC_SYSCLKSOURCE_STATUS_PLLCLK) && (temp_pllckcfg == RCC_PLLSOURCE_HSI))
 8004c4c:	2b10      	cmp	r3, #16
 8004c4e:	d100      	bne.n	8004c52 <HAL_RCC_OscConfig+0x4e>
 8004c50:	e10b      	b.n	8004e6a <HAL_RCC_OscConfig+0x266>
        || (temp_sysclksrc == RCC_SYSCLKSOURCE_STATUS_HSI))
 8004c52:	2b00      	cmp	r3, #0
 8004c54:	d000      	beq.n	8004c58 <HAL_RCC_OscConfig+0x54>
 8004c56:	e10d      	b.n	8004e74 <HAL_RCC_OscConfig+0x270>
    {
      /* When HSI is used as system clock or as PLL input clock it can not be disabled */
      if ((READ_BIT(RCC->CR, RCC_CR_HSIRDY) != 0U) && (RCC_OscInitStruct->HSIState == RCC_HSI_OFF))
 8004c58:	6813      	ldr	r3, [r2, #0]
 8004c5a:	055b      	lsls	r3, r3, #21
 8004c5c:	d508      	bpl.n	8004c70 <HAL_RCC_OscConfig+0x6c>
 8004c5e:	68e3      	ldr	r3, [r4, #12]
 8004c60:	2b00      	cmp	r3, #0
 8004c62:	d105      	bne.n	8004c70 <HAL_RCC_OscConfig+0x6c>
    return HAL_ERROR;
 8004c64:	2001      	movs	r0, #1
        }
      }
    }
  }
  return HAL_OK;
}
 8004c66:	b003      	add	sp, #12
 8004c68:	bcc0      	pop	{r6, r7}
 8004c6a:	46b9      	mov	r9, r7
 8004c6c:	46b0      	mov	r8, r6
 8004c6e:	bdf0      	pop	{r4, r5, r6, r7, pc}
        __HAL_RCC_HSI_CALIBRATIONVALUE_ADJUST(RCC_OscInitStruct->HSICalibrationValue);
 8004c70:	6851      	ldr	r1, [r2, #4]
 8004c72:	6963      	ldr	r3, [r4, #20]
 8004c74:	48ab      	ldr	r0, [pc, #684]	@ (8004f24 <HAL_RCC_OscConfig+0x320>)
 8004c76:	021b      	lsls	r3, r3, #8
 8004c78:	4001      	ands	r1, r0
 8004c7a:	430b      	orrs	r3, r1
 8004c7c:	6053      	str	r3, [r2, #4]
          __HAL_RCC_HSI_CONFIG(RCC_OscInitStruct->HSIDiv);
 8004c7e:	4aa8      	ldr	r2, [pc, #672]	@ (8004f20 <HAL_RCC_OscConfig+0x31c>)
 8004c80:	49a9      	ldr	r1, [pc, #676]	@ (8004f28 <HAL_RCC_OscConfig+0x324>)
 8004c82:	6813      	ldr	r3, [r2, #0]
 8004c84:	400b      	ands	r3, r1
 8004c86:	6921      	ldr	r1, [r4, #16]
 8004c88:	430b      	orrs	r3, r1
 8004c8a:	6013      	str	r3, [r2, #0]
          SystemCoreClock = (HSI_VALUE / (1UL << ((READ_BIT(RCC->CR, RCC_CR_HSIDIV)) >> RCC_CR_HSIDIV_Pos)));
 8004c8c:	6813      	ldr	r3, [r2, #0]
 8004c8e:	4aa7      	ldr	r2, [pc, #668]	@ (8004f2c <HAL_RCC_OscConfig+0x328>)
 8004c90:	049b      	lsls	r3, r3, #18
 8004c92:	0f5b      	lsrs	r3, r3, #29
 8004c94:	40da      	lsrs	r2, r3
 8004c96:	49a6      	ldr	r1, [pc, #664]	@ (8004f30 <HAL_RCC_OscConfig+0x32c>)
 8004c98:	600a      	str	r2, [r1, #0]
        if (HAL_InitTick(uwTickPrio) != HAL_OK)
 8004c9a:	4ba6      	ldr	r3, [pc, #664]	@ (8004f34 <HAL_RCC_OscConfig+0x330>)
 8004c9c:	6818      	ldr	r0, [r3, #0]
 8004c9e:	f7fe fb61 	bl	8003364 <HAL_InitTick>
 8004ca2:	2800      	cmp	r0, #0
 8004ca4:	d1de      	bne.n	8004c64 <HAL_RCC_OscConfig+0x60>
  if (((RCC_OscInitStruct->OscillatorType) & RCC_OSCILLATORTYPE_LSI) == RCC_OSCILLATORTYPE_LSI)
 8004ca6:	6823      	ldr	r3, [r4, #0]
 8004ca8:	071a      	lsls	r2, r3, #28
 8004caa:	d46d      	bmi.n	8004d88 <HAL_RCC_OscConfig+0x184>
  if (((RCC_OscInitStruct->OscillatorType) & RCC_OSCILLATORTYPE_LSE) == RCC_OSCILLATORTYPE_LSE)
 8004cac:	075b      	lsls	r3, r3, #29
 8004cae:	d545      	bpl.n	8004d3c <HAL_RCC_OscConfig+0x138>
    if (__HAL_RCC_GET_SYSCLK_SOURCE() == RCC_SYSCLKSOURCE_STATUS_LSE)
 8004cb0:	2338      	movs	r3, #56	@ 0x38
 8004cb2:	4a9b      	ldr	r2, [pc, #620]	@ (8004f20 <HAL_RCC_OscConfig+0x31c>)
 8004cb4:	6891      	ldr	r1, [r2, #8]
 8004cb6:	400b      	ands	r3, r1
 8004cb8:	2b20      	cmp	r3, #32
 8004cba:	d100      	bne.n	8004cbe <HAL_RCC_OscConfig+0xba>
 8004cbc:	e0cc      	b.n	8004e58 <HAL_RCC_OscConfig+0x254>
      if (__HAL_RCC_PWR_IS_CLK_DISABLED() != 0U)
 8004cbe:	2380      	movs	r3, #128	@ 0x80
    FlagStatus       pwrclkchanged = RESET;
 8004cc0:	2000      	movs	r0, #0
      if (__HAL_RCC_PWR_IS_CLK_DISABLED() != 0U)
 8004cc2:	6bd1      	ldr	r1, [r2, #60]	@ 0x3c
 8004cc4:	055b      	lsls	r3, r3, #21
    FlagStatus       pwrclkchanged = RESET;
 8004cc6:	4681      	mov	r9, r0
      if (__HAL_RCC_PWR_IS_CLK_DISABLED() != 0U)
 8004cc8:	4219      	tst	r1, r3
 8004cca:	d108      	bne.n	8004cde <HAL_RCC_OscConfig+0xda>
        __HAL_RCC_PWR_CLK_ENABLE();
 8004ccc:	6bd1      	ldr	r1, [r2, #60]	@ 0x3c
 8004cce:	4319      	orrs	r1, r3
 8004cd0:	63d1      	str	r1, [r2, #60]	@ 0x3c
 8004cd2:	6bd2      	ldr	r2, [r2, #60]	@ 0x3c
 8004cd4:	4013      	ands	r3, r2
 8004cd6:	9301      	str	r3, [sp, #4]
 8004cd8:	9b01      	ldr	r3, [sp, #4]
        pwrclkchanged = SET;
 8004cda:	2301      	movs	r3, #1
 8004cdc:	4699      	mov	r9, r3
      if (HAL_IS_BIT_CLR(PWR->CR1, PWR_CR1_DBP))
 8004cde:	2780      	movs	r7, #128	@ 0x80
 8004ce0:	4e95      	ldr	r6, [pc, #596]	@ (8004f38 <HAL_RCC_OscConfig+0x334>)
 8004ce2:	007f      	lsls	r7, r7, #1
 8004ce4:	6833      	ldr	r3, [r6, #0]
 8004ce6:	423b      	tst	r3, r7
 8004ce8:	d100      	bne.n	8004cec <HAL_RCC_OscConfig+0xe8>
 8004cea:	e0ff      	b.n	8004eec <HAL_RCC_OscConfig+0x2e8>
      __HAL_RCC_LSE_CONFIG(RCC_OscInitStruct->LSEState);
 8004cec:	68a3      	ldr	r3, [r4, #8]
 8004cee:	2b01      	cmp	r3, #1
 8004cf0:	d100      	bne.n	8004cf4 <HAL_RCC_OscConfig+0xf0>
 8004cf2:	e0e5      	b.n	8004ec0 <HAL_RCC_OscConfig+0x2bc>
 8004cf4:	2b05      	cmp	r3, #5
 8004cf6:	d100      	bne.n	8004cfa <HAL_RCC_OscConfig+0xf6>
 8004cf8:	e1d1      	b.n	800509e <HAL_RCC_OscConfig+0x49a>
 8004cfa:	2101      	movs	r1, #1
 8004cfc:	4e88      	ldr	r6, [pc, #544]	@ (8004f20 <HAL_RCC_OscConfig+0x31c>)
 8004cfe:	6df2      	ldr	r2, [r6, #92]	@ 0x5c
 8004d00:	438a      	bics	r2, r1
 8004d02:	65f2      	str	r2, [r6, #92]	@ 0x5c
 8004d04:	6df2      	ldr	r2, [r6, #92]	@ 0x5c
 8004d06:	3103      	adds	r1, #3
 8004d08:	438a      	bics	r2, r1
 8004d0a:	65f2      	str	r2, [r6, #92]	@ 0x5c
      if (RCC_OscInitStruct->LSEState != RCC_LSE_OFF)
 8004d0c:	2b00      	cmp	r3, #0
 8004d0e:	d000      	beq.n	8004d12 <HAL_RCC_OscConfig+0x10e>
 8004d10:	e0da      	b.n	8004ec8 <HAL_RCC_OscConfig+0x2c4>
        tickstart = HAL_GetTick();
 8004d12:	f7fe fb6d 	bl	80033f0 <HAL_GetTick>
        while (READ_BIT(RCC->BDCR, RCC_BDCR_LSERDY) != 0U)
 8004d16:	2302      	movs	r3, #2
        tickstart = HAL_GetTick();
 8004d18:	0007      	movs	r7, r0
        while (READ_BIT(RCC->BDCR, RCC_BDCR_LSERDY) != 0U)
 8004d1a:	4698      	mov	r8, r3
          if ((HAL_GetTick() - tickstart) > RCC_LSE_TIMEOUT_VALUE)
 8004d1c:	4d87      	ldr	r5, [pc, #540]	@ (8004f3c <HAL_RCC_OscConfig+0x338>)
        while (READ_BIT(RCC->BDCR, RCC_BDCR_LSERDY) != 0U)
 8004d1e:	e005      	b.n	8004d2c <HAL_RCC_OscConfig+0x128>
          if ((HAL_GetTick() - tickstart) > RCC_LSE_TIMEOUT_VALUE)
 8004d20:	f7fe fb66 	bl	80033f0 <HAL_GetTick>
 8004d24:	1bc0      	subs	r0, r0, r7
 8004d26:	42a8      	cmp	r0, r5
 8004d28:	d900      	bls.n	8004d2c <HAL_RCC_OscConfig+0x128>
 8004d2a:	e0ee      	b.n	8004f0a <HAL_RCC_OscConfig+0x306>
        while (READ_BIT(RCC->BDCR, RCC_BDCR_LSERDY) != 0U)
 8004d2c:	4642      	mov	r2, r8
 8004d2e:	6df3      	ldr	r3, [r6, #92]	@ 0x5c
 8004d30:	421a      	tst	r2, r3
 8004d32:	d1f5      	bne.n	8004d20 <HAL_RCC_OscConfig+0x11c>
      if (pwrclkchanged == SET)
 8004d34:	464b      	mov	r3, r9
 8004d36:	2b01      	cmp	r3, #1
 8004d38:	d100      	bne.n	8004d3c <HAL_RCC_OscConfig+0x138>
 8004d3a:	e16a      	b.n	8005012 <HAL_RCC_OscConfig+0x40e>
  if (RCC_OscInitStruct->PLL.PLLState != RCC_PLL_NONE)
 8004d3c:	69e3      	ldr	r3, [r4, #28]
 8004d3e:	2b00      	cmp	r3, #0
 8004d40:	d020      	beq.n	8004d84 <HAL_RCC_OscConfig+0x180>
    if (__HAL_RCC_GET_SYSCLK_SOURCE() != RCC_SYSCLKSOURCE_STATUS_PLLCLK)
 8004d42:	2238      	movs	r2, #56	@ 0x38
 8004d44:	4d76      	ldr	r5, [pc, #472]	@ (8004f20 <HAL_RCC_OscConfig+0x31c>)
 8004d46:	68a9      	ldr	r1, [r5, #8]
 8004d48:	400a      	ands	r2, r1
 8004d4a:	2a10      	cmp	r2, #16
 8004d4c:	d100      	bne.n	8004d50 <HAL_RCC_OscConfig+0x14c>
 8004d4e:	e11d      	b.n	8004f8c <HAL_RCC_OscConfig+0x388>
      if (RCC_OscInitStruct->PLL.PLLState == RCC_PLL_ON)
 8004d50:	2b02      	cmp	r3, #2
 8004d52:	d100      	bne.n	8004d56 <HAL_RCC_OscConfig+0x152>
 8004d54:	e163      	b.n	800501e <HAL_RCC_OscConfig+0x41a>
        __HAL_RCC_PLL_DISABLE();
 8004d56:	682b      	ldr	r3, [r5, #0]
 8004d58:	4a79      	ldr	r2, [pc, #484]	@ (8004f40 <HAL_RCC_OscConfig+0x33c>)
        while (READ_BIT(RCC->CR, RCC_CR_PLLRDY) != 0U)
 8004d5a:	2680      	movs	r6, #128	@ 0x80
        __HAL_RCC_PLL_DISABLE();
 8004d5c:	4013      	ands	r3, r2
 8004d5e:	602b      	str	r3, [r5, #0]
        tickstart = HAL_GetTick();
 8004d60:	f7fe fb46 	bl	80033f0 <HAL_GetTick>
        while (READ_BIT(RCC->CR, RCC_CR_PLLRDY) != 0U)
 8004d64:	04b6      	lsls	r6, r6, #18
        tickstart = HAL_GetTick();
 8004d66:	0004      	movs	r4, r0
        while (READ_BIT(RCC->CR, RCC_CR_PLLRDY) != 0U)
 8004d68:	e005      	b.n	8004d76 <HAL_RCC_OscConfig+0x172>
          if ((HAL_GetTick() - tickstart) > PLL_TIMEOUT_VALUE)
 8004d6a:	f7fe fb41 	bl	80033f0 <HAL_GetTick>
 8004d6e:	1b00      	subs	r0, r0, r4
 8004d70:	2802      	cmp	r0, #2
 8004d72:	d900      	bls.n	8004d76 <HAL_RCC_OscConfig+0x172>
 8004d74:	e0c9      	b.n	8004f0a <HAL_RCC_OscConfig+0x306>
        while (READ_BIT(RCC->CR, RCC_CR_PLLRDY) != 0U)
 8004d76:	682b      	ldr	r3, [r5, #0]
 8004d78:	4233      	tst	r3, r6
 8004d7a:	d1f6      	bne.n	8004d6a <HAL_RCC_OscConfig+0x166>
        RCC->PLLCFGR &= ~(RCC_PLLCFGR_PLLSRC | RCC_PLLCFGR_PLLPEN | RCC_PLLCFGR_PLLQEN | RCC_PLLCFGR_PLLREN);
 8004d7c:	68eb      	ldr	r3, [r5, #12]
 8004d7e:	4a71      	ldr	r2, [pc, #452]	@ (8004f44 <HAL_RCC_OscConfig+0x340>)
 8004d80:	4013      	ands	r3, r2
 8004d82:	60eb      	str	r3, [r5, #12]
  return HAL_OK;
 8004d84:	2000      	movs	r0, #0
 8004d86:	e76e      	b.n	8004c66 <HAL_RCC_OscConfig+0x62>
    if (__HAL_RCC_GET_SYSCLK_SOURCE() == RCC_SYSCLKSOURCE_STATUS_LSI)
 8004d88:	2238      	movs	r2, #56	@ 0x38
 8004d8a:	4d65      	ldr	r5, [pc, #404]	@ (8004f20 <HAL_RCC_OscConfig+0x31c>)
 8004d8c:	68a9      	ldr	r1, [r5, #8]
 8004d8e:	400a      	ands	r2, r1
 8004d90:	2a18      	cmp	r2, #24
 8004d92:	d043      	beq.n	8004e1c <HAL_RCC_OscConfig+0x218>
      if (RCC_OscInitStruct->LSIState != RCC_LSI_OFF)
 8004d94:	69a3      	ldr	r3, [r4, #24]
 8004d96:	2b00      	cmp	r3, #0
 8004d98:	d100      	bne.n	8004d9c <HAL_RCC_OscConfig+0x198>
 8004d9a:	e0b8      	b.n	8004f0e <HAL_RCC_OscConfig+0x30a>
        __HAL_RCC_LSI_ENABLE();
 8004d9c:	2201      	movs	r2, #1
 8004d9e:	6e2b      	ldr	r3, [r5, #96]	@ 0x60
        while (READ_BIT(RCC->CSR, RCC_CSR_LSIRDY) == 0U)
 8004da0:	2702      	movs	r7, #2
        __HAL_RCC_LSI_ENABLE();
 8004da2:	4313      	orrs	r3, r2
 8004da4:	662b      	str	r3, [r5, #96]	@ 0x60
        tickstart = HAL_GetTick();
 8004da6:	f7fe fb23 	bl	80033f0 <HAL_GetTick>
 8004daa:	0006      	movs	r6, r0
        while (READ_BIT(RCC->CSR, RCC_CSR_LSIRDY) == 0U)
 8004dac:	e005      	b.n	8004dba <HAL_RCC_OscConfig+0x1b6>
          if ((HAL_GetTick() - tickstart) > LSI_TIMEOUT_VALUE)
 8004dae:	f7fe fb1f 	bl	80033f0 <HAL_GetTick>
 8004db2:	1b80      	subs	r0, r0, r6
 8004db4:	2802      	cmp	r0, #2
 8004db6:	d900      	bls.n	8004dba <HAL_RCC_OscConfig+0x1b6>
 8004db8:	e0a7      	b.n	8004f0a <HAL_RCC_OscConfig+0x306>
        while (READ_BIT(RCC->CSR, RCC_CSR_LSIRDY) == 0U)
 8004dba:	6e2b      	ldr	r3, [r5, #96]	@ 0x60
 8004dbc:	421f      	tst	r7, r3
 8004dbe:	d0f6      	beq.n	8004dae <HAL_RCC_OscConfig+0x1aa>
  if (((RCC_OscInitStruct->OscillatorType) & RCC_OSCILLATORTYPE_LSE) == RCC_OSCILLATORTYPE_LSE)
 8004dc0:	6823      	ldr	r3, [r4, #0]
 8004dc2:	e773      	b.n	8004cac <HAL_RCC_OscConfig+0xa8>
    temp_pllckcfg = __HAL_RCC_GET_PLL_OSCSOURCE();
 8004dc4:	43c9      	mvns	r1, r1
    if (((temp_sysclksrc == RCC_SYSCLKSOURCE_STATUS_PLLCLK) && (temp_pllckcfg == RCC_PLLSOURCE_HSE))
 8004dc6:	0789      	lsls	r1, r1, #30
 8004dc8:	d100      	bne.n	8004dcc <HAL_RCC_OscConfig+0x1c8>
 8004dca:	e731      	b.n	8004c30 <HAL_RCC_OscConfig+0x2c>
      __HAL_RCC_HSE_CONFIG(RCC_OscInitStruct->HSEState);
 8004dcc:	2280      	movs	r2, #128	@ 0x80
 8004dce:	6863      	ldr	r3, [r4, #4]
 8004dd0:	0252      	lsls	r2, r2, #9
 8004dd2:	4293      	cmp	r3, r2
 8004dd4:	d02b      	beq.n	8004e2e <HAL_RCC_OscConfig+0x22a>
 8004dd6:	21a0      	movs	r1, #160	@ 0xa0
 8004dd8:	02c9      	lsls	r1, r1, #11
 8004dda:	428b      	cmp	r3, r1
 8004ddc:	d100      	bne.n	8004de0 <HAL_RCC_OscConfig+0x1dc>
 8004dde:	e103      	b.n	8004fe8 <HAL_RCC_OscConfig+0x3e4>
 8004de0:	4d4f      	ldr	r5, [pc, #316]	@ (8004f20 <HAL_RCC_OscConfig+0x31c>)
 8004de2:	4959      	ldr	r1, [pc, #356]	@ (8004f48 <HAL_RCC_OscConfig+0x344>)
 8004de4:	682a      	ldr	r2, [r5, #0]
 8004de6:	400a      	ands	r2, r1
 8004de8:	602a      	str	r2, [r5, #0]
 8004dea:	682a      	ldr	r2, [r5, #0]
 8004dec:	4957      	ldr	r1, [pc, #348]	@ (8004f4c <HAL_RCC_OscConfig+0x348>)
 8004dee:	400a      	ands	r2, r1
 8004df0:	602a      	str	r2, [r5, #0]
      if (RCC_OscInitStruct->HSEState != RCC_HSE_OFF)
 8004df2:	2b00      	cmp	r3, #0
 8004df4:	d11f      	bne.n	8004e36 <HAL_RCC_OscConfig+0x232>
        tickstart = HAL_GetTick();
 8004df6:	f7fe fafb 	bl	80033f0 <HAL_GetTick>
        while (READ_BIT(RCC->CR, RCC_CR_HSERDY) != 0U)
 8004dfa:	2780      	movs	r7, #128	@ 0x80
        tickstart = HAL_GetTick();
 8004dfc:	0006      	movs	r6, r0
        while (READ_BIT(RCC->CR, RCC_CR_HSERDY) != 0U)
 8004dfe:	02bf      	lsls	r7, r7, #10
 8004e00:	e004      	b.n	8004e0c <HAL_RCC_OscConfig+0x208>
          if ((HAL_GetTick() - tickstart) > HSE_TIMEOUT_VALUE)
 8004e02:	f7fe faf5 	bl	80033f0 <HAL_GetTick>
 8004e06:	1b80      	subs	r0, r0, r6
 8004e08:	2864      	cmp	r0, #100	@ 0x64
 8004e0a:	d87e      	bhi.n	8004f0a <HAL_RCC_OscConfig+0x306>
        while (READ_BIT(RCC->CR, RCC_CR_HSERDY) != 0U)
 8004e0c:	682b      	ldr	r3, [r5, #0]
 8004e0e:	423b      	tst	r3, r7
 8004e10:	d1f7      	bne.n	8004e02 <HAL_RCC_OscConfig+0x1fe>
  if (((RCC_OscInitStruct->OscillatorType) & RCC_OSCILLATORTYPE_HSI) == RCC_OSCILLATORTYPE_HSI)
 8004e12:	6823      	ldr	r3, [r4, #0]
 8004e14:	079a      	lsls	r2, r3, #30
 8004e16:	d400      	bmi.n	8004e1a <HAL_RCC_OscConfig+0x216>
 8004e18:	e746      	b.n	8004ca8 <HAL_RCC_OscConfig+0xa4>
 8004e1a:	e712      	b.n	8004c42 <HAL_RCC_OscConfig+0x3e>
      if ((((RCC->CSR) & RCC_CSR_LSIRDY) != 0U) && (RCC_OscInitStruct->LSIState == RCC_LSI_OFF))
 8004e1c:	6e2a      	ldr	r2, [r5, #96]	@ 0x60
 8004e1e:	0792      	lsls	r2, r2, #30
 8004e20:	d400      	bmi.n	8004e24 <HAL_RCC_OscConfig+0x220>
 8004e22:	e743      	b.n	8004cac <HAL_RCC_OscConfig+0xa8>
 8004e24:	69a2      	ldr	r2, [r4, #24]
 8004e26:	2a00      	cmp	r2, #0
 8004e28:	d000      	beq.n	8004e2c <HAL_RCC_OscConfig+0x228>
 8004e2a:	e73f      	b.n	8004cac <HAL_RCC_OscConfig+0xa8>
 8004e2c:	e71a      	b.n	8004c64 <HAL_RCC_OscConfig+0x60>
      __HAL_RCC_HSE_CONFIG(RCC_OscInitStruct->HSEState);
 8004e2e:	4a3c      	ldr	r2, [pc, #240]	@ (8004f20 <HAL_RCC_OscConfig+0x31c>)
 8004e30:	6811      	ldr	r1, [r2, #0]
 8004e32:	430b      	orrs	r3, r1
 8004e34:	6013      	str	r3, [r2, #0]
        tickstart = HAL_GetTick();
 8004e36:	f7fe fadb 	bl	80033f0 <HAL_GetTick>
        while (READ_BIT(RCC->CR, RCC_CR_HSERDY) == 0U)
 8004e3a:	2680      	movs	r6, #128	@ 0x80
        tickstart = HAL_GetTick();
 8004e3c:	0005      	movs	r5, r0
        while (READ_BIT(RCC->CR, RCC_CR_HSERDY) == 0U)
 8004e3e:	4f38      	ldr	r7, [pc, #224]	@ (8004f20 <HAL_RCC_OscConfig+0x31c>)
 8004e40:	02b6      	lsls	r6, r6, #10
 8004e42:	e004      	b.n	8004e4e <HAL_RCC_OscConfig+0x24a>
          if ((HAL_GetTick() - tickstart) > HSE_TIMEOUT_VALUE)
 8004e44:	f7fe fad4 	bl	80033f0 <HAL_GetTick>
 8004e48:	1b40      	subs	r0, r0, r5
 8004e4a:	2864      	cmp	r0, #100	@ 0x64
 8004e4c:	d85d      	bhi.n	8004f0a <HAL_RCC_OscConfig+0x306>
        while (READ_BIT(RCC->CR, RCC_CR_HSERDY) == 0U)
 8004e4e:	683b      	ldr	r3, [r7, #0]
 8004e50:	4233      	tst	r3, r6
 8004e52:	d0f7      	beq.n	8004e44 <HAL_RCC_OscConfig+0x240>
  if (((RCC_OscInitStruct->OscillatorType) & RCC_OSCILLATORTYPE_HSI) == RCC_OSCILLATORTYPE_HSI)
 8004e54:	6823      	ldr	r3, [r4, #0]
 8004e56:	e7dd      	b.n	8004e14 <HAL_RCC_OscConfig+0x210>
      if ((((RCC->BDCR) & RCC_BDCR_LSERDY) != 0U) && (RCC_OscInitStruct->LSEState == RCC_LSE_OFF))
 8004e58:	6dd3      	ldr	r3, [r2, #92]	@ 0x5c
 8004e5a:	079b      	lsls	r3, r3, #30
 8004e5c:	d400      	bmi.n	8004e60 <HAL_RCC_OscConfig+0x25c>
 8004e5e:	e76d      	b.n	8004d3c <HAL_RCC_OscConfig+0x138>
 8004e60:	68a3      	ldr	r3, [r4, #8]
 8004e62:	2b00      	cmp	r3, #0
 8004e64:	d000      	beq.n	8004e68 <HAL_RCC_OscConfig+0x264>
 8004e66:	e769      	b.n	8004d3c <HAL_RCC_OscConfig+0x138>
 8004e68:	e6fc      	b.n	8004c64 <HAL_RCC_OscConfig+0x60>
    temp_pllckcfg = __HAL_RCC_GET_PLL_OSCSOURCE();
 8004e6a:	3b0d      	subs	r3, #13
 8004e6c:	400b      	ands	r3, r1
    if (((temp_sysclksrc == RCC_SYSCLKSOURCE_STATUS_PLLCLK) && (temp_pllckcfg == RCC_PLLSOURCE_HSI))
 8004e6e:	2b02      	cmp	r3, #2
 8004e70:	d100      	bne.n	8004e74 <HAL_RCC_OscConfig+0x270>
 8004e72:	e0c3      	b.n	8004ffc <HAL_RCC_OscConfig+0x3f8>
      if (RCC_OscInitStruct->HSIState != RCC_HSI_OFF)
 8004e74:	68e3      	ldr	r3, [r4, #12]
        __HAL_RCC_HSI_CONFIG(RCC_OscInitStruct->HSIDiv);
 8004e76:	4d2a      	ldr	r5, [pc, #168]	@ (8004f20 <HAL_RCC_OscConfig+0x31c>)
      if (RCC_OscInitStruct->HSIState != RCC_HSI_OFF)
 8004e78:	2b00      	cmp	r3, #0
 8004e7a:	d073      	beq.n	8004f64 <HAL_RCC_OscConfig+0x360>
        __HAL_RCC_HSI_CONFIG(RCC_OscInitStruct->HSIDiv);
 8004e7c:	682b      	ldr	r3, [r5, #0]
 8004e7e:	4a2a      	ldr	r2, [pc, #168]	@ (8004f28 <HAL_RCC_OscConfig+0x324>)
        while (READ_BIT(RCC->CR, RCC_CR_HSIRDY) == 0U)
 8004e80:	2780      	movs	r7, #128	@ 0x80
        __HAL_RCC_HSI_CONFIG(RCC_OscInitStruct->HSIDiv);
 8004e82:	4013      	ands	r3, r2
 8004e84:	6922      	ldr	r2, [r4, #16]
        while (READ_BIT(RCC->CR, RCC_CR_HSIRDY) == 0U)
 8004e86:	00ff      	lsls	r7, r7, #3
        __HAL_RCC_HSI_CONFIG(RCC_OscInitStruct->HSIDiv);
 8004e88:	4313      	orrs	r3, r2
 8004e8a:	602b      	str	r3, [r5, #0]
        __HAL_RCC_HSI_ENABLE();
 8004e8c:	2380      	movs	r3, #128	@ 0x80
 8004e8e:	682a      	ldr	r2, [r5, #0]
 8004e90:	005b      	lsls	r3, r3, #1
 8004e92:	4313      	orrs	r3, r2
 8004e94:	602b      	str	r3, [r5, #0]
        tickstart = HAL_GetTick();
 8004e96:	f7fe faab 	bl	80033f0 <HAL_GetTick>
 8004e9a:	0006      	movs	r6, r0
        while (READ_BIT(RCC->CR, RCC_CR_HSIRDY) == 0U)
 8004e9c:	e004      	b.n	8004ea8 <HAL_RCC_OscConfig+0x2a4>
          if ((HAL_GetTick() - tickstart) > HSI_TIMEOUT_VALUE)
 8004e9e:	f7fe faa7 	bl	80033f0 <HAL_GetTick>
 8004ea2:	1b80      	subs	r0, r0, r6
 8004ea4:	2802      	cmp	r0, #2
 8004ea6:	d830      	bhi.n	8004f0a <HAL_RCC_OscConfig+0x306>
        while (READ_BIT(RCC->CR, RCC_CR_HSIRDY) == 0U)
 8004ea8:	682b      	ldr	r3, [r5, #0]
 8004eaa:	423b      	tst	r3, r7
 8004eac:	d0f7      	beq.n	8004e9e <HAL_RCC_OscConfig+0x29a>
        __HAL_RCC_HSI_CALIBRATIONVALUE_ADJUST(RCC_OscInitStruct->HSICalibrationValue);
 8004eae:	686a      	ldr	r2, [r5, #4]
 8004eb0:	6963      	ldr	r3, [r4, #20]
 8004eb2:	491c      	ldr	r1, [pc, #112]	@ (8004f24 <HAL_RCC_OscConfig+0x320>)
 8004eb4:	021b      	lsls	r3, r3, #8
 8004eb6:	400a      	ands	r2, r1
 8004eb8:	4313      	orrs	r3, r2
 8004eba:	606b      	str	r3, [r5, #4]
  if (((RCC_OscInitStruct->OscillatorType) & RCC_OSCILLATORTYPE_LSI) == RCC_OSCILLATORTYPE_LSI)
 8004ebc:	6823      	ldr	r3, [r4, #0]
 8004ebe:	e6f3      	b.n	8004ca8 <HAL_RCC_OscConfig+0xa4>
      __HAL_RCC_LSE_CONFIG(RCC_OscInitStruct->LSEState);
 8004ec0:	4917      	ldr	r1, [pc, #92]	@ (8004f20 <HAL_RCC_OscConfig+0x31c>)
 8004ec2:	6dca      	ldr	r2, [r1, #92]	@ 0x5c
 8004ec4:	4313      	orrs	r3, r2
 8004ec6:	65cb      	str	r3, [r1, #92]	@ 0x5c
        tickstart = HAL_GetTick();
 8004ec8:	f7fe fa92 	bl	80033f0 <HAL_GetTick>
        while (READ_BIT(RCC->BDCR, RCC_BDCR_LSERDY) == 0U)
 8004ecc:	4b14      	ldr	r3, [pc, #80]	@ (8004f20 <HAL_RCC_OscConfig+0x31c>)
        tickstart = HAL_GetTick();
 8004ece:	0006      	movs	r6, r0
        while (READ_BIT(RCC->BDCR, RCC_BDCR_LSERDY) == 0U)
 8004ed0:	4698      	mov	r8, r3
 8004ed2:	2702      	movs	r7, #2
          if ((HAL_GetTick() - tickstart) > RCC_LSE_TIMEOUT_VALUE)
 8004ed4:	4d19      	ldr	r5, [pc, #100]	@ (8004f3c <HAL_RCC_OscConfig+0x338>)
        while (READ_BIT(RCC->BDCR, RCC_BDCR_LSERDY) == 0U)
 8004ed6:	e004      	b.n	8004ee2 <HAL_RCC_OscConfig+0x2de>
          if ((HAL_GetTick() - tickstart) > RCC_LSE_TIMEOUT_VALUE)
 8004ed8:	f7fe fa8a 	bl	80033f0 <HAL_GetTick>
 8004edc:	1b80      	subs	r0, r0, r6
 8004ede:	42a8      	cmp	r0, r5
 8004ee0:	d813      	bhi.n	8004f0a <HAL_RCC_OscConfig+0x306>
        while (READ_BIT(RCC->BDCR, RCC_BDCR_LSERDY) == 0U)
 8004ee2:	4643      	mov	r3, r8
 8004ee4:	6ddb      	ldr	r3, [r3, #92]	@ 0x5c
 8004ee6:	421f      	tst	r7, r3
 8004ee8:	d0f6      	beq.n	8004ed8 <HAL_RCC_OscConfig+0x2d4>
 8004eea:	e723      	b.n	8004d34 <HAL_RCC_OscConfig+0x130>
        SET_BIT(PWR->CR1, PWR_CR1_DBP);
 8004eec:	6833      	ldr	r3, [r6, #0]
 8004eee:	433b      	orrs	r3, r7
 8004ef0:	6033      	str	r3, [r6, #0]
        tickstart = HAL_GetTick();
 8004ef2:	f7fe fa7d 	bl	80033f0 <HAL_GetTick>
 8004ef6:	0005      	movs	r5, r0
        while (HAL_IS_BIT_CLR(PWR->CR1, PWR_CR1_DBP))
 8004ef8:	6833      	ldr	r3, [r6, #0]
 8004efa:	423b      	tst	r3, r7
 8004efc:	d000      	beq.n	8004f00 <HAL_RCC_OscConfig+0x2fc>
 8004efe:	e6f5      	b.n	8004cec <HAL_RCC_OscConfig+0xe8>
          if ((HAL_GetTick() - tickstart) > RCC_DBP_TIMEOUT_VALUE)
 8004f00:	f7fe fa76 	bl	80033f0 <HAL_GetTick>
 8004f04:	1b40      	subs	r0, r0, r5
 8004f06:	2802      	cmp	r0, #2
 8004f08:	d9f6      	bls.n	8004ef8 <HAL_RCC_OscConfig+0x2f4>
            return HAL_TIMEOUT;
 8004f0a:	2003      	movs	r0, #3
 8004f0c:	e6ab      	b.n	8004c66 <HAL_RCC_OscConfig+0x62>
        __HAL_RCC_LSI_DISABLE();
 8004f0e:	2201      	movs	r2, #1
 8004f10:	6e2b      	ldr	r3, [r5, #96]	@ 0x60
        while (READ_BIT(RCC->CSR, RCC_CSR_LSIRDY) != 0U)
 8004f12:	2702      	movs	r7, #2
        __HAL_RCC_LSI_DISABLE();
 8004f14:	4393      	bics	r3, r2
 8004f16:	662b      	str	r3, [r5, #96]	@ 0x60
        tickstart = HAL_GetTick();
 8004f18:	f7fe fa6a 	bl	80033f0 <HAL_GetTick>
 8004f1c:	0006      	movs	r6, r0
        while (READ_BIT(RCC->CSR, RCC_CSR_LSIRDY) != 0U)
 8004f1e:	e01c      	b.n	8004f5a <HAL_RCC_OscConfig+0x356>
 8004f20:	40021000 	.word	0x40021000
 8004f24:	ffff80ff 	.word	0xffff80ff
 8004f28:	ffffc7ff 	.word	0xffffc7ff
 8004f2c:	00f42400 	.word	0x00f42400
 8004f30:	20000440 	.word	0x20000440
 8004f34:	20000448 	.word	0x20000448
 8004f38:	40007000 	.word	0x40007000
 8004f3c:	00001388 	.word	0x00001388
 8004f40:	feffffff 	.word	0xfeffffff
 8004f44:	eefefffc 	.word	0xeefefffc
 8004f48:	fffeffff 	.word	0xfffeffff
 8004f4c:	fffbffff 	.word	0xfffbffff
          if ((HAL_GetTick() - tickstart) > LSI_TIMEOUT_VALUE)
 8004f50:	f7fe fa4e 	bl	80033f0 <HAL_GetTick>
 8004f54:	1b80      	subs	r0, r0, r6
 8004f56:	2802      	cmp	r0, #2
 8004f58:	d8d7      	bhi.n	8004f0a <HAL_RCC_OscConfig+0x306>
        while (READ_BIT(RCC->CSR, RCC_CSR_LSIRDY) != 0U)
 8004f5a:	6e2b      	ldr	r3, [r5, #96]	@ 0x60
 8004f5c:	421f      	tst	r7, r3
 8004f5e:	d1f7      	bne.n	8004f50 <HAL_RCC_OscConfig+0x34c>
  if (((RCC_OscInitStruct->OscillatorType) & RCC_OSCILLATORTYPE_LSE) == RCC_OSCILLATORTYPE_LSE)
 8004f60:	6823      	ldr	r3, [r4, #0]
 8004f62:	e6a3      	b.n	8004cac <HAL_RCC_OscConfig+0xa8>
        __HAL_RCC_HSI_DISABLE();
 8004f64:	682b      	ldr	r3, [r5, #0]
 8004f66:	4a55      	ldr	r2, [pc, #340]	@ (80050bc <HAL_RCC_OscConfig+0x4b8>)
        while (READ_BIT(RCC->CR, RCC_CR_HSIRDY) != 0U)
 8004f68:	2780      	movs	r7, #128	@ 0x80
        __HAL_RCC_HSI_DISABLE();
 8004f6a:	4013      	ands	r3, r2
 8004f6c:	602b      	str	r3, [r5, #0]
        tickstart = HAL_GetTick();
 8004f6e:	f7fe fa3f 	bl	80033f0 <HAL_GetTick>
        while (READ_BIT(RCC->CR, RCC_CR_HSIRDY) != 0U)
 8004f72:	00ff      	lsls	r7, r7, #3
        tickstart = HAL_GetTick();
 8004f74:	0006      	movs	r6, r0
        while (READ_BIT(RCC->CR, RCC_CR_HSIRDY) != 0U)
 8004f76:	e004      	b.n	8004f82 <HAL_RCC_OscConfig+0x37e>
          if ((HAL_GetTick() - tickstart) > HSI_TIMEOUT_VALUE)
 8004f78:	f7fe fa3a 	bl	80033f0 <HAL_GetTick>
 8004f7c:	1b80      	subs	r0, r0, r6
 8004f7e:	2802      	cmp	r0, #2
 8004f80:	d8c3      	bhi.n	8004f0a <HAL_RCC_OscConfig+0x306>
        while (READ_BIT(RCC->CR, RCC_CR_HSIRDY) != 0U)
 8004f82:	682b      	ldr	r3, [r5, #0]
 8004f84:	423b      	tst	r3, r7
 8004f86:	d1f7      	bne.n	8004f78 <HAL_RCC_OscConfig+0x374>
  if (((RCC_OscInitStruct->OscillatorType) & RCC_OSCILLATORTYPE_LSI) == RCC_OSCILLATORTYPE_LSI)
 8004f88:	6823      	ldr	r3, [r4, #0]
 8004f8a:	e68d      	b.n	8004ca8 <HAL_RCC_OscConfig+0xa4>
      if ((RCC_OscInitStruct->PLL.PLLState) == RCC_PLL_OFF)
 8004f8c:	2b01      	cmp	r3, #1
 8004f8e:	d100      	bne.n	8004f92 <HAL_RCC_OscConfig+0x38e>
 8004f90:	e668      	b.n	8004c64 <HAL_RCC_OscConfig+0x60>
        if ((READ_BIT(temp_pllckcfg, RCC_PLLCFGR_PLLSRC) != RCC_OscInitStruct->PLL.PLLSource) ||
 8004f92:	2203      	movs	r2, #3
        temp_pllckcfg = RCC->PLLCFGR;
 8004f94:	68e8      	ldr	r0, [r5, #12]
        if ((READ_BIT(temp_pllckcfg, RCC_PLLCFGR_PLLSRC) != RCC_OscInitStruct->PLL.PLLSource) ||
 8004f96:	6a21      	ldr	r1, [r4, #32]
 8004f98:	4002      	ands	r2, r0
 8004f9a:	428a      	cmp	r2, r1
 8004f9c:	d000      	beq.n	8004fa0 <HAL_RCC_OscConfig+0x39c>
 8004f9e:	e661      	b.n	8004c64 <HAL_RCC_OscConfig+0x60>
            (READ_BIT(temp_pllckcfg, RCC_PLLCFGR_PLLM) != RCC_OscInitStruct->PLL.PLLM) ||
 8004fa0:	2270      	movs	r2, #112	@ 0x70
        if ((READ_BIT(temp_pllckcfg, RCC_PLLCFGR_PLLSRC) != RCC_OscInitStruct->PLL.PLLSource) ||
 8004fa2:	6a61      	ldr	r1, [r4, #36]	@ 0x24
            (READ_BIT(temp_pllckcfg, RCC_PLLCFGR_PLLM) != RCC_OscInitStruct->PLL.PLLM) ||
 8004fa4:	4002      	ands	r2, r0
        if ((READ_BIT(temp_pllckcfg, RCC_PLLCFGR_PLLSRC) != RCC_OscInitStruct->PLL.PLLSource) ||
 8004fa6:	428a      	cmp	r2, r1
 8004fa8:	d000      	beq.n	8004fac <HAL_RCC_OscConfig+0x3a8>
 8004faa:	e65b      	b.n	8004c64 <HAL_RCC_OscConfig+0x60>
            (READ_BIT(temp_pllckcfg, RCC_PLLCFGR_PLLN) != (RCC_OscInitStruct->PLL.PLLN << RCC_PLLCFGR_PLLN_Pos)) ||
 8004fac:	21fe      	movs	r1, #254	@ 0xfe
 8004fae:	6aa2      	ldr	r2, [r4, #40]	@ 0x28
 8004fb0:	01c9      	lsls	r1, r1, #7
 8004fb2:	4001      	ands	r1, r0
 8004fb4:	0212      	lsls	r2, r2, #8
            (READ_BIT(temp_pllckcfg, RCC_PLLCFGR_PLLM) != RCC_OscInitStruct->PLL.PLLM) ||
 8004fb6:	4291      	cmp	r1, r2
 8004fb8:	d000      	beq.n	8004fbc <HAL_RCC_OscConfig+0x3b8>
 8004fba:	e653      	b.n	8004c64 <HAL_RCC_OscConfig+0x60>
            (READ_BIT(temp_pllckcfg, RCC_PLLCFGR_PLLP) != RCC_OscInitStruct->PLL.PLLP) ||
 8004fbc:	22f8      	movs	r2, #248	@ 0xf8
            (READ_BIT(temp_pllckcfg, RCC_PLLCFGR_PLLN) != (RCC_OscInitStruct->PLL.PLLN << RCC_PLLCFGR_PLLN_Pos)) ||
 8004fbe:	6ae1      	ldr	r1, [r4, #44]	@ 0x2c
            (READ_BIT(temp_pllckcfg, RCC_PLLCFGR_PLLP) != RCC_OscInitStruct->PLL.PLLP) ||
 8004fc0:	0392      	lsls	r2, r2, #14
 8004fc2:	4002      	ands	r2, r0
            (READ_BIT(temp_pllckcfg, RCC_PLLCFGR_PLLN) != (RCC_OscInitStruct->PLL.PLLN << RCC_PLLCFGR_PLLN_Pos)) ||
 8004fc4:	428a      	cmp	r2, r1
 8004fc6:	d000      	beq.n	8004fca <HAL_RCC_OscConfig+0x3c6>
 8004fc8:	e64c      	b.n	8004c64 <HAL_RCC_OscConfig+0x60>
            (READ_BIT(temp_pllckcfg, RCC_PLLCFGR_PLLQ) != RCC_OscInitStruct->PLL.PLLQ) ||
 8004fca:	22e0      	movs	r2, #224	@ 0xe0
            (READ_BIT(temp_pllckcfg, RCC_PLLCFGR_PLLP) != RCC_OscInitStruct->PLL.PLLP) ||
 8004fcc:	6b21      	ldr	r1, [r4, #48]	@ 0x30
            (READ_BIT(temp_pllckcfg, RCC_PLLCFGR_PLLQ) != RCC_OscInitStruct->PLL.PLLQ) ||
 8004fce:	0512      	lsls	r2, r2, #20
 8004fd0:	4002      	ands	r2, r0
            (READ_BIT(temp_pllckcfg, RCC_PLLCFGR_PLLP) != RCC_OscInitStruct->PLL.PLLP) ||
 8004fd2:	428a      	cmp	r2, r1
 8004fd4:	d000      	beq.n	8004fd8 <HAL_RCC_OscConfig+0x3d4>
 8004fd6:	e645      	b.n	8004c64 <HAL_RCC_OscConfig+0x60>
            (READ_BIT(temp_pllckcfg, RCC_PLLCFGR_PLLQ) != RCC_OscInitStruct->PLL.PLLQ) ||
 8004fd8:	6b63      	ldr	r3, [r4, #52]	@ 0x34
            (READ_BIT(temp_pllckcfg, RCC_PLLCFGR_PLLR) != RCC_OscInitStruct->PLL.PLLR))
 8004fda:	0f40      	lsrs	r0, r0, #29
 8004fdc:	0740      	lsls	r0, r0, #29
            (READ_BIT(temp_pllckcfg, RCC_PLLCFGR_PLLQ) != RCC_OscInitStruct->PLL.PLLQ) ||
 8004fde:	1ac0      	subs	r0, r0, r3
 8004fe0:	1e43      	subs	r3, r0, #1
 8004fe2:	4198      	sbcs	r0, r3
 8004fe4:	b2c0      	uxtb	r0, r0
 8004fe6:	e63e      	b.n	8004c66 <HAL_RCC_OscConfig+0x62>
      __HAL_RCC_HSE_CONFIG(RCC_OscInitStruct->HSEState);
 8004fe8:	2180      	movs	r1, #128	@ 0x80
 8004fea:	4b35      	ldr	r3, [pc, #212]	@ (80050c0 <HAL_RCC_OscConfig+0x4bc>)
 8004fec:	02c9      	lsls	r1, r1, #11
 8004fee:	6818      	ldr	r0, [r3, #0]
 8004ff0:	4301      	orrs	r1, r0
 8004ff2:	6019      	str	r1, [r3, #0]
 8004ff4:	6819      	ldr	r1, [r3, #0]
 8004ff6:	430a      	orrs	r2, r1
 8004ff8:	601a      	str	r2, [r3, #0]
      if (RCC_OscInitStruct->HSEState != RCC_HSE_OFF)
 8004ffa:	e71c      	b.n	8004e36 <HAL_RCC_OscConfig+0x232>
      if ((READ_BIT(RCC->CR, RCC_CR_HSIRDY) != 0U) && (RCC_OscInitStruct->HSIState == RCC_HSI_OFF))
 8004ffc:	6813      	ldr	r3, [r2, #0]
 8004ffe:	055b      	lsls	r3, r3, #21
 8005000:	d457      	bmi.n	80050b2 <HAL_RCC_OscConfig+0x4ae>
        __HAL_RCC_HSI_CALIBRATIONVALUE_ADJUST(RCC_OscInitStruct->HSICalibrationValue);
 8005002:	6851      	ldr	r1, [r2, #4]
 8005004:	6963      	ldr	r3, [r4, #20]
 8005006:	482f      	ldr	r0, [pc, #188]	@ (80050c4 <HAL_RCC_OscConfig+0x4c0>)
 8005008:	021b      	lsls	r3, r3, #8
 800500a:	4001      	ands	r1, r0
 800500c:	430b      	orrs	r3, r1
 800500e:	6053      	str	r3, [r2, #4]
        if (temp_sysclksrc == RCC_SYSCLKSOURCE_STATUS_HSI)
 8005010:	e643      	b.n	8004c9a <HAL_RCC_OscConfig+0x96>
        __HAL_RCC_PWR_CLK_DISABLE();
 8005012:	4a2b      	ldr	r2, [pc, #172]	@ (80050c0 <HAL_RCC_OscConfig+0x4bc>)
 8005014:	492c      	ldr	r1, [pc, #176]	@ (80050c8 <HAL_RCC_OscConfig+0x4c4>)
 8005016:	6bd3      	ldr	r3, [r2, #60]	@ 0x3c
 8005018:	400b      	ands	r3, r1
 800501a:	63d3      	str	r3, [r2, #60]	@ 0x3c
 800501c:	e68e      	b.n	8004d3c <HAL_RCC_OscConfig+0x138>
        __HAL_RCC_PLL_DISABLE();
 800501e:	682b      	ldr	r3, [r5, #0]
 8005020:	4a2a      	ldr	r2, [pc, #168]	@ (80050cc <HAL_RCC_OscConfig+0x4c8>)
        while (READ_BIT(RCC->CR, RCC_CR_PLLRDY) != 0U)
 8005022:	2780      	movs	r7, #128	@ 0x80
        __HAL_RCC_PLL_DISABLE();
 8005024:	4013      	ands	r3, r2
 8005026:	602b      	str	r3, [r5, #0]
        tickstart = HAL_GetTick();
 8005028:	f7fe f9e2 	bl	80033f0 <HAL_GetTick>
        while (READ_BIT(RCC->CR, RCC_CR_PLLRDY) != 0U)
 800502c:	04bf      	lsls	r7, r7, #18
        tickstart = HAL_GetTick();
 800502e:	0006      	movs	r6, r0
        while (READ_BIT(RCC->CR, RCC_CR_PLLRDY) != 0U)
 8005030:	e005      	b.n	800503e <HAL_RCC_OscConfig+0x43a>
          if ((HAL_GetTick() - tickstart) > PLL_TIMEOUT_VALUE)
 8005032:	f7fe f9dd 	bl	80033f0 <HAL_GetTick>
 8005036:	1b80      	subs	r0, r0, r6
 8005038:	2802      	cmp	r0, #2
 800503a:	d900      	bls.n	800503e <HAL_RCC_OscConfig+0x43a>
 800503c:	e765      	b.n	8004f0a <HAL_RCC_OscConfig+0x306>
        while (READ_BIT(RCC->CR, RCC_CR_PLLRDY) != 0U)
 800503e:	682b      	ldr	r3, [r5, #0]
 8005040:	423b      	tst	r3, r7
 8005042:	d1f6      	bne.n	8005032 <HAL_RCC_OscConfig+0x42e>
        __HAL_RCC_PLL_CONFIG(RCC_OscInitStruct->PLL.PLLSource,
 8005044:	6a61      	ldr	r1, [r4, #36]	@ 0x24
 8005046:	6a23      	ldr	r3, [r4, #32]
 8005048:	68ea      	ldr	r2, [r5, #12]
 800504a:	430b      	orrs	r3, r1
 800504c:	4920      	ldr	r1, [pc, #128]	@ (80050d0 <HAL_RCC_OscConfig+0x4cc>)
        while (READ_BIT(RCC->CR, RCC_CR_PLLRDY) == 0U)
 800504e:	4e1c      	ldr	r6, [pc, #112]	@ (80050c0 <HAL_RCC_OscConfig+0x4bc>)
        __HAL_RCC_PLL_CONFIG(RCC_OscInitStruct->PLL.PLLSource,
 8005050:	400a      	ands	r2, r1
 8005052:	4313      	orrs	r3, r2
 8005054:	6ae2      	ldr	r2, [r4, #44]	@ 0x2c
 8005056:	4313      	orrs	r3, r2
 8005058:	6b22      	ldr	r2, [r4, #48]	@ 0x30
 800505a:	4313      	orrs	r3, r2
 800505c:	6b62      	ldr	r2, [r4, #52]	@ 0x34
 800505e:	4313      	orrs	r3, r2
 8005060:	6aa2      	ldr	r2, [r4, #40]	@ 0x28
 8005062:	0212      	lsls	r2, r2, #8
 8005064:	4313      	orrs	r3, r2
 8005066:	60eb      	str	r3, [r5, #12]
        __HAL_RCC_PLL_ENABLE();
 8005068:	2380      	movs	r3, #128	@ 0x80
 800506a:	682a      	ldr	r2, [r5, #0]
 800506c:	045b      	lsls	r3, r3, #17
 800506e:	4313      	orrs	r3, r2
 8005070:	602b      	str	r3, [r5, #0]
        __HAL_RCC_PLLCLKOUT_ENABLE(RCC_PLLRCLK);
 8005072:	2380      	movs	r3, #128	@ 0x80
 8005074:	68ea      	ldr	r2, [r5, #12]
 8005076:	055b      	lsls	r3, r3, #21
 8005078:	4313      	orrs	r3, r2
 800507a:	60eb      	str	r3, [r5, #12]
        tickstart = HAL_GetTick();
 800507c:	f7fe f9b8 	bl	80033f0 <HAL_GetTick>
        while (READ_BIT(RCC->CR, RCC_CR_PLLRDY) == 0U)
 8005080:	2580      	movs	r5, #128	@ 0x80
        tickstart = HAL_GetTick();
 8005082:	0004      	movs	r4, r0
        while (READ_BIT(RCC->CR, RCC_CR_PLLRDY) == 0U)
 8005084:	04ad      	lsls	r5, r5, #18
 8005086:	e005      	b.n	8005094 <HAL_RCC_OscConfig+0x490>
          if ((HAL_GetTick() - tickstart) > PLL_TIMEOUT_VALUE)
 8005088:	f7fe f9b2 	bl	80033f0 <HAL_GetTick>
 800508c:	1b00      	subs	r0, r0, r4
 800508e:	2802      	cmp	r0, #2
 8005090:	d900      	bls.n	8005094 <HAL_RCC_OscConfig+0x490>
 8005092:	e73a      	b.n	8004f0a <HAL_RCC_OscConfig+0x306>
        while (READ_BIT(RCC->CR, RCC_CR_PLLRDY) == 0U)
 8005094:	6833      	ldr	r3, [r6, #0]
 8005096:	422b      	tst	r3, r5
 8005098:	d0f6      	beq.n	8005088 <HAL_RCC_OscConfig+0x484>
  return HAL_OK;
 800509a:	2000      	movs	r0, #0
 800509c:	e5e3      	b.n	8004c66 <HAL_RCC_OscConfig+0x62>
      __HAL_RCC_LSE_CONFIG(RCC_OscInitStruct->LSEState);
 800509e:	2104      	movs	r1, #4
 80050a0:	4b07      	ldr	r3, [pc, #28]	@ (80050c0 <HAL_RCC_OscConfig+0x4bc>)
 80050a2:	6dda      	ldr	r2, [r3, #92]	@ 0x5c
 80050a4:	430a      	orrs	r2, r1
 80050a6:	65da      	str	r2, [r3, #92]	@ 0x5c
 80050a8:	6dda      	ldr	r2, [r3, #92]	@ 0x5c
 80050aa:	3903      	subs	r1, #3
 80050ac:	430a      	orrs	r2, r1
 80050ae:	65da      	str	r2, [r3, #92]	@ 0x5c
      if (RCC_OscInitStruct->LSEState != RCC_LSE_OFF)
 80050b0:	e70a      	b.n	8004ec8 <HAL_RCC_OscConfig+0x2c4>
      if ((READ_BIT(RCC->CR, RCC_CR_HSIRDY) != 0U) && (RCC_OscInitStruct->HSIState == RCC_HSI_OFF))
 80050b2:	68e3      	ldr	r3, [r4, #12]
 80050b4:	2b00      	cmp	r3, #0
 80050b6:	d1a4      	bne.n	8005002 <HAL_RCC_OscConfig+0x3fe>
 80050b8:	e5d4      	b.n	8004c64 <HAL_RCC_OscConfig+0x60>
 80050ba:	46c0      	nop			@ (mov r8, r8)
 80050bc:	fffffeff 	.word	0xfffffeff
 80050c0:	40021000 	.word	0x40021000
 80050c4:	ffff80ff 	.word	0xffff80ff
 80050c8:	efffffff 	.word	0xefffffff
 80050cc:	feffffff 	.word	0xfeffffff
 80050d0:	11c1808c 	.word	0x11c1808c

080050d4 <HAL_RCC_GetSysClockFreq>:
uint32_t HAL_RCC_GetSysClockFreq(void)
{
  uint32_t pllvco, pllsource, pllr, pllm, hsidiv;
  uint32_t sysclockfreq;

  if (__HAL_RCC_GET_SYSCLK_SOURCE() == RCC_SYSCLKSOURCE_STATUS_HSI)
 80050d4:	2338      	movs	r3, #56	@ 0x38
 80050d6:	4a22      	ldr	r2, [pc, #136]	@ (8005160 <HAL_RCC_GetSysClockFreq+0x8c>)
{
 80050d8:	b510      	push	{r4, lr}
  if (__HAL_RCC_GET_SYSCLK_SOURCE() == RCC_SYSCLKSOURCE_STATUS_HSI)
 80050da:	6891      	ldr	r1, [r2, #8]
 80050dc:	420b      	tst	r3, r1
 80050de:	d105      	bne.n	80050ec <HAL_RCC_GetSysClockFreq+0x18>
  {
    /* HSISYS can be derived for HSI16 */
    hsidiv = (1UL << ((READ_BIT(RCC->CR, RCC_CR_HSIDIV)) >> RCC_CR_HSIDIV_Pos));
 80050e0:	6813      	ldr	r3, [r2, #0]

    /* HSI used as system clock source */
    sysclockfreq = (HSI_VALUE / hsidiv);
 80050e2:	4820      	ldr	r0, [pc, #128]	@ (8005164 <HAL_RCC_GetSysClockFreq+0x90>)
    hsidiv = (1UL << ((READ_BIT(RCC->CR, RCC_CR_HSIDIV)) >> RCC_CR_HSIDIV_Pos));
 80050e4:	049b      	lsls	r3, r3, #18
 80050e6:	0f5b      	lsrs	r3, r3, #29
    sysclockfreq = (HSI_VALUE / hsidiv);
 80050e8:	40d8      	lsrs	r0, r3
  {
    sysclockfreq = 0U;
  }

  return sysclockfreq;
}
 80050ea:	bd10      	pop	{r4, pc}
  else if (__HAL_RCC_GET_SYSCLK_SOURCE() == RCC_SYSCLKSOURCE_STATUS_HSE)
 80050ec:	6891      	ldr	r1, [r2, #8]
 80050ee:	4019      	ands	r1, r3
 80050f0:	2908      	cmp	r1, #8
 80050f2:	d014      	beq.n	800511e <HAL_RCC_GetSysClockFreq+0x4a>
  else if (__HAL_RCC_GET_SYSCLK_SOURCE() == RCC_SYSCLKSOURCE_STATUS_PLLCLK)
 80050f4:	6891      	ldr	r1, [r2, #8]
 80050f6:	4019      	ands	r1, r3
 80050f8:	2910      	cmp	r1, #16
 80050fa:	d012      	beq.n	8005122 <HAL_RCC_GetSysClockFreq+0x4e>
  else if (__HAL_RCC_GET_SYSCLK_SOURCE() == RCC_SYSCLKSOURCE_STATUS_LSE)
 80050fc:	6891      	ldr	r1, [r2, #8]
 80050fe:	4019      	ands	r1, r3
 8005100:	2920      	cmp	r1, #32
 8005102:	d024      	beq.n	800514e <HAL_RCC_GetSysClockFreq+0x7a>
  else if (__HAL_RCC_GET_SYSCLK_SOURCE() == RCC_SYSCLKSOURCE_STATUS_LSI)
 8005104:	6890      	ldr	r0, [r2, #8]
 8005106:	4018      	ands	r0, r3
    sysclockfreq = LSI_VALUE;
 8005108:	3818      	subs	r0, #24
 800510a:	1e43      	subs	r3, r0, #1
 800510c:	4198      	sbcs	r0, r3
 800510e:	4b16      	ldr	r3, [pc, #88]	@ (8005168 <HAL_RCC_GetSysClockFreq+0x94>)
 8005110:	4240      	negs	r0, r0
 8005112:	4018      	ands	r0, r3
 8005114:	23fa      	movs	r3, #250	@ 0xfa
 8005116:	01db      	lsls	r3, r3, #7
 8005118:	469c      	mov	ip, r3
 800511a:	4460      	add	r0, ip
 800511c:	e7e5      	b.n	80050ea <HAL_RCC_GetSysClockFreq+0x16>
    sysclockfreq = HSE_VALUE;
 800511e:	4813      	ldr	r0, [pc, #76]	@ (800516c <HAL_RCC_GetSysClockFreq+0x98>)
 8005120:	e7e3      	b.n	80050ea <HAL_RCC_GetSysClockFreq+0x16>
    pllsource = (RCC->PLLCFGR & RCC_PLLCFGR_PLLSRC);
 8005122:	68d3      	ldr	r3, [r2, #12]
    pllm = ((RCC->PLLCFGR & RCC_PLLCFGR_PLLM) >> RCC_PLLCFGR_PLLM_Pos) + 1U ;
 8005124:	68d1      	ldr	r1, [r2, #12]
    pllsource = (RCC->PLLCFGR & RCC_PLLCFGR_PLLSRC);
 8005126:	43db      	mvns	r3, r3
        pllvco = (HSI_VALUE / pllm) * ((RCC->PLLCFGR & RCC_PLLCFGR_PLLN) >> RCC_PLLCFGR_PLLN_Pos) ;
 8005128:	68d4      	ldr	r4, [r2, #12]
    pllm = ((RCC->PLLCFGR & RCC_PLLCFGR_PLLM) >> RCC_PLLCFGR_PLLM_Pos) + 1U ;
 800512a:	0649      	lsls	r1, r1, #25
 800512c:	0f49      	lsrs	r1, r1, #29
        pllvco = (HSI_VALUE / pllm) * ((RCC->PLLCFGR & RCC_PLLCFGR_PLLN) >> RCC_PLLCFGR_PLLN_Pos) ;
 800512e:	0464      	lsls	r4, r4, #17
    pllm = ((RCC->PLLCFGR & RCC_PLLCFGR_PLLM) >> RCC_PLLCFGR_PLLM_Pos) + 1U ;
 8005130:	3101      	adds	r1, #1
        pllvco = (HSI_VALUE / pllm) * ((RCC->PLLCFGR & RCC_PLLCFGR_PLLN) >> RCC_PLLCFGR_PLLN_Pos) ;
 8005132:	0e64      	lsrs	r4, r4, #25
    switch (pllsource)
 8005134:	079b      	lsls	r3, r3, #30
 8005136:	d00d      	beq.n	8005154 <HAL_RCC_GetSysClockFreq+0x80>
        pllvco = (HSI_VALUE / pllm) * ((RCC->PLLCFGR & RCC_PLLCFGR_PLLN) >> RCC_PLLCFGR_PLLN_Pos) ;
 8005138:	480a      	ldr	r0, [pc, #40]	@ (8005164 <HAL_RCC_GetSysClockFreq+0x90>)
 800513a:	f7fa ffe3 	bl	8000104 <__udivsi3>
 800513e:	4360      	muls	r0, r4
    pllr = (((RCC->PLLCFGR & RCC_PLLCFGR_PLLR) >> RCC_PLLCFGR_PLLR_Pos) + 1U);
 8005140:	4b07      	ldr	r3, [pc, #28]	@ (8005160 <HAL_RCC_GetSysClockFreq+0x8c>)
 8005142:	68d9      	ldr	r1, [r3, #12]
 8005144:	0f49      	lsrs	r1, r1, #29
 8005146:	3101      	adds	r1, #1
    sysclockfreq = pllvco / pllr;
 8005148:	f7fa ffdc 	bl	8000104 <__udivsi3>
  return sysclockfreq;
 800514c:	e7cd      	b.n	80050ea <HAL_RCC_GetSysClockFreq+0x16>
    sysclockfreq = LSE_VALUE;
 800514e:	2080      	movs	r0, #128	@ 0x80
 8005150:	0200      	lsls	r0, r0, #8
 8005152:	e7ca      	b.n	80050ea <HAL_RCC_GetSysClockFreq+0x16>
        pllvco = (HSE_VALUE / pllm) * ((RCC->PLLCFGR & RCC_PLLCFGR_PLLN) >> RCC_PLLCFGR_PLLN_Pos);
 8005154:	4805      	ldr	r0, [pc, #20]	@ (800516c <HAL_RCC_GetSysClockFreq+0x98>)
 8005156:	f7fa ffd5 	bl	8000104 <__udivsi3>
 800515a:	4360      	muls	r0, r4
        break;
 800515c:	e7f0      	b.n	8005140 <HAL_RCC_GetSysClockFreq+0x6c>
 800515e:	46c0      	nop			@ (mov r8, r8)
 8005160:	40021000 	.word	0x40021000
 8005164:	00f42400 	.word	0x00f42400
 8005168:	ffff8300 	.word	0xffff8300
 800516c:	007a1200 	.word	0x007a1200

08005170 <HAL_RCC_ClockConfig>:
{
 8005170:	b5f8      	push	{r3, r4, r5, r6, r7, lr}
 8005172:	46ce      	mov	lr, r9
 8005174:	4647      	mov	r7, r8
 8005176:	0005      	movs	r5, r0
 8005178:	000c      	movs	r4, r1
 800517a:	b580      	push	{r7, lr}
  if (RCC_ClkInitStruct == NULL)
 800517c:	2800      	cmp	r0, #0
 800517e:	d026      	beq.n	80051ce <HAL_RCC_ClockConfig+0x5e>
  if (FLatency > __HAL_FLASH_GET_LATENCY())
 8005180:	2207      	movs	r2, #7
 8005182:	4e57      	ldr	r6, [pc, #348]	@ (80052e0 <HAL_RCC_ClockConfig+0x170>)
 8005184:	6833      	ldr	r3, [r6, #0]
 8005186:	4013      	ands	r3, r2
 8005188:	428b      	cmp	r3, r1
 800518a:	d35e      	bcc.n	800524a <HAL_RCC_ClockConfig+0xda>
  if (((RCC_ClkInitStruct->ClockType) & RCC_CLOCKTYPE_HCLK) == RCC_CLOCKTYPE_HCLK)
 800518c:	682b      	ldr	r3, [r5, #0]
 800518e:	079a      	lsls	r2, r3, #30
 8005190:	d50e      	bpl.n	80051b0 <HAL_RCC_ClockConfig+0x40>
    if (((RCC_ClkInitStruct->ClockType) & RCC_CLOCKTYPE_PCLK1) == RCC_CLOCKTYPE_PCLK1)
 8005192:	075a      	lsls	r2, r3, #29
 8005194:	d505      	bpl.n	80051a2 <HAL_RCC_ClockConfig+0x32>
      MODIFY_REG(RCC->CFGR, RCC_CFGR_PPRE, RCC_HCLK_DIV16);
 8005196:	22e0      	movs	r2, #224	@ 0xe0
 8005198:	4952      	ldr	r1, [pc, #328]	@ (80052e4 <HAL_RCC_ClockConfig+0x174>)
 800519a:	01d2      	lsls	r2, r2, #7
 800519c:	6888      	ldr	r0, [r1, #8]
 800519e:	4302      	orrs	r2, r0
 80051a0:	608a      	str	r2, [r1, #8]
    MODIFY_REG(RCC->CFGR, RCC_CFGR_HPRE, RCC_ClkInitStruct->AHBCLKDivider);
 80051a2:	4950      	ldr	r1, [pc, #320]	@ (80052e4 <HAL_RCC_ClockConfig+0x174>)
 80051a4:	4850      	ldr	r0, [pc, #320]	@ (80052e8 <HAL_RCC_ClockConfig+0x178>)
 80051a6:	688a      	ldr	r2, [r1, #8]
 80051a8:	4002      	ands	r2, r0
 80051aa:	68a8      	ldr	r0, [r5, #8]
 80051ac:	4302      	orrs	r2, r0
 80051ae:	608a      	str	r2, [r1, #8]
  if (((RCC_ClkInitStruct->ClockType) & RCC_CLOCKTYPE_SYSCLK) == RCC_CLOCKTYPE_SYSCLK)
 80051b0:	07db      	lsls	r3, r3, #31
 80051b2:	d52b      	bpl.n	800520c <HAL_RCC_ClockConfig+0x9c>
    if (RCC_ClkInitStruct->SYSCLKSource == RCC_SYSCLKSOURCE_HSE)
 80051b4:	686b      	ldr	r3, [r5, #4]
      if (READ_BIT(RCC->CR, RCC_CR_HSERDY) == 0U)
 80051b6:	4a4b      	ldr	r2, [pc, #300]	@ (80052e4 <HAL_RCC_ClockConfig+0x174>)
    if (RCC_ClkInitStruct->SYSCLKSource == RCC_SYSCLKSOURCE_HSE)
 80051b8:	2b01      	cmp	r3, #1
 80051ba:	d100      	bne.n	80051be <HAL_RCC_ClockConfig+0x4e>
 80051bc:	e07c      	b.n	80052b8 <HAL_RCC_ClockConfig+0x148>
    else if (RCC_ClkInitStruct->SYSCLKSource == RCC_SYSCLKSOURCE_PLLCLK)
 80051be:	2b02      	cmp	r3, #2
 80051c0:	d007      	beq.n	80051d2 <HAL_RCC_ClockConfig+0x62>
    else if (RCC_ClkInitStruct->SYSCLKSource == RCC_SYSCLKSOURCE_HSI)
 80051c2:	2b00      	cmp	r3, #0
 80051c4:	d000      	beq.n	80051c8 <HAL_RCC_ClockConfig+0x58>
 80051c6:	e07d      	b.n	80052c4 <HAL_RCC_ClockConfig+0x154>
      if (READ_BIT(RCC->CR, RCC_CR_HSIRDY) == 0U)
 80051c8:	6812      	ldr	r2, [r2, #0]
 80051ca:	0552      	lsls	r2, r2, #21
 80051cc:	d404      	bmi.n	80051d8 <HAL_RCC_ClockConfig+0x68>
    return HAL_ERROR;
 80051ce:	2001      	movs	r0, #1
 80051d0:	e037      	b.n	8005242 <HAL_RCC_ClockConfig+0xd2>
      if (READ_BIT(RCC->CR, RCC_CR_PLLRDY) == 0U)
 80051d2:	6812      	ldr	r2, [r2, #0]
 80051d4:	0192      	lsls	r2, r2, #6
 80051d6:	d5fa      	bpl.n	80051ce <HAL_RCC_ClockConfig+0x5e>
    MODIFY_REG(RCC->CFGR, RCC_CFGR_SW, RCC_ClkInitStruct->SYSCLKSource);
 80051d8:	2107      	movs	r1, #7
 80051da:	4e42      	ldr	r6, [pc, #264]	@ (80052e4 <HAL_RCC_ClockConfig+0x174>)
 80051dc:	68b2      	ldr	r2, [r6, #8]
 80051de:	438a      	bics	r2, r1
 80051e0:	4313      	orrs	r3, r2
 80051e2:	60b3      	str	r3, [r6, #8]
    tickstart = HAL_GetTick();
 80051e4:	f7fe f904 	bl	80033f0 <HAL_GetTick>
    while (__HAL_RCC_GET_SYSCLK_SOURCE() != (RCC_ClkInitStruct->SYSCLKSource << RCC_CFGR_SWS_Pos))
 80051e8:	2338      	movs	r3, #56	@ 0x38
 80051ea:	4698      	mov	r8, r3
      if ((HAL_GetTick() - tickstart) > CLOCKSWITCH_TIMEOUT_VALUE)
 80051ec:	4b3f      	ldr	r3, [pc, #252]	@ (80052ec <HAL_RCC_ClockConfig+0x17c>)
    tickstart = HAL_GetTick();
 80051ee:	0007      	movs	r7, r0
      if ((HAL_GetTick() - tickstart) > CLOCKSWITCH_TIMEOUT_VALUE)
 80051f0:	4699      	mov	r9, r3
    while (__HAL_RCC_GET_SYSCLK_SOURCE() != (RCC_ClkInitStruct->SYSCLKSource << RCC_CFGR_SWS_Pos))
 80051f2:	e004      	b.n	80051fe <HAL_RCC_ClockConfig+0x8e>
      if ((HAL_GetTick() - tickstart) > CLOCKSWITCH_TIMEOUT_VALUE)
 80051f4:	f7fe f8fc 	bl	80033f0 <HAL_GetTick>
 80051f8:	1bc0      	subs	r0, r0, r7
 80051fa:	4548      	cmp	r0, r9
 80051fc:	d83b      	bhi.n	8005276 <HAL_RCC_ClockConfig+0x106>
    while (__HAL_RCC_GET_SYSCLK_SOURCE() != (RCC_ClkInitStruct->SYSCLKSource << RCC_CFGR_SWS_Pos))
 80051fe:	4643      	mov	r3, r8
 8005200:	68b2      	ldr	r2, [r6, #8]
 8005202:	401a      	ands	r2, r3
 8005204:	686b      	ldr	r3, [r5, #4]
 8005206:	00db      	lsls	r3, r3, #3
 8005208:	429a      	cmp	r2, r3
 800520a:	d1f3      	bne.n	80051f4 <HAL_RCC_ClockConfig+0x84>
  if (FLatency < __HAL_FLASH_GET_LATENCY())
 800520c:	2207      	movs	r2, #7
 800520e:	4e34      	ldr	r6, [pc, #208]	@ (80052e0 <HAL_RCC_ClockConfig+0x170>)
 8005210:	6833      	ldr	r3, [r6, #0]
 8005212:	4013      	ands	r3, r2
 8005214:	42a3      	cmp	r3, r4
 8005216:	d838      	bhi.n	800528a <HAL_RCC_ClockConfig+0x11a>
  if (((RCC_ClkInitStruct->ClockType) & RCC_CLOCKTYPE_PCLK1) == RCC_CLOCKTYPE_PCLK1)
 8005218:	682b      	ldr	r3, [r5, #0]
 800521a:	075b      	lsls	r3, r3, #29
 800521c:	d42d      	bmi.n	800527a <HAL_RCC_ClockConfig+0x10a>
  SystemCoreClock = (HAL_RCC_GetSysClockFreq() >> ((AHBPrescTable[(RCC->CFGR & RCC_CFGR_HPRE) >> RCC_CFGR_HPRE_Pos]) & 0x1FU));
 800521e:	f7ff ff59 	bl	80050d4 <HAL_RCC_GetSysClockFreq>
 8005222:	4b30      	ldr	r3, [pc, #192]	@ (80052e4 <HAL_RCC_ClockConfig+0x174>)
 8005224:	4a32      	ldr	r2, [pc, #200]	@ (80052f0 <HAL_RCC_ClockConfig+0x180>)
 8005226:	689b      	ldr	r3, [r3, #8]
 8005228:	4932      	ldr	r1, [pc, #200]	@ (80052f4 <HAL_RCC_ClockConfig+0x184>)
 800522a:	051b      	lsls	r3, r3, #20
 800522c:	0f1b      	lsrs	r3, r3, #28
 800522e:	009b      	lsls	r3, r3, #2
 8005230:	589b      	ldr	r3, [r3, r2]
 8005232:	221f      	movs	r2, #31
 8005234:	4013      	ands	r3, r2
 8005236:	40d8      	lsrs	r0, r3
  return HAL_InitTick(uwTickPrio);
 8005238:	4b2f      	ldr	r3, [pc, #188]	@ (80052f8 <HAL_RCC_ClockConfig+0x188>)
  SystemCoreClock = (HAL_RCC_GetSysClockFreq() >> ((AHBPrescTable[(RCC->CFGR & RCC_CFGR_HPRE) >> RCC_CFGR_HPRE_Pos]) & 0x1FU));
 800523a:	6008      	str	r0, [r1, #0]
  return HAL_InitTick(uwTickPrio);
 800523c:	6818      	ldr	r0, [r3, #0]
 800523e:	f7fe f891 	bl	8003364 <HAL_InitTick>
}
 8005242:	bcc0      	pop	{r6, r7}
 8005244:	46b9      	mov	r9, r7
 8005246:	46b0      	mov	r8, r6
 8005248:	bdf8      	pop	{r3, r4, r5, r6, r7, pc}
    __HAL_FLASH_SET_LATENCY(FLatency);
 800524a:	6833      	ldr	r3, [r6, #0]
 800524c:	4393      	bics	r3, r2
 800524e:	430b      	orrs	r3, r1
 8005250:	6033      	str	r3, [r6, #0]
    tickstart = HAL_GetTick();
 8005252:	f7fe f8cd 	bl	80033f0 <HAL_GetTick>
    while ((FLASH->ACR & FLASH_ACR_LATENCY) != FLatency)
 8005256:	2307      	movs	r3, #7
 8005258:	4698      	mov	r8, r3
      if ((HAL_GetTick() - tickstart) > CLOCKSWITCH_TIMEOUT_VALUE)
 800525a:	4b24      	ldr	r3, [pc, #144]	@ (80052ec <HAL_RCC_ClockConfig+0x17c>)
    tickstart = HAL_GetTick();
 800525c:	0007      	movs	r7, r0
      if ((HAL_GetTick() - tickstart) > CLOCKSWITCH_TIMEOUT_VALUE)
 800525e:	4699      	mov	r9, r3
    while ((FLASH->ACR & FLASH_ACR_LATENCY) != FLatency)
 8005260:	4642      	mov	r2, r8
 8005262:	6833      	ldr	r3, [r6, #0]
 8005264:	4013      	ands	r3, r2
 8005266:	42a3      	cmp	r3, r4
 8005268:	d100      	bne.n	800526c <HAL_RCC_ClockConfig+0xfc>
 800526a:	e78f      	b.n	800518c <HAL_RCC_ClockConfig+0x1c>
      if ((HAL_GetTick() - tickstart) > CLOCKSWITCH_TIMEOUT_VALUE)
 800526c:	f7fe f8c0 	bl	80033f0 <HAL_GetTick>
 8005270:	1bc0      	subs	r0, r0, r7
 8005272:	4548      	cmp	r0, r9
 8005274:	d9f4      	bls.n	8005260 <HAL_RCC_ClockConfig+0xf0>
        return HAL_TIMEOUT;
 8005276:	2003      	movs	r0, #3
 8005278:	e7e3      	b.n	8005242 <HAL_RCC_ClockConfig+0xd2>
    MODIFY_REG(RCC->CFGR, RCC_CFGR_PPRE, RCC_ClkInitStruct->APB1CLKDivider);
 800527a:	4a1a      	ldr	r2, [pc, #104]	@ (80052e4 <HAL_RCC_ClockConfig+0x174>)
 800527c:	491f      	ldr	r1, [pc, #124]	@ (80052fc <HAL_RCC_ClockConfig+0x18c>)
 800527e:	6893      	ldr	r3, [r2, #8]
 8005280:	400b      	ands	r3, r1
 8005282:	68e9      	ldr	r1, [r5, #12]
 8005284:	430b      	orrs	r3, r1
 8005286:	6093      	str	r3, [r2, #8]
 8005288:	e7c9      	b.n	800521e <HAL_RCC_ClockConfig+0xae>
    __HAL_FLASH_SET_LATENCY(FLatency);
 800528a:	6833      	ldr	r3, [r6, #0]
 800528c:	4393      	bics	r3, r2
 800528e:	4323      	orrs	r3, r4
 8005290:	6033      	str	r3, [r6, #0]
    tickstart = HAL_GetTick();
 8005292:	f7fe f8ad 	bl	80033f0 <HAL_GetTick>
    while ((FLASH->ACR & FLASH_ACR_LATENCY) != FLatency)
 8005296:	2307      	movs	r3, #7
 8005298:	4698      	mov	r8, r3
      if ((HAL_GetTick() - tickstart) > CLOCKSWITCH_TIMEOUT_VALUE)
 800529a:	4b14      	ldr	r3, [pc, #80]	@ (80052ec <HAL_RCC_ClockConfig+0x17c>)
    tickstart = HAL_GetTick();
 800529c:	0007      	movs	r7, r0
      if ((HAL_GetTick() - tickstart) > CLOCKSWITCH_TIMEOUT_VALUE)
 800529e:	4699      	mov	r9, r3
    while ((FLASH->ACR & FLASH_ACR_LATENCY) != FLatency)
 80052a0:	4642      	mov	r2, r8
 80052a2:	6833      	ldr	r3, [r6, #0]
 80052a4:	4013      	ands	r3, r2
 80052a6:	42a3      	cmp	r3, r4
 80052a8:	d0b6      	beq.n	8005218 <HAL_RCC_ClockConfig+0xa8>
      if ((HAL_GetTick() - tickstart) > CLOCKSWITCH_TIMEOUT_VALUE)
 80052aa:	f7fe f8a1 	bl	80033f0 <HAL_GetTick>
 80052ae:	1bc0      	subs	r0, r0, r7
 80052b0:	4548      	cmp	r0, r9
 80052b2:	d9f5      	bls.n	80052a0 <HAL_RCC_ClockConfig+0x130>
        return HAL_TIMEOUT;
 80052b4:	2003      	movs	r0, #3
 80052b6:	e7c4      	b.n	8005242 <HAL_RCC_ClockConfig+0xd2>
      if (READ_BIT(RCC->CR, RCC_CR_HSERDY) == 0U)
 80052b8:	6812      	ldr	r2, [r2, #0]
 80052ba:	0392      	lsls	r2, r2, #14
 80052bc:	d500      	bpl.n	80052c0 <HAL_RCC_ClockConfig+0x150>
 80052be:	e78b      	b.n	80051d8 <HAL_RCC_ClockConfig+0x68>
    return HAL_ERROR;
 80052c0:	2001      	movs	r0, #1
 80052c2:	e7be      	b.n	8005242 <HAL_RCC_ClockConfig+0xd2>
    else if (RCC_ClkInitStruct->SYSCLKSource == RCC_SYSCLKSOURCE_LSI)
 80052c4:	2b03      	cmp	r3, #3
 80052c6:	d005      	beq.n	80052d4 <HAL_RCC_ClockConfig+0x164>
      if (READ_BIT(RCC->BDCR, RCC_BDCR_LSERDY) == 0U)
 80052c8:	6dd2      	ldr	r2, [r2, #92]	@ 0x5c
 80052ca:	0792      	lsls	r2, r2, #30
 80052cc:	d500      	bpl.n	80052d0 <HAL_RCC_ClockConfig+0x160>
 80052ce:	e783      	b.n	80051d8 <HAL_RCC_ClockConfig+0x68>
    return HAL_ERROR;
 80052d0:	2001      	movs	r0, #1
 80052d2:	e7b6      	b.n	8005242 <HAL_RCC_ClockConfig+0xd2>
      if (READ_BIT(RCC->CSR, RCC_CSR_LSIRDY) == 0U)
 80052d4:	6e12      	ldr	r2, [r2, #96]	@ 0x60
 80052d6:	0792      	lsls	r2, r2, #30
 80052d8:	d500      	bpl.n	80052dc <HAL_RCC_ClockConfig+0x16c>
 80052da:	e77d      	b.n	80051d8 <HAL_RCC_ClockConfig+0x68>
    return HAL_ERROR;
 80052dc:	2001      	movs	r0, #1
 80052de:	e7b0      	b.n	8005242 <HAL_RCC_ClockConfig+0xd2>
 80052e0:	40022000 	.word	0x40022000
 80052e4:	40021000 	.word	0x40021000
 80052e8:	fffff0ff 	.word	0xfffff0ff
 80052ec:	00001388 	.word	0x00001388
 80052f0:	0800848c 	.word	0x0800848c
 80052f4:	20000440 	.word	0x20000440
 80052f8:	20000448 	.word	0x20000448
 80052fc:	ffff8fff 	.word	0xffff8fff

08005300 <HAL_RCC_GetPCLK1Freq>:
  *         @arg @ref LL_RCC_APB1_DIV_8
  *         @arg @ref LL_RCC_APB1_DIV_16
  */
__STATIC_INLINE uint32_t LL_RCC_GetAPB1Prescaler(void)
{
  return (uint32_t)(READ_BIT(RCC->CFGR, RCC_CFGR_PPRE));
 8005300:	4b06      	ldr	r3, [pc, #24]	@ (800531c <HAL_RCC_GetPCLK1Freq+0x1c>)
  * @retval PCLK1 frequency in Hz
  */
uint32_t HAL_RCC_GetPCLK1Freq(void)
{
  /* Get HCLK source and Compute PCLK1 frequency ---------------------------*/
  return ((uint32_t)(__LL_RCC_CALC_PCLK1_FREQ(HAL_RCC_GetHCLKFreq(), LL_RCC_GetAPB1Prescaler())));
 8005302:	4907      	ldr	r1, [pc, #28]	@ (8005320 <HAL_RCC_GetPCLK1Freq+0x20>)
 8005304:	689b      	ldr	r3, [r3, #8]
  return SystemCoreClock;
 8005306:	4a07      	ldr	r2, [pc, #28]	@ (8005324 <HAL_RCC_GetPCLK1Freq+0x24>)
  return ((uint32_t)(__LL_RCC_CALC_PCLK1_FREQ(HAL_RCC_GetHCLKFreq(), LL_RCC_GetAPB1Prescaler())));
 8005308:	045b      	lsls	r3, r3, #17
 800530a:	0f5b      	lsrs	r3, r3, #29
 800530c:	009b      	lsls	r3, r3, #2
 800530e:	585b      	ldr	r3, [r3, r1]
 8005310:	211f      	movs	r1, #31
 8005312:	6810      	ldr	r0, [r2, #0]
 8005314:	400b      	ands	r3, r1
 8005316:	40d8      	lsrs	r0, r3
}
 8005318:	4770      	bx	lr
 800531a:	46c0      	nop			@ (mov r8, r8)
 800531c:	40021000 	.word	0x40021000
 8005320:	0800846c 	.word	0x0800846c
 8005324:	20000440 	.word	0x20000440

08005328 <HAL_RCCEx_PeriphCLKConfig>:
  *         the RTC clock source: in this case the access to Backup domain is enabled.
  *
  * @retval HAL status
  */
HAL_StatusTypeDef HAL_RCCEx_PeriphCLKConfig(RCC_PeriphCLKInitTypeDef  *PeriphClkInit)
{
 8005328:	b5f0      	push	{r4, r5, r6, r7, lr}
 800532a:	46d6      	mov	lr, sl
 800532c:	464f      	mov	r7, r9
 800532e:	4646      	mov	r6, r8
 8005330:	b5c0      	push	{r6, r7, lr}

  /* Check the parameters */
  assert_param(IS_RCC_PERIPHCLOCK(PeriphClkInit->PeriphClockSelection));

  /*-------------------------- RTC clock source configuration ----------------------*/
  if ((PeriphClkInit->PeriphClockSelection & RCC_PERIPHCLK_RTC) == RCC_PERIPHCLK_RTC)
 8005332:	6803      	ldr	r3, [r0, #0]
{
 8005334:	0004      	movs	r4, r0
 8005336:	b082      	sub	sp, #8
  HAL_StatusTypeDef status = HAL_OK;   /* Final status */
 8005338:	2000      	movs	r0, #0
  if ((PeriphClkInit->PeriphClockSelection & RCC_PERIPHCLK_RTC) == RCC_PERIPHCLK_RTC)
 800533a:	039a      	lsls	r2, r3, #14
 800533c:	d543      	bpl.n	80053c6 <HAL_RCCEx_PeriphCLKConfig+0x9e>

    /* Check for RTC Parameters used to output RTCCLK */
    assert_param(IS_RCC_RTCCLKSOURCE(PeriphClkInit->RTCClockSelection));

    /* Enable Power Clock */
    if (__HAL_RCC_PWR_IS_CLK_DISABLED())
 800533e:	2280      	movs	r2, #128	@ 0x80
 8005340:	4b68      	ldr	r3, [pc, #416]	@ (80054e4 <HAL_RCCEx_PeriphCLKConfig+0x1bc>)
 8005342:	0552      	lsls	r2, r2, #21
 8005344:	6bd9      	ldr	r1, [r3, #60]	@ 0x3c
    FlagStatus       pwrclkchanged = RESET;
 8005346:	4682      	mov	sl, r0
    if (__HAL_RCC_PWR_IS_CLK_DISABLED())
 8005348:	4211      	tst	r1, r2
 800534a:	d100      	bne.n	800534e <HAL_RCCEx_PeriphCLKConfig+0x26>
 800534c:	e095      	b.n	800547a <HAL_RCCEx_PeriphCLKConfig+0x152>
      __HAL_RCC_PWR_CLK_ENABLE();
      pwrclkchanged = SET;
    }

    /* Enable write access to Backup domain */
    SET_BIT(PWR->CR1, PWR_CR1_DBP);
 800534e:	2780      	movs	r7, #128	@ 0x80
 8005350:	4d65      	ldr	r5, [pc, #404]	@ (80054e8 <HAL_RCCEx_PeriphCLKConfig+0x1c0>)
 8005352:	007f      	lsls	r7, r7, #1
 8005354:	682b      	ldr	r3, [r5, #0]
 8005356:	433b      	orrs	r3, r7
 8005358:	602b      	str	r3, [r5, #0]

    /* Wait for Backup domain Write protection disable */
    tickstart = HAL_GetTick();
 800535a:	f7fe f849 	bl	80033f0 <HAL_GetTick>
 800535e:	0006      	movs	r6, r0

    while ((PWR->CR1 & PWR_CR1_DBP) == 0U)
 8005360:	e004      	b.n	800536c <HAL_RCCEx_PeriphCLKConfig+0x44>
    {
      if ((HAL_GetTick() - tickstart) > RCC_DBP_TIMEOUT_VALUE)
 8005362:	f7fe f845 	bl	80033f0 <HAL_GetTick>
 8005366:	1b80      	subs	r0, r0, r6
 8005368:	2802      	cmp	r0, #2
 800536a:	d827      	bhi.n	80053bc <HAL_RCCEx_PeriphCLKConfig+0x94>
    while ((PWR->CR1 & PWR_CR1_DBP) == 0U)
 800536c:	682b      	ldr	r3, [r5, #0]
 800536e:	423b      	tst	r3, r7
 8005370:	d0f7      	beq.n	8005362 <HAL_RCCEx_PeriphCLKConfig+0x3a>
    }

    if (ret == HAL_OK)
    {
      /* Reset the Backup domain only if the RTC Clock source selection is modified from default */
      tmpregister = READ_BIT(RCC->BDCR, RCC_BDCR_RTCSEL);
 8005372:	4d5c      	ldr	r5, [pc, #368]	@ (80054e4 <HAL_RCCEx_PeriphCLKConfig+0x1bc>)
 8005374:	23c0      	movs	r3, #192	@ 0xc0
 8005376:	6dea      	ldr	r2, [r5, #92]	@ 0x5c
 8005378:	009b      	lsls	r3, r3, #2
 800537a:	0010      	movs	r0, r2

      /* Reset the Backup domain only if the RTC Clock source selection is modified */
      if ((tmpregister != RCC_RTCCLKSOURCE_NONE) && (tmpregister != PeriphClkInit->RTCClockSelection))
 800537c:	6a61      	ldr	r1, [r4, #36]	@ 0x24
      tmpregister = READ_BIT(RCC->BDCR, RCC_BDCR_RTCSEL);
 800537e:	4018      	ands	r0, r3
      if ((tmpregister != RCC_RTCCLKSOURCE_NONE) && (tmpregister != PeriphClkInit->RTCClockSelection))
 8005380:	421a      	tst	r2, r3
 8005382:	d100      	bne.n	8005386 <HAL_RCCEx_PeriphCLKConfig+0x5e>
 8005384:	e0a6      	b.n	80054d4 <HAL_RCCEx_PeriphCLKConfig+0x1ac>
 8005386:	4288      	cmp	r0, r1
 8005388:	d100      	bne.n	800538c <HAL_RCCEx_PeriphCLKConfig+0x64>
 800538a:	e0a3      	b.n	80054d4 <HAL_RCCEx_PeriphCLKConfig+0x1ac>
      {
        /* Store the content of BDCR register before the reset of Backup Domain */
        tmpregister = READ_BIT(RCC->BDCR, ~(RCC_BDCR_RTCSEL));
        /* RTC Clock selection can be changed only if the Backup Domain is reset */
        __HAL_RCC_BACKUPRESET_FORCE();
 800538c:	2080      	movs	r0, #128	@ 0x80
        tmpregister = READ_BIT(RCC->BDCR, ~(RCC_BDCR_RTCSEL));
 800538e:	6deb      	ldr	r3, [r5, #92]	@ 0x5c
        __HAL_RCC_BACKUPRESET_FORCE();
 8005390:	6dee      	ldr	r6, [r5, #92]	@ 0x5c
 8005392:	0240      	lsls	r0, r0, #9
 8005394:	4330      	orrs	r0, r6
 8005396:	65e8      	str	r0, [r5, #92]	@ 0x5c
        __HAL_RCC_BACKUPRESET_RELEASE();
 8005398:	6de8      	ldr	r0, [r5, #92]	@ 0x5c
        tmpregister = READ_BIT(RCC->BDCR, ~(RCC_BDCR_RTCSEL));
 800539a:	4a54      	ldr	r2, [pc, #336]	@ (80054ec <HAL_RCCEx_PeriphCLKConfig+0x1c4>)
        __HAL_RCC_BACKUPRESET_RELEASE();
 800539c:	4e54      	ldr	r6, [pc, #336]	@ (80054f0 <HAL_RCCEx_PeriphCLKConfig+0x1c8>)
        tmpregister = READ_BIT(RCC->BDCR, ~(RCC_BDCR_RTCSEL));
 800539e:	401a      	ands	r2, r3
        __HAL_RCC_BACKUPRESET_RELEASE();
 80053a0:	4030      	ands	r0, r6
 80053a2:	65e8      	str	r0, [r5, #92]	@ 0x5c
        /* Restore the Content of BDCR register */
        RCC->BDCR = tmpregister;
 80053a4:	65ea      	str	r2, [r5, #92]	@ 0x5c
      }

      /* Wait for LSE reactivation if LSE was enable prior to Backup Domain reset */
      if (HAL_IS_BIT_SET(tmpregister, RCC_BDCR_LSEON))
 80053a6:	07db      	lsls	r3, r3, #31
 80053a8:	d400      	bmi.n	80053ac <HAL_RCCEx_PeriphCLKConfig+0x84>
 80053aa:	e093      	b.n	80054d4 <HAL_RCCEx_PeriphCLKConfig+0x1ac>
      {
        /* Get Start Tick*/
        tickstart = HAL_GetTick();
 80053ac:	f7fe f820 	bl	80033f0 <HAL_GetTick>

        /* Wait till LSE is ready */
        while (READ_BIT(RCC->BDCR, RCC_BDCR_LSERDY) == 0U)
 80053b0:	2302      	movs	r3, #2
 80053b2:	4698      	mov	r8, r3
        {
          if ((HAL_GetTick() - tickstart) > RCC_LSE_TIMEOUT_VALUE)
 80053b4:	4b4f      	ldr	r3, [pc, #316]	@ (80054f4 <HAL_RCCEx_PeriphCLKConfig+0x1cc>)
        tickstart = HAL_GetTick();
 80053b6:	0006      	movs	r6, r0
          if ((HAL_GetTick() - tickstart) > RCC_LSE_TIMEOUT_VALUE)
 80053b8:	4699      	mov	r9, r3
        while (READ_BIT(RCC->BDCR, RCC_BDCR_LSERDY) == 0U)
 80053ba:	e086      	b.n	80054ca <HAL_RCCEx_PeriphCLKConfig+0x1a2>
        __HAL_RCC_RTC_CONFIG(PeriphClkInit->RTCClockSelection);
      }
      else
      {
        /* set overall return value */
        status = ret;
 80053bc:	2003      	movs	r0, #3
      /* set overall return value */
      status = ret;
    }

    /* Restore clock configuration if changed */
    if (pwrclkchanged == SET)
 80053be:	4652      	mov	r2, sl
      __HAL_RCC_PWR_CLK_DISABLE();
    }
  }

  /*-------------------------- USART1 clock source configuration -------------------*/
  if (((PeriphClkInit->PeriphClockSelection) & RCC_PERIPHCLK_USART1) == RCC_PERIPHCLK_USART1)
 80053c0:	6823      	ldr	r3, [r4, #0]
    if (pwrclkchanged == SET)
 80053c2:	2a01      	cmp	r2, #1
 80053c4:	d063      	beq.n	800548e <HAL_RCCEx_PeriphCLKConfig+0x166>
  if (((PeriphClkInit->PeriphClockSelection) & RCC_PERIPHCLK_USART1) == RCC_PERIPHCLK_USART1)
 80053c6:	07da      	lsls	r2, r3, #31
 80053c8:	d506      	bpl.n	80053d8 <HAL_RCCEx_PeriphCLKConfig+0xb0>
  {
    /* Check the parameters */
    assert_param(IS_RCC_USART1CLKSOURCE(PeriphClkInit->Usart1ClockSelection));

    /* Configure the USART1 clock source */
    __HAL_RCC_USART1_CONFIG(PeriphClkInit->Usart1ClockSelection);
 80053ca:	2503      	movs	r5, #3
 80053cc:	4945      	ldr	r1, [pc, #276]	@ (80054e4 <HAL_RCCEx_PeriphCLKConfig+0x1bc>)
 80053ce:	6d4a      	ldr	r2, [r1, #84]	@ 0x54
 80053d0:	43aa      	bics	r2, r5
 80053d2:	6865      	ldr	r5, [r4, #4]
 80053d4:	432a      	orrs	r2, r5
 80053d6:	654a      	str	r2, [r1, #84]	@ 0x54
  }
#endif /* RCC_CCIPR_USART3SEL */

#if defined(LPUART1)
  /*-------------------------- LPUART1 clock source configuration ------------------*/
  if (((PeriphClkInit->PeriphClockSelection) & RCC_PERIPHCLK_LPUART1) == RCC_PERIPHCLK_LPUART1)
 80053d8:	06da      	lsls	r2, r3, #27
 80053da:	d506      	bpl.n	80053ea <HAL_RCCEx_PeriphCLKConfig+0xc2>
  {
    /* Check the parameters */
    assert_param(IS_RCC_LPUART1CLKSOURCE(PeriphClkInit->Lpuart1ClockSelection));

    /* Configure the LPUART1 clock source */
    __HAL_RCC_LPUART1_CONFIG(PeriphClkInit->Lpuart1ClockSelection);
 80053dc:	4941      	ldr	r1, [pc, #260]	@ (80054e4 <HAL_RCCEx_PeriphCLKConfig+0x1bc>)
 80053de:	4d46      	ldr	r5, [pc, #280]	@ (80054f8 <HAL_RCCEx_PeriphCLKConfig+0x1d0>)
 80053e0:	6d4a      	ldr	r2, [r1, #84]	@ 0x54
 80053e2:	402a      	ands	r2, r5
 80053e4:	68a5      	ldr	r5, [r4, #8]
 80053e6:	432a      	orrs	r2, r5
 80053e8:	654a      	str	r2, [r1, #84]	@ 0x54
  }
#endif /* LPUART2 */

#if defined(RCC_CCIPR_LPTIM1SEL)
  /*-------------------------- LPTIM1 clock source configuration -------------------*/
  if (((PeriphClkInit->PeriphClockSelection) & RCC_PERIPHCLK_LPTIM1) == (RCC_PERIPHCLK_LPTIM1))
 80053ea:	059a      	lsls	r2, r3, #22
 80053ec:	d506      	bpl.n	80053fc <HAL_RCCEx_PeriphCLKConfig+0xd4>
  {
    assert_param(IS_RCC_LPTIM1CLKSOURCE(PeriphClkInit->Lptim1ClockSelection));
    __HAL_RCC_LPTIM1_CONFIG(PeriphClkInit->Lptim1ClockSelection);
 80053ee:	493d      	ldr	r1, [pc, #244]	@ (80054e4 <HAL_RCCEx_PeriphCLKConfig+0x1bc>)
 80053f0:	4d42      	ldr	r5, [pc, #264]	@ (80054fc <HAL_RCCEx_PeriphCLKConfig+0x1d4>)
 80053f2:	6d4a      	ldr	r2, [r1, #84]	@ 0x54
 80053f4:	402a      	ands	r2, r5
 80053f6:	6965      	ldr	r5, [r4, #20]
 80053f8:	432a      	orrs	r2, r5
 80053fa:	654a      	str	r2, [r1, #84]	@ 0x54
  }
#endif /* RCC_CCIPR_LPTIM1SEL */

#if defined(RCC_CCIPR_LPTIM2SEL)
  /*-------------------------- LPTIM2 clock source configuration -------------------*/
  if (((PeriphClkInit->PeriphClockSelection) & RCC_PERIPHCLK_LPTIM2) == (RCC_PERIPHCLK_LPTIM2))
 80053fc:	055a      	lsls	r2, r3, #21
 80053fe:	d506      	bpl.n	800540e <HAL_RCCEx_PeriphCLKConfig+0xe6>
  {
    assert_param(IS_RCC_LPTIM2CLKSOURCE(PeriphClkInit->Lptim2ClockSelection));
    __HAL_RCC_LPTIM2_CONFIG(PeriphClkInit->Lptim2ClockSelection);
 8005400:	4938      	ldr	r1, [pc, #224]	@ (80054e4 <HAL_RCCEx_PeriphCLKConfig+0x1bc>)
 8005402:	4d3f      	ldr	r5, [pc, #252]	@ (8005500 <HAL_RCCEx_PeriphCLKConfig+0x1d8>)
 8005404:	6d4a      	ldr	r2, [r1, #84]	@ 0x54
 8005406:	402a      	ands	r2, r5
 8005408:	69a5      	ldr	r5, [r4, #24]
 800540a:	432a      	orrs	r2, r5
 800540c:	654a      	str	r2, [r1, #84]	@ 0x54
  }
#endif /* RCC_CCIPR_LPTIM2SEL */

  /*-------------------------- I2C1 clock source configuration ---------------------*/
  if (((PeriphClkInit->PeriphClockSelection) & RCC_PERIPHCLK_I2C1) == RCC_PERIPHCLK_I2C1)
 800540e:	069a      	lsls	r2, r3, #26
 8005410:	d506      	bpl.n	8005420 <HAL_RCCEx_PeriphCLKConfig+0xf8>
  {
    /* Check the parameters */
    assert_param(IS_RCC_I2C1CLKSOURCE(PeriphClkInit->I2c1ClockSelection));

    /* Configure the I2C1 clock source */
    __HAL_RCC_I2C1_CONFIG(PeriphClkInit->I2c1ClockSelection);
 8005412:	4934      	ldr	r1, [pc, #208]	@ (80054e4 <HAL_RCCEx_PeriphCLKConfig+0x1bc>)
 8005414:	4d3b      	ldr	r5, [pc, #236]	@ (8005504 <HAL_RCCEx_PeriphCLKConfig+0x1dc>)
 8005416:	6d4a      	ldr	r2, [r1, #84]	@ 0x54
 8005418:	402a      	ands	r2, r5
 800541a:	68e5      	ldr	r5, [r4, #12]
 800541c:	432a      	orrs	r2, r5
 800541e:	654a      	str	r2, [r1, #84]	@ 0x54
      __HAL_RCC_PLLCLKOUT_ENABLE(RCC_PLLQCLK);
    }
  }
#endif /* RNG */
  /*-------------------------- ADC clock source configuration ----------------------*/
  if (((PeriphClkInit->PeriphClockSelection) & RCC_PERIPHCLK_ADC) == RCC_PERIPHCLK_ADC)
 8005420:	045a      	lsls	r2, r3, #17
 8005422:	d50a      	bpl.n	800543a <HAL_RCCEx_PeriphCLKConfig+0x112>
  {
    /* Check the parameters */
    assert_param(IS_RCC_ADCCLKSOURCE(PeriphClkInit->AdcClockSelection));

    /* Configure the ADC interface clock source */
    __HAL_RCC_ADC_CONFIG(PeriphClkInit->AdcClockSelection);
 8005424:	492f      	ldr	r1, [pc, #188]	@ (80054e4 <HAL_RCCEx_PeriphCLKConfig+0x1bc>)
 8005426:	69e5      	ldr	r5, [r4, #28]
 8005428:	6d4a      	ldr	r2, [r1, #84]	@ 0x54
 800542a:	0092      	lsls	r2, r2, #2
 800542c:	0892      	lsrs	r2, r2, #2
 800542e:	432a      	orrs	r2, r5
 8005430:	654a      	str	r2, [r1, #84]	@ 0x54

    if (PeriphClkInit->AdcClockSelection == RCC_ADCCLKSOURCE_PLLADC)
 8005432:	2280      	movs	r2, #128	@ 0x80
 8005434:	05d2      	lsls	r2, r2, #23
 8005436:	4295      	cmp	r5, r2
 8005438:	d02f      	beq.n	800549a <HAL_RCCEx_PeriphCLKConfig+0x172>
  }
#endif /* CEC */

#if defined(RCC_CCIPR_TIM1SEL)
  /*-------------------------- TIM1 clock source configuration ---------------------*/
  if (((PeriphClkInit->PeriphClockSelection) & RCC_PERIPHCLK_TIM1) == RCC_PERIPHCLK_TIM1)
 800543a:	029a      	lsls	r2, r3, #10
 800543c:	d50a      	bpl.n	8005454 <HAL_RCCEx_PeriphCLKConfig+0x12c>
  {
    /* Check the parameters */
    assert_param(IS_RCC_TIM1CLKSOURCE(PeriphClkInit->Tim1ClockSelection));

    /* Configure the TIM1 clock source */
    __HAL_RCC_TIM1_CONFIG(PeriphClkInit->Tim1ClockSelection);
 800543e:	4929      	ldr	r1, [pc, #164]	@ (80054e4 <HAL_RCCEx_PeriphCLKConfig+0x1bc>)
 8005440:	4e31      	ldr	r6, [pc, #196]	@ (8005508 <HAL_RCCEx_PeriphCLKConfig+0x1e0>)
 8005442:	6d4a      	ldr	r2, [r1, #84]	@ 0x54
 8005444:	6a25      	ldr	r5, [r4, #32]
 8005446:	4032      	ands	r2, r6
 8005448:	432a      	orrs	r2, r5
 800544a:	654a      	str	r2, [r1, #84]	@ 0x54

    if (PeriphClkInit->Tim1ClockSelection == RCC_TIM1CLKSOURCE_PLL)
 800544c:	2280      	movs	r2, #128	@ 0x80
 800544e:	03d2      	lsls	r2, r2, #15
 8005450:	4295      	cmp	r5, r2
 8005452:	d028      	beq.n	80054a6 <HAL_RCCEx_PeriphCLKConfig+0x17e>
    }
  }
#endif /* RCC_CCIPR_TIM15SEL */

  /*-------------------------- I2S1 clock source configuration ---------------------*/
  if (((PeriphClkInit->PeriphClockSelection) & RCC_PERIPHCLK_I2S1) == RCC_PERIPHCLK_I2S1)
 8005454:	051b      	lsls	r3, r3, #20
 8005456:	d50a      	bpl.n	800546e <HAL_RCCEx_PeriphCLKConfig+0x146>
  {
    /* Check the parameters */
    assert_param(IS_RCC_I2S1CLKSOURCE(PeriphClkInit->I2s1ClockSelection));

    /* Configure the I2S1 clock source */
    __HAL_RCC_I2S1_CONFIG(PeriphClkInit->I2s1ClockSelection);
 8005458:	4a22      	ldr	r2, [pc, #136]	@ (80054e4 <HAL_RCCEx_PeriphCLKConfig+0x1bc>)
 800545a:	6921      	ldr	r1, [r4, #16]
 800545c:	6d53      	ldr	r3, [r2, #84]	@ 0x54
 800545e:	4c2b      	ldr	r4, [pc, #172]	@ (800550c <HAL_RCCEx_PeriphCLKConfig+0x1e4>)
 8005460:	4023      	ands	r3, r4
 8005462:	430b      	orrs	r3, r1
 8005464:	6553      	str	r3, [r2, #84]	@ 0x54

    if (PeriphClkInit->I2s1ClockSelection == RCC_I2S1CLKSOURCE_PLL)
 8005466:	2380      	movs	r3, #128	@ 0x80
 8005468:	01db      	lsls	r3, r3, #7
 800546a:	4299      	cmp	r1, r3
 800546c:	d021      	beq.n	80054b2 <HAL_RCCEx_PeriphCLKConfig+0x18a>
    }
  }
#endif /* FDCAN1 || FDCAN2 */

  return status;
}
 800546e:	b002      	add	sp, #8
 8005470:	bce0      	pop	{r5, r6, r7}
 8005472:	46ba      	mov	sl, r7
 8005474:	46b1      	mov	r9, r6
 8005476:	46a8      	mov	r8, r5
 8005478:	bdf0      	pop	{r4, r5, r6, r7, pc}
      __HAL_RCC_PWR_CLK_ENABLE();
 800547a:	6bd9      	ldr	r1, [r3, #60]	@ 0x3c
 800547c:	4311      	orrs	r1, r2
 800547e:	63d9      	str	r1, [r3, #60]	@ 0x3c
 8005480:	6bdb      	ldr	r3, [r3, #60]	@ 0x3c
 8005482:	4013      	ands	r3, r2
 8005484:	9301      	str	r3, [sp, #4]
 8005486:	9b01      	ldr	r3, [sp, #4]
      pwrclkchanged = SET;
 8005488:	2301      	movs	r3, #1
 800548a:	469a      	mov	sl, r3
 800548c:	e75f      	b.n	800534e <HAL_RCCEx_PeriphCLKConfig+0x26>
      __HAL_RCC_PWR_CLK_DISABLE();
 800548e:	4915      	ldr	r1, [pc, #84]	@ (80054e4 <HAL_RCCEx_PeriphCLKConfig+0x1bc>)
 8005490:	4d1f      	ldr	r5, [pc, #124]	@ (8005510 <HAL_RCCEx_PeriphCLKConfig+0x1e8>)
 8005492:	6bca      	ldr	r2, [r1, #60]	@ 0x3c
 8005494:	402a      	ands	r2, r5
 8005496:	63ca      	str	r2, [r1, #60]	@ 0x3c
 8005498:	e795      	b.n	80053c6 <HAL_RCCEx_PeriphCLKConfig+0x9e>
      __HAL_RCC_PLLCLKOUT_ENABLE(RCC_PLLPCLK);
 800549a:	2280      	movs	r2, #128	@ 0x80
 800549c:	68cd      	ldr	r5, [r1, #12]
 800549e:	0252      	lsls	r2, r2, #9
 80054a0:	432a      	orrs	r2, r5
 80054a2:	60ca      	str	r2, [r1, #12]
 80054a4:	e7c9      	b.n	800543a <HAL_RCCEx_PeriphCLKConfig+0x112>
      __HAL_RCC_PLLCLKOUT_ENABLE(RCC_PLLQCLK);
 80054a6:	2280      	movs	r2, #128	@ 0x80
 80054a8:	68cd      	ldr	r5, [r1, #12]
 80054aa:	0452      	lsls	r2, r2, #17
 80054ac:	432a      	orrs	r2, r5
 80054ae:	60ca      	str	r2, [r1, #12]
 80054b0:	e7d0      	b.n	8005454 <HAL_RCCEx_PeriphCLKConfig+0x12c>
      __HAL_RCC_PLLCLKOUT_ENABLE(RCC_PLLPCLK);
 80054b2:	2380      	movs	r3, #128	@ 0x80
 80054b4:	68d1      	ldr	r1, [r2, #12]
 80054b6:	025b      	lsls	r3, r3, #9
 80054b8:	430b      	orrs	r3, r1
 80054ba:	60d3      	str	r3, [r2, #12]
  return status;
 80054bc:	e7d7      	b.n	800546e <HAL_RCCEx_PeriphCLKConfig+0x146>
          if ((HAL_GetTick() - tickstart) > RCC_LSE_TIMEOUT_VALUE)
 80054be:	f7fd ff97 	bl	80033f0 <HAL_GetTick>
 80054c2:	1b80      	subs	r0, r0, r6
 80054c4:	4548      	cmp	r0, r9
 80054c6:	d900      	bls.n	80054ca <HAL_RCCEx_PeriphCLKConfig+0x1a2>
 80054c8:	e778      	b.n	80053bc <HAL_RCCEx_PeriphCLKConfig+0x94>
        while (READ_BIT(RCC->BDCR, RCC_BDCR_LSERDY) == 0U)
 80054ca:	4642      	mov	r2, r8
 80054cc:	6deb      	ldr	r3, [r5, #92]	@ 0x5c
 80054ce:	421a      	tst	r2, r3
 80054d0:	d0f5      	beq.n	80054be <HAL_RCCEx_PeriphCLKConfig+0x196>
        __HAL_RCC_RTC_CONFIG(PeriphClkInit->RTCClockSelection);
 80054d2:	6a61      	ldr	r1, [r4, #36]	@ 0x24
 80054d4:	4a03      	ldr	r2, [pc, #12]	@ (80054e4 <HAL_RCCEx_PeriphCLKConfig+0x1bc>)
 80054d6:	4805      	ldr	r0, [pc, #20]	@ (80054ec <HAL_RCCEx_PeriphCLKConfig+0x1c4>)
 80054d8:	6dd3      	ldr	r3, [r2, #92]	@ 0x5c
 80054da:	4003      	ands	r3, r0
 80054dc:	430b      	orrs	r3, r1
  HAL_StatusTypeDef status = HAL_OK;   /* Final status */
 80054de:	2000      	movs	r0, #0
        __HAL_RCC_RTC_CONFIG(PeriphClkInit->RTCClockSelection);
 80054e0:	65d3      	str	r3, [r2, #92]	@ 0x5c
 80054e2:	e76c      	b.n	80053be <HAL_RCCEx_PeriphCLKConfig+0x96>
 80054e4:	40021000 	.word	0x40021000
 80054e8:	40007000 	.word	0x40007000
 80054ec:	fffffcff 	.word	0xfffffcff
 80054f0:	fffeffff 	.word	0xfffeffff
 80054f4:	00001388 	.word	0x00001388
 80054f8:	fffff3ff 	.word	0xfffff3ff
 80054fc:	fff3ffff 	.word	0xfff3ffff
 8005500:	ffcfffff 	.word	0xffcfffff
 8005504:	ffffcfff 	.word	0xffffcfff
 8005508:	ffbfffff 	.word	0xffbfffff
 800550c:	ffff3fff 	.word	0xffff3fff
 8005510:	efffffff 	.word	0xefffffff

08005514 <HAL_TIM_OC_MspInit>:
/**
  * @brief  Initializes the TIM Output Compare MSP.
  * @param  htim TIM Output Compare handle
  * @retval None
  */
__weak void HAL_TIM_OC_MspInit(TIM_HandleTypeDef *htim)
 8005514:	4770      	bx	lr
 8005516:	46c0      	nop			@ (mov r8, r8)

08005518 <HAL_TIM_PWM_MspInit>:
/**
  * @brief  Initializes the TIM PWM MSP.
  * @param  htim TIM PWM handle
  * @retval None
  */
__weak void HAL_TIM_PWM_MspInit(TIM_HandleTypeDef *htim)
 8005518:	4770      	bx	lr
 800551a:	46c0      	nop			@ (mov r8, r8)

0800551c <HAL_TIM_IC_MspInit>:
/**
  * @brief  Initializes the TIM Input Capture MSP.
  * @param  htim TIM Input Capture handle
  * @retval None
  */
__weak void HAL_TIM_IC_MspInit(TIM_HandleTypeDef *htim)
 800551c:	4770      	bx	lr
 800551e:	46c0      	nop			@ (mov r8, r8)

08005520 <HAL_TIM_PeriodElapsedCallback>:
/**
  * @brief  Period elapsed callback in non-blocking mode
  * @param  htim TIM handle
  * @retval None
  */
__weak void HAL_TIM_PeriodElapsedCallback(TIM_HandleTypeDef *htim)
 8005520:	4770      	bx	lr
 8005522:	46c0      	nop			@ (mov r8, r8)

08005524 <HAL_TIM_PeriodElapsedHalfCpltCallback>:
/**
  * @brief  Period elapsed half complete callback in non-blocking mode
  * @param  htim TIM handle
  * @retval None
  */
__weak void HAL_TIM_PeriodElapsedHalfCpltCallback(TIM_HandleTypeDef *htim)
 8005524:	4770      	bx	lr
 8005526:	46c0      	nop			@ (mov r8, r8)

08005528 <HAL_TIM_OC_DelayElapsedCallback>:
/**
  * @brief  Output Compare callback in non-blocking mode
  * @param  htim TIM OC handle
  * @retval None
  */
__weak void HAL_TIM_OC_DelayElapsedCallback(TIM_HandleTypeDef *htim)
 8005528:	4770      	bx	lr
 800552a:	46c0      	nop			@ (mov r8, r8)

0800552c <HAL_TIM_IC_CaptureCallback>:
/**
  * @brief  Input Capture callback in non-blocking mode
  * @param  htim TIM IC handle
  * @retval None
  */
__weak void HAL_TIM_IC_CaptureCallback(TIM_HandleTypeDef *htim)
 800552c:	4770      	bx	lr
 800552e:	46c0      	nop			@ (mov r8, r8)

08005530 <HAL_TIM_IC_CaptureHalfCpltCallback>:
/**
  * @brief  Input Capture half complete callback in non-blocking mode
  * @param  htim TIM IC handle
  * @retval None
  */
__weak void HAL_TIM_IC_CaptureHalfCpltCallback(TIM_HandleTypeDef *htim)
 8005530:	4770      	bx	lr
 8005532:	46c0      	nop			@ (mov r8, r8)

08005534 <HAL_TIM_PWM_PulseFinishedCallback>:
/**
  * @brief  PWM Pulse finished callback in non-blocking mode
  * @param  htim TIM handle
  * @retval None
  */
__weak void HAL_TIM_PWM_PulseFinishedCallback(TIM_HandleTypeDef *htim)
 8005534:	4770      	bx	lr
 8005536:	46c0      	nop			@ (mov r8, r8)

08005538 <HAL_TIM_PWM_PulseFinishedHalfCpltCallback>:
/**
  * @brief  PWM Pulse finished half complete callback in non-blocking mode
  * @param  htim TIM handle
  * @retval None
  */
__weak void HAL_TIM_PWM_PulseFinishedHalfCpltCallback(TIM_HandleTypeDef *htim)
 8005538:	4770      	bx	lr
 800553a:	46c0      	nop			@ (mov r8, r8)

0800553c <HAL_TIM_TriggerCallback>:
/**
  * @brief  Hall Trigger detection callback in non-blocking mode
  * @param  htim TIM handle
  * @retval None
  */
__weak void HAL_TIM_TriggerCallback(TIM_HandleTypeDef *htim)
 800553c:	4770      	bx	lr
 800553e:	46c0      	nop			@ (mov r8, r8)

08005540 <HAL_TIM_TriggerHalfCpltCallback>:
/**
  * @brief  Hall Trigger detection half complete callback in non-blocking mode
  * @param  htim TIM handle
  * @retval None
  */
__weak void HAL_TIM_TriggerHalfCpltCallback(TIM_HandleTypeDef *htim)
 8005540:	4770      	bx	lr
 8005542:	46c0      	nop			@ (mov r8, r8)

08005544 <HAL_TIM_ErrorCallback>:
/**
  * @brief  Timer error callback in non-blocking mode
  * @param  htim TIM handle
  * @retval None
  */
__weak void HAL_TIM_ErrorCallback(TIM_HandleTypeDef *htim)
 8005544:	4770      	bx	lr
 8005546:	46c0      	nop			@ (mov r8, r8)

08005548 <HAL_TIM_Base_Init>:
{
 8005548:	b570      	push	{r4, r5, r6, lr}
 800554a:	1e04      	subs	r4, r0, #0
  if (htim == NULL)
 800554c:	d100      	bne.n	8005550 <HAL_TIM_Base_Init+0x8>
 800554e:	e096      	b.n	800567e <HAL_TIM_Base_Init+0x136>
  if (htim->State == HAL_TIM_STATE_RESET)
 8005550:	233d      	movs	r3, #61	@ 0x3d
 8005552:	5cc3      	ldrb	r3, [r0, r3]
 8005554:	b2da      	uxtb	r2, r3
 8005556:	2b00      	cmp	r3, #0
 8005558:	d130      	bne.n	80055bc <HAL_TIM_Base_Init+0x74>
    htim->Lock = HAL_UNLOCKED;
 800555a:	333c      	adds	r3, #60	@ 0x3c
 800555c:	54c2      	strb	r2, [r0, r3]
  * @retval None
  */
void TIM_ResetCallback(TIM_HandleTypeDef *htim)
{
  /* Reset the TIM callback to the legacy weak callbacks */
  htim->PeriodElapsedCallback             = HAL_TIM_PeriodElapsedCallback;
 800555e:	2284      	movs	r2, #132	@ 0x84
 8005560:	4b4f      	ldr	r3, [pc, #316]	@ (80056a0 <HAL_TIM_Base_Init+0x158>)
 8005562:	5083      	str	r3, [r0, r2]
  htim->PeriodElapsedHalfCpltCallback     = HAL_TIM_PeriodElapsedHalfCpltCallback;
 8005564:	4b4f      	ldr	r3, [pc, #316]	@ (80056a4 <HAL_TIM_Base_Init+0x15c>)
 8005566:	3204      	adds	r2, #4
 8005568:	5083      	str	r3, [r0, r2]
  htim->TriggerCallback                   = HAL_TIM_TriggerCallback;
 800556a:	4b4f      	ldr	r3, [pc, #316]	@ (80056a8 <HAL_TIM_Base_Init+0x160>)
 800556c:	3204      	adds	r2, #4
 800556e:	5083      	str	r3, [r0, r2]
  htim->TriggerHalfCpltCallback           = HAL_TIM_TriggerHalfCpltCallback;
 8005570:	4b4e      	ldr	r3, [pc, #312]	@ (80056ac <HAL_TIM_Base_Init+0x164>)
 8005572:	3204      	adds	r2, #4
 8005574:	5083      	str	r3, [r0, r2]
  htim->IC_CaptureCallback                = HAL_TIM_IC_CaptureCallback;
 8005576:	4b4e      	ldr	r3, [pc, #312]	@ (80056b0 <HAL_TIM_Base_Init+0x168>)
 8005578:	3204      	adds	r2, #4
 800557a:	5083      	str	r3, [r0, r2]
  htim->IC_CaptureHalfCpltCallback        = HAL_TIM_IC_CaptureHalfCpltCallback;
 800557c:	4b4d      	ldr	r3, [pc, #308]	@ (80056b4 <HAL_TIM_Base_Init+0x16c>)
 800557e:	3204      	adds	r2, #4
 8005580:	5083      	str	r3, [r0, r2]
  htim->OC_DelayElapsedCallback           = HAL_TIM_OC_DelayElapsedCallback;
 8005582:	4b4d      	ldr	r3, [pc, #308]	@ (80056b8 <HAL_TIM_Base_Init+0x170>)
 8005584:	3204      	adds	r2, #4
 8005586:	5083      	str	r3, [r0, r2]
  htim->PWM_PulseFinishedCallback         = HAL_TIM_PWM_PulseFinishedCallback;
 8005588:	4b4c      	ldr	r3, [pc, #304]	@ (80056bc <HAL_TIM_Base_Init+0x174>)
 800558a:	3204      	adds	r2, #4
 800558c:	5083      	str	r3, [r0, r2]
  htim->PWM_PulseFinishedHalfCpltCallback = HAL_TIM_PWM_PulseFinishedHalfCpltCallback;
 800558e:	4b4c      	ldr	r3, [pc, #304]	@ (80056c0 <HAL_TIM_Base_Init+0x178>)
 8005590:	3204      	adds	r2, #4
 8005592:	5083      	str	r3, [r0, r2]
  htim->ErrorCallback                     = HAL_TIM_ErrorCallback;
 8005594:	4b4b      	ldr	r3, [pc, #300]	@ (80056c4 <HAL_TIM_Base_Init+0x17c>)
 8005596:	3204      	adds	r2, #4
 8005598:	5083      	str	r3, [r0, r2]
  htim->CommutationCallback               = HAL_TIMEx_CommutCallback;
 800559a:	4b4b      	ldr	r3, [pc, #300]	@ (80056c8 <HAL_TIM_Base_Init+0x180>)
 800559c:	3204      	adds	r2, #4
 800559e:	5083      	str	r3, [r0, r2]
  htim->CommutationHalfCpltCallback       = HAL_TIMEx_CommutHalfCpltCallback;
 80055a0:	4b4a      	ldr	r3, [pc, #296]	@ (80056cc <HAL_TIM_Base_Init+0x184>)
 80055a2:	3204      	adds	r2, #4
 80055a4:	5083      	str	r3, [r0, r2]
  htim->BreakCallback                     = HAL_TIMEx_BreakCallback;
 80055a6:	4b4a      	ldr	r3, [pc, #296]	@ (80056d0 <HAL_TIM_Base_Init+0x188>)
 80055a8:	3204      	adds	r2, #4
 80055aa:	5083      	str	r3, [r0, r2]
  htim->Break2Callback                    = HAL_TIMEx_Break2Callback;
 80055ac:	4b49      	ldr	r3, [pc, #292]	@ (80056d4 <HAL_TIM_Base_Init+0x18c>)
 80055ae:	3204      	adds	r2, #4
 80055b0:	5083      	str	r3, [r0, r2]
    if (htim->Base_MspInitCallback == NULL)
 80055b2:	6cc3      	ldr	r3, [r0, #76]	@ 0x4c
 80055b4:	2b00      	cmp	r3, #0
 80055b6:	d064      	beq.n	8005682 <HAL_TIM_Base_Init+0x13a>
    htim->Base_MspInitCallback(htim);
 80055b8:	0020      	movs	r0, r4
 80055ba:	4798      	blx	r3
  htim->State = HAL_TIM_STATE_BUSY;
 80055bc:	233d      	movs	r3, #61	@ 0x3d
 80055be:	2202      	movs	r2, #2
 80055c0:	54e2      	strb	r2, [r4, r3]
  TIM_Base_SetConfig(htim->Instance, &htim->Init);
 80055c2:	6823      	ldr	r3, [r4, #0]
  if (IS_TIM_COUNTER_MODE_SELECT_INSTANCE(TIMx))
 80055c4:	4e44      	ldr	r6, [pc, #272]	@ (80056d8 <HAL_TIM_Base_Init+0x190>)
  tmpcr1 = TIMx->CR1;
 80055c6:	681a      	ldr	r2, [r3, #0]
  MODIFY_REG(tmpcr1, TIM_CR1_ARPE, Structure->AutoReloadPreload);
 80055c8:	69a5      	ldr	r5, [r4, #24]
  TIMx->ARR = (uint32_t)Structure->Period ;
 80055ca:	68e0      	ldr	r0, [r4, #12]
  TIMx->PSC = Structure->Prescaler;
 80055cc:	6861      	ldr	r1, [r4, #4]
  if (IS_TIM_COUNTER_MODE_SELECT_INSTANCE(TIMx))
 80055ce:	42b3      	cmp	r3, r6
 80055d0:	d016      	beq.n	8005600 <HAL_TIM_Base_Init+0xb8>
 80055d2:	2680      	movs	r6, #128	@ 0x80
 80055d4:	05f6      	lsls	r6, r6, #23
 80055d6:	42b3      	cmp	r3, r6
 80055d8:	d012      	beq.n	8005600 <HAL_TIM_Base_Init+0xb8>
 80055da:	4e40      	ldr	r6, [pc, #256]	@ (80056dc <HAL_TIM_Base_Init+0x194>)
 80055dc:	42b3      	cmp	r3, r6
 80055de:	d045      	beq.n	800566c <HAL_TIM_Base_Init+0x124>
  if (IS_TIM_CLOCK_DIVISION_INSTANCE(TIMx))
 80055e0:	4e3f      	ldr	r6, [pc, #252]	@ (80056e0 <HAL_TIM_Base_Init+0x198>)
 80055e2:	42b3      	cmp	r3, r6
 80055e4:	d046      	beq.n	8005674 <HAL_TIM_Base_Init+0x12c>
 80055e6:	4e3f      	ldr	r6, [pc, #252]	@ (80056e4 <HAL_TIM_Base_Init+0x19c>)
 80055e8:	42b3      	cmp	r3, r6
 80055ea:	d04d      	beq.n	8005688 <HAL_TIM_Base_Init+0x140>
 80055ec:	4e3e      	ldr	r6, [pc, #248]	@ (80056e8 <HAL_TIM_Base_Init+0x1a0>)
 80055ee:	42b3      	cmp	r3, r6
 80055f0:	d04a      	beq.n	8005688 <HAL_TIM_Base_Init+0x140>
  MODIFY_REG(tmpcr1, TIM_CR1_ARPE, Structure->AutoReloadPreload);
 80055f2:	2680      	movs	r6, #128	@ 0x80
 80055f4:	43b2      	bics	r2, r6
 80055f6:	432a      	orrs	r2, r5
  TIMx->CR1 = tmpcr1;
 80055f8:	601a      	str	r2, [r3, #0]
  TIMx->ARR = (uint32_t)Structure->Period ;
 80055fa:	62d8      	str	r0, [r3, #44]	@ 0x2c
  TIMx->PSC = Structure->Prescaler;
 80055fc:	6299      	str	r1, [r3, #40]	@ 0x28
  if (IS_TIM_REPETITION_COUNTER_INSTANCE(TIMx))
 80055fe:	e012      	b.n	8005626 <HAL_TIM_Base_Init+0xde>
    tmpcr1 &= ~(TIM_CR1_DIR | TIM_CR1_CMS);
 8005600:	2670      	movs	r6, #112	@ 0x70
 8005602:	43b2      	bics	r2, r6
    tmpcr1 |= Structure->CounterMode;
 8005604:	68a6      	ldr	r6, [r4, #8]
 8005606:	4332      	orrs	r2, r6
    tmpcr1 &= ~TIM_CR1_CKD;
 8005608:	4e38      	ldr	r6, [pc, #224]	@ (80056ec <HAL_TIM_Base_Init+0x1a4>)
 800560a:	4032      	ands	r2, r6
    tmpcr1 |= (uint32_t)Structure->ClockDivision;
 800560c:	6926      	ldr	r6, [r4, #16]
 800560e:	4332      	orrs	r2, r6
  MODIFY_REG(tmpcr1, TIM_CR1_ARPE, Structure->AutoReloadPreload);
 8005610:	2680      	movs	r6, #128	@ 0x80
 8005612:	43b2      	bics	r2, r6
 8005614:	432a      	orrs	r2, r5
  TIMx->CR1 = tmpcr1;
 8005616:	601a      	str	r2, [r3, #0]
  if (IS_TIM_REPETITION_COUNTER_INSTANCE(TIMx))
 8005618:	4a2f      	ldr	r2, [pc, #188]	@ (80056d8 <HAL_TIM_Base_Init+0x190>)
  TIMx->ARR = (uint32_t)Structure->Period ;
 800561a:	62d8      	str	r0, [r3, #44]	@ 0x2c
  TIMx->PSC = Structure->Prescaler;
 800561c:	6299      	str	r1, [r3, #40]	@ 0x28
  if (IS_TIM_REPETITION_COUNTER_INSTANCE(TIMx))
 800561e:	4293      	cmp	r3, r2
 8005620:	d101      	bne.n	8005626 <HAL_TIM_Base_Init+0xde>
    TIMx->RCR = Structure->RepetitionCounter;
 8005622:	6962      	ldr	r2, [r4, #20]
 8005624:	631a      	str	r2, [r3, #48]	@ 0x30
  TIMx->EGR = TIM_EGR_UG;
 8005626:	2201      	movs	r2, #1
 8005628:	615a      	str	r2, [r3, #20]
  if (HAL_IS_BIT_SET(TIMx->SR, TIM_FLAG_UPDATE))
 800562a:	6919      	ldr	r1, [r3, #16]
 800562c:	420a      	tst	r2, r1
 800562e:	d002      	beq.n	8005636 <HAL_TIM_Base_Init+0xee>
    CLEAR_BIT(TIMx->SR, TIM_FLAG_UPDATE);
 8005630:	6919      	ldr	r1, [r3, #16]
 8005632:	4391      	bics	r1, r2
 8005634:	6119      	str	r1, [r3, #16]
  htim->DMABurstState = HAL_DMA_BURST_STATE_READY;
 8005636:	2301      	movs	r3, #1
 8005638:	2248      	movs	r2, #72	@ 0x48
  return HAL_OK;
 800563a:	2000      	movs	r0, #0
  htim->DMABurstState = HAL_DMA_BURST_STATE_READY;
 800563c:	54a3      	strb	r3, [r4, r2]
  TIM_CHANNEL_STATE_SET_ALL(htim, HAL_TIM_CHANNEL_STATE_READY);
 800563e:	3a0a      	subs	r2, #10
 8005640:	54a3      	strb	r3, [r4, r2]
 8005642:	3201      	adds	r2, #1
 8005644:	54a3      	strb	r3, [r4, r2]
 8005646:	3201      	adds	r2, #1
 8005648:	54a3      	strb	r3, [r4, r2]
 800564a:	3201      	adds	r2, #1
 800564c:	54a3      	strb	r3, [r4, r2]
 800564e:	3201      	adds	r2, #1
 8005650:	54a3      	strb	r3, [r4, r2]
 8005652:	3201      	adds	r2, #1
 8005654:	54a3      	strb	r3, [r4, r2]
  TIM_CHANNEL_N_STATE_SET_ALL(htim, HAL_TIM_CHANNEL_STATE_READY);
 8005656:	3201      	adds	r2, #1
 8005658:	54a3      	strb	r3, [r4, r2]
 800565a:	3201      	adds	r2, #1
 800565c:	54a3      	strb	r3, [r4, r2]
 800565e:	3201      	adds	r2, #1
 8005660:	54a3      	strb	r3, [r4, r2]
 8005662:	3201      	adds	r2, #1
 8005664:	54a3      	strb	r3, [r4, r2]
  htim->State = HAL_TIM_STATE_READY;
 8005666:	3a0a      	subs	r2, #10
 8005668:	54a3      	strb	r3, [r4, r2]
}
 800566a:	bd70      	pop	{r4, r5, r6, pc}
    tmpcr1 &= ~(TIM_CR1_DIR | TIM_CR1_CMS);
 800566c:	2670      	movs	r6, #112	@ 0x70
 800566e:	43b2      	bics	r2, r6
    tmpcr1 |= Structure->CounterMode;
 8005670:	68a6      	ldr	r6, [r4, #8]
 8005672:	4332      	orrs	r2, r6
    tmpcr1 &= ~TIM_CR1_CKD;
 8005674:	4e1d      	ldr	r6, [pc, #116]	@ (80056ec <HAL_TIM_Base_Init+0x1a4>)
 8005676:	4032      	ands	r2, r6
    tmpcr1 |= (uint32_t)Structure->ClockDivision;
 8005678:	6926      	ldr	r6, [r4, #16]
 800567a:	4332      	orrs	r2, r6
 800567c:	e7b9      	b.n	80055f2 <HAL_TIM_Base_Init+0xaa>
    return HAL_ERROR;
 800567e:	2001      	movs	r0, #1
 8005680:	e7f3      	b.n	800566a <HAL_TIM_Base_Init+0x122>
      htim->Base_MspInitCallback = HAL_TIM_Base_MspInit;
 8005682:	4b1b      	ldr	r3, [pc, #108]	@ (80056f0 <HAL_TIM_Base_Init+0x1a8>)
 8005684:	64c3      	str	r3, [r0, #76]	@ 0x4c
 8005686:	e797      	b.n	80055b8 <HAL_TIM_Base_Init+0x70>
    tmpcr1 &= ~TIM_CR1_CKD;
 8005688:	4e18      	ldr	r6, [pc, #96]	@ (80056ec <HAL_TIM_Base_Init+0x1a4>)
 800568a:	4032      	ands	r2, r6
    tmpcr1 |= (uint32_t)Structure->ClockDivision;
 800568c:	6926      	ldr	r6, [r4, #16]
 800568e:	4332      	orrs	r2, r6
  MODIFY_REG(tmpcr1, TIM_CR1_ARPE, Structure->AutoReloadPreload);
 8005690:	2680      	movs	r6, #128	@ 0x80
 8005692:	43b2      	bics	r2, r6
 8005694:	432a      	orrs	r2, r5
  TIMx->CR1 = tmpcr1;
 8005696:	601a      	str	r2, [r3, #0]
  TIMx->ARR = (uint32_t)Structure->Period ;
 8005698:	62d8      	str	r0, [r3, #44]	@ 0x2c
  TIMx->PSC = Structure->Prescaler;
 800569a:	6299      	str	r1, [r3, #40]	@ 0x28
  if (IS_TIM_REPETITION_COUNTER_INSTANCE(TIMx))
 800569c:	e7c1      	b.n	8005622 <HAL_TIM_Base_Init+0xda>
 800569e:	46c0      	nop			@ (mov r8, r8)
 80056a0:	08005521 	.word	0x08005521
 80056a4:	08005525 	.word	0x08005525
 80056a8:	0800553d 	.word	0x0800553d
 80056ac:	08005541 	.word	0x08005541
 80056b0:	0800552d 	.word	0x0800552d
 80056b4:	08005531 	.word	0x08005531
 80056b8:	08005529 	.word	0x08005529
 80056bc:	08005535 	.word	0x08005535
 80056c0:	08005539 	.word	0x08005539
 80056c4:	08005545 	.word	0x08005545
 80056c8:	08006db5 	.word	0x08006db5
 80056cc:	08006db9 	.word	0x08006db9
 80056d0:	08006dbd 	.word	0x08006dbd
 80056d4:	08006dc1 	.word	0x08006dc1
 80056d8:	40012c00 	.word	0x40012c00
 80056dc:	40000400 	.word	0x40000400
 80056e0:	40002000 	.word	0x40002000
 80056e4:	40014400 	.word	0x40014400
 80056e8:	40014800 	.word	0x40014800
 80056ec:	fffffcff 	.word	0xfffffcff
 80056f0:	08002c75 	.word	0x08002c75

080056f4 <HAL_TIM_Base_Start>:
  if (htim->State != HAL_TIM_STATE_READY)
 80056f4:	213d      	movs	r1, #61	@ 0x3d
{
 80056f6:	b510      	push	{r4, lr}
  if (htim->State != HAL_TIM_STATE_READY)
 80056f8:	5c42      	ldrb	r2, [r0, r1]
{
 80056fa:	0003      	movs	r3, r0
  if (htim->State != HAL_TIM_STATE_READY)
 80056fc:	b2d4      	uxtb	r4, r2
    return HAL_ERROR;
 80056fe:	2001      	movs	r0, #1
  if (htim->State != HAL_TIM_STATE_READY)
 8005700:	2a01      	cmp	r2, #1
 8005702:	d110      	bne.n	8005726 <HAL_TIM_Base_Start+0x32>
  htim->State = HAL_TIM_STATE_BUSY;
 8005704:	3201      	adds	r2, #1
 8005706:	545a      	strb	r2, [r3, r1]
  if (IS_TIM_SLAVE_INSTANCE(htim->Instance))
 8005708:	681b      	ldr	r3, [r3, #0]
 800570a:	4a0e      	ldr	r2, [pc, #56]	@ (8005744 <HAL_TIM_Base_Start+0x50>)
 800570c:	4293      	cmp	r3, r2
 800570e:	d00b      	beq.n	8005728 <HAL_TIM_Base_Start+0x34>
 8005710:	2280      	movs	r2, #128	@ 0x80
 8005712:	05d2      	lsls	r2, r2, #23
 8005714:	4293      	cmp	r3, r2
 8005716:	d007      	beq.n	8005728 <HAL_TIM_Base_Start+0x34>
 8005718:	4a0b      	ldr	r2, [pc, #44]	@ (8005748 <HAL_TIM_Base_Start+0x54>)
 800571a:	4293      	cmp	r3, r2
 800571c:	d004      	beq.n	8005728 <HAL_TIM_Base_Start+0x34>
    __HAL_TIM_ENABLE(htim);
 800571e:	681a      	ldr	r2, [r3, #0]
 8005720:	4322      	orrs	r2, r4
 8005722:	601a      	str	r2, [r3, #0]
  return HAL_OK;
 8005724:	2000      	movs	r0, #0
}
 8005726:	bd10      	pop	{r4, pc}
    tmpsmcr = htim->Instance->SMCR & TIM_SMCR_SMS;
 8005728:	689a      	ldr	r2, [r3, #8]
 800572a:	4908      	ldr	r1, [pc, #32]	@ (800574c <HAL_TIM_Base_Start+0x58>)
 800572c:	400a      	ands	r2, r1
    if (!IS_TIM_SLAVEMODE_TRIGGER_ENABLED(tmpsmcr))
 800572e:	2a06      	cmp	r2, #6
 8005730:	d0f8      	beq.n	8005724 <HAL_TIM_Base_Start+0x30>
 8005732:	3907      	subs	r1, #7
 8005734:	428a      	cmp	r2, r1
 8005736:	d0f5      	beq.n	8005724 <HAL_TIM_Base_Start+0x30>
      __HAL_TIM_ENABLE(htim);
 8005738:	2101      	movs	r1, #1
 800573a:	681a      	ldr	r2, [r3, #0]
  return HAL_OK;
 800573c:	2000      	movs	r0, #0
      __HAL_TIM_ENABLE(htim);
 800573e:	430a      	orrs	r2, r1
 8005740:	601a      	str	r2, [r3, #0]
 8005742:	e7f0      	b.n	8005726 <HAL_TIM_Base_Start+0x32>
 8005744:	40012c00 	.word	0x40012c00
 8005748:	40000400 	.word	0x40000400
 800574c:	00010007 	.word	0x00010007

08005750 <HAL_TIM_Base_Start_IT>:
  if (htim->State != HAL_TIM_STATE_READY)
 8005750:	213d      	movs	r1, #61	@ 0x3d
{
 8005752:	b510      	push	{r4, lr}
  if (htim->State != HAL_TIM_STATE_READY)
 8005754:	5c42      	ldrb	r2, [r0, r1]
{
 8005756:	0003      	movs	r3, r0
  if (htim->State != HAL_TIM_STATE_READY)
 8005758:	b2d4      	uxtb	r4, r2
    return HAL_ERROR;
 800575a:	2001      	movs	r0, #1
  if (htim->State != HAL_TIM_STATE_READY)
 800575c:	2a01      	cmp	r2, #1
 800575e:	d113      	bne.n	8005788 <HAL_TIM_Base_Start_IT+0x38>
  htim->State = HAL_TIM_STATE_BUSY;
 8005760:	3201      	adds	r2, #1
 8005762:	545a      	strb	r2, [r3, r1]
  __HAL_TIM_ENABLE_IT(htim, TIM_IT_UPDATE);
 8005764:	681b      	ldr	r3, [r3, #0]
 8005766:	68da      	ldr	r2, [r3, #12]
 8005768:	4322      	orrs	r2, r4
 800576a:	60da      	str	r2, [r3, #12]
  if (IS_TIM_SLAVE_INSTANCE(htim->Instance))
 800576c:	4a0e      	ldr	r2, [pc, #56]	@ (80057a8 <HAL_TIM_Base_Start_IT+0x58>)
 800576e:	4293      	cmp	r3, r2
 8005770:	d00b      	beq.n	800578a <HAL_TIM_Base_Start_IT+0x3a>
 8005772:	2280      	movs	r2, #128	@ 0x80
 8005774:	05d2      	lsls	r2, r2, #23
 8005776:	4293      	cmp	r3, r2
 8005778:	d007      	beq.n	800578a <HAL_TIM_Base_Start_IT+0x3a>
 800577a:	4a0c      	ldr	r2, [pc, #48]	@ (80057ac <HAL_TIM_Base_Start_IT+0x5c>)
 800577c:	4293      	cmp	r3, r2
 800577e:	d004      	beq.n	800578a <HAL_TIM_Base_Start_IT+0x3a>
    __HAL_TIM_ENABLE(htim);
 8005780:	681a      	ldr	r2, [r3, #0]
 8005782:	4322      	orrs	r2, r4
 8005784:	601a      	str	r2, [r3, #0]
  return HAL_OK;
 8005786:	2000      	movs	r0, #0
}
 8005788:	bd10      	pop	{r4, pc}
    tmpsmcr = htim->Instance->SMCR & TIM_SMCR_SMS;
 800578a:	689a      	ldr	r2, [r3, #8]
 800578c:	4908      	ldr	r1, [pc, #32]	@ (80057b0 <HAL_TIM_Base_Start_IT+0x60>)
 800578e:	400a      	ands	r2, r1
    if (!IS_TIM_SLAVEMODE_TRIGGER_ENABLED(tmpsmcr))
 8005790:	2a06      	cmp	r2, #6
 8005792:	d0f8      	beq.n	8005786 <HAL_TIM_Base_Start_IT+0x36>
 8005794:	3907      	subs	r1, #7
 8005796:	428a      	cmp	r2, r1
 8005798:	d0f5      	beq.n	8005786 <HAL_TIM_Base_Start_IT+0x36>
      __HAL_TIM_ENABLE(htim);
 800579a:	2101      	movs	r1, #1
 800579c:	681a      	ldr	r2, [r3, #0]
  return HAL_OK;
 800579e:	2000      	movs	r0, #0
      __HAL_TIM_ENABLE(htim);
 80057a0:	430a      	orrs	r2, r1
 80057a2:	601a      	str	r2, [r3, #0]
 80057a4:	e7f0      	b.n	8005788 <HAL_TIM_Base_Start_IT+0x38>
 80057a6:	46c0      	nop			@ (mov r8, r8)
 80057a8:	40012c00 	.word	0x40012c00
 80057ac:	40000400 	.word	0x40000400
 80057b0:	00010007 	.word	0x00010007

080057b4 <HAL_TIM_OC_Init>:
{
 80057b4:	b570      	push	{r4, r5, r6, lr}
 80057b6:	1e04      	subs	r4, r0, #0
  if (htim == NULL)
 80057b8:	d100      	bne.n	80057bc <HAL_TIM_OC_Init+0x8>
 80057ba:	e096      	b.n	80058ea <HAL_TIM_OC_Init+0x136>
  if (htim->State == HAL_TIM_STATE_RESET)
 80057bc:	233d      	movs	r3, #61	@ 0x3d
 80057be:	5cc3      	ldrb	r3, [r0, r3]
 80057c0:	b2da      	uxtb	r2, r3
 80057c2:	2b00      	cmp	r3, #0
 80057c4:	d130      	bne.n	8005828 <HAL_TIM_OC_Init+0x74>
    htim->Lock = HAL_UNLOCKED;
 80057c6:	333c      	adds	r3, #60	@ 0x3c
 80057c8:	54c2      	strb	r2, [r0, r3]
  htim->PeriodElapsedCallback             = HAL_TIM_PeriodElapsedCallback;
 80057ca:	2284      	movs	r2, #132	@ 0x84
 80057cc:	4b4f      	ldr	r3, [pc, #316]	@ (800590c <HAL_TIM_OC_Init+0x158>)
 80057ce:	5083      	str	r3, [r0, r2]
  htim->PeriodElapsedHalfCpltCallback     = HAL_TIM_PeriodElapsedHalfCpltCallback;
 80057d0:	4b4f      	ldr	r3, [pc, #316]	@ (8005910 <HAL_TIM_OC_Init+0x15c>)
 80057d2:	3204      	adds	r2, #4
 80057d4:	5083      	str	r3, [r0, r2]
  htim->TriggerCallback                   = HAL_TIM_TriggerCallback;
 80057d6:	4b4f      	ldr	r3, [pc, #316]	@ (8005914 <HAL_TIM_OC_Init+0x160>)
 80057d8:	3204      	adds	r2, #4
 80057da:	5083      	str	r3, [r0, r2]
  htim->TriggerHalfCpltCallback           = HAL_TIM_TriggerHalfCpltCallback;
 80057dc:	4b4e      	ldr	r3, [pc, #312]	@ (8005918 <HAL_TIM_OC_Init+0x164>)
 80057de:	3204      	adds	r2, #4
 80057e0:	5083      	str	r3, [r0, r2]
  htim->IC_CaptureCallback                = HAL_TIM_IC_CaptureCallback;
 80057e2:	4b4e      	ldr	r3, [pc, #312]	@ (800591c <HAL_TIM_OC_Init+0x168>)
 80057e4:	3204      	adds	r2, #4
 80057e6:	5083      	str	r3, [r0, r2]
  htim->IC_CaptureHalfCpltCallback        = HAL_TIM_IC_CaptureHalfCpltCallback;
 80057e8:	4b4d      	ldr	r3, [pc, #308]	@ (8005920 <HAL_TIM_OC_Init+0x16c>)
 80057ea:	3204      	adds	r2, #4
 80057ec:	5083      	str	r3, [r0, r2]
  htim->OC_DelayElapsedCallback           = HAL_TIM_OC_DelayElapsedCallback;
 80057ee:	4b4d      	ldr	r3, [pc, #308]	@ (8005924 <HAL_TIM_OC_Init+0x170>)
 80057f0:	3204      	adds	r2, #4
 80057f2:	5083      	str	r3, [r0, r2]
  htim->PWM_PulseFinishedCallback         = HAL_TIM_PWM_PulseFinishedCallback;
 80057f4:	4b4c      	ldr	r3, [pc, #304]	@ (8005928 <HAL_TIM_OC_Init+0x174>)
 80057f6:	3204      	adds	r2, #4
 80057f8:	5083      	str	r3, [r0, r2]
  htim->PWM_PulseFinishedHalfCpltCallback = HAL_TIM_PWM_PulseFinishedHalfCpltCallback;
 80057fa:	4b4c      	ldr	r3, [pc, #304]	@ (800592c <HAL_TIM_OC_Init+0x178>)
 80057fc:	3204      	adds	r2, #4
 80057fe:	5083      	str	r3, [r0, r2]
  htim->ErrorCallback                     = HAL_TIM_ErrorCallback;
 8005800:	4b4b      	ldr	r3, [pc, #300]	@ (8005930 <HAL_TIM_OC_Init+0x17c>)
 8005802:	3204      	adds	r2, #4
 8005804:	5083      	str	r3, [r0, r2]
  htim->CommutationCallback               = HAL_TIMEx_CommutCallback;
 8005806:	4b4b      	ldr	r3, [pc, #300]	@ (8005934 <HAL_TIM_OC_Init+0x180>)
 8005808:	3204      	adds	r2, #4
 800580a:	5083      	str	r3, [r0, r2]
  htim->CommutationHalfCpltCallback       = HAL_TIMEx_CommutHalfCpltCallback;
 800580c:	4b4a      	ldr	r3, [pc, #296]	@ (8005938 <HAL_TIM_OC_Init+0x184>)
 800580e:	3204      	adds	r2, #4
 8005810:	5083      	str	r3, [r0, r2]
  htim->BreakCallback                     = HAL_TIMEx_BreakCallback;
 8005812:	4b4a      	ldr	r3, [pc, #296]	@ (800593c <HAL_TIM_OC_Init+0x188>)
 8005814:	3204      	adds	r2, #4
 8005816:	5083      	str	r3, [r0, r2]
  htim->Break2Callback                    = HAL_TIMEx_Break2Callback;
 8005818:	4b49      	ldr	r3, [pc, #292]	@ (8005940 <HAL_TIM_OC_Init+0x18c>)
 800581a:	3204      	adds	r2, #4
 800581c:	5083      	str	r3, [r0, r2]
    if (htim->OC_MspInitCallback == NULL)
 800581e:	6dc3      	ldr	r3, [r0, #92]	@ 0x5c
 8005820:	2b00      	cmp	r3, #0
 8005822:	d064      	beq.n	80058ee <HAL_TIM_OC_Init+0x13a>
    htim->OC_MspInitCallback(htim);
 8005824:	0020      	movs	r0, r4
 8005826:	4798      	blx	r3
  htim->State = HAL_TIM_STATE_BUSY;
 8005828:	233d      	movs	r3, #61	@ 0x3d
 800582a:	2202      	movs	r2, #2
 800582c:	54e2      	strb	r2, [r4, r3]
  TIM_Base_SetConfig(htim->Instance,  &htim->Init);
 800582e:	6823      	ldr	r3, [r4, #0]
  if (IS_TIM_COUNTER_MODE_SELECT_INSTANCE(TIMx))
 8005830:	4e44      	ldr	r6, [pc, #272]	@ (8005944 <HAL_TIM_OC_Init+0x190>)
  tmpcr1 = TIMx->CR1;
 8005832:	681a      	ldr	r2, [r3, #0]
  MODIFY_REG(tmpcr1, TIM_CR1_ARPE, Structure->AutoReloadPreload);
 8005834:	69a5      	ldr	r5, [r4, #24]
  TIMx->ARR = (uint32_t)Structure->Period ;
 8005836:	68e0      	ldr	r0, [r4, #12]
  TIMx->PSC = Structure->Prescaler;
 8005838:	6861      	ldr	r1, [r4, #4]
  if (IS_TIM_COUNTER_MODE_SELECT_INSTANCE(TIMx))
 800583a:	42b3      	cmp	r3, r6
 800583c:	d016      	beq.n	800586c <HAL_TIM_OC_Init+0xb8>
 800583e:	2680      	movs	r6, #128	@ 0x80
 8005840:	05f6      	lsls	r6, r6, #23
 8005842:	42b3      	cmp	r3, r6
 8005844:	d012      	beq.n	800586c <HAL_TIM_OC_Init+0xb8>
 8005846:	4e40      	ldr	r6, [pc, #256]	@ (8005948 <HAL_TIM_OC_Init+0x194>)
 8005848:	42b3      	cmp	r3, r6
 800584a:	d045      	beq.n	80058d8 <HAL_TIM_OC_Init+0x124>
  if (IS_TIM_CLOCK_DIVISION_INSTANCE(TIMx))
 800584c:	4e3f      	ldr	r6, [pc, #252]	@ (800594c <HAL_TIM_OC_Init+0x198>)
 800584e:	42b3      	cmp	r3, r6
 8005850:	d046      	beq.n	80058e0 <HAL_TIM_OC_Init+0x12c>
 8005852:	4e3f      	ldr	r6, [pc, #252]	@ (8005950 <HAL_TIM_OC_Init+0x19c>)
 8005854:	42b3      	cmp	r3, r6
 8005856:	d04d      	beq.n	80058f4 <HAL_TIM_OC_Init+0x140>
 8005858:	4e3e      	ldr	r6, [pc, #248]	@ (8005954 <HAL_TIM_OC_Init+0x1a0>)
 800585a:	42b3      	cmp	r3, r6
 800585c:	d04a      	beq.n	80058f4 <HAL_TIM_OC_Init+0x140>
  MODIFY_REG(tmpcr1, TIM_CR1_ARPE, Structure->AutoReloadPreload);
 800585e:	2680      	movs	r6, #128	@ 0x80
 8005860:	43b2      	bics	r2, r6
 8005862:	432a      	orrs	r2, r5
  TIMx->CR1 = tmpcr1;
 8005864:	601a      	str	r2, [r3, #0]
  TIMx->ARR = (uint32_t)Structure->Period ;
 8005866:	62d8      	str	r0, [r3, #44]	@ 0x2c
  TIMx->PSC = Structure->Prescaler;
 8005868:	6299      	str	r1, [r3, #40]	@ 0x28
  if (IS_TIM_REPETITION_COUNTER_INSTANCE(TIMx))
 800586a:	e012      	b.n	8005892 <HAL_TIM_OC_Init+0xde>
    tmpcr1 &= ~(TIM_CR1_DIR | TIM_CR1_CMS);
 800586c:	2670      	movs	r6, #112	@ 0x70
 800586e:	43b2      	bics	r2, r6
    tmpcr1 |= Structure->CounterMode;
 8005870:	68a6      	ldr	r6, [r4, #8]
 8005872:	4332      	orrs	r2, r6
    tmpcr1 &= ~TIM_CR1_CKD;
 8005874:	4e38      	ldr	r6, [pc, #224]	@ (8005958 <HAL_TIM_OC_Init+0x1a4>)
 8005876:	4032      	ands	r2, r6
    tmpcr1 |= (uint32_t)Structure->ClockDivision;
 8005878:	6926      	ldr	r6, [r4, #16]
 800587a:	4332      	orrs	r2, r6
  MODIFY_REG(tmpcr1, TIM_CR1_ARPE, Structure->AutoReloadPreload);
 800587c:	2680      	movs	r6, #128	@ 0x80
 800587e:	43b2      	bics	r2, r6
 8005880:	432a      	orrs	r2, r5
  TIMx->CR1 = tmpcr1;
 8005882:	601a      	str	r2, [r3, #0]
  if (IS_TIM_REPETITION_COUNTER_INSTANCE(TIMx))
 8005884:	4a2f      	ldr	r2, [pc, #188]	@ (8005944 <HAL_TIM_OC_Init+0x190>)
  TIMx->ARR = (uint32_t)Structure->Period ;
 8005886:	62d8      	str	r0, [r3, #44]	@ 0x2c
  TIMx->PSC = Structure->Prescaler;
 8005888:	6299      	str	r1, [r3, #40]	@ 0x28
  if (IS_TIM_REPETITION_COUNTER_INSTANCE(TIMx))
 800588a:	4293      	cmp	r3, r2
 800588c:	d101      	bne.n	8005892 <HAL_TIM_OC_Init+0xde>
    TIMx->RCR = Structure->RepetitionCounter;
 800588e:	6962      	ldr	r2, [r4, #20]
 8005890:	631a      	str	r2, [r3, #48]	@ 0x30
  TIMx->EGR = TIM_EGR_UG;
 8005892:	2201      	movs	r2, #1
 8005894:	615a      	str	r2, [r3, #20]
  if (HAL_IS_BIT_SET(TIMx->SR, TIM_FLAG_UPDATE))
 8005896:	6919      	ldr	r1, [r3, #16]
 8005898:	420a      	tst	r2, r1
 800589a:	d002      	beq.n	80058a2 <HAL_TIM_OC_Init+0xee>
    CLEAR_BIT(TIMx->SR, TIM_FLAG_UPDATE);
 800589c:	6919      	ldr	r1, [r3, #16]
 800589e:	4391      	bics	r1, r2
 80058a0:	6119      	str	r1, [r3, #16]
  htim->DMABurstState = HAL_DMA_BURST_STATE_READY;
 80058a2:	2301      	movs	r3, #1
 80058a4:	2248      	movs	r2, #72	@ 0x48
  return HAL_OK;
 80058a6:	2000      	movs	r0, #0
  htim->DMABurstState = HAL_DMA_BURST_STATE_READY;
 80058a8:	54a3      	strb	r3, [r4, r2]
  TIM_CHANNEL_STATE_SET_ALL(htim, HAL_TIM_CHANNEL_STATE_READY);
 80058aa:	3a0a      	subs	r2, #10
 80058ac:	54a3      	strb	r3, [r4, r2]
 80058ae:	3201      	adds	r2, #1
 80058b0:	54a3      	strb	r3, [r4, r2]
 80058b2:	3201      	adds	r2, #1
 80058b4:	54a3      	strb	r3, [r4, r2]
 80058b6:	3201      	adds	r2, #1
 80058b8:	54a3      	strb	r3, [r4, r2]
 80058ba:	3201      	adds	r2, #1
 80058bc:	54a3      	strb	r3, [r4, r2]
 80058be:	3201      	adds	r2, #1
 80058c0:	54a3      	strb	r3, [r4, r2]
  TIM_CHANNEL_N_STATE_SET_ALL(htim, HAL_TIM_CHANNEL_STATE_READY);
 80058c2:	3201      	adds	r2, #1
 80058c4:	54a3      	strb	r3, [r4, r2]
 80058c6:	3201      	adds	r2, #1
 80058c8:	54a3      	strb	r3, [r4, r2]
 80058ca:	3201      	adds	r2, #1
 80058cc:	54a3      	strb	r3, [r4, r2]
 80058ce:	3201      	adds	r2, #1
 80058d0:	54a3      	strb	r3, [r4, r2]
  htim->State = HAL_TIM_STATE_READY;
 80058d2:	3a0a      	subs	r2, #10
 80058d4:	54a3      	strb	r3, [r4, r2]
}
 80058d6:	bd70      	pop	{r4, r5, r6, pc}
    tmpcr1 &= ~(TIM_CR1_DIR | TIM_CR1_CMS);
 80058d8:	2670      	movs	r6, #112	@ 0x70
 80058da:	43b2      	bics	r2, r6
    tmpcr1 |= Structure->CounterMode;
 80058dc:	68a6      	ldr	r6, [r4, #8]
 80058de:	4332      	orrs	r2, r6
    tmpcr1 &= ~TIM_CR1_CKD;
 80058e0:	4e1d      	ldr	r6, [pc, #116]	@ (8005958 <HAL_TIM_OC_Init+0x1a4>)
 80058e2:	4032      	ands	r2, r6
    tmpcr1 |= (uint32_t)Structure->ClockDivision;
 80058e4:	6926      	ldr	r6, [r4, #16]
 80058e6:	4332      	orrs	r2, r6
 80058e8:	e7b9      	b.n	800585e <HAL_TIM_OC_Init+0xaa>
    return HAL_ERROR;
 80058ea:	2001      	movs	r0, #1
 80058ec:	e7f3      	b.n	80058d6 <HAL_TIM_OC_Init+0x122>
      htim->OC_MspInitCallback = HAL_TIM_OC_MspInit;
 80058ee:	4b1b      	ldr	r3, [pc, #108]	@ (800595c <HAL_TIM_OC_Init+0x1a8>)
 80058f0:	65c3      	str	r3, [r0, #92]	@ 0x5c
 80058f2:	e797      	b.n	8005824 <HAL_TIM_OC_Init+0x70>
    tmpcr1 &= ~TIM_CR1_CKD;
 80058f4:	4e18      	ldr	r6, [pc, #96]	@ (8005958 <HAL_TIM_OC_Init+0x1a4>)
 80058f6:	4032      	ands	r2, r6
    tmpcr1 |= (uint32_t)Structure->ClockDivision;
 80058f8:	6926      	ldr	r6, [r4, #16]
 80058fa:	4332      	orrs	r2, r6
  MODIFY_REG(tmpcr1, TIM_CR1_ARPE, Structure->AutoReloadPreload);
 80058fc:	2680      	movs	r6, #128	@ 0x80
 80058fe:	43b2      	bics	r2, r6
 8005900:	432a      	orrs	r2, r5
  TIMx->CR1 = tmpcr1;
 8005902:	601a      	str	r2, [r3, #0]
  TIMx->ARR = (uint32_t)Structure->Period ;
 8005904:	62d8      	str	r0, [r3, #44]	@ 0x2c
  TIMx->PSC = Structure->Prescaler;
 8005906:	6299      	str	r1, [r3, #40]	@ 0x28
  if (IS_TIM_REPETITION_COUNTER_INSTANCE(TIMx))
 8005908:	e7c1      	b.n	800588e <HAL_TIM_OC_Init+0xda>
 800590a:	46c0      	nop			@ (mov r8, r8)
 800590c:	08005521 	.word	0x08005521
 8005910:	08005525 	.word	0x08005525
 8005914:	0800553d 	.word	0x0800553d
 8005918:	08005541 	.word	0x08005541
 800591c:	0800552d 	.word	0x0800552d
 8005920:	08005531 	.word	0x08005531
 8005924:	08005529 	.word	0x08005529
 8005928:	08005535 	.word	0x08005535
 800592c:	08005539 	.word	0x08005539
 8005930:	08005545 	.word	0x08005545
 8005934:	08006db5 	.word	0x08006db5
 8005938:	08006db9 	.word	0x08006db9
 800593c:	08006dbd 	.word	0x08006dbd
 8005940:	08006dc1 	.word	0x08006dc1
 8005944:	40012c00 	.word	0x40012c00
 8005948:	40000400 	.word	0x40000400
 800594c:	40002000 	.word	0x40002000
 8005950:	40014400 	.word	0x40014400
 8005954:	40014800 	.word	0x40014800
 8005958:	fffffcff 	.word	0xfffffcff
 800595c:	08005515 	.word	0x08005515

08005960 <HAL_TIM_OC_Start_IT>:
{
 8005960:	b510      	push	{r4, lr}
 8005962:	2910      	cmp	r1, #16
 8005964:	d803      	bhi.n	800596e <HAL_TIM_OC_Start_IT+0xe>
 8005966:	4a38      	ldr	r2, [pc, #224]	@ (8005a48 <HAL_TIM_OC_Start_IT+0xe8>)
 8005968:	008b      	lsls	r3, r1, #2
 800596a:	58d3      	ldr	r3, [r2, r3]
 800596c:	469f      	mov	pc, r3
  if (TIM_CHANNEL_STATE_GET(htim, Channel) != HAL_TIM_CHANNEL_STATE_READY)
 800596e:	2343      	movs	r3, #67	@ 0x43
 8005970:	5cc2      	ldrb	r2, [r0, r3]
 8005972:	2a01      	cmp	r2, #1
 8005974:	d101      	bne.n	800597a <HAL_TIM_OC_Start_IT+0x1a>
  TIM_CHANNEL_STATE_SET(htim, Channel, HAL_TIM_CHANNEL_STATE_BUSY);
 8005976:	2202      	movs	r2, #2
 8005978:	54c2      	strb	r2, [r0, r3]
    return HAL_ERROR;
 800597a:	2001      	movs	r0, #1
}
 800597c:	bd10      	pop	{r4, pc}
  if (TIM_CHANNEL_STATE_GET(htim, Channel) != HAL_TIM_CHANNEL_STATE_READY)
 800597e:	233e      	movs	r3, #62	@ 0x3e
 8005980:	5cc2      	ldrb	r2, [r0, r3]
 8005982:	2a01      	cmp	r2, #1
 8005984:	d1f9      	bne.n	800597a <HAL_TIM_OC_Start_IT+0x1a>
  TIM_CHANNEL_STATE_SET(htim, Channel, HAL_TIM_CHANNEL_STATE_BUSY);
 8005986:	2402      	movs	r4, #2
 8005988:	54c4      	strb	r4, [r0, r3]
      __HAL_TIM_ENABLE_IT(htim, TIM_IT_CC1);
 800598a:	6803      	ldr	r3, [r0, #0]
 800598c:	68da      	ldr	r2, [r3, #12]
 800598e:	4322      	orrs	r2, r4
 8005990:	60da      	str	r2, [r3, #12]
  tmp = TIM_CCER_CC1E << (Channel & 0x1FU); /* 0x1FU = 31 bits max shift */
 8005992:	2201      	movs	r2, #1
 8005994:	408a      	lsls	r2, r1
  TIMx->CCER &= ~tmp;
 8005996:	6a19      	ldr	r1, [r3, #32]
 8005998:	4391      	bics	r1, r2
 800599a:	6219      	str	r1, [r3, #32]
  TIMx->CCER |= (uint32_t)(ChannelState << (Channel & 0x1FU)); /* 0x1FU = 31 bits max shift */
 800599c:	6a19      	ldr	r1, [r3, #32]
 800599e:	430a      	orrs	r2, r1
 80059a0:	621a      	str	r2, [r3, #32]
    if (IS_TIM_BREAK_INSTANCE(htim->Instance) != RESET)
 80059a2:	4a2a      	ldr	r2, [pc, #168]	@ (8005a4c <HAL_TIM_OC_Start_IT+0xec>)
 80059a4:	4293      	cmp	r3, r2
 80059a6:	d049      	beq.n	8005a3c <HAL_TIM_OC_Start_IT+0xdc>
 80059a8:	4a29      	ldr	r2, [pc, #164]	@ (8005a50 <HAL_TIM_OC_Start_IT+0xf0>)
 80059aa:	4293      	cmp	r3, r2
 80059ac:	d040      	beq.n	8005a30 <HAL_TIM_OC_Start_IT+0xd0>
 80059ae:	4a29      	ldr	r2, [pc, #164]	@ (8005a54 <HAL_TIM_OC_Start_IT+0xf4>)
 80059b0:	4293      	cmp	r3, r2
 80059b2:	d03d      	beq.n	8005a30 <HAL_TIM_OC_Start_IT+0xd0>
    if (IS_TIM_SLAVE_INSTANCE(htim->Instance))
 80059b4:	2280      	movs	r2, #128	@ 0x80
 80059b6:	05d2      	lsls	r2, r2, #23
 80059b8:	4293      	cmp	r3, r2
 80059ba:	d002      	beq.n	80059c2 <HAL_TIM_OC_Start_IT+0x62>
 80059bc:	4a26      	ldr	r2, [pc, #152]	@ (8005a58 <HAL_TIM_OC_Start_IT+0xf8>)
 80059be:	4293      	cmp	r3, r2
 80059c0:	d107      	bne.n	80059d2 <HAL_TIM_OC_Start_IT+0x72>
      tmpsmcr = htim->Instance->SMCR & TIM_SMCR_SMS;
 80059c2:	689a      	ldr	r2, [r3, #8]
 80059c4:	4925      	ldr	r1, [pc, #148]	@ (8005a5c <HAL_TIM_OC_Start_IT+0xfc>)
 80059c6:	400a      	ands	r2, r1
      if (!IS_TIM_SLAVEMODE_TRIGGER_ENABLED(tmpsmcr))
 80059c8:	2a06      	cmp	r2, #6
 80059ca:	d006      	beq.n	80059da <HAL_TIM_OC_Start_IT+0x7a>
 80059cc:	3907      	subs	r1, #7
 80059ce:	428a      	cmp	r2, r1
 80059d0:	d003      	beq.n	80059da <HAL_TIM_OC_Start_IT+0x7a>
        __HAL_TIM_ENABLE(htim);
 80059d2:	2101      	movs	r1, #1
 80059d4:	681a      	ldr	r2, [r3, #0]
 80059d6:	430a      	orrs	r2, r1
 80059d8:	601a      	str	r2, [r3, #0]
    return HAL_ERROR;
 80059da:	2000      	movs	r0, #0
 80059dc:	e7ce      	b.n	800597c <HAL_TIM_OC_Start_IT+0x1c>
  if (TIM_CHANNEL_STATE_GET(htim, Channel) != HAL_TIM_CHANNEL_STATE_READY)
 80059de:	233f      	movs	r3, #63	@ 0x3f
 80059e0:	5cc2      	ldrb	r2, [r0, r3]
 80059e2:	2a01      	cmp	r2, #1
 80059e4:	d1c9      	bne.n	800597a <HAL_TIM_OC_Start_IT+0x1a>
  TIM_CHANNEL_STATE_SET(htim, Channel, HAL_TIM_CHANNEL_STATE_BUSY);
 80059e6:	2202      	movs	r2, #2
 80059e8:	54c2      	strb	r2, [r0, r3]
      __HAL_TIM_ENABLE_IT(htim, TIM_IT_CC2);
 80059ea:	6803      	ldr	r3, [r0, #0]
 80059ec:	2004      	movs	r0, #4
 80059ee:	68da      	ldr	r2, [r3, #12]
 80059f0:	4302      	orrs	r2, r0
 80059f2:	60da      	str	r2, [r3, #12]
  if (status == HAL_OK)
 80059f4:	e7cd      	b.n	8005992 <HAL_TIM_OC_Start_IT+0x32>
  if (TIM_CHANNEL_STATE_GET(htim, Channel) != HAL_TIM_CHANNEL_STATE_READY)
 80059f6:	2340      	movs	r3, #64	@ 0x40
 80059f8:	5cc2      	ldrb	r2, [r0, r3]
 80059fa:	2a01      	cmp	r2, #1
 80059fc:	d1bd      	bne.n	800597a <HAL_TIM_OC_Start_IT+0x1a>
  TIM_CHANNEL_STATE_SET(htim, Channel, HAL_TIM_CHANNEL_STATE_BUSY);
 80059fe:	2202      	movs	r2, #2
 8005a00:	54c2      	strb	r2, [r0, r3]
      __HAL_TIM_ENABLE_IT(htim, TIM_IT_CC3);
 8005a02:	6803      	ldr	r3, [r0, #0]
 8005a04:	2008      	movs	r0, #8
 8005a06:	68da      	ldr	r2, [r3, #12]
 8005a08:	4302      	orrs	r2, r0
 8005a0a:	60da      	str	r2, [r3, #12]
  if (status == HAL_OK)
 8005a0c:	e7c1      	b.n	8005992 <HAL_TIM_OC_Start_IT+0x32>
  if (TIM_CHANNEL_STATE_GET(htim, Channel) != HAL_TIM_CHANNEL_STATE_READY)
 8005a0e:	2341      	movs	r3, #65	@ 0x41
 8005a10:	5cc2      	ldrb	r2, [r0, r3]
 8005a12:	2a01      	cmp	r2, #1
 8005a14:	d1b1      	bne.n	800597a <HAL_TIM_OC_Start_IT+0x1a>
  TIM_CHANNEL_STATE_SET(htim, Channel, HAL_TIM_CHANNEL_STATE_BUSY);
 8005a16:	2202      	movs	r2, #2
 8005a18:	54c2      	strb	r2, [r0, r3]
      __HAL_TIM_ENABLE_IT(htim, TIM_IT_CC4);
 8005a1a:	6803      	ldr	r3, [r0, #0]
 8005a1c:	2010      	movs	r0, #16
 8005a1e:	68da      	ldr	r2, [r3, #12]
 8005a20:	4302      	orrs	r2, r0
 8005a22:	60da      	str	r2, [r3, #12]
  if (status == HAL_OK)
 8005a24:	e7b5      	b.n	8005992 <HAL_TIM_OC_Start_IT+0x32>
  if (TIM_CHANNEL_STATE_GET(htim, Channel) != HAL_TIM_CHANNEL_STATE_READY)
 8005a26:	2342      	movs	r3, #66	@ 0x42
 8005a28:	5cc2      	ldrb	r2, [r0, r3]
 8005a2a:	2a01      	cmp	r2, #1
 8005a2c:	d0a3      	beq.n	8005976 <HAL_TIM_OC_Start_IT+0x16>
 8005a2e:	e7a4      	b.n	800597a <HAL_TIM_OC_Start_IT+0x1a>
      __HAL_TIM_MOE_ENABLE(htim);
 8005a30:	2280      	movs	r2, #128	@ 0x80
 8005a32:	6c59      	ldr	r1, [r3, #68]	@ 0x44
 8005a34:	0212      	lsls	r2, r2, #8
 8005a36:	430a      	orrs	r2, r1
 8005a38:	645a      	str	r2, [r3, #68]	@ 0x44
    if (IS_TIM_SLAVE_INSTANCE(htim->Instance))
 8005a3a:	e7ca      	b.n	80059d2 <HAL_TIM_OC_Start_IT+0x72>
      __HAL_TIM_MOE_ENABLE(htim);
 8005a3c:	2280      	movs	r2, #128	@ 0x80
 8005a3e:	6c59      	ldr	r1, [r3, #68]	@ 0x44
 8005a40:	0212      	lsls	r2, r2, #8
 8005a42:	430a      	orrs	r2, r1
 8005a44:	645a      	str	r2, [r3, #68]	@ 0x44
    if (IS_TIM_SLAVE_INSTANCE(htim->Instance))
 8005a46:	e7bc      	b.n	80059c2 <HAL_TIM_OC_Start_IT+0x62>
 8005a48:	0800851c 	.word	0x0800851c
 8005a4c:	40012c00 	.word	0x40012c00
 8005a50:	40014400 	.word	0x40014400
 8005a54:	40014800 	.word	0x40014800
 8005a58:	40000400 	.word	0x40000400
 8005a5c:	00010007 	.word	0x00010007

08005a60 <HAL_TIM_OC_Stop_IT>:
{
 8005a60:	b510      	push	{r4, lr}
  switch (Channel)
 8005a62:	2908      	cmp	r1, #8
 8005a64:	d004      	beq.n	8005a70 <HAL_TIM_OC_Stop_IT+0x10>
 8005a66:	d82a      	bhi.n	8005abe <HAL_TIM_OC_Stop_IT+0x5e>
 8005a68:	2900      	cmp	r1, #0
 8005a6a:	d048      	beq.n	8005afe <HAL_TIM_OC_Stop_IT+0x9e>
 8005a6c:	2904      	cmp	r1, #4
 8005a6e:	d12e      	bne.n	8005ace <HAL_TIM_OC_Stop_IT+0x6e>
      __HAL_TIM_DISABLE_IT(htim, TIM_IT_CC3);
 8005a70:	6803      	ldr	r3, [r0, #0]
 8005a72:	68da      	ldr	r2, [r3, #12]
 8005a74:	438a      	bics	r2, r1
 8005a76:	60da      	str	r2, [r3, #12]
  tmp = TIM_CCER_CC1E << (Channel & 0x1FU); /* 0x1FU = 31 bits max shift */
 8005a78:	2401      	movs	r4, #1
 8005a7a:	408c      	lsls	r4, r1
  TIMx->CCER &= ~tmp;
 8005a7c:	6a1a      	ldr	r2, [r3, #32]
 8005a7e:	43a2      	bics	r2, r4
 8005a80:	621a      	str	r2, [r3, #32]
  TIMx->CCER |= (uint32_t)(ChannelState << (Channel & 0x1FU)); /* 0x1FU = 31 bits max shift */
 8005a82:	6a1a      	ldr	r2, [r3, #32]
 8005a84:	621a      	str	r2, [r3, #32]
    if (IS_TIM_BREAK_INSTANCE(htim->Instance) != RESET)
 8005a86:	4a26      	ldr	r2, [pc, #152]	@ (8005b20 <HAL_TIM_OC_Stop_IT+0xc0>)
 8005a88:	4293      	cmp	r3, r2
 8005a8a:	d022      	beq.n	8005ad2 <HAL_TIM_OC_Stop_IT+0x72>
 8005a8c:	4a25      	ldr	r2, [pc, #148]	@ (8005b24 <HAL_TIM_OC_Stop_IT+0xc4>)
 8005a8e:	4293      	cmp	r3, r2
 8005a90:	d01f      	beq.n	8005ad2 <HAL_TIM_OC_Stop_IT+0x72>
 8005a92:	4a25      	ldr	r2, [pc, #148]	@ (8005b28 <HAL_TIM_OC_Stop_IT+0xc8>)
 8005a94:	4293      	cmp	r3, r2
 8005a96:	d01c      	beq.n	8005ad2 <HAL_TIM_OC_Stop_IT+0x72>
    __HAL_TIM_DISABLE(htim);
 8005a98:	6a1c      	ldr	r4, [r3, #32]
 8005a9a:	4a24      	ldr	r2, [pc, #144]	@ (8005b2c <HAL_TIM_OC_Stop_IT+0xcc>)
 8005a9c:	4214      	tst	r4, r2
 8005a9e:	d107      	bne.n	8005ab0 <HAL_TIM_OC_Stop_IT+0x50>
 8005aa0:	6a1c      	ldr	r4, [r3, #32]
 8005aa2:	4a23      	ldr	r2, [pc, #140]	@ (8005b30 <HAL_TIM_OC_Stop_IT+0xd0>)
 8005aa4:	4214      	tst	r4, r2
 8005aa6:	d103      	bne.n	8005ab0 <HAL_TIM_OC_Stop_IT+0x50>
 8005aa8:	2401      	movs	r4, #1
 8005aaa:	681a      	ldr	r2, [r3, #0]
 8005aac:	43a2      	bics	r2, r4
 8005aae:	601a      	str	r2, [r3, #0]
    TIM_CHANNEL_STATE_SET(htim, Channel, HAL_TIM_CHANNEL_STATE_READY);
 8005ab0:	2900      	cmp	r1, #0
 8005ab2:	d11b      	bne.n	8005aec <HAL_TIM_OC_Stop_IT+0x8c>
 8005ab4:	233e      	movs	r3, #62	@ 0x3e
 8005ab6:	2201      	movs	r2, #1
 8005ab8:	54c2      	strb	r2, [r0, r3]
  switch (Channel)
 8005aba:	2000      	movs	r0, #0
 8005abc:	e008      	b.n	8005ad0 <HAL_TIM_OC_Stop_IT+0x70>
 8005abe:	290c      	cmp	r1, #12
 8005ac0:	d105      	bne.n	8005ace <HAL_TIM_OC_Stop_IT+0x6e>
      __HAL_TIM_DISABLE_IT(htim, TIM_IT_CC4);
 8005ac2:	2410      	movs	r4, #16
 8005ac4:	6803      	ldr	r3, [r0, #0]
 8005ac6:	68da      	ldr	r2, [r3, #12]
 8005ac8:	43a2      	bics	r2, r4
 8005aca:	60da      	str	r2, [r3, #12]
  if (status == HAL_OK)
 8005acc:	e7d4      	b.n	8005a78 <HAL_TIM_OC_Stop_IT+0x18>
  switch (Channel)
 8005ace:	2001      	movs	r0, #1
}
 8005ad0:	bd10      	pop	{r4, pc}
      __HAL_TIM_MOE_DISABLE(htim);
 8005ad2:	6a1c      	ldr	r4, [r3, #32]
 8005ad4:	4a15      	ldr	r2, [pc, #84]	@ (8005b2c <HAL_TIM_OC_Stop_IT+0xcc>)
 8005ad6:	4214      	tst	r4, r2
 8005ad8:	d1de      	bne.n	8005a98 <HAL_TIM_OC_Stop_IT+0x38>
 8005ada:	6a1c      	ldr	r4, [r3, #32]
 8005adc:	4a14      	ldr	r2, [pc, #80]	@ (8005b30 <HAL_TIM_OC_Stop_IT+0xd0>)
 8005ade:	4214      	tst	r4, r2
 8005ae0:	d1da      	bne.n	8005a98 <HAL_TIM_OC_Stop_IT+0x38>
 8005ae2:	6c5a      	ldr	r2, [r3, #68]	@ 0x44
 8005ae4:	4c13      	ldr	r4, [pc, #76]	@ (8005b34 <HAL_TIM_OC_Stop_IT+0xd4>)
 8005ae6:	4022      	ands	r2, r4
 8005ae8:	645a      	str	r2, [r3, #68]	@ 0x44
 8005aea:	e7d5      	b.n	8005a98 <HAL_TIM_OC_Stop_IT+0x38>
    TIM_CHANNEL_STATE_SET(htim, Channel, HAL_TIM_CHANNEL_STATE_READY);
 8005aec:	2904      	cmp	r1, #4
 8005aee:	d011      	beq.n	8005b14 <HAL_TIM_OC_Stop_IT+0xb4>
 8005af0:	2908      	cmp	r1, #8
 8005af2:	d00a      	beq.n	8005b0a <HAL_TIM_OC_Stop_IT+0xaa>
 8005af4:	2341      	movs	r3, #65	@ 0x41
 8005af6:	2201      	movs	r2, #1
 8005af8:	54c2      	strb	r2, [r0, r3]
  switch (Channel)
 8005afa:	2000      	movs	r0, #0
 8005afc:	e7e8      	b.n	8005ad0 <HAL_TIM_OC_Stop_IT+0x70>
      __HAL_TIM_DISABLE_IT(htim, TIM_IT_CC1);
 8005afe:	2402      	movs	r4, #2
 8005b00:	6803      	ldr	r3, [r0, #0]
 8005b02:	68da      	ldr	r2, [r3, #12]
 8005b04:	43a2      	bics	r2, r4
 8005b06:	60da      	str	r2, [r3, #12]
  if (status == HAL_OK)
 8005b08:	e7b6      	b.n	8005a78 <HAL_TIM_OC_Stop_IT+0x18>
    TIM_CHANNEL_STATE_SET(htim, Channel, HAL_TIM_CHANNEL_STATE_READY);
 8005b0a:	2340      	movs	r3, #64	@ 0x40
 8005b0c:	2201      	movs	r2, #1
 8005b0e:	54c2      	strb	r2, [r0, r3]
  switch (Channel)
 8005b10:	2000      	movs	r0, #0
 8005b12:	e7dd      	b.n	8005ad0 <HAL_TIM_OC_Stop_IT+0x70>
    TIM_CHANNEL_STATE_SET(htim, Channel, HAL_TIM_CHANNEL_STATE_READY);
 8005b14:	233f      	movs	r3, #63	@ 0x3f
 8005b16:	2201      	movs	r2, #1
 8005b18:	54c2      	strb	r2, [r0, r3]
  switch (Channel)
 8005b1a:	2000      	movs	r0, #0
 8005b1c:	e7d8      	b.n	8005ad0 <HAL_TIM_OC_Stop_IT+0x70>
 8005b1e:	46c0      	nop			@ (mov r8, r8)
 8005b20:	40012c00 	.word	0x40012c00
 8005b24:	40014400 	.word	0x40014400
 8005b28:	40014800 	.word	0x40014800
 8005b2c:	00001111 	.word	0x00001111
 8005b30:	00000444 	.word	0x00000444
 8005b34:	ffff7fff 	.word	0xffff7fff

08005b38 <HAL_TIM_PWM_Init>:
{
 8005b38:	b570      	push	{r4, r5, r6, lr}
 8005b3a:	1e04      	subs	r4, r0, #0
  if (htim == NULL)
 8005b3c:	d100      	bne.n	8005b40 <HAL_TIM_PWM_Init+0x8>
 8005b3e:	e096      	b.n	8005c6e <HAL_TIM_PWM_Init+0x136>
  if (htim->State == HAL_TIM_STATE_RESET)
 8005b40:	233d      	movs	r3, #61	@ 0x3d
 8005b42:	5cc3      	ldrb	r3, [r0, r3]
 8005b44:	b2da      	uxtb	r2, r3
 8005b46:	2b00      	cmp	r3, #0
 8005b48:	d130      	bne.n	8005bac <HAL_TIM_PWM_Init+0x74>
    htim->Lock = HAL_UNLOCKED;
 8005b4a:	333c      	adds	r3, #60	@ 0x3c
 8005b4c:	54c2      	strb	r2, [r0, r3]
  htim->PeriodElapsedCallback             = HAL_TIM_PeriodElapsedCallback;
 8005b4e:	2284      	movs	r2, #132	@ 0x84
 8005b50:	4b4f      	ldr	r3, [pc, #316]	@ (8005c90 <HAL_TIM_PWM_Init+0x158>)
 8005b52:	5083      	str	r3, [r0, r2]
  htim->PeriodElapsedHalfCpltCallback     = HAL_TIM_PeriodElapsedHalfCpltCallback;
 8005b54:	4b4f      	ldr	r3, [pc, #316]	@ (8005c94 <HAL_TIM_PWM_Init+0x15c>)
 8005b56:	3204      	adds	r2, #4
 8005b58:	5083      	str	r3, [r0, r2]
  htim->TriggerCallback                   = HAL_TIM_TriggerCallback;
 8005b5a:	4b4f      	ldr	r3, [pc, #316]	@ (8005c98 <HAL_TIM_PWM_Init+0x160>)
 8005b5c:	3204      	adds	r2, #4
 8005b5e:	5083      	str	r3, [r0, r2]
  htim->TriggerHalfCpltCallback           = HAL_TIM_TriggerHalfCpltCallback;
 8005b60:	4b4e      	ldr	r3, [pc, #312]	@ (8005c9c <HAL_TIM_PWM_Init+0x164>)
 8005b62:	3204      	adds	r2, #4
 8005b64:	5083      	str	r3, [r0, r2]
  htim->IC_CaptureCallback                = HAL_TIM_IC_CaptureCallback;
 8005b66:	4b4e      	ldr	r3, [pc, #312]	@ (8005ca0 <HAL_TIM_PWM_Init+0x168>)
 8005b68:	3204      	adds	r2, #4
 8005b6a:	5083      	str	r3, [r0, r2]
  htim->IC_CaptureHalfCpltCallback        = HAL_TIM_IC_CaptureHalfCpltCallback;
 8005b6c:	4b4d      	ldr	r3, [pc, #308]	@ (8005ca4 <HAL_TIM_PWM_Init+0x16c>)
 8005b6e:	3204      	adds	r2, #4
 8005b70:	5083      	str	r3, [r0, r2]
  htim->OC_DelayElapsedCallback           = HAL_TIM_OC_DelayElapsedCallback;
 8005b72:	4b4d      	ldr	r3, [pc, #308]	@ (8005ca8 <HAL_TIM_PWM_Init+0x170>)
 8005b74:	3204      	adds	r2, #4
 8005b76:	5083      	str	r3, [r0, r2]
  htim->PWM_PulseFinishedCallback         = HAL_TIM_PWM_PulseFinishedCallback;
 8005b78:	4b4c      	ldr	r3, [pc, #304]	@ (8005cac <HAL_TIM_PWM_Init+0x174>)
 8005b7a:	3204      	adds	r2, #4
 8005b7c:	5083      	str	r3, [r0, r2]
  htim->PWM_PulseFinishedHalfCpltCallback = HAL_TIM_PWM_PulseFinishedHalfCpltCallback;
 8005b7e:	4b4c      	ldr	r3, [pc, #304]	@ (8005cb0 <HAL_TIM_PWM_Init+0x178>)
 8005b80:	3204      	adds	r2, #4
 8005b82:	5083      	str	r3, [r0, r2]
  htim->ErrorCallback                     = HAL_TIM_ErrorCallback;
 8005b84:	4b4b      	ldr	r3, [pc, #300]	@ (8005cb4 <HAL_TIM_PWM_Init+0x17c>)
 8005b86:	3204      	adds	r2, #4
 8005b88:	5083      	str	r3, [r0, r2]
  htim->CommutationCallback               = HAL_TIMEx_CommutCallback;
 8005b8a:	4b4b      	ldr	r3, [pc, #300]	@ (8005cb8 <HAL_TIM_PWM_Init+0x180>)
 8005b8c:	3204      	adds	r2, #4
 8005b8e:	5083      	str	r3, [r0, r2]
  htim->CommutationHalfCpltCallback       = HAL_TIMEx_CommutHalfCpltCallback;
 8005b90:	4b4a      	ldr	r3, [pc, #296]	@ (8005cbc <HAL_TIM_PWM_Init+0x184>)
 8005b92:	3204      	adds	r2, #4
 8005b94:	5083      	str	r3, [r0, r2]
  htim->BreakCallback                     = HAL_TIMEx_BreakCallback;
 8005b96:	4b4a      	ldr	r3, [pc, #296]	@ (8005cc0 <HAL_TIM_PWM_Init+0x188>)
 8005b98:	3204      	adds	r2, #4
 8005b9a:	5083      	str	r3, [r0, r2]
  htim->Break2Callback                    = HAL_TIMEx_Break2Callback;
 8005b9c:	4b49      	ldr	r3, [pc, #292]	@ (8005cc4 <HAL_TIM_PWM_Init+0x18c>)
 8005b9e:	3204      	adds	r2, #4
 8005ba0:	5083      	str	r3, [r0, r2]
    if (htim->PWM_MspInitCallback == NULL)
 8005ba2:	6e43      	ldr	r3, [r0, #100]	@ 0x64
 8005ba4:	2b00      	cmp	r3, #0
 8005ba6:	d064      	beq.n	8005c72 <HAL_TIM_PWM_Init+0x13a>
    htim->PWM_MspInitCallback(htim);
 8005ba8:	0020      	movs	r0, r4
 8005baa:	4798      	blx	r3
  htim->State = HAL_TIM_STATE_BUSY;
 8005bac:	233d      	movs	r3, #61	@ 0x3d
 8005bae:	2202      	movs	r2, #2
 8005bb0:	54e2      	strb	r2, [r4, r3]
  TIM_Base_SetConfig(htim->Instance, &htim->Init);
 8005bb2:	6823      	ldr	r3, [r4, #0]
  if (IS_TIM_COUNTER_MODE_SELECT_INSTANCE(TIMx))
 8005bb4:	4e44      	ldr	r6, [pc, #272]	@ (8005cc8 <HAL_TIM_PWM_Init+0x190>)
  tmpcr1 = TIMx->CR1;
 8005bb6:	681a      	ldr	r2, [r3, #0]
  MODIFY_REG(tmpcr1, TIM_CR1_ARPE, Structure->AutoReloadPreload);
 8005bb8:	69a5      	ldr	r5, [r4, #24]
  TIMx->ARR = (uint32_t)Structure->Period ;
 8005bba:	68e0      	ldr	r0, [r4, #12]
  TIMx->PSC = Structure->Prescaler;
 8005bbc:	6861      	ldr	r1, [r4, #4]
  if (IS_TIM_COUNTER_MODE_SELECT_INSTANCE(TIMx))
 8005bbe:	42b3      	cmp	r3, r6
 8005bc0:	d016      	beq.n	8005bf0 <HAL_TIM_PWM_Init+0xb8>
 8005bc2:	2680      	movs	r6, #128	@ 0x80
 8005bc4:	05f6      	lsls	r6, r6, #23
 8005bc6:	42b3      	cmp	r3, r6
 8005bc8:	d012      	beq.n	8005bf0 <HAL_TIM_PWM_Init+0xb8>
 8005bca:	4e40      	ldr	r6, [pc, #256]	@ (8005ccc <HAL_TIM_PWM_Init+0x194>)
 8005bcc:	42b3      	cmp	r3, r6
 8005bce:	d045      	beq.n	8005c5c <HAL_TIM_PWM_Init+0x124>
  if (IS_TIM_CLOCK_DIVISION_INSTANCE(TIMx))
 8005bd0:	4e3f      	ldr	r6, [pc, #252]	@ (8005cd0 <HAL_TIM_PWM_Init+0x198>)
 8005bd2:	42b3      	cmp	r3, r6
 8005bd4:	d046      	beq.n	8005c64 <HAL_TIM_PWM_Init+0x12c>
 8005bd6:	4e3f      	ldr	r6, [pc, #252]	@ (8005cd4 <HAL_TIM_PWM_Init+0x19c>)
 8005bd8:	42b3      	cmp	r3, r6
 8005bda:	d04d      	beq.n	8005c78 <HAL_TIM_PWM_Init+0x140>
 8005bdc:	4e3e      	ldr	r6, [pc, #248]	@ (8005cd8 <HAL_TIM_PWM_Init+0x1a0>)
 8005bde:	42b3      	cmp	r3, r6
 8005be0:	d04a      	beq.n	8005c78 <HAL_TIM_PWM_Init+0x140>
  MODIFY_REG(tmpcr1, TIM_CR1_ARPE, Structure->AutoReloadPreload);
 8005be2:	2680      	movs	r6, #128	@ 0x80
 8005be4:	43b2      	bics	r2, r6
 8005be6:	432a      	orrs	r2, r5
  TIMx->CR1 = tmpcr1;
 8005be8:	601a      	str	r2, [r3, #0]
  TIMx->ARR = (uint32_t)Structure->Period ;
 8005bea:	62d8      	str	r0, [r3, #44]	@ 0x2c
  TIMx->PSC = Structure->Prescaler;
 8005bec:	6299      	str	r1, [r3, #40]	@ 0x28
  if (IS_TIM_REPETITION_COUNTER_INSTANCE(TIMx))
 8005bee:	e012      	b.n	8005c16 <HAL_TIM_PWM_Init+0xde>
    tmpcr1 &= ~(TIM_CR1_DIR | TIM_CR1_CMS);
 8005bf0:	2670      	movs	r6, #112	@ 0x70
 8005bf2:	43b2      	bics	r2, r6
    tmpcr1 |= Structure->CounterMode;
 8005bf4:	68a6      	ldr	r6, [r4, #8]
 8005bf6:	4332      	orrs	r2, r6
    tmpcr1 &= ~TIM_CR1_CKD;
 8005bf8:	4e38      	ldr	r6, [pc, #224]	@ (8005cdc <HAL_TIM_PWM_Init+0x1a4>)
 8005bfa:	4032      	ands	r2, r6
    tmpcr1 |= (uint32_t)Structure->ClockDivision;
 8005bfc:	6926      	ldr	r6, [r4, #16]
 8005bfe:	4332      	orrs	r2, r6
  MODIFY_REG(tmpcr1, TIM_CR1_ARPE, Structure->AutoReloadPreload);
 8005c00:	2680      	movs	r6, #128	@ 0x80
 8005c02:	43b2      	bics	r2, r6
 8005c04:	432a      	orrs	r2, r5
  TIMx->CR1 = tmpcr1;
 8005c06:	601a      	str	r2, [r3, #0]
  if (IS_TIM_REPETITION_COUNTER_INSTANCE(TIMx))
 8005c08:	4a2f      	ldr	r2, [pc, #188]	@ (8005cc8 <HAL_TIM_PWM_Init+0x190>)
  TIMx->ARR = (uint32_t)Structure->Period ;
 8005c0a:	62d8      	str	r0, [r3, #44]	@ 0x2c
  TIMx->PSC = Structure->Prescaler;
 8005c0c:	6299      	str	r1, [r3, #40]	@ 0x28
  if (IS_TIM_REPETITION_COUNTER_INSTANCE(TIMx))
 8005c0e:	4293      	cmp	r3, r2
 8005c10:	d101      	bne.n	8005c16 <HAL_TIM_PWM_Init+0xde>
    TIMx->RCR = Structure->RepetitionCounter;
 8005c12:	6962      	ldr	r2, [r4, #20]
 8005c14:	631a      	str	r2, [r3, #48]	@ 0x30
  TIMx->EGR = TIM_EGR_UG;
 8005c16:	2201      	movs	r2, #1
 8005c18:	615a      	str	r2, [r3, #20]
  if (HAL_IS_BIT_SET(TIMx->SR, TIM_FLAG_UPDATE))
 8005c1a:	6919      	ldr	r1, [r3, #16]
 8005c1c:	420a      	tst	r2, r1
 8005c1e:	d002      	beq.n	8005c26 <HAL_TIM_PWM_Init+0xee>
    CLEAR_BIT(TIMx->SR, TIM_FLAG_UPDATE);
 8005c20:	6919      	ldr	r1, [r3, #16]
 8005c22:	4391      	bics	r1, r2
 8005c24:	6119      	str	r1, [r3, #16]
  htim->DMABurstState = HAL_DMA_BURST_STATE_READY;
 8005c26:	2301      	movs	r3, #1
 8005c28:	2248      	movs	r2, #72	@ 0x48
  return HAL_OK;
 8005c2a:	2000      	movs	r0, #0
  htim->DMABurstState = HAL_DMA_BURST_STATE_READY;
 8005c2c:	54a3      	strb	r3, [r4, r2]
  TIM_CHANNEL_STATE_SET_ALL(htim, HAL_TIM_CHANNEL_STATE_READY);
 8005c2e:	3a0a      	subs	r2, #10
 8005c30:	54a3      	strb	r3, [r4, r2]
 8005c32:	3201      	adds	r2, #1
 8005c34:	54a3      	strb	r3, [r4, r2]
 8005c36:	3201      	adds	r2, #1
 8005c38:	54a3      	strb	r3, [r4, r2]
 8005c3a:	3201      	adds	r2, #1
 8005c3c:	54a3      	strb	r3, [r4, r2]
 8005c3e:	3201      	adds	r2, #1
 8005c40:	54a3      	strb	r3, [r4, r2]
 8005c42:	3201      	adds	r2, #1
 8005c44:	54a3      	strb	r3, [r4, r2]
  TIM_CHANNEL_N_STATE_SET_ALL(htim, HAL_TIM_CHANNEL_STATE_READY);
 8005c46:	3201      	adds	r2, #1
 8005c48:	54a3      	strb	r3, [r4, r2]
 8005c4a:	3201      	adds	r2, #1
 8005c4c:	54a3      	strb	r3, [r4, r2]
 8005c4e:	3201      	adds	r2, #1
 8005c50:	54a3      	strb	r3, [r4, r2]
 8005c52:	3201      	adds	r2, #1
 8005c54:	54a3      	strb	r3, [r4, r2]
  htim->State = HAL_TIM_STATE_READY;
 8005c56:	3a0a      	subs	r2, #10
 8005c58:	54a3      	strb	r3, [r4, r2]
}
 8005c5a:	bd70      	pop	{r4, r5, r6, pc}
    tmpcr1 &= ~(TIM_CR1_DIR | TIM_CR1_CMS);
 8005c5c:	2670      	movs	r6, #112	@ 0x70
 8005c5e:	43b2      	bics	r2, r6
    tmpcr1 |= Structure->CounterMode;
 8005c60:	68a6      	ldr	r6, [r4, #8]
 8005c62:	4332      	orrs	r2, r6
    tmpcr1 &= ~TIM_CR1_CKD;
 8005c64:	4e1d      	ldr	r6, [pc, #116]	@ (8005cdc <HAL_TIM_PWM_Init+0x1a4>)
 8005c66:	4032      	ands	r2, r6
    tmpcr1 |= (uint32_t)Structure->ClockDivision;
 8005c68:	6926      	ldr	r6, [r4, #16]
 8005c6a:	4332      	orrs	r2, r6
 8005c6c:	e7b9      	b.n	8005be2 <HAL_TIM_PWM_Init+0xaa>
    return HAL_ERROR;
 8005c6e:	2001      	movs	r0, #1
 8005c70:	e7f3      	b.n	8005c5a <HAL_TIM_PWM_Init+0x122>
      htim->PWM_MspInitCallback = HAL_TIM_PWM_MspInit;
 8005c72:	4b1b      	ldr	r3, [pc, #108]	@ (8005ce0 <HAL_TIM_PWM_Init+0x1a8>)
 8005c74:	6643      	str	r3, [r0, #100]	@ 0x64
 8005c76:	e797      	b.n	8005ba8 <HAL_TIM_PWM_Init+0x70>
    tmpcr1 &= ~TIM_CR1_CKD;
 8005c78:	4e18      	ldr	r6, [pc, #96]	@ (8005cdc <HAL_TIM_PWM_Init+0x1a4>)
 8005c7a:	4032      	ands	r2, r6
    tmpcr1 |= (uint32_t)Structure->ClockDivision;
 8005c7c:	6926      	ldr	r6, [r4, #16]
 8005c7e:	4332      	orrs	r2, r6
  MODIFY_REG(tmpcr1, TIM_CR1_ARPE, Structure->AutoReloadPreload);
 8005c80:	2680      	movs	r6, #128	@ 0x80
 8005c82:	43b2      	bics	r2, r6
 8005c84:	432a      	orrs	r2, r5
  TIMx->CR1 = tmpcr1;
 8005c86:	601a      	str	r2, [r3, #0]
  TIMx->ARR = (uint32_t)Structure->Period ;
 8005c88:	62d8      	str	r0, [r3, #44]	@ 0x2c
  TIMx->PSC = Structure->Prescaler;
 8005c8a:	6299      	str	r1, [r3, #40]	@ 0x28
  if (IS_TIM_REPETITION_COUNTER_INSTANCE(TIMx))
 8005c8c:	e7c1      	b.n	8005c12 <HAL_TIM_PWM_Init+0xda>
 8005c8e:	46c0      	nop			@ (mov r8, r8)
 8005c90:	08005521 	.word	0x08005521
 8005c94:	08005525 	.word	0x08005525
 8005c98:	0800553d 	.word	0x0800553d
 8005c9c:	08005541 	.word	0x08005541
 8005ca0:	0800552d 	.word	0x0800552d
 8005ca4:	08005531 	.word	0x08005531
 8005ca8:	08005529 	.word	0x08005529
 8005cac:	08005535 	.word	0x08005535
 8005cb0:	08005539 	.word	0x08005539
 8005cb4:	08005545 	.word	0x08005545
 8005cb8:	08006db5 	.word	0x08006db5
 8005cbc:	08006db9 	.word	0x08006db9
 8005cc0:	08006dbd 	.word	0x08006dbd
 8005cc4:	08006dc1 	.word	0x08006dc1
 8005cc8:	40012c00 	.word	0x40012c00
 8005ccc:	40000400 	.word	0x40000400
 8005cd0:	40002000 	.word	0x40002000
 8005cd4:	40014400 	.word	0x40014400
 8005cd8:	40014800 	.word	0x40014800
 8005cdc:	fffffcff 	.word	0xfffffcff
 8005ce0:	08005519 	.word	0x08005519

08005ce4 <HAL_TIM_PWM_Start>:
HAL_StatusTypeDef HAL_TIM_PWM_Start(TIM_HandleTypeDef *htim, uint32_t Channel)
 8005ce4:	2910      	cmp	r1, #16
 8005ce6:	d803      	bhi.n	8005cf0 <HAL_TIM_PWM_Start+0xc>
 8005ce8:	4a2c      	ldr	r2, [pc, #176]	@ (8005d9c <HAL_TIM_PWM_Start+0xb8>)
 8005cea:	008b      	lsls	r3, r1, #2
 8005cec:	58d3      	ldr	r3, [r2, r3]
 8005cee:	469f      	mov	pc, r3
 8005cf0:	2343      	movs	r3, #67	@ 0x43
 8005cf2:	5cc2      	ldrb	r2, [r0, r3]
 8005cf4:	2a01      	cmp	r2, #1
 8005cf6:	d12e      	bne.n	8005d56 <HAL_TIM_PWM_Start+0x72>
 8005cf8:	2202      	movs	r2, #2
 8005cfa:	54c2      	strb	r2, [r0, r3]
 8005cfc:	221f      	movs	r2, #31
 8005cfe:	4011      	ands	r1, r2
 8005d00:	3a1e      	subs	r2, #30
 8005d02:	408a      	lsls	r2, r1
 8005d04:	6803      	ldr	r3, [r0, #0]
 8005d06:	6a19      	ldr	r1, [r3, #32]
 8005d08:	4391      	bics	r1, r2
 8005d0a:	6219      	str	r1, [r3, #32]
 8005d0c:	6a19      	ldr	r1, [r3, #32]
 8005d0e:	430a      	orrs	r2, r1
 8005d10:	621a      	str	r2, [r3, #32]
 8005d12:	4a23      	ldr	r2, [pc, #140]	@ (8005da0 <HAL_TIM_PWM_Start+0xbc>)
 8005d14:	4293      	cmp	r3, r2
 8005d16:	d03a      	beq.n	8005d8e <HAL_TIM_PWM_Start+0xaa>
 8005d18:	4a22      	ldr	r2, [pc, #136]	@ (8005da4 <HAL_TIM_PWM_Start+0xc0>)
 8005d1a:	4293      	cmp	r3, r2
 8005d1c:	d031      	beq.n	8005d82 <HAL_TIM_PWM_Start+0x9e>
 8005d1e:	4a22      	ldr	r2, [pc, #136]	@ (8005da8 <HAL_TIM_PWM_Start+0xc4>)
 8005d20:	4293      	cmp	r3, r2
 8005d22:	d02e      	beq.n	8005d82 <HAL_TIM_PWM_Start+0x9e>
 8005d24:	2280      	movs	r2, #128	@ 0x80
 8005d26:	05d2      	lsls	r2, r2, #23
 8005d28:	4293      	cmp	r3, r2
 8005d2a:	d002      	beq.n	8005d32 <HAL_TIM_PWM_Start+0x4e>
 8005d2c:	4a1f      	ldr	r2, [pc, #124]	@ (8005dac <HAL_TIM_PWM_Start+0xc8>)
 8005d2e:	4293      	cmp	r3, r2
 8005d30:	d107      	bne.n	8005d42 <HAL_TIM_PWM_Start+0x5e>
 8005d32:	689a      	ldr	r2, [r3, #8]
 8005d34:	491e      	ldr	r1, [pc, #120]	@ (8005db0 <HAL_TIM_PWM_Start+0xcc>)
 8005d36:	400a      	ands	r2, r1
 8005d38:	2a06      	cmp	r2, #6
 8005d3a:	d006      	beq.n	8005d4a <HAL_TIM_PWM_Start+0x66>
 8005d3c:	3907      	subs	r1, #7
 8005d3e:	428a      	cmp	r2, r1
 8005d40:	d003      	beq.n	8005d4a <HAL_TIM_PWM_Start+0x66>
 8005d42:	2101      	movs	r1, #1
 8005d44:	681a      	ldr	r2, [r3, #0]
 8005d46:	430a      	orrs	r2, r1
 8005d48:	601a      	str	r2, [r3, #0]
 8005d4a:	2000      	movs	r0, #0
 8005d4c:	4770      	bx	lr
 8005d4e:	233e      	movs	r3, #62	@ 0x3e
 8005d50:	5cc2      	ldrb	r2, [r0, r3]
 8005d52:	2a01      	cmp	r2, #1
 8005d54:	d0d0      	beq.n	8005cf8 <HAL_TIM_PWM_Start+0x14>
 8005d56:	2001      	movs	r0, #1
 8005d58:	e7f8      	b.n	8005d4c <HAL_TIM_PWM_Start+0x68>
 8005d5a:	233f      	movs	r3, #63	@ 0x3f
 8005d5c:	5cc2      	ldrb	r2, [r0, r3]
 8005d5e:	2a01      	cmp	r2, #1
 8005d60:	d0ca      	beq.n	8005cf8 <HAL_TIM_PWM_Start+0x14>
 8005d62:	e7f8      	b.n	8005d56 <HAL_TIM_PWM_Start+0x72>
 8005d64:	2340      	movs	r3, #64	@ 0x40
 8005d66:	5cc2      	ldrb	r2, [r0, r3]
 8005d68:	2a01      	cmp	r2, #1
 8005d6a:	d0c5      	beq.n	8005cf8 <HAL_TIM_PWM_Start+0x14>
 8005d6c:	e7f3      	b.n	8005d56 <HAL_TIM_PWM_Start+0x72>
 8005d6e:	2341      	movs	r3, #65	@ 0x41
 8005d70:	5cc2      	ldrb	r2, [r0, r3]
 8005d72:	2a01      	cmp	r2, #1
 8005d74:	d0c0      	beq.n	8005cf8 <HAL_TIM_PWM_Start+0x14>
 8005d76:	e7ee      	b.n	8005d56 <HAL_TIM_PWM_Start+0x72>
 8005d78:	2342      	movs	r3, #66	@ 0x42
 8005d7a:	5cc2      	ldrb	r2, [r0, r3]
 8005d7c:	2a01      	cmp	r2, #1
 8005d7e:	d0bb      	beq.n	8005cf8 <HAL_TIM_PWM_Start+0x14>
 8005d80:	e7e9      	b.n	8005d56 <HAL_TIM_PWM_Start+0x72>
 8005d82:	2280      	movs	r2, #128	@ 0x80
 8005d84:	6c59      	ldr	r1, [r3, #68]	@ 0x44
 8005d86:	0212      	lsls	r2, r2, #8
 8005d88:	430a      	orrs	r2, r1
 8005d8a:	645a      	str	r2, [r3, #68]	@ 0x44
 8005d8c:	e7d9      	b.n	8005d42 <HAL_TIM_PWM_Start+0x5e>
 8005d8e:	2280      	movs	r2, #128	@ 0x80
 8005d90:	6c59      	ldr	r1, [r3, #68]	@ 0x44
 8005d92:	0212      	lsls	r2, r2, #8
 8005d94:	430a      	orrs	r2, r1
 8005d96:	645a      	str	r2, [r3, #68]	@ 0x44
 8005d98:	e7cb      	b.n	8005d32 <HAL_TIM_PWM_Start+0x4e>
 8005d9a:	46c0      	nop			@ (mov r8, r8)
 8005d9c:	08008560 	.word	0x08008560
 8005da0:	40012c00 	.word	0x40012c00
 8005da4:	40014400 	.word	0x40014400
 8005da8:	40014800 	.word	0x40014800
 8005dac:	40000400 	.word	0x40000400
 8005db0:	00010007 	.word	0x00010007

08005db4 <HAL_TIM_IC_Init>:
{
 8005db4:	b570      	push	{r4, r5, r6, lr}
 8005db6:	1e04      	subs	r4, r0, #0
  if (htim == NULL)
 8005db8:	d100      	bne.n	8005dbc <HAL_TIM_IC_Init+0x8>
 8005dba:	e096      	b.n	8005eea <HAL_TIM_IC_Init+0x136>
  if (htim->State == HAL_TIM_STATE_RESET)
 8005dbc:	233d      	movs	r3, #61	@ 0x3d
 8005dbe:	5cc3      	ldrb	r3, [r0, r3]
 8005dc0:	b2da      	uxtb	r2, r3
 8005dc2:	2b00      	cmp	r3, #0
 8005dc4:	d130      	bne.n	8005e28 <HAL_TIM_IC_Init+0x74>
    htim->Lock = HAL_UNLOCKED;
 8005dc6:	333c      	adds	r3, #60	@ 0x3c
 8005dc8:	54c2      	strb	r2, [r0, r3]
  htim->PeriodElapsedCallback             = HAL_TIM_PeriodElapsedCallback;
 8005dca:	2284      	movs	r2, #132	@ 0x84
 8005dcc:	4b4f      	ldr	r3, [pc, #316]	@ (8005f0c <HAL_TIM_IC_Init+0x158>)
 8005dce:	5083      	str	r3, [r0, r2]
  htim->PeriodElapsedHalfCpltCallback     = HAL_TIM_PeriodElapsedHalfCpltCallback;
 8005dd0:	4b4f      	ldr	r3, [pc, #316]	@ (8005f10 <HAL_TIM_IC_Init+0x15c>)
 8005dd2:	3204      	adds	r2, #4
 8005dd4:	5083      	str	r3, [r0, r2]
  htim->TriggerCallback                   = HAL_TIM_TriggerCallback;
 8005dd6:	4b4f      	ldr	r3, [pc, #316]	@ (8005f14 <HAL_TIM_IC_Init+0x160>)
 8005dd8:	3204      	adds	r2, #4
 8005dda:	5083      	str	r3, [r0, r2]
  htim->TriggerHalfCpltCallback           = HAL_TIM_TriggerHalfCpltCallback;
 8005ddc:	4b4e      	ldr	r3, [pc, #312]	@ (8005f18 <HAL_TIM_IC_Init+0x164>)
 8005dde:	3204      	adds	r2, #4
 8005de0:	5083      	str	r3, [r0, r2]
  htim->IC_CaptureCallback                = HAL_TIM_IC_CaptureCallback;
 8005de2:	4b4e      	ldr	r3, [pc, #312]	@ (8005f1c <HAL_TIM_IC_Init+0x168>)
 8005de4:	3204      	adds	r2, #4
 8005de6:	5083      	str	r3, [r0, r2]
  htim->IC_CaptureHalfCpltCallback        = HAL_TIM_IC_CaptureHalfCpltCallback;
 8005de8:	4b4d      	ldr	r3, [pc, #308]	@ (8005f20 <HAL_TIM_IC_Init+0x16c>)
 8005dea:	3204      	adds	r2, #4
 8005dec:	5083      	str	r3, [r0, r2]
  htim->OC_DelayElapsedCallback           = HAL_TIM_OC_DelayElapsedCallback;
 8005dee:	4b4d      	ldr	r3, [pc, #308]	@ (8005f24 <HAL_TIM_IC_Init+0x170>)
 8005df0:	3204      	adds	r2, #4
 8005df2:	5083      	str	r3, [r0, r2]
  htim->PWM_PulseFinishedCallback         = HAL_TIM_PWM_PulseFinishedCallback;
 8005df4:	4b4c      	ldr	r3, [pc, #304]	@ (8005f28 <HAL_TIM_IC_Init+0x174>)
 8005df6:	3204      	adds	r2, #4
 8005df8:	5083      	str	r3, [r0, r2]
  htim->PWM_PulseFinishedHalfCpltCallback = HAL_TIM_PWM_PulseFinishedHalfCpltCallback;
 8005dfa:	4b4c      	ldr	r3, [pc, #304]	@ (8005f2c <HAL_TIM_IC_Init+0x178>)
 8005dfc:	3204      	adds	r2, #4
 8005dfe:	5083      	str	r3, [r0, r2]
  htim->ErrorCallback                     = HAL_TIM_ErrorCallback;
 8005e00:	4b4b      	ldr	r3, [pc, #300]	@ (8005f30 <HAL_TIM_IC_Init+0x17c>)
 8005e02:	3204      	adds	r2, #4
 8005e04:	5083      	str	r3, [r0, r2]
  htim->CommutationCallback               = HAL_TIMEx_CommutCallback;
 8005e06:	4b4b      	ldr	r3, [pc, #300]	@ (8005f34 <HAL_TIM_IC_Init+0x180>)
 8005e08:	3204      	adds	r2, #4
 8005e0a:	5083      	str	r3, [r0, r2]
  htim->CommutationHalfCpltCallback       = HAL_TIMEx_CommutHalfCpltCallback;
 8005e0c:	4b4a      	ldr	r3, [pc, #296]	@ (8005f38 <HAL_TIM_IC_Init+0x184>)
 8005e0e:	3204      	adds	r2, #4
 8005e10:	5083      	str	r3, [r0, r2]
  htim->BreakCallback                     = HAL_TIMEx_BreakCallback;
 8005e12:	4b4a      	ldr	r3, [pc, #296]	@ (8005f3c <HAL_TIM_IC_Init+0x188>)
 8005e14:	3204      	adds	r2, #4
 8005e16:	5083      	str	r3, [r0, r2]
  htim->Break2Callback                    = HAL_TIMEx_Break2Callback;
 8005e18:	4b49      	ldr	r3, [pc, #292]	@ (8005f40 <HAL_TIM_IC_Init+0x18c>)
 8005e1a:	3204      	adds	r2, #4
 8005e1c:	5083      	str	r3, [r0, r2]
    if (htim->IC_MspInitCallback == NULL)
 8005e1e:	6d43      	ldr	r3, [r0, #84]	@ 0x54
 8005e20:	2b00      	cmp	r3, #0
 8005e22:	d064      	beq.n	8005eee <HAL_TIM_IC_Init+0x13a>
    htim->IC_MspInitCallback(htim);
 8005e24:	0020      	movs	r0, r4
 8005e26:	4798      	blx	r3
  htim->State = HAL_TIM_STATE_BUSY;
 8005e28:	233d      	movs	r3, #61	@ 0x3d
 8005e2a:	2202      	movs	r2, #2
 8005e2c:	54e2      	strb	r2, [r4, r3]
  TIM_Base_SetConfig(htim->Instance, &htim->Init);
 8005e2e:	6823      	ldr	r3, [r4, #0]
  if (IS_TIM_COUNTER_MODE_SELECT_INSTANCE(TIMx))
 8005e30:	4e44      	ldr	r6, [pc, #272]	@ (8005f44 <HAL_TIM_IC_Init+0x190>)
  tmpcr1 = TIMx->CR1;
 8005e32:	681a      	ldr	r2, [r3, #0]
  MODIFY_REG(tmpcr1, TIM_CR1_ARPE, Structure->AutoReloadPreload);
 8005e34:	69a5      	ldr	r5, [r4, #24]
  TIMx->ARR = (uint32_t)Structure->Period ;
 8005e36:	68e0      	ldr	r0, [r4, #12]
  TIMx->PSC = Structure->Prescaler;
 8005e38:	6861      	ldr	r1, [r4, #4]
  if (IS_TIM_COUNTER_MODE_SELECT_INSTANCE(TIMx))
 8005e3a:	42b3      	cmp	r3, r6
 8005e3c:	d016      	beq.n	8005e6c <HAL_TIM_IC_Init+0xb8>
 8005e3e:	2680      	movs	r6, #128	@ 0x80
 8005e40:	05f6      	lsls	r6, r6, #23
 8005e42:	42b3      	cmp	r3, r6
 8005e44:	d012      	beq.n	8005e6c <HAL_TIM_IC_Init+0xb8>
 8005e46:	4e40      	ldr	r6, [pc, #256]	@ (8005f48 <HAL_TIM_IC_Init+0x194>)
 8005e48:	42b3      	cmp	r3, r6
 8005e4a:	d045      	beq.n	8005ed8 <HAL_TIM_IC_Init+0x124>
  if (IS_TIM_CLOCK_DIVISION_INSTANCE(TIMx))
 8005e4c:	4e3f      	ldr	r6, [pc, #252]	@ (8005f4c <HAL_TIM_IC_Init+0x198>)
 8005e4e:	42b3      	cmp	r3, r6
 8005e50:	d046      	beq.n	8005ee0 <HAL_TIM_IC_Init+0x12c>
 8005e52:	4e3f      	ldr	r6, [pc, #252]	@ (8005f50 <HAL_TIM_IC_Init+0x19c>)
 8005e54:	42b3      	cmp	r3, r6
 8005e56:	d04d      	beq.n	8005ef4 <HAL_TIM_IC_Init+0x140>
 8005e58:	4e3e      	ldr	r6, [pc, #248]	@ (8005f54 <HAL_TIM_IC_Init+0x1a0>)
 8005e5a:	42b3      	cmp	r3, r6
 8005e5c:	d04a      	beq.n	8005ef4 <HAL_TIM_IC_Init+0x140>
  MODIFY_REG(tmpcr1, TIM_CR1_ARPE, Structure->AutoReloadPreload);
 8005e5e:	2680      	movs	r6, #128	@ 0x80
 8005e60:	43b2      	bics	r2, r6
 8005e62:	432a      	orrs	r2, r5
  TIMx->CR1 = tmpcr1;
 8005e64:	601a      	str	r2, [r3, #0]
  TIMx->ARR = (uint32_t)Structure->Period ;
 8005e66:	62d8      	str	r0, [r3, #44]	@ 0x2c
  TIMx->PSC = Structure->Prescaler;
 8005e68:	6299      	str	r1, [r3, #40]	@ 0x28
  if (IS_TIM_REPETITION_COUNTER_INSTANCE(TIMx))
 8005e6a:	e012      	b.n	8005e92 <HAL_TIM_IC_Init+0xde>
    tmpcr1 &= ~(TIM_CR1_DIR | TIM_CR1_CMS);
 8005e6c:	2670      	movs	r6, #112	@ 0x70
 8005e6e:	43b2      	bics	r2, r6
    tmpcr1 |= Structure->CounterMode;
 8005e70:	68a6      	ldr	r6, [r4, #8]
 8005e72:	4332      	orrs	r2, r6
    tmpcr1 &= ~TIM_CR1_CKD;
 8005e74:	4e38      	ldr	r6, [pc, #224]	@ (8005f58 <HAL_TIM_IC_Init+0x1a4>)
 8005e76:	4032      	ands	r2, r6
    tmpcr1 |= (uint32_t)Structure->ClockDivision;
 8005e78:	6926      	ldr	r6, [r4, #16]
 8005e7a:	4332      	orrs	r2, r6
  MODIFY_REG(tmpcr1, TIM_CR1_ARPE, Structure->AutoReloadPreload);
 8005e7c:	2680      	movs	r6, #128	@ 0x80
 8005e7e:	43b2      	bics	r2, r6
 8005e80:	432a      	orrs	r2, r5
  TIMx->CR1 = tmpcr1;
 8005e82:	601a      	str	r2, [r3, #0]
  if (IS_TIM_REPETITION_COUNTER_INSTANCE(TIMx))
 8005e84:	4a2f      	ldr	r2, [pc, #188]	@ (8005f44 <HAL_TIM_IC_Init+0x190>)
  TIMx->ARR = (uint32_t)Structure->Period ;
 8005e86:	62d8      	str	r0, [r3, #44]	@ 0x2c
  TIMx->PSC = Structure->Prescaler;
 8005e88:	6299      	str	r1, [r3, #40]	@ 0x28
  if (IS_TIM_REPETITION_COUNTER_INSTANCE(TIMx))
 8005e8a:	4293      	cmp	r3, r2
 8005e8c:	d101      	bne.n	8005e92 <HAL_TIM_IC_Init+0xde>
    TIMx->RCR = Structure->RepetitionCounter;
 8005e8e:	6962      	ldr	r2, [r4, #20]
 8005e90:	631a      	str	r2, [r3, #48]	@ 0x30
  TIMx->EGR = TIM_EGR_UG;
 8005e92:	2201      	movs	r2, #1
 8005e94:	615a      	str	r2, [r3, #20]
  if (HAL_IS_BIT_SET(TIMx->SR, TIM_FLAG_UPDATE))
 8005e96:	6919      	ldr	r1, [r3, #16]
 8005e98:	420a      	tst	r2, r1
 8005e9a:	d002      	beq.n	8005ea2 <HAL_TIM_IC_Init+0xee>
    CLEAR_BIT(TIMx->SR, TIM_FLAG_UPDATE);
 8005e9c:	6919      	ldr	r1, [r3, #16]
 8005e9e:	4391      	bics	r1, r2
 8005ea0:	6119      	str	r1, [r3, #16]
  htim->DMABurstState = HAL_DMA_BURST_STATE_READY;
 8005ea2:	2301      	movs	r3, #1
 8005ea4:	2248      	movs	r2, #72	@ 0x48
  return HAL_OK;
 8005ea6:	2000      	movs	r0, #0
  htim->DMABurstState = HAL_DMA_BURST_STATE_READY;
 8005ea8:	54a3      	strb	r3, [r4, r2]
  TIM_CHANNEL_STATE_SET_ALL(htim, HAL_TIM_CHANNEL_STATE_READY);
 8005eaa:	3a0a      	subs	r2, #10
 8005eac:	54a3      	strb	r3, [r4, r2]
 8005eae:	3201      	adds	r2, #1
 8005eb0:	54a3      	strb	r3, [r4, r2]
 8005eb2:	3201      	adds	r2, #1
 8005eb4:	54a3      	strb	r3, [r4, r2]
 8005eb6:	3201      	adds	r2, #1
 8005eb8:	54a3      	strb	r3, [r4, r2]
 8005eba:	3201      	adds	r2, #1
 8005ebc:	54a3      	strb	r3, [r4, r2]
 8005ebe:	3201      	adds	r2, #1
 8005ec0:	54a3      	strb	r3, [r4, r2]
  TIM_CHANNEL_N_STATE_SET_ALL(htim, HAL_TIM_CHANNEL_STATE_READY);
 8005ec2:	3201      	adds	r2, #1
 8005ec4:	54a3      	strb	r3, [r4, r2]
 8005ec6:	3201      	adds	r2, #1
 8005ec8:	54a3      	strb	r3, [r4, r2]
 8005eca:	3201      	adds	r2, #1
 8005ecc:	54a3      	strb	r3, [r4, r2]
 8005ece:	3201      	adds	r2, #1
 8005ed0:	54a3      	strb	r3, [r4, r2]
  htim->State = HAL_TIM_STATE_READY;
 8005ed2:	3a0a      	subs	r2, #10
 8005ed4:	54a3      	strb	r3, [r4, r2]
}
 8005ed6:	bd70      	pop	{r4, r5, r6, pc}
    tmpcr1 &= ~(TIM_CR1_DIR | TIM_CR1_CMS);
 8005ed8:	2670      	movs	r6, #112	@ 0x70
 8005eda:	43b2      	bics	r2, r6
    tmpcr1 |= Structure->CounterMode;
 8005edc:	68a6      	ldr	r6, [r4, #8]
 8005ede:	4332      	orrs	r2, r6
    tmpcr1 &= ~TIM_CR1_CKD;
 8005ee0:	4e1d      	ldr	r6, [pc, #116]	@ (8005f58 <HAL_TIM_IC_Init+0x1a4>)
 8005ee2:	4032      	ands	r2, r6
    tmpcr1 |= (uint32_t)Structure->ClockDivision;
 8005ee4:	6926      	ldr	r6, [r4, #16]
 8005ee6:	4332      	orrs	r2, r6
 8005ee8:	e7b9      	b.n	8005e5e <HAL_TIM_IC_Init+0xaa>
    return HAL_ERROR;
 8005eea:	2001      	movs	r0, #1
 8005eec:	e7f3      	b.n	8005ed6 <HAL_TIM_IC_Init+0x122>
      htim->IC_MspInitCallback = HAL_TIM_IC_MspInit;
 8005eee:	4b1b      	ldr	r3, [pc, #108]	@ (8005f5c <HAL_TIM_IC_Init+0x1a8>)
 8005ef0:	6543      	str	r3, [r0, #84]	@ 0x54
 8005ef2:	e797      	b.n	8005e24 <HAL_TIM_IC_Init+0x70>
    tmpcr1 &= ~TIM_CR1_CKD;
 8005ef4:	4e18      	ldr	r6, [pc, #96]	@ (8005f58 <HAL_TIM_IC_Init+0x1a4>)
 8005ef6:	4032      	ands	r2, r6
    tmpcr1 |= (uint32_t)Structure->ClockDivision;
 8005ef8:	6926      	ldr	r6, [r4, #16]
 8005efa:	4332      	orrs	r2, r6
  MODIFY_REG(tmpcr1, TIM_CR1_ARPE, Structure->AutoReloadPreload);
 8005efc:	2680      	movs	r6, #128	@ 0x80
 8005efe:	43b2      	bics	r2, r6
 8005f00:	432a      	orrs	r2, r5
  TIMx->CR1 = tmpcr1;
 8005f02:	601a      	str	r2, [r3, #0]
  TIMx->ARR = (uint32_t)Structure->Period ;
 8005f04:	62d8      	str	r0, [r3, #44]	@ 0x2c
  TIMx->PSC = Structure->Prescaler;
 8005f06:	6299      	str	r1, [r3, #40]	@ 0x28
  if (IS_TIM_REPETITION_COUNTER_INSTANCE(TIMx))
 8005f08:	e7c1      	b.n	8005e8e <HAL_TIM_IC_Init+0xda>
 8005f0a:	46c0      	nop			@ (mov r8, r8)
 8005f0c:	08005521 	.word	0x08005521
 8005f10:	08005525 	.word	0x08005525
 8005f14:	0800553d 	.word	0x0800553d
 8005f18:	08005541 	.word	0x08005541
 8005f1c:	0800552d 	.word	0x0800552d
 8005f20:	08005531 	.word	0x08005531
 8005f24:	08005529 	.word	0x08005529
 8005f28:	08005535 	.word	0x08005535
 8005f2c:	08005539 	.word	0x08005539
 8005f30:	08005545 	.word	0x08005545
 8005f34:	08006db5 	.word	0x08006db5
 8005f38:	08006db9 	.word	0x08006db9
 8005f3c:	08006dbd 	.word	0x08006dbd
 8005f40:	08006dc1 	.word	0x08006dc1
 8005f44:	40012c00 	.word	0x40012c00
 8005f48:	40000400 	.word	0x40000400
 8005f4c:	40002000 	.word	0x40002000
 8005f50:	40014400 	.word	0x40014400
 8005f54:	40014800 	.word	0x40014800
 8005f58:	fffffcff 	.word	0xfffffcff
 8005f5c:	0800551d 	.word	0x0800551d

08005f60 <HAL_TIM_IC_Start_IT>:
{
 8005f60:	b530      	push	{r4, r5, lr}
 8005f62:	2910      	cmp	r1, #16
 8005f64:	d803      	bhi.n	8005f6e <HAL_TIM_IC_Start_IT+0xe>
 8005f66:	4a45      	ldr	r2, [pc, #276]	@ (800607c <HAL_TIM_IC_Start_IT+0x11c>)
 8005f68:	008b      	lsls	r3, r1, #2
 8005f6a:	58d3      	ldr	r3, [r2, r3]
 8005f6c:	469f      	mov	pc, r3
  HAL_TIM_ChannelStateTypeDef channel_state = TIM_CHANNEL_STATE_GET(htim, Channel);
 8005f6e:	2443      	movs	r4, #67	@ 0x43
  HAL_TIM_ChannelStateTypeDef complementary_channel_state = TIM_CHANNEL_N_STATE_GET(htim, Channel);
 8005f70:	2247      	movs	r2, #71	@ 0x47
  HAL_TIM_ChannelStateTypeDef channel_state = TIM_CHANNEL_STATE_GET(htim, Channel);
 8005f72:	5d05      	ldrb	r5, [r0, r4]
  HAL_TIM_ChannelStateTypeDef complementary_channel_state = TIM_CHANNEL_N_STATE_GET(htim, Channel);
 8005f74:	5c83      	ldrb	r3, [r0, r2]
 8005f76:	b2db      	uxtb	r3, r3
  if ((channel_state != HAL_TIM_CHANNEL_STATE_READY)
 8005f78:	2d01      	cmp	r5, #1
 8005f7a:	d104      	bne.n	8005f86 <HAL_TIM_IC_Start_IT+0x26>
      || (complementary_channel_state != HAL_TIM_CHANNEL_STATE_READY))
 8005f7c:	2b01      	cmp	r3, #1
 8005f7e:	d102      	bne.n	8005f86 <HAL_TIM_IC_Start_IT+0x26>
  TIM_CHANNEL_STATE_SET(htim, Channel, HAL_TIM_CHANNEL_STATE_BUSY);
 8005f80:	2302      	movs	r3, #2
 8005f82:	5503      	strb	r3, [r0, r4]
  TIM_CHANNEL_N_STATE_SET(htim, Channel, HAL_TIM_CHANNEL_STATE_BUSY);
 8005f84:	5483      	strb	r3, [r0, r2]
    return HAL_ERROR;
 8005f86:	2001      	movs	r0, #1
 8005f88:	e027      	b.n	8005fda <HAL_TIM_IC_Start_IT+0x7a>
  HAL_TIM_ChannelStateTypeDef channel_state = TIM_CHANNEL_STATE_GET(htim, Channel);
 8005f8a:	243f      	movs	r4, #63	@ 0x3f
  HAL_TIM_ChannelStateTypeDef complementary_channel_state = TIM_CHANNEL_N_STATE_GET(htim, Channel);
 8005f8c:	2245      	movs	r2, #69	@ 0x45
  HAL_TIM_ChannelStateTypeDef channel_state = TIM_CHANNEL_STATE_GET(htim, Channel);
 8005f8e:	5d05      	ldrb	r5, [r0, r4]
  HAL_TIM_ChannelStateTypeDef complementary_channel_state = TIM_CHANNEL_N_STATE_GET(htim, Channel);
 8005f90:	5c83      	ldrb	r3, [r0, r2]
 8005f92:	b2db      	uxtb	r3, r3
  if ((channel_state != HAL_TIM_CHANNEL_STATE_READY)
 8005f94:	2d01      	cmp	r5, #1
 8005f96:	d1f6      	bne.n	8005f86 <HAL_TIM_IC_Start_IT+0x26>
      || (complementary_channel_state != HAL_TIM_CHANNEL_STATE_READY))
 8005f98:	2b01      	cmp	r3, #1
 8005f9a:	d1f4      	bne.n	8005f86 <HAL_TIM_IC_Start_IT+0x26>
  TIM_CHANNEL_STATE_SET(htim, Channel, HAL_TIM_CHANNEL_STATE_BUSY);
 8005f9c:	2302      	movs	r3, #2
 8005f9e:	5503      	strb	r3, [r0, r4]
  TIM_CHANNEL_N_STATE_SET(htim, Channel, HAL_TIM_CHANNEL_STATE_BUSY);
 8005fa0:	5483      	strb	r3, [r0, r2]
      __HAL_TIM_ENABLE_IT(htim, TIM_IT_CC2);
 8005fa2:	6803      	ldr	r3, [r0, #0]
 8005fa4:	2004      	movs	r0, #4
 8005fa6:	68da      	ldr	r2, [r3, #12]
 8005fa8:	4302      	orrs	r2, r0
 8005faa:	60da      	str	r2, [r3, #12]
  tmp = TIM_CCER_CC1E << (Channel & 0x1FU); /* 0x1FU = 31 bits max shift */
 8005fac:	2001      	movs	r0, #1
 8005fae:	0002      	movs	r2, r0
 8005fb0:	408a      	lsls	r2, r1
  TIMx->CCER &= ~tmp;
 8005fb2:	6a19      	ldr	r1, [r3, #32]
 8005fb4:	4391      	bics	r1, r2
 8005fb6:	6219      	str	r1, [r3, #32]
  TIMx->CCER |= (uint32_t)(ChannelState << (Channel & 0x1FU)); /* 0x1FU = 31 bits max shift */
 8005fb8:	6a19      	ldr	r1, [r3, #32]
 8005fba:	430a      	orrs	r2, r1
 8005fbc:	621a      	str	r2, [r3, #32]
    if (IS_TIM_SLAVE_INSTANCE(htim->Instance))
 8005fbe:	4a30      	ldr	r2, [pc, #192]	@ (8006080 <HAL_TIM_IC_Start_IT+0x120>)
 8005fc0:	4293      	cmp	r3, r2
 8005fc2:	d04e      	beq.n	8006062 <HAL_TIM_IC_Start_IT+0x102>
 8005fc4:	2280      	movs	r2, #128	@ 0x80
 8005fc6:	05d2      	lsls	r2, r2, #23
 8005fc8:	4293      	cmp	r3, r2
 8005fca:	d04a      	beq.n	8006062 <HAL_TIM_IC_Start_IT+0x102>
 8005fcc:	4a2d      	ldr	r2, [pc, #180]	@ (8006084 <HAL_TIM_IC_Start_IT+0x124>)
 8005fce:	4293      	cmp	r3, r2
 8005fd0:	d047      	beq.n	8006062 <HAL_TIM_IC_Start_IT+0x102>
      __HAL_TIM_ENABLE(htim);
 8005fd2:	681a      	ldr	r2, [r3, #0]
 8005fd4:	4302      	orrs	r2, r0
 8005fd6:	601a      	str	r2, [r3, #0]
    return HAL_ERROR;
 8005fd8:	2000      	movs	r0, #0
}
 8005fda:	bd30      	pop	{r4, r5, pc}
  HAL_TIM_ChannelStateTypeDef channel_state = TIM_CHANNEL_STATE_GET(htim, Channel);
 8005fdc:	2440      	movs	r4, #64	@ 0x40
  HAL_TIM_ChannelStateTypeDef complementary_channel_state = TIM_CHANNEL_N_STATE_GET(htim, Channel);
 8005fde:	2246      	movs	r2, #70	@ 0x46
  HAL_TIM_ChannelStateTypeDef channel_state = TIM_CHANNEL_STATE_GET(htim, Channel);
 8005fe0:	5d05      	ldrb	r5, [r0, r4]
  HAL_TIM_ChannelStateTypeDef complementary_channel_state = TIM_CHANNEL_N_STATE_GET(htim, Channel);
 8005fe2:	5c83      	ldrb	r3, [r0, r2]
 8005fe4:	b2db      	uxtb	r3, r3
  if ((channel_state != HAL_TIM_CHANNEL_STATE_READY)
 8005fe6:	2d01      	cmp	r5, #1
 8005fe8:	d1cd      	bne.n	8005f86 <HAL_TIM_IC_Start_IT+0x26>
      || (complementary_channel_state != HAL_TIM_CHANNEL_STATE_READY))
 8005fea:	2b01      	cmp	r3, #1
 8005fec:	d1cb      	bne.n	8005f86 <HAL_TIM_IC_Start_IT+0x26>
  TIM_CHANNEL_STATE_SET(htim, Channel, HAL_TIM_CHANNEL_STATE_BUSY);
 8005fee:	3301      	adds	r3, #1
 8005ff0:	5503      	strb	r3, [r0, r4]
  TIM_CHANNEL_N_STATE_SET(htim, Channel, HAL_TIM_CHANNEL_STATE_BUSY);
 8005ff2:	5483      	strb	r3, [r0, r2]
      __HAL_TIM_ENABLE_IT(htim, TIM_IT_CC3);
 8005ff4:	6803      	ldr	r3, [r0, #0]
 8005ff6:	2008      	movs	r0, #8
 8005ff8:	68da      	ldr	r2, [r3, #12]
 8005ffa:	4302      	orrs	r2, r0
 8005ffc:	60da      	str	r2, [r3, #12]
  if (status == HAL_OK)
 8005ffe:	e7d5      	b.n	8005fac <HAL_TIM_IC_Start_IT+0x4c>
  HAL_TIM_ChannelStateTypeDef channel_state = TIM_CHANNEL_STATE_GET(htim, Channel);
 8006000:	2441      	movs	r4, #65	@ 0x41
  HAL_TIM_ChannelStateTypeDef complementary_channel_state = TIM_CHANNEL_N_STATE_GET(htim, Channel);
 8006002:	2247      	movs	r2, #71	@ 0x47
  HAL_TIM_ChannelStateTypeDef channel_state = TIM_CHANNEL_STATE_GET(htim, Channel);
 8006004:	5d05      	ldrb	r5, [r0, r4]
  HAL_TIM_ChannelStateTypeDef complementary_channel_state = TIM_CHANNEL_N_STATE_GET(htim, Channel);
 8006006:	5c83      	ldrb	r3, [r0, r2]
 8006008:	b2db      	uxtb	r3, r3
  if ((channel_state != HAL_TIM_CHANNEL_STATE_READY)
 800600a:	2d01      	cmp	r5, #1
 800600c:	d1bb      	bne.n	8005f86 <HAL_TIM_IC_Start_IT+0x26>
      || (complementary_channel_state != HAL_TIM_CHANNEL_STATE_READY))
 800600e:	2b01      	cmp	r3, #1
 8006010:	d1b9      	bne.n	8005f86 <HAL_TIM_IC_Start_IT+0x26>
  TIM_CHANNEL_STATE_SET(htim, Channel, HAL_TIM_CHANNEL_STATE_BUSY);
 8006012:	2302      	movs	r3, #2
 8006014:	5503      	strb	r3, [r0, r4]
  TIM_CHANNEL_N_STATE_SET(htim, Channel, HAL_TIM_CHANNEL_STATE_BUSY);
 8006016:	5483      	strb	r3, [r0, r2]
      __HAL_TIM_ENABLE_IT(htim, TIM_IT_CC4);
 8006018:	6803      	ldr	r3, [r0, #0]
 800601a:	2010      	movs	r0, #16
 800601c:	68da      	ldr	r2, [r3, #12]
 800601e:	4302      	orrs	r2, r0
 8006020:	60da      	str	r2, [r3, #12]
  if (status == HAL_OK)
 8006022:	e7c3      	b.n	8005fac <HAL_TIM_IC_Start_IT+0x4c>
  HAL_TIM_ChannelStateTypeDef channel_state = TIM_CHANNEL_STATE_GET(htim, Channel);
 8006024:	243e      	movs	r4, #62	@ 0x3e
  HAL_TIM_ChannelStateTypeDef complementary_channel_state = TIM_CHANNEL_N_STATE_GET(htim, Channel);
 8006026:	2244      	movs	r2, #68	@ 0x44
  HAL_TIM_ChannelStateTypeDef channel_state = TIM_CHANNEL_STATE_GET(htim, Channel);
 8006028:	5d05      	ldrb	r5, [r0, r4]
  HAL_TIM_ChannelStateTypeDef complementary_channel_state = TIM_CHANNEL_N_STATE_GET(htim, Channel);
 800602a:	5c83      	ldrb	r3, [r0, r2]
 800602c:	b2db      	uxtb	r3, r3
  if ((channel_state != HAL_TIM_CHANNEL_STATE_READY)
 800602e:	2d01      	cmp	r5, #1
 8006030:	d1a9      	bne.n	8005f86 <HAL_TIM_IC_Start_IT+0x26>
      || (complementary_channel_state != HAL_TIM_CHANNEL_STATE_READY))
 8006032:	2b01      	cmp	r3, #1
 8006034:	d1a7      	bne.n	8005f86 <HAL_TIM_IC_Start_IT+0x26>
  TIM_CHANNEL_STATE_SET(htim, Channel, HAL_TIM_CHANNEL_STATE_BUSY);
 8006036:	2502      	movs	r5, #2
 8006038:	5505      	strb	r5, [r0, r4]
  TIM_CHANNEL_N_STATE_SET(htim, Channel, HAL_TIM_CHANNEL_STATE_BUSY);
 800603a:	5485      	strb	r5, [r0, r2]
      __HAL_TIM_ENABLE_IT(htim, TIM_IT_CC1);
 800603c:	6803      	ldr	r3, [r0, #0]
 800603e:	68da      	ldr	r2, [r3, #12]
 8006040:	432a      	orrs	r2, r5
 8006042:	60da      	str	r2, [r3, #12]
  if (status == HAL_OK)
 8006044:	e7b2      	b.n	8005fac <HAL_TIM_IC_Start_IT+0x4c>
  HAL_TIM_ChannelStateTypeDef channel_state = TIM_CHANNEL_STATE_GET(htim, Channel);
 8006046:	2142      	movs	r1, #66	@ 0x42
  HAL_TIM_ChannelStateTypeDef complementary_channel_state = TIM_CHANNEL_N_STATE_GET(htim, Channel);
 8006048:	2247      	movs	r2, #71	@ 0x47
  HAL_TIM_ChannelStateTypeDef channel_state = TIM_CHANNEL_STATE_GET(htim, Channel);
 800604a:	5c44      	ldrb	r4, [r0, r1]
  HAL_TIM_ChannelStateTypeDef complementary_channel_state = TIM_CHANNEL_N_STATE_GET(htim, Channel);
 800604c:	5c83      	ldrb	r3, [r0, r2]
 800604e:	b2db      	uxtb	r3, r3
  if ((channel_state != HAL_TIM_CHANNEL_STATE_READY)
 8006050:	2c01      	cmp	r4, #1
 8006052:	d198      	bne.n	8005f86 <HAL_TIM_IC_Start_IT+0x26>
      || (complementary_channel_state != HAL_TIM_CHANNEL_STATE_READY))
 8006054:	2b01      	cmp	r3, #1
 8006056:	d196      	bne.n	8005f86 <HAL_TIM_IC_Start_IT+0x26>
  TIM_CHANNEL_STATE_SET(htim, Channel, HAL_TIM_CHANNEL_STATE_BUSY);
 8006058:	2302      	movs	r3, #2
 800605a:	5443      	strb	r3, [r0, r1]
  TIM_CHANNEL_N_STATE_SET(htim, Channel, HAL_TIM_CHANNEL_STATE_BUSY);
 800605c:	5483      	strb	r3, [r0, r2]
    return HAL_ERROR;
 800605e:	2001      	movs	r0, #1
 8006060:	e7bb      	b.n	8005fda <HAL_TIM_IC_Start_IT+0x7a>
      tmpsmcr = htim->Instance->SMCR & TIM_SMCR_SMS;
 8006062:	689a      	ldr	r2, [r3, #8]
 8006064:	4908      	ldr	r1, [pc, #32]	@ (8006088 <HAL_TIM_IC_Start_IT+0x128>)
 8006066:	400a      	ands	r2, r1
      if (!IS_TIM_SLAVEMODE_TRIGGER_ENABLED(tmpsmcr))
 8006068:	2a06      	cmp	r2, #6
 800606a:	d0b5      	beq.n	8005fd8 <HAL_TIM_IC_Start_IT+0x78>
 800606c:	3907      	subs	r1, #7
 800606e:	428a      	cmp	r2, r1
 8006070:	d0b2      	beq.n	8005fd8 <HAL_TIM_IC_Start_IT+0x78>
        __HAL_TIM_ENABLE(htim);
 8006072:	2101      	movs	r1, #1
 8006074:	681a      	ldr	r2, [r3, #0]
 8006076:	430a      	orrs	r2, r1
 8006078:	601a      	str	r2, [r3, #0]
 800607a:	e7ad      	b.n	8005fd8 <HAL_TIM_IC_Start_IT+0x78>
 800607c:	080085a4 	.word	0x080085a4
 8006080:	40012c00 	.word	0x40012c00
 8006084:	40000400 	.word	0x40000400
 8006088:	00010007 	.word	0x00010007

0800608c <HAL_TIM_IRQHandler>:
  if ((itflag & (TIM_FLAG_CC1)) == (TIM_FLAG_CC1))
 800608c:	2202      	movs	r2, #2
  uint32_t itsource = htim->Instance->DIER;
 800608e:	6803      	ldr	r3, [r0, #0]
{
 8006090:	b570      	push	{r4, r5, r6, lr}
  uint32_t itsource = htim->Instance->DIER;
 8006092:	68de      	ldr	r6, [r3, #12]
  uint32_t itflag   = htim->Instance->SR;
 8006094:	691d      	ldr	r5, [r3, #16]
{
 8006096:	0004      	movs	r4, r0
  if ((itflag & (TIM_FLAG_CC1)) == (TIM_FLAG_CC1))
 8006098:	422a      	tst	r2, r5
 800609a:	d002      	beq.n	80060a2 <HAL_TIM_IRQHandler+0x16>
    if ((itsource & (TIM_IT_CC1)) == (TIM_IT_CC1))
 800609c:	4232      	tst	r2, r6
 800609e:	d000      	beq.n	80060a2 <HAL_TIM_IRQHandler+0x16>
 80060a0:	e09f      	b.n	80061e2 <HAL_TIM_IRQHandler+0x156>
  if ((itflag & (TIM_FLAG_CC2)) == (TIM_FLAG_CC2))
 80060a2:	2304      	movs	r3, #4
 80060a4:	422b      	tst	r3, r5
 80060a6:	d002      	beq.n	80060ae <HAL_TIM_IRQHandler+0x22>
    if ((itsource & (TIM_IT_CC2)) == (TIM_IT_CC2))
 80060a8:	4233      	tst	r3, r6
 80060aa:	d000      	beq.n	80060ae <HAL_TIM_IRQHandler+0x22>
 80060ac:	e083      	b.n	80061b6 <HAL_TIM_IRQHandler+0x12a>
  if ((itflag & (TIM_FLAG_CC3)) == (TIM_FLAG_CC3))
 80060ae:	2308      	movs	r3, #8
 80060b0:	422b      	tst	r3, r5
 80060b2:	d001      	beq.n	80060b8 <HAL_TIM_IRQHandler+0x2c>
    if ((itsource & (TIM_IT_CC3)) == (TIM_IT_CC3))
 80060b4:	4233      	tst	r3, r6
 80060b6:	d16a      	bne.n	800618e <HAL_TIM_IRQHandler+0x102>
  if ((itflag & (TIM_FLAG_CC4)) == (TIM_FLAG_CC4))
 80060b8:	2310      	movs	r3, #16
 80060ba:	422b      	tst	r3, r5
 80060bc:	d001      	beq.n	80060c2 <HAL_TIM_IRQHandler+0x36>
    if ((itsource & (TIM_IT_CC4)) == (TIM_IT_CC4))
 80060be:	4233      	tst	r3, r6
 80060c0:	d14f      	bne.n	8006162 <HAL_TIM_IRQHandler+0xd6>
  if ((itflag & (TIM_FLAG_UPDATE)) == (TIM_FLAG_UPDATE))
 80060c2:	2301      	movs	r3, #1
 80060c4:	422b      	tst	r3, r5
 80060c6:	d001      	beq.n	80060cc <HAL_TIM_IRQHandler+0x40>
    if ((itsource & (TIM_IT_UPDATE)) == (TIM_IT_UPDATE))
 80060c8:	4233      	tst	r3, r6
 80060ca:	d132      	bne.n	8006132 <HAL_TIM_IRQHandler+0xa6>
  if (((itflag & (TIM_FLAG_BREAK)) == (TIM_FLAG_BREAK)) || \
 80060cc:	2382      	movs	r3, #130	@ 0x82
 80060ce:	019b      	lsls	r3, r3, #6
 80060d0:	421d      	tst	r5, r3
 80060d2:	d03a      	beq.n	800614a <HAL_TIM_IRQHandler+0xbe>
    if ((itsource & (TIM_IT_BREAK)) == (TIM_IT_BREAK))
 80060d4:	0633      	lsls	r3, r6, #24
 80060d6:	d41b      	bmi.n	8006110 <HAL_TIM_IRQHandler+0x84>
  if ((itflag & (TIM_FLAG_TRIGGER)) == (TIM_FLAG_TRIGGER))
 80060d8:	2340      	movs	r3, #64	@ 0x40
 80060da:	422b      	tst	r3, r5
 80060dc:	d001      	beq.n	80060e2 <HAL_TIM_IRQHandler+0x56>
    if ((itsource & (TIM_IT_TRIGGER)) == (TIM_IT_TRIGGER))
 80060de:	4233      	tst	r3, r6
 80060e0:	d10d      	bne.n	80060fe <HAL_TIM_IRQHandler+0x72>
  if ((itflag & (TIM_FLAG_COM)) == (TIM_FLAG_COM))
 80060e2:	2320      	movs	r3, #32
 80060e4:	422b      	tst	r3, r5
 80060e6:	d009      	beq.n	80060fc <HAL_TIM_IRQHandler+0x70>
    if ((itsource & (TIM_IT_COM)) == (TIM_IT_COM))
 80060e8:	4233      	tst	r3, r6
 80060ea:	d007      	beq.n	80060fc <HAL_TIM_IRQHandler+0x70>
      __HAL_TIM_CLEAR_FLAG(htim, TIM_FLAG_COM);
 80060ec:	2221      	movs	r2, #33	@ 0x21
 80060ee:	6823      	ldr	r3, [r4, #0]
 80060f0:	4252      	negs	r2, r2
 80060f2:	611a      	str	r2, [r3, #16]
      htim->CommutationCallback(htim);
 80060f4:	23ac      	movs	r3, #172	@ 0xac
 80060f6:	0020      	movs	r0, r4
 80060f8:	58e3      	ldr	r3, [r4, r3]
 80060fa:	4798      	blx	r3
}
 80060fc:	bd70      	pop	{r4, r5, r6, pc}
      __HAL_TIM_CLEAR_FLAG(htim, TIM_FLAG_TRIGGER);
 80060fe:	2241      	movs	r2, #65	@ 0x41
 8006100:	6823      	ldr	r3, [r4, #0]
 8006102:	4252      	negs	r2, r2
 8006104:	611a      	str	r2, [r3, #16]
      htim->TriggerCallback(htim);
 8006106:	238c      	movs	r3, #140	@ 0x8c
 8006108:	0020      	movs	r0, r4
 800610a:	58e3      	ldr	r3, [r4, r3]
 800610c:	4798      	blx	r3
 800610e:	e7e8      	b.n	80060e2 <HAL_TIM_IRQHandler+0x56>
      __HAL_TIM_CLEAR_FLAG(htim, TIM_FLAG_BREAK | TIM_FLAG_SYSTEM_BREAK);
 8006110:	6823      	ldr	r3, [r4, #0]
 8006112:	4a46      	ldr	r2, [pc, #280]	@ (800622c <HAL_TIM_IRQHandler+0x1a0>)
      htim->BreakCallback(htim);
 8006114:	0020      	movs	r0, r4
      __HAL_TIM_CLEAR_FLAG(htim, TIM_FLAG_BREAK | TIM_FLAG_SYSTEM_BREAK);
 8006116:	611a      	str	r2, [r3, #16]
      htim->BreakCallback(htim);
 8006118:	23b4      	movs	r3, #180	@ 0xb4
 800611a:	58e3      	ldr	r3, [r4, r3]
 800611c:	4798      	blx	r3
  if ((itflag & (TIM_FLAG_BREAK2)) == (TIM_FLAG_BREAK2))
 800611e:	05eb      	lsls	r3, r5, #23
 8006120:	d5da      	bpl.n	80060d8 <HAL_TIM_IRQHandler+0x4c>
      __HAL_TIM_CLEAR_FLAG(htim, TIM_FLAG_BREAK2);
 8006122:	6823      	ldr	r3, [r4, #0]
 8006124:	4a42      	ldr	r2, [pc, #264]	@ (8006230 <HAL_TIM_IRQHandler+0x1a4>)
      htim->Break2Callback(htim);
 8006126:	0020      	movs	r0, r4
      __HAL_TIM_CLEAR_FLAG(htim, TIM_FLAG_BREAK2);
 8006128:	611a      	str	r2, [r3, #16]
      htim->Break2Callback(htim);
 800612a:	23b8      	movs	r3, #184	@ 0xb8
 800612c:	58e3      	ldr	r3, [r4, r3]
 800612e:	4798      	blx	r3
 8006130:	e7d2      	b.n	80060d8 <HAL_TIM_IRQHandler+0x4c>
      __HAL_TIM_CLEAR_FLAG(htim, TIM_FLAG_UPDATE);
 8006132:	2202      	movs	r2, #2
 8006134:	6823      	ldr	r3, [r4, #0]
 8006136:	4252      	negs	r2, r2
 8006138:	611a      	str	r2, [r3, #16]
      htim->PeriodElapsedCallback(htim);
 800613a:	2384      	movs	r3, #132	@ 0x84
 800613c:	0020      	movs	r0, r4
 800613e:	58e3      	ldr	r3, [r4, r3]
 8006140:	4798      	blx	r3
  if (((itflag & (TIM_FLAG_BREAK)) == (TIM_FLAG_BREAK)) || \
 8006142:	2382      	movs	r3, #130	@ 0x82
 8006144:	019b      	lsls	r3, r3, #6
 8006146:	421d      	tst	r5, r3
 8006148:	d1c4      	bne.n	80060d4 <HAL_TIM_IRQHandler+0x48>
  if ((itflag & (TIM_FLAG_BREAK2)) == (TIM_FLAG_BREAK2))
 800614a:	05eb      	lsls	r3, r5, #23
 800614c:	d5c4      	bpl.n	80060d8 <HAL_TIM_IRQHandler+0x4c>
    if ((itsource & (TIM_IT_BREAK)) == (TIM_IT_BREAK))
 800614e:	0633      	lsls	r3, r6, #24
 8006150:	d5c2      	bpl.n	80060d8 <HAL_TIM_IRQHandler+0x4c>
      __HAL_TIM_CLEAR_FLAG(htim, TIM_FLAG_BREAK2);
 8006152:	6823      	ldr	r3, [r4, #0]
 8006154:	4a36      	ldr	r2, [pc, #216]	@ (8006230 <HAL_TIM_IRQHandler+0x1a4>)
      htim->Break2Callback(htim);
 8006156:	0020      	movs	r0, r4
      __HAL_TIM_CLEAR_FLAG(htim, TIM_FLAG_BREAK2);
 8006158:	611a      	str	r2, [r3, #16]
      htim->Break2Callback(htim);
 800615a:	23b8      	movs	r3, #184	@ 0xb8
 800615c:	58e3      	ldr	r3, [r4, r3]
 800615e:	4798      	blx	r3
 8006160:	e7ba      	b.n	80060d8 <HAL_TIM_IRQHandler+0x4c>
      __HAL_TIM_CLEAR_FLAG(htim, TIM_FLAG_CC4);
 8006162:	2211      	movs	r2, #17
 8006164:	6823      	ldr	r3, [r4, #0]
 8006166:	4252      	negs	r2, r2
 8006168:	611a      	str	r2, [r3, #16]
      htim->Channel = HAL_TIM_ACTIVE_CHANNEL_4;
 800616a:	3219      	adds	r2, #25
 800616c:	7722      	strb	r2, [r4, #28]
      if ((htim->Instance->CCMR2 & TIM_CCMR2_CC4S) != 0x00U)
 800616e:	69da      	ldr	r2, [r3, #28]
 8006170:	23c0      	movs	r3, #192	@ 0xc0
 8006172:	009b      	lsls	r3, r3, #2
 8006174:	421a      	tst	r2, r3
 8006176:	d153      	bne.n	8006220 <HAL_TIM_IRQHandler+0x194>
        htim->OC_DelayElapsedCallback(htim);
 8006178:	239c      	movs	r3, #156	@ 0x9c
 800617a:	0020      	movs	r0, r4
 800617c:	58e3      	ldr	r3, [r4, r3]
 800617e:	4798      	blx	r3
        htim->PWM_PulseFinishedCallback(htim);
 8006180:	23a0      	movs	r3, #160	@ 0xa0
 8006182:	0020      	movs	r0, r4
 8006184:	58e3      	ldr	r3, [r4, r3]
 8006186:	4798      	blx	r3
      htim->Channel = HAL_TIM_ACTIVE_CHANNEL_CLEARED;
 8006188:	2300      	movs	r3, #0
 800618a:	7723      	strb	r3, [r4, #28]
 800618c:	e799      	b.n	80060c2 <HAL_TIM_IRQHandler+0x36>
      __HAL_TIM_CLEAR_FLAG(htim, TIM_FLAG_CC3);
 800618e:	2209      	movs	r2, #9
 8006190:	6823      	ldr	r3, [r4, #0]
 8006192:	4252      	negs	r2, r2
 8006194:	611a      	str	r2, [r3, #16]
      htim->Channel = HAL_TIM_ACTIVE_CHANNEL_3;
 8006196:	320d      	adds	r2, #13
 8006198:	7722      	strb	r2, [r4, #28]
      if ((htim->Instance->CCMR2 & TIM_CCMR2_CC3S) != 0x00U)
 800619a:	69db      	ldr	r3, [r3, #28]
 800619c:	079b      	lsls	r3, r3, #30
 800619e:	d13a      	bne.n	8006216 <HAL_TIM_IRQHandler+0x18a>
        htim->OC_DelayElapsedCallback(htim);
 80061a0:	239c      	movs	r3, #156	@ 0x9c
 80061a2:	0020      	movs	r0, r4
 80061a4:	58e3      	ldr	r3, [r4, r3]
 80061a6:	4798      	blx	r3
        htim->PWM_PulseFinishedCallback(htim);
 80061a8:	23a0      	movs	r3, #160	@ 0xa0
 80061aa:	0020      	movs	r0, r4
 80061ac:	58e3      	ldr	r3, [r4, r3]
 80061ae:	4798      	blx	r3
      htim->Channel = HAL_TIM_ACTIVE_CHANNEL_CLEARED;
 80061b0:	2300      	movs	r3, #0
 80061b2:	7723      	strb	r3, [r4, #28]
 80061b4:	e780      	b.n	80060b8 <HAL_TIM_IRQHandler+0x2c>
      __HAL_TIM_CLEAR_FLAG(htim, TIM_FLAG_CC2);
 80061b6:	2205      	movs	r2, #5
 80061b8:	6823      	ldr	r3, [r4, #0]
 80061ba:	4252      	negs	r2, r2
 80061bc:	611a      	str	r2, [r3, #16]
      htim->Channel = HAL_TIM_ACTIVE_CHANNEL_2;
 80061be:	3207      	adds	r2, #7
 80061c0:	7722      	strb	r2, [r4, #28]
      if ((htim->Instance->CCMR1 & TIM_CCMR1_CC2S) != 0x00U)
 80061c2:	699a      	ldr	r2, [r3, #24]
 80061c4:	23c0      	movs	r3, #192	@ 0xc0
 80061c6:	009b      	lsls	r3, r3, #2
 80061c8:	421a      	tst	r2, r3
 80061ca:	d11f      	bne.n	800620c <HAL_TIM_IRQHandler+0x180>
        htim->OC_DelayElapsedCallback(htim);
 80061cc:	239c      	movs	r3, #156	@ 0x9c
 80061ce:	0020      	movs	r0, r4
 80061d0:	58e3      	ldr	r3, [r4, r3]
 80061d2:	4798      	blx	r3
        htim->PWM_PulseFinishedCallback(htim);
 80061d4:	23a0      	movs	r3, #160	@ 0xa0
 80061d6:	0020      	movs	r0, r4
 80061d8:	58e3      	ldr	r3, [r4, r3]
 80061da:	4798      	blx	r3
      htim->Channel = HAL_TIM_ACTIVE_CHANNEL_CLEARED;
 80061dc:	2300      	movs	r3, #0
 80061de:	7723      	strb	r3, [r4, #28]
 80061e0:	e765      	b.n	80060ae <HAL_TIM_IRQHandler+0x22>
        __HAL_TIM_CLEAR_FLAG(htim, TIM_FLAG_CC1);
 80061e2:	3a05      	subs	r2, #5
 80061e4:	611a      	str	r2, [r3, #16]
        htim->Channel = HAL_TIM_ACTIVE_CHANNEL_1;
 80061e6:	3204      	adds	r2, #4
 80061e8:	7702      	strb	r2, [r0, #28]
        if ((htim->Instance->CCMR1 & TIM_CCMR1_CC1S) != 0x00U)
 80061ea:	699b      	ldr	r3, [r3, #24]
 80061ec:	079b      	lsls	r3, r3, #30
 80061ee:	d109      	bne.n	8006204 <HAL_TIM_IRQHandler+0x178>
          htim->OC_DelayElapsedCallback(htim);
 80061f0:	239c      	movs	r3, #156	@ 0x9c
 80061f2:	58c3      	ldr	r3, [r0, r3]
 80061f4:	4798      	blx	r3
          htim->PWM_PulseFinishedCallback(htim);
 80061f6:	23a0      	movs	r3, #160	@ 0xa0
 80061f8:	0020      	movs	r0, r4
 80061fa:	58e3      	ldr	r3, [r4, r3]
 80061fc:	4798      	blx	r3
        htim->Channel = HAL_TIM_ACTIVE_CHANNEL_CLEARED;
 80061fe:	2300      	movs	r3, #0
 8006200:	7723      	strb	r3, [r4, #28]
 8006202:	e74e      	b.n	80060a2 <HAL_TIM_IRQHandler+0x16>
          htim->IC_CaptureCallback(htim);
 8006204:	2394      	movs	r3, #148	@ 0x94
 8006206:	58c3      	ldr	r3, [r0, r3]
 8006208:	4798      	blx	r3
 800620a:	e7f8      	b.n	80061fe <HAL_TIM_IRQHandler+0x172>
        htim->IC_CaptureCallback(htim);
 800620c:	2394      	movs	r3, #148	@ 0x94
 800620e:	0020      	movs	r0, r4
 8006210:	58e3      	ldr	r3, [r4, r3]
 8006212:	4798      	blx	r3
 8006214:	e7e2      	b.n	80061dc <HAL_TIM_IRQHandler+0x150>
        htim->IC_CaptureCallback(htim);
 8006216:	2394      	movs	r3, #148	@ 0x94
 8006218:	0020      	movs	r0, r4
 800621a:	58e3      	ldr	r3, [r4, r3]
 800621c:	4798      	blx	r3
 800621e:	e7c7      	b.n	80061b0 <HAL_TIM_IRQHandler+0x124>
        htim->IC_CaptureCallback(htim);
 8006220:	2394      	movs	r3, #148	@ 0x94
 8006222:	0020      	movs	r0, r4
 8006224:	58e3      	ldr	r3, [r4, r3]
 8006226:	4798      	blx	r3
 8006228:	e7ae      	b.n	8006188 <HAL_TIM_IRQHandler+0xfc>
 800622a:	46c0      	nop			@ (mov r8, r8)
 800622c:	ffffdf7f 	.word	0xffffdf7f
 8006230:	fffffeff 	.word	0xfffffeff

08006234 <HAL_TIM_OC_ConfigChannel>:
  __HAL_LOCK(htim);
 8006234:	233c      	movs	r3, #60	@ 0x3c
{
 8006236:	b5f0      	push	{r4, r5, r6, r7, lr}
  __HAL_LOCK(htim);
 8006238:	5cc3      	ldrb	r3, [r0, r3]
{
 800623a:	0004      	movs	r4, r0
  __HAL_LOCK(htim);
 800623c:	2b01      	cmp	r3, #1
 800623e:	d100      	bne.n	8006242 <HAL_TIM_OC_ConfigChannel+0xe>
 8006240:	e11d      	b.n	800647e <HAL_TIM_OC_ConfigChannel+0x24a>
  switch (Channel)
 8006242:	2a14      	cmp	r2, #20
 8006244:	d803      	bhi.n	800624e <HAL_TIM_OC_ConfigChannel+0x1a>
 8006246:	4b8f      	ldr	r3, [pc, #572]	@ (8006484 <HAL_TIM_OC_ConfigChannel+0x250>)
 8006248:	0092      	lsls	r2, r2, #2
 800624a:	589b      	ldr	r3, [r3, r2]
 800624c:	469f      	mov	pc, r3
 800624e:	2001      	movs	r0, #1
  __HAL_UNLOCK(htim);
 8006250:	233c      	movs	r3, #60	@ 0x3c
 8006252:	2200      	movs	r2, #0
 8006254:	54e2      	strb	r2, [r4, r3]
}
 8006256:	bdf0      	pop	{r4, r5, r6, r7, pc}
      TIM_OC6_SetConfig(htim->Instance, sConfig);
 8006258:	6803      	ldr	r3, [r0, #0]
  TIMx->CCER &= ~TIM_CCER_CC6E;
 800625a:	4d8b      	ldr	r5, [pc, #556]	@ (8006488 <HAL_TIM_OC_ConfigChannel+0x254>)
  tmpccer = TIMx->CCER;
 800625c:	6a18      	ldr	r0, [r3, #32]
  TIMx->CCER &= ~TIM_CCER_CC6E;
 800625e:	6a1a      	ldr	r2, [r3, #32]
 8006260:	402a      	ands	r2, r5
 8006262:	621a      	str	r2, [r3, #32]
  tmpccmrx &= ~(TIM_CCMR3_OC6M);
 8006264:	4d89      	ldr	r5, [pc, #548]	@ (800648c <HAL_TIM_OC_ConfigChannel+0x258>)
  tmpcr2 =  TIMx->CR2;
 8006266:	685e      	ldr	r6, [r3, #4]
  tmpccmrx = TIMx->CCMR3;
 8006268:	6d5a      	ldr	r2, [r3, #84]	@ 0x54
  tmpccmrx &= ~(TIM_CCMR3_OC6M);
 800626a:	402a      	ands	r2, r5
  tmpccmrx |= (OC_Config->OCMode << 8U);
 800626c:	680d      	ldr	r5, [r1, #0]
 800626e:	022d      	lsls	r5, r5, #8
 8006270:	4315      	orrs	r5, r2
  tmpccer &= (uint32_t)~TIM_CCER_CC6P;
 8006272:	4a87      	ldr	r2, [pc, #540]	@ (8006490 <HAL_TIM_OC_ConfigChannel+0x25c>)
 8006274:	4010      	ands	r0, r2
  tmpccer |= (OC_Config->OCPolarity << 20U);
 8006276:	688a      	ldr	r2, [r1, #8]
 8006278:	0512      	lsls	r2, r2, #20
 800627a:	4302      	orrs	r2, r0
  if (IS_TIM_BREAK_INSTANCE(TIMx))
 800627c:	4885      	ldr	r0, [pc, #532]	@ (8006494 <HAL_TIM_OC_ConfigChannel+0x260>)
 800627e:	4283      	cmp	r3, r0
 8006280:	d100      	bne.n	8006284 <HAL_TIM_OC_ConfigChannel+0x50>
 8006282:	e0c2      	b.n	800640a <HAL_TIM_OC_ConfigChannel+0x1d6>
 8006284:	4884      	ldr	r0, [pc, #528]	@ (8006498 <HAL_TIM_OC_ConfigChannel+0x264>)
 8006286:	4283      	cmp	r3, r0
 8006288:	d100      	bne.n	800628c <HAL_TIM_OC_ConfigChannel+0x58>
 800628a:	e0be      	b.n	800640a <HAL_TIM_OC_ConfigChannel+0x1d6>
 800628c:	4883      	ldr	r0, [pc, #524]	@ (800649c <HAL_TIM_OC_ConfigChannel+0x268>)
 800628e:	4283      	cmp	r3, r0
 8006290:	d100      	bne.n	8006294 <HAL_TIM_OC_ConfigChannel+0x60>
 8006292:	e0ba      	b.n	800640a <HAL_TIM_OC_ConfigChannel+0x1d6>
  TIMx->CCR6 = OC_Config->Pulse;
 8006294:	6849      	ldr	r1, [r1, #4]
  TIMx->CR2 = tmpcr2;
 8006296:	605e      	str	r6, [r3, #4]
  HAL_StatusTypeDef status = HAL_OK;
 8006298:	2000      	movs	r0, #0
  TIMx->CCMR3 = tmpccmrx;
 800629a:	655d      	str	r5, [r3, #84]	@ 0x54
  TIMx->CCR6 = OC_Config->Pulse;
 800629c:	65d9      	str	r1, [r3, #92]	@ 0x5c
  TIMx->CCER = tmpccer;
 800629e:	621a      	str	r2, [r3, #32]
      break;
 80062a0:	e7d6      	b.n	8006250 <HAL_TIM_OC_ConfigChannel+0x1c>
  TIMx->CCER &= ~TIM_CCER_CC1E;
 80062a2:	2501      	movs	r5, #1
      TIM_OC1_SetConfig(htim->Instance, sConfig);
 80062a4:	6803      	ldr	r3, [r0, #0]
  tmpccer = TIMx->CCER;
 80062a6:	6a1a      	ldr	r2, [r3, #32]
  TIMx->CCER &= ~TIM_CCER_CC1E;
 80062a8:	6a18      	ldr	r0, [r3, #32]
 80062aa:	43a8      	bics	r0, r5
 80062ac:	6218      	str	r0, [r3, #32]
  tmpccmrx &= ~TIM_CCMR1_CC1S;
 80062ae:	4d7c      	ldr	r5, [pc, #496]	@ (80064a0 <HAL_TIM_OC_ConfigChannel+0x26c>)
  tmpcr2 =  TIMx->CR2;
 80062b0:	685e      	ldr	r6, [r3, #4]
  tmpccmrx = TIMx->CCMR1;
 80062b2:	6998      	ldr	r0, [r3, #24]
  tmpccmrx &= ~TIM_CCMR1_CC1S;
 80062b4:	4028      	ands	r0, r5
  tmpccmrx |= OC_Config->OCMode;
 80062b6:	680d      	ldr	r5, [r1, #0]
 80062b8:	4328      	orrs	r0, r5
  tmpccer &= ~TIM_CCER_CC1P;
 80062ba:	2502      	movs	r5, #2
 80062bc:	43aa      	bics	r2, r5
  tmpccer |= OC_Config->OCPolarity;
 80062be:	688d      	ldr	r5, [r1, #8]
 80062c0:	432a      	orrs	r2, r5
  if (IS_TIM_CCXN_INSTANCE(TIMx, TIM_CHANNEL_1))
 80062c2:	4d74      	ldr	r5, [pc, #464]	@ (8006494 <HAL_TIM_OC_ConfigChannel+0x260>)
 80062c4:	42ab      	cmp	r3, r5
 80062c6:	d100      	bne.n	80062ca <HAL_TIM_OC_ConfigChannel+0x96>
 80062c8:	e0cc      	b.n	8006464 <HAL_TIM_OC_ConfigChannel+0x230>
 80062ca:	4d73      	ldr	r5, [pc, #460]	@ (8006498 <HAL_TIM_OC_ConfigChannel+0x264>)
 80062cc:	42ab      	cmp	r3, r5
 80062ce:	d100      	bne.n	80062d2 <HAL_TIM_OC_ConfigChannel+0x9e>
 80062d0:	e0c8      	b.n	8006464 <HAL_TIM_OC_ConfigChannel+0x230>
 80062d2:	4d72      	ldr	r5, [pc, #456]	@ (800649c <HAL_TIM_OC_ConfigChannel+0x268>)
 80062d4:	42ab      	cmp	r3, r5
 80062d6:	d100      	bne.n	80062da <HAL_TIM_OC_ConfigChannel+0xa6>
 80062d8:	e0c4      	b.n	8006464 <HAL_TIM_OC_ConfigChannel+0x230>
  TIMx->CCR1 = OC_Config->Pulse;
 80062da:	6849      	ldr	r1, [r1, #4]
  TIMx->CR2 = tmpcr2;
 80062dc:	605e      	str	r6, [r3, #4]
  TIMx->CCMR1 = tmpccmrx;
 80062de:	6198      	str	r0, [r3, #24]
  TIMx->CCR1 = OC_Config->Pulse;
 80062e0:	6359      	str	r1, [r3, #52]	@ 0x34
  HAL_StatusTypeDef status = HAL_OK;
 80062e2:	2000      	movs	r0, #0
  TIMx->CCER = tmpccer;
 80062e4:	621a      	str	r2, [r3, #32]
      break;
 80062e6:	e7b3      	b.n	8006250 <HAL_TIM_OC_ConfigChannel+0x1c>
  TIMx->CCER &= ~TIM_CCER_CC2E;
 80062e8:	2510      	movs	r5, #16
      TIM_OC2_SetConfig(htim->Instance, sConfig);
 80062ea:	6803      	ldr	r3, [r0, #0]
  tmpccer = TIMx->CCER;
 80062ec:	6a1a      	ldr	r2, [r3, #32]
  TIMx->CCER &= ~TIM_CCER_CC2E;
 80062ee:	6a18      	ldr	r0, [r3, #32]
 80062f0:	43a8      	bics	r0, r5
 80062f2:	6218      	str	r0, [r3, #32]
  tmpccmrx &= ~TIM_CCMR1_CC2S;
 80062f4:	4d6b      	ldr	r5, [pc, #428]	@ (80064a4 <HAL_TIM_OC_ConfigChannel+0x270>)
  tmpcr2 =  TIMx->CR2;
 80062f6:	685f      	ldr	r7, [r3, #4]
  tmpccmrx = TIMx->CCMR1;
 80062f8:	6998      	ldr	r0, [r3, #24]
  tmpccmrx &= ~TIM_CCMR1_CC2S;
 80062fa:	4028      	ands	r0, r5
  tmpccmrx |= (OC_Config->OCMode << 8U);
 80062fc:	680d      	ldr	r5, [r1, #0]
 80062fe:	022d      	lsls	r5, r5, #8
 8006300:	4305      	orrs	r5, r0
  tmpccer &= ~TIM_CCER_CC2P;
 8006302:	2020      	movs	r0, #32
 8006304:	4382      	bics	r2, r0
  tmpccer |= (OC_Config->OCPolarity << 4U);
 8006306:	6888      	ldr	r0, [r1, #8]
 8006308:	0100      	lsls	r0, r0, #4
 800630a:	4310      	orrs	r0, r2
  if (IS_TIM_CCXN_INSTANCE(TIMx, TIM_CHANNEL_2))
 800630c:	4a61      	ldr	r2, [pc, #388]	@ (8006494 <HAL_TIM_OC_ConfigChannel+0x260>)
 800630e:	4293      	cmp	r3, r2
 8006310:	d100      	bne.n	8006314 <HAL_TIM_OC_ConfigChannel+0xe0>
 8006312:	e098      	b.n	8006446 <HAL_TIM_OC_ConfigChannel+0x212>
  if (IS_TIM_BREAK_INSTANCE(TIMx))
 8006314:	4a60      	ldr	r2, [pc, #384]	@ (8006498 <HAL_TIM_OC_ConfigChannel+0x264>)
 8006316:	4293      	cmp	r3, r2
 8006318:	d100      	bne.n	800631c <HAL_TIM_OC_ConfigChannel+0xe8>
 800631a:	e09b      	b.n	8006454 <HAL_TIM_OC_ConfigChannel+0x220>
 800631c:	4a5f      	ldr	r2, [pc, #380]	@ (800649c <HAL_TIM_OC_ConfigChannel+0x268>)
 800631e:	4293      	cmp	r3, r2
 8006320:	d100      	bne.n	8006324 <HAL_TIM_OC_ConfigChannel+0xf0>
 8006322:	e097      	b.n	8006454 <HAL_TIM_OC_ConfigChannel+0x220>
  TIMx->CCR2 = OC_Config->Pulse;
 8006324:	684a      	ldr	r2, [r1, #4]
  TIMx->CR2 = tmpcr2;
 8006326:	605f      	str	r7, [r3, #4]
  TIMx->CCMR1 = tmpccmrx;
 8006328:	619d      	str	r5, [r3, #24]
  TIMx->CCR2 = OC_Config->Pulse;
 800632a:	639a      	str	r2, [r3, #56]	@ 0x38
  TIMx->CCER = tmpccer;
 800632c:	6218      	str	r0, [r3, #32]
  HAL_StatusTypeDef status = HAL_OK;
 800632e:	2000      	movs	r0, #0
 8006330:	e78e      	b.n	8006250 <HAL_TIM_OC_ConfigChannel+0x1c>
      TIM_OC3_SetConfig(htim->Instance, sConfig);
 8006332:	6803      	ldr	r3, [r0, #0]
  TIMx->CCER &= ~TIM_CCER_CC3E;
 8006334:	4d5c      	ldr	r5, [pc, #368]	@ (80064a8 <HAL_TIM_OC_ConfigChannel+0x274>)
  tmpccer = TIMx->CCER;
 8006336:	6a1a      	ldr	r2, [r3, #32]
  TIMx->CCER &= ~TIM_CCER_CC3E;
 8006338:	6a18      	ldr	r0, [r3, #32]
  tmpccmrx |= OC_Config->OCMode;
 800633a:	680f      	ldr	r7, [r1, #0]
  TIMx->CCER &= ~TIM_CCER_CC3E;
 800633c:	4028      	ands	r0, r5
 800633e:	6218      	str	r0, [r3, #32]
  tmpcr2 =  TIMx->CR2;
 8006340:	6858      	ldr	r0, [r3, #4]
  tmpccmrx &= ~TIM_CCMR2_CC3S;
 8006342:	4d57      	ldr	r5, [pc, #348]	@ (80064a0 <HAL_TIM_OC_ConfigChannel+0x26c>)
  tmpcr2 =  TIMx->CR2;
 8006344:	4684      	mov	ip, r0
  tmpccmrx = TIMx->CCMR2;
 8006346:	69d8      	ldr	r0, [r3, #28]
  tmpccer |= (OC_Config->OCPolarity << 8U);
 8006348:	688e      	ldr	r6, [r1, #8]
  tmpccmrx &= ~TIM_CCMR2_CC3S;
 800634a:	4028      	ands	r0, r5
  tmpccmrx |= OC_Config->OCMode;
 800634c:	4307      	orrs	r7, r0
  tmpccer &= ~TIM_CCER_CC3P;
 800634e:	4857      	ldr	r0, [pc, #348]	@ (80064ac <HAL_TIM_OC_ConfigChannel+0x278>)
  tmpccer |= (OC_Config->OCPolarity << 8U);
 8006350:	0236      	lsls	r6, r6, #8
  tmpccer &= ~TIM_CCER_CC3P;
 8006352:	4002      	ands	r2, r0
  tmpccer |= (OC_Config->OCPolarity << 8U);
 8006354:	4316      	orrs	r6, r2
  if (IS_TIM_CCXN_INSTANCE(TIMx, TIM_CHANNEL_3))
 8006356:	4a4f      	ldr	r2, [pc, #316]	@ (8006494 <HAL_TIM_OC_ConfigChannel+0x260>)
 8006358:	4293      	cmp	r3, r2
 800635a:	d062      	beq.n	8006422 <HAL_TIM_OC_ConfigChannel+0x1ee>
  if (IS_TIM_BREAK_INSTANCE(TIMx))
 800635c:	4a4e      	ldr	r2, [pc, #312]	@ (8006498 <HAL_TIM_OC_ConfigChannel+0x264>)
 800635e:	4293      	cmp	r3, r2
 8006360:	d066      	beq.n	8006430 <HAL_TIM_OC_ConfigChannel+0x1fc>
 8006362:	4a4e      	ldr	r2, [pc, #312]	@ (800649c <HAL_TIM_OC_ConfigChannel+0x268>)
 8006364:	4293      	cmp	r3, r2
 8006366:	d063      	beq.n	8006430 <HAL_TIM_OC_ConfigChannel+0x1fc>
  TIMx->CR2 = tmpcr2;
 8006368:	4662      	mov	r2, ip
 800636a:	605a      	str	r2, [r3, #4]
  TIMx->CCR3 = OC_Config->Pulse;
 800636c:	684a      	ldr	r2, [r1, #4]
  TIMx->CCMR2 = tmpccmrx;
 800636e:	61df      	str	r7, [r3, #28]
  HAL_StatusTypeDef status = HAL_OK;
 8006370:	2000      	movs	r0, #0
  TIMx->CCR3 = OC_Config->Pulse;
 8006372:	63da      	str	r2, [r3, #60]	@ 0x3c
  TIMx->CCER = tmpccer;
 8006374:	621e      	str	r6, [r3, #32]
      break;
 8006376:	e76b      	b.n	8006250 <HAL_TIM_OC_ConfigChannel+0x1c>
      TIM_OC4_SetConfig(htim->Instance, sConfig);
 8006378:	6803      	ldr	r3, [r0, #0]
  TIMx->CCER &= ~TIM_CCER_CC4E;
 800637a:	4d4d      	ldr	r5, [pc, #308]	@ (80064b0 <HAL_TIM_OC_ConfigChannel+0x27c>)
  tmpccer = TIMx->CCER;
 800637c:	6a18      	ldr	r0, [r3, #32]
  TIMx->CCER &= ~TIM_CCER_CC4E;
 800637e:	6a1a      	ldr	r2, [r3, #32]
 8006380:	402a      	ands	r2, r5
 8006382:	621a      	str	r2, [r3, #32]
  tmpccmrx &= ~TIM_CCMR2_CC4S;
 8006384:	4d47      	ldr	r5, [pc, #284]	@ (80064a4 <HAL_TIM_OC_ConfigChannel+0x270>)
  tmpcr2 =  TIMx->CR2;
 8006386:	685e      	ldr	r6, [r3, #4]
  tmpccmrx = TIMx->CCMR2;
 8006388:	69da      	ldr	r2, [r3, #28]
  tmpccmrx &= ~TIM_CCMR2_CC4S;
 800638a:	402a      	ands	r2, r5
  tmpccmrx |= (OC_Config->OCMode << 8U);
 800638c:	680d      	ldr	r5, [r1, #0]
 800638e:	022d      	lsls	r5, r5, #8
 8006390:	4315      	orrs	r5, r2
  tmpccer &= ~TIM_CCER_CC4P;
 8006392:	4a48      	ldr	r2, [pc, #288]	@ (80064b4 <HAL_TIM_OC_ConfigChannel+0x280>)
 8006394:	4010      	ands	r0, r2
  tmpccer |= (OC_Config->OCPolarity << 12U);
 8006396:	688a      	ldr	r2, [r1, #8]
 8006398:	0312      	lsls	r2, r2, #12
 800639a:	4302      	orrs	r2, r0
  if (IS_TIM_BREAK_INSTANCE(TIMx))
 800639c:	483d      	ldr	r0, [pc, #244]	@ (8006494 <HAL_TIM_OC_ConfigChannel+0x260>)
 800639e:	4283      	cmp	r3, r0
 80063a0:	d039      	beq.n	8006416 <HAL_TIM_OC_ConfigChannel+0x1e2>
 80063a2:	483d      	ldr	r0, [pc, #244]	@ (8006498 <HAL_TIM_OC_ConfigChannel+0x264>)
 80063a4:	4283      	cmp	r3, r0
 80063a6:	d036      	beq.n	8006416 <HAL_TIM_OC_ConfigChannel+0x1e2>
 80063a8:	483c      	ldr	r0, [pc, #240]	@ (800649c <HAL_TIM_OC_ConfigChannel+0x268>)
 80063aa:	4283      	cmp	r3, r0
 80063ac:	d033      	beq.n	8006416 <HAL_TIM_OC_ConfigChannel+0x1e2>
  TIMx->CCR4 = OC_Config->Pulse;
 80063ae:	6849      	ldr	r1, [r1, #4]
  TIMx->CR2 = tmpcr2;
 80063b0:	605e      	str	r6, [r3, #4]
  HAL_StatusTypeDef status = HAL_OK;
 80063b2:	2000      	movs	r0, #0
  TIMx->CCMR2 = tmpccmrx;
 80063b4:	61dd      	str	r5, [r3, #28]
  TIMx->CCR4 = OC_Config->Pulse;
 80063b6:	6419      	str	r1, [r3, #64]	@ 0x40
  TIMx->CCER = tmpccer;
 80063b8:	621a      	str	r2, [r3, #32]
      break;
 80063ba:	e749      	b.n	8006250 <HAL_TIM_OC_ConfigChannel+0x1c>
      TIM_OC5_SetConfig(htim->Instance, sConfig);
 80063bc:	6803      	ldr	r3, [r0, #0]
  TIMx->CCER &= ~TIM_CCER_CC5E;
 80063be:	4d3e      	ldr	r5, [pc, #248]	@ (80064b8 <HAL_TIM_OC_ConfigChannel+0x284>)
  tmpccer = TIMx->CCER;
 80063c0:	6a18      	ldr	r0, [r3, #32]
  TIMx->CCER &= ~TIM_CCER_CC5E;
 80063c2:	6a1a      	ldr	r2, [r3, #32]
  tmpccmrx &= ~(TIM_CCMR3_OC5M);
 80063c4:	4e3d      	ldr	r6, [pc, #244]	@ (80064bc <HAL_TIM_OC_ConfigChannel+0x288>)
  TIMx->CCER &= ~TIM_CCER_CC5E;
 80063c6:	402a      	ands	r2, r5
 80063c8:	621a      	str	r2, [r3, #32]
  tmpcr2 =  TIMx->CR2;
 80063ca:	685d      	ldr	r5, [r3, #4]
  tmpccmrx = TIMx->CCMR3;
 80063cc:	6d5a      	ldr	r2, [r3, #84]	@ 0x54
  tmpccmrx &= ~(TIM_CCMR3_OC5M);
 80063ce:	4032      	ands	r2, r6
  tmpccmrx |= OC_Config->OCMode;
 80063d0:	680e      	ldr	r6, [r1, #0]
 80063d2:	4316      	orrs	r6, r2
  tmpccer &= ~TIM_CCER_CC5P;
 80063d4:	4a3a      	ldr	r2, [pc, #232]	@ (80064c0 <HAL_TIM_OC_ConfigChannel+0x28c>)
 80063d6:	4010      	ands	r0, r2
  tmpccer |= (OC_Config->OCPolarity << 16U);
 80063d8:	688a      	ldr	r2, [r1, #8]
 80063da:	0412      	lsls	r2, r2, #16
 80063dc:	4302      	orrs	r2, r0
  if (IS_TIM_BREAK_INSTANCE(TIMx))
 80063de:	482d      	ldr	r0, [pc, #180]	@ (8006494 <HAL_TIM_OC_ConfigChannel+0x260>)
 80063e0:	4283      	cmp	r3, r0
 80063e2:	d00c      	beq.n	80063fe <HAL_TIM_OC_ConfigChannel+0x1ca>
 80063e4:	482c      	ldr	r0, [pc, #176]	@ (8006498 <HAL_TIM_OC_ConfigChannel+0x264>)
 80063e6:	4283      	cmp	r3, r0
 80063e8:	d009      	beq.n	80063fe <HAL_TIM_OC_ConfigChannel+0x1ca>
 80063ea:	482c      	ldr	r0, [pc, #176]	@ (800649c <HAL_TIM_OC_ConfigChannel+0x268>)
 80063ec:	4283      	cmp	r3, r0
 80063ee:	d006      	beq.n	80063fe <HAL_TIM_OC_ConfigChannel+0x1ca>
  TIMx->CCR5 = OC_Config->Pulse;
 80063f0:	6849      	ldr	r1, [r1, #4]
  TIMx->CR2 = tmpcr2;
 80063f2:	605d      	str	r5, [r3, #4]
  HAL_StatusTypeDef status = HAL_OK;
 80063f4:	2000      	movs	r0, #0
  TIMx->CCMR3 = tmpccmrx;
 80063f6:	655e      	str	r6, [r3, #84]	@ 0x54
  TIMx->CCR5 = OC_Config->Pulse;
 80063f8:	6599      	str	r1, [r3, #88]	@ 0x58
  TIMx->CCER = tmpccer;
 80063fa:	621a      	str	r2, [r3, #32]
      break;
 80063fc:	e728      	b.n	8006250 <HAL_TIM_OC_ConfigChannel+0x1c>
    tmpcr2 &= ~TIM_CR2_OIS5;
 80063fe:	482e      	ldr	r0, [pc, #184]	@ (80064b8 <HAL_TIM_OC_ConfigChannel+0x284>)
 8006400:	4028      	ands	r0, r5
    tmpcr2 |= (OC_Config->OCIdleState << 8U);
 8006402:	694d      	ldr	r5, [r1, #20]
 8006404:	022d      	lsls	r5, r5, #8
 8006406:	4305      	orrs	r5, r0
 8006408:	e7f2      	b.n	80063f0 <HAL_TIM_OC_ConfigChannel+0x1bc>
    tmpcr2 &= ~TIM_CR2_OIS6;
 800640a:	482e      	ldr	r0, [pc, #184]	@ (80064c4 <HAL_TIM_OC_ConfigChannel+0x290>)
 800640c:	4030      	ands	r0, r6
    tmpcr2 |= (OC_Config->OCIdleState << 10U);
 800640e:	694e      	ldr	r6, [r1, #20]
 8006410:	02b6      	lsls	r6, r6, #10
 8006412:	4306      	orrs	r6, r0
 8006414:	e73e      	b.n	8006294 <HAL_TIM_OC_ConfigChannel+0x60>
    tmpcr2 &= ~TIM_CR2_OIS4;
 8006416:	482c      	ldr	r0, [pc, #176]	@ (80064c8 <HAL_TIM_OC_ConfigChannel+0x294>)
 8006418:	4030      	ands	r0, r6
    tmpcr2 |= (OC_Config->OCIdleState << 6U);
 800641a:	694e      	ldr	r6, [r1, #20]
 800641c:	01b6      	lsls	r6, r6, #6
 800641e:	4306      	orrs	r6, r0
 8006420:	e7c5      	b.n	80063ae <HAL_TIM_OC_ConfigChannel+0x17a>
    tmpccer &= ~TIM_CCER_CC3NP;
 8006422:	4a2a      	ldr	r2, [pc, #168]	@ (80064cc <HAL_TIM_OC_ConfigChannel+0x298>)
    tmpccer |= (OC_Config->OCNPolarity << 8U);
 8006424:	68c8      	ldr	r0, [r1, #12]
    tmpccer &= ~TIM_CCER_CC3NP;
 8006426:	4032      	ands	r2, r6
    tmpccer |= (OC_Config->OCNPolarity << 8U);
 8006428:	0200      	lsls	r0, r0, #8
    tmpccer &= ~TIM_CCER_CC3NE;
 800642a:	4e29      	ldr	r6, [pc, #164]	@ (80064d0 <HAL_TIM_OC_ConfigChannel+0x29c>)
    tmpccer |= (OC_Config->OCNPolarity << 8U);
 800642c:	4310      	orrs	r0, r2
    tmpccer &= ~TIM_CCER_CC3NE;
 800642e:	4006      	ands	r6, r0
    tmpcr2 &= ~TIM_CR2_OIS3N;
 8006430:	4662      	mov	r2, ip
 8006432:	4d28      	ldr	r5, [pc, #160]	@ (80064d4 <HAL_TIM_OC_ConfigChannel+0x2a0>)
    tmpcr2 |= (OC_Config->OCNIdleState << 4U);
 8006434:	6988      	ldr	r0, [r1, #24]
    tmpcr2 &= ~TIM_CR2_OIS3N;
 8006436:	402a      	ands	r2, r5
 8006438:	0015      	movs	r5, r2
    tmpcr2 |= (OC_Config->OCNIdleState << 4U);
 800643a:	694a      	ldr	r2, [r1, #20]
 800643c:	4302      	orrs	r2, r0
 800643e:	0112      	lsls	r2, r2, #4
 8006440:	432a      	orrs	r2, r5
 8006442:	4694      	mov	ip, r2
 8006444:	e790      	b.n	8006368 <HAL_TIM_OC_ConfigChannel+0x134>
    tmpccer &= ~TIM_CCER_CC2NP;
 8006446:	2280      	movs	r2, #128	@ 0x80
 8006448:	4390      	bics	r0, r2
    tmpccer |= (OC_Config->OCNPolarity << 4U);
 800644a:	68ca      	ldr	r2, [r1, #12]
 800644c:	0112      	lsls	r2, r2, #4
 800644e:	4310      	orrs	r0, r2
    tmpccer &= ~TIM_CCER_CC2NE;
 8006450:	2240      	movs	r2, #64	@ 0x40
 8006452:	4390      	bics	r0, r2
    tmpcr2 &= ~TIM_CR2_OIS2N;
 8006454:	4e20      	ldr	r6, [pc, #128]	@ (80064d8 <HAL_TIM_OC_ConfigChannel+0x2a4>)
    tmpcr2 |= (OC_Config->OCNIdleState << 2U);
 8006456:	694a      	ldr	r2, [r1, #20]
    tmpcr2 &= ~TIM_CR2_OIS2N;
 8006458:	403e      	ands	r6, r7
    tmpcr2 |= (OC_Config->OCNIdleState << 2U);
 800645a:	698f      	ldr	r7, [r1, #24]
 800645c:	4317      	orrs	r7, r2
 800645e:	00bf      	lsls	r7, r7, #2
 8006460:	4337      	orrs	r7, r6
 8006462:	e75f      	b.n	8006324 <HAL_TIM_OC_ConfigChannel+0xf0>
    tmpccer &= ~TIM_CCER_CC1NP;
 8006464:	2508      	movs	r5, #8
 8006466:	43aa      	bics	r2, r5
    tmpccer |= OC_Config->OCNPolarity;
 8006468:	68cd      	ldr	r5, [r1, #12]
    tmpcr2 |= OC_Config->OCNIdleState;
 800646a:	698f      	ldr	r7, [r1, #24]
    tmpccer |= OC_Config->OCNPolarity;
 800646c:	432a      	orrs	r2, r5
    tmpccer &= ~TIM_CCER_CC1NE;
 800646e:	2504      	movs	r5, #4
 8006470:	43aa      	bics	r2, r5
    tmpcr2 &= ~TIM_CR2_OIS1N;
 8006472:	4d1a      	ldr	r5, [pc, #104]	@ (80064dc <HAL_TIM_OC_ConfigChannel+0x2a8>)
 8006474:	4035      	ands	r5, r6
    tmpcr2 |= OC_Config->OCNIdleState;
 8006476:	694e      	ldr	r6, [r1, #20]
 8006478:	433e      	orrs	r6, r7
 800647a:	432e      	orrs	r6, r5
 800647c:	e72d      	b.n	80062da <HAL_TIM_OC_ConfigChannel+0xa6>
  __HAL_LOCK(htim);
 800647e:	2002      	movs	r0, #2
 8006480:	e6e9      	b.n	8006256 <HAL_TIM_OC_ConfigChannel+0x22>
 8006482:	46c0      	nop			@ (mov r8, r8)
 8006484:	080085e8 	.word	0x080085e8
 8006488:	ffefffff 	.word	0xffefffff
 800648c:	feff8fff 	.word	0xfeff8fff
 8006490:	ffdfffff 	.word	0xffdfffff
 8006494:	40012c00 	.word	0x40012c00
 8006498:	40014400 	.word	0x40014400
 800649c:	40014800 	.word	0x40014800
 80064a0:	fffeff8c 	.word	0xfffeff8c
 80064a4:	feff8cff 	.word	0xfeff8cff
 80064a8:	fffffeff 	.word	0xfffffeff
 80064ac:	fffffdff 	.word	0xfffffdff
 80064b0:	ffffefff 	.word	0xffffefff
 80064b4:	ffffdfff 	.word	0xffffdfff
 80064b8:	fffeffff 	.word	0xfffeffff
 80064bc:	fffeff8f 	.word	0xfffeff8f
 80064c0:	fffdffff 	.word	0xfffdffff
 80064c4:	fffbffff 	.word	0xfffbffff
 80064c8:	ffffbfff 	.word	0xffffbfff
 80064cc:	fffff7ff 	.word	0xfffff7ff
 80064d0:	fffffbff 	.word	0xfffffbff
 80064d4:	ffffcfff 	.word	0xffffcfff
 80064d8:	fffff3ff 	.word	0xfffff3ff
 80064dc:	fffffcff 	.word	0xfffffcff

080064e0 <HAL_TIM_IC_ConfigChannel>:
{
 80064e0:	0003      	movs	r3, r0
  __HAL_LOCK(htim);
 80064e2:	203c      	movs	r0, #60	@ 0x3c
{
 80064e4:	b5f0      	push	{r4, r5, r6, r7, lr}
 80064e6:	46ce      	mov	lr, r9
 80064e8:	4647      	mov	r7, r8
  __HAL_LOCK(htim);
 80064ea:	5c1c      	ldrb	r4, [r3, r0]
{
 80064ec:	b580      	push	{r7, lr}
  __HAL_LOCK(htim);
 80064ee:	2c01      	cmp	r4, #1
 80064f0:	d100      	bne.n	80064f4 <HAL_TIM_IC_ConfigChannel+0x14>
 80064f2:	e0bf      	b.n	8006674 <HAL_TIM_IC_ConfigChannel+0x194>
 80064f4:	2401      	movs	r4, #1
 80064f6:	541c      	strb	r4, [r3, r0]
  if (Channel == TIM_CHANNEL_1)
 80064f8:	2a00      	cmp	r2, #0
 80064fa:	d00e      	beq.n	800651a <HAL_TIM_IC_ConfigChannel+0x3a>
  else if (Channel == TIM_CHANNEL_2)
 80064fc:	2a04      	cmp	r2, #4
 80064fe:	d039      	beq.n	8006574 <HAL_TIM_IC_ConfigChannel+0x94>
  else if (Channel == TIM_CHANNEL_3)
 8006500:	2a08      	cmp	r2, #8
 8006502:	d100      	bne.n	8006506 <HAL_TIM_IC_ConfigChannel+0x26>
 8006504:	e08d      	b.n	8006622 <HAL_TIM_IC_ConfigChannel+0x142>
    status = HAL_ERROR;
 8006506:	2001      	movs	r0, #1
  else if (Channel == TIM_CHANNEL_4)
 8006508:	2a0c      	cmp	r2, #12
 800650a:	d05a      	beq.n	80065c2 <HAL_TIM_IC_ConfigChannel+0xe2>
  __HAL_UNLOCK(htim);
 800650c:	223c      	movs	r2, #60	@ 0x3c
 800650e:	2100      	movs	r1, #0
 8006510:	5499      	strb	r1, [r3, r2]
}
 8006512:	bcc0      	pop	{r6, r7}
 8006514:	46b9      	mov	r9, r7
 8006516:	46b0      	mov	r8, r6
 8006518:	bdf0      	pop	{r4, r5, r6, r7, pc}
    TIM_TI1_SetConfig(htim->Instance,
 800651a:	681a      	ldr	r2, [r3, #0]
                      sConfig->ICSelection,
 800651c:	6848      	ldr	r0, [r1, #4]
  tmpccer = TIMx->CCER;
 800651e:	6a15      	ldr	r5, [r2, #32]
                      sConfig->ICSelection,
 8006520:	4681      	mov	r9, r0
  TIMx->CCER &= ~TIM_CCER_CC1E;
 8006522:	6a10      	ldr	r0, [r2, #32]
                      sConfig->ICPolarity,
 8006524:	680e      	ldr	r6, [r1, #0]
  TIMx->CCER &= ~TIM_CCER_CC1E;
 8006526:	43a0      	bics	r0, r4
                      sConfig->ICFilter);
 8006528:	68cf      	ldr	r7, [r1, #12]
  TIMx->CCER &= ~TIM_CCER_CC1E;
 800652a:	6210      	str	r0, [r2, #32]
  tmpccmr1 = TIMx->CCMR1;
 800652c:	6990      	ldr	r0, [r2, #24]
 800652e:	4684      	mov	ip, r0
  if (IS_TIM_CC2_INSTANCE(TIMx) != RESET)
 8006530:	4851      	ldr	r0, [pc, #324]	@ (8006678 <HAL_TIM_IC_ConfigChannel+0x198>)
 8006532:	4282      	cmp	r2, r0
 8006534:	d06e      	beq.n	8006614 <HAL_TIM_IC_ConfigChannel+0x134>
 8006536:	2080      	movs	r0, #128	@ 0x80
 8006538:	05c0      	lsls	r0, r0, #23
 800653a:	4282      	cmp	r2, r0
 800653c:	d06a      	beq.n	8006614 <HAL_TIM_IC_ConfigChannel+0x134>
 800653e:	484f      	ldr	r0, [pc, #316]	@ (800667c <HAL_TIM_IC_ConfigChannel+0x19c>)
 8006540:	4282      	cmp	r2, r0
 8006542:	d067      	beq.n	8006614 <HAL_TIM_IC_ConfigChannel+0x134>
    tmpccmr1 |= TIM_CCMR1_CC1S_0;
 8006544:	4660      	mov	r0, ip
 8006546:	4320      	orrs	r0, r4
  tmpccmr1 &= ~TIM_CCMR1_IC1F;
 8006548:	24f0      	movs	r4, #240	@ 0xf0
  tmpccmr1 |= ((TIM_ICFilter << 4U) & TIM_CCMR1_IC1F);
 800654a:	013f      	lsls	r7, r7, #4
  tmpccmr1 &= ~TIM_CCMR1_IC1F;
 800654c:	43a0      	bics	r0, r4
  tmpccmr1 |= ((TIM_ICFilter << 4U) & TIM_CCMR1_IC1F);
 800654e:	340f      	adds	r4, #15
 8006550:	403c      	ands	r4, r7
 8006552:	4304      	orrs	r4, r0
  tmpccer &= ~(TIM_CCER_CC1P | TIM_CCER_CC1NP);
 8006554:	200a      	movs	r0, #10
  TIMx->CCMR1 = tmpccmr1;
 8006556:	6194      	str	r4, [r2, #24]
    htim->Instance->CCMR1 &= ~TIM_CCMR1_IC1PSC;
 8006558:	240c      	movs	r4, #12
  tmpccer &= ~(TIM_CCER_CC1P | TIM_CCER_CC1NP);
 800655a:	4385      	bics	r5, r0
  tmpccer |= (TIM_ICPolarity & (TIM_CCER_CC1P | TIM_CCER_CC1NP));
 800655c:	4030      	ands	r0, r6
 800655e:	4328      	orrs	r0, r5
  TIMx->CCER = tmpccer;
 8006560:	6210      	str	r0, [r2, #32]
    htim->Instance->CCMR1 &= ~TIM_CCMR1_IC1PSC;
 8006562:	6990      	ldr	r0, [r2, #24]
    htim->Instance->CCMR1 |= sConfig->ICPrescaler;
 8006564:	6889      	ldr	r1, [r1, #8]
    htim->Instance->CCMR1 &= ~TIM_CCMR1_IC1PSC;
 8006566:	43a0      	bics	r0, r4
 8006568:	6190      	str	r0, [r2, #24]
    htim->Instance->CCMR1 |= sConfig->ICPrescaler;
 800656a:	6990      	ldr	r0, [r2, #24]
 800656c:	4301      	orrs	r1, r0
 800656e:	6191      	str	r1, [r2, #24]
  HAL_StatusTypeDef status = HAL_OK;
 8006570:	2000      	movs	r0, #0
 8006572:	e7cb      	b.n	800650c <HAL_TIM_IC_ConfigChannel+0x2c>
                      sConfig->ICFilter);
 8006574:	68c8      	ldr	r0, [r1, #12]
    TIM_TI2_SetConfig(htim->Instance,
 8006576:	681a      	ldr	r2, [r3, #0]
                      sConfig->ICFilter);
 8006578:	4680      	mov	r8, r0
  TIMx->CCER &= ~TIM_CCER_CC2E;
 800657a:	2010      	movs	r0, #16
  tmpccer = TIMx->CCER;
 800657c:	6a15      	ldr	r5, [r2, #32]
  TIMx->CCER &= ~TIM_CCER_CC2E;
 800657e:	6a17      	ldr	r7, [r2, #32]
                      sConfig->ICPolarity,
 8006580:	680e      	ldr	r6, [r1, #0]
  TIMx->CCER &= ~TIM_CCER_CC2E;
 8006582:	4387      	bics	r7, r0
                      sConfig->ICSelection,
 8006584:	684c      	ldr	r4, [r1, #4]
  TIMx->CCER &= ~TIM_CCER_CC2E;
 8006586:	6217      	str	r7, [r2, #32]
  tmpccmr1 = TIMx->CCMR1;
 8006588:	6997      	ldr	r7, [r2, #24]
  tmpccmr1 &= ~TIM_CCMR1_CC2S;
 800658a:	483d      	ldr	r0, [pc, #244]	@ (8006680 <HAL_TIM_IC_ConfigChannel+0x1a0>)
  tmpccmr1 |= (TIM_ICSelection << 8U);
 800658c:	0224      	lsls	r4, r4, #8
  tmpccmr1 &= ~TIM_CCMR1_CC2S;
 800658e:	4007      	ands	r7, r0
  tmpccmr1 |= ((TIM_ICFilter << 12U) & TIM_CCMR1_IC2F);
 8006590:	4640      	mov	r0, r8
  tmpccmr1 |= (TIM_ICSelection << 8U);
 8006592:	433c      	orrs	r4, r7
  tmpccmr1 &= ~TIM_CCMR1_IC2F;
 8006594:	4f3b      	ldr	r7, [pc, #236]	@ (8006684 <HAL_TIM_IC_ConfigChannel+0x1a4>)
  tmpccmr1 |= ((TIM_ICFilter << 12U) & TIM_CCMR1_IC2F);
 8006596:	0700      	lsls	r0, r0, #28
  tmpccmr1 &= ~TIM_CCMR1_IC2F;
 8006598:	403c      	ands	r4, r7
  tmpccmr1 |= ((TIM_ICFilter << 12U) & TIM_CCMR1_IC2F);
 800659a:	0c00      	lsrs	r0, r0, #16
 800659c:	4320      	orrs	r0, r4
  tmpccer &= ~(TIM_CCER_CC2P | TIM_CCER_CC2NP);
 800659e:	24a0      	movs	r4, #160	@ 0xa0
  tmpccer |= ((TIM_ICPolarity << 4U) & (TIM_CCER_CC2P | TIM_CCER_CC2NP));
 80065a0:	0136      	lsls	r6, r6, #4
  tmpccer &= ~(TIM_CCER_CC2P | TIM_CCER_CC2NP);
 80065a2:	43a5      	bics	r5, r4
  tmpccer |= ((TIM_ICPolarity << 4U) & (TIM_CCER_CC2P | TIM_CCER_CC2NP));
 80065a4:	4034      	ands	r4, r6
 80065a6:	432c      	orrs	r4, r5
  TIMx->CCMR1 = tmpccmr1 ;
 80065a8:	6190      	str	r0, [r2, #24]
  TIMx->CCER = tmpccer;
 80065aa:	6214      	str	r4, [r2, #32]
    htim->Instance->CCMR1 &= ~TIM_CCMR1_IC2PSC;
 80065ac:	6990      	ldr	r0, [r2, #24]
 80065ae:	4c36      	ldr	r4, [pc, #216]	@ (8006688 <HAL_TIM_IC_ConfigChannel+0x1a8>)
    htim->Instance->CCMR1 |= (sConfig->ICPrescaler << 8U);
 80065b0:	6889      	ldr	r1, [r1, #8]
    htim->Instance->CCMR1 &= ~TIM_CCMR1_IC2PSC;
 80065b2:	4020      	ands	r0, r4
 80065b4:	6190      	str	r0, [r2, #24]
    htim->Instance->CCMR1 |= (sConfig->ICPrescaler << 8U);
 80065b6:	6990      	ldr	r0, [r2, #24]
 80065b8:	0209      	lsls	r1, r1, #8
 80065ba:	4301      	orrs	r1, r0
 80065bc:	6191      	str	r1, [r2, #24]
  HAL_StatusTypeDef status = HAL_OK;
 80065be:	2000      	movs	r0, #0
 80065c0:	e7a4      	b.n	800650c <HAL_TIM_IC_ConfigChannel+0x2c>
                      sConfig->ICPolarity,
 80065c2:	6808      	ldr	r0, [r1, #0]
    TIM_TI4_SetConfig(htim->Instance,
 80065c4:	681a      	ldr	r2, [r3, #0]
                      sConfig->ICPolarity,
 80065c6:	4680      	mov	r8, r0
  tmpccer = TIMx->CCER;
 80065c8:	6a16      	ldr	r6, [r2, #32]
  TIMx->CCER &= ~TIM_CCER_CC4E;
 80065ca:	4830      	ldr	r0, [pc, #192]	@ (800668c <HAL_TIM_IC_ConfigChannel+0x1ac>)
 80065cc:	6a17      	ldr	r7, [r2, #32]
                      sConfig->ICSelection,
 80065ce:	684d      	ldr	r5, [r1, #4]
  TIMx->CCER &= ~TIM_CCER_CC4E;
 80065d0:	4007      	ands	r7, r0
                      sConfig->ICFilter);
 80065d2:	68cc      	ldr	r4, [r1, #12]
  TIMx->CCER &= ~TIM_CCER_CC4E;
 80065d4:	6217      	str	r7, [r2, #32]
  tmpccmr2 = TIMx->CCMR2;
 80065d6:	69d7      	ldr	r7, [r2, #28]
  tmpccmr2 &= ~TIM_CCMR2_CC4S;
 80065d8:	4829      	ldr	r0, [pc, #164]	@ (8006680 <HAL_TIM_IC_ConfigChannel+0x1a0>)
  tmpccmr2 |= (TIM_ICSelection << 8U);
 80065da:	022d      	lsls	r5, r5, #8
  tmpccmr2 &= ~TIM_CCMR2_CC4S;
 80065dc:	4007      	ands	r7, r0
  tmpccmr2 |= (TIM_ICSelection << 8U);
 80065de:	433d      	orrs	r5, r7
  tmpccmr2 &= ~TIM_CCMR2_IC4F;
 80065e0:	4f28      	ldr	r7, [pc, #160]	@ (8006684 <HAL_TIM_IC_ConfigChannel+0x1a4>)
  tmpccmr2 |= ((TIM_ICFilter << 12U) & TIM_CCMR2_IC4F);
 80065e2:	0724      	lsls	r4, r4, #28
  tmpccmr2 &= ~TIM_CCMR2_IC4F;
 80065e4:	403d      	ands	r5, r7
  tmpccmr2 |= ((TIM_ICFilter << 12U) & TIM_CCMR2_IC4F);
 80065e6:	0c24      	lsrs	r4, r4, #16
 80065e8:	432c      	orrs	r4, r5
  tmpccer &= ~(TIM_CCER_CC4P | TIM_CCER_CC4NP);
 80065ea:	4d29      	ldr	r5, [pc, #164]	@ (8006690 <HAL_TIM_IC_ConfigChannel+0x1b0>)
  tmpccer |= ((TIM_ICPolarity << 12U) & (TIM_CCER_CC4P | TIM_CCER_CC4NP));
 80065ec:	4640      	mov	r0, r8
  tmpccer &= ~(TIM_CCER_CC4P | TIM_CCER_CC4NP);
 80065ee:	4035      	ands	r5, r6
  tmpccer |= ((TIM_ICPolarity << 12U) & (TIM_CCER_CC4P | TIM_CCER_CC4NP));
 80065f0:	26a0      	movs	r6, #160	@ 0xa0
 80065f2:	0300      	lsls	r0, r0, #12
 80065f4:	0236      	lsls	r6, r6, #8
 80065f6:	4030      	ands	r0, r6
 80065f8:	4328      	orrs	r0, r5
  TIMx->CCMR2 = tmpccmr2;
 80065fa:	61d4      	str	r4, [r2, #28]
  TIMx->CCER = tmpccer ;
 80065fc:	6210      	str	r0, [r2, #32]
    htim->Instance->CCMR2 &= ~TIM_CCMR2_IC4PSC;
 80065fe:	69d0      	ldr	r0, [r2, #28]
 8006600:	4c21      	ldr	r4, [pc, #132]	@ (8006688 <HAL_TIM_IC_ConfigChannel+0x1a8>)
    htim->Instance->CCMR2 |= (sConfig->ICPrescaler << 8U);
 8006602:	6889      	ldr	r1, [r1, #8]
    htim->Instance->CCMR2 &= ~TIM_CCMR2_IC4PSC;
 8006604:	4020      	ands	r0, r4
 8006606:	61d0      	str	r0, [r2, #28]
    htim->Instance->CCMR2 |= (sConfig->ICPrescaler << 8U);
 8006608:	69d0      	ldr	r0, [r2, #28]
 800660a:	0209      	lsls	r1, r1, #8
 800660c:	4301      	orrs	r1, r0
 800660e:	61d1      	str	r1, [r2, #28]
  HAL_StatusTypeDef status = HAL_OK;
 8006610:	2000      	movs	r0, #0
 8006612:	e77b      	b.n	800650c <HAL_TIM_IC_ConfigChannel+0x2c>
    tmpccmr1 &= ~TIM_CCMR1_CC1S;
 8006614:	2403      	movs	r4, #3
 8006616:	4660      	mov	r0, ip
 8006618:	43a0      	bics	r0, r4
 800661a:	0004      	movs	r4, r0
    tmpccmr1 |= TIM_ICSelection;
 800661c:	4648      	mov	r0, r9
 800661e:	4320      	orrs	r0, r4
 8006620:	e792      	b.n	8006548 <HAL_TIM_IC_ConfigChannel+0x68>
    TIM_TI3_SetConfig(htim->Instance,
 8006622:	681a      	ldr	r2, [r3, #0]
                      sConfig->ICPolarity,
 8006624:	6808      	ldr	r0, [r1, #0]
  tmpccer = TIMx->CCER;
 8006626:	6a16      	ldr	r6, [r2, #32]
                      sConfig->ICPolarity,
 8006628:	4680      	mov	r8, r0
  TIMx->CCER &= ~TIM_CCER_CC3E;
 800662a:	6a14      	ldr	r4, [r2, #32]
 800662c:	4819      	ldr	r0, [pc, #100]	@ (8006694 <HAL_TIM_IC_ConfigChannel+0x1b4>)
                      sConfig->ICSelection,
 800662e:	684d      	ldr	r5, [r1, #4]
  TIMx->CCER &= ~TIM_CCER_CC3E;
 8006630:	4004      	ands	r4, r0
                      sConfig->ICFilter);
 8006632:	68cf      	ldr	r7, [r1, #12]
  TIMx->CCER &= ~TIM_CCER_CC3E;
 8006634:	6214      	str	r4, [r2, #32]
  tmpccmr2 = TIMx->CCMR2;
 8006636:	69d4      	ldr	r4, [r2, #28]
  tmpccmr2 &= ~TIM_CCMR2_CC3S;
 8006638:	3005      	adds	r0, #5
 800663a:	30ff      	adds	r0, #255	@ 0xff
 800663c:	4384      	bics	r4, r0
  tmpccmr2 |= TIM_ICSelection;
 800663e:	4325      	orrs	r5, r4
  tmpccmr2 &= ~TIM_CCMR2_IC3F;
 8006640:	24f0      	movs	r4, #240	@ 0xf0
  tmpccmr2 |= ((TIM_ICFilter << 4U) & TIM_CCMR2_IC3F);
 8006642:	013f      	lsls	r7, r7, #4
  tmpccmr2 &= ~TIM_CCMR2_IC3F;
 8006644:	43a5      	bics	r5, r4
  tmpccmr2 |= ((TIM_ICFilter << 4U) & TIM_CCMR2_IC3F);
 8006646:	340f      	adds	r4, #15
 8006648:	403c      	ands	r4, r7
 800664a:	432c      	orrs	r4, r5
  tmpccer &= ~(TIM_CCER_CC3P | TIM_CCER_CC3NP);
 800664c:	4d12      	ldr	r5, [pc, #72]	@ (8006698 <HAL_TIM_IC_ConfigChannel+0x1b8>)
  tmpccer |= ((TIM_ICPolarity << 8U) & (TIM_CCER_CC3P | TIM_CCER_CC3NP));
 800664e:	4640      	mov	r0, r8
  tmpccer &= ~(TIM_CCER_CC3P | TIM_CCER_CC3NP);
 8006650:	4035      	ands	r5, r6
  tmpccer |= ((TIM_ICPolarity << 8U) & (TIM_CCER_CC3P | TIM_CCER_CC3NP));
 8006652:	26a0      	movs	r6, #160	@ 0xa0
  TIMx->CCMR2 = tmpccmr2;
 8006654:	61d4      	str	r4, [r2, #28]
    htim->Instance->CCMR2 &= ~TIM_CCMR2_IC3PSC;
 8006656:	240c      	movs	r4, #12
  tmpccer |= ((TIM_ICPolarity << 8U) & (TIM_CCER_CC3P | TIM_CCER_CC3NP));
 8006658:	0200      	lsls	r0, r0, #8
 800665a:	0136      	lsls	r6, r6, #4
 800665c:	4030      	ands	r0, r6
 800665e:	4328      	orrs	r0, r5
  TIMx->CCER = tmpccer;
 8006660:	6210      	str	r0, [r2, #32]
    htim->Instance->CCMR2 &= ~TIM_CCMR2_IC3PSC;
 8006662:	69d0      	ldr	r0, [r2, #28]
    htim->Instance->CCMR2 |= sConfig->ICPrescaler;
 8006664:	6889      	ldr	r1, [r1, #8]
    htim->Instance->CCMR2 &= ~TIM_CCMR2_IC3PSC;
 8006666:	43a0      	bics	r0, r4
 8006668:	61d0      	str	r0, [r2, #28]
    htim->Instance->CCMR2 |= sConfig->ICPrescaler;
 800666a:	69d0      	ldr	r0, [r2, #28]
 800666c:	4301      	orrs	r1, r0
 800666e:	61d1      	str	r1, [r2, #28]
  HAL_StatusTypeDef status = HAL_OK;
 8006670:	2000      	movs	r0, #0
 8006672:	e74b      	b.n	800650c <HAL_TIM_IC_ConfigChannel+0x2c>
  __HAL_LOCK(htim);
 8006674:	2002      	movs	r0, #2
 8006676:	e74c      	b.n	8006512 <HAL_TIM_IC_ConfigChannel+0x32>
 8006678:	40012c00 	.word	0x40012c00
 800667c:	40000400 	.word	0x40000400
 8006680:	fffffcff 	.word	0xfffffcff
 8006684:	ffff0fff 	.word	0xffff0fff
 8006688:	fffff3ff 	.word	0xfffff3ff
 800668c:	ffffefff 	.word	0xffffefff
 8006690:	ffff5fff 	.word	0xffff5fff
 8006694:	fffffeff 	.word	0xfffffeff
 8006698:	fffff5ff 	.word	0xfffff5ff

0800669c <HAL_TIM_PWM_ConfigChannel>:
{
 800669c:	0003      	movs	r3, r0
  __HAL_LOCK(htim);
 800669e:	203c      	movs	r0, #60	@ 0x3c
{
 80066a0:	b5f0      	push	{r4, r5, r6, r7, lr}
  __HAL_LOCK(htim);
 80066a2:	5c1c      	ldrb	r4, [r3, r0]
 80066a4:	2c01      	cmp	r4, #1
 80066a6:	d100      	bne.n	80066aa <HAL_TIM_PWM_ConfigChannel+0xe>
 80066a8:	e170      	b.n	800698c <HAL_TIM_PWM_ConfigChannel+0x2f0>
 80066aa:	2401      	movs	r4, #1
 80066ac:	541c      	strb	r4, [r3, r0]
  switch (Channel)
 80066ae:	2a14      	cmp	r2, #20
 80066b0:	d803      	bhi.n	80066ba <HAL_TIM_PWM_ConfigChannel+0x1e>
 80066b2:	48b7      	ldr	r0, [pc, #732]	@ (8006990 <HAL_TIM_PWM_ConfigChannel+0x2f4>)
 80066b4:	0092      	lsls	r2, r2, #2
 80066b6:	5882      	ldr	r2, [r0, r2]
 80066b8:	4697      	mov	pc, r2
 80066ba:	2001      	movs	r0, #1
  __HAL_UNLOCK(htim);
 80066bc:	223c      	movs	r2, #60	@ 0x3c
 80066be:	2100      	movs	r1, #0
 80066c0:	5499      	strb	r1, [r3, r2]
}
 80066c2:	bdf0      	pop	{r4, r5, r6, r7, pc}
      TIM_OC6_SetConfig(htim->Instance, sConfig);
 80066c4:	681a      	ldr	r2, [r3, #0]
  TIMx->CCER &= ~TIM_CCER_CC6E;
 80066c6:	4db3      	ldr	r5, [pc, #716]	@ (8006994 <HAL_TIM_PWM_ConfigChannel+0x2f8>)
  tmpccer = TIMx->CCER;
 80066c8:	6a14      	ldr	r4, [r2, #32]
  TIMx->CCER &= ~TIM_CCER_CC6E;
 80066ca:	6a10      	ldr	r0, [r2, #32]
 80066cc:	4028      	ands	r0, r5
 80066ce:	6210      	str	r0, [r2, #32]
  tmpccmrx &= ~(TIM_CCMR3_OC6M);
 80066d0:	4db1      	ldr	r5, [pc, #708]	@ (8006998 <HAL_TIM_PWM_ConfigChannel+0x2fc>)
  tmpcr2 =  TIMx->CR2;
 80066d2:	6856      	ldr	r6, [r2, #4]
  tmpccmrx = TIMx->CCMR3;
 80066d4:	6d50      	ldr	r0, [r2, #84]	@ 0x54
  tmpccmrx &= ~(TIM_CCMR3_OC6M);
 80066d6:	4028      	ands	r0, r5
  tmpccmrx |= (OC_Config->OCMode << 8U);
 80066d8:	680d      	ldr	r5, [r1, #0]
 80066da:	022d      	lsls	r5, r5, #8
 80066dc:	4305      	orrs	r5, r0
  tmpccer &= (uint32_t)~TIM_CCER_CC6P;
 80066de:	48af      	ldr	r0, [pc, #700]	@ (800699c <HAL_TIM_PWM_ConfigChannel+0x300>)
 80066e0:	4004      	ands	r4, r0
  tmpccer |= (OC_Config->OCPolarity << 20U);
 80066e2:	6888      	ldr	r0, [r1, #8]
 80066e4:	0500      	lsls	r0, r0, #20
 80066e6:	4320      	orrs	r0, r4
  if (IS_TIM_BREAK_INSTANCE(TIMx))
 80066e8:	4cad      	ldr	r4, [pc, #692]	@ (80069a0 <HAL_TIM_PWM_ConfigChannel+0x304>)
 80066ea:	42a2      	cmp	r2, r4
 80066ec:	d100      	bne.n	80066f0 <HAL_TIM_PWM_ConfigChannel+0x54>
 80066ee:	e113      	b.n	8006918 <HAL_TIM_PWM_ConfigChannel+0x27c>
 80066f0:	4cac      	ldr	r4, [pc, #688]	@ (80069a4 <HAL_TIM_PWM_ConfigChannel+0x308>)
 80066f2:	42a2      	cmp	r2, r4
 80066f4:	d100      	bne.n	80066f8 <HAL_TIM_PWM_ConfigChannel+0x5c>
 80066f6:	e10f      	b.n	8006918 <HAL_TIM_PWM_ConfigChannel+0x27c>
 80066f8:	4cab      	ldr	r4, [pc, #684]	@ (80069a8 <HAL_TIM_PWM_ConfigChannel+0x30c>)
 80066fa:	42a2      	cmp	r2, r4
 80066fc:	d100      	bne.n	8006700 <HAL_TIM_PWM_ConfigChannel+0x64>
 80066fe:	e10b      	b.n	8006918 <HAL_TIM_PWM_ConfigChannel+0x27c>
  TIMx->CCR6 = OC_Config->Pulse;
 8006700:	684c      	ldr	r4, [r1, #4]
  TIMx->CR2 = tmpcr2;
 8006702:	6056      	str	r6, [r2, #4]
  TIMx->CCMR3 = tmpccmrx;
 8006704:	6555      	str	r5, [r2, #84]	@ 0x54
  TIMx->CCR6 = OC_Config->Pulse;
 8006706:	65d4      	str	r4, [r2, #92]	@ 0x5c
  TIMx->CCER = tmpccer;
 8006708:	6210      	str	r0, [r2, #32]
      htim->Instance->CCMR3 |= TIM_CCMR3_OC6PE;
 800670a:	2080      	movs	r0, #128	@ 0x80
 800670c:	6d54      	ldr	r4, [r2, #84]	@ 0x54
 800670e:	0100      	lsls	r0, r0, #4
 8006710:	4320      	orrs	r0, r4
 8006712:	6550      	str	r0, [r2, #84]	@ 0x54
      htim->Instance->CCMR3 &= ~TIM_CCMR3_OC6FE;
 8006714:	6d50      	ldr	r0, [r2, #84]	@ 0x54
 8006716:	4ca5      	ldr	r4, [pc, #660]	@ (80069ac <HAL_TIM_PWM_ConfigChannel+0x310>)
      htim->Instance->CCMR3 |= sConfig->OCFastMode << 8U;
 8006718:	6909      	ldr	r1, [r1, #16]
      htim->Instance->CCMR3 &= ~TIM_CCMR3_OC6FE;
 800671a:	4020      	ands	r0, r4
 800671c:	6550      	str	r0, [r2, #84]	@ 0x54
      htim->Instance->CCMR3 |= sConfig->OCFastMode << 8U;
 800671e:	6d50      	ldr	r0, [r2, #84]	@ 0x54
 8006720:	0209      	lsls	r1, r1, #8
 8006722:	4301      	orrs	r1, r0
 8006724:	6551      	str	r1, [r2, #84]	@ 0x54
  HAL_StatusTypeDef status = HAL_OK;
 8006726:	2000      	movs	r0, #0
 8006728:	e7c8      	b.n	80066bc <HAL_TIM_PWM_ConfigChannel+0x20>
  TIMx->CCER &= ~TIM_CCER_CC1E;
 800672a:	2501      	movs	r5, #1
      TIM_OC1_SetConfig(htim->Instance, sConfig);
 800672c:	681a      	ldr	r2, [r3, #0]
  tmpccer = TIMx->CCER;
 800672e:	6a10      	ldr	r0, [r2, #32]
  TIMx->CCER &= ~TIM_CCER_CC1E;
 8006730:	6a14      	ldr	r4, [r2, #32]
 8006732:	43ac      	bics	r4, r5
 8006734:	6214      	str	r4, [r2, #32]
  tmpccmrx &= ~TIM_CCMR1_CC1S;
 8006736:	4d9e      	ldr	r5, [pc, #632]	@ (80069b0 <HAL_TIM_PWM_ConfigChannel+0x314>)
  tmpcr2 =  TIMx->CR2;
 8006738:	6856      	ldr	r6, [r2, #4]
  tmpccmrx = TIMx->CCMR1;
 800673a:	6994      	ldr	r4, [r2, #24]
  tmpccmrx &= ~TIM_CCMR1_CC1S;
 800673c:	402c      	ands	r4, r5
  tmpccmrx |= OC_Config->OCMode;
 800673e:	680d      	ldr	r5, [r1, #0]
 8006740:	432c      	orrs	r4, r5
  tmpccer &= ~TIM_CCER_CC1P;
 8006742:	2502      	movs	r5, #2
 8006744:	43a8      	bics	r0, r5
  tmpccer |= OC_Config->OCPolarity;
 8006746:	688d      	ldr	r5, [r1, #8]
 8006748:	4328      	orrs	r0, r5
  if (IS_TIM_CCXN_INSTANCE(TIMx, TIM_CHANNEL_1))
 800674a:	4d95      	ldr	r5, [pc, #596]	@ (80069a0 <HAL_TIM_PWM_ConfigChannel+0x304>)
 800674c:	42aa      	cmp	r2, r5
 800674e:	d100      	bne.n	8006752 <HAL_TIM_PWM_ConfigChannel+0xb6>
 8006750:	e10f      	b.n	8006972 <HAL_TIM_PWM_ConfigChannel+0x2d6>
 8006752:	4d94      	ldr	r5, [pc, #592]	@ (80069a4 <HAL_TIM_PWM_ConfigChannel+0x308>)
 8006754:	42aa      	cmp	r2, r5
 8006756:	d100      	bne.n	800675a <HAL_TIM_PWM_ConfigChannel+0xbe>
 8006758:	e10b      	b.n	8006972 <HAL_TIM_PWM_ConfigChannel+0x2d6>
 800675a:	4d93      	ldr	r5, [pc, #588]	@ (80069a8 <HAL_TIM_PWM_ConfigChannel+0x30c>)
 800675c:	42aa      	cmp	r2, r5
 800675e:	d100      	bne.n	8006762 <HAL_TIM_PWM_ConfigChannel+0xc6>
 8006760:	e107      	b.n	8006972 <HAL_TIM_PWM_ConfigChannel+0x2d6>
  TIMx->CR2 = tmpcr2;
 8006762:	6056      	str	r6, [r2, #4]
  TIMx->CCMR1 = tmpccmrx;
 8006764:	6194      	str	r4, [r2, #24]
  TIMx->CCR1 = OC_Config->Pulse;
 8006766:	684c      	ldr	r4, [r1, #4]
      htim->Instance->CCMR1 |= sConfig->OCFastMode;
 8006768:	6909      	ldr	r1, [r1, #16]
  TIMx->CCR1 = OC_Config->Pulse;
 800676a:	6354      	str	r4, [r2, #52]	@ 0x34
      htim->Instance->CCMR1 |= TIM_CCMR1_OC1PE;
 800676c:	2408      	movs	r4, #8
  TIMx->CCER = tmpccer;
 800676e:	6210      	str	r0, [r2, #32]
      htim->Instance->CCMR1 |= TIM_CCMR1_OC1PE;
 8006770:	6990      	ldr	r0, [r2, #24]
 8006772:	4320      	orrs	r0, r4
 8006774:	6190      	str	r0, [r2, #24]
      htim->Instance->CCMR1 &= ~TIM_CCMR1_OC1FE;
 8006776:	6990      	ldr	r0, [r2, #24]
 8006778:	3c04      	subs	r4, #4
 800677a:	43a0      	bics	r0, r4
 800677c:	6190      	str	r0, [r2, #24]
      htim->Instance->CCMR1 |= sConfig->OCFastMode;
 800677e:	6990      	ldr	r0, [r2, #24]
 8006780:	4301      	orrs	r1, r0
 8006782:	6191      	str	r1, [r2, #24]
  HAL_StatusTypeDef status = HAL_OK;
 8006784:	2000      	movs	r0, #0
 8006786:	e799      	b.n	80066bc <HAL_TIM_PWM_ConfigChannel+0x20>
  TIMx->CCER &= ~TIM_CCER_CC2E;
 8006788:	2510      	movs	r5, #16
      TIM_OC2_SetConfig(htim->Instance, sConfig);
 800678a:	681a      	ldr	r2, [r3, #0]
  tmpccer = TIMx->CCER;
 800678c:	6a10      	ldr	r0, [r2, #32]
  TIMx->CCER &= ~TIM_CCER_CC2E;
 800678e:	6a14      	ldr	r4, [r2, #32]
 8006790:	43ac      	bics	r4, r5
 8006792:	6214      	str	r4, [r2, #32]
  tmpccmrx &= ~TIM_CCMR1_CC2S;
 8006794:	4d87      	ldr	r5, [pc, #540]	@ (80069b4 <HAL_TIM_PWM_ConfigChannel+0x318>)
  tmpcr2 =  TIMx->CR2;
 8006796:	6857      	ldr	r7, [r2, #4]
  tmpccmrx = TIMx->CCMR1;
 8006798:	6994      	ldr	r4, [r2, #24]
  tmpccmrx &= ~TIM_CCMR1_CC2S;
 800679a:	402c      	ands	r4, r5
  tmpccmrx |= (OC_Config->OCMode << 8U);
 800679c:	680d      	ldr	r5, [r1, #0]
 800679e:	022d      	lsls	r5, r5, #8
 80067a0:	4325      	orrs	r5, r4
  tmpccer &= ~TIM_CCER_CC2P;
 80067a2:	2420      	movs	r4, #32
 80067a4:	43a0      	bics	r0, r4
  tmpccer |= (OC_Config->OCPolarity << 4U);
 80067a6:	688c      	ldr	r4, [r1, #8]
 80067a8:	0124      	lsls	r4, r4, #4
 80067aa:	4304      	orrs	r4, r0
  if (IS_TIM_CCXN_INSTANCE(TIMx, TIM_CHANNEL_2))
 80067ac:	487c      	ldr	r0, [pc, #496]	@ (80069a0 <HAL_TIM_PWM_ConfigChannel+0x304>)
 80067ae:	4282      	cmp	r2, r0
 80067b0:	d100      	bne.n	80067b4 <HAL_TIM_PWM_ConfigChannel+0x118>
 80067b2:	e0cf      	b.n	8006954 <HAL_TIM_PWM_ConfigChannel+0x2b8>
  if (IS_TIM_BREAK_INSTANCE(TIMx))
 80067b4:	487b      	ldr	r0, [pc, #492]	@ (80069a4 <HAL_TIM_PWM_ConfigChannel+0x308>)
 80067b6:	4282      	cmp	r2, r0
 80067b8:	d100      	bne.n	80067bc <HAL_TIM_PWM_ConfigChannel+0x120>
 80067ba:	e0d2      	b.n	8006962 <HAL_TIM_PWM_ConfigChannel+0x2c6>
 80067bc:	487a      	ldr	r0, [pc, #488]	@ (80069a8 <HAL_TIM_PWM_ConfigChannel+0x30c>)
 80067be:	4282      	cmp	r2, r0
 80067c0:	d100      	bne.n	80067c4 <HAL_TIM_PWM_ConfigChannel+0x128>
 80067c2:	e0ce      	b.n	8006962 <HAL_TIM_PWM_ConfigChannel+0x2c6>
  TIMx->CCR2 = OC_Config->Pulse;
 80067c4:	6848      	ldr	r0, [r1, #4]
  TIMx->CR2 = tmpcr2;
 80067c6:	6057      	str	r7, [r2, #4]
  TIMx->CCMR1 = tmpccmrx;
 80067c8:	6195      	str	r5, [r2, #24]
  TIMx->CCR2 = OC_Config->Pulse;
 80067ca:	6390      	str	r0, [r2, #56]	@ 0x38
      htim->Instance->CCMR1 |= TIM_CCMR1_OC2PE;
 80067cc:	2080      	movs	r0, #128	@ 0x80
  TIMx->CCER = tmpccer;
 80067ce:	6214      	str	r4, [r2, #32]
      htim->Instance->CCMR1 |= TIM_CCMR1_OC2PE;
 80067d0:	6994      	ldr	r4, [r2, #24]
 80067d2:	0100      	lsls	r0, r0, #4
 80067d4:	4320      	orrs	r0, r4
 80067d6:	6190      	str	r0, [r2, #24]
      htim->Instance->CCMR1 &= ~TIM_CCMR1_OC2FE;
 80067d8:	6990      	ldr	r0, [r2, #24]
 80067da:	4c74      	ldr	r4, [pc, #464]	@ (80069ac <HAL_TIM_PWM_ConfigChannel+0x310>)
      htim->Instance->CCMR1 |= sConfig->OCFastMode << 8U;
 80067dc:	6909      	ldr	r1, [r1, #16]
      htim->Instance->CCMR1 &= ~TIM_CCMR1_OC2FE;
 80067de:	4020      	ands	r0, r4
 80067e0:	6190      	str	r0, [r2, #24]
      htim->Instance->CCMR1 |= sConfig->OCFastMode << 8U;
 80067e2:	6990      	ldr	r0, [r2, #24]
 80067e4:	0209      	lsls	r1, r1, #8
 80067e6:	4301      	orrs	r1, r0
 80067e8:	6191      	str	r1, [r2, #24]
  HAL_StatusTypeDef status = HAL_OK;
 80067ea:	2000      	movs	r0, #0
 80067ec:	e766      	b.n	80066bc <HAL_TIM_PWM_ConfigChannel+0x20>
      TIM_OC3_SetConfig(htim->Instance, sConfig);
 80067ee:	681a      	ldr	r2, [r3, #0]
  TIMx->CCER &= ~TIM_CCER_CC3E;
 80067f0:	4d71      	ldr	r5, [pc, #452]	@ (80069b8 <HAL_TIM_PWM_ConfigChannel+0x31c>)
  tmpccer = TIMx->CCER;
 80067f2:	6a10      	ldr	r0, [r2, #32]
  TIMx->CCER &= ~TIM_CCER_CC3E;
 80067f4:	6a14      	ldr	r4, [r2, #32]
  tmpccmrx |= OC_Config->OCMode;
 80067f6:	680f      	ldr	r7, [r1, #0]
  TIMx->CCER &= ~TIM_CCER_CC3E;
 80067f8:	402c      	ands	r4, r5
 80067fa:	6214      	str	r4, [r2, #32]
  tmpcr2 =  TIMx->CR2;
 80067fc:	6854      	ldr	r4, [r2, #4]
  tmpccmrx &= ~TIM_CCMR2_CC3S;
 80067fe:	4d6c      	ldr	r5, [pc, #432]	@ (80069b0 <HAL_TIM_PWM_ConfigChannel+0x314>)
  tmpcr2 =  TIMx->CR2;
 8006800:	46a4      	mov	ip, r4
  tmpccmrx = TIMx->CCMR2;
 8006802:	69d4      	ldr	r4, [r2, #28]
  tmpccer |= (OC_Config->OCPolarity << 8U);
 8006804:	688e      	ldr	r6, [r1, #8]
  tmpccmrx &= ~TIM_CCMR2_CC3S;
 8006806:	402c      	ands	r4, r5
  tmpccmrx |= OC_Config->OCMode;
 8006808:	4327      	orrs	r7, r4
  tmpccer &= ~TIM_CCER_CC3P;
 800680a:	4c6c      	ldr	r4, [pc, #432]	@ (80069bc <HAL_TIM_PWM_ConfigChannel+0x320>)
  tmpccer |= (OC_Config->OCPolarity << 8U);
 800680c:	0236      	lsls	r6, r6, #8
  tmpccer &= ~TIM_CCER_CC3P;
 800680e:	4020      	ands	r0, r4
  tmpccer |= (OC_Config->OCPolarity << 8U);
 8006810:	4306      	orrs	r6, r0
  if (IS_TIM_CCXN_INSTANCE(TIMx, TIM_CHANNEL_3))
 8006812:	4863      	ldr	r0, [pc, #396]	@ (80069a0 <HAL_TIM_PWM_ConfigChannel+0x304>)
 8006814:	4282      	cmp	r2, r0
 8006816:	d100      	bne.n	800681a <HAL_TIM_PWM_ConfigChannel+0x17e>
 8006818:	e08a      	b.n	8006930 <HAL_TIM_PWM_ConfigChannel+0x294>
  if (IS_TIM_BREAK_INSTANCE(TIMx))
 800681a:	4862      	ldr	r0, [pc, #392]	@ (80069a4 <HAL_TIM_PWM_ConfigChannel+0x308>)
 800681c:	4282      	cmp	r2, r0
 800681e:	d100      	bne.n	8006822 <HAL_TIM_PWM_ConfigChannel+0x186>
 8006820:	e08d      	b.n	800693e <HAL_TIM_PWM_ConfigChannel+0x2a2>
 8006822:	4861      	ldr	r0, [pc, #388]	@ (80069a8 <HAL_TIM_PWM_ConfigChannel+0x30c>)
 8006824:	4282      	cmp	r2, r0
 8006826:	d100      	bne.n	800682a <HAL_TIM_PWM_ConfigChannel+0x18e>
 8006828:	e089      	b.n	800693e <HAL_TIM_PWM_ConfigChannel+0x2a2>
  TIMx->CR2 = tmpcr2;
 800682a:	4660      	mov	r0, ip
      htim->Instance->CCMR2 |= TIM_CCMR2_OC3PE;
 800682c:	2408      	movs	r4, #8
  TIMx->CR2 = tmpcr2;
 800682e:	6050      	str	r0, [r2, #4]
  TIMx->CCR3 = OC_Config->Pulse;
 8006830:	6848      	ldr	r0, [r1, #4]
  TIMx->CCMR2 = tmpccmrx;
 8006832:	61d7      	str	r7, [r2, #28]
  TIMx->CCR3 = OC_Config->Pulse;
 8006834:	63d0      	str	r0, [r2, #60]	@ 0x3c
  TIMx->CCER = tmpccer;
 8006836:	6216      	str	r6, [r2, #32]
      htim->Instance->CCMR2 |= TIM_CCMR2_OC3PE;
 8006838:	69d0      	ldr	r0, [r2, #28]
      htim->Instance->CCMR2 |= sConfig->OCFastMode;
 800683a:	6909      	ldr	r1, [r1, #16]
      htim->Instance->CCMR2 |= TIM_CCMR2_OC3PE;
 800683c:	4320      	orrs	r0, r4
 800683e:	61d0      	str	r0, [r2, #28]
      htim->Instance->CCMR2 &= ~TIM_CCMR2_OC3FE;
 8006840:	69d0      	ldr	r0, [r2, #28]
 8006842:	3c04      	subs	r4, #4
 8006844:	43a0      	bics	r0, r4
 8006846:	61d0      	str	r0, [r2, #28]
      htim->Instance->CCMR2 |= sConfig->OCFastMode;
 8006848:	69d0      	ldr	r0, [r2, #28]
 800684a:	4301      	orrs	r1, r0
 800684c:	61d1      	str	r1, [r2, #28]
  HAL_StatusTypeDef status = HAL_OK;
 800684e:	2000      	movs	r0, #0
 8006850:	e734      	b.n	80066bc <HAL_TIM_PWM_ConfigChannel+0x20>
      TIM_OC4_SetConfig(htim->Instance, sConfig);
 8006852:	681a      	ldr	r2, [r3, #0]
  TIMx->CCER &= ~TIM_CCER_CC4E;
 8006854:	4d5a      	ldr	r5, [pc, #360]	@ (80069c0 <HAL_TIM_PWM_ConfigChannel+0x324>)
  tmpccer = TIMx->CCER;
 8006856:	6a14      	ldr	r4, [r2, #32]
  TIMx->CCER &= ~TIM_CCER_CC4E;
 8006858:	6a10      	ldr	r0, [r2, #32]
 800685a:	4028      	ands	r0, r5
 800685c:	6210      	str	r0, [r2, #32]
  tmpccmrx &= ~TIM_CCMR2_CC4S;
 800685e:	4d55      	ldr	r5, [pc, #340]	@ (80069b4 <HAL_TIM_PWM_ConfigChannel+0x318>)
  tmpcr2 =  TIMx->CR2;
 8006860:	6856      	ldr	r6, [r2, #4]
  tmpccmrx = TIMx->CCMR2;
 8006862:	69d0      	ldr	r0, [r2, #28]
  tmpccmrx &= ~TIM_CCMR2_CC4S;
 8006864:	4028      	ands	r0, r5
  tmpccmrx |= (OC_Config->OCMode << 8U);
 8006866:	680d      	ldr	r5, [r1, #0]
 8006868:	022d      	lsls	r5, r5, #8
 800686a:	4305      	orrs	r5, r0
  tmpccer &= ~TIM_CCER_CC4P;
 800686c:	4855      	ldr	r0, [pc, #340]	@ (80069c4 <HAL_TIM_PWM_ConfigChannel+0x328>)
 800686e:	4004      	ands	r4, r0
  tmpccer |= (OC_Config->OCPolarity << 12U);
 8006870:	6888      	ldr	r0, [r1, #8]
 8006872:	0300      	lsls	r0, r0, #12
 8006874:	4320      	orrs	r0, r4
  if (IS_TIM_BREAK_INSTANCE(TIMx))
 8006876:	4c4a      	ldr	r4, [pc, #296]	@ (80069a0 <HAL_TIM_PWM_ConfigChannel+0x304>)
 8006878:	42a2      	cmp	r2, r4
 800687a:	d053      	beq.n	8006924 <HAL_TIM_PWM_ConfigChannel+0x288>
 800687c:	4c49      	ldr	r4, [pc, #292]	@ (80069a4 <HAL_TIM_PWM_ConfigChannel+0x308>)
 800687e:	42a2      	cmp	r2, r4
 8006880:	d050      	beq.n	8006924 <HAL_TIM_PWM_ConfigChannel+0x288>
 8006882:	4c49      	ldr	r4, [pc, #292]	@ (80069a8 <HAL_TIM_PWM_ConfigChannel+0x30c>)
 8006884:	42a2      	cmp	r2, r4
 8006886:	d04d      	beq.n	8006924 <HAL_TIM_PWM_ConfigChannel+0x288>
  TIMx->CCR4 = OC_Config->Pulse;
 8006888:	684c      	ldr	r4, [r1, #4]
  TIMx->CR2 = tmpcr2;
 800688a:	6056      	str	r6, [r2, #4]
  TIMx->CCMR2 = tmpccmrx;
 800688c:	61d5      	str	r5, [r2, #28]
  TIMx->CCR4 = OC_Config->Pulse;
 800688e:	6414      	str	r4, [r2, #64]	@ 0x40
  TIMx->CCER = tmpccer;
 8006890:	6210      	str	r0, [r2, #32]
      htim->Instance->CCMR2 |= TIM_CCMR2_OC4PE;
 8006892:	2080      	movs	r0, #128	@ 0x80
 8006894:	69d4      	ldr	r4, [r2, #28]
 8006896:	0100      	lsls	r0, r0, #4
 8006898:	4320      	orrs	r0, r4
 800689a:	61d0      	str	r0, [r2, #28]
      htim->Instance->CCMR2 &= ~TIM_CCMR2_OC4FE;
 800689c:	69d0      	ldr	r0, [r2, #28]
 800689e:	4c43      	ldr	r4, [pc, #268]	@ (80069ac <HAL_TIM_PWM_ConfigChannel+0x310>)
      htim->Instance->CCMR2 |= sConfig->OCFastMode << 8U;
 80068a0:	6909      	ldr	r1, [r1, #16]
      htim->Instance->CCMR2 &= ~TIM_CCMR2_OC4FE;
 80068a2:	4020      	ands	r0, r4
 80068a4:	61d0      	str	r0, [r2, #28]
      htim->Instance->CCMR2 |= sConfig->OCFastMode << 8U;
 80068a6:	69d0      	ldr	r0, [r2, #28]
 80068a8:	0209      	lsls	r1, r1, #8
 80068aa:	4301      	orrs	r1, r0
 80068ac:	61d1      	str	r1, [r2, #28]
  HAL_StatusTypeDef status = HAL_OK;
 80068ae:	2000      	movs	r0, #0
 80068b0:	e704      	b.n	80066bc <HAL_TIM_PWM_ConfigChannel+0x20>
      TIM_OC5_SetConfig(htim->Instance, sConfig);
 80068b2:	681a      	ldr	r2, [r3, #0]
  TIMx->CCER &= ~TIM_CCER_CC5E;
 80068b4:	4d44      	ldr	r5, [pc, #272]	@ (80069c8 <HAL_TIM_PWM_ConfigChannel+0x32c>)
  tmpccer = TIMx->CCER;
 80068b6:	6a14      	ldr	r4, [r2, #32]
  TIMx->CCER &= ~TIM_CCER_CC5E;
 80068b8:	6a10      	ldr	r0, [r2, #32]
  tmpccmrx &= ~(TIM_CCMR3_OC5M);
 80068ba:	4e44      	ldr	r6, [pc, #272]	@ (80069cc <HAL_TIM_PWM_ConfigChannel+0x330>)
  TIMx->CCER &= ~TIM_CCER_CC5E;
 80068bc:	4028      	ands	r0, r5
 80068be:	6210      	str	r0, [r2, #32]
  tmpcr2 =  TIMx->CR2;
 80068c0:	6855      	ldr	r5, [r2, #4]
  tmpccmrx = TIMx->CCMR3;
 80068c2:	6d50      	ldr	r0, [r2, #84]	@ 0x54
  tmpccmrx &= ~(TIM_CCMR3_OC5M);
 80068c4:	4030      	ands	r0, r6
  tmpccmrx |= OC_Config->OCMode;
 80068c6:	680e      	ldr	r6, [r1, #0]
 80068c8:	4306      	orrs	r6, r0
  tmpccer &= ~TIM_CCER_CC5P;
 80068ca:	4841      	ldr	r0, [pc, #260]	@ (80069d0 <HAL_TIM_PWM_ConfigChannel+0x334>)
 80068cc:	4004      	ands	r4, r0
  tmpccer |= (OC_Config->OCPolarity << 16U);
 80068ce:	6888      	ldr	r0, [r1, #8]
 80068d0:	0400      	lsls	r0, r0, #16
 80068d2:	4320      	orrs	r0, r4
  if (IS_TIM_BREAK_INSTANCE(TIMx))
 80068d4:	4c32      	ldr	r4, [pc, #200]	@ (80069a0 <HAL_TIM_PWM_ConfigChannel+0x304>)
 80068d6:	42a2      	cmp	r2, r4
 80068d8:	d018      	beq.n	800690c <HAL_TIM_PWM_ConfigChannel+0x270>
 80068da:	4c32      	ldr	r4, [pc, #200]	@ (80069a4 <HAL_TIM_PWM_ConfigChannel+0x308>)
 80068dc:	42a2      	cmp	r2, r4
 80068de:	d015      	beq.n	800690c <HAL_TIM_PWM_ConfigChannel+0x270>
 80068e0:	4c31      	ldr	r4, [pc, #196]	@ (80069a8 <HAL_TIM_PWM_ConfigChannel+0x30c>)
 80068e2:	42a2      	cmp	r2, r4
 80068e4:	d012      	beq.n	800690c <HAL_TIM_PWM_ConfigChannel+0x270>
  TIMx->CCR5 = OC_Config->Pulse;
 80068e6:	684c      	ldr	r4, [r1, #4]
  TIMx->CR2 = tmpcr2;
 80068e8:	6055      	str	r5, [r2, #4]
  TIMx->CCMR3 = tmpccmrx;
 80068ea:	6556      	str	r6, [r2, #84]	@ 0x54
  TIMx->CCR5 = OC_Config->Pulse;
 80068ec:	6594      	str	r4, [r2, #88]	@ 0x58
      htim->Instance->CCMR3 |= TIM_CCMR3_OC5PE;
 80068ee:	2408      	movs	r4, #8
  TIMx->CCER = tmpccer;
 80068f0:	6210      	str	r0, [r2, #32]
      htim->Instance->CCMR3 |= TIM_CCMR3_OC5PE;
 80068f2:	6d50      	ldr	r0, [r2, #84]	@ 0x54
      htim->Instance->CCMR3 |= sConfig->OCFastMode;
 80068f4:	6909      	ldr	r1, [r1, #16]
      htim->Instance->CCMR3 |= TIM_CCMR3_OC5PE;
 80068f6:	4320      	orrs	r0, r4
 80068f8:	6550      	str	r0, [r2, #84]	@ 0x54
      htim->Instance->CCMR3 &= ~TIM_CCMR3_OC5FE;
 80068fa:	6d50      	ldr	r0, [r2, #84]	@ 0x54
 80068fc:	3c04      	subs	r4, #4
 80068fe:	43a0      	bics	r0, r4
 8006900:	6550      	str	r0, [r2, #84]	@ 0x54
      htim->Instance->CCMR3 |= sConfig->OCFastMode;
 8006902:	6d50      	ldr	r0, [r2, #84]	@ 0x54
 8006904:	4301      	orrs	r1, r0
 8006906:	6551      	str	r1, [r2, #84]	@ 0x54
  HAL_StatusTypeDef status = HAL_OK;
 8006908:	2000      	movs	r0, #0
 800690a:	e6d7      	b.n	80066bc <HAL_TIM_PWM_ConfigChannel+0x20>
    tmpcr2 &= ~TIM_CR2_OIS5;
 800690c:	4c2e      	ldr	r4, [pc, #184]	@ (80069c8 <HAL_TIM_PWM_ConfigChannel+0x32c>)
 800690e:	402c      	ands	r4, r5
    tmpcr2 |= (OC_Config->OCIdleState << 8U);
 8006910:	694d      	ldr	r5, [r1, #20]
 8006912:	022d      	lsls	r5, r5, #8
 8006914:	4325      	orrs	r5, r4
 8006916:	e7e6      	b.n	80068e6 <HAL_TIM_PWM_ConfigChannel+0x24a>
    tmpcr2 &= ~TIM_CR2_OIS6;
 8006918:	4c2e      	ldr	r4, [pc, #184]	@ (80069d4 <HAL_TIM_PWM_ConfigChannel+0x338>)
 800691a:	4034      	ands	r4, r6
    tmpcr2 |= (OC_Config->OCIdleState << 10U);
 800691c:	694e      	ldr	r6, [r1, #20]
 800691e:	02b6      	lsls	r6, r6, #10
 8006920:	4326      	orrs	r6, r4
 8006922:	e6ed      	b.n	8006700 <HAL_TIM_PWM_ConfigChannel+0x64>
    tmpcr2 &= ~TIM_CR2_OIS4;
 8006924:	4c2c      	ldr	r4, [pc, #176]	@ (80069d8 <HAL_TIM_PWM_ConfigChannel+0x33c>)
 8006926:	4034      	ands	r4, r6
    tmpcr2 |= (OC_Config->OCIdleState << 6U);
 8006928:	694e      	ldr	r6, [r1, #20]
 800692a:	01b6      	lsls	r6, r6, #6
 800692c:	4326      	orrs	r6, r4
 800692e:	e7ab      	b.n	8006888 <HAL_TIM_PWM_ConfigChannel+0x1ec>
    tmpccer &= ~TIM_CCER_CC3NP;
 8006930:	482a      	ldr	r0, [pc, #168]	@ (80069dc <HAL_TIM_PWM_ConfigChannel+0x340>)
    tmpccer |= (OC_Config->OCNPolarity << 8U);
 8006932:	68cc      	ldr	r4, [r1, #12]
    tmpccer &= ~TIM_CCER_CC3NP;
 8006934:	4030      	ands	r0, r6
    tmpccer |= (OC_Config->OCNPolarity << 8U);
 8006936:	0224      	lsls	r4, r4, #8
    tmpccer &= ~TIM_CCER_CC3NE;
 8006938:	4e1c      	ldr	r6, [pc, #112]	@ (80069ac <HAL_TIM_PWM_ConfigChannel+0x310>)
    tmpccer |= (OC_Config->OCNPolarity << 8U);
 800693a:	4304      	orrs	r4, r0
    tmpccer &= ~TIM_CCER_CC3NE;
 800693c:	4026      	ands	r6, r4
    tmpcr2 &= ~TIM_CR2_OIS3N;
 800693e:	4660      	mov	r0, ip
 8006940:	4d27      	ldr	r5, [pc, #156]	@ (80069e0 <HAL_TIM_PWM_ConfigChannel+0x344>)
    tmpcr2 |= (OC_Config->OCNIdleState << 4U);
 8006942:	698c      	ldr	r4, [r1, #24]
    tmpcr2 &= ~TIM_CR2_OIS3N;
 8006944:	4028      	ands	r0, r5
 8006946:	0005      	movs	r5, r0
    tmpcr2 |= (OC_Config->OCNIdleState << 4U);
 8006948:	6948      	ldr	r0, [r1, #20]
 800694a:	4320      	orrs	r0, r4
 800694c:	0100      	lsls	r0, r0, #4
 800694e:	4328      	orrs	r0, r5
 8006950:	4684      	mov	ip, r0
 8006952:	e76a      	b.n	800682a <HAL_TIM_PWM_ConfigChannel+0x18e>
    tmpccer &= ~TIM_CCER_CC2NP;
 8006954:	2080      	movs	r0, #128	@ 0x80
 8006956:	4384      	bics	r4, r0
    tmpccer |= (OC_Config->OCNPolarity << 4U);
 8006958:	68c8      	ldr	r0, [r1, #12]
 800695a:	0100      	lsls	r0, r0, #4
 800695c:	4304      	orrs	r4, r0
    tmpccer &= ~TIM_CCER_CC2NE;
 800695e:	2040      	movs	r0, #64	@ 0x40
 8006960:	4384      	bics	r4, r0
    tmpcr2 &= ~TIM_CR2_OIS2N;
 8006962:	4e20      	ldr	r6, [pc, #128]	@ (80069e4 <HAL_TIM_PWM_ConfigChannel+0x348>)
    tmpcr2 |= (OC_Config->OCNIdleState << 2U);
 8006964:	6948      	ldr	r0, [r1, #20]
    tmpcr2 &= ~TIM_CR2_OIS2N;
 8006966:	403e      	ands	r6, r7
    tmpcr2 |= (OC_Config->OCNIdleState << 2U);
 8006968:	698f      	ldr	r7, [r1, #24]
 800696a:	4307      	orrs	r7, r0
 800696c:	00bf      	lsls	r7, r7, #2
 800696e:	4337      	orrs	r7, r6
 8006970:	e728      	b.n	80067c4 <HAL_TIM_PWM_ConfigChannel+0x128>
    tmpccer &= ~TIM_CCER_CC1NP;
 8006972:	2508      	movs	r5, #8
 8006974:	43a8      	bics	r0, r5
    tmpccer |= OC_Config->OCNPolarity;
 8006976:	68cd      	ldr	r5, [r1, #12]
    tmpcr2 |= OC_Config->OCNIdleState;
 8006978:	698f      	ldr	r7, [r1, #24]
    tmpccer |= OC_Config->OCNPolarity;
 800697a:	4328      	orrs	r0, r5
    tmpccer &= ~TIM_CCER_CC1NE;
 800697c:	2504      	movs	r5, #4
 800697e:	43a8      	bics	r0, r5
    tmpcr2 &= ~TIM_CR2_OIS1N;
 8006980:	4d19      	ldr	r5, [pc, #100]	@ (80069e8 <HAL_TIM_PWM_ConfigChannel+0x34c>)
 8006982:	4035      	ands	r5, r6
    tmpcr2 |= OC_Config->OCNIdleState;
 8006984:	694e      	ldr	r6, [r1, #20]
 8006986:	433e      	orrs	r6, r7
 8006988:	432e      	orrs	r6, r5
 800698a:	e6ea      	b.n	8006762 <HAL_TIM_PWM_ConfigChannel+0xc6>
  __HAL_LOCK(htim);
 800698c:	2002      	movs	r0, #2
 800698e:	e698      	b.n	80066c2 <HAL_TIM_PWM_ConfigChannel+0x26>
 8006990:	0800863c 	.word	0x0800863c
 8006994:	ffefffff 	.word	0xffefffff
 8006998:	feff8fff 	.word	0xfeff8fff
 800699c:	ffdfffff 	.word	0xffdfffff
 80069a0:	40012c00 	.word	0x40012c00
 80069a4:	40014400 	.word	0x40014400
 80069a8:	40014800 	.word	0x40014800
 80069ac:	fffffbff 	.word	0xfffffbff
 80069b0:	fffeff8c 	.word	0xfffeff8c
 80069b4:	feff8cff 	.word	0xfeff8cff
 80069b8:	fffffeff 	.word	0xfffffeff
 80069bc:	fffffdff 	.word	0xfffffdff
 80069c0:	ffffefff 	.word	0xffffefff
 80069c4:	ffffdfff 	.word	0xffffdfff
 80069c8:	fffeffff 	.word	0xfffeffff
 80069cc:	fffeff8f 	.word	0xfffeff8f
 80069d0:	fffdffff 	.word	0xfffdffff
 80069d4:	fffbffff 	.word	0xfffbffff
 80069d8:	ffffbfff 	.word	0xffffbfff
 80069dc:	fffff7ff 	.word	0xfffff7ff
 80069e0:	ffffcfff 	.word	0xffffcfff
 80069e4:	fffff3ff 	.word	0xfffff3ff
 80069e8:	fffffcff 	.word	0xfffffcff

080069ec <HAL_TIM_ConfigClockSource>:
  __HAL_LOCK(htim);
 80069ec:	223c      	movs	r2, #60	@ 0x3c
{
 80069ee:	b570      	push	{r4, r5, r6, lr}
 80069f0:	0003      	movs	r3, r0
  __HAL_LOCK(htim);
 80069f2:	5c80      	ldrb	r0, [r0, r2]
 80069f4:	2801      	cmp	r0, #1
 80069f6:	d100      	bne.n	80069fa <HAL_TIM_ConfigClockSource+0xe>
 80069f8:	e06f      	b.n	8006ada <HAL_TIM_ConfigClockSource+0xee>
 80069fa:	2401      	movs	r4, #1
  htim->State = HAL_TIM_STATE_BUSY;
 80069fc:	2002      	movs	r0, #2
  __HAL_LOCK(htim);
 80069fe:	549c      	strb	r4, [r3, r2]
  htim->State = HAL_TIM_STATE_BUSY;
 8006a00:	3201      	adds	r2, #1
 8006a02:	5498      	strb	r0, [r3, r2]
  tmpsmcr = htim->Instance->SMCR;
 8006a04:	681a      	ldr	r2, [r3, #0]
  tmpsmcr &= ~(TIM_SMCR_ETF | TIM_SMCR_ETPS | TIM_SMCR_ECE | TIM_SMCR_ETP);
 8006a06:	4d4e      	ldr	r5, [pc, #312]	@ (8006b40 <HAL_TIM_ConfigClockSource+0x154>)
  tmpsmcr = htim->Instance->SMCR;
 8006a08:	6890      	ldr	r0, [r2, #8]
  tmpsmcr &= ~(TIM_SMCR_ETF | TIM_SMCR_ETPS | TIM_SMCR_ECE | TIM_SMCR_ETP);
 8006a0a:	4028      	ands	r0, r5
  htim->Instance->SMCR = tmpsmcr;
 8006a0c:	6090      	str	r0, [r2, #8]
  switch (sClockSourceConfig->ClockSource)
 8006a0e:	6808      	ldr	r0, [r1, #0]
 8006a10:	2860      	cmp	r0, #96	@ 0x60
 8006a12:	d100      	bne.n	8006a16 <HAL_TIM_ConfigClockSource+0x2a>
 8006a14:	e07a      	b.n	8006b0c <HAL_TIM_ConfigClockSource+0x120>
 8006a16:	d80b      	bhi.n	8006a30 <HAL_TIM_ConfigClockSource+0x44>
 8006a18:	2840      	cmp	r0, #64	@ 0x40
 8006a1a:	d060      	beq.n	8006ade <HAL_TIM_ConfigClockSource+0xf2>
 8006a1c:	d829      	bhi.n	8006a72 <HAL_TIM_ConfigClockSource+0x86>
 8006a1e:	2820      	cmp	r0, #32
 8006a20:	d053      	beq.n	8006aca <HAL_TIM_ConfigClockSource+0xde>
 8006a22:	d850      	bhi.n	8006ac6 <HAL_TIM_ConfigClockSource+0xda>
 8006a24:	2110      	movs	r1, #16
 8006a26:	0004      	movs	r4, r0
 8006a28:	438c      	bics	r4, r1
 8006a2a:	d04e      	beq.n	8006aca <HAL_TIM_ConfigClockSource+0xde>
      status = HAL_ERROR;
 8006a2c:	2001      	movs	r0, #1
 8006a2e:	e019      	b.n	8006a64 <HAL_TIM_ConfigClockSource+0x78>
  switch (sClockSourceConfig->ClockSource)
 8006a30:	2480      	movs	r4, #128	@ 0x80
 8006a32:	0164      	lsls	r4, r4, #5
 8006a34:	42a0      	cmp	r0, r4
 8006a36:	d014      	beq.n	8006a62 <HAL_TIM_ConfigClockSource+0x76>
 8006a38:	2480      	movs	r4, #128	@ 0x80
 8006a3a:	01a4      	lsls	r4, r4, #6
 8006a3c:	42a0      	cmp	r0, r4
 8006a3e:	d031      	beq.n	8006aa4 <HAL_TIM_ConfigClockSource+0xb8>
 8006a40:	2870      	cmp	r0, #112	@ 0x70
 8006a42:	d1f3      	bne.n	8006a2c <HAL_TIM_ConfigClockSource+0x40>
  tmpsmcr = TIMx->SMCR;
 8006a44:	6894      	ldr	r4, [r2, #8]
  tmpsmcr &= ~(TIM_SMCR_ETF | TIM_SMCR_ETPS | TIM_SMCR_ECE | TIM_SMCR_ETP);
 8006a46:	483f      	ldr	r0, [pc, #252]	@ (8006b44 <HAL_TIM_ConfigClockSource+0x158>)
  tmpsmcr |= (uint32_t)(TIM_ExtTRGPrescaler | (TIM_ExtTRGPolarity | (ExtTRGFilter << 8U)));
 8006a48:	684d      	ldr	r5, [r1, #4]
  tmpsmcr &= ~(TIM_SMCR_ETF | TIM_SMCR_ETPS | TIM_SMCR_ECE | TIM_SMCR_ETP);
 8006a4a:	4004      	ands	r4, r0
  tmpsmcr |= (uint32_t)(TIM_ExtTRGPrescaler | (TIM_ExtTRGPolarity | (ExtTRGFilter << 8U)));
 8006a4c:	6888      	ldr	r0, [r1, #8]
 8006a4e:	68c9      	ldr	r1, [r1, #12]
 8006a50:	4328      	orrs	r0, r5
 8006a52:	0209      	lsls	r1, r1, #8
 8006a54:	4301      	orrs	r1, r0
      tmpsmcr |= (TIM_SLAVEMODE_EXTERNAL1 | TIM_CLOCKSOURCE_ETRMODE1);
 8006a56:	2077      	movs	r0, #119	@ 0x77
  tmpsmcr |= (uint32_t)(TIM_ExtTRGPrescaler | (TIM_ExtTRGPolarity | (ExtTRGFilter << 8U)));
 8006a58:	4321      	orrs	r1, r4
  TIMx->SMCR = tmpsmcr;
 8006a5a:	6091      	str	r1, [r2, #8]
      tmpsmcr = htim->Instance->SMCR;
 8006a5c:	6891      	ldr	r1, [r2, #8]
      tmpsmcr |= (TIM_SLAVEMODE_EXTERNAL1 | TIM_CLOCKSOURCE_ETRMODE1);
 8006a5e:	4301      	orrs	r1, r0
      htim->Instance->SMCR = tmpsmcr;
 8006a60:	6091      	str	r1, [r2, #8]
  HAL_StatusTypeDef status = HAL_OK;
 8006a62:	2000      	movs	r0, #0
  htim->State = HAL_TIM_STATE_READY;
 8006a64:	223d      	movs	r2, #61	@ 0x3d
 8006a66:	2101      	movs	r1, #1
 8006a68:	5499      	strb	r1, [r3, r2]
  __HAL_UNLOCK(htim);
 8006a6a:	2100      	movs	r1, #0
 8006a6c:	3a01      	subs	r2, #1
 8006a6e:	5499      	strb	r1, [r3, r2]
}
 8006a70:	bd70      	pop	{r4, r5, r6, pc}
  switch (sClockSourceConfig->ClockSource)
 8006a72:	2850      	cmp	r0, #80	@ 0x50
 8006a74:	d1da      	bne.n	8006a2c <HAL_TIM_ConfigClockSource+0x40>
  tmpccer = TIMx->CCER;
 8006a76:	6a15      	ldr	r5, [r2, #32]
  TIMx->CCER &= ~TIM_CCER_CC1E;
 8006a78:	6a16      	ldr	r6, [r2, #32]
                               sClockSourceConfig->ClockPolarity,
 8006a7a:	6848      	ldr	r0, [r1, #4]
  TIMx->CCER &= ~TIM_CCER_CC1E;
 8006a7c:	43a6      	bics	r6, r4
                               sClockSourceConfig->ClockFilter);
 8006a7e:	68c9      	ldr	r1, [r1, #12]
  TIMx->CCER &= ~TIM_CCER_CC1E;
 8006a80:	6216      	str	r6, [r2, #32]
  tmpccmr1 &= ~TIM_CCMR1_IC1F;
 8006a82:	26f0      	movs	r6, #240	@ 0xf0
  tmpccmr1 = TIMx->CCMR1;
 8006a84:	6994      	ldr	r4, [r2, #24]
  tmpccmr1 |= (TIM_ICFilter << 4U);
 8006a86:	0109      	lsls	r1, r1, #4
  tmpccmr1 &= ~TIM_CCMR1_IC1F;
 8006a88:	43b4      	bics	r4, r6
  tmpccmr1 |= (TIM_ICFilter << 4U);
 8006a8a:	4321      	orrs	r1, r4
  tmpccer &= ~(TIM_CCER_CC1P | TIM_CCER_CC1NP);
 8006a8c:	240a      	movs	r4, #10
 8006a8e:	43a5      	bics	r5, r4
  tmpccer |= TIM_ICPolarity;
 8006a90:	4328      	orrs	r0, r5
  TIMx->CCMR1 = tmpccmr1;
 8006a92:	6191      	str	r1, [r2, #24]
  TIMx->CCER = tmpccer;
 8006a94:	6210      	str	r0, [r2, #32]
  tmpsmcr = TIMx->SMCR;
 8006a96:	6891      	ldr	r1, [r2, #8]
  tmpsmcr &= ~TIM_SMCR_TS;
 8006a98:	482b      	ldr	r0, [pc, #172]	@ (8006b48 <HAL_TIM_ConfigClockSource+0x15c>)
 8006a9a:	4001      	ands	r1, r0
  tmpsmcr |= (InputTriggerSource | TIM_SLAVEMODE_EXTERNAL1);
 8006a9c:	2057      	movs	r0, #87	@ 0x57
 8006a9e:	4301      	orrs	r1, r0
  TIMx->SMCR = tmpsmcr;
 8006aa0:	6091      	str	r1, [r2, #8]
}
 8006aa2:	e7de      	b.n	8006a62 <HAL_TIM_ConfigClockSource+0x76>
  tmpsmcr = TIMx->SMCR;
 8006aa4:	6894      	ldr	r4, [r2, #8]
  tmpsmcr &= ~(TIM_SMCR_ETF | TIM_SMCR_ETPS | TIM_SMCR_ECE | TIM_SMCR_ETP);
 8006aa6:	4827      	ldr	r0, [pc, #156]	@ (8006b44 <HAL_TIM_ConfigClockSource+0x158>)
  tmpsmcr |= (uint32_t)(TIM_ExtTRGPrescaler | (TIM_ExtTRGPolarity | (ExtTRGFilter << 8U)));
 8006aa8:	684d      	ldr	r5, [r1, #4]
  tmpsmcr &= ~(TIM_SMCR_ETF | TIM_SMCR_ETPS | TIM_SMCR_ECE | TIM_SMCR_ETP);
 8006aaa:	4004      	ands	r4, r0
  tmpsmcr |= (uint32_t)(TIM_ExtTRGPrescaler | (TIM_ExtTRGPolarity | (ExtTRGFilter << 8U)));
 8006aac:	6888      	ldr	r0, [r1, #8]
 8006aae:	68c9      	ldr	r1, [r1, #12]
 8006ab0:	4328      	orrs	r0, r5
 8006ab2:	0209      	lsls	r1, r1, #8
 8006ab4:	4301      	orrs	r1, r0
 8006ab6:	4321      	orrs	r1, r4
  TIMx->SMCR = tmpsmcr;
 8006ab8:	6091      	str	r1, [r2, #8]
      htim->Instance->SMCR |= TIM_SMCR_ECE;
 8006aba:	2180      	movs	r1, #128	@ 0x80
 8006abc:	6890      	ldr	r0, [r2, #8]
 8006abe:	01c9      	lsls	r1, r1, #7
 8006ac0:	4301      	orrs	r1, r0
 8006ac2:	6091      	str	r1, [r2, #8]
      break;
 8006ac4:	e7cd      	b.n	8006a62 <HAL_TIM_ConfigClockSource+0x76>
  switch (sClockSourceConfig->ClockSource)
 8006ac6:	2830      	cmp	r0, #48	@ 0x30
 8006ac8:	d1b0      	bne.n	8006a2c <HAL_TIM_ConfigClockSource+0x40>
  tmpsmcr = TIMx->SMCR;
 8006aca:	6891      	ldr	r1, [r2, #8]
  tmpsmcr &= ~TIM_SMCR_TS;
 8006acc:	4c1e      	ldr	r4, [pc, #120]	@ (8006b48 <HAL_TIM_ConfigClockSource+0x15c>)
 8006ace:	4021      	ands	r1, r4
  tmpsmcr |= (InputTriggerSource | TIM_SLAVEMODE_EXTERNAL1);
 8006ad0:	4301      	orrs	r1, r0
 8006ad2:	2007      	movs	r0, #7
 8006ad4:	4301      	orrs	r1, r0
  TIMx->SMCR = tmpsmcr;
 8006ad6:	6091      	str	r1, [r2, #8]
}
 8006ad8:	e7c3      	b.n	8006a62 <HAL_TIM_ConfigClockSource+0x76>
  __HAL_LOCK(htim);
 8006ada:	2002      	movs	r0, #2
 8006adc:	e7c8      	b.n	8006a70 <HAL_TIM_ConfigClockSource+0x84>
  tmpccer = TIMx->CCER;
 8006ade:	6a15      	ldr	r5, [r2, #32]
  TIMx->CCER &= ~TIM_CCER_CC1E;
 8006ae0:	6a16      	ldr	r6, [r2, #32]
                               sClockSourceConfig->ClockPolarity,
 8006ae2:	6848      	ldr	r0, [r1, #4]
  TIMx->CCER &= ~TIM_CCER_CC1E;
 8006ae4:	43a6      	bics	r6, r4
                               sClockSourceConfig->ClockFilter);
 8006ae6:	68c9      	ldr	r1, [r1, #12]
  TIMx->CCER &= ~TIM_CCER_CC1E;
 8006ae8:	6216      	str	r6, [r2, #32]
  tmpccmr1 &= ~TIM_CCMR1_IC1F;
 8006aea:	26f0      	movs	r6, #240	@ 0xf0
  tmpccmr1 = TIMx->CCMR1;
 8006aec:	6994      	ldr	r4, [r2, #24]
  tmpccmr1 |= (TIM_ICFilter << 4U);
 8006aee:	0109      	lsls	r1, r1, #4
  tmpccmr1 &= ~TIM_CCMR1_IC1F;
 8006af0:	43b4      	bics	r4, r6
  tmpccmr1 |= (TIM_ICFilter << 4U);
 8006af2:	4321      	orrs	r1, r4
  tmpccer &= ~(TIM_CCER_CC1P | TIM_CCER_CC1NP);
 8006af4:	240a      	movs	r4, #10
 8006af6:	43a5      	bics	r5, r4
  tmpccer |= TIM_ICPolarity;
 8006af8:	4328      	orrs	r0, r5
  TIMx->CCMR1 = tmpccmr1;
 8006afa:	6191      	str	r1, [r2, #24]
  TIMx->CCER = tmpccer;
 8006afc:	6210      	str	r0, [r2, #32]
  tmpsmcr = TIMx->SMCR;
 8006afe:	6891      	ldr	r1, [r2, #8]
  tmpsmcr &= ~TIM_SMCR_TS;
 8006b00:	4811      	ldr	r0, [pc, #68]	@ (8006b48 <HAL_TIM_ConfigClockSource+0x15c>)
 8006b02:	4001      	ands	r1, r0
  tmpsmcr |= (InputTriggerSource | TIM_SLAVEMODE_EXTERNAL1);
 8006b04:	2047      	movs	r0, #71	@ 0x47
 8006b06:	4301      	orrs	r1, r0
  TIMx->SMCR = tmpsmcr;
 8006b08:	6091      	str	r1, [r2, #8]
}
 8006b0a:	e7aa      	b.n	8006a62 <HAL_TIM_ConfigClockSource+0x76>
  TIMx->CCER &= ~TIM_CCER_CC2E;
 8006b0c:	2610      	movs	r6, #16
  tmpccer = TIMx->CCER;
 8006b0e:	6a15      	ldr	r5, [r2, #32]
                               sClockSourceConfig->ClockPolarity,
 8006b10:	6848      	ldr	r0, [r1, #4]
                               sClockSourceConfig->ClockFilter);
 8006b12:	68cc      	ldr	r4, [r1, #12]
  TIMx->CCER &= ~TIM_CCER_CC2E;
 8006b14:	6a11      	ldr	r1, [r2, #32]
  tmpccmr1 |= (TIM_ICFilter << 12U);
 8006b16:	0324      	lsls	r4, r4, #12
  TIMx->CCER &= ~TIM_CCER_CC2E;
 8006b18:	43b1      	bics	r1, r6
 8006b1a:	6211      	str	r1, [r2, #32]
  tmpccmr1 = TIMx->CCMR1;
 8006b1c:	6991      	ldr	r1, [r2, #24]
  tmpccmr1 &= ~TIM_CCMR1_IC2F;
 8006b1e:	4e0b      	ldr	r6, [pc, #44]	@ (8006b4c <HAL_TIM_ConfigClockSource+0x160>)
 8006b20:	4031      	ands	r1, r6
  tmpccmr1 |= (TIM_ICFilter << 12U);
 8006b22:	430c      	orrs	r4, r1
  tmpccer &= ~(TIM_CCER_CC2P | TIM_CCER_CC2NP);
 8006b24:	21a0      	movs	r1, #160	@ 0xa0
 8006b26:	438d      	bics	r5, r1
  tmpccer |= (TIM_ICPolarity << 4U);
 8006b28:	0101      	lsls	r1, r0, #4
 8006b2a:	4329      	orrs	r1, r5
  TIMx->CCMR1 = tmpccmr1 ;
 8006b2c:	6194      	str	r4, [r2, #24]
  TIMx->CCER = tmpccer;
 8006b2e:	6211      	str	r1, [r2, #32]
  tmpsmcr = TIMx->SMCR;
 8006b30:	6891      	ldr	r1, [r2, #8]
  tmpsmcr &= ~TIM_SMCR_TS;
 8006b32:	4805      	ldr	r0, [pc, #20]	@ (8006b48 <HAL_TIM_ConfigClockSource+0x15c>)
 8006b34:	4001      	ands	r1, r0
  tmpsmcr |= (InputTriggerSource | TIM_SLAVEMODE_EXTERNAL1);
 8006b36:	2067      	movs	r0, #103	@ 0x67
 8006b38:	4301      	orrs	r1, r0
  TIMx->SMCR = tmpsmcr;
 8006b3a:	6091      	str	r1, [r2, #8]
}
 8006b3c:	e791      	b.n	8006a62 <HAL_TIM_ConfigClockSource+0x76>
 8006b3e:	46c0      	nop			@ (mov r8, r8)
 8006b40:	ffce0088 	.word	0xffce0088
 8006b44:	ffff00ff 	.word	0xffff00ff
 8006b48:	ffcfff8f 	.word	0xffcfff8f
 8006b4c:	ffff0fff 	.word	0xffff0fff

08006b50 <HAL_TIM_ReadCapturedValue>:
  switch (Channel)
 8006b50:	2908      	cmp	r1, #8
 8006b52:	d00e      	beq.n	8006b72 <HAL_TIM_ReadCapturedValue+0x22>
 8006b54:	d806      	bhi.n	8006b64 <HAL_TIM_ReadCapturedValue+0x14>
 8006b56:	2900      	cmp	r1, #0
 8006b58:	d00e      	beq.n	8006b78 <HAL_TIM_ReadCapturedValue+0x28>
 8006b5a:	2904      	cmp	r1, #4
 8006b5c:	d107      	bne.n	8006b6e <HAL_TIM_ReadCapturedValue+0x1e>
      tmpreg =   htim->Instance->CCR2;
 8006b5e:	6803      	ldr	r3, [r0, #0]
 8006b60:	6b98      	ldr	r0, [r3, #56]	@ 0x38
      break;
 8006b62:	e003      	b.n	8006b6c <HAL_TIM_ReadCapturedValue+0x1c>
  switch (Channel)
 8006b64:	290c      	cmp	r1, #12
 8006b66:	d102      	bne.n	8006b6e <HAL_TIM_ReadCapturedValue+0x1e>
      tmpreg =   htim->Instance->CCR4;
 8006b68:	6803      	ldr	r3, [r0, #0]
 8006b6a:	6c18      	ldr	r0, [r3, #64]	@ 0x40
}
 8006b6c:	4770      	bx	lr
  switch (Channel)
 8006b6e:	2000      	movs	r0, #0
 8006b70:	e7fc      	b.n	8006b6c <HAL_TIM_ReadCapturedValue+0x1c>
      tmpreg =   htim->Instance->CCR3;
 8006b72:	6803      	ldr	r3, [r0, #0]
 8006b74:	6bd8      	ldr	r0, [r3, #60]	@ 0x3c
      break;
 8006b76:	e7f9      	b.n	8006b6c <HAL_TIM_ReadCapturedValue+0x1c>
      tmpreg =  htim->Instance->CCR1;
 8006b78:	6803      	ldr	r3, [r0, #0]
 8006b7a:	6b58      	ldr	r0, [r3, #52]	@ 0x34
      break;
 8006b7c:	e7f6      	b.n	8006b6c <HAL_TIM_ReadCapturedValue+0x1c>
 8006b7e:	46c0      	nop			@ (mov r8, r8)

08006b80 <HAL_TIM_RegisterCallback>:
{
 8006b80:	0003      	movs	r3, r0
 8006b82:	b530      	push	{r4, r5, lr}
  if (pCallback == NULL)
 8006b84:	2a00      	cmp	r2, #0
 8006b86:	d00e      	beq.n	8006ba6 <HAL_TIM_RegisterCallback+0x26>
  if (htim->State == HAL_TIM_STATE_READY)
 8006b88:	253d      	movs	r5, #61	@ 0x3d
 8006b8a:	5d44      	ldrb	r4, [r0, r5]
 8006b8c:	b2e0      	uxtb	r0, r4
 8006b8e:	2c01      	cmp	r4, #1
 8006b90:	d00b      	beq.n	8006baa <HAL_TIM_RegisterCallback+0x2a>
  else if (htim->State == HAL_TIM_STATE_RESET)
 8006b92:	5d5c      	ldrb	r4, [r3, r5]
    return HAL_ERROR;
 8006b94:	2001      	movs	r0, #1
  else if (htim->State == HAL_TIM_STATE_RESET)
 8006b96:	2c00      	cmp	r4, #0
 8006b98:	d106      	bne.n	8006ba8 <HAL_TIM_RegisterCallback+0x28>
    switch (CallbackID)
 8006b9a:	290d      	cmp	r1, #13
 8006b9c:	d804      	bhi.n	8006ba8 <HAL_TIM_RegisterCallback+0x28>
 8006b9e:	4837      	ldr	r0, [pc, #220]	@ (8006c7c <HAL_TIM_RegisterCallback+0xfc>)
 8006ba0:	0089      	lsls	r1, r1, #2
 8006ba2:	5841      	ldr	r1, [r0, r1]
 8006ba4:	468f      	mov	pc, r1
    return HAL_ERROR;
 8006ba6:	2001      	movs	r0, #1
}
 8006ba8:	bd30      	pop	{r4, r5, pc}
    switch (CallbackID)
 8006baa:	291b      	cmp	r1, #27
 8006bac:	d8fc      	bhi.n	8006ba8 <HAL_TIM_RegisterCallback+0x28>
 8006bae:	4834      	ldr	r0, [pc, #208]	@ (8006c80 <HAL_TIM_RegisterCallback+0x100>)
 8006bb0:	0089      	lsls	r1, r1, #2
 8006bb2:	5841      	ldr	r1, [r0, r1]
 8006bb4:	468f      	mov	pc, r1
  HAL_StatusTypeDef status = HAL_OK;
 8006bb6:	2000      	movs	r0, #0
        htim->HallSensor_MspInitCallback   = pCallback;
 8006bb8:	67da      	str	r2, [r3, #124]	@ 0x7c
        break;
 8006bba:	e7f5      	b.n	8006ba8 <HAL_TIM_RegisterCallback+0x28>
        htim->HallSensor_MspDeInitCallback = pCallback;
 8006bbc:	2180      	movs	r1, #128	@ 0x80
  HAL_StatusTypeDef status = HAL_OK;
 8006bbe:	2000      	movs	r0, #0
        htim->HallSensor_MspDeInitCallback = pCallback;
 8006bc0:	505a      	str	r2, [r3, r1]
        break;
 8006bc2:	e7f1      	b.n	8006ba8 <HAL_TIM_RegisterCallback+0x28>
  HAL_StatusTypeDef status = HAL_OK;
 8006bc4:	2000      	movs	r0, #0
        htim->Base_MspInitCallback         = pCallback;
 8006bc6:	64da      	str	r2, [r3, #76]	@ 0x4c
        break;
 8006bc8:	e7ee      	b.n	8006ba8 <HAL_TIM_RegisterCallback+0x28>
  HAL_StatusTypeDef status = HAL_OK;
 8006bca:	2000      	movs	r0, #0
        htim->Base_MspDeInitCallback       = pCallback;
 8006bcc:	651a      	str	r2, [r3, #80]	@ 0x50
        break;
 8006bce:	e7eb      	b.n	8006ba8 <HAL_TIM_RegisterCallback+0x28>
  HAL_StatusTypeDef status = HAL_OK;
 8006bd0:	2000      	movs	r0, #0
        htim->IC_MspInitCallback           = pCallback;
 8006bd2:	655a      	str	r2, [r3, #84]	@ 0x54
        break;
 8006bd4:	e7e8      	b.n	8006ba8 <HAL_TIM_RegisterCallback+0x28>
  HAL_StatusTypeDef status = HAL_OK;
 8006bd6:	2000      	movs	r0, #0
        htim->IC_MspDeInitCallback         = pCallback;
 8006bd8:	659a      	str	r2, [r3, #88]	@ 0x58
        break;
 8006bda:	e7e5      	b.n	8006ba8 <HAL_TIM_RegisterCallback+0x28>
  HAL_StatusTypeDef status = HAL_OK;
 8006bdc:	2000      	movs	r0, #0
        htim->OC_MspInitCallback           = pCallback;
 8006bde:	65da      	str	r2, [r3, #92]	@ 0x5c
        break;
 8006be0:	e7e2      	b.n	8006ba8 <HAL_TIM_RegisterCallback+0x28>
  HAL_StatusTypeDef status = HAL_OK;
 8006be2:	2000      	movs	r0, #0
        htim->OC_MspDeInitCallback         = pCallback;
 8006be4:	661a      	str	r2, [r3, #96]	@ 0x60
        break;
 8006be6:	e7df      	b.n	8006ba8 <HAL_TIM_RegisterCallback+0x28>
  HAL_StatusTypeDef status = HAL_OK;
 8006be8:	2000      	movs	r0, #0
        htim->PWM_MspInitCallback          = pCallback;
 8006bea:	665a      	str	r2, [r3, #100]	@ 0x64
        break;
 8006bec:	e7dc      	b.n	8006ba8 <HAL_TIM_RegisterCallback+0x28>
  HAL_StatusTypeDef status = HAL_OK;
 8006bee:	2000      	movs	r0, #0
        htim->PWM_MspDeInitCallback        = pCallback;
 8006bf0:	669a      	str	r2, [r3, #104]	@ 0x68
        break;
 8006bf2:	e7d9      	b.n	8006ba8 <HAL_TIM_RegisterCallback+0x28>
  HAL_StatusTypeDef status = HAL_OK;
 8006bf4:	2000      	movs	r0, #0
        htim->OnePulse_MspInitCallback     = pCallback;
 8006bf6:	66da      	str	r2, [r3, #108]	@ 0x6c
        break;
 8006bf8:	e7d6      	b.n	8006ba8 <HAL_TIM_RegisterCallback+0x28>
  HAL_StatusTypeDef status = HAL_OK;
 8006bfa:	2000      	movs	r0, #0
        htim->OnePulse_MspDeInitCallback   = pCallback;
 8006bfc:	671a      	str	r2, [r3, #112]	@ 0x70
        break;
 8006bfe:	e7d3      	b.n	8006ba8 <HAL_TIM_RegisterCallback+0x28>
  HAL_StatusTypeDef status = HAL_OK;
 8006c00:	2000      	movs	r0, #0
        htim->Encoder_MspInitCallback      = pCallback;
 8006c02:	675a      	str	r2, [r3, #116]	@ 0x74
        break;
 8006c04:	e7d0      	b.n	8006ba8 <HAL_TIM_RegisterCallback+0x28>
  HAL_StatusTypeDef status = HAL_OK;
 8006c06:	2000      	movs	r0, #0
        htim->Encoder_MspDeInitCallback    = pCallback;
 8006c08:	679a      	str	r2, [r3, #120]	@ 0x78
        break;
 8006c0a:	e7cd      	b.n	8006ba8 <HAL_TIM_RegisterCallback+0x28>
        htim->PeriodElapsedCallback                = pCallback;
 8006c0c:	2184      	movs	r1, #132	@ 0x84
  HAL_StatusTypeDef status = HAL_OK;
 8006c0e:	2000      	movs	r0, #0
        htim->PeriodElapsedCallback                = pCallback;
 8006c10:	505a      	str	r2, [r3, r1]
        break;
 8006c12:	e7c9      	b.n	8006ba8 <HAL_TIM_RegisterCallback+0x28>
        htim->PeriodElapsedHalfCpltCallback        = pCallback;
 8006c14:	2188      	movs	r1, #136	@ 0x88
  HAL_StatusTypeDef status = HAL_OK;
 8006c16:	2000      	movs	r0, #0
        htim->PeriodElapsedHalfCpltCallback        = pCallback;
 8006c18:	505a      	str	r2, [r3, r1]
        break;
 8006c1a:	e7c5      	b.n	8006ba8 <HAL_TIM_RegisterCallback+0x28>
        htim->Break2Callback                       = pCallback;
 8006c1c:	21b8      	movs	r1, #184	@ 0xb8
  HAL_StatusTypeDef status = HAL_OK;
 8006c1e:	2000      	movs	r0, #0
        htim->Break2Callback                       = pCallback;
 8006c20:	505a      	str	r2, [r3, r1]
        break;
 8006c22:	e7c1      	b.n	8006ba8 <HAL_TIM_RegisterCallback+0x28>
        htim->BreakCallback                        = pCallback;
 8006c24:	21b4      	movs	r1, #180	@ 0xb4
  HAL_StatusTypeDef status = HAL_OK;
 8006c26:	2000      	movs	r0, #0
        htim->BreakCallback                        = pCallback;
 8006c28:	505a      	str	r2, [r3, r1]
        break;
 8006c2a:	e7bd      	b.n	8006ba8 <HAL_TIM_RegisterCallback+0x28>
        htim->CommutationCallback                  = pCallback;
 8006c2c:	21ac      	movs	r1, #172	@ 0xac
  HAL_StatusTypeDef status = HAL_OK;
 8006c2e:	2000      	movs	r0, #0
        htim->CommutationCallback                  = pCallback;
 8006c30:	505a      	str	r2, [r3, r1]
        break;
 8006c32:	e7b9      	b.n	8006ba8 <HAL_TIM_RegisterCallback+0x28>
        htim->CommutationHalfCpltCallback          = pCallback;
 8006c34:	21b0      	movs	r1, #176	@ 0xb0
  HAL_StatusTypeDef status = HAL_OK;
 8006c36:	2000      	movs	r0, #0
        htim->CommutationHalfCpltCallback          = pCallback;
 8006c38:	505a      	str	r2, [r3, r1]
        break;
 8006c3a:	e7b5      	b.n	8006ba8 <HAL_TIM_RegisterCallback+0x28>
        htim->TriggerCallback                      = pCallback;
 8006c3c:	218c      	movs	r1, #140	@ 0x8c
  HAL_StatusTypeDef status = HAL_OK;
 8006c3e:	2000      	movs	r0, #0
        htim->TriggerCallback                      = pCallback;
 8006c40:	505a      	str	r2, [r3, r1]
        break;
 8006c42:	e7b1      	b.n	8006ba8 <HAL_TIM_RegisterCallback+0x28>
        htim->TriggerHalfCpltCallback              = pCallback;
 8006c44:	2190      	movs	r1, #144	@ 0x90
  HAL_StatusTypeDef status = HAL_OK;
 8006c46:	2000      	movs	r0, #0
        htim->TriggerHalfCpltCallback              = pCallback;
 8006c48:	505a      	str	r2, [r3, r1]
        break;
 8006c4a:	e7ad      	b.n	8006ba8 <HAL_TIM_RegisterCallback+0x28>
        htim->IC_CaptureCallback                   = pCallback;
 8006c4c:	2194      	movs	r1, #148	@ 0x94
  HAL_StatusTypeDef status = HAL_OK;
 8006c4e:	2000      	movs	r0, #0
        htim->IC_CaptureCallback                   = pCallback;
 8006c50:	505a      	str	r2, [r3, r1]
        break;
 8006c52:	e7a9      	b.n	8006ba8 <HAL_TIM_RegisterCallback+0x28>
        htim->IC_CaptureHalfCpltCallback           = pCallback;
 8006c54:	2198      	movs	r1, #152	@ 0x98
  HAL_StatusTypeDef status = HAL_OK;
 8006c56:	2000      	movs	r0, #0
        htim->IC_CaptureHalfCpltCallback           = pCallback;
 8006c58:	505a      	str	r2, [r3, r1]
        break;
 8006c5a:	e7a5      	b.n	8006ba8 <HAL_TIM_RegisterCallback+0x28>
        htim->OC_DelayElapsedCallback              = pCallback;
 8006c5c:	219c      	movs	r1, #156	@ 0x9c
  HAL_StatusTypeDef status = HAL_OK;
 8006c5e:	2000      	movs	r0, #0
        htim->OC_DelayElapsedCallback              = pCallback;
 8006c60:	505a      	str	r2, [r3, r1]
        break;
 8006c62:	e7a1      	b.n	8006ba8 <HAL_TIM_RegisterCallback+0x28>
        htim->PWM_PulseFinishedCallback            = pCallback;
 8006c64:	21a0      	movs	r1, #160	@ 0xa0
  HAL_StatusTypeDef status = HAL_OK;
 8006c66:	2000      	movs	r0, #0
        htim->PWM_PulseFinishedCallback            = pCallback;
 8006c68:	505a      	str	r2, [r3, r1]
        break;
 8006c6a:	e79d      	b.n	8006ba8 <HAL_TIM_RegisterCallback+0x28>
        htim->PWM_PulseFinishedHalfCpltCallback    = pCallback;
 8006c6c:	21a4      	movs	r1, #164	@ 0xa4
  HAL_StatusTypeDef status = HAL_OK;
 8006c6e:	2000      	movs	r0, #0
        htim->PWM_PulseFinishedHalfCpltCallback    = pCallback;
 8006c70:	505a      	str	r2, [r3, r1]
        break;
 8006c72:	e799      	b.n	8006ba8 <HAL_TIM_RegisterCallback+0x28>
        htim->ErrorCallback                        = pCallback;
 8006c74:	21a8      	movs	r1, #168	@ 0xa8
  HAL_StatusTypeDef status = HAL_OK;
 8006c76:	2000      	movs	r0, #0
        htim->ErrorCallback                        = pCallback;
 8006c78:	505a      	str	r2, [r3, r1]
        break;
 8006c7a:	e795      	b.n	8006ba8 <HAL_TIM_RegisterCallback+0x28>
 8006c7c:	08008690 	.word	0x08008690
 8006c80:	080086c8 	.word	0x080086c8

08006c84 <HAL_TIMEx_MasterConfigSynchronization>:
  assert_param(IS_TIM_MASTER_INSTANCE(htim->Instance));
  assert_param(IS_TIM_TRGO_SOURCE(sMasterConfig->MasterOutputTrigger));
  assert_param(IS_TIM_MSM_STATE(sMasterConfig->MasterSlaveMode));

  /* Check input state */
  __HAL_LOCK(htim);
 8006c84:	233c      	movs	r3, #60	@ 0x3c
{
 8006c86:	b570      	push	{r4, r5, r6, lr}
  __HAL_LOCK(htim);
 8006c88:	5cc3      	ldrb	r3, [r0, r3]
 8006c8a:	2b01      	cmp	r3, #1
 8006c8c:	d02a      	beq.n	8006ce4 <HAL_TIMEx_MasterConfigSynchronization+0x60>

  /* Change the handler state */
  htim->State = HAL_TIM_STATE_BUSY;
 8006c8e:	233d      	movs	r3, #61	@ 0x3d
 8006c90:	2202      	movs	r2, #2
 8006c92:	54c2      	strb	r2, [r0, r3]

  /* Get the TIMx CR2 register value */
  tmpcr2 = htim->Instance->CR2;
 8006c94:	6803      	ldr	r3, [r0, #0]

  /* Get the TIMx SMCR register value */
  tmpsmcr = htim->Instance->SMCR;

  /* If the timer supports ADC synchronization through TRGO2, set the master mode selection 2 */
  if (IS_TIM_TRGO2_INSTANCE(htim->Instance))
 8006c96:	4e14      	ldr	r6, [pc, #80]	@ (8006ce8 <HAL_TIMEx_MasterConfigSynchronization+0x64>)
  tmpcr2 = htim->Instance->CR2;
 8006c98:	685a      	ldr	r2, [r3, #4]
  }

  /* Reset the MMS Bits */
  tmpcr2 &= ~TIM_CR2_MMS;
  /* Select the TRGO source */
  tmpcr2 |=  sMasterConfig->MasterOutputTrigger;
 8006c9a:	680d      	ldr	r5, [r1, #0]
  tmpsmcr = htim->Instance->SMCR;
 8006c9c:	689c      	ldr	r4, [r3, #8]
  if (IS_TIM_TRGO2_INSTANCE(htim->Instance))
 8006c9e:	42b3      	cmp	r3, r6
 8006ca0:	d017      	beq.n	8006cd2 <HAL_TIMEx_MasterConfigSynchronization+0x4e>
  tmpcr2 &= ~TIM_CR2_MMS;
 8006ca2:	2670      	movs	r6, #112	@ 0x70
 8006ca4:	43b2      	bics	r2, r6
  tmpcr2 |=  sMasterConfig->MasterOutputTrigger;
 8006ca6:	432a      	orrs	r2, r5

  /* Update TIMx CR2 */
  htim->Instance->CR2 = tmpcr2;
 8006ca8:	605a      	str	r2, [r3, #4]

  if (IS_TIM_SLAVE_INSTANCE(htim->Instance))
 8006caa:	2280      	movs	r2, #128	@ 0x80
 8006cac:	05d2      	lsls	r2, r2, #23
 8006cae:	4293      	cmp	r3, r2
 8006cb0:	d002      	beq.n	8006cb8 <HAL_TIMEx_MasterConfigSynchronization+0x34>
 8006cb2:	4a0e      	ldr	r2, [pc, #56]	@ (8006cec <HAL_TIMEx_MasterConfigSynchronization+0x68>)
 8006cb4:	4293      	cmp	r3, r2
 8006cb6:	d104      	bne.n	8006cc2 <HAL_TIMEx_MasterConfigSynchronization+0x3e>
  {
    /* Reset the MSM Bit */
    tmpsmcr &= ~TIM_SMCR_MSM;
 8006cb8:	2280      	movs	r2, #128	@ 0x80
 8006cba:	4394      	bics	r4, r2
    /* Set master mode */
    tmpsmcr |= sMasterConfig->MasterSlaveMode;
 8006cbc:	688a      	ldr	r2, [r1, #8]
 8006cbe:	4314      	orrs	r4, r2

    /* Update TIMx SMCR */
    htim->Instance->SMCR = tmpsmcr;
 8006cc0:	609c      	str	r4, [r3, #8]
  }

  /* Change the htim state */
  htim->State = HAL_TIM_STATE_READY;
 8006cc2:	233d      	movs	r3, #61	@ 0x3d
 8006cc4:	2201      	movs	r2, #1
 8006cc6:	54c2      	strb	r2, [r0, r3]

  __HAL_UNLOCK(htim);
 8006cc8:	2200      	movs	r2, #0
 8006cca:	3b01      	subs	r3, #1
 8006ccc:	54c2      	strb	r2, [r0, r3]

  return HAL_OK;
 8006cce:	2000      	movs	r0, #0
}
 8006cd0:	bd70      	pop	{r4, r5, r6, pc}
    tmpcr2 &= ~TIM_CR2_MMS2;
 8006cd2:	4e07      	ldr	r6, [pc, #28]	@ (8006cf0 <HAL_TIMEx_MasterConfigSynchronization+0x6c>)
 8006cd4:	4032      	ands	r2, r6
    tmpcr2 |= sMasterConfig->MasterOutputTrigger2;
 8006cd6:	684e      	ldr	r6, [r1, #4]
 8006cd8:	4332      	orrs	r2, r6
  tmpcr2 &= ~TIM_CR2_MMS;
 8006cda:	2670      	movs	r6, #112	@ 0x70
 8006cdc:	43b2      	bics	r2, r6
  tmpcr2 |=  sMasterConfig->MasterOutputTrigger;
 8006cde:	4315      	orrs	r5, r2
  htim->Instance->CR2 = tmpcr2;
 8006ce0:	605d      	str	r5, [r3, #4]
  if (IS_TIM_SLAVE_INSTANCE(htim->Instance))
 8006ce2:	e7e9      	b.n	8006cb8 <HAL_TIMEx_MasterConfigSynchronization+0x34>
  __HAL_LOCK(htim);
 8006ce4:	2002      	movs	r0, #2
 8006ce6:	e7f3      	b.n	8006cd0 <HAL_TIMEx_MasterConfigSynchronization+0x4c>
 8006ce8:	40012c00 	.word	0x40012c00
 8006cec:	40000400 	.word	0x40000400
 8006cf0:	ff0fffff 	.word	0xff0fffff

08006cf4 <HAL_TIMEx_ConfigBreakDeadTime>:
  assert_param(IS_TIM_BREAK_FILTER(sBreakDeadTimeConfig->BreakFilter));
  assert_param(IS_TIM_AUTOMATIC_OUTPUT_STATE(sBreakDeadTimeConfig->AutomaticOutput));
  assert_param(IS_TIM_BREAK_AFMODE(sBreakDeadTimeConfig->BreakAFMode));

  /* Check input state */
  __HAL_LOCK(htim);
 8006cf4:	233c      	movs	r3, #60	@ 0x3c
{
 8006cf6:	b510      	push	{r4, lr}
  __HAL_LOCK(htim);
 8006cf8:	5cc3      	ldrb	r3, [r0, r3]
 8006cfa:	2b01      	cmp	r3, #1
 8006cfc:	d03d      	beq.n	8006d7a <HAL_TIMEx_ConfigBreakDeadTime+0x86>
  /* Set the Lock level, the Break enable Bit and the Polarity, the OSSR State,
     the OSSI State, the dead time value and the Automatic Output Enable Bit */

  /* Set the BDTR bits */
  MODIFY_REG(tmpbdtr, TIM_BDTR_DTG, sBreakDeadTimeConfig->DeadTime);
  MODIFY_REG(tmpbdtr, TIM_BDTR_LOCK, sBreakDeadTimeConfig->LockLevel);
 8006cfe:	4a20      	ldr	r2, [pc, #128]	@ (8006d80 <HAL_TIMEx_ConfigBreakDeadTime+0x8c>)
 8006d00:	68cb      	ldr	r3, [r1, #12]
  MODIFY_REG(tmpbdtr, TIM_BDTR_BKP, sBreakDeadTimeConfig->BreakPolarity);
  MODIFY_REG(tmpbdtr, TIM_BDTR_AOE, sBreakDeadTimeConfig->AutomaticOutput);
  MODIFY_REG(tmpbdtr, TIM_BDTR_BKF, (sBreakDeadTimeConfig->BreakFilter << TIM_BDTR_BKF_Pos));
  MODIFY_REG(tmpbdtr, TIM_BDTR_BKBID, sBreakDeadTimeConfig->BreakAFMode);

  if (IS_TIM_BKIN2_INSTANCE(htim->Instance))
 8006d02:	6804      	ldr	r4, [r0, #0]
  MODIFY_REG(tmpbdtr, TIM_BDTR_LOCK, sBreakDeadTimeConfig->LockLevel);
 8006d04:	4013      	ands	r3, r2
 8006d06:	688a      	ldr	r2, [r1, #8]
 8006d08:	4313      	orrs	r3, r2
  MODIFY_REG(tmpbdtr, TIM_BDTR_OSSI, sBreakDeadTimeConfig->OffStateIDLEMode);
 8006d0a:	4a1e      	ldr	r2, [pc, #120]	@ (8006d84 <HAL_TIMEx_ConfigBreakDeadTime+0x90>)
 8006d0c:	4013      	ands	r3, r2
 8006d0e:	684a      	ldr	r2, [r1, #4]
 8006d10:	4313      	orrs	r3, r2
  MODIFY_REG(tmpbdtr, TIM_BDTR_OSSR, sBreakDeadTimeConfig->OffStateRunMode);
 8006d12:	4a1d      	ldr	r2, [pc, #116]	@ (8006d88 <HAL_TIMEx_ConfigBreakDeadTime+0x94>)
 8006d14:	4013      	ands	r3, r2
 8006d16:	680a      	ldr	r2, [r1, #0]
 8006d18:	4313      	orrs	r3, r2
  MODIFY_REG(tmpbdtr, TIM_BDTR_BKE, sBreakDeadTimeConfig->BreakState);
 8006d1a:	4a1c      	ldr	r2, [pc, #112]	@ (8006d8c <HAL_TIMEx_ConfigBreakDeadTime+0x98>)
 8006d1c:	4013      	ands	r3, r2
 8006d1e:	690a      	ldr	r2, [r1, #16]
 8006d20:	4313      	orrs	r3, r2
  MODIFY_REG(tmpbdtr, TIM_BDTR_BKP, sBreakDeadTimeConfig->BreakPolarity);
 8006d22:	4a1b      	ldr	r2, [pc, #108]	@ (8006d90 <HAL_TIMEx_ConfigBreakDeadTime+0x9c>)
 8006d24:	4013      	ands	r3, r2
 8006d26:	694a      	ldr	r2, [r1, #20]
 8006d28:	4313      	orrs	r3, r2
  MODIFY_REG(tmpbdtr, TIM_BDTR_AOE, sBreakDeadTimeConfig->AutomaticOutput);
 8006d2a:	4a1a      	ldr	r2, [pc, #104]	@ (8006d94 <HAL_TIMEx_ConfigBreakDeadTime+0xa0>)
 8006d2c:	4013      	ands	r3, r2
 8006d2e:	6b0a      	ldr	r2, [r1, #48]	@ 0x30
 8006d30:	4313      	orrs	r3, r2
  MODIFY_REG(tmpbdtr, TIM_BDTR_BKF, (sBreakDeadTimeConfig->BreakFilter << TIM_BDTR_BKF_Pos));
 8006d32:	4a19      	ldr	r2, [pc, #100]	@ (8006d98 <HAL_TIMEx_ConfigBreakDeadTime+0xa4>)
 8006d34:	4013      	ands	r3, r2
 8006d36:	698a      	ldr	r2, [r1, #24]
 8006d38:	0412      	lsls	r2, r2, #16
 8006d3a:	4313      	orrs	r3, r2
  MODIFY_REG(tmpbdtr, TIM_BDTR_BKBID, sBreakDeadTimeConfig->BreakAFMode);
 8006d3c:	4a17      	ldr	r2, [pc, #92]	@ (8006d9c <HAL_TIMEx_ConfigBreakDeadTime+0xa8>)
 8006d3e:	4013      	ands	r3, r2
 8006d40:	69ca      	ldr	r2, [r1, #28]
 8006d42:	4313      	orrs	r3, r2
  if (IS_TIM_BKIN2_INSTANCE(htim->Instance))
 8006d44:	4a16      	ldr	r2, [pc, #88]	@ (8006da0 <HAL_TIMEx_ConfigBreakDeadTime+0xac>)
 8006d46:	4294      	cmp	r4, r2
 8006d48:	d005      	beq.n	8006d56 <HAL_TIMEx_ConfigBreakDeadTime+0x62>
    MODIFY_REG(tmpbdtr, TIM_BDTR_BK2P, sBreakDeadTimeConfig->Break2Polarity);
    MODIFY_REG(tmpbdtr, TIM_BDTR_BK2BID, sBreakDeadTimeConfig->Break2AFMode);
  }

  /* Set TIMx_BDTR */
  htim->Instance->BDTR = tmpbdtr;
 8006d4a:	6463      	str	r3, [r4, #68]	@ 0x44

  __HAL_UNLOCK(htim);
 8006d4c:	2200      	movs	r2, #0
 8006d4e:	233c      	movs	r3, #60	@ 0x3c
 8006d50:	54c2      	strb	r2, [r0, r3]

  return HAL_OK;
 8006d52:	2000      	movs	r0, #0
}
 8006d54:	bd10      	pop	{r4, pc}
    MODIFY_REG(tmpbdtr, TIM_BDTR_BK2F, (sBreakDeadTimeConfig->Break2Filter << TIM_BDTR_BK2F_Pos));
 8006d56:	4a13      	ldr	r2, [pc, #76]	@ (8006da4 <HAL_TIMEx_ConfigBreakDeadTime+0xb0>)
 8006d58:	4013      	ands	r3, r2
 8006d5a:	6a8a      	ldr	r2, [r1, #40]	@ 0x28
 8006d5c:	0512      	lsls	r2, r2, #20
 8006d5e:	431a      	orrs	r2, r3
    MODIFY_REG(tmpbdtr, TIM_BDTR_BK2E, sBreakDeadTimeConfig->Break2State);
 8006d60:	4b11      	ldr	r3, [pc, #68]	@ (8006da8 <HAL_TIMEx_ConfigBreakDeadTime+0xb4>)
 8006d62:	401a      	ands	r2, r3
 8006d64:	6a0b      	ldr	r3, [r1, #32]
 8006d66:	431a      	orrs	r2, r3
    MODIFY_REG(tmpbdtr, TIM_BDTR_BK2P, sBreakDeadTimeConfig->Break2Polarity);
 8006d68:	4b10      	ldr	r3, [pc, #64]	@ (8006dac <HAL_TIMEx_ConfigBreakDeadTime+0xb8>)
 8006d6a:	401a      	ands	r2, r3
 8006d6c:	6a4b      	ldr	r3, [r1, #36]	@ 0x24
 8006d6e:	431a      	orrs	r2, r3
    MODIFY_REG(tmpbdtr, TIM_BDTR_BK2BID, sBreakDeadTimeConfig->Break2AFMode);
 8006d70:	4b0f      	ldr	r3, [pc, #60]	@ (8006db0 <HAL_TIMEx_ConfigBreakDeadTime+0xbc>)
 8006d72:	401a      	ands	r2, r3
 8006d74:	6acb      	ldr	r3, [r1, #44]	@ 0x2c
 8006d76:	4313      	orrs	r3, r2
 8006d78:	e7e7      	b.n	8006d4a <HAL_TIMEx_ConfigBreakDeadTime+0x56>
  __HAL_LOCK(htim);
 8006d7a:	2002      	movs	r0, #2
 8006d7c:	e7ea      	b.n	8006d54 <HAL_TIMEx_ConfigBreakDeadTime+0x60>
 8006d7e:	46c0      	nop			@ (mov r8, r8)
 8006d80:	fffffcff 	.word	0xfffffcff
 8006d84:	fffffbff 	.word	0xfffffbff
 8006d88:	fffff7ff 	.word	0xfffff7ff
 8006d8c:	ffffefff 	.word	0xffffefff
 8006d90:	ffffdfff 	.word	0xffffdfff
 8006d94:	ffffbfff 	.word	0xffffbfff
 8006d98:	fff0ffff 	.word	0xfff0ffff
 8006d9c:	efffffff 	.word	0xefffffff
 8006da0:	40012c00 	.word	0x40012c00
 8006da4:	ff0fffff 	.word	0xff0fffff
 8006da8:	feffffff 	.word	0xfeffffff
 8006dac:	fdffffff 	.word	0xfdffffff
 8006db0:	dfffffff 	.word	0xdfffffff

08006db4 <HAL_TIMEx_CommutCallback>:
/**
  * @brief  Commutation callback in non-blocking mode
  * @param  htim TIM handle
  * @retval None
  */
__weak void HAL_TIMEx_CommutCallback(TIM_HandleTypeDef *htim)
 8006db4:	4770      	bx	lr
 8006db6:	46c0      	nop			@ (mov r8, r8)

08006db8 <HAL_TIMEx_CommutHalfCpltCallback>:
/**
  * @brief  Commutation half complete callback in non-blocking mode
  * @param  htim TIM handle
  * @retval None
  */
__weak void HAL_TIMEx_CommutHalfCpltCallback(TIM_HandleTypeDef *htim)
 8006db8:	4770      	bx	lr
 8006dba:	46c0      	nop			@ (mov r8, r8)

08006dbc <HAL_TIMEx_BreakCallback>:
/**
  * @brief  Break detection callback in non-blocking mode
  * @param  htim TIM handle
  * @retval None
  */
__weak void HAL_TIMEx_BreakCallback(TIM_HandleTypeDef *htim)
 8006dbc:	4770      	bx	lr
 8006dbe:	46c0      	nop			@ (mov r8, r8)

08006dc0 <HAL_TIMEx_Break2Callback>:
/**
  * @brief  Break2 detection callback in non blocking mode
  * @param  htim: TIM handle
  * @retval None
  */
__weak void HAL_TIMEx_Break2Callback(TIM_HandleTypeDef *htim)
 8006dc0:	4770      	bx	lr
 8006dc2:	46c0      	nop			@ (mov r8, r8)

08006dc4 <HAL_UARTEx_RxEventCallback>:
  UNUSED(Size);

  /* NOTE : This function should not be modified, when the callback is needed,
            the HAL_UARTEx_RxEventCallback can be implemented in the user file.
   */
}
 8006dc4:	4770      	bx	lr
 8006dc6:	46c0      	nop			@ (mov r8, r8)

08006dc8 <UART_DMAReceiveCplt>:
  * @brief DMA UART receive process complete callback.
  * @param hdma DMA handle.
  * @retval None
  */
static void UART_DMAReceiveCplt(DMA_HandleTypeDef *hdma)
{
 8006dc8:	0003      	movs	r3, r0
  UART_HandleTypeDef *huart = (UART_HandleTypeDef *)(hdma->Parent);

  /* DMA Normal mode */
  if (HAL_IS_BIT_CLR(hdma->Instance->CCR, DMA_CCR_CIRC))
 8006dca:	681b      	ldr	r3, [r3, #0]
{
 8006dcc:	b570      	push	{r4, r5, r6, lr}
  if (HAL_IS_BIT_CLR(hdma->Instance->CCR, DMA_CCR_CIRC))
 8006dce:	681a      	ldr	r2, [r3, #0]
 8006dd0:	2320      	movs	r3, #32
 8006dd2:	0019      	movs	r1, r3
  UART_HandleTypeDef *huart = (UART_HandleTypeDef *)(hdma->Parent);
 8006dd4:	6a80      	ldr	r0, [r0, #40]	@ 0x28
  if (HAL_IS_BIT_CLR(hdma->Instance->CCR, DMA_CCR_CIRC))
 8006dd6:	4011      	ands	r1, r2
 8006dd8:	4213      	tst	r3, r2
 8006dda:	d127      	bne.n	8006e2c <UART_DMAReceiveCplt+0x64>
  {
    huart->RxXferCount = 0U;
 8006ddc:	225e      	movs	r2, #94	@ 0x5e
 8006dde:	5281      	strh	r1, [r0, r2]
  __ASM volatile ("MRS %0, primask" : "=r" (result) :: "memory");
 8006de0:	f3ef 8510 	mrs	r5, PRIMASK
  __ASM volatile ("MSR primask, %0" : : "r" (priMask) : "memory");
 8006de4:	3a5d      	subs	r2, #93	@ 0x5d
 8006de6:	f382 8810 	msr	PRIMASK, r2

    /* Disable PE and ERR (Frame error, noise error, overrun error) interrupts */
    ATOMIC_CLEAR_BIT(huart->Instance->CR1, USART_CR1_PEIE);
 8006dea:	6804      	ldr	r4, [r0, #0]
 8006dec:	4e1d      	ldr	r6, [pc, #116]	@ (8006e64 <UART_DMAReceiveCplt+0x9c>)
 8006dee:	6821      	ldr	r1, [r4, #0]
 8006df0:	4031      	ands	r1, r6
 8006df2:	6021      	str	r1, [r4, #0]
 8006df4:	f385 8810 	msr	PRIMASK, r5
  __ASM volatile ("MRS %0, primask" : "=r" (result) :: "memory");
 8006df8:	f3ef 8510 	mrs	r5, PRIMASK
  __ASM volatile ("MSR primask, %0" : : "r" (priMask) : "memory");
 8006dfc:	f382 8810 	msr	PRIMASK, r2
    ATOMIC_CLEAR_BIT(huart->Instance->CR3, USART_CR3_EIE);
 8006e00:	6804      	ldr	r4, [r0, #0]
 8006e02:	68a1      	ldr	r1, [r4, #8]
 8006e04:	4391      	bics	r1, r2
 8006e06:	60a1      	str	r1, [r4, #8]
 8006e08:	f385 8810 	msr	PRIMASK, r5
  __ASM volatile ("MRS %0, primask" : "=r" (result) :: "memory");
 8006e0c:	f3ef 8410 	mrs	r4, PRIMASK
  __ASM volatile ("MSR primask, %0" : : "r" (priMask) : "memory");
 8006e10:	f382 8810 	msr	PRIMASK, r2

    /* Disable the DMA transfer for the receiver request by resetting the DMAR bit
       in the UART CR3 register */
    ATOMIC_CLEAR_BIT(huart->Instance->CR3, USART_CR3_DMAR);
 8006e14:	2540      	movs	r5, #64	@ 0x40
 8006e16:	6801      	ldr	r1, [r0, #0]
 8006e18:	688a      	ldr	r2, [r1, #8]
 8006e1a:	43aa      	bics	r2, r5
 8006e1c:	608a      	str	r2, [r1, #8]
 8006e1e:	f384 8810 	msr	PRIMASK, r4

    /* At end of Rx process, restore huart->RxState to Ready */
    huart->RxState = HAL_UART_STATE_READY;
 8006e22:	228c      	movs	r2, #140	@ 0x8c
 8006e24:	5083      	str	r3, [r0, r2]

    /* If Reception till IDLE event has been selected, Disable IDLE Interrupt */
    if (huart->ReceptionType == HAL_UART_RECEPTION_TOIDLE)
 8006e26:	6ec3      	ldr	r3, [r0, #108]	@ 0x6c
 8006e28:	2b01      	cmp	r3, #1
 8006e2a:	d00e      	beq.n	8006e4a <UART_DMAReceiveCplt+0x82>
    }
  }

  /* Initialize type of RxEvent that correspond to RxEvent callback execution;
     In this case, Rx Event type is Transfer Complete */
  huart->RxEventType = HAL_UART_RXEVENT_TC;
 8006e2c:	2300      	movs	r3, #0
 8006e2e:	6703      	str	r3, [r0, #112]	@ 0x70

  /* Check current reception Mode :
     If Reception till IDLE event has been selected : use Rx Event callback */
  if (huart->ReceptionType == HAL_UART_RECEPTION_TOIDLE)
 8006e30:	6ec3      	ldr	r3, [r0, #108]	@ 0x6c
 8006e32:	2b01      	cmp	r3, #1
 8006e34:	d003      	beq.n	8006e3e <UART_DMAReceiveCplt+0x76>
  else
  {
    /* In other cases : use Rx Complete callback */
#if (USE_HAL_UART_REGISTER_CALLBACKS == 1)
    /*Call registered Rx complete callback*/
    huart->RxCpltCallback(huart);
 8006e36:	23a0      	movs	r3, #160	@ 0xa0
 8006e38:	58c3      	ldr	r3, [r0, r3]
 8006e3a:	4798      	blx	r3
#else
    /*Call legacy weak Rx complete callback*/
    HAL_UART_RxCpltCallback(huart);
#endif /* USE_HAL_UART_REGISTER_CALLBACKS */
  }
}
 8006e3c:	bd70      	pop	{r4, r5, r6, pc}
    huart->RxEventCallback(huart, huart->RxXferSize);
 8006e3e:	335b      	adds	r3, #91	@ 0x5b
 8006e40:	5ac1      	ldrh	r1, [r0, r3]
 8006e42:	3364      	adds	r3, #100	@ 0x64
 8006e44:	58c3      	ldr	r3, [r0, r3]
 8006e46:	4798      	blx	r3
 8006e48:	e7f8      	b.n	8006e3c <UART_DMAReceiveCplt+0x74>
  __ASM volatile ("MRS %0, primask" : "=r" (result) :: "memory");
 8006e4a:	f3ef 8110 	mrs	r1, PRIMASK
  __ASM volatile ("MSR primask, %0" : : "r" (priMask) : "memory");
 8006e4e:	f383 8810 	msr	PRIMASK, r3
      ATOMIC_CLEAR_BIT(huart->Instance->CR1, USART_CR1_IDLEIE);
 8006e52:	2410      	movs	r4, #16
 8006e54:	6802      	ldr	r2, [r0, #0]
 8006e56:	6813      	ldr	r3, [r2, #0]
 8006e58:	43a3      	bics	r3, r4
 8006e5a:	6013      	str	r3, [r2, #0]
 8006e5c:	f381 8810 	msr	PRIMASK, r1
}
 8006e60:	e7e4      	b.n	8006e2c <UART_DMAReceiveCplt+0x64>
 8006e62:	46c0      	nop			@ (mov r8, r8)
 8006e64:	fffffeff 	.word	0xfffffeff

08006e68 <UART_DMARxHalfCplt>:
{
  UART_HandleTypeDef *huart = (UART_HandleTypeDef *)(hdma->Parent);

  /* Initialize type of RxEvent that correspond to RxEvent callback execution;
     In this case, Rx Event type is Half Transfer */
  huart->RxEventType = HAL_UART_RXEVENT_HT;
 8006e68:	2301      	movs	r3, #1
  UART_HandleTypeDef *huart = (UART_HandleTypeDef *)(hdma->Parent);
 8006e6a:	6a80      	ldr	r0, [r0, #40]	@ 0x28
{
 8006e6c:	b510      	push	{r4, lr}
  huart->RxEventType = HAL_UART_RXEVENT_HT;
 8006e6e:	6703      	str	r3, [r0, #112]	@ 0x70

  /* Check current reception Mode :
     If Reception till IDLE event has been selected : use Rx Event callback */
  if (huart->ReceptionType == HAL_UART_RECEPTION_TOIDLE)
 8006e70:	6ec3      	ldr	r3, [r0, #108]	@ 0x6c
 8006e72:	2b01      	cmp	r3, #1
 8006e74:	d003      	beq.n	8006e7e <UART_DMARxHalfCplt+0x16>
  else
  {
    /* In other cases : use Rx Half Complete callback */
#if (USE_HAL_UART_REGISTER_CALLBACKS == 1)
    /*Call registered Rx Half complete callback*/
    huart->RxHalfCpltCallback(huart);
 8006e76:	239c      	movs	r3, #156	@ 0x9c
 8006e78:	58c3      	ldr	r3, [r0, r3]
 8006e7a:	4798      	blx	r3
#else
    /*Call legacy weak Rx Half complete callback*/
    HAL_UART_RxHalfCpltCallback(huart);
#endif /* USE_HAL_UART_REGISTER_CALLBACKS */
  }
}
 8006e7c:	bd10      	pop	{r4, pc}
    huart->RxEventCallback(huart, huart->RxXferSize / 2U);
 8006e7e:	335b      	adds	r3, #91	@ 0x5b
 8006e80:	5ac1      	ldrh	r1, [r0, r3]
 8006e82:	3364      	adds	r3, #100	@ 0x64
 8006e84:	58c3      	ldr	r3, [r0, r3]
 8006e86:	0849      	lsrs	r1, r1, #1
 8006e88:	4798      	blx	r3
 8006e8a:	e7f7      	b.n	8006e7c <UART_DMARxHalfCplt+0x14>

08006e8c <UART_DMAAbortOnError>:
  * @retval None
  */
static void UART_DMAAbortOnError(DMA_HandleTypeDef *hdma)
{
  UART_HandleTypeDef *huart = (UART_HandleTypeDef *)(hdma->Parent);
  huart->RxXferCount = 0U;
 8006e8c:	2300      	movs	r3, #0
 8006e8e:	225e      	movs	r2, #94	@ 0x5e
{
 8006e90:	b510      	push	{r4, lr}
  UART_HandleTypeDef *huart = (UART_HandleTypeDef *)(hdma->Parent);
 8006e92:	6a80      	ldr	r0, [r0, #40]	@ 0x28
  huart->RxXferCount = 0U;
 8006e94:	5283      	strh	r3, [r0, r2]
  huart->TxXferCount = 0U;
 8006e96:	3a08      	subs	r2, #8
 8006e98:	5283      	strh	r3, [r0, r2]

#if (USE_HAL_UART_REGISTER_CALLBACKS == 1)
  /*Call registered error callback*/
  huart->ErrorCallback(huart);
 8006e9a:	33a4      	adds	r3, #164	@ 0xa4
 8006e9c:	58c3      	ldr	r3, [r0, r3]
 8006e9e:	4798      	blx	r3
#else
  /*Call legacy weak error callback*/
  HAL_UART_ErrorCallback(huart);
#endif /* USE_HAL_UART_REGISTER_CALLBACKS */
}
 8006ea0:	bd10      	pop	{r4, pc}
 8006ea2:	46c0      	nop			@ (mov r8, r8)

08006ea4 <HAL_UART_AbortReceiveCpltCallback>:
__weak void HAL_UART_AbortReceiveCpltCallback(UART_HandleTypeDef *huart)
 8006ea4:	4770      	bx	lr
 8006ea6:	46c0      	nop			@ (mov r8, r8)

08006ea8 <HAL_UART_TxCpltCallback>:
__weak void HAL_UART_TxCpltCallback(UART_HandleTypeDef *huart)
 8006ea8:	4770      	bx	lr
 8006eaa:	46c0      	nop			@ (mov r8, r8)

08006eac <HAL_UART_TxHalfCpltCallback>:
__weak void HAL_UART_TxHalfCpltCallback(UART_HandleTypeDef *huart)
 8006eac:	4770      	bx	lr
 8006eae:	46c0      	nop			@ (mov r8, r8)

08006eb0 <HAL_UART_RxCpltCallback>:
__weak void HAL_UART_RxCpltCallback(UART_HandleTypeDef *huart)
 8006eb0:	4770      	bx	lr
 8006eb2:	46c0      	nop			@ (mov r8, r8)

08006eb4 <HAL_UART_RxHalfCpltCallback>:
__weak void HAL_UART_RxHalfCpltCallback(UART_HandleTypeDef *huart)
 8006eb4:	4770      	bx	lr
 8006eb6:	46c0      	nop			@ (mov r8, r8)

08006eb8 <HAL_UART_ErrorCallback>:
__weak void HAL_UART_ErrorCallback(UART_HandleTypeDef *huart)
 8006eb8:	4770      	bx	lr
 8006eba:	46c0      	nop			@ (mov r8, r8)

08006ebc <HAL_UART_AbortCpltCallback>:
__weak void HAL_UART_AbortCpltCallback(UART_HandleTypeDef *huart)
 8006ebc:	4770      	bx	lr
 8006ebe:	46c0      	nop			@ (mov r8, r8)

08006ec0 <HAL_UART_AbortTransmitCpltCallback>:
__weak void HAL_UART_AbortTransmitCpltCallback(UART_HandleTypeDef *huart)
 8006ec0:	4770      	bx	lr
 8006ec2:	46c0      	nop			@ (mov r8, r8)

08006ec4 <UART_DMAError>:
{
 8006ec4:	b5f8      	push	{r3, r4, r5, r6, r7, lr}
  const HAL_UART_StateTypeDef gstate = huart->gState;
 8006ec6:	2188      	movs	r1, #136	@ 0x88
  const HAL_UART_StateTypeDef rxstate = huart->RxState;
 8006ec8:	238c      	movs	r3, #140	@ 0x8c
  UART_HandleTypeDef *huart = (UART_HandleTypeDef *)(hdma->Parent);
 8006eca:	6a80      	ldr	r0, [r0, #40]	@ 0x28
  const HAL_UART_StateTypeDef gstate = huart->gState;
 8006ecc:	5845      	ldr	r5, [r0, r1]
  const HAL_UART_StateTypeDef rxstate = huart->RxState;
 8006ece:	58c4      	ldr	r4, [r0, r3]
  if ((HAL_IS_BIT_SET(huart->Instance->CR3, USART_CR3_DMAT)) &&
 8006ed0:	6803      	ldr	r3, [r0, #0]
 8006ed2:	689a      	ldr	r2, [r3, #8]
 8006ed4:	0612      	lsls	r2, r2, #24
 8006ed6:	d501      	bpl.n	8006edc <UART_DMAError+0x18>
 8006ed8:	2d21      	cmp	r5, #33	@ 0x21
 8006eda:	d00d      	beq.n	8006ef8 <UART_DMAError+0x34>
  if ((HAL_IS_BIT_SET(huart->Instance->CR3, USART_CR3_DMAR)) &&
 8006edc:	689b      	ldr	r3, [r3, #8]
 8006ede:	065b      	lsls	r3, r3, #25
 8006ee0:	d501      	bpl.n	8006ee6 <UART_DMAError+0x22>
 8006ee2:	2c22      	cmp	r4, #34	@ 0x22
 8006ee4:	d026      	beq.n	8006f34 <UART_DMAError+0x70>
  huart->ErrorCode |= HAL_UART_ERROR_DMA;
 8006ee6:	2290      	movs	r2, #144	@ 0x90
 8006ee8:	2110      	movs	r1, #16
 8006eea:	5883      	ldr	r3, [r0, r2]
 8006eec:	430b      	orrs	r3, r1
 8006eee:	5083      	str	r3, [r0, r2]
  huart->ErrorCallback(huart);
 8006ef0:	23a4      	movs	r3, #164	@ 0xa4
 8006ef2:	58c3      	ldr	r3, [r0, r3]
 8006ef4:	4798      	blx	r3
}
 8006ef6:	bdf8      	pop	{r3, r4, r5, r6, r7, pc}
    huart->TxXferCount = 0U;
 8006ef8:	2356      	movs	r3, #86	@ 0x56
 8006efa:	2200      	movs	r2, #0
 8006efc:	52c2      	strh	r2, [r0, r3]
  __ASM volatile ("MRS %0, primask" : "=r" (result) :: "memory");
 8006efe:	f3ef 8610 	mrs	r6, PRIMASK
  __ASM volatile ("MSR primask, %0" : : "r" (priMask) : "memory");
 8006f02:	3201      	adds	r2, #1
 8006f04:	f382 8810 	msr	PRIMASK, r2
  ATOMIC_CLEAR_BIT(huart->Instance->CR1, (USART_CR1_TXEIE_TXFNFIE | USART_CR1_TCIE));
 8006f08:	27c0      	movs	r7, #192	@ 0xc0
 8006f0a:	6805      	ldr	r5, [r0, #0]
 8006f0c:	682b      	ldr	r3, [r5, #0]
 8006f0e:	43bb      	bics	r3, r7
 8006f10:	602b      	str	r3, [r5, #0]
 8006f12:	f386 8810 	msr	PRIMASK, r6
  __ASM volatile ("MRS %0, primask" : "=r" (result) :: "memory");
 8006f16:	f3ef 8510 	mrs	r5, PRIMASK
  __ASM volatile ("MSR primask, %0" : : "r" (priMask) : "memory");
 8006f1a:	f382 8810 	msr	PRIMASK, r2
  ATOMIC_CLEAR_BIT(huart->Instance->CR3, (USART_CR3_TXFTIE));
 8006f1e:	6802      	ldr	r2, [r0, #0]
 8006f20:	4e1c      	ldr	r6, [pc, #112]	@ (8006f94 <UART_DMAError+0xd0>)
 8006f22:	6893      	ldr	r3, [r2, #8]
 8006f24:	4033      	ands	r3, r6
 8006f26:	6093      	str	r3, [r2, #8]
 8006f28:	f385 8810 	msr	PRIMASK, r5
  huart->gState = HAL_UART_STATE_READY;
 8006f2c:	2320      	movs	r3, #32
 8006f2e:	5043      	str	r3, [r0, r1]
  if ((HAL_IS_BIT_SET(huart->Instance->CR3, USART_CR3_DMAR)) &&
 8006f30:	6803      	ldr	r3, [r0, #0]
}
 8006f32:	e7d3      	b.n	8006edc <UART_DMAError+0x18>
    huart->RxXferCount = 0U;
 8006f34:	235e      	movs	r3, #94	@ 0x5e
 8006f36:	2200      	movs	r2, #0
 8006f38:	52c2      	strh	r2, [r0, r3]
  __ASM volatile ("MRS %0, primask" : "=r" (result) :: "memory");
 8006f3a:	f3ef 8410 	mrs	r4, PRIMASK
  __ASM volatile ("MSR primask, %0" : : "r" (priMask) : "memory");
 8006f3e:	3201      	adds	r2, #1
 8006f40:	f382 8810 	msr	PRIMASK, r2
  ATOMIC_CLEAR_BIT(huart->Instance->CR1, (USART_CR1_RXNEIE_RXFNEIE | USART_CR1_PEIE));
 8006f44:	6801      	ldr	r1, [r0, #0]
 8006f46:	4d14      	ldr	r5, [pc, #80]	@ (8006f98 <UART_DMAError+0xd4>)
 8006f48:	680b      	ldr	r3, [r1, #0]
 8006f4a:	402b      	ands	r3, r5
 8006f4c:	600b      	str	r3, [r1, #0]
 8006f4e:	f384 8810 	msr	PRIMASK, r4
  __ASM volatile ("MRS %0, primask" : "=r" (result) :: "memory");
 8006f52:	f3ef 8110 	mrs	r1, PRIMASK
  __ASM volatile ("MSR primask, %0" : : "r" (priMask) : "memory");
 8006f56:	f382 8810 	msr	PRIMASK, r2
  ATOMIC_CLEAR_BIT(huart->Instance->CR3, (USART_CR3_EIE | USART_CR3_RXFTIE));
 8006f5a:	6802      	ldr	r2, [r0, #0]
 8006f5c:	4c0f      	ldr	r4, [pc, #60]	@ (8006f9c <UART_DMAError+0xd8>)
 8006f5e:	6893      	ldr	r3, [r2, #8]
 8006f60:	4023      	ands	r3, r4
 8006f62:	6093      	str	r3, [r2, #8]
 8006f64:	f381 8810 	msr	PRIMASK, r1
  if (huart->ReceptionType == HAL_UART_RECEPTION_TOIDLE)
 8006f68:	6ec3      	ldr	r3, [r0, #108]	@ 0x6c
 8006f6a:	2b01      	cmp	r3, #1
 8006f6c:	d10a      	bne.n	8006f84 <UART_DMAError+0xc0>
  __ASM volatile ("MRS %0, primask" : "=r" (result) :: "memory");
 8006f6e:	f3ef 8110 	mrs	r1, PRIMASK
  __ASM volatile ("MSR primask, %0" : : "r" (priMask) : "memory");
 8006f72:	f383 8810 	msr	PRIMASK, r3
    ATOMIC_CLEAR_BIT(huart->Instance->CR1, USART_CR1_IDLEIE);
 8006f76:	2410      	movs	r4, #16
 8006f78:	6802      	ldr	r2, [r0, #0]
 8006f7a:	6813      	ldr	r3, [r2, #0]
 8006f7c:	43a3      	bics	r3, r4
 8006f7e:	6013      	str	r3, [r2, #0]
 8006f80:	f381 8810 	msr	PRIMASK, r1
  huart->RxState = HAL_UART_STATE_READY;
 8006f84:	238c      	movs	r3, #140	@ 0x8c
 8006f86:	2220      	movs	r2, #32
 8006f88:	50c2      	str	r2, [r0, r3]
  huart->ReceptionType = HAL_UART_RECEPTION_STANDARD;
 8006f8a:	2300      	movs	r3, #0
 8006f8c:	66c3      	str	r3, [r0, #108]	@ 0x6c
  huart->RxISR = NULL;
 8006f8e:	6743      	str	r3, [r0, #116]	@ 0x74
}
 8006f90:	e7a9      	b.n	8006ee6 <UART_DMAError+0x22>
 8006f92:	46c0      	nop			@ (mov r8, r8)
 8006f94:	ff7fffff 	.word	0xff7fffff
 8006f98:	fffffedf 	.word	0xfffffedf
 8006f9c:	effffffe 	.word	0xeffffffe

08006fa0 <HAL_UART_RegisterCallback>:
{
 8006fa0:	b510      	push	{r4, lr}
  if (pCallback == NULL)
 8006fa2:	2a00      	cmp	r2, #0
 8006fa4:	d006      	beq.n	8006fb4 <HAL_UART_RegisterCallback+0x14>
  if (huart->gState == HAL_UART_STATE_READY)
 8006fa6:	2388      	movs	r3, #136	@ 0x88
 8006fa8:	58c4      	ldr	r4, [r0, r3]
 8006faa:	2c20      	cmp	r4, #32
 8006fac:	d011      	beq.n	8006fd2 <HAL_UART_RegisterCallback+0x32>
  else if (huart->gState == HAL_UART_STATE_RESET)
 8006fae:	58c3      	ldr	r3, [r0, r3]
 8006fb0:	2b00      	cmp	r3, #0
 8006fb2:	d006      	beq.n	8006fc2 <HAL_UART_RegisterCallback+0x22>
        huart->ErrorCode |= HAL_UART_ERROR_INVALID_CALLBACK;
 8006fb4:	2290      	movs	r2, #144	@ 0x90
 8006fb6:	2140      	movs	r1, #64	@ 0x40
 8006fb8:	5883      	ldr	r3, [r0, r2]
 8006fba:	430b      	orrs	r3, r1
 8006fbc:	5083      	str	r3, [r0, r2]
    return HAL_ERROR;
 8006fbe:	2001      	movs	r0, #1
}
 8006fc0:	bd10      	pop	{r4, pc}
    switch (CallbackID)
 8006fc2:	290b      	cmp	r1, #11
 8006fc4:	d00b      	beq.n	8006fde <HAL_UART_RegisterCallback+0x3e>
 8006fc6:	290c      	cmp	r1, #12
 8006fc8:	d1f4      	bne.n	8006fb4 <HAL_UART_RegisterCallback+0x14>
        huart->MspDeInitCallback = pCallback;
 8006fca:	23c8      	movs	r3, #200	@ 0xc8
 8006fcc:	50c2      	str	r2, [r0, r3]
  HAL_StatusTypeDef status = HAL_OK;
 8006fce:	2000      	movs	r0, #0
 8006fd0:	e7f6      	b.n	8006fc0 <HAL_UART_RegisterCallback+0x20>
    switch (CallbackID)
 8006fd2:	290c      	cmp	r1, #12
 8006fd4:	d8ee      	bhi.n	8006fb4 <HAL_UART_RegisterCallback+0x14>
 8006fd6:	4b1a      	ldr	r3, [pc, #104]	@ (8007040 <HAL_UART_RegisterCallback+0xa0>)
 8006fd8:	0089      	lsls	r1, r1, #2
 8006fda:	585b      	ldr	r3, [r3, r1]
 8006fdc:	469f      	mov	pc, r3
        huart->MspInitCallback = pCallback;
 8006fde:	23c4      	movs	r3, #196	@ 0xc4
 8006fe0:	50c2      	str	r2, [r0, r3]
  HAL_StatusTypeDef status = HAL_OK;
 8006fe2:	2000      	movs	r0, #0
 8006fe4:	e7ec      	b.n	8006fc0 <HAL_UART_RegisterCallback+0x20>
        huart->RxHalfCpltCallback = pCallback;
 8006fe6:	239c      	movs	r3, #156	@ 0x9c
 8006fe8:	50c2      	str	r2, [r0, r3]
  HAL_StatusTypeDef status = HAL_OK;
 8006fea:	2000      	movs	r0, #0
 8006fec:	e7e8      	b.n	8006fc0 <HAL_UART_RegisterCallback+0x20>
        huart->RxCpltCallback = pCallback;
 8006fee:	23a0      	movs	r3, #160	@ 0xa0
 8006ff0:	50c2      	str	r2, [r0, r3]
  HAL_StatusTypeDef status = HAL_OK;
 8006ff2:	2000      	movs	r0, #0
 8006ff4:	e7e4      	b.n	8006fc0 <HAL_UART_RegisterCallback+0x20>
        huart->ErrorCallback = pCallback;
 8006ff6:	23a4      	movs	r3, #164	@ 0xa4
 8006ff8:	50c2      	str	r2, [r0, r3]
  HAL_StatusTypeDef status = HAL_OK;
 8006ffa:	2000      	movs	r0, #0
 8006ffc:	e7e0      	b.n	8006fc0 <HAL_UART_RegisterCallback+0x20>
        huart->AbortCpltCallback = pCallback;
 8006ffe:	23a8      	movs	r3, #168	@ 0xa8
 8007000:	50c2      	str	r2, [r0, r3]
  HAL_StatusTypeDef status = HAL_OK;
 8007002:	2000      	movs	r0, #0
 8007004:	e7dc      	b.n	8006fc0 <HAL_UART_RegisterCallback+0x20>
        huart->AbortTransmitCpltCallback = pCallback;
 8007006:	23ac      	movs	r3, #172	@ 0xac
 8007008:	50c2      	str	r2, [r0, r3]
  HAL_StatusTypeDef status = HAL_OK;
 800700a:	2000      	movs	r0, #0
 800700c:	e7d8      	b.n	8006fc0 <HAL_UART_RegisterCallback+0x20>
        huart->AbortReceiveCpltCallback = pCallback;
 800700e:	23b0      	movs	r3, #176	@ 0xb0
 8007010:	50c2      	str	r2, [r0, r3]
  HAL_StatusTypeDef status = HAL_OK;
 8007012:	2000      	movs	r0, #0
 8007014:	e7d4      	b.n	8006fc0 <HAL_UART_RegisterCallback+0x20>
        huart->WakeupCallback = pCallback;
 8007016:	23b4      	movs	r3, #180	@ 0xb4
 8007018:	50c2      	str	r2, [r0, r3]
  HAL_StatusTypeDef status = HAL_OK;
 800701a:	2000      	movs	r0, #0
 800701c:	e7d0      	b.n	8006fc0 <HAL_UART_RegisterCallback+0x20>
        huart->RxFifoFullCallback = pCallback;
 800701e:	23b8      	movs	r3, #184	@ 0xb8
 8007020:	50c2      	str	r2, [r0, r3]
  HAL_StatusTypeDef status = HAL_OK;
 8007022:	2000      	movs	r0, #0
 8007024:	e7cc      	b.n	8006fc0 <HAL_UART_RegisterCallback+0x20>
        huart->TxHalfCpltCallback = pCallback;
 8007026:	2394      	movs	r3, #148	@ 0x94
 8007028:	50c2      	str	r2, [r0, r3]
  HAL_StatusTypeDef status = HAL_OK;
 800702a:	2000      	movs	r0, #0
 800702c:	e7c8      	b.n	8006fc0 <HAL_UART_RegisterCallback+0x20>
        huart->TxCpltCallback = pCallback;
 800702e:	2398      	movs	r3, #152	@ 0x98
 8007030:	50c2      	str	r2, [r0, r3]
  HAL_StatusTypeDef status = HAL_OK;
 8007032:	2000      	movs	r0, #0
 8007034:	e7c4      	b.n	8006fc0 <HAL_UART_RegisterCallback+0x20>
        huart->TxFifoEmptyCallback = pCallback;
 8007036:	23bc      	movs	r3, #188	@ 0xbc
 8007038:	50c2      	str	r2, [r0, r3]
  HAL_StatusTypeDef status = HAL_OK;
 800703a:	2000      	movs	r0, #0
 800703c:	e7c0      	b.n	8006fc0 <HAL_UART_RegisterCallback+0x20>
 800703e:	46c0      	nop			@ (mov r8, r8)
 8007040:	08008738 	.word	0x08008738

08007044 <HAL_UART_Receive_DMA>:
{
 8007044:	b5f8      	push	{r3, r4, r5, r6, r7, lr}
 8007046:	000d      	movs	r5, r1
  if (huart->RxState == HAL_UART_STATE_READY)
 8007048:	218c      	movs	r1, #140	@ 0x8c
 800704a:	5841      	ldr	r1, [r0, r1]
{
 800704c:	0004      	movs	r4, r0
  if (huart->RxState == HAL_UART_STATE_READY)
 800704e:	2920      	cmp	r1, #32
 8007050:	d160      	bne.n	8007114 <HAL_UART_Receive_DMA+0xd0>
    if ((pData == NULL) || (Size == 0U))
 8007052:	2d00      	cmp	r5, #0
 8007054:	d041      	beq.n	80070da <HAL_UART_Receive_DMA+0x96>
 8007056:	2a00      	cmp	r2, #0
 8007058:	d03f      	beq.n	80070da <HAL_UART_Receive_DMA+0x96>
    if ((huart->Init.WordLength == UART_WORDLENGTH_9B) && (huart->Init.Parity == UART_PARITY_NONE))
 800705a:	2380      	movs	r3, #128	@ 0x80
 800705c:	6881      	ldr	r1, [r0, #8]
 800705e:	015b      	lsls	r3, r3, #5
 8007060:	4299      	cmp	r1, r3
 8007062:	d104      	bne.n	800706e <HAL_UART_Receive_DMA+0x2a>
 8007064:	6903      	ldr	r3, [r0, #16]
 8007066:	2b00      	cmp	r3, #0
 8007068:	d101      	bne.n	800706e <HAL_UART_Receive_DMA+0x2a>
      if ((((uint32_t)pData) & 1U) != 0U)
 800706a:	07eb      	lsls	r3, r5, #31
 800706c:	d435      	bmi.n	80070da <HAL_UART_Receive_DMA+0x96>
    huart->ReceptionType = HAL_UART_RECEPTION_STANDARD;
 800706e:	2300      	movs	r3, #0
    if (!(IS_LPUART_INSTANCE(huart->Instance)))
 8007070:	4930      	ldr	r1, [pc, #192]	@ (8007134 <HAL_UART_Receive_DMA+0xf0>)
    huart->ReceptionType = HAL_UART_RECEPTION_STANDARD;
 8007072:	66e3      	str	r3, [r4, #108]	@ 0x6c
    if (!(IS_LPUART_INSTANCE(huart->Instance)))
 8007074:	6823      	ldr	r3, [r4, #0]
 8007076:	428b      	cmp	r3, r1
 8007078:	d00f      	beq.n	800709a <HAL_UART_Receive_DMA+0x56>
      if (READ_BIT(huart->Instance->CR2, USART_CR2_RTOEN) != 0U)
 800707a:	685b      	ldr	r3, [r3, #4]
 800707c:	021b      	lsls	r3, r3, #8
 800707e:	d50c      	bpl.n	800709a <HAL_UART_Receive_DMA+0x56>
  __ASM volatile ("MRS %0, primask" : "=r" (result) :: "memory");
 8007080:	f3ef 8010 	mrs	r0, PRIMASK
  __ASM volatile ("MSR primask, %0" : : "r" (priMask) : "memory");
 8007084:	2301      	movs	r3, #1
 8007086:	f383 8810 	msr	PRIMASK, r3
        ATOMIC_SET_BIT(huart->Instance->CR1, USART_CR1_RTOIE);
 800708a:	2380      	movs	r3, #128	@ 0x80
 800708c:	6821      	ldr	r1, [r4, #0]
 800708e:	04db      	lsls	r3, r3, #19
 8007090:	680e      	ldr	r6, [r1, #0]
 8007092:	4333      	orrs	r3, r6
 8007094:	600b      	str	r3, [r1, #0]
 8007096:	f380 8810 	msr	PRIMASK, r0
  huart->RxXferSize = Size;
 800709a:	235c      	movs	r3, #92	@ 0x5c
  huart->pRxBuffPtr = pData;
 800709c:	65a5      	str	r5, [r4, #88]	@ 0x58
  huart->RxState = HAL_UART_STATE_BUSY_RX;
 800709e:	2122      	movs	r1, #34	@ 0x22
  huart->RxXferSize = Size;
 80070a0:	52e2      	strh	r2, [r4, r3]
  huart->ErrorCode = HAL_UART_ERROR_NONE;
 80070a2:	2790      	movs	r7, #144	@ 0x90
 80070a4:	2300      	movs	r3, #0
  huart->RxState = HAL_UART_STATE_BUSY_RX;
 80070a6:	268c      	movs	r6, #140	@ 0x8c
  huart->ErrorCode = HAL_UART_ERROR_NONE;
 80070a8:	51e3      	str	r3, [r4, r7]
  huart->RxState = HAL_UART_STATE_BUSY_RX;
 80070aa:	51a1      	str	r1, [r4, r6]
  if (huart->hdmarx != NULL)
 80070ac:	315e      	adds	r1, #94	@ 0x5e
 80070ae:	5860      	ldr	r0, [r4, r1]
 80070b0:	2800      	cmp	r0, #0
 80070b2:	d014      	beq.n	80070de <HAL_UART_Receive_DMA+0x9a>
    huart->hdmarx->XferCpltCallback = UART_DMAReceiveCplt;
 80070b4:	4920      	ldr	r1, [pc, #128]	@ (8007138 <HAL_UART_Receive_DMA+0xf4>)
    huart->hdmarx->XferAbortCallback = NULL;
 80070b6:	6383      	str	r3, [r0, #56]	@ 0x38
    huart->hdmarx->XferCpltCallback = UART_DMAReceiveCplt;
 80070b8:	62c1      	str	r1, [r0, #44]	@ 0x2c
    huart->hdmarx->XferHalfCpltCallback = UART_DMARxHalfCplt;
 80070ba:	4920      	ldr	r1, [pc, #128]	@ (800713c <HAL_UART_Receive_DMA+0xf8>)
    if (HAL_DMA_Start_IT(huart->hdmarx, (uint32_t)&huart->Instance->RDR, (uint32_t)huart->pRxBuffPtr, Size) != HAL_OK)
 80070bc:	0013      	movs	r3, r2
    huart->hdmarx->XferHalfCpltCallback = UART_DMARxHalfCplt;
 80070be:	6301      	str	r1, [r0, #48]	@ 0x30
    huart->hdmarx->XferErrorCallback = UART_DMAError;
 80070c0:	491f      	ldr	r1, [pc, #124]	@ (8007140 <HAL_UART_Receive_DMA+0xfc>)
    if (HAL_DMA_Start_IT(huart->hdmarx, (uint32_t)&huart->Instance->RDR, (uint32_t)huart->pRxBuffPtr, Size) != HAL_OK)
 80070c2:	002a      	movs	r2, r5
    huart->hdmarx->XferErrorCallback = UART_DMAError;
 80070c4:	6341      	str	r1, [r0, #52]	@ 0x34
    if (HAL_DMA_Start_IT(huart->hdmarx, (uint32_t)&huart->Instance->RDR, (uint32_t)huart->pRxBuffPtr, Size) != HAL_OK)
 80070c6:	6821      	ldr	r1, [r4, #0]
 80070c8:	3124      	adds	r1, #36	@ 0x24
 80070ca:	f7fc ffdd 	bl	8004088 <HAL_DMA_Start_IT>
 80070ce:	2800      	cmp	r0, #0
 80070d0:	d005      	beq.n	80070de <HAL_UART_Receive_DMA+0x9a>
      huart->ErrorCode = HAL_UART_ERROR_DMA;
 80070d2:	2310      	movs	r3, #16
 80070d4:	51e3      	str	r3, [r4, r7]
      huart->RxState = HAL_UART_STATE_READY;
 80070d6:	3310      	adds	r3, #16
 80070d8:	51a3      	str	r3, [r4, r6]
      return HAL_ERROR;
 80070da:	2001      	movs	r0, #1
 80070dc:	e019      	b.n	8007112 <HAL_UART_Receive_DMA+0xce>
  if (huart->Init.Parity != UART_PARITY_NONE)
 80070de:	6923      	ldr	r3, [r4, #16]
 80070e0:	2b00      	cmp	r3, #0
 80070e2:	d119      	bne.n	8007118 <HAL_UART_Receive_DMA+0xd4>
  __ASM volatile ("MRS %0, primask" : "=r" (result) :: "memory");
 80070e4:	f3ef 8010 	mrs	r0, PRIMASK
  __ASM volatile ("MSR primask, %0" : : "r" (priMask) : "memory");
 80070e8:	2301      	movs	r3, #1
 80070ea:	f383 8810 	msr	PRIMASK, r3
  ATOMIC_SET_BIT(huart->Instance->CR3, USART_CR3_EIE);
 80070ee:	6821      	ldr	r1, [r4, #0]
 80070f0:	688a      	ldr	r2, [r1, #8]
 80070f2:	431a      	orrs	r2, r3
 80070f4:	608a      	str	r2, [r1, #8]
 80070f6:	f380 8810 	msr	PRIMASK, r0
  __ASM volatile ("MRS %0, primask" : "=r" (result) :: "memory");
 80070fa:	f3ef 8110 	mrs	r1, PRIMASK
  __ASM volatile ("MSR primask, %0" : : "r" (priMask) : "memory");
 80070fe:	f383 8810 	msr	PRIMASK, r3
  ATOMIC_SET_BIT(huart->Instance->CR3, USART_CR3_DMAR);
 8007102:	2040      	movs	r0, #64	@ 0x40
 8007104:	6822      	ldr	r2, [r4, #0]
 8007106:	6893      	ldr	r3, [r2, #8]
 8007108:	4303      	orrs	r3, r0
 800710a:	6093      	str	r3, [r2, #8]
 800710c:	f381 8810 	msr	PRIMASK, r1
  return HAL_OK;
 8007110:	2000      	movs	r0, #0
}
 8007112:	bdf8      	pop	{r3, r4, r5, r6, r7, pc}
    return HAL_BUSY;
 8007114:	2002      	movs	r0, #2
 8007116:	e7fc      	b.n	8007112 <HAL_UART_Receive_DMA+0xce>
  __ASM volatile ("MRS %0, primask" : "=r" (result) :: "memory");
 8007118:	f3ef 8110 	mrs	r1, PRIMASK
  __ASM volatile ("MSR primask, %0" : : "r" (priMask) : "memory");
 800711c:	2301      	movs	r3, #1
 800711e:	f383 8810 	msr	PRIMASK, r3
    ATOMIC_SET_BIT(huart->Instance->CR1, USART_CR1_PEIE);
 8007122:	6822      	ldr	r2, [r4, #0]
 8007124:	33ff      	adds	r3, #255	@ 0xff
 8007126:	6810      	ldr	r0, [r2, #0]
 8007128:	4303      	orrs	r3, r0
 800712a:	6013      	str	r3, [r2, #0]
 800712c:	f381 8810 	msr	PRIMASK, r1
}
 8007130:	e7d8      	b.n	80070e4 <HAL_UART_Receive_DMA+0xa0>
 8007132:	46c0      	nop			@ (mov r8, r8)
 8007134:	40008000 	.word	0x40008000
 8007138:	08006dc9 	.word	0x08006dc9
 800713c:	08006e69 	.word	0x08006e69
 8007140:	08006ec5 	.word	0x08006ec5

08007144 <HAL_UART_IRQHandler>:
{
 8007144:	b5f8      	push	{r3, r4, r5, r6, r7, lr}
 8007146:	4645      	mov	r5, r8
 8007148:	46de      	mov	lr, fp
 800714a:	4657      	mov	r7, sl
 800714c:	464e      	mov	r6, r9
  uint32_t isrflags   = READ_REG(huart->Instance->ISR);
 800714e:	6802      	ldr	r2, [r0, #0]
{
 8007150:	b5e0      	push	{r5, r6, r7, lr}
  uint32_t isrflags   = READ_REG(huart->Instance->ISR);
 8007152:	69d3      	ldr	r3, [r2, #28]
  errorflags = (isrflags & (uint32_t)(USART_ISR_PE | USART_ISR_FE | USART_ISR_ORE | USART_ISR_NE | USART_ISR_RTOF));
 8007154:	4db2      	ldr	r5, [pc, #712]	@ (8007420 <HAL_UART_IRQHandler+0x2dc>)
{
 8007156:	0004      	movs	r4, r0
  uint32_t cr1its     = READ_REG(huart->Instance->CR1);
 8007158:	6810      	ldr	r0, [r2, #0]
  uint32_t cr3its     = READ_REG(huart->Instance->CR3);
 800715a:	6891      	ldr	r1, [r2, #8]
  if (errorflags == 0U)
 800715c:	422b      	tst	r3, r5
 800715e:	d14e      	bne.n	80071fe <HAL_UART_IRQHandler+0xba>
    if (((isrflags & USART_ISR_RXNE_RXFNE) != 0U)
 8007160:	2520      	movs	r5, #32
 8007162:	421d      	tst	r5, r3
 8007164:	d006      	beq.n	8007174 <HAL_UART_IRQHandler+0x30>
            || ((cr3its & USART_CR3_RXFTIE) != 0U)))
 8007166:	2680      	movs	r6, #128	@ 0x80
 8007168:	0576      	lsls	r6, r6, #21
        && (((cr1its & USART_CR1_RXNEIE_RXFNEIE) != 0U)
 800716a:	4005      	ands	r5, r0
            || ((cr3its & USART_CR3_RXFTIE) != 0U)))
 800716c:	400e      	ands	r6, r1
 800716e:	4335      	orrs	r5, r6
 8007170:	d000      	beq.n	8007174 <HAL_UART_IRQHandler+0x30>
 8007172:	e0d5      	b.n	8007320 <HAL_UART_IRQHandler+0x1dc>
  if ((huart->ReceptionType == HAL_UART_RECEPTION_TOIDLE)
 8007174:	6ee5      	ldr	r5, [r4, #108]	@ 0x6c
 8007176:	2d01      	cmp	r5, #1
 8007178:	d100      	bne.n	800717c <HAL_UART_IRQHandler+0x38>
 800717a:	e09e      	b.n	80072ba <HAL_UART_IRQHandler+0x176>
  if (((isrflags & USART_ISR_WUF) != 0U) && ((cr3its & USART_CR3_WUFIE) != 0U))
 800717c:	2580      	movs	r5, #128	@ 0x80
 800717e:	036d      	lsls	r5, r5, #13
 8007180:	422b      	tst	r3, r5
 8007182:	d128      	bne.n	80071d6 <HAL_UART_IRQHandler+0x92>
  if (((isrflags & USART_ISR_TXE_TXFNF) != 0U)
 8007184:	2280      	movs	r2, #128	@ 0x80
 8007186:	421a      	tst	r2, r3
 8007188:	d006      	beq.n	8007198 <HAL_UART_IRQHandler+0x54>
          || ((cr3its & USART_CR3_TXFTIE) != 0U)))
 800718a:	2580      	movs	r5, #128	@ 0x80
 800718c:	042d      	lsls	r5, r5, #16
      && (((cr1its & USART_CR1_TXEIE_TXFNFIE) != 0U)
 800718e:	4002      	ands	r2, r0
          || ((cr3its & USART_CR3_TXFTIE) != 0U)))
 8007190:	4029      	ands	r1, r5
 8007192:	430a      	orrs	r2, r1
 8007194:	d000      	beq.n	8007198 <HAL_UART_IRQHandler+0x54>
 8007196:	e0ca      	b.n	800732e <HAL_UART_IRQHandler+0x1ea>
  if (((isrflags & USART_ISR_TC) != 0U) && ((cr1its & USART_CR1_TCIE) != 0U))
 8007198:	2240      	movs	r2, #64	@ 0x40
 800719a:	421a      	tst	r2, r3
 800719c:	d023      	beq.n	80071e6 <HAL_UART_IRQHandler+0xa2>
 800719e:	4202      	tst	r2, r0
 80071a0:	d021      	beq.n	80071e6 <HAL_UART_IRQHandler+0xa2>
  __ASM volatile ("MRS %0, primask" : "=r" (result) :: "memory");
 80071a2:	f3ef 8010 	mrs	r0, PRIMASK
  __ASM volatile ("MSR primask, %0" : : "r" (priMask) : "memory");
 80071a6:	2301      	movs	r3, #1
 80071a8:	f383 8810 	msr	PRIMASK, r3
  * @retval None
  */
static void UART_EndTransmit_IT(UART_HandleTypeDef *huart)
{
  /* Disable the UART Transmit Complete Interrupt */
  ATOMIC_CLEAR_BIT(huart->Instance->CR1, USART_CR1_TCIE);
 80071ac:	6821      	ldr	r1, [r4, #0]
 80071ae:	680b      	ldr	r3, [r1, #0]
 80071b0:	4393      	bics	r3, r2
 80071b2:	600b      	str	r3, [r1, #0]
 80071b4:	f380 8810 	msr	PRIMASK, r0

  /* Tx process is ended, restore huart->gState to Ready */
  huart->gState = HAL_UART_STATE_READY;
 80071b8:	2388      	movs	r3, #136	@ 0x88
 80071ba:	3a20      	subs	r2, #32
 80071bc:	50e2      	str	r2, [r4, r3]

  /* Cleat TxISR function pointer */
  huart->TxISR = NULL;
 80071be:	2300      	movs	r3, #0
 80071c0:	67a3      	str	r3, [r4, #120]	@ 0x78

#if (USE_HAL_UART_REGISTER_CALLBACKS == 1)
  /*Call registered Tx complete callback*/
  huart->TxCpltCallback(huart);
 80071c2:	3398      	adds	r3, #152	@ 0x98
 80071c4:	0020      	movs	r0, r4
 80071c6:	58e3      	ldr	r3, [r4, r3]
 80071c8:	4798      	blx	r3
}
 80071ca:	bcf0      	pop	{r4, r5, r6, r7}
 80071cc:	46bb      	mov	fp, r7
 80071ce:	46b2      	mov	sl, r6
 80071d0:	46a9      	mov	r9, r5
 80071d2:	46a0      	mov	r8, r4
 80071d4:	bdf8      	pop	{r3, r4, r5, r6, r7, pc}
  if (((isrflags & USART_ISR_WUF) != 0U) && ((cr3its & USART_CR3_WUFIE) != 0U))
 80071d6:	024e      	lsls	r6, r1, #9
 80071d8:	d5d4      	bpl.n	8007184 <HAL_UART_IRQHandler+0x40>
    huart->WakeupCallback(huart);
 80071da:	23b4      	movs	r3, #180	@ 0xb4
 80071dc:	0020      	movs	r0, r4
 80071de:	58e3      	ldr	r3, [r4, r3]
    __HAL_UART_CLEAR_FLAG(huart, UART_CLEAR_WUF);
 80071e0:	6215      	str	r5, [r2, #32]
    huart->WakeupCallback(huart);
 80071e2:	4798      	blx	r3
    return;
 80071e4:	e7f1      	b.n	80071ca <HAL_UART_IRQHandler+0x86>
  if (((isrflags & USART_ISR_TXFE) != 0U) && ((cr1its & USART_CR1_TXFEIE) != 0U))
 80071e6:	021a      	lsls	r2, r3, #8
 80071e8:	d502      	bpl.n	80071f0 <HAL_UART_IRQHandler+0xac>
 80071ea:	0042      	lsls	r2, r0, #1
 80071ec:	d500      	bpl.n	80071f0 <HAL_UART_IRQHandler+0xac>
 80071ee:	e112      	b.n	8007416 <HAL_UART_IRQHandler+0x2d2>
  if (((isrflags & USART_ISR_RXFF) != 0U) && ((cr1its & USART_CR1_RXFFIE) != 0U))
 80071f0:	01db      	lsls	r3, r3, #7
 80071f2:	d5ea      	bpl.n	80071ca <HAL_UART_IRQHandler+0x86>
 80071f4:	2800      	cmp	r0, #0
 80071f6:	dae8      	bge.n	80071ca <HAL_UART_IRQHandler+0x86>
    huart->RxFifoFullCallback(huart);
 80071f8:	23b8      	movs	r3, #184	@ 0xb8
 80071fa:	58e3      	ldr	r3, [r4, r3]
 80071fc:	e094      	b.n	8007328 <HAL_UART_IRQHandler+0x1e4>
      && ((((cr3its & (USART_CR3_RXFTIE | USART_CR3_EIE)) != 0U)
 80071fe:	000f      	movs	r7, r1
 8007200:	4d88      	ldr	r5, [pc, #544]	@ (8007424 <HAL_UART_IRQHandler+0x2e0>)
 8007202:	402f      	ands	r7, r5
 8007204:	4229      	tst	r1, r5
 8007206:	d000      	beq.n	800720a <HAL_UART_IRQHandler+0xc6>
 8007208:	e0af      	b.n	800736a <HAL_UART_IRQHandler+0x226>
           || ((cr1its & (USART_CR1_RXNEIE_RXFNEIE | USART_CR1_PEIE | USART_CR1_RTOIE)) != 0U))))
 800720a:	4d87      	ldr	r5, [pc, #540]	@ (8007428 <HAL_UART_IRQHandler+0x2e4>)
 800720c:	4228      	tst	r0, r5
 800720e:	d0b1      	beq.n	8007174 <HAL_UART_IRQHandler+0x30>
    if (((isrflags & USART_ISR_PE) != 0U) && ((cr1its & USART_CR1_PEIE) != 0U))
 8007210:	07dd      	lsls	r5, r3, #31
 8007212:	d51e      	bpl.n	8007252 <HAL_UART_IRQHandler+0x10e>
 8007214:	05c5      	lsls	r5, r0, #23
 8007216:	d400      	bmi.n	800721a <HAL_UART_IRQHandler+0xd6>
 8007218:	e08d      	b.n	8007336 <HAL_UART_IRQHandler+0x1f2>
      __HAL_UART_CLEAR_FLAG(huart, UART_CLEAR_PEF);
 800721a:	2501      	movs	r5, #1
 800721c:	46ac      	mov	ip, r5
 800721e:	6215      	str	r5, [r2, #32]
      huart->ErrorCode |= HAL_UART_ERROR_PE;
 8007220:	358f      	adds	r5, #143	@ 0x8f
 8007222:	46a8      	mov	r8, r5
 8007224:	4666      	mov	r6, ip
 8007226:	5965      	ldr	r5, [r4, r5]
 8007228:	4335      	orrs	r5, r6
 800722a:	4646      	mov	r6, r8
 800722c:	51a5      	str	r5, [r4, r6]
    if (((isrflags & USART_ISR_FE) != 0U) && ((cr3its & USART_CR3_EIE) != 0U))
 800722e:	2502      	movs	r5, #2
 8007230:	421d      	tst	r5, r3
 8007232:	d100      	bne.n	8007236 <HAL_UART_IRQHandler+0xf2>
 8007234:	e081      	b.n	800733a <HAL_UART_IRQHandler+0x1f6>
 8007236:	07ce      	lsls	r6, r1, #31
 8007238:	d50b      	bpl.n	8007252 <HAL_UART_IRQHandler+0x10e>
      __HAL_UART_CLEAR_FLAG(huart, UART_CLEAR_FEF);
 800723a:	6215      	str	r5, [r2, #32]
      huart->ErrorCode |= HAL_UART_ERROR_FE;
 800723c:	358e      	adds	r5, #142	@ 0x8e
 800723e:	2604      	movs	r6, #4
 8007240:	46ac      	mov	ip, r5
 8007242:	5965      	ldr	r5, [r4, r5]
 8007244:	46b0      	mov	r8, r6
 8007246:	4335      	orrs	r5, r6
 8007248:	4666      	mov	r6, ip
 800724a:	51a5      	str	r5, [r4, r6]
    if (((isrflags & USART_ISR_NE) != 0U) && ((cr3its & USART_CR3_EIE) != 0U))
 800724c:	4645      	mov	r5, r8
 800724e:	421d      	tst	r5, r3
 8007250:	d177      	bne.n	8007342 <HAL_UART_IRQHandler+0x1fe>
    if (((isrflags & USART_ISR_ORE) != 0U)
 8007252:	2608      	movs	r6, #8
 8007254:	421e      	tst	r6, r3
 8007256:	d008      	beq.n	800726a <HAL_UART_IRQHandler+0x126>
        && (((cr1its & USART_CR1_RXNEIE_RXFNEIE) != 0U) ||
 8007258:	2520      	movs	r5, #32
 800725a:	4005      	ands	r5, r0
 800725c:	433d      	orrs	r5, r7
 800725e:	d004      	beq.n	800726a <HAL_UART_IRQHandler+0x126>
      huart->ErrorCode |= HAL_UART_ERROR_ORE;
 8007260:	2790      	movs	r7, #144	@ 0x90
      __HAL_UART_CLEAR_FLAG(huart, UART_CLEAR_OREF);
 8007262:	6216      	str	r6, [r2, #32]
      huart->ErrorCode |= HAL_UART_ERROR_ORE;
 8007264:	59e5      	ldr	r5, [r4, r7]
 8007266:	4335      	orrs	r5, r6
 8007268:	51e5      	str	r5, [r4, r7]
    if (((isrflags & USART_ISR_RTOF) != 0U) && ((cr1its & USART_CR1_RTOIE) != 0U))
 800726a:	2580      	movs	r5, #128	@ 0x80
 800726c:	012d      	lsls	r5, r5, #4
 800726e:	422b      	tst	r3, r5
 8007270:	d007      	beq.n	8007282 <HAL_UART_IRQHandler+0x13e>
 8007272:	0146      	lsls	r6, r0, #5
 8007274:	d505      	bpl.n	8007282 <HAL_UART_IRQHandler+0x13e>
      huart->ErrorCode |= HAL_UART_ERROR_RTO;
 8007276:	2690      	movs	r6, #144	@ 0x90
 8007278:	2720      	movs	r7, #32
      __HAL_UART_CLEAR_FLAG(huart, UART_CLEAR_RTOF);
 800727a:	6215      	str	r5, [r2, #32]
      huart->ErrorCode |= HAL_UART_ERROR_RTO;
 800727c:	59a5      	ldr	r5, [r4, r6]
 800727e:	433d      	orrs	r5, r7
 8007280:	51a5      	str	r5, [r4, r6]
    if (huart->ErrorCode != HAL_UART_ERROR_NONE)
 8007282:	2590      	movs	r5, #144	@ 0x90
 8007284:	5965      	ldr	r5, [r4, r5]
 8007286:	2d00      	cmp	r5, #0
 8007288:	d09f      	beq.n	80071ca <HAL_UART_IRQHandler+0x86>
      if (((isrflags & USART_ISR_RXNE_RXFNE) != 0U)
 800728a:	2520      	movs	r5, #32
 800728c:	421d      	tst	r5, r3
 800728e:	d005      	beq.n	800729c <HAL_UART_IRQHandler+0x158>
              || ((cr3its & USART_CR3_RXFTIE) != 0U)))
 8007290:	2380      	movs	r3, #128	@ 0x80
 8007292:	055b      	lsls	r3, r3, #21
          && (((cr1its & USART_CR1_RXNEIE_RXFNEIE) != 0U)
 8007294:	4005      	ands	r5, r0
              || ((cr3its & USART_CR3_RXFTIE) != 0U)))
 8007296:	400b      	ands	r3, r1
 8007298:	431d      	orrs	r5, r3
 800729a:	d15f      	bne.n	800735c <HAL_UART_IRQHandler+0x218>
      errorcode = huart->ErrorCode;
 800729c:	2690      	movs	r6, #144	@ 0x90
      if ((HAL_IS_BIT_SET(huart->Instance->CR3, USART_CR3_DMAR)) ||
 800729e:	2540      	movs	r5, #64	@ 0x40
      errorcode = huart->ErrorCode;
 80072a0:	59a1      	ldr	r1, [r4, r6]
      if ((HAL_IS_BIT_SET(huart->Instance->CR3, USART_CR3_DMAR)) ||
 80072a2:	6893      	ldr	r3, [r2, #8]
 80072a4:	401d      	ands	r5, r3
          ((errorcode & (HAL_UART_ERROR_RTO | HAL_UART_ERROR_ORE)) != 0U))
 80072a6:	2328      	movs	r3, #40	@ 0x28
 80072a8:	400b      	ands	r3, r1
      if ((HAL_IS_BIT_SET(huart->Instance->CR3, USART_CR3_DMAR)) ||
 80072aa:	431d      	orrs	r5, r3
 80072ac:	d164      	bne.n	8007378 <HAL_UART_IRQHandler+0x234>
        huart->ErrorCallback(huart);
 80072ae:	23a4      	movs	r3, #164	@ 0xa4
 80072b0:	0020      	movs	r0, r4
 80072b2:	58e3      	ldr	r3, [r4, r3]
 80072b4:	4798      	blx	r3
        huart->ErrorCode = HAL_UART_ERROR_NONE;
 80072b6:	51a5      	str	r5, [r4, r6]
 80072b8:	e787      	b.n	80071ca <HAL_UART_IRQHandler+0x86>
      && ((isrflags & USART_ISR_IDLE) != 0U)
 80072ba:	2610      	movs	r6, #16
 80072bc:	421e      	tst	r6, r3
 80072be:	d100      	bne.n	80072c2 <HAL_UART_IRQHandler+0x17e>
 80072c0:	e75c      	b.n	800717c <HAL_UART_IRQHandler+0x38>
      && ((cr1its & USART_ISR_IDLE) != 0U))
 80072c2:	4206      	tst	r6, r0
 80072c4:	d100      	bne.n	80072c8 <HAL_UART_IRQHandler+0x184>
 80072c6:	e759      	b.n	800717c <HAL_UART_IRQHandler+0x38>
    if (HAL_IS_BIT_SET(huart->Instance->CR3, USART_CR3_DMAR))
 80072c8:	2340      	movs	r3, #64	@ 0x40
 80072ca:	0018      	movs	r0, r3
    __HAL_UART_CLEAR_FLAG(huart, UART_CLEAR_IDLEF);
 80072cc:	6216      	str	r6, [r2, #32]
    if (HAL_IS_BIT_SET(huart->Instance->CR3, USART_CR3_DMAR))
 80072ce:	6892      	ldr	r2, [r2, #8]
 80072d0:	4010      	ands	r0, r2
 80072d2:	4213      	tst	r3, r2
 80072d4:	d100      	bne.n	80072d8 <HAL_UART_IRQHandler+0x194>
 80072d6:	e0af      	b.n	8007438 <HAL_UART_IRQHandler+0x2f4>
      uint16_t nb_remaining_rx_data = (uint16_t) __HAL_DMA_GET_COUNTER(huart->hdmarx);
 80072d8:	2280      	movs	r2, #128	@ 0x80
 80072da:	4694      	mov	ip, r2
 80072dc:	58a2      	ldr	r2, [r4, r2]
 80072de:	6810      	ldr	r0, [r2, #0]
 80072e0:	6842      	ldr	r2, [r0, #4]
 80072e2:	b292      	uxth	r2, r2
      if ((nb_remaining_rx_data > 0U)
 80072e4:	2a00      	cmp	r2, #0
 80072e6:	d100      	bne.n	80072ea <HAL_UART_IRQHandler+0x1a6>
 80072e8:	e76f      	b.n	80071ca <HAL_UART_IRQHandler+0x86>
          && (nb_remaining_rx_data < huart->RxXferSize))
 80072ea:	215c      	movs	r1, #92	@ 0x5c
 80072ec:	468b      	mov	fp, r1
 80072ee:	5a61      	ldrh	r1, [r4, r1]
 80072f0:	4291      	cmp	r1, r2
 80072f2:	d800      	bhi.n	80072f6 <HAL_UART_IRQHandler+0x1b2>
 80072f4:	e769      	b.n	80071ca <HAL_UART_IRQHandler+0x86>
        huart->RxXferCount = nb_remaining_rx_data;
 80072f6:	275e      	movs	r7, #94	@ 0x5e
 80072f8:	53e2      	strh	r2, [r4, r7]
        if (HAL_IS_BIT_CLR(huart->hdmarx->Instance->CCR, DMA_CCR_CIRC))
 80072fa:	2220      	movs	r2, #32
 80072fc:	0017      	movs	r7, r2
 80072fe:	6800      	ldr	r0, [r0, #0]
 8007300:	4007      	ands	r7, r0
 8007302:	46b8      	mov	r8, r7
 8007304:	4202      	tst	r2, r0
 8007306:	d100      	bne.n	800730a <HAL_UART_IRQHandler+0x1c6>
 8007308:	e0d2      	b.n	80074b0 <HAL_UART_IRQHandler+0x36c>
        huart->RxEventType = HAL_UART_RXEVENT_IDLE;
 800730a:	2302      	movs	r3, #2
 800730c:	6723      	str	r3, [r4, #112]	@ 0x70
        huart->RxEventCallback(huart, (huart->RxXferSize - huart->RxXferCount));
 800730e:	335c      	adds	r3, #92	@ 0x5c
 8007310:	5ae3      	ldrh	r3, [r4, r3]
 8007312:	0020      	movs	r0, r4
 8007314:	1ac9      	subs	r1, r1, r3
 8007316:	23c0      	movs	r3, #192	@ 0xc0
 8007318:	b289      	uxth	r1, r1
 800731a:	58e3      	ldr	r3, [r4, r3]
 800731c:	4798      	blx	r3
 800731e:	e754      	b.n	80071ca <HAL_UART_IRQHandler+0x86>
      if (huart->RxISR != NULL)
 8007320:	6f63      	ldr	r3, [r4, #116]	@ 0x74
 8007322:	2b00      	cmp	r3, #0
 8007324:	d100      	bne.n	8007328 <HAL_UART_IRQHandler+0x1e4>
 8007326:	e750      	b.n	80071ca <HAL_UART_IRQHandler+0x86>
    huart->RxFifoFullCallback(huart);
 8007328:	0020      	movs	r0, r4
 800732a:	4798      	blx	r3
    return;
 800732c:	e74d      	b.n	80071ca <HAL_UART_IRQHandler+0x86>
    if (huart->TxISR != NULL)
 800732e:	6fa3      	ldr	r3, [r4, #120]	@ 0x78
 8007330:	2b00      	cmp	r3, #0
 8007332:	d1f9      	bne.n	8007328 <HAL_UART_IRQHandler+0x1e4>
 8007334:	e749      	b.n	80071ca <HAL_UART_IRQHandler+0x86>
    if (((isrflags & USART_ISR_FE) != 0U) && ((cr3its & USART_CR3_EIE) != 0U))
 8007336:	079d      	lsls	r5, r3, #30
 8007338:	d48b      	bmi.n	8007252 <HAL_UART_IRQHandler+0x10e>
    if (((isrflags & USART_ISR_NE) != 0U) && ((cr3its & USART_CR3_EIE) != 0U))
 800733a:	075d      	lsls	r5, r3, #29
 800733c:	d589      	bpl.n	8007252 <HAL_UART_IRQHandler+0x10e>
 800733e:	07cd      	lsls	r5, r1, #31
 8007340:	d587      	bpl.n	8007252 <HAL_UART_IRQHandler+0x10e>
      __HAL_UART_CLEAR_FLAG(huart, UART_CLEAR_NEF);
 8007342:	2504      	movs	r5, #4
 8007344:	6215      	str	r5, [r2, #32]
      huart->ErrorCode |= HAL_UART_ERROR_NE;
 8007346:	358c      	adds	r5, #140	@ 0x8c
 8007348:	46a9      	mov	r9, r5
 800734a:	5965      	ldr	r5, [r4, r5]
 800734c:	46a8      	mov	r8, r5
 800734e:	2502      	movs	r5, #2
 8007350:	4646      	mov	r6, r8
 8007352:	432e      	orrs	r6, r5
 8007354:	0035      	movs	r5, r6
 8007356:	464e      	mov	r6, r9
 8007358:	51a5      	str	r5, [r4, r6]
 800735a:	e77a      	b.n	8007252 <HAL_UART_IRQHandler+0x10e>
        if (huart->RxISR != NULL)
 800735c:	6f63      	ldr	r3, [r4, #116]	@ 0x74
 800735e:	2b00      	cmp	r3, #0
 8007360:	d09c      	beq.n	800729c <HAL_UART_IRQHandler+0x158>
          huart->RxISR(huart);
 8007362:	0020      	movs	r0, r4
 8007364:	4798      	blx	r3
      if ((HAL_IS_BIT_SET(huart->Instance->CR3, USART_CR3_DMAR)) ||
 8007366:	6822      	ldr	r2, [r4, #0]
 8007368:	e798      	b.n	800729c <HAL_UART_IRQHandler+0x158>
    if (((isrflags & USART_ISR_PE) != 0U) && ((cr1its & USART_CR1_PEIE) != 0U))
 800736a:	07dd      	lsls	r5, r3, #31
 800736c:	d400      	bmi.n	8007370 <HAL_UART_IRQHandler+0x22c>
 800736e:	e75e      	b.n	800722e <HAL_UART_IRQHandler+0xea>
 8007370:	05c5      	lsls	r5, r0, #23
 8007372:	d400      	bmi.n	8007376 <HAL_UART_IRQHandler+0x232>
 8007374:	e75b      	b.n	800722e <HAL_UART_IRQHandler+0xea>
 8007376:	e750      	b.n	800721a <HAL_UART_IRQHandler+0xd6>
  __ASM volatile ("MRS %0, primask" : "=r" (result) :: "memory");
 8007378:	f3ef 8010 	mrs	r0, PRIMASK
  __ASM volatile ("MSR primask, %0" : : "r" (priMask) : "memory");
 800737c:	2201      	movs	r2, #1
 800737e:	f382 8810 	msr	PRIMASK, r2
  ATOMIC_CLEAR_BIT(huart->Instance->CR1, (USART_CR1_RXNEIE_RXFNEIE | USART_CR1_PEIE));
 8007382:	6821      	ldr	r1, [r4, #0]
 8007384:	4d29      	ldr	r5, [pc, #164]	@ (800742c <HAL_UART_IRQHandler+0x2e8>)
 8007386:	680b      	ldr	r3, [r1, #0]
 8007388:	402b      	ands	r3, r5
 800738a:	600b      	str	r3, [r1, #0]
 800738c:	f380 8810 	msr	PRIMASK, r0
  __ASM volatile ("MRS %0, primask" : "=r" (result) :: "memory");
 8007390:	f3ef 8110 	mrs	r1, PRIMASK
  __ASM volatile ("MSR primask, %0" : : "r" (priMask) : "memory");
 8007394:	f382 8810 	msr	PRIMASK, r2
  ATOMIC_CLEAR_BIT(huart->Instance->CR3, (USART_CR3_EIE | USART_CR3_RXFTIE));
 8007398:	6822      	ldr	r2, [r4, #0]
 800739a:	4825      	ldr	r0, [pc, #148]	@ (8007430 <HAL_UART_IRQHandler+0x2ec>)
 800739c:	6893      	ldr	r3, [r2, #8]
 800739e:	4003      	ands	r3, r0
 80073a0:	6093      	str	r3, [r2, #8]
 80073a2:	f381 8810 	msr	PRIMASK, r1
  if (huart->ReceptionType == HAL_UART_RECEPTION_TOIDLE)
 80073a6:	6ee3      	ldr	r3, [r4, #108]	@ 0x6c
 80073a8:	2b01      	cmp	r3, #1
 80073aa:	d10a      	bne.n	80073c2 <HAL_UART_IRQHandler+0x27e>
  __ASM volatile ("MRS %0, primask" : "=r" (result) :: "memory");
 80073ac:	f3ef 8110 	mrs	r1, PRIMASK
  __ASM volatile ("MSR primask, %0" : : "r" (priMask) : "memory");
 80073b0:	f383 8810 	msr	PRIMASK, r3
    ATOMIC_CLEAR_BIT(huart->Instance->CR1, USART_CR1_IDLEIE);
 80073b4:	2010      	movs	r0, #16
 80073b6:	6822      	ldr	r2, [r4, #0]
 80073b8:	6813      	ldr	r3, [r2, #0]
 80073ba:	4383      	bics	r3, r0
 80073bc:	6013      	str	r3, [r2, #0]
 80073be:	f381 8810 	msr	PRIMASK, r1
  huart->RxState = HAL_UART_STATE_READY;
 80073c2:	238c      	movs	r3, #140	@ 0x8c
 80073c4:	2220      	movs	r2, #32
 80073c6:	50e2      	str	r2, [r4, r3]
  huart->ReceptionType = HAL_UART_RECEPTION_STANDARD;
 80073c8:	2300      	movs	r3, #0
 80073ca:	66e3      	str	r3, [r4, #108]	@ 0x6c
  huart->RxISR = NULL;
 80073cc:	6763      	str	r3, [r4, #116]	@ 0x74
        if (HAL_IS_BIT_SET(huart->Instance->CR3, USART_CR3_DMAR))
 80073ce:	6823      	ldr	r3, [r4, #0]
 80073d0:	689a      	ldr	r2, [r3, #8]
 80073d2:	2340      	movs	r3, #64	@ 0x40
 80073d4:	4213      	tst	r3, r2
 80073d6:	d019      	beq.n	800740c <HAL_UART_IRQHandler+0x2c8>
  __ASM volatile ("MRS %0, primask" : "=r" (result) :: "memory");
 80073d8:	f3ef 8010 	mrs	r0, PRIMASK
  __ASM volatile ("MSR primask, %0" : : "r" (priMask) : "memory");
 80073dc:	2201      	movs	r2, #1
 80073de:	f382 8810 	msr	PRIMASK, r2
          ATOMIC_CLEAR_BIT(huart->Instance->CR3, USART_CR3_DMAR);
 80073e2:	6821      	ldr	r1, [r4, #0]
 80073e4:	688a      	ldr	r2, [r1, #8]
 80073e6:	439a      	bics	r2, r3
 80073e8:	608a      	str	r2, [r1, #8]
 80073ea:	f380 8810 	msr	PRIMASK, r0
          if (huart->hdmarx != NULL)
 80073ee:	2580      	movs	r5, #128	@ 0x80
 80073f0:	5960      	ldr	r0, [r4, r5]
 80073f2:	2800      	cmp	r0, #0
 80073f4:	d00a      	beq.n	800740c <HAL_UART_IRQHandler+0x2c8>
            huart->hdmarx->XferAbortCallback = UART_DMAAbortOnError;
 80073f6:	4b0f      	ldr	r3, [pc, #60]	@ (8007434 <HAL_UART_IRQHandler+0x2f0>)
 80073f8:	6383      	str	r3, [r0, #56]	@ 0x38
            if (HAL_DMA_Abort_IT(huart->hdmarx) != HAL_OK)
 80073fa:	f7fc fee9 	bl	80041d0 <HAL_DMA_Abort_IT>
 80073fe:	2800      	cmp	r0, #0
 8007400:	d100      	bne.n	8007404 <HAL_UART_IRQHandler+0x2c0>
 8007402:	e6e2      	b.n	80071ca <HAL_UART_IRQHandler+0x86>
              huart->hdmarx->XferAbortCallback(huart->hdmarx);
 8007404:	5960      	ldr	r0, [r4, r5]
 8007406:	6b83      	ldr	r3, [r0, #56]	@ 0x38
 8007408:	4798      	blx	r3
 800740a:	e6de      	b.n	80071ca <HAL_UART_IRQHandler+0x86>
          huart->ErrorCallback(huart);
 800740c:	23a4      	movs	r3, #164	@ 0xa4
 800740e:	0020      	movs	r0, r4
 8007410:	58e3      	ldr	r3, [r4, r3]
 8007412:	4798      	blx	r3
 8007414:	e6d9      	b.n	80071ca <HAL_UART_IRQHandler+0x86>
    huart->TxFifoEmptyCallback(huart);
 8007416:	23bc      	movs	r3, #188	@ 0xbc
 8007418:	0020      	movs	r0, r4
 800741a:	58e3      	ldr	r3, [r4, r3]
 800741c:	4798      	blx	r3
    return;
 800741e:	e6d4      	b.n	80071ca <HAL_UART_IRQHandler+0x86>
 8007420:	0000080f 	.word	0x0000080f
 8007424:	10000001 	.word	0x10000001
 8007428:	04000120 	.word	0x04000120
 800742c:	fffffedf 	.word	0xfffffedf
 8007430:	effffffe 	.word	0xeffffffe
 8007434:	08006e8d 	.word	0x08006e8d
      uint16_t nb_rx_data = huart->RxXferSize - huart->RxXferCount;
 8007438:	235c      	movs	r3, #92	@ 0x5c
 800743a:	225e      	movs	r2, #94	@ 0x5e
 800743c:	5ae1      	ldrh	r1, [r4, r3]
 800743e:	5aa3      	ldrh	r3, [r4, r2]
      if ((huart->RxXferCount > 0U)
 8007440:	5aa2      	ldrh	r2, [r4, r2]
      uint16_t nb_rx_data = huart->RxXferSize - huart->RxXferCount;
 8007442:	b29b      	uxth	r3, r3
      if ((huart->RxXferCount > 0U)
 8007444:	2a00      	cmp	r2, #0
 8007446:	d100      	bne.n	800744a <HAL_UART_IRQHandler+0x306>
 8007448:	e6bf      	b.n	80071ca <HAL_UART_IRQHandler+0x86>
      uint16_t nb_rx_data = huart->RxXferSize - huart->RxXferCount;
 800744a:	1ac9      	subs	r1, r1, r3
 800744c:	b28b      	uxth	r3, r1
 800744e:	4698      	mov	r8, r3
          && (nb_rx_data > 0U))
 8007450:	2b00      	cmp	r3, #0
 8007452:	d100      	bne.n	8007456 <HAL_UART_IRQHandler+0x312>
 8007454:	e6b9      	b.n	80071ca <HAL_UART_IRQHandler+0x86>
  __ASM volatile ("MRS %0, primask" : "=r" (result) :: "memory");
 8007456:	f3ef 8710 	mrs	r7, PRIMASK
  __ASM volatile ("MSR primask, %0" : : "r" (priMask) : "memory");
 800745a:	f385 8810 	msr	PRIMASK, r5
        ATOMIC_CLEAR_BIT(huart->Instance->CR1, (USART_CR1_RXNEIE_RXFNEIE | USART_CR1_PEIE));
 800745e:	6822      	ldr	r2, [r4, #0]
 8007460:	492d      	ldr	r1, [pc, #180]	@ (8007518 <HAL_UART_IRQHandler+0x3d4>)
 8007462:	6813      	ldr	r3, [r2, #0]
 8007464:	400b      	ands	r3, r1
 8007466:	6013      	str	r3, [r2, #0]
 8007468:	f387 8810 	msr	PRIMASK, r7
  __ASM volatile ("MRS %0, primask" : "=r" (result) :: "memory");
 800746c:	f3ef 8710 	mrs	r7, PRIMASK
  __ASM volatile ("MSR primask, %0" : : "r" (priMask) : "memory");
 8007470:	f385 8810 	msr	PRIMASK, r5
        ATOMIC_CLEAR_BIT(huart->Instance->CR3, (USART_CR3_EIE | USART_CR3_RXFTIE));
 8007474:	6822      	ldr	r2, [r4, #0]
 8007476:	4929      	ldr	r1, [pc, #164]	@ (800751c <HAL_UART_IRQHandler+0x3d8>)
 8007478:	6893      	ldr	r3, [r2, #8]
 800747a:	400b      	ands	r3, r1
 800747c:	6093      	str	r3, [r2, #8]
 800747e:	f387 8810 	msr	PRIMASK, r7
        huart->RxState = HAL_UART_STATE_READY;
 8007482:	238c      	movs	r3, #140	@ 0x8c
 8007484:	2220      	movs	r2, #32
 8007486:	50e2      	str	r2, [r4, r3]
        huart->ReceptionType = HAL_UART_RECEPTION_STANDARD;
 8007488:	66e0      	str	r0, [r4, #108]	@ 0x6c
        huart->RxISR = NULL;
 800748a:	6760      	str	r0, [r4, #116]	@ 0x74
  __ASM volatile ("MRS %0, primask" : "=r" (result) :: "memory");
 800748c:	f3ef 8010 	mrs	r0, PRIMASK
  __ASM volatile ("MSR primask, %0" : : "r" (priMask) : "memory");
 8007490:	f385 8810 	msr	PRIMASK, r5
        ATOMIC_CLEAR_BIT(huart->Instance->CR1, USART_CR1_IDLEIE);
 8007494:	6822      	ldr	r2, [r4, #0]
 8007496:	6813      	ldr	r3, [r2, #0]
 8007498:	43b3      	bics	r3, r6
 800749a:	6013      	str	r3, [r2, #0]
 800749c:	f380 8810 	msr	PRIMASK, r0
        huart->RxEventType = HAL_UART_RXEVENT_IDLE;
 80074a0:	2302      	movs	r3, #2
 80074a2:	6723      	str	r3, [r4, #112]	@ 0x70
        huart->RxEventCallback(huart, nb_rx_data);
 80074a4:	33be      	adds	r3, #190	@ 0xbe
 80074a6:	4641      	mov	r1, r8
 80074a8:	0020      	movs	r0, r4
 80074aa:	58e3      	ldr	r3, [r4, r3]
 80074ac:	4798      	blx	r3
 80074ae:	e68c      	b.n	80071ca <HAL_UART_IRQHandler+0x86>
  __ASM volatile ("MRS %0, primask" : "=r" (result) :: "memory");
 80074b0:	f3ef 8910 	mrs	r9, PRIMASK
  __ASM volatile ("MSR primask, %0" : : "r" (priMask) : "memory");
 80074b4:	f385 8810 	msr	PRIMASK, r5
          ATOMIC_CLEAR_BIT(huart->Instance->CR1, USART_CR1_PEIE);
 80074b8:	6820      	ldr	r0, [r4, #0]
 80074ba:	4f19      	ldr	r7, [pc, #100]	@ (8007520 <HAL_UART_IRQHandler+0x3dc>)
 80074bc:	6801      	ldr	r1, [r0, #0]
 80074be:	4039      	ands	r1, r7
 80074c0:	6001      	str	r1, [r0, #0]
 80074c2:	f389 8810 	msr	PRIMASK, r9
  __ASM volatile ("MRS %0, primask" : "=r" (result) :: "memory");
 80074c6:	f3ef 8910 	mrs	r9, PRIMASK
  __ASM volatile ("MSR primask, %0" : : "r" (priMask) : "memory");
 80074ca:	f385 8810 	msr	PRIMASK, r5
          ATOMIC_CLEAR_BIT(huart->Instance->CR3, USART_CR3_EIE);
 80074ce:	6820      	ldr	r0, [r4, #0]
 80074d0:	6881      	ldr	r1, [r0, #8]
 80074d2:	43a9      	bics	r1, r5
 80074d4:	6081      	str	r1, [r0, #8]
 80074d6:	f389 8810 	msr	PRIMASK, r9
  __ASM volatile ("MRS %0, primask" : "=r" (result) :: "memory");
 80074da:	f3ef 8910 	mrs	r9, PRIMASK
  __ASM volatile ("MSR primask, %0" : : "r" (priMask) : "memory");
 80074de:	f385 8810 	msr	PRIMASK, r5
          ATOMIC_CLEAR_BIT(huart->Instance->CR3, USART_CR3_DMAR);
 80074e2:	6820      	ldr	r0, [r4, #0]
 80074e4:	6881      	ldr	r1, [r0, #8]
 80074e6:	4399      	bics	r1, r3
 80074e8:	6081      	str	r1, [r0, #8]
 80074ea:	f389 8810 	msr	PRIMASK, r9
          huart->RxState = HAL_UART_STATE_READY;
 80074ee:	334c      	adds	r3, #76	@ 0x4c
 80074f0:	50e2      	str	r2, [r4, r3]
          huart->ReceptionType = HAL_UART_RECEPTION_STANDARD;
 80074f2:	4643      	mov	r3, r8
 80074f4:	66e3      	str	r3, [r4, #108]	@ 0x6c
  __ASM volatile ("MRS %0, primask" : "=r" (result) :: "memory");
 80074f6:	f3ef 8110 	mrs	r1, PRIMASK
  __ASM volatile ("MSR primask, %0" : : "r" (priMask) : "memory");
 80074fa:	f385 8810 	msr	PRIMASK, r5
          ATOMIC_CLEAR_BIT(huart->Instance->CR1, USART_CR1_IDLEIE);
 80074fe:	6822      	ldr	r2, [r4, #0]
 8007500:	6813      	ldr	r3, [r2, #0]
 8007502:	43b3      	bics	r3, r6
 8007504:	6013      	str	r3, [r2, #0]
 8007506:	f381 8810 	msr	PRIMASK, r1
          (void)HAL_DMA_Abort(huart->hdmarx);
 800750a:	4663      	mov	r3, ip
 800750c:	58e0      	ldr	r0, [r4, r3]
 800750e:	f7fc fe23 	bl	8004158 <HAL_DMA_Abort>
        huart->RxEventCallback(huart, (huart->RxXferSize - huart->RxXferCount));
 8007512:	465b      	mov	r3, fp
 8007514:	5ae1      	ldrh	r1, [r4, r3]
 8007516:	e6f8      	b.n	800730a <HAL_UART_IRQHandler+0x1c6>
 8007518:	fffffedf 	.word	0xfffffedf
 800751c:	effffffe 	.word	0xeffffffe
 8007520:	fffffeff 	.word	0xfffffeff

08007524 <UART_AdvFeatureConfig>:
  if (HAL_IS_BIT_SET(huart->AdvancedInit.AdvFeatureInit, UART_ADVFEATURE_SWAP_INIT))
 8007524:	6a83      	ldr	r3, [r0, #40]	@ 0x28
{
 8007526:	b530      	push	{r4, r5, lr}
  if (HAL_IS_BIT_SET(huart->AdvancedInit.AdvFeatureInit, UART_ADVFEATURE_SWAP_INIT))
 8007528:	071a      	lsls	r2, r3, #28
 800752a:	d506      	bpl.n	800753a <UART_AdvFeatureConfig+0x16>
    MODIFY_REG(huart->Instance->CR2, USART_CR2_SWAP, huart->AdvancedInit.Swap);
 800752c:	6801      	ldr	r1, [r0, #0]
 800752e:	4c28      	ldr	r4, [pc, #160]	@ (80075d0 <UART_AdvFeatureConfig+0xac>)
 8007530:	684a      	ldr	r2, [r1, #4]
 8007532:	4022      	ands	r2, r4
 8007534:	6b84      	ldr	r4, [r0, #56]	@ 0x38
 8007536:	4322      	orrs	r2, r4
 8007538:	604a      	str	r2, [r1, #4]
  if (HAL_IS_BIT_SET(huart->AdvancedInit.AdvFeatureInit, UART_ADVFEATURE_TXINVERT_INIT))
 800753a:	07da      	lsls	r2, r3, #31
 800753c:	d506      	bpl.n	800754c <UART_AdvFeatureConfig+0x28>
    MODIFY_REG(huart->Instance->CR2, USART_CR2_TXINV, huart->AdvancedInit.TxPinLevelInvert);
 800753e:	6801      	ldr	r1, [r0, #0]
 8007540:	4c24      	ldr	r4, [pc, #144]	@ (80075d4 <UART_AdvFeatureConfig+0xb0>)
 8007542:	684a      	ldr	r2, [r1, #4]
 8007544:	4022      	ands	r2, r4
 8007546:	6ac4      	ldr	r4, [r0, #44]	@ 0x2c
 8007548:	4322      	orrs	r2, r4
 800754a:	604a      	str	r2, [r1, #4]
  if (HAL_IS_BIT_SET(huart->AdvancedInit.AdvFeatureInit, UART_ADVFEATURE_RXINVERT_INIT))
 800754c:	079a      	lsls	r2, r3, #30
 800754e:	d506      	bpl.n	800755e <UART_AdvFeatureConfig+0x3a>
    MODIFY_REG(huart->Instance->CR2, USART_CR2_RXINV, huart->AdvancedInit.RxPinLevelInvert);
 8007550:	6801      	ldr	r1, [r0, #0]
 8007552:	4c21      	ldr	r4, [pc, #132]	@ (80075d8 <UART_AdvFeatureConfig+0xb4>)
 8007554:	684a      	ldr	r2, [r1, #4]
 8007556:	4022      	ands	r2, r4
 8007558:	6b04      	ldr	r4, [r0, #48]	@ 0x30
 800755a:	4322      	orrs	r2, r4
 800755c:	604a      	str	r2, [r1, #4]
  if (HAL_IS_BIT_SET(huart->AdvancedInit.AdvFeatureInit, UART_ADVFEATURE_DATAINVERT_INIT))
 800755e:	075a      	lsls	r2, r3, #29
 8007560:	d506      	bpl.n	8007570 <UART_AdvFeatureConfig+0x4c>
    MODIFY_REG(huart->Instance->CR2, USART_CR2_DATAINV, huart->AdvancedInit.DataInvert);
 8007562:	6801      	ldr	r1, [r0, #0]
 8007564:	4c1d      	ldr	r4, [pc, #116]	@ (80075dc <UART_AdvFeatureConfig+0xb8>)
 8007566:	684a      	ldr	r2, [r1, #4]
 8007568:	4022      	ands	r2, r4
 800756a:	6b44      	ldr	r4, [r0, #52]	@ 0x34
 800756c:	4322      	orrs	r2, r4
 800756e:	604a      	str	r2, [r1, #4]
  if (HAL_IS_BIT_SET(huart->AdvancedInit.AdvFeatureInit, UART_ADVFEATURE_RXOVERRUNDISABLE_INIT))
 8007570:	06da      	lsls	r2, r3, #27
 8007572:	d506      	bpl.n	8007582 <UART_AdvFeatureConfig+0x5e>
    MODIFY_REG(huart->Instance->CR3, USART_CR3_OVRDIS, huart->AdvancedInit.OverrunDisable);
 8007574:	6801      	ldr	r1, [r0, #0]
 8007576:	4c1a      	ldr	r4, [pc, #104]	@ (80075e0 <UART_AdvFeatureConfig+0xbc>)
 8007578:	688a      	ldr	r2, [r1, #8]
 800757a:	4022      	ands	r2, r4
 800757c:	6bc4      	ldr	r4, [r0, #60]	@ 0x3c
 800757e:	4322      	orrs	r2, r4
 8007580:	608a      	str	r2, [r1, #8]
  if (HAL_IS_BIT_SET(huart->AdvancedInit.AdvFeatureInit, UART_ADVFEATURE_DMADISABLEONERROR_INIT))
 8007582:	069a      	lsls	r2, r3, #26
 8007584:	d506      	bpl.n	8007594 <UART_AdvFeatureConfig+0x70>
    MODIFY_REG(huart->Instance->CR3, USART_CR3_DDRE, huart->AdvancedInit.DMADisableonRxError);
 8007586:	6801      	ldr	r1, [r0, #0]
 8007588:	4c16      	ldr	r4, [pc, #88]	@ (80075e4 <UART_AdvFeatureConfig+0xc0>)
 800758a:	688a      	ldr	r2, [r1, #8]
 800758c:	4022      	ands	r2, r4
 800758e:	6c04      	ldr	r4, [r0, #64]	@ 0x40
 8007590:	4322      	orrs	r2, r4
 8007592:	608a      	str	r2, [r1, #8]
  if (HAL_IS_BIT_SET(huart->AdvancedInit.AdvFeatureInit, UART_ADVFEATURE_AUTOBAUDRATE_INIT))
 8007594:	065a      	lsls	r2, r3, #25
 8007596:	d50a      	bpl.n	80075ae <UART_AdvFeatureConfig+0x8a>
    MODIFY_REG(huart->Instance->CR2, USART_CR2_ABREN, huart->AdvancedInit.AutoBaudRateEnable);
 8007598:	6801      	ldr	r1, [r0, #0]
 800759a:	4d13      	ldr	r5, [pc, #76]	@ (80075e8 <UART_AdvFeatureConfig+0xc4>)
 800759c:	684a      	ldr	r2, [r1, #4]
 800759e:	6c44      	ldr	r4, [r0, #68]	@ 0x44
 80075a0:	402a      	ands	r2, r5
 80075a2:	4322      	orrs	r2, r4
 80075a4:	604a      	str	r2, [r1, #4]
    if (huart->AdvancedInit.AutoBaudRateEnable == UART_ADVFEATURE_AUTOBAUDRATE_ENABLE)
 80075a6:	2280      	movs	r2, #128	@ 0x80
 80075a8:	0352      	lsls	r2, r2, #13
 80075aa:	4294      	cmp	r4, r2
 80075ac:	d009      	beq.n	80075c2 <UART_AdvFeatureConfig+0x9e>
  if (HAL_IS_BIT_SET(huart->AdvancedInit.AdvFeatureInit, UART_ADVFEATURE_MSBFIRST_INIT))
 80075ae:	061b      	lsls	r3, r3, #24
 80075b0:	d506      	bpl.n	80075c0 <UART_AdvFeatureConfig+0x9c>
    MODIFY_REG(huart->Instance->CR2, USART_CR2_MSBFIRST, huart->AdvancedInit.MSBFirst);
 80075b2:	6802      	ldr	r2, [r0, #0]
 80075b4:	490d      	ldr	r1, [pc, #52]	@ (80075ec <UART_AdvFeatureConfig+0xc8>)
 80075b6:	6853      	ldr	r3, [r2, #4]
 80075b8:	400b      	ands	r3, r1
 80075ba:	6cc1      	ldr	r1, [r0, #76]	@ 0x4c
 80075bc:	430b      	orrs	r3, r1
 80075be:	6053      	str	r3, [r2, #4]
}
 80075c0:	bd30      	pop	{r4, r5, pc}
      MODIFY_REG(huart->Instance->CR2, USART_CR2_ABRMODE, huart->AdvancedInit.AutoBaudRateMode);
 80075c2:	684a      	ldr	r2, [r1, #4]
 80075c4:	4c0a      	ldr	r4, [pc, #40]	@ (80075f0 <UART_AdvFeatureConfig+0xcc>)
 80075c6:	4022      	ands	r2, r4
 80075c8:	6c84      	ldr	r4, [r0, #72]	@ 0x48
 80075ca:	4322      	orrs	r2, r4
 80075cc:	604a      	str	r2, [r1, #4]
 80075ce:	e7ee      	b.n	80075ae <UART_AdvFeatureConfig+0x8a>
 80075d0:	ffff7fff 	.word	0xffff7fff
 80075d4:	fffdffff 	.word	0xfffdffff
 80075d8:	fffeffff 	.word	0xfffeffff
 80075dc:	fffbffff 	.word	0xfffbffff
 80075e0:	ffffefff 	.word	0xffffefff
 80075e4:	ffffdfff 	.word	0xffffdfff
 80075e8:	ffefffff 	.word	0xffefffff
 80075ec:	fff7ffff 	.word	0xfff7ffff
 80075f0:	ff9fffff 	.word	0xff9fffff

080075f4 <UART_CheckIdleState>:
{
 80075f4:	b5f0      	push	{r4, r5, r6, r7, lr}
  huart->ErrorCode = HAL_UART_ERROR_NONE;
 80075f6:	2390      	movs	r3, #144	@ 0x90
 80075f8:	2200      	movs	r2, #0
{
 80075fa:	46c6      	mov	lr, r8
 80075fc:	0004      	movs	r4, r0
 80075fe:	b500      	push	{lr}
  huart->ErrorCode = HAL_UART_ERROR_NONE;
 8007600:	50c2      	str	r2, [r0, r3]
  tickstart = HAL_GetTick();
 8007602:	f7fb fef5 	bl	80033f0 <HAL_GetTick>
  if ((huart->Instance->CR1 & USART_CR1_TE) == USART_CR1_TE)
 8007606:	6823      	ldr	r3, [r4, #0]
  tickstart = HAL_GetTick();
 8007608:	0005      	movs	r5, r0
  if ((huart->Instance->CR1 & USART_CR1_TE) == USART_CR1_TE)
 800760a:	681a      	ldr	r2, [r3, #0]
 800760c:	0712      	lsls	r2, r2, #28
 800760e:	d411      	bmi.n	8007634 <UART_CheckIdleState+0x40>
  if ((huart->Instance->CR1 & USART_CR1_RE) == USART_CR1_RE)
 8007610:	681a      	ldr	r2, [r3, #0]
 8007612:	0752      	lsls	r2, r2, #29
 8007614:	d43e      	bmi.n	8007694 <UART_CheckIdleState+0xa0>
  huart->gState = HAL_UART_STATE_READY;
 8007616:	2320      	movs	r3, #32
 8007618:	2288      	movs	r2, #136	@ 0x88
 800761a:	50a3      	str	r3, [r4, r2]
  huart->RxState = HAL_UART_STATE_READY;
 800761c:	3204      	adds	r2, #4
 800761e:	50a3      	str	r3, [r4, r2]
  huart->ReceptionType = HAL_UART_RECEPTION_STANDARD;
 8007620:	2300      	movs	r3, #0
  return HAL_OK;
 8007622:	2000      	movs	r0, #0
  huart->ReceptionType = HAL_UART_RECEPTION_STANDARD;
 8007624:	66e3      	str	r3, [r4, #108]	@ 0x6c
  huart->RxEventType = HAL_UART_RXEVENT_TC;
 8007626:	6723      	str	r3, [r4, #112]	@ 0x70
      __HAL_UNLOCK(huart);
 8007628:	2384      	movs	r3, #132	@ 0x84
 800762a:	2200      	movs	r2, #0
 800762c:	54e2      	strb	r2, [r4, r3]
}
 800762e:	bc80      	pop	{r7}
 8007630:	46b8      	mov	r8, r7
 8007632:	bdf0      	pop	{r4, r5, r6, r7, pc}
  while ((__HAL_UART_GET_FLAG(huart, Flag) ? SET : RESET) == Status)
 8007634:	69da      	ldr	r2, [r3, #28]
 8007636:	0292      	lsls	r2, r2, #10
 8007638:	d4ea      	bmi.n	8007610 <UART_CheckIdleState+0x1c>
      if (((HAL_GetTick() - Tickstart) > Timeout) || (Timeout == 0U))
 800763a:	2680      	movs	r6, #128	@ 0x80
        if (__HAL_UART_GET_FLAG(huart, UART_FLAG_ORE) == SET)
 800763c:	2308      	movs	r3, #8
      if ((READ_BIT(huart->Instance->CR1, USART_CR1_RE) != 0U) && (Flag != UART_FLAG_TXE) && (Flag != UART_FLAG_TC))
 800763e:	2704      	movs	r7, #4
        if (__HAL_UART_GET_FLAG(huart, UART_FLAG_ORE) == SET)
 8007640:	4698      	mov	r8, r3
      if (((HAL_GetTick() - Tickstart) > Timeout) || (Timeout == 0U))
 8007642:	04b6      	lsls	r6, r6, #18
 8007644:	e010      	b.n	8007668 <UART_CheckIdleState+0x74>
      if ((READ_BIT(huart->Instance->CR1, USART_CR1_RE) != 0U) && (Flag != UART_FLAG_TXE) && (Flag != UART_FLAG_TC))
 8007646:	6823      	ldr	r3, [r4, #0]
 8007648:	681a      	ldr	r2, [r3, #0]
 800764a:	4217      	tst	r7, r2
 800764c:	d009      	beq.n	8007662 <UART_CheckIdleState+0x6e>
        if (__HAL_UART_GET_FLAG(huart, UART_FLAG_ORE) == SET)
 800764e:	4641      	mov	r1, r8
 8007650:	69da      	ldr	r2, [r3, #28]
 8007652:	4211      	tst	r1, r2
 8007654:	d159      	bne.n	800770a <UART_CheckIdleState+0x116>
        if (__HAL_UART_GET_FLAG(huart, UART_FLAG_RTOF) == SET)
 8007656:	2280      	movs	r2, #128	@ 0x80
 8007658:	69d9      	ldr	r1, [r3, #28]
 800765a:	0112      	lsls	r2, r2, #4
 800765c:	4211      	tst	r1, r2
 800765e:	d000      	beq.n	8007662 <UART_CheckIdleState+0x6e>
 8007660:	e085      	b.n	800776e <UART_CheckIdleState+0x17a>
  while ((__HAL_UART_GET_FLAG(huart, Flag) ? SET : RESET) == Status)
 8007662:	69da      	ldr	r2, [r3, #28]
 8007664:	0292      	lsls	r2, r2, #10
 8007666:	d4d3      	bmi.n	8007610 <UART_CheckIdleState+0x1c>
      if (((HAL_GetTick() - Tickstart) > Timeout) || (Timeout == 0U))
 8007668:	f7fb fec2 	bl	80033f0 <HAL_GetTick>
 800766c:	1b40      	subs	r0, r0, r5
 800766e:	42b0      	cmp	r0, r6
 8007670:	d3e9      	bcc.n	8007646 <UART_CheckIdleState+0x52>
  __ASM volatile ("MRS %0, primask" : "=r" (result) :: "memory");
 8007672:	f3ef 8110 	mrs	r1, PRIMASK
  __ASM volatile ("MSR primask, %0" : : "r" (priMask) : "memory");
 8007676:	2301      	movs	r3, #1
 8007678:	f383 8810 	msr	PRIMASK, r3
      ATOMIC_CLEAR_BIT(huart->Instance->CR1, (USART_CR1_TXEIE_TXFNFIE));
 800767c:	2080      	movs	r0, #128	@ 0x80
 800767e:	6822      	ldr	r2, [r4, #0]
 8007680:	6813      	ldr	r3, [r2, #0]
 8007682:	4383      	bics	r3, r0
 8007684:	6013      	str	r3, [r2, #0]
 8007686:	f381 8810 	msr	PRIMASK, r1
      huart->gState = HAL_UART_STATE_READY;
 800768a:	2388      	movs	r3, #136	@ 0x88
 800768c:	2220      	movs	r2, #32
      return HAL_TIMEOUT;
 800768e:	2003      	movs	r0, #3
      huart->gState = HAL_UART_STATE_READY;
 8007690:	50e2      	str	r2, [r4, r3]
      return HAL_TIMEOUT;
 8007692:	e7c9      	b.n	8007628 <UART_CheckIdleState+0x34>
  while ((__HAL_UART_GET_FLAG(huart, Flag) ? SET : RESET) == Status)
 8007694:	69db      	ldr	r3, [r3, #28]
 8007696:	025b      	lsls	r3, r3, #9
 8007698:	d4bd      	bmi.n	8007616 <UART_CheckIdleState+0x22>
      if (((HAL_GetTick() - Tickstart) > Timeout) || (Timeout == 0U))
 800769a:	2680      	movs	r6, #128	@ 0x80
        if (__HAL_UART_GET_FLAG(huart, UART_FLAG_ORE) == SET)
 800769c:	2308      	movs	r3, #8
      if ((READ_BIT(huart->Instance->CR1, USART_CR1_RE) != 0U) && (Flag != UART_FLAG_TXE) && (Flag != UART_FLAG_TC))
 800769e:	2704      	movs	r7, #4
        if (__HAL_UART_GET_FLAG(huart, UART_FLAG_ORE) == SET)
 80076a0:	4698      	mov	r8, r3
      if (((HAL_GetTick() - Tickstart) > Timeout) || (Timeout == 0U))
 80076a2:	04b6      	lsls	r6, r6, #18
 80076a4:	e011      	b.n	80076ca <UART_CheckIdleState+0xd6>
      if ((READ_BIT(huart->Instance->CR1, USART_CR1_RE) != 0U) && (Flag != UART_FLAG_TXE) && (Flag != UART_FLAG_TC))
 80076a6:	6823      	ldr	r3, [r4, #0]
 80076a8:	681a      	ldr	r2, [r3, #0]
 80076aa:	4217      	tst	r7, r2
 80076ac:	d00a      	beq.n	80076c4 <UART_CheckIdleState+0xd0>
        if (__HAL_UART_GET_FLAG(huart, UART_FLAG_ORE) == SET)
 80076ae:	4641      	mov	r1, r8
 80076b0:	69da      	ldr	r2, [r3, #28]
 80076b2:	4211      	tst	r1, r2
 80076b4:	d000      	beq.n	80076b8 <UART_CheckIdleState+0xc4>
 80076b6:	e08b      	b.n	80077d0 <UART_CheckIdleState+0x1dc>
        if (__HAL_UART_GET_FLAG(huart, UART_FLAG_RTOF) == SET)
 80076b8:	2280      	movs	r2, #128	@ 0x80
 80076ba:	69d9      	ldr	r1, [r3, #28]
 80076bc:	0112      	lsls	r2, r2, #4
 80076be:	4211      	tst	r1, r2
 80076c0:	d000      	beq.n	80076c4 <UART_CheckIdleState+0xd0>
 80076c2:	e0b7      	b.n	8007834 <UART_CheckIdleState+0x240>
  while ((__HAL_UART_GET_FLAG(huart, Flag) ? SET : RESET) == Status)
 80076c4:	69db      	ldr	r3, [r3, #28]
 80076c6:	025b      	lsls	r3, r3, #9
 80076c8:	d4a5      	bmi.n	8007616 <UART_CheckIdleState+0x22>
      if (((HAL_GetTick() - Tickstart) > Timeout) || (Timeout == 0U))
 80076ca:	f7fb fe91 	bl	80033f0 <HAL_GetTick>
 80076ce:	1b40      	subs	r0, r0, r5
 80076d0:	42b0      	cmp	r0, r6
 80076d2:	d3e8      	bcc.n	80076a6 <UART_CheckIdleState+0xb2>
  __ASM volatile ("MRS %0, primask" : "=r" (result) :: "memory");
 80076d4:	f3ef 8010 	mrs	r0, PRIMASK
  __ASM volatile ("MSR primask, %0" : : "r" (priMask) : "memory");
 80076d8:	2201      	movs	r2, #1
 80076da:	f382 8810 	msr	PRIMASK, r2
      ATOMIC_CLEAR_BIT(huart->Instance->CR1, (USART_CR1_RXNEIE_RXFNEIE | USART_CR1_PEIE));
 80076de:	6821      	ldr	r1, [r4, #0]
 80076e0:	4d6d      	ldr	r5, [pc, #436]	@ (8007898 <UART_CheckIdleState+0x2a4>)
 80076e2:	680b      	ldr	r3, [r1, #0]
 80076e4:	402b      	ands	r3, r5
 80076e6:	600b      	str	r3, [r1, #0]
 80076e8:	f380 8810 	msr	PRIMASK, r0
  __ASM volatile ("MRS %0, primask" : "=r" (result) :: "memory");
 80076ec:	f3ef 8010 	mrs	r0, PRIMASK
  __ASM volatile ("MSR primask, %0" : : "r" (priMask) : "memory");
 80076f0:	f382 8810 	msr	PRIMASK, r2
      ATOMIC_CLEAR_BIT(huart->Instance->CR3, USART_CR3_EIE);
 80076f4:	6821      	ldr	r1, [r4, #0]
 80076f6:	688b      	ldr	r3, [r1, #8]
 80076f8:	4393      	bics	r3, r2
 80076fa:	608b      	str	r3, [r1, #8]
 80076fc:	f380 8810 	msr	PRIMASK, r0
      huart->RxState = HAL_UART_STATE_READY;
 8007700:	238c      	movs	r3, #140	@ 0x8c
 8007702:	321f      	adds	r2, #31
      return HAL_TIMEOUT;
 8007704:	2003      	movs	r0, #3
      huart->RxState = HAL_UART_STATE_READY;
 8007706:	50e2      	str	r2, [r4, r3]
      return HAL_TIMEOUT;
 8007708:	e78e      	b.n	8007628 <UART_CheckIdleState+0x34>
          __HAL_UART_CLEAR_FLAG(huart, UART_CLEAR_OREF);
 800770a:	6219      	str	r1, [r3, #32]
  __ASM volatile ("MRS %0, primask" : "=r" (result) :: "memory");
 800770c:	f3ef 8010 	mrs	r0, PRIMASK
  __ASM volatile ("MSR primask, %0" : : "r" (priMask) : "memory");
 8007710:	2201      	movs	r2, #1
 8007712:	f382 8810 	msr	PRIMASK, r2
  ATOMIC_CLEAR_BIT(huart->Instance->CR1, (USART_CR1_RXNEIE_RXFNEIE | USART_CR1_PEIE));
 8007716:	6821      	ldr	r1, [r4, #0]
 8007718:	4d5f      	ldr	r5, [pc, #380]	@ (8007898 <UART_CheckIdleState+0x2a4>)
 800771a:	680b      	ldr	r3, [r1, #0]
 800771c:	402b      	ands	r3, r5
 800771e:	600b      	str	r3, [r1, #0]
 8007720:	f380 8810 	msr	PRIMASK, r0
  __ASM volatile ("MRS %0, primask" : "=r" (result) :: "memory");
 8007724:	f3ef 8110 	mrs	r1, PRIMASK
  __ASM volatile ("MSR primask, %0" : : "r" (priMask) : "memory");
 8007728:	f382 8810 	msr	PRIMASK, r2
  ATOMIC_CLEAR_BIT(huart->Instance->CR3, (USART_CR3_EIE | USART_CR3_RXFTIE));
 800772c:	6822      	ldr	r2, [r4, #0]
 800772e:	485b      	ldr	r0, [pc, #364]	@ (800789c <UART_CheckIdleState+0x2a8>)
 8007730:	6893      	ldr	r3, [r2, #8]
 8007732:	4003      	ands	r3, r0
 8007734:	6093      	str	r3, [r2, #8]
 8007736:	f381 8810 	msr	PRIMASK, r1
  if (huart->ReceptionType == HAL_UART_RECEPTION_TOIDLE)
 800773a:	6ee3      	ldr	r3, [r4, #108]	@ 0x6c
 800773c:	2b01      	cmp	r3, #1
 800773e:	d10a      	bne.n	8007756 <UART_CheckIdleState+0x162>
  __ASM volatile ("MRS %0, primask" : "=r" (result) :: "memory");
 8007740:	f3ef 8110 	mrs	r1, PRIMASK
  __ASM volatile ("MSR primask, %0" : : "r" (priMask) : "memory");
 8007744:	f383 8810 	msr	PRIMASK, r3
    ATOMIC_CLEAR_BIT(huart->Instance->CR1, USART_CR1_IDLEIE);
 8007748:	2010      	movs	r0, #16
 800774a:	6822      	ldr	r2, [r4, #0]
 800774c:	6813      	ldr	r3, [r2, #0]
 800774e:	4383      	bics	r3, r0
 8007750:	6013      	str	r3, [r2, #0]
 8007752:	f381 8810 	msr	PRIMASK, r1
  huart->RxState = HAL_UART_STATE_READY;
 8007756:	238c      	movs	r3, #140	@ 0x8c
 8007758:	2220      	movs	r2, #32
          huart->ErrorCode = HAL_UART_ERROR_ORE;
 800775a:	2108      	movs	r1, #8
  huart->RxState = HAL_UART_STATE_READY;
 800775c:	50e2      	str	r2, [r4, r3]
  huart->ReceptionType = HAL_UART_RECEPTION_STANDARD;
 800775e:	2300      	movs	r3, #0
          huart->ErrorCode = HAL_UART_ERROR_ORE;
 8007760:	3270      	adds	r2, #112	@ 0x70
  huart->ReceptionType = HAL_UART_RECEPTION_STANDARD;
 8007762:	66e3      	str	r3, [r4, #108]	@ 0x6c
  huart->RxISR = NULL;
 8007764:	6763      	str	r3, [r4, #116]	@ 0x74
          huart->ErrorCode = HAL_UART_ERROR_ORE;
 8007766:	50a1      	str	r1, [r4, r2]
          __HAL_UNLOCK(huart);
 8007768:	3a0c      	subs	r2, #12
 800776a:	54a3      	strb	r3, [r4, r2]
          return HAL_ERROR;
 800776c:	e781      	b.n	8007672 <UART_CheckIdleState+0x7e>
          __HAL_UART_CLEAR_FLAG(huart, UART_CLEAR_RTOF);
 800776e:	621a      	str	r2, [r3, #32]
  __ASM volatile ("MRS %0, primask" : "=r" (result) :: "memory");
 8007770:	f3ef 8010 	mrs	r0, PRIMASK
  __ASM volatile ("MSR primask, %0" : : "r" (priMask) : "memory");
 8007774:	2201      	movs	r2, #1
 8007776:	f382 8810 	msr	PRIMASK, r2
  ATOMIC_CLEAR_BIT(huart->Instance->CR1, (USART_CR1_RXNEIE_RXFNEIE | USART_CR1_PEIE));
 800777a:	6821      	ldr	r1, [r4, #0]
 800777c:	4d46      	ldr	r5, [pc, #280]	@ (8007898 <UART_CheckIdleState+0x2a4>)
 800777e:	680b      	ldr	r3, [r1, #0]
 8007780:	402b      	ands	r3, r5
 8007782:	600b      	str	r3, [r1, #0]
 8007784:	f380 8810 	msr	PRIMASK, r0
  __ASM volatile ("MRS %0, primask" : "=r" (result) :: "memory");
 8007788:	f3ef 8110 	mrs	r1, PRIMASK
  __ASM volatile ("MSR primask, %0" : : "r" (priMask) : "memory");
 800778c:	f382 8810 	msr	PRIMASK, r2
  ATOMIC_CLEAR_BIT(huart->Instance->CR3, (USART_CR3_EIE | USART_CR3_RXFTIE));
 8007790:	6822      	ldr	r2, [r4, #0]
 8007792:	4842      	ldr	r0, [pc, #264]	@ (800789c <UART_CheckIdleState+0x2a8>)
 8007794:	6893      	ldr	r3, [r2, #8]
 8007796:	4003      	ands	r3, r0
 8007798:	6093      	str	r3, [r2, #8]
 800779a:	f381 8810 	msr	PRIMASK, r1
  if (huart->ReceptionType == HAL_UART_RECEPTION_TOIDLE)
 800779e:	6ee3      	ldr	r3, [r4, #108]	@ 0x6c
 80077a0:	2b01      	cmp	r3, #1
 80077a2:	d10a      	bne.n	80077ba <UART_CheckIdleState+0x1c6>
  __ASM volatile ("MRS %0, primask" : "=r" (result) :: "memory");
 80077a4:	f3ef 8110 	mrs	r1, PRIMASK
  __ASM volatile ("MSR primask, %0" : : "r" (priMask) : "memory");
 80077a8:	f383 8810 	msr	PRIMASK, r3
    ATOMIC_CLEAR_BIT(huart->Instance->CR1, USART_CR1_IDLEIE);
 80077ac:	2010      	movs	r0, #16
 80077ae:	6822      	ldr	r2, [r4, #0]
 80077b0:	6813      	ldr	r3, [r2, #0]
 80077b2:	4383      	bics	r3, r0
 80077b4:	6013      	str	r3, [r2, #0]
 80077b6:	f381 8810 	msr	PRIMASK, r1
  huart->RxState = HAL_UART_STATE_READY;
 80077ba:	2220      	movs	r2, #32
 80077bc:	238c      	movs	r3, #140	@ 0x8c
          huart->ErrorCode = HAL_UART_ERROR_RTO;
 80077be:	2190      	movs	r1, #144	@ 0x90
  huart->RxState = HAL_UART_STATE_READY;
 80077c0:	50e2      	str	r2, [r4, r3]
  huart->ReceptionType = HAL_UART_RECEPTION_STANDARD;
 80077c2:	2300      	movs	r3, #0
 80077c4:	66e3      	str	r3, [r4, #108]	@ 0x6c
  huart->RxISR = NULL;
 80077c6:	6763      	str	r3, [r4, #116]	@ 0x74
          huart->ErrorCode = HAL_UART_ERROR_RTO;
 80077c8:	5062      	str	r2, [r4, r1]
          __HAL_UNLOCK(huart);
 80077ca:	3264      	adds	r2, #100	@ 0x64
 80077cc:	54a3      	strb	r3, [r4, r2]
          return HAL_TIMEOUT;
 80077ce:	e750      	b.n	8007672 <UART_CheckIdleState+0x7e>
          __HAL_UART_CLEAR_FLAG(huart, UART_CLEAR_OREF);
 80077d0:	6219      	str	r1, [r3, #32]
  __ASM volatile ("MRS %0, primask" : "=r" (result) :: "memory");
 80077d2:	f3ef 8010 	mrs	r0, PRIMASK
  __ASM volatile ("MSR primask, %0" : : "r" (priMask) : "memory");
 80077d6:	2201      	movs	r2, #1
 80077d8:	f382 8810 	msr	PRIMASK, r2
  ATOMIC_CLEAR_BIT(huart->Instance->CR1, (USART_CR1_RXNEIE_RXFNEIE | USART_CR1_PEIE));
 80077dc:	6821      	ldr	r1, [r4, #0]
 80077de:	4d2e      	ldr	r5, [pc, #184]	@ (8007898 <UART_CheckIdleState+0x2a4>)
 80077e0:	680b      	ldr	r3, [r1, #0]
 80077e2:	402b      	ands	r3, r5
 80077e4:	600b      	str	r3, [r1, #0]
 80077e6:	f380 8810 	msr	PRIMASK, r0
  __ASM volatile ("MRS %0, primask" : "=r" (result) :: "memory");
 80077ea:	f3ef 8110 	mrs	r1, PRIMASK
  __ASM volatile ("MSR primask, %0" : : "r" (priMask) : "memory");
 80077ee:	f382 8810 	msr	PRIMASK, r2
  ATOMIC_CLEAR_BIT(huart->Instance->CR3, (USART_CR3_EIE | USART_CR3_RXFTIE));
 80077f2:	6822      	ldr	r2, [r4, #0]
 80077f4:	4829      	ldr	r0, [pc, #164]	@ (800789c <UART_CheckIdleState+0x2a8>)
 80077f6:	6893      	ldr	r3, [r2, #8]
 80077f8:	4003      	ands	r3, r0
 80077fa:	6093      	str	r3, [r2, #8]
 80077fc:	f381 8810 	msr	PRIMASK, r1
  if (huart->ReceptionType == HAL_UART_RECEPTION_TOIDLE)
 8007800:	6ee3      	ldr	r3, [r4, #108]	@ 0x6c
 8007802:	2b01      	cmp	r3, #1
 8007804:	d10a      	bne.n	800781c <UART_CheckIdleState+0x228>
  __ASM volatile ("MRS %0, primask" : "=r" (result) :: "memory");
 8007806:	f3ef 8110 	mrs	r1, PRIMASK
  __ASM volatile ("MSR primask, %0" : : "r" (priMask) : "memory");
 800780a:	f383 8810 	msr	PRIMASK, r3
    ATOMIC_CLEAR_BIT(huart->Instance->CR1, USART_CR1_IDLEIE);
 800780e:	2010      	movs	r0, #16
 8007810:	6822      	ldr	r2, [r4, #0]
 8007812:	6813      	ldr	r3, [r2, #0]
 8007814:	4383      	bics	r3, r0
 8007816:	6013      	str	r3, [r2, #0]
 8007818:	f381 8810 	msr	PRIMASK, r1
  huart->RxState = HAL_UART_STATE_READY;
 800781c:	238c      	movs	r3, #140	@ 0x8c
 800781e:	2220      	movs	r2, #32
          huart->ErrorCode = HAL_UART_ERROR_ORE;
 8007820:	2108      	movs	r1, #8
  huart->RxState = HAL_UART_STATE_READY;
 8007822:	50e2      	str	r2, [r4, r3]
  huart->ReceptionType = HAL_UART_RECEPTION_STANDARD;
 8007824:	2300      	movs	r3, #0
          huart->ErrorCode = HAL_UART_ERROR_ORE;
 8007826:	3270      	adds	r2, #112	@ 0x70
  huart->ReceptionType = HAL_UART_RECEPTION_STANDARD;
 8007828:	66e3      	str	r3, [r4, #108]	@ 0x6c
  huart->RxISR = NULL;
 800782a:	6763      	str	r3, [r4, #116]	@ 0x74
          huart->ErrorCode = HAL_UART_ERROR_ORE;
 800782c:	50a1      	str	r1, [r4, r2]
          __HAL_UNLOCK(huart);
 800782e:	3a0c      	subs	r2, #12
 8007830:	54a3      	strb	r3, [r4, r2]
          return HAL_ERROR;
 8007832:	e74f      	b.n	80076d4 <UART_CheckIdleState+0xe0>
          __HAL_UART_CLEAR_FLAG(huart, UART_CLEAR_RTOF);
 8007834:	621a      	str	r2, [r3, #32]
  __ASM volatile ("MRS %0, primask" : "=r" (result) :: "memory");
 8007836:	f3ef 8010 	mrs	r0, PRIMASK
  __ASM volatile ("MSR primask, %0" : : "r" (priMask) : "memory");
 800783a:	2201      	movs	r2, #1
 800783c:	f382 8810 	msr	PRIMASK, r2
  ATOMIC_CLEAR_BIT(huart->Instance->CR1, (USART_CR1_RXNEIE_RXFNEIE | USART_CR1_PEIE));
 8007840:	6821      	ldr	r1, [r4, #0]
 8007842:	4d15      	ldr	r5, [pc, #84]	@ (8007898 <UART_CheckIdleState+0x2a4>)
 8007844:	680b      	ldr	r3, [r1, #0]
 8007846:	402b      	ands	r3, r5
 8007848:	600b      	str	r3, [r1, #0]
 800784a:	f380 8810 	msr	PRIMASK, r0
  __ASM volatile ("MRS %0, primask" : "=r" (result) :: "memory");
 800784e:	f3ef 8110 	mrs	r1, PRIMASK
  __ASM volatile ("MSR primask, %0" : : "r" (priMask) : "memory");
 8007852:	f382 8810 	msr	PRIMASK, r2
  ATOMIC_CLEAR_BIT(huart->Instance->CR3, (USART_CR3_EIE | USART_CR3_RXFTIE));
 8007856:	6822      	ldr	r2, [r4, #0]
 8007858:	4810      	ldr	r0, [pc, #64]	@ (800789c <UART_CheckIdleState+0x2a8>)
 800785a:	6893      	ldr	r3, [r2, #8]
 800785c:	4003      	ands	r3, r0
 800785e:	6093      	str	r3, [r2, #8]
 8007860:	f381 8810 	msr	PRIMASK, r1
  if (huart->ReceptionType == HAL_UART_RECEPTION_TOIDLE)
 8007864:	6ee3      	ldr	r3, [r4, #108]	@ 0x6c
 8007866:	2b01      	cmp	r3, #1
 8007868:	d10a      	bne.n	8007880 <UART_CheckIdleState+0x28c>
  __ASM volatile ("MRS %0, primask" : "=r" (result) :: "memory");
 800786a:	f3ef 8110 	mrs	r1, PRIMASK
  __ASM volatile ("MSR primask, %0" : : "r" (priMask) : "memory");
 800786e:	f383 8810 	msr	PRIMASK, r3
    ATOMIC_CLEAR_BIT(huart->Instance->CR1, USART_CR1_IDLEIE);
 8007872:	2010      	movs	r0, #16
 8007874:	6822      	ldr	r2, [r4, #0]
 8007876:	6813      	ldr	r3, [r2, #0]
 8007878:	4383      	bics	r3, r0
 800787a:	6013      	str	r3, [r2, #0]
 800787c:	f381 8810 	msr	PRIMASK, r1
  huart->RxState = HAL_UART_STATE_READY;
 8007880:	2220      	movs	r2, #32
 8007882:	238c      	movs	r3, #140	@ 0x8c
          huart->ErrorCode = HAL_UART_ERROR_RTO;
 8007884:	2190      	movs	r1, #144	@ 0x90
  huart->RxState = HAL_UART_STATE_READY;
 8007886:	50e2      	str	r2, [r4, r3]
  huart->ReceptionType = HAL_UART_RECEPTION_STANDARD;
 8007888:	2300      	movs	r3, #0
 800788a:	66e3      	str	r3, [r4, #108]	@ 0x6c
  huart->RxISR = NULL;
 800788c:	6763      	str	r3, [r4, #116]	@ 0x74
          huart->ErrorCode = HAL_UART_ERROR_RTO;
 800788e:	5062      	str	r2, [r4, r1]
          __HAL_UNLOCK(huart);
 8007890:	3264      	adds	r2, #100	@ 0x64
 8007892:	54a3      	strb	r3, [r4, r2]
          return HAL_TIMEOUT;
 8007894:	e71e      	b.n	80076d4 <UART_CheckIdleState+0xe0>
 8007896:	46c0      	nop			@ (mov r8, r8)
 8007898:	fffffedf 	.word	0xfffffedf
 800789c:	effffffe 	.word	0xeffffffe

080078a0 <HAL_UART_Init>:
{
 80078a0:	b5f8      	push	{r3, r4, r5, r6, r7, lr}
 80078a2:	1e04      	subs	r4, r0, #0
  if (huart == NULL)
 80078a4:	d03f      	beq.n	8007926 <HAL_UART_Init+0x86>
  if (huart->gState == HAL_UART_STATE_RESET)
 80078a6:	2388      	movs	r3, #136	@ 0x88
 80078a8:	58c3      	ldr	r3, [r0, r3]
 80078aa:	2b00      	cmp	r3, #0
 80078ac:	d03d      	beq.n	800792a <HAL_UART_Init+0x8a>
  huart->gState = HAL_UART_STATE_BUSY;
 80078ae:	2388      	movs	r3, #136	@ 0x88
 80078b0:	2224      	movs	r2, #36	@ 0x24
  __HAL_UART_DISABLE(huart);
 80078b2:	6825      	ldr	r5, [r4, #0]
  huart->gState = HAL_UART_STATE_BUSY;
 80078b4:	50e2      	str	r2, [r4, r3]
  __HAL_UART_DISABLE(huart);
 80078b6:	682b      	ldr	r3, [r5, #0]
 80078b8:	3a23      	subs	r2, #35	@ 0x23
 80078ba:	4393      	bics	r3, r2
 80078bc:	602b      	str	r3, [r5, #0]
  if (huart->AdvancedInit.AdvFeatureInit != UART_ADVFEATURE_NO_INIT)
 80078be:	6aa3      	ldr	r3, [r4, #40]	@ 0x28
 80078c0:	2b00      	cmp	r3, #0
 80078c2:	d000      	beq.n	80078c6 <HAL_UART_Init+0x26>
 80078c4:	e09b      	b.n	80079fe <HAL_UART_Init+0x15e>
  tmpreg = (uint32_t)huart->Init.WordLength | huart->Init.Parity | huart->Init.Mode | huart->Init.OverSampling ;
 80078c6:	6921      	ldr	r1, [r4, #16]
 80078c8:	68a3      	ldr	r3, [r4, #8]
  MODIFY_REG(huart->Instance->CR1, USART_CR1_FIELDS, tmpreg);
 80078ca:	682a      	ldr	r2, [r5, #0]
  tmpreg = (uint32_t)huart->Init.WordLength | huart->Init.Parity | huart->Init.Mode | huart->Init.OverSampling ;
 80078cc:	430b      	orrs	r3, r1
 80078ce:	6961      	ldr	r1, [r4, #20]
 80078d0:	69e0      	ldr	r0, [r4, #28]
 80078d2:	430b      	orrs	r3, r1
  MODIFY_REG(huart->Instance->CR1, USART_CR1_FIELDS, tmpreg);
 80078d4:	499d      	ldr	r1, [pc, #628]	@ (8007b4c <HAL_UART_Init+0x2ac>)
  tmpreg = (uint32_t)huart->Init.WordLength | huart->Init.Parity | huart->Init.Mode | huart->Init.OverSampling ;
 80078d6:	4303      	orrs	r3, r0
  MODIFY_REG(huart->Instance->CR1, USART_CR1_FIELDS, tmpreg);
 80078d8:	400a      	ands	r2, r1
 80078da:	4313      	orrs	r3, r2
 80078dc:	602b      	str	r3, [r5, #0]
  MODIFY_REG(huart->Instance->CR2, USART_CR2_STOP, huart->Init.StopBits);
 80078de:	686b      	ldr	r3, [r5, #4]
 80078e0:	4a9b      	ldr	r2, [pc, #620]	@ (8007b50 <HAL_UART_Init+0x2b0>)
  if (!(UART_INSTANCE_LOWPOWER(huart)))
 80078e2:	499c      	ldr	r1, [pc, #624]	@ (8007b54 <HAL_UART_Init+0x2b4>)
  MODIFY_REG(huart->Instance->CR2, USART_CR2_STOP, huart->Init.StopBits);
 80078e4:	4013      	ands	r3, r2
 80078e6:	68e2      	ldr	r2, [r4, #12]
 80078e8:	4313      	orrs	r3, r2
 80078ea:	606b      	str	r3, [r5, #4]
  MODIFY_REG(huart->Instance->PRESC, USART_PRESC_PRESCALER, huart->Init.ClockPrescaler);
 80078ec:	6a62      	ldr	r2, [r4, #36]	@ 0x24
  tmpreg = (uint32_t)huart->Init.HwFlowCtl;
 80078ee:	69a3      	ldr	r3, [r4, #24]
  if (!(UART_INSTANCE_LOWPOWER(huart)))
 80078f0:	428d      	cmp	r5, r1
 80078f2:	d100      	bne.n	80078f6 <HAL_UART_Init+0x56>
 80078f4:	e099      	b.n	8007a2a <HAL_UART_Init+0x18a>
    tmpreg |= huart->Init.OneBitSampling;
 80078f6:	6a26      	ldr	r6, [r4, #32]
  MODIFY_REG(huart->Instance->CR3, USART_CR3_FIELDS, tmpreg);
 80078f8:	68a9      	ldr	r1, [r5, #8]
    tmpreg |= huart->Init.OneBitSampling;
 80078fa:	4333      	orrs	r3, r6
  MODIFY_REG(huart->Instance->CR3, USART_CR3_FIELDS, tmpreg);
 80078fc:	4e96      	ldr	r6, [pc, #600]	@ (8007b58 <HAL_UART_Init+0x2b8>)
 80078fe:	4031      	ands	r1, r6
 8007900:	430b      	orrs	r3, r1
  MODIFY_REG(huart->Instance->PRESC, USART_PRESC_PRESCALER, huart->Init.ClockPrescaler);
 8007902:	210f      	movs	r1, #15
  MODIFY_REG(huart->Instance->CR3, USART_CR3_FIELDS, tmpreg);
 8007904:	60ab      	str	r3, [r5, #8]
  MODIFY_REG(huart->Instance->PRESC, USART_PRESC_PRESCALER, huart->Init.ClockPrescaler);
 8007906:	6aeb      	ldr	r3, [r5, #44]	@ 0x2c
 8007908:	438b      	bics	r3, r1
 800790a:	4313      	orrs	r3, r2
 800790c:	62eb      	str	r3, [r5, #44]	@ 0x2c
  UART_GETCLOCKSOURCE(huart, clocksource);
 800790e:	4b93      	ldr	r3, [pc, #588]	@ (8007b5c <HAL_UART_Init+0x2bc>)
 8007910:	429d      	cmp	r5, r3
 8007912:	d037      	beq.n	8007984 <HAL_UART_Init+0xe4>
 8007914:	4b92      	ldr	r3, [pc, #584]	@ (8007b60 <HAL_UART_Init+0x2c0>)
 8007916:	429d      	cmp	r5, r3
 8007918:	d100      	bne.n	800791c <HAL_UART_Init+0x7c>
 800791a:	e07b      	b.n	8007a14 <HAL_UART_Init+0x174>
  huart->NbRxDataToProcess = 1;
 800791c:	4b91      	ldr	r3, [pc, #580]	@ (8007b64 <HAL_UART_Init+0x2c4>)
 800791e:	66a3      	str	r3, [r4, #104]	@ 0x68
  huart->RxISR = NULL;
 8007920:	2300      	movs	r3, #0
 8007922:	6763      	str	r3, [r4, #116]	@ 0x74
  huart->TxISR = NULL;
 8007924:	67a3      	str	r3, [r4, #120]	@ 0x78
    return HAL_ERROR;
 8007926:	2001      	movs	r0, #1
}
 8007928:	bdf8      	pop	{r3, r4, r5, r6, r7, pc}
    huart->Lock = HAL_UNLOCKED;
 800792a:	2284      	movs	r2, #132	@ 0x84
 800792c:	5483      	strb	r3, [r0, r2]
  huart->TxHalfCpltCallback        = HAL_UART_TxHalfCpltCallback;        /* Legacy weak TxHalfCpltCallback        */
 800792e:	4b8e      	ldr	r3, [pc, #568]	@ (8007b68 <HAL_UART_Init+0x2c8>)
 8007930:	3210      	adds	r2, #16
 8007932:	5083      	str	r3, [r0, r2]
  huart->TxCpltCallback            = HAL_UART_TxCpltCallback;            /* Legacy weak TxCpltCallback            */
 8007934:	4b8d      	ldr	r3, [pc, #564]	@ (8007b6c <HAL_UART_Init+0x2cc>)
 8007936:	3204      	adds	r2, #4
 8007938:	5083      	str	r3, [r0, r2]
  huart->RxHalfCpltCallback        = HAL_UART_RxHalfCpltCallback;        /* Legacy weak RxHalfCpltCallback        */
 800793a:	4b8d      	ldr	r3, [pc, #564]	@ (8007b70 <HAL_UART_Init+0x2d0>)
 800793c:	3204      	adds	r2, #4
 800793e:	5083      	str	r3, [r0, r2]
  huart->RxCpltCallback            = HAL_UART_RxCpltCallback;            /* Legacy weak RxCpltCallback            */
 8007940:	4b8c      	ldr	r3, [pc, #560]	@ (8007b74 <HAL_UART_Init+0x2d4>)
 8007942:	3204      	adds	r2, #4
 8007944:	5083      	str	r3, [r0, r2]
  huart->ErrorCallback             = HAL_UART_ErrorCallback;             /* Legacy weak ErrorCallback             */
 8007946:	4b8c      	ldr	r3, [pc, #560]	@ (8007b78 <HAL_UART_Init+0x2d8>)
 8007948:	3204      	adds	r2, #4
 800794a:	5083      	str	r3, [r0, r2]
  huart->AbortCpltCallback         = HAL_UART_AbortCpltCallback;         /* Legacy weak AbortCpltCallback         */
 800794c:	4b8b      	ldr	r3, [pc, #556]	@ (8007b7c <HAL_UART_Init+0x2dc>)
 800794e:	3204      	adds	r2, #4
 8007950:	5083      	str	r3, [r0, r2]
  huart->AbortTransmitCpltCallback = HAL_UART_AbortTransmitCpltCallback; /* Legacy weak AbortTransmitCpltCallback */
 8007952:	4b8b      	ldr	r3, [pc, #556]	@ (8007b80 <HAL_UART_Init+0x2e0>)
 8007954:	3204      	adds	r2, #4
 8007956:	5083      	str	r3, [r0, r2]
  huart->AbortReceiveCpltCallback  = HAL_UART_AbortReceiveCpltCallback;  /* Legacy weak AbortReceiveCpltCallback  */
 8007958:	4b8a      	ldr	r3, [pc, #552]	@ (8007b84 <HAL_UART_Init+0x2e4>)
 800795a:	3204      	adds	r2, #4
 800795c:	5083      	str	r3, [r0, r2]
  huart->WakeupCallback            = HAL_UARTEx_WakeupCallback;          /* Legacy weak WakeupCallback            */
 800795e:	4b8a      	ldr	r3, [pc, #552]	@ (8007b88 <HAL_UART_Init+0x2e8>)
 8007960:	3204      	adds	r2, #4
 8007962:	5083      	str	r3, [r0, r2]
  huart->RxFifoFullCallback        = HAL_UARTEx_RxFifoFullCallback;      /* Legacy weak RxFifoFullCallback        */
 8007964:	4b89      	ldr	r3, [pc, #548]	@ (8007b8c <HAL_UART_Init+0x2ec>)
 8007966:	3204      	adds	r2, #4
 8007968:	5083      	str	r3, [r0, r2]
  huart->TxFifoEmptyCallback       = HAL_UARTEx_TxFifoEmptyCallback;     /* Legacy weak TxFifoEmptyCallback       */
 800796a:	4b89      	ldr	r3, [pc, #548]	@ (8007b90 <HAL_UART_Init+0x2f0>)
 800796c:	3204      	adds	r2, #4
 800796e:	5083      	str	r3, [r0, r2]
  huart->RxEventCallback           = HAL_UARTEx_RxEventCallback;         /* Legacy weak RxEventCallback           */
 8007970:	4b88      	ldr	r3, [pc, #544]	@ (8007b94 <HAL_UART_Init+0x2f4>)
 8007972:	3204      	adds	r2, #4
 8007974:	5083      	str	r3, [r0, r2]
    if (huart->MspInitCallback == NULL)
 8007976:	3204      	adds	r2, #4
 8007978:	5883      	ldr	r3, [r0, r2]
 800797a:	2b00      	cmp	r3, #0
 800797c:	d052      	beq.n	8007a24 <HAL_UART_Init+0x184>
    huart->MspInitCallback(huart);
 800797e:	0020      	movs	r0, r4
 8007980:	4798      	blx	r3
 8007982:	e794      	b.n	80078ae <HAL_UART_Init+0xe>
  UART_GETCLOCKSOURCE(huart, clocksource);
 8007984:	4b84      	ldr	r3, [pc, #528]	@ (8007b98 <HAL_UART_Init+0x2f8>)
 8007986:	6d59      	ldr	r1, [r3, #84]	@ 0x54
 8007988:	2303      	movs	r3, #3
 800798a:	400b      	ands	r3, r1
 800798c:	2b02      	cmp	r3, #2
 800798e:	d03a      	beq.n	8007a06 <HAL_UART_Init+0x166>
 8007990:	2b03      	cmp	r3, #3
 8007992:	d100      	bne.n	8007996 <HAL_UART_Init+0xf6>
 8007994:	e09d      	b.n	8007ad2 <HAL_UART_Init+0x232>
 8007996:	2b01      	cmp	r3, #1
 8007998:	d13c      	bne.n	8007a14 <HAL_UART_Init+0x174>
  else if (huart->Init.OverSampling == UART_OVERSAMPLING_8)
 800799a:	2380      	movs	r3, #128	@ 0x80
 800799c:	021b      	lsls	r3, r3, #8
 800799e:	4298      	cmp	r0, r3
 80079a0:	d100      	bne.n	80079a4 <HAL_UART_Init+0x104>
 80079a2:	e09c      	b.n	8007ade <HAL_UART_Init+0x23e>
        pclk = HAL_RCC_GetSysClockFreq();
 80079a4:	f7fd fb96 	bl	80050d4 <HAL_RCC_GetSysClockFreq>
    if (pclk != 0U)
 80079a8:	2800      	cmp	r0, #0
 80079aa:	d100      	bne.n	80079ae <HAL_UART_Init+0x10e>
 80079ac:	e08b      	b.n	8007ac6 <HAL_UART_Init+0x226>
      usartdiv = (uint32_t)(UART_DIV_SAMPLING16(pclk, huart->Init.BaudRate, huart->Init.ClockPrescaler));
 80079ae:	6a62      	ldr	r2, [r4, #36]	@ 0x24
 80079b0:	4b7a      	ldr	r3, [pc, #488]	@ (8007b9c <HAL_UART_Init+0x2fc>)
 80079b2:	0052      	lsls	r2, r2, #1
 80079b4:	5ad1      	ldrh	r1, [r2, r3]
 80079b6:	f7f8 fba5 	bl	8000104 <__udivsi3>
 80079ba:	6865      	ldr	r5, [r4, #4]
 80079bc:	086b      	lsrs	r3, r5, #1
 80079be:	18c0      	adds	r0, r0, r3
 80079c0:	0029      	movs	r1, r5
 80079c2:	f7f8 fb9f 	bl	8000104 <__udivsi3>
      if ((usartdiv >= UART_BRR_MIN) && (usartdiv <= UART_BRR_MAX))
 80079c6:	0002      	movs	r2, r0
 80079c8:	4b75      	ldr	r3, [pc, #468]	@ (8007ba0 <HAL_UART_Init+0x300>)
 80079ca:	3a10      	subs	r2, #16
 80079cc:	429a      	cmp	r2, r3
 80079ce:	d8a5      	bhi.n	800791c <HAL_UART_Init+0x7c>
        huart->Instance->BRR = (uint16_t)usartdiv;
 80079d0:	6823      	ldr	r3, [r4, #0]
 80079d2:	60d8      	str	r0, [r3, #12]
  huart->NbRxDataToProcess = 1;
 80079d4:	4a63      	ldr	r2, [pc, #396]	@ (8007b64 <HAL_UART_Init+0x2c4>)
 80079d6:	66a2      	str	r2, [r4, #104]	@ 0x68
  huart->RxISR = NULL;
 80079d8:	2200      	movs	r2, #0
 80079da:	6762      	str	r2, [r4, #116]	@ 0x74
  huart->TxISR = NULL;
 80079dc:	67a2      	str	r2, [r4, #120]	@ 0x78
  CLEAR_BIT(huart->Instance->CR2, (USART_CR2_LINEN | USART_CR2_CLKEN));
 80079de:	685a      	ldr	r2, [r3, #4]
 80079e0:	4970      	ldr	r1, [pc, #448]	@ (8007ba4 <HAL_UART_Init+0x304>)
  return (UART_CheckIdleState(huart));
 80079e2:	0020      	movs	r0, r4
  CLEAR_BIT(huart->Instance->CR2, (USART_CR2_LINEN | USART_CR2_CLKEN));
 80079e4:	400a      	ands	r2, r1
  CLEAR_BIT(huart->Instance->CR3, (USART_CR3_SCEN | USART_CR3_HDSEL | USART_CR3_IREN));
 80079e6:	212a      	movs	r1, #42	@ 0x2a
  CLEAR_BIT(huart->Instance->CR2, (USART_CR2_LINEN | USART_CR2_CLKEN));
 80079e8:	605a      	str	r2, [r3, #4]
  CLEAR_BIT(huart->Instance->CR3, (USART_CR3_SCEN | USART_CR3_HDSEL | USART_CR3_IREN));
 80079ea:	689a      	ldr	r2, [r3, #8]
 80079ec:	438a      	bics	r2, r1
 80079ee:	609a      	str	r2, [r3, #8]
  __HAL_UART_ENABLE(huart);
 80079f0:	681a      	ldr	r2, [r3, #0]
 80079f2:	3929      	subs	r1, #41	@ 0x29
 80079f4:	430a      	orrs	r2, r1
 80079f6:	601a      	str	r2, [r3, #0]
  return (UART_CheckIdleState(huart));
 80079f8:	f7ff fdfc 	bl	80075f4 <UART_CheckIdleState>
 80079fc:	e794      	b.n	8007928 <HAL_UART_Init+0x88>
    UART_AdvFeatureConfig(huart);
 80079fe:	0020      	movs	r0, r4
 8007a00:	f7ff fd90 	bl	8007524 <UART_AdvFeatureConfig>
 8007a04:	e75f      	b.n	80078c6 <HAL_UART_Init+0x26>
  else if (huart->Init.OverSampling == UART_OVERSAMPLING_8)
 8007a06:	2380      	movs	r3, #128	@ 0x80
 8007a08:	021b      	lsls	r3, r3, #8
 8007a0a:	4298      	cmp	r0, r3
 8007a0c:	d100      	bne.n	8007a10 <HAL_UART_Init+0x170>
 8007a0e:	e089      	b.n	8007b24 <HAL_UART_Init+0x284>
        pclk = (uint32_t) HSI_VALUE;
 8007a10:	4865      	ldr	r0, [pc, #404]	@ (8007ba8 <HAL_UART_Init+0x308>)
 8007a12:	e7cd      	b.n	80079b0 <HAL_UART_Init+0x110>
  else if (huart->Init.OverSampling == UART_OVERSAMPLING_8)
 8007a14:	2380      	movs	r3, #128	@ 0x80
 8007a16:	021b      	lsls	r3, r3, #8
 8007a18:	4298      	cmp	r0, r3
 8007a1a:	d100      	bne.n	8007a1e <HAL_UART_Init+0x17e>
 8007a1c:	e08a      	b.n	8007b34 <HAL_UART_Init+0x294>
        pclk = HAL_RCC_GetPCLK1Freq();
 8007a1e:	f7fd fc6f 	bl	8005300 <HAL_RCC_GetPCLK1Freq>
        break;
 8007a22:	e7c1      	b.n	80079a8 <HAL_UART_Init+0x108>
      huart->MspInitCallback = HAL_UART_MspInit;
 8007a24:	4b61      	ldr	r3, [pc, #388]	@ (8007bac <HAL_UART_Init+0x30c>)
 8007a26:	5083      	str	r3, [r0, r2]
 8007a28:	e7a9      	b.n	800797e <HAL_UART_Init+0xde>
  MODIFY_REG(huart->Instance->CR3, USART_CR3_FIELDS, tmpreg);
 8007a2a:	68a9      	ldr	r1, [r5, #8]
 8007a2c:	484a      	ldr	r0, [pc, #296]	@ (8007b58 <HAL_UART_Init+0x2b8>)
 8007a2e:	4001      	ands	r1, r0
 8007a30:	430b      	orrs	r3, r1
  MODIFY_REG(huart->Instance->PRESC, USART_PRESC_PRESCALER, huart->Init.ClockPrescaler);
 8007a32:	210f      	movs	r1, #15
  MODIFY_REG(huart->Instance->CR3, USART_CR3_FIELDS, tmpreg);
 8007a34:	60ab      	str	r3, [r5, #8]
  MODIFY_REG(huart->Instance->PRESC, USART_PRESC_PRESCALER, huart->Init.ClockPrescaler);
 8007a36:	6aeb      	ldr	r3, [r5, #44]	@ 0x2c
  UART_GETCLOCKSOURCE(huart, clocksource);
 8007a38:	20c0      	movs	r0, #192	@ 0xc0
  MODIFY_REG(huart->Instance->PRESC, USART_PRESC_PRESCALER, huart->Init.ClockPrescaler);
 8007a3a:	438b      	bics	r3, r1
  UART_GETCLOCKSOURCE(huart, clocksource);
 8007a3c:	2180      	movs	r1, #128	@ 0x80
  MODIFY_REG(huart->Instance->PRESC, USART_PRESC_PRESCALER, huart->Init.ClockPrescaler);
 8007a3e:	4313      	orrs	r3, r2
 8007a40:	62eb      	str	r3, [r5, #44]	@ 0x2c
  UART_GETCLOCKSOURCE(huart, clocksource);
 8007a42:	4b55      	ldr	r3, [pc, #340]	@ (8007b98 <HAL_UART_Init+0x2f8>)
 8007a44:	0100      	lsls	r0, r0, #4
 8007a46:	6d5b      	ldr	r3, [r3, #84]	@ 0x54
 8007a48:	0109      	lsls	r1, r1, #4
 8007a4a:	4003      	ands	r3, r0
 8007a4c:	428b      	cmp	r3, r1
 8007a4e:	d07a      	beq.n	8007b46 <HAL_UART_Init+0x2a6>
 8007a50:	d873      	bhi.n	8007b3a <HAL_UART_Init+0x29a>
 8007a52:	2b00      	cmp	r3, #0
 8007a54:	d062      	beq.n	8007b1c <HAL_UART_Init+0x27c>
        pclk = HAL_RCC_GetSysClockFreq();
 8007a56:	f7fd fb3d 	bl	80050d4 <HAL_RCC_GetSysClockFreq>
 8007a5a:	0005      	movs	r5, r0
    if (pclk != 0U)
 8007a5c:	2d00      	cmp	r5, #0
 8007a5e:	d063      	beq.n	8007b28 <HAL_UART_Init+0x288>
      lpuart_ker_ck_pres = (pclk / UARTPrescTable[huart->Init.ClockPrescaler]);
 8007a60:	6a62      	ldr	r2, [r4, #36]	@ 0x24
 8007a62:	4b4e      	ldr	r3, [pc, #312]	@ (8007b9c <HAL_UART_Init+0x2fc>)
 8007a64:	0052      	lsls	r2, r2, #1
 8007a66:	5ad6      	ldrh	r6, [r2, r3]
 8007a68:	0028      	movs	r0, r5
 8007a6a:	0031      	movs	r1, r6
 8007a6c:	f7f8 fb4a 	bl	8000104 <__udivsi3>
      if ((lpuart_ker_ck_pres < (3U * huart->Init.BaudRate)) ||
 8007a70:	6867      	ldr	r7, [r4, #4]
 8007a72:	007b      	lsls	r3, r7, #1
 8007a74:	19db      	adds	r3, r3, r7
 8007a76:	4298      	cmp	r0, r3
 8007a78:	d200      	bcs.n	8007a7c <HAL_UART_Init+0x1dc>
 8007a7a:	e74f      	b.n	800791c <HAL_UART_Init+0x7c>
          (lpuart_ker_ck_pres > (4096U * huart->Init.BaudRate)))
 8007a7c:	033b      	lsls	r3, r7, #12
      if ((lpuart_ker_ck_pres < (3U * huart->Init.BaudRate)) ||
 8007a7e:	4298      	cmp	r0, r3
 8007a80:	d900      	bls.n	8007a84 <HAL_UART_Init+0x1e4>
 8007a82:	e74b      	b.n	800791c <HAL_UART_Init+0x7c>
        usartdiv = (uint32_t)(UART_DIV_LPUART(pclk, huart->Init.BaudRate, huart->Init.ClockPrescaler));
 8007a84:	0032      	movs	r2, r6
 8007a86:	2300      	movs	r3, #0
 8007a88:	0028      	movs	r0, r5
 8007a8a:	2100      	movs	r1, #0
 8007a8c:	f7f8 fbc6 	bl	800021c <__aeabi_uldivmod>
 8007a90:	2600      	movs	r6, #0
 8007a92:	0e05      	lsrs	r5, r0, #24
 8007a94:	020b      	lsls	r3, r1, #8
 8007a96:	432b      	orrs	r3, r5
 8007a98:	0202      	lsls	r2, r0, #8
 8007a9a:	087d      	lsrs	r5, r7, #1
 8007a9c:	1952      	adds	r2, r2, r5
 8007a9e:	4173      	adcs	r3, r6
 8007aa0:	0010      	movs	r0, r2
 8007aa2:	0019      	movs	r1, r3
 8007aa4:	003a      	movs	r2, r7
 8007aa6:	2300      	movs	r3, #0
 8007aa8:	f7f8 fbb8 	bl	800021c <__aeabi_uldivmod>
        if ((usartdiv >= LPUART_BRR_MIN) && (usartdiv <= LPUART_BRR_MAX))
 8007aac:	4b40      	ldr	r3, [pc, #256]	@ (8007bb0 <HAL_UART_Init+0x310>)
 8007aae:	18c2      	adds	r2, r0, r3
 8007ab0:	4b40      	ldr	r3, [pc, #256]	@ (8007bb4 <HAL_UART_Init+0x314>)
 8007ab2:	429a      	cmp	r2, r3
 8007ab4:	d900      	bls.n	8007ab8 <HAL_UART_Init+0x218>
 8007ab6:	e731      	b.n	800791c <HAL_UART_Init+0x7c>
          huart->Instance->BRR = usartdiv;
 8007ab8:	6823      	ldr	r3, [r4, #0]
  huart->NbRxDataToProcess = 1;
 8007aba:	4a2a      	ldr	r2, [pc, #168]	@ (8007b64 <HAL_UART_Init+0x2c4>)
          huart->Instance->BRR = usartdiv;
 8007abc:	60d8      	str	r0, [r3, #12]
  huart->NbRxDataToProcess = 1;
 8007abe:	66a2      	str	r2, [r4, #104]	@ 0x68
  huart->RxISR = NULL;
 8007ac0:	6766      	str	r6, [r4, #116]	@ 0x74
  huart->TxISR = NULL;
 8007ac2:	67a6      	str	r6, [r4, #120]	@ 0x78
  return ret;
 8007ac4:	e78b      	b.n	80079de <HAL_UART_Init+0x13e>
  huart->NbRxDataToProcess = 1;
 8007ac6:	4b27      	ldr	r3, [pc, #156]	@ (8007b64 <HAL_UART_Init+0x2c4>)
  huart->RxISR = NULL;
 8007ac8:	6760      	str	r0, [r4, #116]	@ 0x74
  huart->NbRxDataToProcess = 1;
 8007aca:	66a3      	str	r3, [r4, #104]	@ 0x68
  huart->TxISR = NULL;
 8007acc:	67a0      	str	r0, [r4, #120]	@ 0x78
  CLEAR_BIT(huart->Instance->CR2, (USART_CR2_LINEN | USART_CR2_CLKEN));
 8007ace:	6823      	ldr	r3, [r4, #0]
 8007ad0:	e785      	b.n	80079de <HAL_UART_Init+0x13e>
  else if (huart->Init.OverSampling == UART_OVERSAMPLING_8)
 8007ad2:	2380      	movs	r3, #128	@ 0x80
 8007ad4:	021b      	lsls	r3, r3, #8
 8007ad6:	4298      	cmp	r0, r3
 8007ad8:	d006      	beq.n	8007ae8 <HAL_UART_Init+0x248>
        pclk = (uint32_t) LSE_VALUE;
 8007ada:	0018      	movs	r0, r3
 8007adc:	e768      	b.n	80079b0 <HAL_UART_Init+0x110>
        pclk = HAL_RCC_GetSysClockFreq();
 8007ade:	f7fd faf9 	bl	80050d4 <HAL_RCC_GetSysClockFreq>
    if (pclk != 0U)
 8007ae2:	2800      	cmp	r0, #0
 8007ae4:	d0ef      	beq.n	8007ac6 <HAL_UART_Init+0x226>
      usartdiv = (uint32_t)(UART_DIV_SAMPLING8(pclk, huart->Init.BaudRate, huart->Init.ClockPrescaler));
 8007ae6:	6a62      	ldr	r2, [r4, #36]	@ 0x24
 8007ae8:	4b2c      	ldr	r3, [pc, #176]	@ (8007b9c <HAL_UART_Init+0x2fc>)
 8007aea:	0052      	lsls	r2, r2, #1
 8007aec:	5ad1      	ldrh	r1, [r2, r3]
 8007aee:	f7f8 fb09 	bl	8000104 <__udivsi3>
 8007af2:	6865      	ldr	r5, [r4, #4]
 8007af4:	0040      	lsls	r0, r0, #1
 8007af6:	086b      	lsrs	r3, r5, #1
 8007af8:	18c0      	adds	r0, r0, r3
 8007afa:	0029      	movs	r1, r5
 8007afc:	f7f8 fb02 	bl	8000104 <__udivsi3>
      if ((usartdiv >= UART_BRR_MIN) && (usartdiv <= UART_BRR_MAX))
 8007b00:	0002      	movs	r2, r0
 8007b02:	4b27      	ldr	r3, [pc, #156]	@ (8007ba0 <HAL_UART_Init+0x300>)
 8007b04:	3a10      	subs	r2, #16
 8007b06:	429a      	cmp	r2, r3
 8007b08:	d900      	bls.n	8007b0c <HAL_UART_Init+0x26c>
 8007b0a:	e707      	b.n	800791c <HAL_UART_Init+0x7c>
        brrtemp = (uint16_t)(usartdiv & 0xFFF0U);
 8007b0c:	4a2a      	ldr	r2, [pc, #168]	@ (8007bb8 <HAL_UART_Init+0x318>)
        huart->Instance->BRR = brrtemp;
 8007b0e:	6823      	ldr	r3, [r4, #0]
        brrtemp = (uint16_t)(usartdiv & 0xFFF0U);
 8007b10:	4002      	ands	r2, r0
        brrtemp |= (uint16_t)((usartdiv & (uint16_t)0x000FU) >> 1U);
 8007b12:	0700      	lsls	r0, r0, #28
 8007b14:	0f40      	lsrs	r0, r0, #29
        huart->Instance->BRR = brrtemp;
 8007b16:	4302      	orrs	r2, r0
 8007b18:	60da      	str	r2, [r3, #12]
  huart->NbRxDataToProcess = 1;
 8007b1a:	e75b      	b.n	80079d4 <HAL_UART_Init+0x134>
        pclk = HAL_RCC_GetPCLK1Freq();
 8007b1c:	f7fd fbf0 	bl	8005300 <HAL_RCC_GetPCLK1Freq>
 8007b20:	0005      	movs	r5, r0
        break;
 8007b22:	e79b      	b.n	8007a5c <HAL_UART_Init+0x1bc>
        pclk = (uint32_t) HSI_VALUE;
 8007b24:	4820      	ldr	r0, [pc, #128]	@ (8007ba8 <HAL_UART_Init+0x308>)
 8007b26:	e7df      	b.n	8007ae8 <HAL_UART_Init+0x248>
  huart->NbRxDataToProcess = 1;
 8007b28:	4b0e      	ldr	r3, [pc, #56]	@ (8007b64 <HAL_UART_Init+0x2c4>)
  huart->RxISR = NULL;
 8007b2a:	6765      	str	r5, [r4, #116]	@ 0x74
  huart->NbRxDataToProcess = 1;
 8007b2c:	66a3      	str	r3, [r4, #104]	@ 0x68
  huart->TxISR = NULL;
 8007b2e:	67a5      	str	r5, [r4, #120]	@ 0x78
  CLEAR_BIT(huart->Instance->CR2, (USART_CR2_LINEN | USART_CR2_CLKEN));
 8007b30:	6823      	ldr	r3, [r4, #0]
 8007b32:	e754      	b.n	80079de <HAL_UART_Init+0x13e>
        pclk = HAL_RCC_GetPCLK1Freq();
 8007b34:	f7fd fbe4 	bl	8005300 <HAL_RCC_GetPCLK1Freq>
        break;
 8007b38:	e7d3      	b.n	8007ae2 <HAL_UART_Init+0x242>
  UART_GETCLOCKSOURCE(huart, clocksource);
 8007b3a:	4283      	cmp	r3, r0
 8007b3c:	d000      	beq.n	8007b40 <HAL_UART_Init+0x2a0>
 8007b3e:	e6ed      	b.n	800791c <HAL_UART_Init+0x7c>
        pclk = (uint32_t) LSE_VALUE;
 8007b40:	2580      	movs	r5, #128	@ 0x80
 8007b42:	022d      	lsls	r5, r5, #8
 8007b44:	e78d      	b.n	8007a62 <HAL_UART_Init+0x1c2>
        pclk = (uint32_t) HSI_VALUE;
 8007b46:	4d18      	ldr	r5, [pc, #96]	@ (8007ba8 <HAL_UART_Init+0x308>)
 8007b48:	e78b      	b.n	8007a62 <HAL_UART_Init+0x1c2>
 8007b4a:	46c0      	nop			@ (mov r8, r8)
 8007b4c:	cfff69f3 	.word	0xcfff69f3
 8007b50:	ffffcfff 	.word	0xffffcfff
 8007b54:	40008000 	.word	0x40008000
 8007b58:	11fff4ff 	.word	0x11fff4ff
 8007b5c:	40013800 	.word	0x40013800
 8007b60:	40004400 	.word	0x40004400
 8007b64:	00010001 	.word	0x00010001
 8007b68:	08006ead 	.word	0x08006ead
 8007b6c:	08006ea9 	.word	0x08006ea9
 8007b70:	08006eb5 	.word	0x08006eb5
 8007b74:	08006eb1 	.word	0x08006eb1
 8007b78:	08006eb9 	.word	0x08006eb9
 8007b7c:	08006ebd 	.word	0x08006ebd
 8007b80:	08006ec1 	.word	0x08006ec1
 8007b84:	08006ea5 	.word	0x08006ea5
 8007b88:	08007bbd 	.word	0x08007bbd
 8007b8c:	08007bc1 	.word	0x08007bc1
 8007b90:	08007bc5 	.word	0x08007bc5
 8007b94:	08006dc5 	.word	0x08006dc5
 8007b98:	40021000 	.word	0x40021000
 8007b9c:	0800876c 	.word	0x0800876c
 8007ba0:	0000ffef 	.word	0x0000ffef
 8007ba4:	ffffb7ff 	.word	0xffffb7ff
 8007ba8:	00f42400 	.word	0x00f42400
 8007bac:	08002e5d 	.word	0x08002e5d
 8007bb0:	fffffd00 	.word	0xfffffd00
 8007bb4:	000ffcff 	.word	0x000ffcff
 8007bb8:	0000fff0 	.word	0x0000fff0

08007bbc <HAL_UARTEx_WakeupCallback>:
  UNUSED(huart);

  /* NOTE : This function should not be modified, when the callback is needed,
            the HAL_UARTEx_WakeupCallback can be implemented in the user file.
   */
}
 8007bbc:	4770      	bx	lr
 8007bbe:	46c0      	nop			@ (mov r8, r8)

08007bc0 <HAL_UARTEx_RxFifoFullCallback>:
/**
  * @brief  UART RX Fifo full callback.
  * @param  huart UART handle.
  * @retval None
  */
__weak void HAL_UARTEx_RxFifoFullCallback(UART_HandleTypeDef *huart)
 8007bc0:	4770      	bx	lr
 8007bc2:	46c0      	nop			@ (mov r8, r8)

08007bc4 <HAL_UARTEx_TxFifoEmptyCallback>:
/**
  * @brief  UART TX Fifo empty callback.
  * @param  huart UART handle.
  * @retval None
  */
__weak void HAL_UARTEx_TxFifoEmptyCallback(UART_HandleTypeDef *huart)
 8007bc4:	4770      	bx	lr
 8007bc6:	46c0      	nop			@ (mov r8, r8)

08007bc8 <memset>:
 8007bc8:	0003      	movs	r3, r0
 8007bca:	1882      	adds	r2, r0, r2
 8007bcc:	4293      	cmp	r3, r2
 8007bce:	d100      	bne.n	8007bd2 <memset+0xa>
 8007bd0:	4770      	bx	lr
 8007bd2:	7019      	strb	r1, [r3, #0]
 8007bd4:	3301      	adds	r3, #1
 8007bd6:	e7f9      	b.n	8007bcc <memset+0x4>

08007bd8 <__libc_init_array>:
 8007bd8:	b570      	push	{r4, r5, r6, lr}
 8007bda:	2600      	movs	r6, #0
 8007bdc:	4c0c      	ldr	r4, [pc, #48]	@ (8007c10 <__libc_init_array+0x38>)
 8007bde:	4d0d      	ldr	r5, [pc, #52]	@ (8007c14 <__libc_init_array+0x3c>)
 8007be0:	1b64      	subs	r4, r4, r5
 8007be2:	10a4      	asrs	r4, r4, #2
 8007be4:	42a6      	cmp	r6, r4
 8007be6:	d109      	bne.n	8007bfc <__libc_init_array+0x24>
 8007be8:	2600      	movs	r6, #0
 8007bea:	f000 f823 	bl	8007c34 <_init>
 8007bee:	4c0a      	ldr	r4, [pc, #40]	@ (8007c18 <__libc_init_array+0x40>)
 8007bf0:	4d0a      	ldr	r5, [pc, #40]	@ (8007c1c <__libc_init_array+0x44>)
 8007bf2:	1b64      	subs	r4, r4, r5
 8007bf4:	10a4      	asrs	r4, r4, #2
 8007bf6:	42a6      	cmp	r6, r4
 8007bf8:	d105      	bne.n	8007c06 <__libc_init_array+0x2e>
 8007bfa:	bd70      	pop	{r4, r5, r6, pc}
 8007bfc:	00b3      	lsls	r3, r6, #2
 8007bfe:	58eb      	ldr	r3, [r5, r3]
 8007c00:	4798      	blx	r3
 8007c02:	3601      	adds	r6, #1
 8007c04:	e7ee      	b.n	8007be4 <__libc_init_array+0xc>
 8007c06:	00b3      	lsls	r3, r6, #2
 8007c08:	58eb      	ldr	r3, [r5, r3]
 8007c0a:	4798      	blx	r3
 8007c0c:	3601      	adds	r6, #1
 8007c0e:	e7f2      	b.n	8007bf6 <__libc_init_array+0x1e>
 8007c10:	0800878c 	.word	0x0800878c
 8007c14:	0800878c 	.word	0x0800878c
 8007c18:	08008790 	.word	0x08008790
 8007c1c:	0800878c 	.word	0x0800878c

08007c20 <memcpy>:
 8007c20:	2300      	movs	r3, #0
 8007c22:	b510      	push	{r4, lr}
 8007c24:	429a      	cmp	r2, r3
 8007c26:	d100      	bne.n	8007c2a <memcpy+0xa>
 8007c28:	bd10      	pop	{r4, pc}
 8007c2a:	5ccc      	ldrb	r4, [r1, r3]
 8007c2c:	54c4      	strb	r4, [r0, r3]
 8007c2e:	3301      	adds	r3, #1
 8007c30:	e7f8      	b.n	8007c24 <memcpy+0x4>
	...

08007c34 <_init>:
 8007c34:	b5f8      	push	{r3, r4, r5, r6, r7, lr}
 8007c36:	46c0      	nop			@ (mov r8, r8)
 8007c38:	bcf8      	pop	{r3, r4, r5, r6, r7}
 8007c3a:	bc08      	pop	{r3}
 8007c3c:	469e      	mov	lr, r3
 8007c3e:	4770      	bx	lr

08007c40 <_fini>:
 8007c40:	b5f8      	push	{r3, r4, r5, r6, r7, lr}
 8007c42:	46c0      	nop			@ (mov r8, r8)
 8007c44:	bcf8      	pop	{r3, r4, r5, r6, r7}
 8007c46:	bc08      	pop	{r3}
 8007c48:	469e      	mov	lr, r3
 8007c4a:	4770      	bx	lr
