
g031k8.elf:     file format elf32-littlearm

Sections:
Idx Name          Size      VMA       LMA       File off  Algn
  0 .isr_vector   000000bc  08000000  08000000  00001000  2**0
                  CONTENTS, ALLOC, LOAD, READONLY, DATA
  1 .text         000068c8  080000bc  080000bc  000010bc  2**2
                  CONTENTS, ALLOC, LOAD, READONLY, CODE
  2 .rodata       00000b50  08006984  08006984  00007984  2**2
                  CONTENTS, ALLOC, LOAD, READONLY, DATA
  3 .ARM.extab    00000000  080074d4  080074d4  00009420  2**0
                  CONTENTS
  4 .ARM          00000008  080074d4  080074d4  000084d4  2**2
                  CONTENTS, ALLOC, LOAD, READONLY, DATA
  5 .preinit_array 00000000  080074dc  080074dc  00009420  2**0
                  CONTENTS, ALLOC, LOAD, DATA
  6 .init_array   00000004  080074dc  080074dc  000084dc  2**2
                  CONTENTS, ALLOC, LOAD, READONLY, DATA
  7 .fini_array   00000004  080074e0  080074e0  000084e0  2**2
                  CONTENTS, ALLOC, LOAD, READONLY, DATA
  8 .data         00000420  20000000  080074e4  00009000  2**2
                  CONTENTS, ALLOC, LOAD, DATA
  9 .bss          000007e4  20000420  08007904  00009420  2**3
                  ALLOC
 10 ._user_heap_stack 00000604  20000c04  08007904  00009c04  2**0
                  ALLOC
 11 .ARM.attributes 00000028  00000000  00000000  00009420  2**0
                  CONTENTS, READONLY
 12 .debug_info   00028b6b  00000000  00000000  00009448  2**0
                  CONTENTS, READONLY, DEBUGGING, OCTETS
 13 .debug_abbrev 00004f45  00000000  00000000  00031fb3  2**0
                  CONTENTS, READONLY, DEBUGGING, OCTETS
 14 .debug_aranges 00001388  00000000  00000000  00036ef8  2**3
                  CONTENTS, READONLY, DEBUGGING, OCTETS
 15 .debug_rnglists 00001bab  00000000  00000000  00038280  2**0
                  CONTENTS, READONLY, DEBUGGING, OCTETS
 16 .debug_macro  00019dc6  00000000  00000000  00039e2b  2**0
                  CONTENTS, READONLY, DEBUGGING, OCTETS
 17 .debug_line   00029096  00000000  00000000  00053bf1  2**0
                  CONTENTS, READONLY, DEBUGGING, OCTETS
 18 .debug_str    0009fd1e  00000000  00000000  0007cc87  2**0
                  CONTENTS, READONLY, DEBUGGING, OCTETS
 19 .comment      00000043  00000000  00000000  0011c9a5  2**0
                  CONTENTS, READONLY
 20 .debug_frame  00003408  00000000  00000000  0011c9e8  2**2
                  CONTENTS, READONLY, DEBUGGING, OCTETS
 21 .debug_loclists 0000f295  00000000  00000000  0011fdf0  2**0
                  CONTENTS, READONLY, DEBUGGING, OCTETS
 22 .debug_line_str 00000057  00000000  00000000  0012f085  2**0
                  CONTENTS, READONLY, DEBUGGING, OCTETS

Disassembly of section .text:

080000bc <__do_global_dtors_aux>:
 80000bc:	b510      	push	{r4, lr}
 80000be:	4c06      	ldr	r4, [pc, #24]	@ (80000d8 <__do_global_dtors_aux+0x1c>)
 80000c0:	7823      	ldrb	r3, [r4, #0]
 80000c2:	2b00      	cmp	r3, #0
 80000c4:	d107      	bne.n	80000d6 <__do_global_dtors_aux+0x1a>
 80000c6:	4b05      	ldr	r3, [pc, #20]	@ (80000dc <__do_global_dtors_aux+0x20>)
 80000c8:	2b00      	cmp	r3, #0
 80000ca:	d002      	beq.n	80000d2 <__do_global_dtors_aux+0x16>
 80000cc:	4804      	ldr	r0, [pc, #16]	@ (80000e0 <__do_global_dtors_aux+0x24>)
 80000ce:	e000      	b.n	80000d2 <__do_global_dtors_aux+0x16>
 80000d0:	bf00      	nop
 80000d2:	2301      	movs	r3, #1
 80000d4:	7023      	strb	r3, [r4, #0]
 80000d6:	bd10      	pop	{r4, pc}
 80000d8:	20000420 	.word	0x20000420
 80000dc:	00000000 	.word	0x00000000
 80000e0:	0800696c 	.word	0x0800696c

080000e4 <frame_dummy>:
 80000e4:	4b04      	ldr	r3, [pc, #16]	@ (80000f8 <frame_dummy+0x14>)
 80000e6:	b510      	push	{r4, lr}
 80000e8:	2b00      	cmp	r3, #0
 80000ea:	d003      	beq.n	80000f4 <frame_dummy+0x10>
 80000ec:	4903      	ldr	r1, [pc, #12]	@ (80000fc <frame_dummy+0x18>)
 80000ee:	4804      	ldr	r0, [pc, #16]	@ (8000100 <frame_dummy+0x1c>)
 80000f0:	e000      	b.n	80000f4 <frame_dummy+0x10>
 80000f2:	bf00      	nop
 80000f4:	bd10      	pop	{r4, pc}
 80000f6:	46c0      	nop			@ (mov r8, r8)
 80000f8:	00000000 	.word	0x00000000
 80000fc:	20000424 	.word	0x20000424
 8000100:	0800696c 	.word	0x0800696c

08000104 <__udivsi3>:
 8000104:	2200      	movs	r2, #0
 8000106:	0843      	lsrs	r3, r0, #1
 8000108:	428b      	cmp	r3, r1
 800010a:	d374      	bcc.n	80001f6 <__udivsi3+0xf2>
 800010c:	0903      	lsrs	r3, r0, #4
 800010e:	428b      	cmp	r3, r1
 8000110:	d35f      	bcc.n	80001d2 <__udivsi3+0xce>
 8000112:	0a03      	lsrs	r3, r0, #8
 8000114:	428b      	cmp	r3, r1
 8000116:	d344      	bcc.n	80001a2 <__udivsi3+0x9e>
 8000118:	0b03      	lsrs	r3, r0, #12
 800011a:	428b      	cmp	r3, r1
 800011c:	d328      	bcc.n	8000170 <__udivsi3+0x6c>
 800011e:	0c03      	lsrs	r3, r0, #16
 8000120:	428b      	cmp	r3, r1
 8000122:	d30d      	bcc.n	8000140 <__udivsi3+0x3c>
 8000124:	22ff      	movs	r2, #255	@ 0xff
 8000126:	0209      	lsls	r1, r1, #8
 8000128:	ba12      	rev	r2, r2
 800012a:	0c03      	lsrs	r3, r0, #16
 800012c:	428b      	cmp	r3, r1
 800012e:	d302      	bcc.n	8000136 <__udivsi3+0x32>
 8000130:	1212      	asrs	r2, r2, #8
 8000132:	0209      	lsls	r1, r1, #8
 8000134:	d065      	beq.n	8000202 <__udivsi3+0xfe>
 8000136:	0b03      	lsrs	r3, r0, #12
 8000138:	428b      	cmp	r3, r1
 800013a:	d319      	bcc.n	8000170 <__udivsi3+0x6c>
 800013c:	e000      	b.n	8000140 <__udivsi3+0x3c>
 800013e:	0a09      	lsrs	r1, r1, #8
 8000140:	0bc3      	lsrs	r3, r0, #15
 8000142:	428b      	cmp	r3, r1
 8000144:	d301      	bcc.n	800014a <__udivsi3+0x46>
 8000146:	03cb      	lsls	r3, r1, #15
 8000148:	1ac0      	subs	r0, r0, r3
 800014a:	4152      	adcs	r2, r2
 800014c:	0b83      	lsrs	r3, r0, #14
 800014e:	428b      	cmp	r3, r1
 8000150:	d301      	bcc.n	8000156 <__udivsi3+0x52>
 8000152:	038b      	lsls	r3, r1, #14
 8000154:	1ac0      	subs	r0, r0, r3
 8000156:	4152      	adcs	r2, r2
 8000158:	0b43      	lsrs	r3, r0, #13
 800015a:	428b      	cmp	r3, r1
 800015c:	d301      	bcc.n	8000162 <__udivsi3+0x5e>
 800015e:	034b      	lsls	r3, r1, #13
 8000160:	1ac0      	subs	r0, r0, r3
 8000162:	4152      	adcs	r2, r2
 8000164:	0b03      	lsrs	r3, r0, #12
 8000166:	428b      	cmp	r3, r1
 8000168:	d301      	bcc.n	800016e <__udivsi3+0x6a>
 800016a:	030b      	lsls	r3, r1, #12
 800016c:	1ac0      	subs	r0, r0, r3
 800016e:	4152      	adcs	r2, r2
 8000170:	0ac3      	lsrs	r3, r0, #11
 8000172:	428b      	cmp	r3, r1
 8000174:	d301      	bcc.n	800017a <__udivsi3+0x76>
 8000176:	02cb      	lsls	r3, r1, #11
 8000178:	1ac0      	subs	r0, r0, r3
 800017a:	4152      	adcs	r2, r2
 800017c:	0a83      	lsrs	r3, r0, #10
 800017e:	428b      	cmp	r3, r1
 8000180:	d301      	bcc.n	8000186 <__udivsi3+0x82>
 8000182:	028b      	lsls	r3, r1, #10
 8000184:	1ac0      	subs	r0, r0, r3
 8000186:	4152      	adcs	r2, r2
 8000188:	0a43      	lsrs	r3, r0, #9
 800018a:	428b      	cmp	r3, r1
 800018c:	d301      	bcc.n	8000192 <__udivsi3+0x8e>
 800018e:	024b      	lsls	r3, r1, #9
 8000190:	1ac0      	subs	r0, r0, r3
 8000192:	4152      	adcs	r2, r2
 8000194:	0a03      	lsrs	r3, r0, #8
 8000196:	428b      	cmp	r3, r1
 8000198:	d301      	bcc.n	800019e <__udivsi3+0x9a>
 800019a:	020b      	lsls	r3, r1, #8
 800019c:	1ac0      	subs	r0, r0, r3
 800019e:	4152      	adcs	r2, r2
 80001a0:	d2cd      	bcs.n	800013e <__udivsi3+0x3a>
 80001a2:	09c3      	lsrs	r3, r0, #7
 80001a4:	428b      	cmp	r3, r1
 80001a6:	d301      	bcc.n	80001ac <__udivsi3+0xa8>
 80001a8:	01cb      	lsls	r3, r1, #7
 80001aa:	1ac0      	subs	r0, r0, r3
 80001ac:	4152      	adcs	r2, r2
 80001ae:	0983      	lsrs	r3, r0, #6
 80001b0:	428b      	cmp	r3, r1
 80001b2:	d301      	bcc.n	80001b8 <__udivsi3+0xb4>
 80001b4:	018b      	lsls	r3, r1, #6
 80001b6:	1ac0      	subs	r0, r0, r3
 80001b8:	4152      	adcs	r2, r2
 80001ba:	0943      	lsrs	r3, r0, #5
 80001bc:	428b      	cmp	r3, r1
 80001be:	d301      	bcc.n	80001c4 <__udivsi3+0xc0>
 80001c0:	014b      	lsls	r3, r1, #5
 80001c2:	1ac0      	subs	r0, r0, r3
 80001c4:	4152      	adcs	r2, r2
 80001c6:	0903      	lsrs	r3, r0, #4
 80001c8:	428b      	cmp	r3, r1
 80001ca:	d301      	bcc.n	80001d0 <__udivsi3+0xcc>
 80001cc:	010b      	lsls	r3, r1, #4
 80001ce:	1ac0      	subs	r0, r0, r3
 80001d0:	4152      	adcs	r2, r2
 80001d2:	08c3      	lsrs	r3, r0, #3
 80001d4:	428b      	cmp	r3, r1
 80001d6:	d301      	bcc.n	80001dc <__udivsi3+0xd8>
 80001d8:	00cb      	lsls	r3, r1, #3
 80001da:	1ac0      	subs	r0, r0, r3
 80001dc:	4152      	adcs	r2, r2
 80001de:	0883      	lsrs	r3, r0, #2
 80001e0:	428b      	cmp	r3, r1
 80001e2:	d301      	bcc.n	80001e8 <__udivsi3+0xe4>
 80001e4:	008b      	lsls	r3, r1, #2
 80001e6:	1ac0      	subs	r0, r0, r3
 80001e8:	4152      	adcs	r2, r2
 80001ea:	0843      	lsrs	r3, r0, #1
 80001ec:	428b      	cmp	r3, r1
 80001ee:	d301      	bcc.n	80001f4 <__udivsi3+0xf0>
 80001f0:	004b      	lsls	r3, r1, #1
 80001f2:	1ac0      	subs	r0, r0, r3
 80001f4:	4152      	adcs	r2, r2
 80001f6:	1a41      	subs	r1, r0, r1
 80001f8:	d200      	bcs.n	80001fc <__udivsi3+0xf8>
 80001fa:	4601      	mov	r1, r0
 80001fc:	4152      	adcs	r2, r2
 80001fe:	4610      	mov	r0, r2
 8000200:	4770      	bx	lr
 8000202:	e7ff      	b.n	8000204 <__udivsi3+0x100>
 8000204:	b501      	push	{r0, lr}
 8000206:	2000      	movs	r0, #0
 8000208:	f000 f806 	bl	8000218 <__aeabi_idiv0>
 800020c:	bd02      	pop	{r1, pc}
 800020e:	46c0      	nop			@ (mov r8, r8)

08000210 <__aeabi_uidivmod>:
 8000210:	2900      	cmp	r1, #0
 8000212:	d0f7      	beq.n	8000204 <__udivsi3+0x100>
 8000214:	e776      	b.n	8000104 <__udivsi3>
 8000216:	4770      	bx	lr

08000218 <__aeabi_idiv0>:
 8000218:	4770      	bx	lr
 800021a:	46c0      	nop			@ (mov r8, r8)

0800021c <__aeabi_uldivmod>:
 800021c:	2b00      	cmp	r3, #0
 800021e:	d111      	bne.n	8000244 <__aeabi_uldivmod+0x28>
 8000220:	2a00      	cmp	r2, #0
 8000222:	d10f      	bne.n	8000244 <__aeabi_uldivmod+0x28>
 8000224:	2900      	cmp	r1, #0
 8000226:	d100      	bne.n	800022a <__aeabi_uldivmod+0xe>
 8000228:	2800      	cmp	r0, #0
 800022a:	d002      	beq.n	8000232 <__aeabi_uldivmod+0x16>
 800022c:	2100      	movs	r1, #0
 800022e:	43c9      	mvns	r1, r1
 8000230:	0008      	movs	r0, r1
 8000232:	b407      	push	{r0, r1, r2}
 8000234:	4802      	ldr	r0, [pc, #8]	@ (8000240 <__aeabi_uldivmod+0x24>)
 8000236:	a102      	add	r1, pc, #8	@ (adr r1, 8000240 <__aeabi_uldivmod+0x24>)
 8000238:	1840      	adds	r0, r0, r1
 800023a:	9002      	str	r0, [sp, #8]
 800023c:	bd03      	pop	{r0, r1, pc}
 800023e:	46c0      	nop			@ (mov r8, r8)
 8000240:	ffffffd9 	.word	0xffffffd9
 8000244:	b403      	push	{r0, r1}
 8000246:	4668      	mov	r0, sp
 8000248:	b501      	push	{r0, lr}
 800024a:	9802      	ldr	r0, [sp, #8]
 800024c:	f000 f806 	bl	800025c <__udivmoddi4>
 8000250:	9b01      	ldr	r3, [sp, #4]
 8000252:	469e      	mov	lr, r3
 8000254:	b002      	add	sp, #8
 8000256:	bc0c      	pop	{r2, r3}
 8000258:	4770      	bx	lr
 800025a:	46c0      	nop			@ (mov r8, r8)

0800025c <__udivmoddi4>:
 800025c:	b5f0      	push	{r4, r5, r6, r7, lr}
 800025e:	4657      	mov	r7, sl
 8000260:	464e      	mov	r6, r9
 8000262:	4645      	mov	r5, r8
 8000264:	46de      	mov	lr, fp
 8000266:	b5e0      	push	{r5, r6, r7, lr}
 8000268:	0004      	movs	r4, r0
 800026a:	000d      	movs	r5, r1
 800026c:	4692      	mov	sl, r2
 800026e:	4699      	mov	r9, r3
 8000270:	b083      	sub	sp, #12
 8000272:	428b      	cmp	r3, r1
 8000274:	d830      	bhi.n	80002d8 <__udivmoddi4+0x7c>
 8000276:	d02d      	beq.n	80002d4 <__udivmoddi4+0x78>
 8000278:	4649      	mov	r1, r9
 800027a:	4650      	mov	r0, sl
 800027c:	f000 f8ba 	bl	80003f4 <__clzdi2>
 8000280:	0029      	movs	r1, r5
 8000282:	0006      	movs	r6, r0
 8000284:	0020      	movs	r0, r4
 8000286:	f000 f8b5 	bl	80003f4 <__clzdi2>
 800028a:	1a33      	subs	r3, r6, r0
 800028c:	4698      	mov	r8, r3
 800028e:	3b20      	subs	r3, #32
 8000290:	d434      	bmi.n	80002fc <__udivmoddi4+0xa0>
 8000292:	469b      	mov	fp, r3
 8000294:	4653      	mov	r3, sl
 8000296:	465a      	mov	r2, fp
 8000298:	4093      	lsls	r3, r2
 800029a:	4642      	mov	r2, r8
 800029c:	001f      	movs	r7, r3
 800029e:	4653      	mov	r3, sl
 80002a0:	4093      	lsls	r3, r2
 80002a2:	001e      	movs	r6, r3
 80002a4:	42af      	cmp	r7, r5
 80002a6:	d83b      	bhi.n	8000320 <__udivmoddi4+0xc4>
 80002a8:	42af      	cmp	r7, r5
 80002aa:	d100      	bne.n	80002ae <__udivmoddi4+0x52>
 80002ac:	e079      	b.n	80003a2 <__udivmoddi4+0x146>
 80002ae:	465b      	mov	r3, fp
 80002b0:	1ba4      	subs	r4, r4, r6
 80002b2:	41bd      	sbcs	r5, r7
 80002b4:	2b00      	cmp	r3, #0
 80002b6:	da00      	bge.n	80002ba <__udivmoddi4+0x5e>
 80002b8:	e076      	b.n	80003a8 <__udivmoddi4+0x14c>
 80002ba:	2200      	movs	r2, #0
 80002bc:	2300      	movs	r3, #0
 80002be:	9200      	str	r2, [sp, #0]
 80002c0:	9301      	str	r3, [sp, #4]
 80002c2:	2301      	movs	r3, #1
 80002c4:	465a      	mov	r2, fp
 80002c6:	4093      	lsls	r3, r2
 80002c8:	9301      	str	r3, [sp, #4]
 80002ca:	2301      	movs	r3, #1
 80002cc:	4642      	mov	r2, r8
 80002ce:	4093      	lsls	r3, r2
 80002d0:	9300      	str	r3, [sp, #0]
 80002d2:	e029      	b.n	8000328 <__udivmoddi4+0xcc>
 80002d4:	4282      	cmp	r2, r0
 80002d6:	d9cf      	bls.n	8000278 <__udivmoddi4+0x1c>
 80002d8:	2200      	movs	r2, #0
 80002da:	2300      	movs	r3, #0
 80002dc:	9200      	str	r2, [sp, #0]
 80002de:	9301      	str	r3, [sp, #4]
 80002e0:	9b0c      	ldr	r3, [sp, #48]	@ 0x30
 80002e2:	2b00      	cmp	r3, #0
 80002e4:	d001      	beq.n	80002ea <__udivmoddi4+0x8e>
 80002e6:	601c      	str	r4, [r3, #0]
 80002e8:	605d      	str	r5, [r3, #4]
 80002ea:	9800      	ldr	r0, [sp, #0]
 80002ec:	9901      	ldr	r1, [sp, #4]
 80002ee:	b003      	add	sp, #12
 80002f0:	bcf0      	pop	{r4, r5, r6, r7}
 80002f2:	46bb      	mov	fp, r7
 80002f4:	46b2      	mov	sl, r6
 80002f6:	46a9      	mov	r9, r5
 80002f8:	46a0      	mov	r8, r4
 80002fa:	bdf0      	pop	{r4, r5, r6, r7, pc}
 80002fc:	4642      	mov	r2, r8
 80002fe:	469b      	mov	fp, r3
 8000300:	2320      	movs	r3, #32
 8000302:	1a9b      	subs	r3, r3, r2
 8000304:	4652      	mov	r2, sl
 8000306:	40da      	lsrs	r2, r3
 8000308:	4641      	mov	r1, r8
 800030a:	0013      	movs	r3, r2
 800030c:	464a      	mov	r2, r9
 800030e:	408a      	lsls	r2, r1
 8000310:	0017      	movs	r7, r2
 8000312:	4642      	mov	r2, r8
 8000314:	431f      	orrs	r7, r3
 8000316:	4653      	mov	r3, sl
 8000318:	4093      	lsls	r3, r2
 800031a:	001e      	movs	r6, r3
 800031c:	42af      	cmp	r7, r5
 800031e:	d9c3      	bls.n	80002a8 <__udivmoddi4+0x4c>
 8000320:	2200      	movs	r2, #0
 8000322:	2300      	movs	r3, #0
 8000324:	9200      	str	r2, [sp, #0]
 8000326:	9301      	str	r3, [sp, #4]
 8000328:	4643      	mov	r3, r8
 800032a:	2b00      	cmp	r3, #0
 800032c:	d0d8      	beq.n	80002e0 <__udivmoddi4+0x84>
 800032e:	07fb      	lsls	r3, r7, #31
 8000330:	0872      	lsrs	r2, r6, #1
 8000332:	431a      	orrs	r2, r3
 8000334:	4646      	mov	r6, r8
 8000336:	087b      	lsrs	r3, r7, #1
 8000338:	e00e      	b.n	8000358 <__udivmoddi4+0xfc>
 800033a:	42ab      	cmp	r3, r5
 800033c:	d101      	bne.n	8000342 <__udivmoddi4+0xe6>
 800033e:	42a2      	cmp	r2, r4
 8000340:	d80c      	bhi.n	800035c <__udivmoddi4+0x100>
 8000342:	1aa4      	subs	r4, r4, r2
 8000344:	419d      	sbcs	r5, r3
 8000346:	2001      	movs	r0, #1
 8000348:	1924      	adds	r4, r4, r4
 800034a:	416d      	adcs	r5, r5
 800034c:	2100      	movs	r1, #0
 800034e:	3e01      	subs	r6, #1
 8000350:	1824      	adds	r4, r4, r0
 8000352:	414d      	adcs	r5, r1
 8000354:	2e00      	cmp	r6, #0
 8000356:	d006      	beq.n	8000366 <__udivmoddi4+0x10a>
 8000358:	42ab      	cmp	r3, r5
 800035a:	d9ee      	bls.n	800033a <__udivmoddi4+0xde>
 800035c:	3e01      	subs	r6, #1
 800035e:	1924      	adds	r4, r4, r4
 8000360:	416d      	adcs	r5, r5
 8000362:	2e00      	cmp	r6, #0
 8000364:	d1f8      	bne.n	8000358 <__udivmoddi4+0xfc>
 8000366:	9800      	ldr	r0, [sp, #0]
 8000368:	9901      	ldr	r1, [sp, #4]
 800036a:	465b      	mov	r3, fp
 800036c:	1900      	adds	r0, r0, r4
 800036e:	4169      	adcs	r1, r5
 8000370:	2b00      	cmp	r3, #0
 8000372:	db24      	blt.n	80003be <__udivmoddi4+0x162>
 8000374:	002b      	movs	r3, r5
 8000376:	465a      	mov	r2, fp
 8000378:	4644      	mov	r4, r8
 800037a:	40d3      	lsrs	r3, r2
 800037c:	002a      	movs	r2, r5
 800037e:	40e2      	lsrs	r2, r4
 8000380:	001c      	movs	r4, r3
 8000382:	465b      	mov	r3, fp
 8000384:	0015      	movs	r5, r2
 8000386:	2b00      	cmp	r3, #0
 8000388:	db2a      	blt.n	80003e0 <__udivmoddi4+0x184>
 800038a:	0026      	movs	r6, r4
 800038c:	409e      	lsls	r6, r3
 800038e:	0033      	movs	r3, r6
 8000390:	0026      	movs	r6, r4
 8000392:	4647      	mov	r7, r8
 8000394:	40be      	lsls	r6, r7
 8000396:	0032      	movs	r2, r6
 8000398:	1a80      	subs	r0, r0, r2
 800039a:	4199      	sbcs	r1, r3
 800039c:	9000      	str	r0, [sp, #0]
 800039e:	9101      	str	r1, [sp, #4]
 80003a0:	e79e      	b.n	80002e0 <__udivmoddi4+0x84>
 80003a2:	42a3      	cmp	r3, r4
 80003a4:	d8bc      	bhi.n	8000320 <__udivmoddi4+0xc4>
 80003a6:	e782      	b.n	80002ae <__udivmoddi4+0x52>
 80003a8:	4642      	mov	r2, r8
 80003aa:	2320      	movs	r3, #32
 80003ac:	2100      	movs	r1, #0
 80003ae:	1a9b      	subs	r3, r3, r2
 80003b0:	2200      	movs	r2, #0
 80003b2:	9100      	str	r1, [sp, #0]
 80003b4:	9201      	str	r2, [sp, #4]
 80003b6:	2201      	movs	r2, #1
 80003b8:	40da      	lsrs	r2, r3
 80003ba:	9201      	str	r2, [sp, #4]
 80003bc:	e785      	b.n	80002ca <__udivmoddi4+0x6e>
 80003be:	4642      	mov	r2, r8
 80003c0:	2320      	movs	r3, #32
 80003c2:	1a9b      	subs	r3, r3, r2
 80003c4:	002a      	movs	r2, r5
 80003c6:	4646      	mov	r6, r8
 80003c8:	409a      	lsls	r2, r3
 80003ca:	0023      	movs	r3, r4
 80003cc:	40f3      	lsrs	r3, r6
 80003ce:	4644      	mov	r4, r8
 80003d0:	4313      	orrs	r3, r2
 80003d2:	002a      	movs	r2, r5
 80003d4:	40e2      	lsrs	r2, r4
 80003d6:	001c      	movs	r4, r3
 80003d8:	465b      	mov	r3, fp
 80003da:	0015      	movs	r5, r2
 80003dc:	2b00      	cmp	r3, #0
 80003de:	dad4      	bge.n	800038a <__udivmoddi4+0x12e>
 80003e0:	4642      	mov	r2, r8
 80003e2:	002f      	movs	r7, r5
 80003e4:	2320      	movs	r3, #32
 80003e6:	0026      	movs	r6, r4
 80003e8:	4097      	lsls	r7, r2
 80003ea:	1a9b      	subs	r3, r3, r2
 80003ec:	40de      	lsrs	r6, r3
 80003ee:	003b      	movs	r3, r7
 80003f0:	4333      	orrs	r3, r6
 80003f2:	e7cd      	b.n	8000390 <__udivmoddi4+0x134>

080003f4 <__clzdi2>:
 80003f4:	b510      	push	{r4, lr}
 80003f6:	2900      	cmp	r1, #0
 80003f8:	d103      	bne.n	8000402 <__clzdi2+0xe>
 80003fa:	f000 f807 	bl	800040c <__clzsi2>
 80003fe:	3020      	adds	r0, #32
 8000400:	e002      	b.n	8000408 <__clzdi2+0x14>
 8000402:	0008      	movs	r0, r1
 8000404:	f000 f802 	bl	800040c <__clzsi2>
 8000408:	bd10      	pop	{r4, pc}
 800040a:	46c0      	nop			@ (mov r8, r8)

0800040c <__clzsi2>:
 800040c:	211c      	movs	r1, #28
 800040e:	2301      	movs	r3, #1
 8000410:	041b      	lsls	r3, r3, #16
 8000412:	4298      	cmp	r0, r3
 8000414:	d301      	bcc.n	800041a <__clzsi2+0xe>
 8000416:	0c00      	lsrs	r0, r0, #16
 8000418:	3910      	subs	r1, #16
 800041a:	0a1b      	lsrs	r3, r3, #8
 800041c:	4298      	cmp	r0, r3
 800041e:	d301      	bcc.n	8000424 <__clzsi2+0x18>
 8000420:	0a00      	lsrs	r0, r0, #8
 8000422:	3908      	subs	r1, #8
 8000424:	091b      	lsrs	r3, r3, #4
 8000426:	4298      	cmp	r0, r3
 8000428:	d301      	bcc.n	800042e <__clzsi2+0x22>
 800042a:	0900      	lsrs	r0, r0, #4
 800042c:	3904      	subs	r1, #4
 800042e:	a202      	add	r2, pc, #8	@ (adr r2, 8000438 <__clzsi2+0x2c>)
 8000430:	5c10      	ldrb	r0, [r2, r0]
 8000432:	1840      	adds	r0, r0, r1
 8000434:	4770      	bx	lr
 8000436:	46c0      	nop			@ (mov r8, r8)
 8000438:	02020304 	.word	0x02020304
 800043c:	01010101 	.word	0x01010101
	...

08000448 <Start_UART_Receive>:
//VARIABLE DEFINITIONS
volatile char rx_buffer[1] = {0};
volatile enum Validate UART_DMA_TX_is_complete = YES;

//FUNCTION DEFINITIONS
uint8_t Start_UART_Receive(void){
 8000448:	b510      	push	{r4, lr}

	//START UART RECEIVE
	HAL_UART_Receive_DMA(&huart2, (uint8_t*)rx_buffer, sizeof(rx_buffer));
 800044a:	2201      	movs	r2, #1
 800044c:	4902      	ldr	r1, [pc, #8]	@ (8000458 <Start_UART_Receive+0x10>)
 800044e:	4803      	ldr	r0, [pc, #12]	@ (800045c <Start_UART_Receive+0x14>)
 8000450:	f005 fc9a 	bl	8005d88 <HAL_UART_Receive_DMA>

	return 1;
}
 8000454:	2001      	movs	r0, #1
 8000456:	bd10      	pop	{r4, pc}
 8000458:	2000043c 	.word	0x2000043c
 800045c:	2000055c 	.word	0x2000055c

08000460 <Speed_Pot_Check>:

//VARIABLE DEFINITIONS
volatile uint8_t speed_pot_adc_measurement_num = 0;

//FUNCTION DEFINITIONS
uint8_t Speed_Pot_Check(struct Params* params_ptr){
 8000460:	b510      	push	{r4, lr}

	static uint16_t first_speed_measurement;

	static uint16_t second_speed_measurement;

	if(speed_pot_adc_measurement_num == 0){
 8000462:	4b18      	ldr	r3, [pc, #96]	@ (80004c4 <Speed_Pot_Check+0x64>)
 8000464:	781a      	ldrb	r2, [r3, #0]
 8000466:	2a00      	cmp	r2, #0
 8000468:	d108      	bne.n	800047c <Speed_Pot_Check+0x1c>

		first_speed_measurement = params_ptr->speed;
 800046a:	8901      	ldrh	r1, [r0, #8]
 800046c:	4a16      	ldr	r2, [pc, #88]	@ (80004c8 <Speed_Pot_Check+0x68>)

		speed_pot_adc_measurement_num++;
	}
	else if(speed_pot_adc_measurement_num == 1){

		second_speed_measurement = params_ptr->speed;
 800046e:	8011      	strh	r1, [r2, #0]

		speed_pot_adc_measurement_num++;
 8000470:	781a      	ldrb	r2, [r3, #0]
 8000472:	3201      	adds	r2, #1
 8000474:	b2d2      	uxtb	r2, r2
 8000476:	701a      	strb	r2, [r3, #0]
				Clear_Status_Bit(&statuses, First_Sync_Complete);
			}
		}
	}
	return 1;
}
 8000478:	2001      	movs	r0, #1
 800047a:	bd10      	pop	{r4, pc}
	else if(speed_pot_adc_measurement_num == 1){
 800047c:	781a      	ldrb	r2, [r3, #0]
 800047e:	2a01      	cmp	r2, #1
 8000480:	d00e      	beq.n	80004a0 <Speed_Pot_Check+0x40>
	else if(speed_pot_adc_measurement_num == 2){
 8000482:	781a      	ldrb	r2, [r3, #0]
 8000484:	2a02      	cmp	r2, #2
 8000486:	d1f7      	bne.n	8000478 <Speed_Pot_Check+0x18>
		speed_pot_adc_measurement_num = 0;
 8000488:	2200      	movs	r2, #0
 800048a:	701a      	strb	r2, [r3, #0]
		if(first_speed_measurement > second_speed_measurement){
 800048c:	4b0e      	ldr	r3, [pc, #56]	@ (80004c8 <Speed_Pot_Check+0x68>)
 800048e:	4a0f      	ldr	r2, [pc, #60]	@ (80004cc <Speed_Pot_Check+0x6c>)
 8000490:	881b      	ldrh	r3, [r3, #0]
 8000492:	8812      	ldrh	r2, [r2, #0]
 8000494:	4293      	cmp	r3, r2
 8000496:	d906      	bls.n	80004a6 <Speed_Pot_Check+0x46>
			if(first_speed_measurement - second_speed_measurement > SPEED_TOLERANCE){
 8000498:	1a9b      	subs	r3, r3, r2
 800049a:	2b0a      	cmp	r3, #10
 800049c:	ddec      	ble.n	8000478 <Speed_Pot_Check+0x18>
 800049e:	e007      	b.n	80004b0 <Speed_Pot_Check+0x50>
		second_speed_measurement = params_ptr->speed;
 80004a0:	8901      	ldrh	r1, [r0, #8]
 80004a2:	4a0a      	ldr	r2, [pc, #40]	@ (80004cc <Speed_Pot_Check+0x6c>)
 80004a4:	e7e3      	b.n	800046e <Speed_Pot_Check+0xe>
		else if(second_speed_measurement > first_speed_measurement){
 80004a6:	4293      	cmp	r3, r2
 80004a8:	d2e6      	bcs.n	8000478 <Speed_Pot_Check+0x18>
			if(second_speed_measurement - first_speed_measurement > SPEED_TOLERANCE){
 80004aa:	1ad2      	subs	r2, r2, r3
 80004ac:	2a0a      	cmp	r2, #10
 80004ae:	dde3      	ble.n	8000478 <Speed_Pot_Check+0x18>
				speed_fsm.prev_state = speed_fsm.current_state;
 80004b0:	4b07      	ldr	r3, [pc, #28]	@ (80004d0 <Speed_Pot_Check+0x70>)
				Clear_Status_Bit(&statuses, First_Sync_Complete);
 80004b2:	2108      	movs	r1, #8
				speed_fsm.prev_state = speed_fsm.current_state;
 80004b4:	781a      	ldrb	r2, [r3, #0]
				Clear_Status_Bit(&statuses, First_Sync_Complete);
 80004b6:	4807      	ldr	r0, [pc, #28]	@ (80004d4 <Speed_Pot_Check+0x74>)
				speed_fsm.prev_state = speed_fsm.current_state;
 80004b8:	705a      	strb	r2, [r3, #1]
				speed_fsm.current_state.shared_state = MANUAL_MODE;
 80004ba:	2201      	movs	r2, #1
 80004bc:	701a      	strb	r2, [r3, #0]
				Clear_Status_Bit(&statuses, First_Sync_Complete);
 80004be:	f001 fe8f 	bl	80021e0 <Clear_Status_Bit>
 80004c2:	e7d9      	b.n	8000478 <Speed_Pot_Check+0x18>
 80004c4:	20000442 	.word	0x20000442
 80004c8:	20000440 	.word	0x20000440
 80004cc:	2000043e 	.word	0x2000043e
 80004d0:	20000410 	.word	0x20000410
 80004d4:	20000b84 	.word	0x20000b84

080004d8 <Check_Tap_Tempo_Switch_State>:

uint8_t Check_Tap_Tempo_Switch_State(volatile struct Tap_Tempo_Switch_States *tap_tempo_switch_states_ptr){
 80004d8:	b510      	push	{r4, lr}

	static uint8_t extend_rising_edge = 0;
	static uint8_t tap_tempo_switch_state_counter = TAP_TEMPO_SWITCH_CONFIDENCE_COUNT;

	uint8_t switch_state = (uint8_t)HAL_GPIO_ReadPin(SW_IN_GPIO_Port, SW_IN_Pin);
 80004da:	2180      	movs	r1, #128	@ 0x80
uint8_t Check_Tap_Tempo_Switch_State(volatile struct Tap_Tempo_Switch_States *tap_tempo_switch_states_ptr){
 80004dc:	0004      	movs	r4, r0
	uint8_t switch_state = (uint8_t)HAL_GPIO_ReadPin(SW_IN_GPIO_Port, SW_IN_Pin);
 80004de:	20a0      	movs	r0, #160	@ 0xa0
 80004e0:	00c9      	lsls	r1, r1, #3
 80004e2:	05c0      	lsls	r0, r0, #23
 80004e4:	f002 ff6a 	bl	80033bc <HAL_GPIO_ReadPin>

	if(switch_state == 0){
 80004e8:	2800      	cmp	r0, #0
 80004ea:	d10d      	bne.n	8000508 <Check_Tap_Tempo_Switch_State+0x30>

		if(tap_tempo_switch_state_counter != 0){
 80004ec:	4a11      	ldr	r2, [pc, #68]	@ (8000534 <Check_Tap_Tempo_Switch_State+0x5c>)
 80004ee:	7813      	ldrb	r3, [r2, #0]
 80004f0:	2b00      	cmp	r3, #0
 80004f2:	d015      	beq.n	8000520 <Check_Tap_Tempo_Switch_State+0x48>

			tap_tempo_switch_state_counter--;
 80004f4:	3b01      	subs	r3, #1
 80004f6:	b2db      	uxtb	r3, r3
 80004f8:	7013      	strb	r3, [r2, #0]
				extend_rising_edge++;
			}
		}
	}

	if(tap_tempo_switch_state_counter == 0){
 80004fa:	2b00      	cmp	r3, #0
 80004fc:	d010      	beq.n	8000520 <Check_Tap_Tempo_Switch_State+0x48>

		tap_tempo_switch_states_ptr->tap_tempo_switch_state = DEPRESSED;
	}
	else if(tap_tempo_switch_state_counter == TAP_TEMPO_SWITCH_CONFIDENCE_COUNT){
 80004fe:	2b0e      	cmp	r3, #14
 8000500:	d110      	bne.n	8000524 <Check_Tap_Tempo_Switch_State+0x4c>

		tap_tempo_switch_states_ptr->tap_tempo_switch_state = NOT_DEPRESSED;
 8000502:	2300      	movs	r3, #0
 8000504:	7023      	strb	r3, [r4, #0]
 8000506:	e00d      	b.n	8000524 <Check_Tap_Tempo_Switch_State+0x4c>
		if(tap_tempo_switch_state_counter != TAP_TEMPO_SWITCH_CONFIDENCE_COUNT){
 8000508:	490a      	ldr	r1, [pc, #40]	@ (8000534 <Check_Tap_Tempo_Switch_State+0x5c>)
 800050a:	780b      	ldrb	r3, [r1, #0]
 800050c:	2b0e      	cmp	r3, #14
 800050e:	d0f8      	beq.n	8000502 <Check_Tap_Tempo_Switch_State+0x2a>
			if(extend_rising_edge == COUNT_TO_DELAY_RISING_TAP_TEMPO_EDGE){
 8000510:	4809      	ldr	r0, [pc, #36]	@ (8000538 <Check_Tap_Tempo_Switch_State+0x60>)
 8000512:	7802      	ldrb	r2, [r0, #0]
 8000514:	2a04      	cmp	r2, #4
 8000516:	d007      	beq.n	8000528 <Check_Tap_Tempo_Switch_State+0x50>
				extend_rising_edge++;
 8000518:	3201      	adds	r2, #1
 800051a:	7002      	strb	r2, [r0, #0]
	if(tap_tempo_switch_state_counter == 0){
 800051c:	2b00      	cmp	r3, #0
 800051e:	d101      	bne.n	8000524 <Check_Tap_Tempo_Switch_State+0x4c>
		tap_tempo_switch_states_ptr->tap_tempo_switch_state = DEPRESSED;
 8000520:	2301      	movs	r3, #1
 8000522:	7023      	strb	r3, [r4, #0]
	}

	return 1;
}
 8000524:	2001      	movs	r0, #1
 8000526:	bd10      	pop	{r4, pc}
				extend_rising_edge = 0;
 8000528:	2200      	movs	r2, #0
				tap_tempo_switch_state_counter++;
 800052a:	3301      	adds	r3, #1
 800052c:	b2db      	uxtb	r3, r3
 800052e:	700b      	strb	r3, [r1, #0]
				extend_rising_edge = 0;
 8000530:	7002      	strb	r2, [r0, #0]
 8000532:	e7e2      	b.n	80004fa <Check_Tap_Tempo_Switch_State+0x22>
 8000534:	20000000 	.word	0x20000000
 8000538:	2000043d 	.word	0x2000043d

0800053c <SystemClock_Config>:

LPTIM_HandleTypeDef hlptim1;

//FUNCTIONS
void SystemClock_Config(void)
{
 800053c:	b500      	push	{lr}
 800053e:	b093      	sub	sp, #76	@ 0x4c
  RCC_OscInitTypeDef RCC_OscInitStruct = {0};
 8000540:	2238      	movs	r2, #56	@ 0x38
 8000542:	2100      	movs	r1, #0
 8000544:	a804      	add	r0, sp, #16
 8000546:	f006 f9db 	bl	8006900 <memset>
  RCC_ClkInitTypeDef RCC_ClkInitStruct = {0};
 800054a:	2210      	movs	r2, #16
 800054c:	2100      	movs	r1, #0
 800054e:	4668      	mov	r0, sp
 8000550:	f006 f9d6 	bl	8006900 <memset>

  /** Configure the main internal regulator output voltage
  */
  HAL_PWREx_ControlVoltageScaling(PWR_REGULATOR_VOLTAGE_SCALE1);
 8000554:	2080      	movs	r0, #128	@ 0x80
 8000556:	0080      	lsls	r0, r0, #2
 8000558:	f003 f9c4 	bl	80038e4 <HAL_PWREx_ControlVoltageScaling>

  /** Initializes the RCC Oscillators according to the specified parameters
  * in the RCC_OscInitTypeDef structure.
  */
  RCC_OscInitStruct.OscillatorType = RCC_OSCILLATORTYPE_HSI;
 800055c:	2302      	movs	r3, #2
 800055e:	9304      	str	r3, [sp, #16]
  RCC_OscInitStruct.HSIState = RCC_HSI_ON;
  RCC_OscInitStruct.HSIDiv = RCC_HSI_DIV1;
  RCC_OscInitStruct.HSICalibrationValue = RCC_HSICALIBRATION_DEFAULT;
  RCC_OscInitStruct.PLL.PLLState = RCC_PLL_ON;
 8000560:	930b      	str	r3, [sp, #44]	@ 0x2c
  RCC_OscInitStruct.PLL.PLLSource = RCC_PLLSOURCE_HSI;
 8000562:	930c      	str	r3, [sp, #48]	@ 0x30
  RCC_OscInitStruct.PLL.PLLM = RCC_PLLM_DIV1;
  RCC_OscInitStruct.PLL.PLLN = 8;
 8000564:	3306      	adds	r3, #6
 8000566:	930e      	str	r3, [sp, #56]	@ 0x38
  RCC_OscInitStruct.PLL.PLLP = RCC_PLLP_DIV2;
 8000568:	2380      	movs	r3, #128	@ 0x80
 800056a:	029b      	lsls	r3, r3, #10
 800056c:	930f      	str	r3, [sp, #60]	@ 0x3c
  RCC_OscInitStruct.PLL.PLLQ = RCC_PLLQ_DIV4;
 800056e:	23c0      	movs	r3, #192	@ 0xc0
  RCC_OscInitStruct.HSIState = RCC_HSI_ON;
 8000570:	2280      	movs	r2, #128	@ 0x80
  RCC_OscInitStruct.PLL.PLLQ = RCC_PLLQ_DIV4;
 8000572:	04db      	lsls	r3, r3, #19
  RCC_OscInitStruct.HSIState = RCC_HSI_ON;
 8000574:	0052      	lsls	r2, r2, #1
  RCC_OscInitStruct.PLL.PLLQ = RCC_PLLQ_DIV4;
 8000576:	9310      	str	r3, [sp, #64]	@ 0x40
  RCC_OscInitStruct.PLL.PLLR = RCC_PLLR_DIV2;
 8000578:	2380      	movs	r3, #128	@ 0x80
  RCC_OscInitStruct.HSICalibrationValue = RCC_HSICALIBRATION_DEFAULT;
 800057a:	2140      	movs	r1, #64	@ 0x40
  RCC_OscInitStruct.HSIState = RCC_HSI_ON;
 800057c:	9207      	str	r2, [sp, #28]
  RCC_OscInitStruct.HSIDiv = RCC_HSI_DIV1;
 800057e:	2200      	movs	r2, #0
  RCC_OscInitStruct.PLL.PLLR = RCC_PLLR_DIV2;
 8000580:	059b      	lsls	r3, r3, #22
  if (HAL_RCC_OscConfig(&RCC_OscInitStruct) != HAL_OK)
 8000582:	a804      	add	r0, sp, #16
  RCC_OscInitStruct.HSIDiv = RCC_HSI_DIV1;
 8000584:	9208      	str	r2, [sp, #32]
  RCC_OscInitStruct.HSICalibrationValue = RCC_HSICALIBRATION_DEFAULT;
 8000586:	9109      	str	r1, [sp, #36]	@ 0x24
  RCC_OscInitStruct.PLL.PLLM = RCC_PLLM_DIV1;
 8000588:	920d      	str	r2, [sp, #52]	@ 0x34
  RCC_OscInitStruct.PLL.PLLR = RCC_PLLR_DIV2;
 800058a:	9311      	str	r3, [sp, #68]	@ 0x44
  if (HAL_RCC_OscConfig(&RCC_OscInitStruct) != HAL_OK)
 800058c:	f003 f9da 	bl	8003944 <HAL_RCC_OscConfig>
 8000590:	2800      	cmp	r0, #0
 8000592:	d001      	beq.n	8000598 <SystemClock_Config+0x5c>
  \details Disables IRQ interrupts by setting the I-bit in the CPSR.
           Can only be executed in Privileged modes.
 */
__STATIC_FORCEINLINE void __disable_irq(void)
{
  __ASM volatile ("cpsid i" : : : "memory");
 8000594:	b672      	cpsid	i

void Error_Handler(void)
{
  /* User can add his own implementation to report the HAL error return state */
  __disable_irq();
  while (1)
 8000596:	e7fe      	b.n	8000596 <SystemClock_Config+0x5a>
  RCC_ClkInitStruct.ClockType = RCC_CLOCKTYPE_HCLK|RCC_CLOCKTYPE_SYSCLK
 8000598:	2207      	movs	r2, #7
 800059a:	2302      	movs	r3, #2
 800059c:	9200      	str	r2, [sp, #0]
 800059e:	9301      	str	r3, [sp, #4]
 80005a0:	2200      	movs	r2, #0
 80005a2:	2300      	movs	r3, #0
  if (HAL_RCC_ClockConfig(&RCC_ClkInitStruct, FLASH_LATENCY_2) != HAL_OK)
 80005a4:	2102      	movs	r1, #2
 80005a6:	4668      	mov	r0, sp
  RCC_ClkInitStruct.ClockType = RCC_CLOCKTYPE_HCLK|RCC_CLOCKTYPE_SYSCLK
 80005a8:	9202      	str	r2, [sp, #8]
 80005aa:	9303      	str	r3, [sp, #12]
  if (HAL_RCC_ClockConfig(&RCC_ClkInitStruct, FLASH_LATENCY_2) != HAL_OK)
 80005ac:	f003 fc80 	bl	8003eb0 <HAL_RCC_ClockConfig>
 80005b0:	2800      	cmp	r0, #0
 80005b2:	d001      	beq.n	80005b8 <SystemClock_Config+0x7c>
 80005b4:	b672      	cpsid	i
  while (1)
 80005b6:	e7fe      	b.n	80005b6 <SystemClock_Config+0x7a>
}
 80005b8:	b013      	add	sp, #76	@ 0x4c
 80005ba:	bd00      	pop	{pc}

080005bc <MX_ADC1_Init>:
{
 80005bc:	b530      	push	{r4, r5, lr}
 80005be:	b085      	sub	sp, #20
  ADC_ChannelConfTypeDef sConfig = {0};
 80005c0:	220c      	movs	r2, #12
 80005c2:	2100      	movs	r1, #0
 80005c4:	a801      	add	r0, sp, #4
 80005c6:	f006 f99b 	bl	8006900 <memset>
  hadc1.Instance = ADC1;
 80005ca:	4c33      	ldr	r4, [pc, #204]	@ (8000698 <MX_ADC1_Init+0xdc>)
 80005cc:	4b33      	ldr	r3, [pc, #204]	@ (800069c <MX_ADC1_Init+0xe0>)
  hadc1.Init.ScanConvMode = ADC_SCAN_ENABLE;
 80005ce:	2280      	movs	r2, #128	@ 0x80
  hadc1.Instance = ADC1;
 80005d0:	6023      	str	r3, [r4, #0]
  hadc1.Init.ClockPrescaler = ADC_CLOCK_SYNC_PCLK_DIV2;
 80005d2:	2380      	movs	r3, #128	@ 0x80
  hadc1.Init.NbrOfConversion = 5;
 80005d4:	2105      	movs	r1, #5
  hadc1.Init.ScanConvMode = ADC_SCAN_ENABLE;
 80005d6:	0392      	lsls	r2, r2, #14
 80005d8:	6122      	str	r2, [r4, #16]
  hadc1.Init.LowPowerAutoWait = DISABLE;
 80005da:	2200      	movs	r2, #0
  hadc1.Init.ClockPrescaler = ADC_CLOCK_SYNC_PCLK_DIV2;
 80005dc:	05db      	lsls	r3, r3, #23
  hadc1.Init.EOCSelection = ADC_EOC_SEQ_CONV;
 80005de:	2508      	movs	r5, #8
  hadc1.Init.ClockPrescaler = ADC_CLOCK_SYNC_PCLK_DIV2;
 80005e0:	6063      	str	r3, [r4, #4]
  hadc1.Init.Resolution = ADC_RESOLUTION_12B;
 80005e2:	2300      	movs	r3, #0
  hadc1.Init.NbrOfConversion = 5;
 80005e4:	61e1      	str	r1, [r4, #28]
  hadc1.Init.DiscontinuousConvMode = DISABLE;
 80005e6:	311b      	adds	r1, #27
 80005e8:	5462      	strb	r2, [r4, r1]
  hadc1.Init.DMAContinuousRequests = DISABLE;
 80005ea:	310c      	adds	r1, #12
 80005ec:	5462      	strb	r2, [r4, r1]
  if (HAL_ADC_Init(&hadc1) != HAL_OK)
 80005ee:	0020      	movs	r0, r4
  hadc1.Init.OversamplingMode = DISABLE;
 80005f0:	3110      	adds	r1, #16
  hadc1.Init.Resolution = ADC_RESOLUTION_12B;
 80005f2:	60a3      	str	r3, [r4, #8]
  hadc1.Init.DataAlign = ADC_DATAALIGN_RIGHT;
 80005f4:	60e3      	str	r3, [r4, #12]
  hadc1.Init.EOCSelection = ADC_EOC_SEQ_CONV;
 80005f6:	6165      	str	r5, [r4, #20]
  hadc1.Init.LowPowerAutoWait = DISABLE;
 80005f8:	8323      	strh	r3, [r4, #24]
  hadc1.Init.ContinuousConvMode = DISABLE;
 80005fa:	76a2      	strb	r2, [r4, #26]
  hadc1.Init.ExternalTrigConv = ADC_SOFTWARE_START;
 80005fc:	6263      	str	r3, [r4, #36]	@ 0x24
  hadc1.Init.ExternalTrigConvEdge = ADC_EXTERNALTRIGCONVEDGE_NONE;
 80005fe:	62a3      	str	r3, [r4, #40]	@ 0x28
  hadc1.Init.Overrun = ADC_OVR_DATA_PRESERVED;
 8000600:	6323      	str	r3, [r4, #48]	@ 0x30
  hadc1.Init.SamplingTimeCommon1 = ADC_SAMPLETIME_1CYCLE_5;
 8000602:	6363      	str	r3, [r4, #52]	@ 0x34
  hadc1.Init.SamplingTimeCommon2 = ADC_SAMPLETIME_1CYCLE_5;
 8000604:	63a3      	str	r3, [r4, #56]	@ 0x38
  hadc1.Init.OversamplingMode = DISABLE;
 8000606:	5462      	strb	r2, [r4, r1]
  hadc1.Init.TriggerFrequencyMode = ADC_TRIGGER_FREQ_HIGH;
 8000608:	64e3      	str	r3, [r4, #76]	@ 0x4c
  if (HAL_ADC_Init(&hadc1) != HAL_OK)
 800060a:	f001 febf 	bl	800238c <HAL_ADC_Init>
 800060e:	2800      	cmp	r0, #0
 8000610:	d001      	beq.n	8000616 <MX_ADC1_Init+0x5a>
 8000612:	b672      	cpsid	i
  while (1)
 8000614:	e7fe      	b.n	8000614 <MX_ADC1_Init+0x58>
  sConfig.Channel = ADC_CHANNEL_0;
 8000616:	2301      	movs	r3, #1
  sConfig.Rank = ADC_REGULAR_RANK_1;
 8000618:	9002      	str	r0, [sp, #8]
  sConfig.SamplingTime = ADC_SAMPLINGTIME_COMMON_1;
 800061a:	9003      	str	r0, [sp, #12]
  if (HAL_ADC_ConfigChannel(&hadc1, &sConfig) != HAL_OK)
 800061c:	a901      	add	r1, sp, #4
 800061e:	0020      	movs	r0, r4
  sConfig.Channel = ADC_CHANNEL_0;
 8000620:	9301      	str	r3, [sp, #4]
  if (HAL_ADC_ConfigChannel(&hadc1, &sConfig) != HAL_OK)
 8000622:	f002 f82d 	bl	8002680 <HAL_ADC_ConfigChannel>
 8000626:	2800      	cmp	r0, #0
 8000628:	d001      	beq.n	800062e <MX_ADC1_Init+0x72>
 800062a:	b672      	cpsid	i
  while (1)
 800062c:	e7fe      	b.n	800062c <MX_ADC1_Init+0x70>
  sConfig.Channel = ADC_CHANNEL_1;
 800062e:	4b1c      	ldr	r3, [pc, #112]	@ (80006a0 <MX_ADC1_Init+0xe4>)
  sConfig.SamplingTime = ADC_SAMPLINGTIME_COMMON_1;
 8000630:	9003      	str	r0, [sp, #12]
  sConfig.Channel = ADC_CHANNEL_1;
 8000632:	9301      	str	r3, [sp, #4]
  sConfig.Rank = ADC_REGULAR_RANK_2;
 8000634:	2304      	movs	r3, #4
  if (HAL_ADC_ConfigChannel(&hadc1, &sConfig) != HAL_OK)
 8000636:	0020      	movs	r0, r4
 8000638:	a901      	add	r1, sp, #4
  sConfig.Rank = ADC_REGULAR_RANK_2;
 800063a:	9302      	str	r3, [sp, #8]
  if (HAL_ADC_ConfigChannel(&hadc1, &sConfig) != HAL_OK)
 800063c:	f002 f820 	bl	8002680 <HAL_ADC_ConfigChannel>
 8000640:	2800      	cmp	r0, #0
 8000642:	d001      	beq.n	8000648 <MX_ADC1_Init+0x8c>
 8000644:	b672      	cpsid	i
  while (1)
 8000646:	e7fe      	b.n	8000646 <MX_ADC1_Init+0x8a>
  sConfig.Channel = ADC_CHANNEL_4;
 8000648:	4b16      	ldr	r3, [pc, #88]	@ (80006a4 <MX_ADC1_Init+0xe8>)
  sConfig.SamplingTime = ADC_SAMPLINGTIME_COMMON_1;
 800064a:	9003      	str	r0, [sp, #12]
  if (HAL_ADC_ConfigChannel(&hadc1, &sConfig) != HAL_OK)
 800064c:	a901      	add	r1, sp, #4
 800064e:	0020      	movs	r0, r4
  sConfig.Channel = ADC_CHANNEL_4;
 8000650:	9301      	str	r3, [sp, #4]
  sConfig.Rank = ADC_REGULAR_RANK_3;
 8000652:	9502      	str	r5, [sp, #8]
  if (HAL_ADC_ConfigChannel(&hadc1, &sConfig) != HAL_OK)
 8000654:	f002 f814 	bl	8002680 <HAL_ADC_ConfigChannel>
 8000658:	2800      	cmp	r0, #0
 800065a:	d001      	beq.n	8000660 <MX_ADC1_Init+0xa4>
 800065c:	b672      	cpsid	i
  while (1)
 800065e:	e7fe      	b.n	800065e <MX_ADC1_Init+0xa2>
  sConfig.Channel = ADC_CHANNEL_5;
 8000660:	4b11      	ldr	r3, [pc, #68]	@ (80006a8 <MX_ADC1_Init+0xec>)
  sConfig.SamplingTime = ADC_SAMPLINGTIME_COMMON_1;
 8000662:	9003      	str	r0, [sp, #12]
  sConfig.Channel = ADC_CHANNEL_5;
 8000664:	9301      	str	r3, [sp, #4]
  sConfig.Rank = ADC_REGULAR_RANK_4;
 8000666:	230c      	movs	r3, #12
  if (HAL_ADC_ConfigChannel(&hadc1, &sConfig) != HAL_OK)
 8000668:	0020      	movs	r0, r4
 800066a:	a901      	add	r1, sp, #4
  sConfig.Rank = ADC_REGULAR_RANK_4;
 800066c:	9302      	str	r3, [sp, #8]
  if (HAL_ADC_ConfigChannel(&hadc1, &sConfig) != HAL_OK)
 800066e:	f002 f807 	bl	8002680 <HAL_ADC_ConfigChannel>
 8000672:	2800      	cmp	r0, #0
 8000674:	d001      	beq.n	800067a <MX_ADC1_Init+0xbe>
 8000676:	b672      	cpsid	i
  while (1)
 8000678:	e7fe      	b.n	8000678 <MX_ADC1_Init+0xbc>
  sConfig.Channel = ADC_CHANNEL_6;
 800067a:	4b0c      	ldr	r3, [pc, #48]	@ (80006ac <MX_ADC1_Init+0xf0>)
  sConfig.SamplingTime = ADC_SAMPLINGTIME_COMMON_1;
 800067c:	9003      	str	r0, [sp, #12]
  sConfig.Channel = ADC_CHANNEL_6;
 800067e:	9301      	str	r3, [sp, #4]
  sConfig.Rank = ADC_REGULAR_RANK_5;
 8000680:	2310      	movs	r3, #16
  if (HAL_ADC_ConfigChannel(&hadc1, &sConfig) != HAL_OK)
 8000682:	0020      	movs	r0, r4
 8000684:	a901      	add	r1, sp, #4
  sConfig.Rank = ADC_REGULAR_RANK_5;
 8000686:	9302      	str	r3, [sp, #8]
  if (HAL_ADC_ConfigChannel(&hadc1, &sConfig) != HAL_OK)
 8000688:	f001 fffa 	bl	8002680 <HAL_ADC_ConfigChannel>
 800068c:	2800      	cmp	r0, #0
 800068e:	d001      	beq.n	8000694 <MX_ADC1_Init+0xd8>
 8000690:	b672      	cpsid	i
  while (1)
 8000692:	e7fe      	b.n	8000692 <MX_ADC1_Init+0xd6>
}
 8000694:	b005      	add	sp, #20
 8000696:	bd30      	pop	{r4, r5, pc}
 8000698:	20000aec 	.word	0x20000aec
 800069c:	40012400 	.word	0x40012400
 80006a0:	04000002 	.word	0x04000002
 80006a4:	10000010 	.word	0x10000010
 80006a8:	14000020 	.word	0x14000020
 80006ac:	18000040 	.word	0x18000040

080006b0 <MX_TIM16_Init>:
{
 80006b0:	b530      	push	{r4, r5, lr}
 80006b2:	b097      	sub	sp, #92	@ 0x5c
  TIM_OC_InitTypeDef sConfigOC = {0};
 80006b4:	221c      	movs	r2, #28
 80006b6:	2100      	movs	r1, #0
 80006b8:	4668      	mov	r0, sp
 80006ba:	f006 f921 	bl	8006900 <memset>
  TIM_BreakDeadTimeConfigTypeDef sBreakDeadTimeConfig = {0};
 80006be:	2234      	movs	r2, #52	@ 0x34
 80006c0:	2100      	movs	r1, #0
 80006c2:	a808      	add	r0, sp, #32
 80006c4:	f006 f91c 	bl	8006900 <memset>
  htim16.Instance = TIM16;
 80006c8:	4c23      	ldr	r4, [pc, #140]	@ (8000758 <MX_TIM16_Init+0xa8>)
 80006ca:	4b24      	ldr	r3, [pc, #144]	@ (800075c <MX_TIM16_Init+0xac>)
  htim16.Init.ClockDivision = TIM_CLOCKDIVISION_DIV4;
 80006cc:	2280      	movs	r2, #128	@ 0x80
  htim16.Instance = TIM16;
 80006ce:	6023      	str	r3, [r4, #0]
  htim16.Init.Prescaler = 0;
 80006d0:	2300      	movs	r3, #0
  htim16.Init.Period = 255;
 80006d2:	25ff      	movs	r5, #255	@ 0xff
  htim16.Init.Prescaler = 0;
 80006d4:	6063      	str	r3, [r4, #4]
  htim16.Init.CounterMode = TIM_COUNTERMODE_UP;
 80006d6:	60a3      	str	r3, [r4, #8]
  htim16.Init.ClockDivision = TIM_CLOCKDIVISION_DIV4;
 80006d8:	0092      	lsls	r2, r2, #2
  htim16.Init.RepetitionCounter = 0;
 80006da:	6163      	str	r3, [r4, #20]
  if (HAL_TIM_Base_Init(&htim16) != HAL_OK)
 80006dc:	0020      	movs	r0, r4
  htim16.Init.AutoReloadPreload = TIM_AUTORELOAD_PRELOAD_ENABLE;
 80006de:	3380      	adds	r3, #128	@ 0x80
  htim16.Init.Period = 255;
 80006e0:	60e5      	str	r5, [r4, #12]
  htim16.Init.ClockDivision = TIM_CLOCKDIVISION_DIV4;
 80006e2:	6122      	str	r2, [r4, #16]
  htim16.Init.AutoReloadPreload = TIM_AUTORELOAD_PRELOAD_ENABLE;
 80006e4:	61a3      	str	r3, [r4, #24]
  if (HAL_TIM_Base_Init(&htim16) != HAL_OK)
 80006e6:	f003 fdd1 	bl	800428c <HAL_TIM_Base_Init>
 80006ea:	2800      	cmp	r0, #0
 80006ec:	d001      	beq.n	80006f2 <MX_TIM16_Init+0x42>
 80006ee:	b672      	cpsid	i
  while (1)
 80006f0:	e7fe      	b.n	80006f0 <MX_TIM16_Init+0x40>
  if (HAL_TIM_OC_Init(&htim16) != HAL_OK)
 80006f2:	0020      	movs	r0, r4
 80006f4:	f003 fef2 	bl	80044dc <HAL_TIM_OC_Init>
 80006f8:	2800      	cmp	r0, #0
 80006fa:	d001      	beq.n	8000700 <MX_TIM16_Init+0x50>
 80006fc:	b672      	cpsid	i
  while (1)
 80006fe:	e7fe      	b.n	80006fe <MX_TIM16_Init+0x4e>
  sConfigOC.OCFastMode = TIM_OCFAST_DISABLE;
 8000700:	2200      	movs	r2, #0
 8000702:	2300      	movs	r3, #0
  sConfigOC.OCMode = TIM_OCMODE_TIMING;
 8000704:	9000      	str	r0, [sp, #0]
  sConfigOC.OCPolarity = TIM_OCPOLARITY_HIGH;
 8000706:	9002      	str	r0, [sp, #8]
  sConfigOC.OCNPolarity = TIM_OCNPOLARITY_HIGH;
 8000708:	9003      	str	r0, [sp, #12]
  sConfigOC.OCNIdleState = TIM_OCNIDLESTATE_RESET;
 800070a:	9006      	str	r0, [sp, #24]
  if (HAL_TIM_OC_ConfigChannel(&htim16, &sConfigOC, TIM_CHANNEL_1) != HAL_OK)
 800070c:	4669      	mov	r1, sp
 800070e:	0020      	movs	r0, r4
  sConfigOC.OCFastMode = TIM_OCFAST_DISABLE;
 8000710:	9204      	str	r2, [sp, #16]
 8000712:	9305      	str	r3, [sp, #20]
  sConfigOC.Pulse = 255;
 8000714:	9501      	str	r5, [sp, #4]
  if (HAL_TIM_OC_ConfigChannel(&htim16, &sConfigOC, TIM_CHANNEL_1) != HAL_OK)
 8000716:	f004 fc31 	bl	8004f7c <HAL_TIM_OC_ConfigChannel>
 800071a:	2800      	cmp	r0, #0
 800071c:	d001      	beq.n	8000722 <MX_TIM16_Init+0x72>
 800071e:	b672      	cpsid	i
  while (1)
 8000720:	e7fe      	b.n	8000720 <MX_TIM16_Init+0x70>
  __HAL_TIM_DISABLE_OCxPRELOAD(&htim16, TIM_CHANNEL_1);
 8000722:	2108      	movs	r1, #8
 8000724:	6822      	ldr	r2, [r4, #0]
  sBreakDeadTimeConfig.OffStateRunMode = TIM_OSSR_DISABLE;
 8000726:	9008      	str	r0, [sp, #32]
  __HAL_TIM_DISABLE_OCxPRELOAD(&htim16, TIM_CHANNEL_1);
 8000728:	6993      	ldr	r3, [r2, #24]
  sBreakDeadTimeConfig.OffStateIDLEMode = TIM_OSSI_DISABLE;
 800072a:	9009      	str	r0, [sp, #36]	@ 0x24
  __HAL_TIM_DISABLE_OCxPRELOAD(&htim16, TIM_CHANNEL_1);
 800072c:	438b      	bics	r3, r1
 800072e:	6193      	str	r3, [r2, #24]
  sBreakDeadTimeConfig.BreakState = TIM_BREAK_DISABLE;
 8000730:	2380      	movs	r3, #128	@ 0x80
 8000732:	2200      	movs	r2, #0
  sBreakDeadTimeConfig.LockLevel = TIM_LOCKLEVEL_OFF;
 8000734:	900a      	str	r0, [sp, #40]	@ 0x28
  sBreakDeadTimeConfig.DeadTime = 0;
 8000736:	900b      	str	r0, [sp, #44]	@ 0x2c
  sBreakDeadTimeConfig.BreakState = TIM_BREAK_DISABLE;
 8000738:	019b      	lsls	r3, r3, #6
  sBreakDeadTimeConfig.BreakFilter = 0;
 800073a:	900e      	str	r0, [sp, #56]	@ 0x38
  sBreakDeadTimeConfig.AutomaticOutput = TIM_AUTOMATICOUTPUT_DISABLE;
 800073c:	9014      	str	r0, [sp, #80]	@ 0x50
  if (HAL_TIMEx_ConfigBreakDeadTime(&htim16, &sBreakDeadTimeConfig) != HAL_OK)
 800073e:	a908      	add	r1, sp, #32
 8000740:	0020      	movs	r0, r4
  sBreakDeadTimeConfig.BreakState = TIM_BREAK_DISABLE;
 8000742:	920c      	str	r2, [sp, #48]	@ 0x30
 8000744:	930d      	str	r3, [sp, #52]	@ 0x34
  if (HAL_TIMEx_ConfigBreakDeadTime(&htim16, &sBreakDeadTimeConfig) != HAL_OK)
 8000746:	f005 f977 	bl	8005a38 <HAL_TIMEx_ConfigBreakDeadTime>
 800074a:	2800      	cmp	r0, #0
 800074c:	d001      	beq.n	8000752 <MX_TIM16_Init+0xa2>
 800074e:	b672      	cpsid	i
  while (1)
 8000750:	e7fe      	b.n	8000750 <MX_TIM16_Init+0xa0>
}
 8000752:	b017      	add	sp, #92	@ 0x5c
 8000754:	bd30      	pop	{r4, r5, pc}
 8000756:	46c0      	nop			@ (mov r8, r8)
 8000758:	2000085c 	.word	0x2000085c
 800075c:	40014400 	.word	0x40014400

08000760 <MX_TIM2_Init>:
{
 8000760:	b510      	push	{r4, lr}
 8000762:	b08c      	sub	sp, #48	@ 0x30
  TIM_ClockConfigTypeDef sClockSourceConfig = {0};
 8000764:	2210      	movs	r2, #16
 8000766:	2100      	movs	r1, #0
 8000768:	a808      	add	r0, sp, #32
 800076a:	f006 f8c9 	bl	8006900 <memset>
  TIM_MasterConfigTypeDef sMasterConfig = {0};
 800076e:	220c      	movs	r2, #12
 8000770:	2100      	movs	r1, #0
 8000772:	a801      	add	r0, sp, #4
 8000774:	f006 f8c4 	bl	8006900 <memset>
  TIM_IC_InitTypeDef sConfigIC = {0};
 8000778:	2210      	movs	r2, #16
 800077a:	2100      	movs	r1, #0
 800077c:	a804      	add	r0, sp, #16
 800077e:	f006 f8bf 	bl	8006900 <memset>
  htim2.Instance = TIM2;
 8000782:	2380      	movs	r3, #128	@ 0x80
 8000784:	4c22      	ldr	r4, [pc, #136]	@ (8000810 <MX_TIM2_Init+0xb0>)
 8000786:	05db      	lsls	r3, r3, #23
 8000788:	6023      	str	r3, [r4, #0]
  htim2.Init.Prescaler = 64 - 1;
 800078a:	233f      	movs	r3, #63	@ 0x3f
 800078c:	6063      	str	r3, [r4, #4]
  htim2.Init.CounterMode = TIM_COUNTERMODE_UP;
 800078e:	2300      	movs	r3, #0
 8000790:	60a3      	str	r3, [r4, #8]
  htim2.Init.Period = 2097152 - 1;
 8000792:	4b20      	ldr	r3, [pc, #128]	@ (8000814 <MX_TIM2_Init+0xb4>)
  if (HAL_TIM_Base_Init(&htim2) != HAL_OK)
 8000794:	0020      	movs	r0, r4
  htim2.Init.Period = 2097152 - 1;
 8000796:	60e3      	str	r3, [r4, #12]
  htim2.Init.ClockDivision = TIM_CLOCKDIVISION_DIV4;
 8000798:	2380      	movs	r3, #128	@ 0x80
 800079a:	009b      	lsls	r3, r3, #2
 800079c:	6123      	str	r3, [r4, #16]
  htim2.Init.AutoReloadPreload = TIM_AUTORELOAD_PRELOAD_ENABLE;
 800079e:	3b81      	subs	r3, #129	@ 0x81
 80007a0:	3bff      	subs	r3, #255	@ 0xff
 80007a2:	61a3      	str	r3, [r4, #24]
  if (HAL_TIM_Base_Init(&htim2) != HAL_OK)
 80007a4:	f003 fd72 	bl	800428c <HAL_TIM_Base_Init>
 80007a8:	2800      	cmp	r0, #0
 80007aa:	d001      	beq.n	80007b0 <MX_TIM2_Init+0x50>
 80007ac:	b672      	cpsid	i
  while (1)
 80007ae:	e7fe      	b.n	80007ae <MX_TIM2_Init+0x4e>
  sClockSourceConfig.ClockSource = TIM_CLOCKSOURCE_INTERNAL;
 80007b0:	2380      	movs	r3, #128	@ 0x80
  if (HAL_TIM_ConfigClockSource(&htim2, &sClockSourceConfig) != HAL_OK)
 80007b2:	0020      	movs	r0, r4
  sClockSourceConfig.ClockSource = TIM_CLOCKSOURCE_INTERNAL;
 80007b4:	015b      	lsls	r3, r3, #5
  if (HAL_TIM_ConfigClockSource(&htim2, &sClockSourceConfig) != HAL_OK)
 80007b6:	a908      	add	r1, sp, #32
  sClockSourceConfig.ClockSource = TIM_CLOCKSOURCE_INTERNAL;
 80007b8:	9308      	str	r3, [sp, #32]
  if (HAL_TIM_ConfigClockSource(&htim2, &sClockSourceConfig) != HAL_OK)
 80007ba:	f004 ffb3 	bl	8005724 <HAL_TIM_ConfigClockSource>
 80007be:	2800      	cmp	r0, #0
 80007c0:	d001      	beq.n	80007c6 <MX_TIM2_Init+0x66>
 80007c2:	b672      	cpsid	i
  while (1)
 80007c4:	e7fe      	b.n	80007c4 <MX_TIM2_Init+0x64>
  if (HAL_TIM_IC_Init(&htim2) != HAL_OK)
 80007c6:	0020      	movs	r0, r4
 80007c8:	f004 f982 	bl	8004ad0 <HAL_TIM_IC_Init>
 80007cc:	2800      	cmp	r0, #0
 80007ce:	d001      	beq.n	80007d4 <MX_TIM2_Init+0x74>
 80007d0:	b672      	cpsid	i
  while (1)
 80007d2:	e7fe      	b.n	80007d2 <MX_TIM2_Init+0x72>
  sMasterConfig.MasterOutputTrigger = TIM_TRGO_RESET;
 80007d4:	9001      	str	r0, [sp, #4]
  sMasterConfig.MasterSlaveMode = TIM_MASTERSLAVEMODE_DISABLE;
 80007d6:	9003      	str	r0, [sp, #12]
  if (HAL_TIMEx_MasterConfigSynchronization(&htim2, &sMasterConfig) != HAL_OK)
 80007d8:	a901      	add	r1, sp, #4
 80007da:	0020      	movs	r0, r4
 80007dc:	f005 f8f4 	bl	80059c8 <HAL_TIMEx_MasterConfigSynchronization>
 80007e0:	2800      	cmp	r0, #0
 80007e2:	d001      	beq.n	80007e8 <MX_TIM2_Init+0x88>
 80007e4:	b672      	cpsid	i
  while (1)
 80007e6:	e7fe      	b.n	80007e6 <MX_TIM2_Init+0x86>
  sConfigIC.ICPolarity = TIM_INPUTCHANNELPOLARITY_FALLING;
 80007e8:	2202      	movs	r2, #2
 80007ea:	2301      	movs	r3, #1
 80007ec:	9204      	str	r2, [sp, #16]
 80007ee:	9305      	str	r3, [sp, #20]
 80007f0:	2200      	movs	r2, #0
 80007f2:	230f      	movs	r3, #15
  if (HAL_TIM_IC_ConfigChannel(&htim2, &sConfigIC, TIM_CHANNEL_1) != HAL_OK)
 80007f4:	0020      	movs	r0, r4
  sConfigIC.ICPolarity = TIM_INPUTCHANNELPOLARITY_FALLING;
 80007f6:	9206      	str	r2, [sp, #24]
 80007f8:	9307      	str	r3, [sp, #28]
  if (HAL_TIM_IC_ConfigChannel(&htim2, &sConfigIC, TIM_CHANNEL_1) != HAL_OK)
 80007fa:	a904      	add	r1, sp, #16
 80007fc:	2200      	movs	r2, #0
 80007fe:	f004 fd0f 	bl	8005220 <HAL_TIM_IC_ConfigChannel>
 8000802:	2800      	cmp	r0, #0
 8000804:	d001      	beq.n	800080a <MX_TIM2_Init+0xaa>
 8000806:	b672      	cpsid	i
  while (1)
 8000808:	e7fe      	b.n	8000808 <MX_TIM2_Init+0xa8>
}
 800080a:	b00c      	add	sp, #48	@ 0x30
 800080c:	bd10      	pop	{r4, pc}
 800080e:	46c0      	nop			@ (mov r8, r8)
 8000810:	200007a0 	.word	0x200007a0
 8000814:	001fffff 	.word	0x001fffff

08000818 <MX_TIM3_Init>:
{
 8000818:	b510      	push	{r4, lr}
 800081a:	b090      	sub	sp, #64	@ 0x40
  TIM_ClockConfigTypeDef sClockSourceConfig = {0};
 800081c:	2210      	movs	r2, #16
 800081e:	2100      	movs	r1, #0
 8000820:	a804      	add	r0, sp, #16
 8000822:	f006 f86d 	bl	8006900 <memset>
  TIM_MasterConfigTypeDef sMasterConfig = {0};
 8000826:	220c      	movs	r2, #12
 8000828:	2100      	movs	r1, #0
 800082a:	a801      	add	r0, sp, #4
 800082c:	f006 f868 	bl	8006900 <memset>
  TIM_OC_InitTypeDef sConfigOC = {0};
 8000830:	221c      	movs	r2, #28
 8000832:	2100      	movs	r1, #0
 8000834:	a808      	add	r0, sp, #32
 8000836:	f006 f863 	bl	8006900 <memset>
  htim3.Instance = TIM3;
 800083a:	4c23      	ldr	r4, [pc, #140]	@ (80008c8 <MX_TIM3_Init+0xb0>)
 800083c:	4b23      	ldr	r3, [pc, #140]	@ (80008cc <MX_TIM3_Init+0xb4>)
  if (HAL_TIM_Base_Init(&htim3) != HAL_OK)
 800083e:	0020      	movs	r0, r4
  htim3.Instance = TIM3;
 8000840:	6023      	str	r3, [r4, #0]
  htim3.Init.Prescaler = (64 * 512) - 1;
 8000842:	4b23      	ldr	r3, [pc, #140]	@ (80008d0 <MX_TIM3_Init+0xb8>)
 8000844:	6063      	str	r3, [r4, #4]
  htim3.Init.CounterMode = TIM_COUNTERMODE_UP;
 8000846:	2300      	movs	r3, #0
 8000848:	60a3      	str	r3, [r4, #8]
  htim3.Init.Period = 4096 - 1;
 800084a:	4b22      	ldr	r3, [pc, #136]	@ (80008d4 <MX_TIM3_Init+0xbc>)
 800084c:	60e3      	str	r3, [r4, #12]
  htim3.Init.ClockDivision = TIM_CLOCKDIVISION_DIV4;
 800084e:	2380      	movs	r3, #128	@ 0x80
 8000850:	009b      	lsls	r3, r3, #2
 8000852:	6123      	str	r3, [r4, #16]
  htim3.Init.AutoReloadPreload = TIM_AUTORELOAD_PRELOAD_ENABLE;
 8000854:	3b81      	subs	r3, #129	@ 0x81
 8000856:	3bff      	subs	r3, #255	@ 0xff
 8000858:	61a3      	str	r3, [r4, #24]
  if (HAL_TIM_Base_Init(&htim3) != HAL_OK)
 800085a:	f003 fd17 	bl	800428c <HAL_TIM_Base_Init>
 800085e:	2800      	cmp	r0, #0
 8000860:	d001      	beq.n	8000866 <MX_TIM3_Init+0x4e>
 8000862:	b672      	cpsid	i
  while (1)
 8000864:	e7fe      	b.n	8000864 <MX_TIM3_Init+0x4c>
  sClockSourceConfig.ClockSource = TIM_CLOCKSOURCE_INTERNAL;
 8000866:	2380      	movs	r3, #128	@ 0x80
  if (HAL_TIM_ConfigClockSource(&htim3, &sClockSourceConfig) != HAL_OK)
 8000868:	0020      	movs	r0, r4
  sClockSourceConfig.ClockSource = TIM_CLOCKSOURCE_INTERNAL;
 800086a:	015b      	lsls	r3, r3, #5
  if (HAL_TIM_ConfigClockSource(&htim3, &sClockSourceConfig) != HAL_OK)
 800086c:	a904      	add	r1, sp, #16
  sClockSourceConfig.ClockSource = TIM_CLOCKSOURCE_INTERNAL;
 800086e:	9304      	str	r3, [sp, #16]
  if (HAL_TIM_ConfigClockSource(&htim3, &sClockSourceConfig) != HAL_OK)
 8000870:	f004 ff58 	bl	8005724 <HAL_TIM_ConfigClockSource>
 8000874:	2800      	cmp	r0, #0
 8000876:	d001      	beq.n	800087c <MX_TIM3_Init+0x64>
 8000878:	b672      	cpsid	i
  while (1)
 800087a:	e7fe      	b.n	800087a <MX_TIM3_Init+0x62>
  if (HAL_TIM_OC_Init(&htim3) != HAL_OK)
 800087c:	0020      	movs	r0, r4
 800087e:	f003 fe2d 	bl	80044dc <HAL_TIM_OC_Init>
 8000882:	2800      	cmp	r0, #0
 8000884:	d001      	beq.n	800088a <MX_TIM3_Init+0x72>
 8000886:	b672      	cpsid	i
  while (1)
 8000888:	e7fe      	b.n	8000888 <MX_TIM3_Init+0x70>
  sMasterConfig.MasterOutputTrigger = TIM_TRGO_RESET;
 800088a:	9001      	str	r0, [sp, #4]
  sMasterConfig.MasterSlaveMode = TIM_MASTERSLAVEMODE_DISABLE;
 800088c:	9003      	str	r0, [sp, #12]
  if (HAL_TIMEx_MasterConfigSynchronization(&htim3, &sMasterConfig) != HAL_OK)
 800088e:	a901      	add	r1, sp, #4
 8000890:	0020      	movs	r0, r4
 8000892:	f005 f899 	bl	80059c8 <HAL_TIMEx_MasterConfigSynchronization>
 8000896:	2800      	cmp	r0, #0
 8000898:	d001      	beq.n	800089e <MX_TIM3_Init+0x86>
 800089a:	b672      	cpsid	i
  while (1)
 800089c:	e7fe      	b.n	800089c <MX_TIM3_Init+0x84>
  sConfigOC.OCMode = TIM_OCMODE_TIMING;
 800089e:	2200      	movs	r2, #0
 80008a0:	2300      	movs	r3, #0
  sConfigOC.OCPolarity = TIM_OCPOLARITY_HIGH;
 80008a2:	900a      	str	r0, [sp, #40]	@ 0x28
  sConfigOC.OCFastMode = TIM_OCFAST_DISABLE;
 80008a4:	900c      	str	r0, [sp, #48]	@ 0x30
  if (HAL_TIM_OC_ConfigChannel(&htim3, &sConfigOC, TIM_CHANNEL_1) != HAL_OK)
 80008a6:	a908      	add	r1, sp, #32
 80008a8:	0020      	movs	r0, r4
  sConfigOC.OCMode = TIM_OCMODE_TIMING;
 80008aa:	9208      	str	r2, [sp, #32]
 80008ac:	9309      	str	r3, [sp, #36]	@ 0x24
  if (HAL_TIM_OC_ConfigChannel(&htim3, &sConfigOC, TIM_CHANNEL_1) != HAL_OK)
 80008ae:	f004 fb65 	bl	8004f7c <HAL_TIM_OC_ConfigChannel>
 80008b2:	2800      	cmp	r0, #0
 80008b4:	d001      	beq.n	80008ba <MX_TIM3_Init+0xa2>
 80008b6:	b672      	cpsid	i
  while (1)
 80008b8:	e7fe      	b.n	80008b8 <MX_TIM3_Init+0xa0>
  __HAL_TIM_DISABLE_OCxPRELOAD(&htim3, TIM_CHANNEL_1);
 80008ba:	2108      	movs	r1, #8
 80008bc:	6822      	ldr	r2, [r4, #0]
 80008be:	6993      	ldr	r3, [r2, #24]
 80008c0:	438b      	bics	r3, r1
 80008c2:	6193      	str	r3, [r2, #24]
}
 80008c4:	b010      	add	sp, #64	@ 0x40
 80008c6:	bd10      	pop	{r4, pc}
 80008c8:	200006e4 	.word	0x200006e4
 80008cc:	40000400 	.word	0x40000400
 80008d0:	00007fff 	.word	0x00007fff
 80008d4:	00000fff 	.word	0x00000fff

080008d8 <MX_TIM1_Init>:
{
 80008d8:	b5d0      	push	{r4, r6, r7, lr}
 80008da:	b09c      	sub	sp, #112	@ 0x70
  TIM_ClockConfigTypeDef sClockSourceConfig = {0};
 80008dc:	2210      	movs	r2, #16
 80008de:	2100      	movs	r1, #0
 80008e0:	a804      	add	r0, sp, #16
 80008e2:	f006 f80d 	bl	8006900 <memset>
  TIM_MasterConfigTypeDef sMasterConfig = {0};
 80008e6:	220c      	movs	r2, #12
 80008e8:	2100      	movs	r1, #0
 80008ea:	4668      	mov	r0, sp
 80008ec:	f006 f808 	bl	8006900 <memset>
  TIM_OC_InitTypeDef sConfigOC = {0};
 80008f0:	221c      	movs	r2, #28
 80008f2:	2100      	movs	r1, #0
 80008f4:	a808      	add	r0, sp, #32
 80008f6:	f006 f803 	bl	8006900 <memset>
  TIM_BreakDeadTimeConfigTypeDef sBreakDeadTimeConfig = {0};
 80008fa:	2234      	movs	r2, #52	@ 0x34
 80008fc:	2100      	movs	r1, #0
 80008fe:	a80f      	add	r0, sp, #60	@ 0x3c
 8000900:	f005 fffe 	bl	8006900 <memset>
  htim1.Instance = TIM1;
 8000904:	4c3a      	ldr	r4, [pc, #232]	@ (80009f0 <MX_TIM1_Init+0x118>)
 8000906:	4b3b      	ldr	r3, [pc, #236]	@ (80009f4 <MX_TIM1_Init+0x11c>)
  htim1.Init.Period = 1024 - 1;
 8000908:	4a3b      	ldr	r2, [pc, #236]	@ (80009f8 <MX_TIM1_Init+0x120>)
  htim1.Instance = TIM1;
 800090a:	6023      	str	r3, [r4, #0]
  htim1.Init.Period = 1024 - 1;
 800090c:	60e2      	str	r2, [r4, #12]
  htim1.Init.Prescaler = 0;
 800090e:	2300      	movs	r3, #0
  htim1.Init.ClockDivision = TIM_CLOCKDIVISION_DIV2;
 8000910:	2280      	movs	r2, #128	@ 0x80
  htim1.Init.Prescaler = 0;
 8000912:	6063      	str	r3, [r4, #4]
  htim1.Init.CounterMode = TIM_COUNTERMODE_UP;
 8000914:	60a3      	str	r3, [r4, #8]
  htim1.Init.ClockDivision = TIM_CLOCKDIVISION_DIV2;
 8000916:	0052      	lsls	r2, r2, #1
  htim1.Init.RepetitionCounter = 0;
 8000918:	6163      	str	r3, [r4, #20]
  if (HAL_TIM_Base_Init(&htim1) != HAL_OK)
 800091a:	0020      	movs	r0, r4
  htim1.Init.AutoReloadPreload = TIM_AUTORELOAD_PRELOAD_ENABLE;
 800091c:	3380      	adds	r3, #128	@ 0x80
  htim1.Init.ClockDivision = TIM_CLOCKDIVISION_DIV2;
 800091e:	6122      	str	r2, [r4, #16]
  htim1.Init.AutoReloadPreload = TIM_AUTORELOAD_PRELOAD_ENABLE;
 8000920:	61a3      	str	r3, [r4, #24]
  if (HAL_TIM_Base_Init(&htim1) != HAL_OK)
 8000922:	f003 fcb3 	bl	800428c <HAL_TIM_Base_Init>
 8000926:	2800      	cmp	r0, #0
 8000928:	d001      	beq.n	800092e <MX_TIM1_Init+0x56>
 800092a:	b672      	cpsid	i
  while (1)
 800092c:	e7fe      	b.n	800092c <MX_TIM1_Init+0x54>
  sClockSourceConfig.ClockSource = TIM_CLOCKSOURCE_INTERNAL;
 800092e:	2380      	movs	r3, #128	@ 0x80
  if (HAL_TIM_ConfigClockSource(&htim1, &sClockSourceConfig) != HAL_OK)
 8000930:	0020      	movs	r0, r4
  sClockSourceConfig.ClockSource = TIM_CLOCKSOURCE_INTERNAL;
 8000932:	015b      	lsls	r3, r3, #5
  if (HAL_TIM_ConfigClockSource(&htim1, &sClockSourceConfig) != HAL_OK)
 8000934:	a904      	add	r1, sp, #16
  sClockSourceConfig.ClockSource = TIM_CLOCKSOURCE_INTERNAL;
 8000936:	9304      	str	r3, [sp, #16]
  if (HAL_TIM_ConfigClockSource(&htim1, &sClockSourceConfig) != HAL_OK)
 8000938:	f004 fef4 	bl	8005724 <HAL_TIM_ConfigClockSource>
 800093c:	2800      	cmp	r0, #0
 800093e:	d001      	beq.n	8000944 <MX_TIM1_Init+0x6c>
 8000940:	b672      	cpsid	i
  while (1)
 8000942:	e7fe      	b.n	8000942 <MX_TIM1_Init+0x6a>
  if (HAL_TIM_PWM_Init(&htim1) != HAL_OK)
 8000944:	0020      	movs	r0, r4
 8000946:	f003 ff93 	bl	8004870 <HAL_TIM_PWM_Init>
 800094a:	2800      	cmp	r0, #0
 800094c:	d001      	beq.n	8000952 <MX_TIM1_Init+0x7a>
 800094e:	b672      	cpsid	i
  while (1)
 8000950:	e7fe      	b.n	8000950 <MX_TIM1_Init+0x78>
  sMasterConfig.MasterOutputTrigger = TIM_TRGO_RESET;
 8000952:	2600      	movs	r6, #0
 8000954:	2700      	movs	r7, #0
  sMasterConfig.MasterSlaveMode = TIM_MASTERSLAVEMODE_DISABLE;
 8000956:	9002      	str	r0, [sp, #8]
  if (HAL_TIMEx_MasterConfigSynchronization(&htim1, &sMasterConfig) != HAL_OK)
 8000958:	4669      	mov	r1, sp
 800095a:	0020      	movs	r0, r4
  sMasterConfig.MasterOutputTrigger = TIM_TRGO_RESET;
 800095c:	9600      	str	r6, [sp, #0]
 800095e:	9701      	str	r7, [sp, #4]
  if (HAL_TIMEx_MasterConfigSynchronization(&htim1, &sMasterConfig) != HAL_OK)
 8000960:	f005 f832 	bl	80059c8 <HAL_TIMEx_MasterConfigSynchronization>
 8000964:	2800      	cmp	r0, #0
 8000966:	d001      	beq.n	800096c <MX_TIM1_Init+0x94>
 8000968:	b672      	cpsid	i
  while (1)
 800096a:	e7fe      	b.n	800096a <MX_TIM1_Init+0x92>
  sConfigOC.OCMode = TIM_OCMODE_PWM1;
 800096c:	2360      	movs	r3, #96	@ 0x60
  sConfigOC.Pulse = 0;
 800096e:	9009      	str	r0, [sp, #36]	@ 0x24
  sConfigOC.OCPolarity = TIM_OCPOLARITY_HIGH;
 8000970:	900a      	str	r0, [sp, #40]	@ 0x28
  sConfigOC.OCNPolarity = TIM_OCNPOLARITY_HIGH;
 8000972:	900b      	str	r0, [sp, #44]	@ 0x2c
  sConfigOC.OCNIdleState = TIM_OCNIDLESTATE_RESET;
 8000974:	900e      	str	r0, [sp, #56]	@ 0x38
  if (HAL_TIM_PWM_ConfigChannel(&htim1, &sConfigOC, TIM_CHANNEL_2) != HAL_OK)
 8000976:	2204      	movs	r2, #4
 8000978:	0020      	movs	r0, r4
 800097a:	a908      	add	r1, sp, #32
  sConfigOC.OCFastMode = TIM_OCFAST_DISABLE;
 800097c:	960c      	str	r6, [sp, #48]	@ 0x30
 800097e:	970d      	str	r7, [sp, #52]	@ 0x34
  sConfigOC.OCMode = TIM_OCMODE_PWM1;
 8000980:	9308      	str	r3, [sp, #32]
  if (HAL_TIM_PWM_ConfigChannel(&htim1, &sConfigOC, TIM_CHANNEL_2) != HAL_OK)
 8000982:	f004 fd2b 	bl	80053dc <HAL_TIM_PWM_ConfigChannel>
 8000986:	2800      	cmp	r0, #0
 8000988:	d001      	beq.n	800098e <MX_TIM1_Init+0xb6>
 800098a:	b672      	cpsid	i
  while (1)
 800098c:	e7fe      	b.n	800098c <MX_TIM1_Init+0xb4>
  __HAL_TIM_DISABLE_OCxPRELOAD(&htim1, TIM_CHANNEL_2);
 800098e:	6822      	ldr	r2, [r4, #0]
 8000990:	4e1a      	ldr	r6, [pc, #104]	@ (80009fc <MX_TIM1_Init+0x124>)
 8000992:	6993      	ldr	r3, [r2, #24]
  if (HAL_TIM_PWM_ConfigChannel(&htim1, &sConfigOC, TIM_CHANNEL_4) != HAL_OK)
 8000994:	0020      	movs	r0, r4
  __HAL_TIM_DISABLE_OCxPRELOAD(&htim1, TIM_CHANNEL_2);
 8000996:	4033      	ands	r3, r6
 8000998:	6193      	str	r3, [r2, #24]
  if (HAL_TIM_PWM_ConfigChannel(&htim1, &sConfigOC, TIM_CHANNEL_4) != HAL_OK)
 800099a:	a908      	add	r1, sp, #32
 800099c:	220c      	movs	r2, #12
 800099e:	f004 fd1d 	bl	80053dc <HAL_TIM_PWM_ConfigChannel>
 80009a2:	2800      	cmp	r0, #0
 80009a4:	d001      	beq.n	80009aa <MX_TIM1_Init+0xd2>
 80009a6:	b672      	cpsid	i
  while (1)
 80009a8:	e7fe      	b.n	80009a8 <MX_TIM1_Init+0xd0>
  __HAL_TIM_DISABLE_OCxPRELOAD(&htim1, TIM_CHANNEL_4);
 80009aa:	6822      	ldr	r2, [r4, #0]
  sBreakDeadTimeConfig.OffStateRunMode = TIM_OSSR_DISABLE;
 80009ac:	900f      	str	r0, [sp, #60]	@ 0x3c
  __HAL_TIM_DISABLE_OCxPRELOAD(&htim1, TIM_CHANNEL_4);
 80009ae:	69d3      	ldr	r3, [r2, #28]
  sBreakDeadTimeConfig.OffStateIDLEMode = TIM_OSSI_DISABLE;
 80009b0:	9010      	str	r0, [sp, #64]	@ 0x40
  __HAL_TIM_DISABLE_OCxPRELOAD(&htim1, TIM_CHANNEL_4);
 80009b2:	4033      	ands	r3, r6
 80009b4:	61d3      	str	r3, [r2, #28]
  sBreakDeadTimeConfig.BreakPolarity = TIM_BREAKPOLARITY_HIGH;
 80009b6:	2380      	movs	r3, #128	@ 0x80
 80009b8:	019b      	lsls	r3, r3, #6
 80009ba:	9314      	str	r3, [sp, #80]	@ 0x50
  sBreakDeadTimeConfig.Break2Polarity = TIM_BREAK2POLARITY_HIGH;
 80009bc:	2380      	movs	r3, #128	@ 0x80
  sBreakDeadTimeConfig.LockLevel = TIM_LOCKLEVEL_OFF;
 80009be:	9011      	str	r0, [sp, #68]	@ 0x44
  sBreakDeadTimeConfig.DeadTime = 0;
 80009c0:	9012      	str	r0, [sp, #72]	@ 0x48
  sBreakDeadTimeConfig.BreakState = TIM_BREAK_DISABLE;
 80009c2:	9013      	str	r0, [sp, #76]	@ 0x4c
  sBreakDeadTimeConfig.BreakFilter = 0;
 80009c4:	9015      	str	r0, [sp, #84]	@ 0x54
  sBreakDeadTimeConfig.BreakAFMode = TIM_BREAK_AFMODE_INPUT;
 80009c6:	9016      	str	r0, [sp, #88]	@ 0x58
  sBreakDeadTimeConfig.Break2State = TIM_BREAK2_DISABLE;
 80009c8:	9017      	str	r0, [sp, #92]	@ 0x5c
  sBreakDeadTimeConfig.Break2Polarity = TIM_BREAK2POLARITY_HIGH;
 80009ca:	049b      	lsls	r3, r3, #18
  sBreakDeadTimeConfig.Break2Filter = 0;
 80009cc:	9019      	str	r0, [sp, #100]	@ 0x64
  sBreakDeadTimeConfig.Break2AFMode = TIM_BREAK_AFMODE_INPUT;
 80009ce:	901a      	str	r0, [sp, #104]	@ 0x68
  sBreakDeadTimeConfig.AutomaticOutput = TIM_AUTOMATICOUTPUT_DISABLE;
 80009d0:	901b      	str	r0, [sp, #108]	@ 0x6c
  if (HAL_TIMEx_ConfigBreakDeadTime(&htim1, &sBreakDeadTimeConfig) != HAL_OK)
 80009d2:	a90f      	add	r1, sp, #60	@ 0x3c
 80009d4:	0020      	movs	r0, r4
  sBreakDeadTimeConfig.Break2Polarity = TIM_BREAK2POLARITY_HIGH;
 80009d6:	9318      	str	r3, [sp, #96]	@ 0x60
  if (HAL_TIMEx_ConfigBreakDeadTime(&htim1, &sBreakDeadTimeConfig) != HAL_OK)
 80009d8:	f005 f82e 	bl	8005a38 <HAL_TIMEx_ConfigBreakDeadTime>
 80009dc:	2800      	cmp	r0, #0
 80009de:	d001      	beq.n	80009e4 <MX_TIM1_Init+0x10c>
 80009e0:	b672      	cpsid	i
  while (1)
 80009e2:	e7fe      	b.n	80009e2 <MX_TIM1_Init+0x10a>
  HAL_TIM_MspPostInit(&htim1);
 80009e4:	0020      	movs	r0, r4
 80009e6:	f001 f957 	bl	8001c98 <HAL_TIM_MspPostInit>
}
 80009ea:	b01c      	add	sp, #112	@ 0x70
 80009ec:	bdd0      	pop	{r4, r6, r7, pc}
 80009ee:	46c0      	nop			@ (mov r8, r8)
 80009f0:	20000628 	.word	0x20000628
 80009f4:	40012c00 	.word	0x40012c00
 80009f8:	000003ff 	.word	0x000003ff
 80009fc:	fffff7ff 	.word	0xfffff7ff

08000a00 <MX_TIM17_Init>:
{
 8000a00:	b530      	push	{r4, r5, lr}
 8000a02:	b097      	sub	sp, #92	@ 0x5c
  TIM_OC_InitTypeDef sConfigOC = {0};
 8000a04:	221c      	movs	r2, #28
 8000a06:	2100      	movs	r1, #0
 8000a08:	4668      	mov	r0, sp
 8000a0a:	f005 ff79 	bl	8006900 <memset>
  TIM_BreakDeadTimeConfigTypeDef sBreakDeadTimeConfig = {0};
 8000a0e:	2234      	movs	r2, #52	@ 0x34
 8000a10:	2100      	movs	r1, #0
 8000a12:	a808      	add	r0, sp, #32
 8000a14:	f005 ff74 	bl	8006900 <memset>
  htim17.Instance = TIM17;
 8000a18:	4c23      	ldr	r4, [pc, #140]	@ (8000aa8 <MX_TIM17_Init+0xa8>)
 8000a1a:	4b24      	ldr	r3, [pc, #144]	@ (8000aac <MX_TIM17_Init+0xac>)
  htim17.Init.ClockDivision = TIM_CLOCKDIVISION_DIV4;
 8000a1c:	2280      	movs	r2, #128	@ 0x80
  htim17.Instance = TIM17;
 8000a1e:	6023      	str	r3, [r4, #0]
  htim17.Init.Prescaler = (512*64)- 1;
 8000a20:	4b23      	ldr	r3, [pc, #140]	@ (8000ab0 <MX_TIM17_Init+0xb0>)
  htim17.Init.Period = TIM17_OVERFLOW_LENGTH - 1;
 8000a22:	2516      	movs	r5, #22
  htim17.Init.Prescaler = (512*64)- 1;
 8000a24:	6063      	str	r3, [r4, #4]
  htim17.Init.CounterMode = TIM_COUNTERMODE_UP;
 8000a26:	2300      	movs	r3, #0
  htim17.Init.ClockDivision = TIM_CLOCKDIVISION_DIV4;
 8000a28:	0092      	lsls	r2, r2, #2
  htim17.Init.CounterMode = TIM_COUNTERMODE_UP;
 8000a2a:	60a3      	str	r3, [r4, #8]
  htim17.Init.RepetitionCounter = 0;
 8000a2c:	6163      	str	r3, [r4, #20]
  if (HAL_TIM_Base_Init(&htim17) != HAL_OK)
 8000a2e:	0020      	movs	r0, r4
  htim17.Init.AutoReloadPreload = TIM_AUTORELOAD_PRELOAD_ENABLE;
 8000a30:	3380      	adds	r3, #128	@ 0x80
  htim17.Init.Period = TIM17_OVERFLOW_LENGTH - 1;
 8000a32:	60e5      	str	r5, [r4, #12]
  htim17.Init.ClockDivision = TIM_CLOCKDIVISION_DIV4;
 8000a34:	6122      	str	r2, [r4, #16]
  htim17.Init.AutoReloadPreload = TIM_AUTORELOAD_PRELOAD_ENABLE;
 8000a36:	61a3      	str	r3, [r4, #24]
  if (HAL_TIM_Base_Init(&htim17) != HAL_OK)
 8000a38:	f003 fc28 	bl	800428c <HAL_TIM_Base_Init>
 8000a3c:	2800      	cmp	r0, #0
 8000a3e:	d001      	beq.n	8000a44 <MX_TIM17_Init+0x44>
 8000a40:	b672      	cpsid	i
  while (1)
 8000a42:	e7fe      	b.n	8000a42 <MX_TIM17_Init+0x42>
  if (HAL_TIM_OC_Init(&htim17) != HAL_OK)
 8000a44:	0020      	movs	r0, r4
 8000a46:	f003 fd49 	bl	80044dc <HAL_TIM_OC_Init>
 8000a4a:	2800      	cmp	r0, #0
 8000a4c:	d001      	beq.n	8000a52 <MX_TIM17_Init+0x52>
 8000a4e:	b672      	cpsid	i
  while (1)
 8000a50:	e7fe      	b.n	8000a50 <MX_TIM17_Init+0x50>
  sConfigOC.OCFastMode = TIM_OCFAST_DISABLE;
 8000a52:	2200      	movs	r2, #0
 8000a54:	2300      	movs	r3, #0
  sConfigOC.OCMode = TIM_OCMODE_TIMING;
 8000a56:	9000      	str	r0, [sp, #0]
  sConfigOC.OCPolarity = TIM_OCPOLARITY_HIGH;
 8000a58:	9002      	str	r0, [sp, #8]
  sConfigOC.OCNPolarity = TIM_OCNPOLARITY_HIGH;
 8000a5a:	9003      	str	r0, [sp, #12]
  sConfigOC.OCNIdleState = TIM_OCNIDLESTATE_RESET;
 8000a5c:	9006      	str	r0, [sp, #24]
  if (HAL_TIM_OC_ConfigChannel(&htim17, &sConfigOC, TIM_CHANNEL_1) != HAL_OK)
 8000a5e:	4669      	mov	r1, sp
 8000a60:	0020      	movs	r0, r4
  sConfigOC.OCFastMode = TIM_OCFAST_DISABLE;
 8000a62:	9204      	str	r2, [sp, #16]
 8000a64:	9305      	str	r3, [sp, #20]
  sConfigOC.Pulse = TIM17_OVERFLOW_LENGTH - 1;
 8000a66:	9501      	str	r5, [sp, #4]
  if (HAL_TIM_OC_ConfigChannel(&htim17, &sConfigOC, TIM_CHANNEL_1) != HAL_OK)
 8000a68:	f004 fa88 	bl	8004f7c <HAL_TIM_OC_ConfigChannel>
 8000a6c:	2800      	cmp	r0, #0
 8000a6e:	d001      	beq.n	8000a74 <MX_TIM17_Init+0x74>
 8000a70:	b672      	cpsid	i
  while (1)
 8000a72:	e7fe      	b.n	8000a72 <MX_TIM17_Init+0x72>
  __HAL_TIM_ENABLE_OCxPRELOAD(&htim17, TIM_CHANNEL_1);
 8000a74:	2108      	movs	r1, #8
 8000a76:	6822      	ldr	r2, [r4, #0]
  sBreakDeadTimeConfig.OffStateRunMode = TIM_OSSR_DISABLE;
 8000a78:	9008      	str	r0, [sp, #32]
  __HAL_TIM_ENABLE_OCxPRELOAD(&htim17, TIM_CHANNEL_1);
 8000a7a:	6993      	ldr	r3, [r2, #24]
  sBreakDeadTimeConfig.OffStateIDLEMode = TIM_OSSI_DISABLE;
 8000a7c:	9009      	str	r0, [sp, #36]	@ 0x24
  __HAL_TIM_ENABLE_OCxPRELOAD(&htim17, TIM_CHANNEL_1);
 8000a7e:	430b      	orrs	r3, r1
 8000a80:	6193      	str	r3, [r2, #24]
  sBreakDeadTimeConfig.BreakState = TIM_BREAK_DISABLE;
 8000a82:	2380      	movs	r3, #128	@ 0x80
 8000a84:	2200      	movs	r2, #0
  sBreakDeadTimeConfig.LockLevel = TIM_LOCKLEVEL_OFF;
 8000a86:	900a      	str	r0, [sp, #40]	@ 0x28
  sBreakDeadTimeConfig.DeadTime = 0;
 8000a88:	900b      	str	r0, [sp, #44]	@ 0x2c
  sBreakDeadTimeConfig.BreakState = TIM_BREAK_DISABLE;
 8000a8a:	019b      	lsls	r3, r3, #6
  sBreakDeadTimeConfig.BreakFilter = 0;
 8000a8c:	900e      	str	r0, [sp, #56]	@ 0x38
  sBreakDeadTimeConfig.AutomaticOutput = TIM_AUTOMATICOUTPUT_DISABLE;
 8000a8e:	9014      	str	r0, [sp, #80]	@ 0x50
  if (HAL_TIMEx_ConfigBreakDeadTime(&htim17, &sBreakDeadTimeConfig) != HAL_OK)
 8000a90:	a908      	add	r1, sp, #32
 8000a92:	0020      	movs	r0, r4
  sBreakDeadTimeConfig.BreakState = TIM_BREAK_DISABLE;
 8000a94:	920c      	str	r2, [sp, #48]	@ 0x30
 8000a96:	930d      	str	r3, [sp, #52]	@ 0x34
  if (HAL_TIMEx_ConfigBreakDeadTime(&htim17, &sBreakDeadTimeConfig) != HAL_OK)
 8000a98:	f004 ffce 	bl	8005a38 <HAL_TIMEx_ConfigBreakDeadTime>
 8000a9c:	2800      	cmp	r0, #0
 8000a9e:	d001      	beq.n	8000aa4 <MX_TIM17_Init+0xa4>
 8000aa0:	b672      	cpsid	i
  while (1)
 8000aa2:	e7fe      	b.n	8000aa2 <MX_TIM17_Init+0xa2>
}
 8000aa4:	b017      	add	sp, #92	@ 0x5c
 8000aa6:	bd30      	pop	{r4, r5, pc}
 8000aa8:	20000918 	.word	0x20000918
 8000aac:	40014800 	.word	0x40014800
 8000ab0:	00007fff 	.word	0x00007fff

08000ab4 <MX_TIM14_Init>:
{
 8000ab4:	b510      	push	{r4, lr}
 8000ab6:	b088      	sub	sp, #32
  TIM_OC_InitTypeDef sConfigOC = {0};
 8000ab8:	221c      	movs	r2, #28
 8000aba:	2100      	movs	r1, #0
 8000abc:	4668      	mov	r0, sp
 8000abe:	f005 ff1f 	bl	8006900 <memset>
  htim14.Instance = TIM14;
 8000ac2:	4c15      	ldr	r4, [pc, #84]	@ (8000b18 <MX_TIM14_Init+0x64>)
 8000ac4:	4b15      	ldr	r3, [pc, #84]	@ (8000b1c <MX_TIM14_Init+0x68>)
  htim14.Init.ClockDivision = TIM_CLOCKDIVISION_DIV4;
 8000ac6:	2280      	movs	r2, #128	@ 0x80
  htim14.Instance = TIM14;
 8000ac8:	6023      	str	r3, [r4, #0]
  htim14.Init.Prescaler = (512 * 64) - 1;
 8000aca:	4b15      	ldr	r3, [pc, #84]	@ (8000b20 <MX_TIM14_Init+0x6c>)
  htim14.Init.ClockDivision = TIM_CLOCKDIVISION_DIV4;
 8000acc:	0092      	lsls	r2, r2, #2
  htim14.Init.Prescaler = (512 * 64) - 1;
 8000ace:	6063      	str	r3, [r4, #4]
  htim14.Init.CounterMode = TIM_COUNTERMODE_UP;
 8000ad0:	2300      	movs	r3, #0
  if (HAL_TIM_Base_Init(&htim14) != HAL_OK)
 8000ad2:	0020      	movs	r0, r4
  htim14.Init.CounterMode = TIM_COUNTERMODE_UP;
 8000ad4:	60a3      	str	r3, [r4, #8]
  htim14.Init.Period = 0;
 8000ad6:	60e3      	str	r3, [r4, #12]
  htim14.Init.ClockDivision = TIM_CLOCKDIVISION_DIV4;
 8000ad8:	6122      	str	r2, [r4, #16]
  htim14.Init.AutoReloadPreload = TIM_AUTORELOAD_PRELOAD_DISABLE;
 8000ada:	61a3      	str	r3, [r4, #24]
  if (HAL_TIM_Base_Init(&htim14) != HAL_OK)
 8000adc:	f003 fbd6 	bl	800428c <HAL_TIM_Base_Init>
 8000ae0:	2800      	cmp	r0, #0
 8000ae2:	d001      	beq.n	8000ae8 <MX_TIM14_Init+0x34>
 8000ae4:	b672      	cpsid	i
  while (1)
 8000ae6:	e7fe      	b.n	8000ae6 <MX_TIM14_Init+0x32>
  if (HAL_TIM_OC_Init(&htim14) != HAL_OK)
 8000ae8:	0020      	movs	r0, r4
 8000aea:	f003 fcf7 	bl	80044dc <HAL_TIM_OC_Init>
 8000aee:	2800      	cmp	r0, #0
 8000af0:	d001      	beq.n	8000af6 <MX_TIM14_Init+0x42>
 8000af2:	b672      	cpsid	i
  while (1)
 8000af4:	e7fe      	b.n	8000af4 <MX_TIM14_Init+0x40>
  sConfigOC.OCMode = TIM_OCMODE_TIMING;
 8000af6:	2200      	movs	r2, #0
 8000af8:	2300      	movs	r3, #0
  sConfigOC.OCPolarity = TIM_OCPOLARITY_HIGH;
 8000afa:	9002      	str	r0, [sp, #8]
  sConfigOC.OCFastMode = TIM_OCFAST_DISABLE;
 8000afc:	9004      	str	r0, [sp, #16]
  if (HAL_TIM_OC_ConfigChannel(&htim14, &sConfigOC, TIM_CHANNEL_1) != HAL_OK)
 8000afe:	4669      	mov	r1, sp
 8000b00:	0020      	movs	r0, r4
  sConfigOC.OCMode = TIM_OCMODE_TIMING;
 8000b02:	9200      	str	r2, [sp, #0]
 8000b04:	9301      	str	r3, [sp, #4]
  if (HAL_TIM_OC_ConfigChannel(&htim14, &sConfigOC, TIM_CHANNEL_1) != HAL_OK)
 8000b06:	f004 fa39 	bl	8004f7c <HAL_TIM_OC_ConfigChannel>
 8000b0a:	2800      	cmp	r0, #0
 8000b0c:	d001      	beq.n	8000b12 <MX_TIM14_Init+0x5e>
 8000b0e:	b672      	cpsid	i
  while (1)
 8000b10:	e7fe      	b.n	8000b10 <MX_TIM14_Init+0x5c>
}
 8000b12:	b008      	add	sp, #32
 8000b14:	bd10      	pop	{r4, pc}
 8000b16:	46c0      	nop			@ (mov r8, r8)
 8000b18:	200009d4 	.word	0x200009d4
 8000b1c:	40002000 	.word	0x40002000
 8000b20:	00007fff 	.word	0x00007fff

08000b24 <MX_GPIO_Init>:
{
 8000b24:	b5f0      	push	{r4, r5, r6, r7, lr}
 8000b26:	46ce      	mov	lr, r9
 8000b28:	4647      	mov	r7, r8
 8000b2a:	b580      	push	{r7, lr}
 8000b2c:	b08b      	sub	sp, #44	@ 0x2c
  GPIO_InitTypeDef GPIO_InitStruct = {0};
 8000b2e:	2214      	movs	r2, #20
 8000b30:	2100      	movs	r1, #0
 8000b32:	a804      	add	r0, sp, #16
 8000b34:	f005 fee4 	bl	8006900 <memset>
  __HAL_RCC_GPIOC_CLK_ENABLE();
 8000b38:	2204      	movs	r2, #4
 8000b3a:	4b44      	ldr	r3, [pc, #272]	@ (8000c4c <MX_GPIO_Init+0x128>)
  __HAL_RCC_GPIOA_CLK_ENABLE();
 8000b3c:	2501      	movs	r5, #1
  __HAL_RCC_GPIOC_CLK_ENABLE();
 8000b3e:	6b59      	ldr	r1, [r3, #52]	@ 0x34
  __HAL_RCC_GPIOB_CLK_ENABLE();
 8000b40:	2702      	movs	r7, #2
  __HAL_RCC_GPIOC_CLK_ENABLE();
 8000b42:	4311      	orrs	r1, r2
 8000b44:	6359      	str	r1, [r3, #52]	@ 0x34
 8000b46:	6b59      	ldr	r1, [r3, #52]	@ 0x34
  GPIO_InitStruct.Pull = GPIO_NOPULL;
 8000b48:	2400      	movs	r4, #0
  __HAL_RCC_GPIOC_CLK_ENABLE();
 8000b4a:	400a      	ands	r2, r1
 8000b4c:	9200      	str	r2, [sp, #0]
 8000b4e:	9a00      	ldr	r2, [sp, #0]
  __HAL_RCC_GPIOF_CLK_ENABLE();
 8000b50:	2220      	movs	r2, #32
 8000b52:	6b59      	ldr	r1, [r3, #52]	@ 0x34
  HAL_GPIO_Init(SW_OUT_GPIO_Port, &GPIO_InitStruct);
 8000b54:	26a0      	movs	r6, #160	@ 0xa0
  __HAL_RCC_GPIOF_CLK_ENABLE();
 8000b56:	4311      	orrs	r1, r2
 8000b58:	6359      	str	r1, [r3, #52]	@ 0x34
 8000b5a:	6b59      	ldr	r1, [r3, #52]	@ 0x34
  HAL_GPIO_Init(SW_OUT_GPIO_Port, &GPIO_InitStruct);
 8000b5c:	05f6      	lsls	r6, r6, #23
  __HAL_RCC_GPIOF_CLK_ENABLE();
 8000b5e:	400a      	ands	r2, r1
 8000b60:	9201      	str	r2, [sp, #4]
 8000b62:	9a01      	ldr	r2, [sp, #4]
  __HAL_RCC_GPIOA_CLK_ENABLE();
 8000b64:	6b5a      	ldr	r2, [r3, #52]	@ 0x34
  HAL_GPIO_WritePin(LD3_GPIO_Port, LD3_Pin, GPIO_PIN_RESET);
 8000b66:	2140      	movs	r1, #64	@ 0x40
  __HAL_RCC_GPIOA_CLK_ENABLE();
 8000b68:	432a      	orrs	r2, r5
 8000b6a:	635a      	str	r2, [r3, #52]	@ 0x34
 8000b6c:	6b5a      	ldr	r2, [r3, #52]	@ 0x34
 8000b6e:	402a      	ands	r2, r5
 8000b70:	9202      	str	r2, [sp, #8]
 8000b72:	9a02      	ldr	r2, [sp, #8]
  __HAL_RCC_GPIOB_CLK_ENABLE();
 8000b74:	6b5a      	ldr	r2, [r3, #52]	@ 0x34
 8000b76:	433a      	orrs	r2, r7
 8000b78:	635a      	str	r2, [r3, #52]	@ 0x34
 8000b7a:	6b5b      	ldr	r3, [r3, #52]	@ 0x34
  HAL_GPIO_WritePin(LD3_GPIO_Port, LD3_Pin, GPIO_PIN_RESET);
 8000b7c:	2200      	movs	r2, #0
  __HAL_RCC_GPIOB_CLK_ENABLE();
 8000b7e:	403b      	ands	r3, r7
 8000b80:	9303      	str	r3, [sp, #12]
 8000b82:	9b03      	ldr	r3, [sp, #12]
  HAL_GPIO_WritePin(LD3_GPIO_Port, LD3_Pin, GPIO_PIN_RESET);
 8000b84:	4b32      	ldr	r3, [pc, #200]	@ (8000c50 <MX_GPIO_Init+0x12c>)
 8000b86:	0018      	movs	r0, r3
 8000b88:	4699      	mov	r9, r3
 8000b8a:	f002 fc1d 	bl	80033c8 <HAL_GPIO_WritePin>
  GPIO_InitStruct.Pin = T_NRST_Pin;
 8000b8e:	2388      	movs	r3, #136	@ 0x88
 8000b90:	2204      	movs	r2, #4
 8000b92:	035b      	lsls	r3, r3, #13
  HAL_GPIO_Init(T_NRST_GPIO_Port, &GPIO_InitStruct);
 8000b94:	a904      	add	r1, sp, #16
 8000b96:	482f      	ldr	r0, [pc, #188]	@ (8000c54 <MX_GPIO_Init+0x130>)
  GPIO_InitStruct.Pin = T_NRST_Pin;
 8000b98:	9204      	str	r2, [sp, #16]
 8000b9a:	9305      	str	r3, [sp, #20]
  GPIO_InitStruct.Pull = GPIO_NOPULL;
 8000b9c:	9406      	str	r4, [sp, #24]
  HAL_GPIO_Init(T_NRST_GPIO_Port, &GPIO_InitStruct);
 8000b9e:	f002 fb1b 	bl	80031d8 <HAL_GPIO_Init>
  GPIO_InitStruct.Pin = SW_OUT_Pin;
 8000ba2:	2380      	movs	r3, #128	@ 0x80
  HAL_GPIO_Init(SW_OUT_GPIO_Port, &GPIO_InitStruct);
 8000ba4:	0030      	movs	r0, r6
  GPIO_InitStruct.Pin = SW_OUT_Pin;
 8000ba6:	009b      	lsls	r3, r3, #2
  HAL_GPIO_Init(SW_OUT_GPIO_Port, &GPIO_InitStruct);
 8000ba8:	a904      	add	r1, sp, #16
  GPIO_InitStruct.Pin = SW_OUT_Pin;
 8000baa:	9304      	str	r3, [sp, #16]
  GPIO_InitStruct.Mode = GPIO_MODE_OUTPUT_PP;
 8000bac:	9505      	str	r5, [sp, #20]
  GPIO_InitStruct.Pull = GPIO_NOPULL;
 8000bae:	9406      	str	r4, [sp, #24]
  GPIO_InitStruct.Speed = GPIO_SPEED_FREQ_LOW;
 8000bb0:	9407      	str	r4, [sp, #28]
  HAL_GPIO_Init(SW_OUT_GPIO_Port, &GPIO_InitStruct);
 8000bb2:	f002 fb11 	bl	80031d8 <HAL_GPIO_Init>
  GPIO_InitStruct.Pin = LD3_Pin;
 8000bb6:	2340      	movs	r3, #64	@ 0x40
  HAL_GPIO_Init(LD3_GPIO_Port, &GPIO_InitStruct);
 8000bb8:	4648      	mov	r0, r9
 8000bba:	a904      	add	r1, sp, #16
  GPIO_InitStruct.Pin = LD3_Pin;
 8000bbc:	4698      	mov	r8, r3
 8000bbe:	9304      	str	r3, [sp, #16]
  GPIO_InitStruct.Mode = GPIO_MODE_OUTPUT_PP;
 8000bc0:	9505      	str	r5, [sp, #20]
  GPIO_InitStruct.Pull = GPIO_NOPULL;
 8000bc2:	9406      	str	r4, [sp, #24]
  GPIO_InitStruct.Speed = GPIO_SPEED_FREQ_LOW;
 8000bc4:	9407      	str	r4, [sp, #28]
  HAL_GPIO_Init(LD3_GPIO_Port, &GPIO_InitStruct);
 8000bc6:	f002 fb07 	bl	80031d8 <HAL_GPIO_Init>
  GPIO_InitStruct.Pin = SW_IN_Pin;
 8000bca:	2280      	movs	r2, #128	@ 0x80
 8000bcc:	2300      	movs	r3, #0
 8000bce:	00d2      	lsls	r2, r2, #3
  HAL_GPIO_Init(SW_IN_GPIO_Port, &GPIO_InitStruct);
 8000bd0:	0030      	movs	r0, r6
 8000bd2:	a904      	add	r1, sp, #16
  GPIO_InitStruct.Pin = SW_IN_Pin;
 8000bd4:	9204      	str	r2, [sp, #16]
 8000bd6:	9305      	str	r3, [sp, #20]
  GPIO_InitStruct.Pull = GPIO_PULLUP;
 8000bd8:	9506      	str	r5, [sp, #24]
  HAL_GPIO_Init(SW_IN_GPIO_Port, &GPIO_InitStruct);
 8000bda:	f002 fafd 	bl	80031d8 <HAL_GPIO_Init>
  GPIO_InitStruct.Pin = MONITOR_Pin;
 8000bde:	4643      	mov	r3, r8
 8000be0:	9304      	str	r3, [sp, #16]
  HAL_GPIO_Init(MONITOR_GPIO_Port, &GPIO_InitStruct);
 8000be2:	4b1d      	ldr	r3, [pc, #116]	@ (8000c58 <MX_GPIO_Init+0x134>)
 8000be4:	a904      	add	r1, sp, #16
 8000be6:	0018      	movs	r0, r3
 8000be8:	4699      	mov	r9, r3
  GPIO_InitStruct.Mode = GPIO_MODE_OUTPUT_PP;
 8000bea:	9505      	str	r5, [sp, #20]
  GPIO_InitStruct.Pull = GPIO_NOPULL;
 8000bec:	9406      	str	r4, [sp, #24]
  GPIO_InitStruct.Speed = GPIO_SPEED_FREQ_LOW;
 8000bee:	9407      	str	r4, [sp, #28]
  HAL_GPIO_Init(MONITOR_GPIO_Port, &GPIO_InitStruct);
 8000bf0:	f002 faf2 	bl	80031d8 <HAL_GPIO_Init>
  GPIO_InitStruct.Pin = CLK_IN_Pin;
 8000bf4:	2380      	movs	r3, #128	@ 0x80
 8000bf6:	4698      	mov	r8, r3
 8000bf8:	9304      	str	r3, [sp, #16]
  GPIO_InitStruct.Mode = GPIO_MODE_IT_RISING_FALLING;
 8000bfa:	23c4      	movs	r3, #196	@ 0xc4
  HAL_GPIO_Init(MONITOR_GPIO_Port, &GPIO_InitStruct);
 8000bfc:	4648      	mov	r0, r9
  GPIO_InitStruct.Mode = GPIO_MODE_IT_RISING_FALLING;
 8000bfe:	039b      	lsls	r3, r3, #14
  HAL_GPIO_Init(MONITOR_GPIO_Port, &GPIO_InitStruct);
 8000c00:	a904      	add	r1, sp, #16
  GPIO_InitStruct.Mode = GPIO_MODE_IT_RISING_FALLING;
 8000c02:	9305      	str	r3, [sp, #20]
  GPIO_InitStruct.Pull = GPIO_PULLDOWN; //seems to improve stuff for CLK IN??
 8000c04:	9706      	str	r7, [sp, #24]
  GPIO_InitStruct.Speed = GPIO_SPEED_FREQ_LOW;
 8000c06:	9407      	str	r4, [sp, #28]
  HAL_GPIO_Init(MONITOR_GPIO_Port, &GPIO_InitStruct);
 8000c08:	f002 fae6 	bl	80031d8 <HAL_GPIO_Init>
  GPIO_InitStruct.Pin = HACK_POT_HIGH_Pin;
 8000c0c:	2380      	movs	r3, #128	@ 0x80
  HAL_GPIO_Init(HACK_POT_HIGH_GPIO_Port, &GPIO_InitStruct);
 8000c0e:	0030      	movs	r0, r6
  GPIO_InitStruct.Pin = HACK_POT_HIGH_Pin;
 8000c10:	015b      	lsls	r3, r3, #5
  HAL_GPIO_Init(HACK_POT_HIGH_GPIO_Port, &GPIO_InitStruct);
 8000c12:	a904      	add	r1, sp, #16
  GPIO_InitStruct.Pin = HACK_POT_HIGH_Pin;
 8000c14:	9304      	str	r3, [sp, #16]
  GPIO_InitStruct.Mode = GPIO_MODE_OUTPUT_PP;
 8000c16:	9505      	str	r5, [sp, #20]
  GPIO_InitStruct.Pull = GPIO_NOPULL;
 8000c18:	9406      	str	r4, [sp, #24]
  GPIO_InitStruct.Speed = GPIO_SPEED_FREQ_LOW;
 8000c1a:	9407      	str	r4, [sp, #28]
  HAL_GPIO_Init(HACK_POT_HIGH_GPIO_Port, &GPIO_InitStruct);
 8000c1c:	f002 fadc 	bl	80031d8 <HAL_GPIO_Init>
  GPIO_InitStruct.Pin = HACK_POT_LOW_Pin;
 8000c20:	4643      	mov	r3, r8
  HAL_GPIO_Init(HACK_POT_LOW_GPIO_Port, &GPIO_InitStruct);
 8000c22:	0030      	movs	r0, r6
 8000c24:	a904      	add	r1, sp, #16
  GPIO_InitStruct.Pin = HACK_POT_LOW_Pin;
 8000c26:	9304      	str	r3, [sp, #16]
  GPIO_InitStruct.Mode = GPIO_MODE_OUTPUT_PP;
 8000c28:	9505      	str	r5, [sp, #20]
  GPIO_InitStruct.Pull = GPIO_NOPULL;
 8000c2a:	9406      	str	r4, [sp, #24]
  GPIO_InitStruct.Speed = GPIO_SPEED_FREQ_LOW;
 8000c2c:	9407      	str	r4, [sp, #28]
  HAL_GPIO_Init(HACK_POT_LOW_GPIO_Port, &GPIO_InitStruct);
 8000c2e:	f002 fad3 	bl	80031d8 <HAL_GPIO_Init>
  HAL_NVIC_SetPriority(EXTI4_15_IRQn, 2, 2);
 8000c32:	2202      	movs	r2, #2
 8000c34:	2102      	movs	r1, #2
 8000c36:	2007      	movs	r0, #7
 8000c38:	f002 f8bc 	bl	8002db4 <HAL_NVIC_SetPriority>
  HAL_NVIC_EnableIRQ(EXTI4_15_IRQn);
 8000c3c:	2007      	movs	r0, #7
 8000c3e:	f002 f8e3 	bl	8002e08 <HAL_NVIC_EnableIRQ>
}
 8000c42:	b00b      	add	sp, #44	@ 0x2c
 8000c44:	bcc0      	pop	{r6, r7}
 8000c46:	46b9      	mov	r9, r7
 8000c48:	46b0      	mov	r8, r6
 8000c4a:	bdf0      	pop	{r4, r5, r6, r7, pc}
 8000c4c:	40021000 	.word	0x40021000
 8000c50:	50000800 	.word	0x50000800
 8000c54:	50001400 	.word	0x50001400
 8000c58:	50000400 	.word	0x50000400

08000c5c <Error_Handler>:
 8000c5c:	b672      	cpsid	i
  while (1)
 8000c5e:	e7fe      	b.n	8000c5e <Error_Handler+0x2>

08000c60 <System_Init>:
  {

  }
}

void System_Init(void){
 8000c60:	b570      	push	{r4, r5, r6, lr}
 8000c62:	b082      	sub	sp, #8
	/* MCU Configuration--------------------------------------------------------*/

	/* Reset of all peripherals, Initializes the Flash interface and the Systick. */
	HAL_Init();
 8000c64:	f001 fb10 	bl	8002288 <HAL_Init>

	/* Configure the system clock */
	SystemClock_Config();
 8000c68:	f7ff fc68 	bl	800053c <SystemClock_Config>

	/* Initialize all configured peripherals */
	MX_GPIO_Init();
 8000c6c:	f7ff ff5a 	bl	8000b24 <MX_GPIO_Init>
  __HAL_RCC_DMA1_CLK_ENABLE();
 8000c70:	2301      	movs	r3, #1
 8000c72:	4a4c      	ldr	r2, [pc, #304]	@ (8000da4 <System_Init+0x144>)
  HAL_NVIC_SetPriority(DMA1_Channel1_IRQn, 0, 0);
 8000c74:	2009      	movs	r0, #9
  __HAL_RCC_DMA1_CLK_ENABLE();
 8000c76:	6b91      	ldr	r1, [r2, #56]	@ 0x38
 8000c78:	4319      	orrs	r1, r3
 8000c7a:	6391      	str	r1, [r2, #56]	@ 0x38
 8000c7c:	6b92      	ldr	r2, [r2, #56]	@ 0x38
  HAL_NVIC_SetPriority(DMA1_Channel1_IRQn, 0, 0);
 8000c7e:	2100      	movs	r1, #0
  __HAL_RCC_DMA1_CLK_ENABLE();
 8000c80:	4013      	ands	r3, r2
 8000c82:	9301      	str	r3, [sp, #4]
  HAL_NVIC_SetPriority(DMA1_Channel1_IRQn, 0, 0);
 8000c84:	2200      	movs	r2, #0
  __HAL_RCC_DMA1_CLK_ENABLE();
 8000c86:	9b01      	ldr	r3, [sp, #4]
  HAL_NVIC_SetPriority(DMA1_Channel1_IRQn, 0, 0);
 8000c88:	f002 f894 	bl	8002db4 <HAL_NVIC_SetPriority>
  HAL_NVIC_EnableIRQ(DMA1_Channel1_IRQn);
 8000c8c:	2009      	movs	r0, #9
 8000c8e:	f002 f8bb 	bl	8002e08 <HAL_NVIC_EnableIRQ>
  HAL_NVIC_SetPriority(DMA1_Channel2_3_IRQn, 2, 2);
 8000c92:	2202      	movs	r2, #2
 8000c94:	2102      	movs	r1, #2
 8000c96:	200a      	movs	r0, #10
 8000c98:	f002 f88c 	bl	8002db4 <HAL_NVIC_SetPriority>
  HAL_NVIC_EnableIRQ(DMA1_Channel2_3_IRQn);
 8000c9c:	200a      	movs	r0, #10
 8000c9e:	f002 f8b3 	bl	8002e08 <HAL_NVIC_EnableIRQ>
  huart2.Instance = USART2;
 8000ca2:	4c41      	ldr	r4, [pc, #260]	@ (8000da8 <System_Init+0x148>)
 8000ca4:	4b41      	ldr	r3, [pc, #260]	@ (8000dac <System_Init+0x14c>)
  huart2.Init.Mode = UART_MODE_TX_RX;
 8000ca6:	220c      	movs	r2, #12
  huart2.Instance = USART2;
 8000ca8:	6023      	str	r3, [r4, #0]
  huart2.Init.BaudRate = 31250;
 8000caa:	4b41      	ldr	r3, [pc, #260]	@ (8000db0 <System_Init+0x150>)
  if (HAL_UART_Init(&huart2) != HAL_OK)
 8000cac:	0020      	movs	r0, r4
  huart2.Init.BaudRate = 31250;
 8000cae:	6063      	str	r3, [r4, #4]
  huart2.Init.WordLength = UART_WORDLENGTH_8B;
 8000cb0:	2300      	movs	r3, #0
  huart2.Init.Mode = UART_MODE_TX_RX;
 8000cb2:	6162      	str	r2, [r4, #20]
  huart2.Init.WordLength = UART_WORDLENGTH_8B;
 8000cb4:	60a3      	str	r3, [r4, #8]
  huart2.Init.StopBits = UART_STOPBITS_1;
 8000cb6:	60e3      	str	r3, [r4, #12]
  huart2.Init.Parity = UART_PARITY_NONE;
 8000cb8:	6123      	str	r3, [r4, #16]
  huart2.Init.HwFlowCtl = UART_HWCONTROL_NONE;
 8000cba:	61a3      	str	r3, [r4, #24]
  huart2.Init.OverSampling = UART_OVERSAMPLING_16;
 8000cbc:	61e3      	str	r3, [r4, #28]
  huart2.Init.OneBitSampling = UART_ONE_BIT_SAMPLE_DISABLE;
 8000cbe:	6223      	str	r3, [r4, #32]
  huart2.Init.ClockPrescaler = UART_PRESCALER_DIV1;
 8000cc0:	6263      	str	r3, [r4, #36]	@ 0x24
  huart2.AdvancedInit.AdvFeatureInit = UART_ADVFEATURE_NO_INIT;
 8000cc2:	62a3      	str	r3, [r4, #40]	@ 0x28
  if (HAL_UART_Init(&huart2) != HAL_OK)
 8000cc4:	f005 fc84 	bl	80065d0 <HAL_UART_Init>
 8000cc8:	1e05      	subs	r5, r0, #0
 8000cca:	d001      	beq.n	8000cd0 <System_Init+0x70>
 8000ccc:	b672      	cpsid	i
  while (1)
 8000cce:	e7fe      	b.n	8000cce <System_Init+0x6e>
	MX_DMA_Init();
	MX_USART2_UART_Init();
	MX_ADC1_Init();
 8000cd0:	f7ff fc74 	bl	80005bc <MX_ADC1_Init>
	MX_TIM16_Init(); //Frequency Gen.
 8000cd4:	f7ff fcec 	bl	80006b0 <MX_TIM16_Init>
	MX_TIM2_Init(); //I/P Capture Measurement is TIM2_ch1
 8000cd8:	f7ff fd42 	bl	8000760 <MX_TIM2_Init>
	MX_TIM3_Init(); //I/P Capture Measurement Re-Elapse is TIM3_ch1
 8000cdc:	f7ff fd9c 	bl	8000818 <MX_TIM3_Init>
	MX_TIM1_Init(); //PWM Gen. Main/Secondary Oscillator on ch2/ch4
 8000ce0:	f7ff fdfa 	bl	80008d8 <MX_TIM1_Init>
	MX_TIM17_Init();
 8000ce4:	f7ff fe8c 	bl	8000a00 <MX_TIM17_Init>
	MX_TIM14_Init();
 8000ce8:	f7ff fee4 	bl	8000ab4 <MX_TIM14_Init>
  hlptim1.Instance = LPTIM1;
 8000cec:	4e31      	ldr	r6, [pc, #196]	@ (8000db4 <System_Init+0x154>)
 8000cee:	4b32      	ldr	r3, [pc, #200]	@ (8000db8 <System_Init+0x158>)
  hlptim1.Init.OutputPolarity = LPTIM_OUTPUTPOLARITY_HIGH;
 8000cf0:	2200      	movs	r2, #0
  hlptim1.Instance = LPTIM1;
 8000cf2:	6033      	str	r3, [r6, #0]
  hlptim1.Init.Clock.Prescaler = LPTIM_PRESCALER_DIV128;
 8000cf4:	23e0      	movs	r3, #224	@ 0xe0
 8000cf6:	011b      	lsls	r3, r3, #4
 8000cf8:	60b3      	str	r3, [r6, #8]
  hlptim1.Init.Trigger.Source = LPTIM_TRIGSOURCE_SOFTWARE;
 8000cfa:	4b30      	ldr	r3, [pc, #192]	@ (8000dbc <System_Init+0x15c>)
  if (HAL_LPTIM_Init(&hlptim1) != HAL_OK)
 8000cfc:	0030      	movs	r0, r6
  hlptim1.Init.Trigger.Source = LPTIM_TRIGSOURCE_SOFTWARE;
 8000cfe:	6173      	str	r3, [r6, #20]
  hlptim1.Init.OutputPolarity = LPTIM_OUTPUTPOLARITY_HIGH;
 8000d00:	2380      	movs	r3, #128	@ 0x80
 8000d02:	03db      	lsls	r3, r3, #15
 8000d04:	6232      	str	r2, [r6, #32]
 8000d06:	6273      	str	r3, [r6, #36]	@ 0x24
 8000d08:	2200      	movs	r2, #0
 8000d0a:	2300      	movs	r3, #0
  hlptim1.Init.Clock.Source = LPTIM_CLOCKSOURCE_APBCLOCK_LPOSC;
 8000d0c:	6075      	str	r5, [r6, #4]
  hlptim1.Init.OutputPolarity = LPTIM_OUTPUTPOLARITY_HIGH;
 8000d0e:	62b2      	str	r2, [r6, #40]	@ 0x28
 8000d10:	62f3      	str	r3, [r6, #44]	@ 0x2c
  hlptim1.Init.Input2Source = LPTIM_INPUT2SOURCE_GPIO;
 8000d12:	6335      	str	r5, [r6, #48]	@ 0x30
  if (HAL_LPTIM_Init(&hlptim1) != HAL_OK)
 8000d14:	f002 fb86 	bl	8003424 <HAL_LPTIM_Init>
 8000d18:	2800      	cmp	r0, #0
 8000d1a:	d001      	beq.n	8000d20 <System_Init+0xc0>
 8000d1c:	b672      	cpsid	i
  while (1)
 8000d1e:	e7fe      	b.n	8000d1e <System_Init+0xbe>
  HAL_NVIC_SetPriority(LPTIM1_IRQn, 2, 2);
 8000d20:	2202      	movs	r2, #2
 8000d22:	2102      	movs	r1, #2
 8000d24:	2011      	movs	r0, #17
 8000d26:	f002 f845 	bl	8002db4 <HAL_NVIC_SetPriority>
  HAL_NVIC_EnableIRQ(LPTIM1_IRQn);
 8000d2a:	2011      	movs	r0, #17
 8000d2c:	f002 f86c 	bl	8002e08 <HAL_NVIC_EnableIRQ>
	//MX_IWDG_Init(); fucks up stuff - to be config'd
	MX_LPTIM1_Init(); //Tap Tempo checking/debouncing timer

	//Calibrate ADC - DO NOT MOVE TO BEFORE OTHER CONFIG ABOVE
	HAL_ADCEx_Calibration_Start(&hadc1);
 8000d30:	4d23      	ldr	r5, [pc, #140]	@ (8000dc0 <System_Init+0x160>)
 8000d32:	0028      	movs	r0, r5
 8000d34:	f001 ff6a 	bl	8002c0c <HAL_ADCEx_Calibration_Start>

	//Set custom callback function for TIM16 (freq. gen.) to the callback function in TIMx_callback.c for TIM16.
	//I believe the correct CallbackID is HAL_TIM_OC_DELAY_ELAPSED_CB_ID, but if this doesn't work maybe
	//HAL_TIM_PERIOD_ELAPSED_CB_ID will work. This should be basically the same because we've set up TIM16
	//in Output Compare mode, where the ARR and CRR are the same.
	HAL_TIM_RegisterCallback(&htim16, HAL_TIM_PERIOD_ELAPSED_CB_ID, &TIM16_callback);
 8000d38:	210e      	movs	r1, #14
 8000d3a:	4a22      	ldr	r2, [pc, #136]	@ (8000dc4 <System_Init+0x164>)
 8000d3c:	4822      	ldr	r0, [pc, #136]	@ (8000dc8 <System_Init+0x168>)
 8000d3e:	f004 fdc1 	bl	80058c4 <HAL_TIM_RegisterCallback>

	//Set custom callback function for ADC (DMA) conversion complete.
	HAL_ADC_RegisterCallback(&hadc1, HAL_ADC_CONVERSION_COMPLETE_CB_ID, &ADC_DMA_conversion_complete_callback);
 8000d42:	2100      	movs	r1, #0
 8000d44:	0028      	movs	r0, r5
 8000d46:	4a21      	ldr	r2, [pc, #132]	@ (8000dcc <System_Init+0x16c>)
 8000d48:	f001 fc62 	bl	8002610 <HAL_ADC_RegisterCallback>

	//Set custom callback function for I/P capture input falling edge event
	HAL_TIM_RegisterCallback(&htim2, HAL_TIM_IC_CAPTURE_CB_ID, &TIM2_ch1_IP_capture_callback);
 8000d4c:	4d20      	ldr	r5, [pc, #128]	@ (8000dd0 <System_Init+0x170>)
 8000d4e:	2112      	movs	r1, #18
 8000d50:	0028      	movs	r0, r5
 8000d52:	4a20      	ldr	r2, [pc, #128]	@ (8000dd4 <System_Init+0x174>)
 8000d54:	f004 fdb6 	bl	80058c4 <HAL_TIM_RegisterCallback>

	//Set custom callback function for I/P capture timer overflow (Update event/overflow)
	HAL_TIM_RegisterCallback(&htim2, HAL_TIM_PERIOD_ELAPSED_CB_ID, &TIM2_ch1_overflow_callback);
 8000d58:	210e      	movs	r1, #14
 8000d5a:	0028      	movs	r0, r5
 8000d5c:	4a1e      	ldr	r2, [pc, #120]	@ (8000dd8 <System_Init+0x178>)
 8000d5e:	f004 fdb1 	bl	80058c4 <HAL_TIM_RegisterCallback>

	//Set custom callback function for TIM3_ch1 (Measurement Re-Elapse) (CCR match)
	HAL_TIM_RegisterCallback(&htim3, HAL_TIM_OC_DELAY_ELAPSED_CB_ID, &TIM3_ch1_IP_capture_measurement_reelapse_callback);
 8000d62:	2114      	movs	r1, #20
 8000d64:	4a1d      	ldr	r2, [pc, #116]	@ (8000ddc <System_Init+0x17c>)
 8000d66:	481e      	ldr	r0, [pc, #120]	@ (8000de0 <System_Init+0x180>)
 8000d68:	f004 fdac 	bl	80058c4 <HAL_TIM_RegisterCallback>

	//Set custom callback function for DMA TX Transfer Complete
	HAL_UART_RegisterCallback(&huart2, HAL_UART_TX_COMPLETE_CB_ID, &UART2_TX_transfer_complete_callback);
 8000d6c:	2101      	movs	r1, #1
 8000d6e:	0020      	movs	r0, r4
 8000d70:	4a1c      	ldr	r2, [pc, #112]	@ (8000de4 <System_Init+0x184>)
 8000d72:	f004 ffb7 	bl	8005ce4 <HAL_UART_RegisterCallback>

	//Set custom callback function for DMA RX Transfer Complete
	HAL_UART_RegisterCallback(&huart2, HAL_UART_RX_COMPLETE_CB_ID, &UART2_RX_transfer_complete_callback);
 8000d76:	2103      	movs	r1, #3
 8000d78:	0020      	movs	r0, r4
 8000d7a:	4a1b      	ldr	r2, [pc, #108]	@ (8000de8 <System_Init+0x188>)
 8000d7c:	f004 ffb2 	bl	8005ce4 <HAL_UART_RegisterCallback>

	//Set custom callback for LPTIM1 (Tap Tempo SW state check)
	HAL_LPTIM_RegisterCallback(&hlptim1, HAL_LPTIM_COMPARE_MATCH_CB_ID, &LPTIM1_callback);
 8000d80:	2102      	movs	r1, #2
 8000d82:	0030      	movs	r0, r6
 8000d84:	4a19      	ldr	r2, [pc, #100]	@ (8000dec <System_Init+0x18c>)
 8000d86:	f002 fc2d 	bl	80035e4 <HAL_LPTIM_RegisterCallback>

	//Set custom callback function for TIM17
	HAL_TIM_RegisterCallback(&htim17, HAL_TIM_OC_DELAY_ELAPSED_CB_ID, &TIM17_callback);
 8000d8a:	2114      	movs	r1, #20
 8000d8c:	4a18      	ldr	r2, [pc, #96]	@ (8000df0 <System_Init+0x190>)
 8000d8e:	4819      	ldr	r0, [pc, #100]	@ (8000df4 <System_Init+0x194>)
 8000d90:	f004 fd98 	bl	80058c4 <HAL_TIM_RegisterCallback>

	//Set custom callback function for TIM14
	HAL_TIM_RegisterCallback(&htim14, HAL_TIM_OC_DELAY_ELAPSED_CB_ID, &TIM14_callback);
 8000d94:	2114      	movs	r1, #20
 8000d96:	4a18      	ldr	r2, [pc, #96]	@ (8000df8 <System_Init+0x198>)
 8000d98:	4818      	ldr	r0, [pc, #96]	@ (8000dfc <System_Init+0x19c>)
 8000d9a:	f004 fd93 	bl	80058c4 <HAL_TIM_RegisterCallback>
}
 8000d9e:	b002      	add	sp, #8
 8000da0:	bd70      	pop	{r4, r5, r6, pc}
 8000da2:	46c0      	nop			@ (mov r8, r8)
 8000da4:	40021000 	.word	0x40021000
 8000da8:	2000055c 	.word	0x2000055c
 8000dac:	40004400 	.word	0x40004400
 8000db0:	00007a12 	.word	0x00007a12
 8000db4:	20000448 	.word	0x20000448
 8000db8:	40007c00 	.word	0x40007c00
 8000dbc:	0000ffff 	.word	0x0000ffff
 8000dc0:	20000aec 	.word	0x20000aec
 8000dc4:	08000e01 	.word	0x08000e01
 8000dc8:	2000085c 	.word	0x2000085c
 8000dcc:	08000e3d 	.word	0x08000e3d
 8000dd0:	200007a0 	.word	0x200007a0
 8000dd4:	08000ea5 	.word	0x08000ea5
 8000dd8:	08000f41 	.word	0x08000f41
 8000ddc:	08000fd9 	.word	0x08000fd9
 8000de0:	200006e4 	.word	0x200006e4
 8000de4:	08001075 	.word	0x08001075
 8000de8:	08001079 	.word	0x08001079
 8000dec:	08001235 	.word	0x08001235
 8000df0:	080013a5 	.word	0x080013a5
 8000df4:	20000918 	.word	0x20000918
 8000df8:	080013a9 	.word	0x080013a9
 8000dfc:	200009d4 	.word	0x200009d4

08000e00 <TIM16_callback>:
#include "custom_callbacks.h"

void TIM16_callback(TIM_HandleTypeDef *htim)
{
 8000e00:	b510      	push	{r4, lr}
	//HAL_GPIO_WritePin(MONITOR_GPIO_Port, MONITOR_Pin, 1);

	Set_Oscillator_Values(&params);
 8000e02:	4c09      	ldr	r4, [pc, #36]	@ (8000e28 <TIM16_callback+0x28>)
 8000e04:	0020      	movs	r0, r4
 8000e06:	f000 fbeb 	bl	80015e0 <Set_Oscillator_Values>
	Calculate_Next_Main_Oscillator_Values(&params, (enum Next_Values_Processing_Mode)REGULAR_MODE);
 8000e0a:	2100      	movs	r1, #0
 8000e0c:	0020      	movs	r0, r4
 8000e0e:	f000 fbff 	bl	8001610 <Calculate_Next_Main_Oscillator_Values>
	Write_Next_Main_Oscillator_Values_to_Delay_Line(&params, &delay_line);
 8000e12:	0020      	movs	r0, r4
 8000e14:	4905      	ldr	r1, [pc, #20]	@ (8000e2c <TIM16_callback+0x2c>)
 8000e16:	f000 fc89 	bl	800172c <Write_Next_Main_Oscillator_Values_to_Delay_Line>
	HAL_ADC_Start_DMA(&hadc1, (uint32_t*)ADCResultsDMA, (uint32_t)num_ADC_conversions); //this function takes ages to execute!
 8000e1a:	4b05      	ldr	r3, [pc, #20]	@ (8000e30 <TIM16_callback+0x30>)
 8000e1c:	4905      	ldr	r1, [pc, #20]	@ (8000e34 <TIM16_callback+0x34>)
 8000e1e:	781a      	ldrb	r2, [r3, #0]
 8000e20:	4805      	ldr	r0, [pc, #20]	@ (8000e38 <TIM16_callback+0x38>)
 8000e22:	f001 fe0f 	bl	8002a44 <HAL_ADC_Start_DMA>

	//HAL_GPIO_WritePin(MONITOR_GPIO_Port, MONITOR_Pin, 0);
}
 8000e26:	bd10      	pop	{r4, pc}
 8000e28:	20000bd0 	.word	0x20000bd0
 8000e2c:	20000004 	.word	0x20000004
 8000e30:	08006984 	.word	0x08006984
 8000e34:	20000bf4 	.word	0x20000bf4
 8000e38:	20000aec 	.word	0x20000aec

08000e3c <ADC_DMA_conversion_complete_callback>:

void ADC_DMA_conversion_complete_callback(ADC_HandleTypeDef *hadc)
{
 8000e3c:	b570      	push	{r4, r5, r6, lr}
	//HAL_GPIO_WritePin(MONITOR_GPIO_Port, MONITOR_Pin, 1);

	HAL_ADC_Stop_DMA(hadc); //disable ADC DMA
 8000e3e:	f001 fe9f 	bl	8002b80 <HAL_ADC_Stop_DMA>
	Process_ADC_Conversion_Values(&params, &delay_line, ADCResultsDMA);
 8000e42:	4c13      	ldr	r4, [pc, #76]	@ (8000e90 <ADC_DMA_conversion_complete_callback+0x54>)
 8000e44:	4913      	ldr	r1, [pc, #76]	@ (8000e94 <ADC_DMA_conversion_complete_callback+0x58>)
 8000e46:	0020      	movs	r0, r4
 8000e48:	4a13      	ldr	r2, [pc, #76]	@ (8000e98 <ADC_DMA_conversion_complete_callback+0x5c>)
 8000e4a:	f000 fccb 	bl	80017e4 <Process_ADC_Conversion_Values>

	enum Validate first_sync_complete = Get_Status_Bit(&statuses, First_Sync_Complete);
 8000e4e:	4d13      	ldr	r5, [pc, #76]	@ (8000e9c <ADC_DMA_conversion_complete_callback+0x60>)
 8000e50:	2108      	movs	r1, #8
 8000e52:	0028      	movs	r0, r5
 8000e54:	f001 f9ba 	bl	80021cc <Get_Status_Bit>

	if(first_sync_complete == YES){
 8000e58:	2801      	cmp	r0, #1
 8000e5a:	d110      	bne.n	8000e7e <ADC_DMA_conversion_complete_callback+0x42>

		params.raw_start_value = params_working.raw_start_value;
 8000e5c:	4a10      	ldr	r2, [pc, #64]	@ (8000ea0 <ADC_DMA_conversion_complete_callback+0x64>)
 8000e5e:	8a53      	ldrh	r3, [r2, #18]
 8000e60:	b29b      	uxth	r3, r3
 8000e62:	8263      	strh	r3, [r4, #18]
		params.raw_prescaler = params_working.raw_prescaler;
 8000e64:	8b53      	ldrh	r3, [r2, #26]
 8000e66:	b29b      	uxth	r3, r3
 8000e68:	8363      	strh	r3, [r4, #26]
	else{

		Process_TIM16_Raw_Start_Value_and_Raw_Prescaler(&params);
	}

	Process_TIM16_Final_Start_Value_and_Final_Prescaler(&params);
 8000e6a:	0020      	movs	r0, r4
 8000e6c:	f001 f824 	bl	8001eb8 <Process_TIM16_Final_Start_Value_and_Final_Prescaler>

	//after initial conversion is complete, set the conversion complete flag - leave this after raw/final value processing rather than actually when ADC values are converted for startup routine reasons.
	if(Get_Status_Bit(&statuses, Initial_ADC_Conversion_Complete) == NO){
 8000e70:	2110      	movs	r1, #16
 8000e72:	0028      	movs	r0, r5
 8000e74:	f001 f9aa 	bl	80021cc <Get_Status_Bit>
 8000e78:	2800      	cmp	r0, #0
 8000e7a:	d004      	beq.n	8000e86 <ADC_DMA_conversion_complete_callback+0x4a>
		Set_Status_Bit(&statuses, Initial_ADC_Conversion_Complete);
	}

	//HAL_GPIO_WritePin(MONITOR_GPIO_Port, MONITOR_Pin, 0);
}
 8000e7c:	bd70      	pop	{r4, r5, r6, pc}
		Process_TIM16_Raw_Start_Value_and_Raw_Prescaler(&params);
 8000e7e:	0020      	movs	r0, r4
 8000e80:	f000 fb96 	bl	80015b0 <Process_TIM16_Raw_Start_Value_and_Raw_Prescaler>
 8000e84:	e7f1      	b.n	8000e6a <ADC_DMA_conversion_complete_callback+0x2e>
		Set_Status_Bit(&statuses, Initial_ADC_Conversion_Complete);
 8000e86:	2110      	movs	r1, #16
 8000e88:	0028      	movs	r0, r5
 8000e8a:	f001 f9a5 	bl	80021d8 <Set_Status_Bit>
}
 8000e8e:	e7f5      	b.n	8000e7c <ADC_DMA_conversion_complete_callback+0x40>
 8000e90:	20000bd0 	.word	0x20000bd0
 8000e94:	20000004 	.word	0x20000004
 8000e98:	20000bf4 	.word	0x20000bf4
 8000e9c:	20000b84 	.word	0x20000b84
 8000ea0:	20000b88 	.word	0x20000b88

08000ea4 <TIM2_ch1_IP_capture_callback>:

void TIM2_ch1_IP_capture_callback(TIM_HandleTypeDef *htim){
 8000ea4:	b570      	push	{r4, r5, r6, lr}

	TIM2_ch1_input_capture_value = HAL_TIM_ReadCapturedValue(htim, TIM_CHANNEL_1);
 8000ea6:	2100      	movs	r1, #0
 8000ea8:	f004 fcf4 	bl	8005894 <HAL_TIM_ReadCapturedValue>
 8000eac:	4b1d      	ldr	r3, [pc, #116]	@ (8000f24 <TIM2_ch1_IP_capture_callback+0x80>)

	interrupt_period = TIM2_ch1_input_capture_value >> 9; //divided by 512
 8000eae:	4a1e      	ldr	r2, [pc, #120]	@ (8000f28 <TIM2_ch1_IP_capture_callback+0x84>)
	TIM2_ch1_input_capture_value = HAL_TIM_ReadCapturedValue(htim, TIM_CHANNEL_1);
 8000eb0:	6018      	str	r0, [r3, #0]
	interrupt_period = TIM2_ch1_input_capture_value >> 9; //divided by 512
 8000eb2:	681b      	ldr	r3, [r3, #0]

	//since the input capture measurement is z, and this is 512x the interrupt period, we just use the interrupt
	//period = z/512 as the 'elapse period value' if we also set the elapse timer prescaler to 512x less than the
	//input capture measurement timer

	if(IP_CAP_fsm.current_state == IDLE){
 8000eb4:	4c1d      	ldr	r4, [pc, #116]	@ (8000f2c <TIM2_ch1_IP_capture_callback+0x88>)
	interrupt_period = TIM2_ch1_input_capture_value >> 9; //divided by 512
 8000eb6:	0a5b      	lsrs	r3, r3, #9
 8000eb8:	b29b      	uxth	r3, r3
 8000eba:	8013      	strh	r3, [r2, #0]
	if(IP_CAP_fsm.current_state == IDLE){
 8000ebc:	7823      	ldrb	r3, [r4, #0]
 8000ebe:	b2dd      	uxtb	r5, r3
 8000ec0:	2b00      	cmp	r3, #0
 8000ec2:	d015      	beq.n	8000ef0 <TIM2_ch1_IP_capture_callback+0x4c>
		Begin_Input_Capture_Measurement();
		IP_CAP_fsm.current_state = MEASUREMENT_PENDING;
		IP_CAP_fsm.prev_state = IDLE;
	}

	else if(IP_CAP_fsm.current_state == MEASUREMENT_PENDING){ //second edge
 8000ec4:	7823      	ldrb	r3, [r4, #0]
 8000ec6:	b2dd      	uxtb	r5, r3
 8000ec8:	2b01      	cmp	r3, #1
 8000eca:	d008      	beq.n	8000ede <TIM2_ch1_IP_capture_callback+0x3a>
			IP_CAP_fsm.prev_state = MEASUREMENT_PENDING;
			speed_pot_adc_measurement_num = 0; //whenever goes into idle, reset speed_adc_measurement
		}
	}

	else if(IP_CAP_fsm.current_state == MEASUREMENT_REELAPSE){ //first edge
 8000ecc:	7823      	ldrb	r3, [r4, #0]
 8000ece:	b2dd      	uxtb	r5, r3
 8000ed0:	2b02      	cmp	r3, #2
 8000ed2:	d021      	beq.n	8000f18 <TIM2_ch1_IP_capture_callback+0x74>

		IP_CAP_fsm.current_state = MEASUREMENT_REELAPSE_AND_MEASUREMENT_PENDING;
		IP_CAP_fsm.prev_state = MEASUREMENT_REELAPSE;
	}

	else if(IP_CAP_fsm.current_state == MEASUREMENT_REELAPSE_AND_MEASUREMENT_PENDING){ //second edge
 8000ed4:	7823      	ldrb	r3, [r4, #0]
 8000ed6:	b2dd      	uxtb	r5, r3
 8000ed8:	2b03      	cmp	r3, #3
 8000eda:	d00f      	beq.n	8000efc <TIM2_ch1_IP_capture_callback+0x58>
		//BEGIN PROCESSING
		Set_Status_Bit(&statuses, Input_Capture_Processing_Can_Be_Started);
	}

	//HAL_GPIO_WritePin(MONITOR_GPIO_Port, MONITOR_Pin, 0);
}
 8000edc:	bd70      	pop	{r4, r5, r6, pc}
		if(interrupt_period >= HIGHEST_PRESCALER_TOP_SPEED_PERIOD){ //if the captured value/512 is >= than 129
 8000ede:	8813      	ldrh	r3, [r2, #0]
 8000ee0:	2b80      	cmp	r3, #128	@ 0x80
 8000ee2:	d80b      	bhi.n	8000efc <TIM2_ch1_IP_capture_callback+0x58>
			IP_CAP_fsm.current_state = IDLE;
 8000ee4:	2300      	movs	r3, #0
			speed_pot_adc_measurement_num = 0; //whenever goes into idle, reset speed_adc_measurement
 8000ee6:	4a12      	ldr	r2, [pc, #72]	@ (8000f30 <TIM2_ch1_IP_capture_callback+0x8c>)
			IP_CAP_fsm.current_state = IDLE;
 8000ee8:	7023      	strb	r3, [r4, #0]
			IP_CAP_fsm.prev_state = MEASUREMENT_PENDING;
 8000eea:	7065      	strb	r5, [r4, #1]
			speed_pot_adc_measurement_num = 0; //whenever goes into idle, reset speed_adc_measurement
 8000eec:	7013      	strb	r3, [r2, #0]
 8000eee:	e7f5      	b.n	8000edc <TIM2_ch1_IP_capture_callback+0x38>
		Begin_Input_Capture_Measurement();
 8000ef0:	f000 fad4 	bl	800149c <Begin_Input_Capture_Measurement>
		IP_CAP_fsm.current_state = MEASUREMENT_PENDING;
 8000ef4:	2301      	movs	r3, #1
 8000ef6:	7023      	strb	r3, [r4, #0]
		IP_CAP_fsm.prev_state = IDLE;
 8000ef8:	7065      	strb	r5, [r4, #1]
 8000efa:	e7ef      	b.n	8000edc <TIM2_ch1_IP_capture_callback+0x38>
		Start_Measurement_Reelapse_Timer();
 8000efc:	f000 fab6 	bl	800146c <Start_Measurement_Reelapse_Timer>
		IP_CAP_fsm.current_state = MEASUREMENT_REELAPSE;
 8000f00:	2302      	movs	r3, #2
		Copy_Params_Structs(&params, &params_to_be_loaded);
 8000f02:	490c      	ldr	r1, [pc, #48]	@ (8000f34 <TIM2_ch1_IP_capture_callback+0x90>)
		IP_CAP_fsm.current_state = MEASUREMENT_REELAPSE;
 8000f04:	7023      	strb	r3, [r4, #0]
		Copy_Params_Structs(&params, &params_to_be_loaded);
 8000f06:	480c      	ldr	r0, [pc, #48]	@ (8000f38 <TIM2_ch1_IP_capture_callback+0x94>)
		IP_CAP_fsm.prev_state = MEASUREMENT_REELAPSE_AND_MEASUREMENT_PENDING;
 8000f08:	7065      	strb	r5, [r4, #1]
		Copy_Params_Structs(&params, &params_to_be_loaded);
 8000f0a:	f000 faa5 	bl	8001458 <Copy_Params_Structs>
		Set_Status_Bit(&statuses, Input_Capture_Processing_Can_Be_Started);
 8000f0e:	2104      	movs	r1, #4
 8000f10:	480a      	ldr	r0, [pc, #40]	@ (8000f3c <TIM2_ch1_IP_capture_callback+0x98>)
 8000f12:	f001 f961 	bl	80021d8 <Set_Status_Bit>
}
 8000f16:	e7e1      	b.n	8000edc <TIM2_ch1_IP_capture_callback+0x38>
		Begin_Input_Capture_Measurement();
 8000f18:	f000 fac0 	bl	800149c <Begin_Input_Capture_Measurement>
		IP_CAP_fsm.current_state = MEASUREMENT_REELAPSE_AND_MEASUREMENT_PENDING;
 8000f1c:	2303      	movs	r3, #3
 8000f1e:	7023      	strb	r3, [r4, #0]
		IP_CAP_fsm.prev_state = MEASUREMENT_REELAPSE;
 8000f20:	7065      	strb	r5, [r4, #1]
 8000f22:	e7db      	b.n	8000edc <TIM2_ch1_IP_capture_callback+0x38>
 8000f24:	20000b7c 	.word	0x20000b7c
 8000f28:	20000b78 	.word	0x20000b78
 8000f2c:	2000040c 	.word	0x2000040c
 8000f30:	20000442 	.word	0x20000442
 8000f34:	20000bac 	.word	0x20000bac
 8000f38:	20000bd0 	.word	0x20000bd0
 8000f3c:	20000b84 	.word	0x20000b84

08000f40 <TIM2_ch1_overflow_callback>:


void TIM2_ch1_overflow_callback(TIM_HandleTypeDef *htim){

	if(IP_CAP_fsm.current_state == MEASUREMENT_PENDING){
 8000f40:	4a1f      	ldr	r2, [pc, #124]	@ (8000fc0 <TIM2_ch1_overflow_callback+0x80>)
void TIM2_ch1_overflow_callback(TIM_HandleTypeDef *htim){
 8000f42:	b510      	push	{r4, lr}
	if(IP_CAP_fsm.current_state == MEASUREMENT_PENDING){
 8000f44:	7813      	ldrb	r3, [r2, #0]
 8000f46:	b2d9      	uxtb	r1, r3
 8000f48:	2b01      	cmp	r3, #1
 8000f4a:	d014      	beq.n	8000f76 <TIM2_ch1_overflow_callback+0x36>

			HAL_GPIO_WritePin(SW_OUT_GPIO_Port, SW_OUT_Pin, 1);
			HAL_GPIO_WritePin(LD3_GPIO_Port, LD3_Pin, 0);
		}
	}
	else if((speed_fsm.current_state.speed_exclusive_state == MIDI_CLK_MODE) && (IP_CAP_fsm.current_state == IDLE)){
 8000f4c:	4b1d      	ldr	r3, [pc, #116]	@ (8000fc4 <TIM2_ch1_overflow_callback+0x84>)
 8000f4e:	781b      	ldrb	r3, [r3, #0]
 8000f50:	2b08      	cmp	r3, #8
 8000f52:	d000      	beq.n	8000f56 <TIM2_ch1_overflow_callback+0x16>

		HAL_GPIO_WritePin(SW_OUT_GPIO_Port, SW_OUT_Pin, 1);
		HAL_GPIO_WritePin(LD3_GPIO_Port, LD3_Pin, 0);
	}
}
 8000f54:	bd10      	pop	{r4, pc}
	else if((speed_fsm.current_state.speed_exclusive_state == MIDI_CLK_MODE) && (IP_CAP_fsm.current_state == IDLE)){
 8000f56:	7813      	ldrb	r3, [r2, #0]
 8000f58:	2b00      	cmp	r3, #0
 8000f5a:	d1fb      	bne.n	8000f54 <TIM2_ch1_overflow_callback+0x14>
		HAL_GPIO_WritePin(SW_OUT_GPIO_Port, SW_OUT_Pin, 1);
 8000f5c:	2180      	movs	r1, #128	@ 0x80
 8000f5e:	20a0      	movs	r0, #160	@ 0xa0
 8000f60:	2201      	movs	r2, #1
 8000f62:	0089      	lsls	r1, r1, #2
 8000f64:	05c0      	lsls	r0, r0, #23
 8000f66:	f002 fa2f 	bl	80033c8 <HAL_GPIO_WritePin>
		HAL_GPIO_WritePin(LD3_GPIO_Port, LD3_Pin, 0);
 8000f6a:	2200      	movs	r2, #0
 8000f6c:	2140      	movs	r1, #64	@ 0x40
 8000f6e:	4816      	ldr	r0, [pc, #88]	@ (8000fc8 <TIM2_ch1_overflow_callback+0x88>)
 8000f70:	f002 fa2a 	bl	80033c8 <HAL_GPIO_WritePin>
}
 8000f74:	e7ee      	b.n	8000f54 <TIM2_ch1_overflow_callback+0x14>
		IP_CAP_fsm.current_state = IDLE;
 8000f76:	2000      	movs	r0, #0
		speed_pot_adc_measurement_num = 0; //whenever goes into idle, reset speed_adc_measurement
 8000f78:	4b14      	ldr	r3, [pc, #80]	@ (8000fcc <TIM2_ch1_overflow_callback+0x8c>)
		IP_CAP_fsm.current_state = IDLE;
 8000f7a:	7010      	strb	r0, [r2, #0]
		IP_CAP_fsm.prev_state = MEASUREMENT_PENDING;
 8000f7c:	7051      	strb	r1, [r2, #1]
		speed_pot_adc_measurement_num = 0; //whenever goes into idle, reset speed_adc_measurement
 8000f7e:	7018      	strb	r0, [r3, #0]
		if((speed_fsm.current_state.speed_exclusive_state == TAP_PENDING_MODE) || (speed_fsm.current_state.speed_exclusive_state == CLK_IN_PENDING_MODE) || (speed_fsm.current_state.speed_exclusive_state == MIDI_CLK_PENDING_MODE)){
 8000f80:	4b10      	ldr	r3, [pc, #64]	@ (8000fc4 <TIM2_ch1_overflow_callback+0x84>)
 8000f82:	781a      	ldrb	r2, [r3, #0]
 8000f84:	2a05      	cmp	r2, #5
 8000f86:	d00d      	beq.n	8000fa4 <TIM2_ch1_overflow_callback+0x64>
 8000f88:	781a      	ldrb	r2, [r3, #0]
 8000f8a:	2a07      	cmp	r2, #7
 8000f8c:	d00a      	beq.n	8000fa4 <TIM2_ch1_overflow_callback+0x64>
 8000f8e:	781a      	ldrb	r2, [r3, #0]
 8000f90:	2a09      	cmp	r2, #9
 8000f92:	d007      	beq.n	8000fa4 <TIM2_ch1_overflow_callback+0x64>
		else if(speed_fsm.current_state.speed_exclusive_state == MIDI_CLK_MODE){
 8000f94:	781b      	ldrb	r3, [r3, #0]
 8000f96:	2b08      	cmp	r3, #8
 8000f98:	d1dc      	bne.n	8000f54 <TIM2_ch1_overflow_callback+0x14>
			MIDI_CLK_FSM_state = NOT_COMPILING;
 8000f9a:	4b0d      	ldr	r3, [pc, #52]	@ (8000fd0 <TIM2_ch1_overflow_callback+0x90>)
 8000f9c:	7018      	strb	r0, [r3, #0]
			MIDI_CLK_tag = 0;
 8000f9e:	4b0d      	ldr	r3, [pc, #52]	@ (8000fd4 <TIM2_ch1_overflow_callback+0x94>)
 8000fa0:	7018      	strb	r0, [r3, #0]
			HAL_GPIO_WritePin(SW_OUT_GPIO_Port, SW_OUT_Pin, 1);
 8000fa2:	e7db      	b.n	8000f5c <TIM2_ch1_overflow_callback+0x1c>
			if(speed_fsm.current_state.speed_exclusive_state == MIDI_CLK_PENDING_MODE){
 8000fa4:	781a      	ldrb	r2, [r3, #0]
 8000fa6:	2a09      	cmp	r2, #9
 8000fa8:	d004      	beq.n	8000fb4 <TIM2_ch1_overflow_callback+0x74>
			union Speed_FSM_States current_state = speed_fsm.current_state;
 8000faa:	781a      	ldrb	r2, [r3, #0]
			speed_fsm.current_state = speed_fsm.prev_state;
 8000fac:	7859      	ldrb	r1, [r3, #1]
 8000fae:	7019      	strb	r1, [r3, #0]
			speed_fsm.prev_state = current_state;
 8000fb0:	705a      	strb	r2, [r3, #1]
		if((speed_fsm.current_state.speed_exclusive_state == TAP_PENDING_MODE) || (speed_fsm.current_state.speed_exclusive_state == CLK_IN_PENDING_MODE) || (speed_fsm.current_state.speed_exclusive_state == MIDI_CLK_PENDING_MODE)){
 8000fb2:	e7cf      	b.n	8000f54 <TIM2_ch1_overflow_callback+0x14>
				MIDI_CLK_FSM_state = NOT_COMPILING;
 8000fb4:	2100      	movs	r1, #0
 8000fb6:	4a06      	ldr	r2, [pc, #24]	@ (8000fd0 <TIM2_ch1_overflow_callback+0x90>)
 8000fb8:	7011      	strb	r1, [r2, #0]
				MIDI_CLK_tag = 0;
 8000fba:	4a06      	ldr	r2, [pc, #24]	@ (8000fd4 <TIM2_ch1_overflow_callback+0x94>)
 8000fbc:	7011      	strb	r1, [r2, #0]
 8000fbe:	e7f4      	b.n	8000faa <TIM2_ch1_overflow_callback+0x6a>
 8000fc0:	2000040c 	.word	0x2000040c
 8000fc4:	20000410 	.word	0x20000410
 8000fc8:	50000800 	.word	0x50000800
 8000fcc:	20000442 	.word	0x20000442
 8000fd0:	20000bfe 	.word	0x20000bfe
 8000fd4:	20000b76 	.word	0x20000b76

08000fd8 <TIM3_ch1_IP_capture_measurement_reelapse_callback>:

void TIM3_ch1_IP_capture_measurement_reelapse_callback(TIM_HandleTypeDef *htim){
 8000fd8:	b570      	push	{r4, r5, r6, lr}

	//HAL_GPIO_WritePin(MONITOR_GPIO_Port, MONITOR_Pin, 1);

	// @TODO //WRITE CODE TO LOAD CORRECT DUTY DELAYED VALUE TO SECONDARY OSCILLATOR
	Set_Oscillator_Values(&params_to_be_loaded);
 8000fda:	4d1c      	ldr	r5, [pc, #112]	@ (800104c <TIM3_ch1_IP_capture_measurement_reelapse_callback+0x74>)
 8000fdc:	0028      	movs	r0, r5
 8000fde:	f000 faff 	bl	80015e0 <Set_Oscillator_Values>

	Stop_OC_TIM(&htim3, TIM_CHANNEL_1);
 8000fe2:	2100      	movs	r1, #0
 8000fe4:	481a      	ldr	r0, [pc, #104]	@ (8001050 <TIM3_ch1_IP_capture_measurement_reelapse_callback+0x78>)
 8000fe6:	f001 f8c3 	bl	8002170 <Stop_OC_TIM>

	if(IP_CAP_fsm.current_state == MEASUREMENT_REELAPSE){
 8000fea:	4b1a      	ldr	r3, [pc, #104]	@ (8001054 <TIM3_ch1_IP_capture_measurement_reelapse_callback+0x7c>)
 8000fec:	781a      	ldrb	r2, [r3, #0]
 8000fee:	b2d1      	uxtb	r1, r2
 8000ff0:	2a02      	cmp	r2, #2
 8000ff2:	d01f      	beq.n	8001034 <TIM3_ch1_IP_capture_measurement_reelapse_callback+0x5c>
		IP_CAP_fsm.current_state = IDLE;
		IP_CAP_fsm.prev_state = MEASUREMENT_REELAPSE;

		Advance_Pending_States();
	}
	else if(IP_CAP_fsm.current_state == MEASUREMENT_REELAPSE_AND_MEASUREMENT_PENDING){
 8000ff4:	781a      	ldrb	r2, [r3, #0]
 8000ff6:	b2d1      	uxtb	r1, r2
 8000ff8:	2a03      	cmp	r2, #3
 8000ffa:	d021      	beq.n	8001040 <TIM3_ch1_IP_capture_measurement_reelapse_callback+0x68>
		IP_CAP_fsm.prev_state = MEASUREMENT_REELAPSE_AND_MEASUREMENT_PENDING;

		Advance_Pending_States();
	}

	Copy_Params_Structs(&params_to_be_loaded, &params_working);
 8000ffc:	0028      	movs	r0, r5
 8000ffe:	4916      	ldr	r1, [pc, #88]	@ (8001058 <TIM3_ch1_IP_capture_measurement_reelapse_callback+0x80>)
 8001000:	f000 fa2a 	bl	8001458 <Copy_Params_Structs>
	Copy_Params_Structs(&params_to_be_loaded, &params);
 8001004:	4c15      	ldr	r4, [pc, #84]	@ (800105c <TIM3_ch1_IP_capture_measurement_reelapse_callback+0x84>)
 8001006:	0028      	movs	r0, r5
 8001008:	0021      	movs	r1, r4
 800100a:	f000 fa25 	bl	8001458 <Copy_Params_Structs>

	Set_Status_Bit(&statuses, First_Sync_Complete);
 800100e:	2108      	movs	r1, #8
 8001010:	4813      	ldr	r0, [pc, #76]	@ (8001060 <TIM3_ch1_IP_capture_measurement_reelapse_callback+0x88>)
 8001012:	f001 f8e1 	bl	80021d8 <Set_Status_Bit>

	Calculate_Next_Main_Oscillator_Values(&params, (enum Next_Values_Processing_Mode)REGULAR_MODE);
 8001016:	2100      	movs	r1, #0
 8001018:	0020      	movs	r0, r4
 800101a:	f000 faf9 	bl	8001610 <Calculate_Next_Main_Oscillator_Values>
	Write_Next_Main_Oscillator_Values_to_Delay_Line(&params, &delay_line);
 800101e:	0020      	movs	r0, r4
 8001020:	4910      	ldr	r1, [pc, #64]	@ (8001064 <TIM3_ch1_IP_capture_measurement_reelapse_callback+0x8c>)
 8001022:	f000 fb83 	bl	800172c <Write_Next_Main_Oscillator_Values_to_Delay_Line>
	HAL_ADC_Start_DMA(&hadc1, (uint32_t*)ADCResultsDMA, (uint32_t)num_ADC_conversions); //this function takes ages to execute!
 8001026:	4b10      	ldr	r3, [pc, #64]	@ (8001068 <TIM3_ch1_IP_capture_measurement_reelapse_callback+0x90>)
 8001028:	4910      	ldr	r1, [pc, #64]	@ (800106c <TIM3_ch1_IP_capture_measurement_reelapse_callback+0x94>)
 800102a:	781a      	ldrb	r2, [r3, #0]
 800102c:	4810      	ldr	r0, [pc, #64]	@ (8001070 <TIM3_ch1_IP_capture_measurement_reelapse_callback+0x98>)
 800102e:	f001 fd09 	bl	8002a44 <HAL_ADC_Start_DMA>

	//HAL_GPIO_WritePin(MONITOR_GPIO_Port, MONITOR_Pin, 0);
}
 8001032:	bd70      	pop	{r4, r5, r6, pc}
		IP_CAP_fsm.current_state = IDLE;
 8001034:	2200      	movs	r2, #0
 8001036:	701a      	strb	r2, [r3, #0]
		IP_CAP_fsm.prev_state = MEASUREMENT_REELAPSE;
 8001038:	7059      	strb	r1, [r3, #1]
		Advance_Pending_States();
 800103a:	f000 fc81 	bl	8001940 <Advance_Pending_States>
 800103e:	e7dd      	b.n	8000ffc <TIM3_ch1_IP_capture_measurement_reelapse_callback+0x24>
		IP_CAP_fsm.current_state = MEASUREMENT_PENDING;
 8001040:	3a02      	subs	r2, #2
 8001042:	701a      	strb	r2, [r3, #0]
		IP_CAP_fsm.prev_state = MEASUREMENT_REELAPSE_AND_MEASUREMENT_PENDING;
 8001044:	7059      	strb	r1, [r3, #1]
		Advance_Pending_States();
 8001046:	f000 fc7b 	bl	8001940 <Advance_Pending_States>
 800104a:	e7d7      	b.n	8000ffc <TIM3_ch1_IP_capture_measurement_reelapse_callback+0x24>
 800104c:	20000bac 	.word	0x20000bac
 8001050:	200006e4 	.word	0x200006e4
 8001054:	2000040c 	.word	0x2000040c
 8001058:	20000b88 	.word	0x20000b88
 800105c:	20000bd0 	.word	0x20000bd0
 8001060:	20000b84 	.word	0x20000b84
 8001064:	20000004 	.word	0x20000004
 8001068:	08006984 	.word	0x08006984
 800106c:	20000bf4 	.word	0x20000bf4
 8001070:	20000aec 	.word	0x20000aec

08001074 <UART2_TX_transfer_complete_callback>:

void UART2_TX_transfer_complete_callback(UART_HandleTypeDef *huart){
 8001074:	4770      	bx	lr
 8001076:	46c0      	nop			@ (mov r8, r8)

08001078 <UART2_RX_transfer_complete_callback>:

	//UART_DMA_TX_is_complete = YES;
}

void UART2_RX_transfer_complete_callback(UART_HandleTypeDef *huart){
 8001078:	b570      	push	{r4, r5, r6, lr}

	if(*rx_buffer == SYSTEM_REAL_TIME_MIDI_CLOCK){
 800107a:	4c2c      	ldr	r4, [pc, #176]	@ (800112c <UART2_RX_transfer_complete_callback+0xb4>)
 800107c:	7823      	ldrb	r3, [r4, #0]
 800107e:	2bf8      	cmp	r3, #248	@ 0xf8
 8001080:	d005      	beq.n	800108e <UART2_RX_transfer_complete_callback+0x16>

		params.final_prescaler = 64;
		params.final_start_value = 127;
		rx_buffer[0] = 0;
	}*/
	HAL_UART_Receive_DMA(&huart2, (uint8_t*)rx_buffer, sizeof(rx_buffer));
 8001082:	2201      	movs	r2, #1
 8001084:	0021      	movs	r1, r4
 8001086:	482a      	ldr	r0, [pc, #168]	@ (8001130 <UART2_RX_transfer_complete_callback+0xb8>)
 8001088:	f004 fe7e 	bl	8005d88 <HAL_UART_Receive_DMA>
}
 800108c:	bd70      	pop	{r4, r5, r6, pc}
		if(MIDI_CLK_FSM_state == NOT_COMPILING){
 800108e:	4d29      	ldr	r5, [pc, #164]	@ (8001134 <UART2_RX_transfer_complete_callback+0xbc>)
 8001090:	782b      	ldrb	r3, [r5, #0]
 8001092:	2b00      	cmp	r3, #0
 8001094:	d024      	beq.n	80010e0 <UART2_RX_transfer_complete_callback+0x68>
			MIDI_CLK_tag++;
 8001096:	4a28      	ldr	r2, [pc, #160]	@ (8001138 <UART2_RX_transfer_complete_callback+0xc0>)
 8001098:	7813      	ldrb	r3, [r2, #0]
 800109a:	3301      	adds	r3, #1
 800109c:	b2db      	uxtb	r3, r3
 800109e:	7013      	strb	r3, [r2, #0]
			if(MIDI_CLK_tag < 12){
 80010a0:	7813      	ldrb	r3, [r2, #0]
 80010a2:	2b0b      	cmp	r3, #11
 80010a4:	d90f      	bls.n	80010c6 <UART2_RX_transfer_complete_callback+0x4e>
			else if(MIDI_CLK_tag < 25){
 80010a6:	7813      	ldrb	r3, [r2, #0]
 80010a8:	2b18      	cmp	r3, #24
 80010aa:	d932      	bls.n	8001112 <UART2_RX_transfer_complete_callback+0x9a>
				if(speed_fsm.current_state.speed_exclusive_state != MIDI_CLK_MODE){
 80010ac:	4b23      	ldr	r3, [pc, #140]	@ (800113c <UART2_RX_transfer_complete_callback+0xc4>)
 80010ae:	7819      	ldrb	r1, [r3, #0]
 80010b0:	2908      	cmp	r1, #8
 80010b2:	d001      	beq.n	80010b8 <UART2_RX_transfer_complete_callback+0x40>
					speed_fsm.prev_state = speed_fsm.current_state;
 80010b4:	7819      	ldrb	r1, [r3, #0]
 80010b6:	7059      	strb	r1, [r3, #1]
				speed_fsm.current_state.speed_exclusive_state = MIDI_CLK_MODE;
 80010b8:	2108      	movs	r1, #8
 80010ba:	7019      	strb	r1, [r3, #0]
				MIDI_CLK_tag = 1;
 80010bc:	2301      	movs	r3, #1
 80010be:	7013      	strb	r3, [r2, #0]
		*rx_buffer = 0;
 80010c0:	2300      	movs	r3, #0
 80010c2:	7023      	strb	r3, [r4, #0]
 80010c4:	e7dd      	b.n	8001082 <UART2_RX_transfer_complete_callback+0xa>
				HAL_GPIO_WritePin(SW_OUT_GPIO_Port, SW_OUT_Pin, 0);
 80010c6:	2180      	movs	r1, #128	@ 0x80
 80010c8:	20a0      	movs	r0, #160	@ 0xa0
 80010ca:	2200      	movs	r2, #0
 80010cc:	0089      	lsls	r1, r1, #2
 80010ce:	05c0      	lsls	r0, r0, #23
 80010d0:	f002 f97a 	bl	80033c8 <HAL_GPIO_WritePin>
				HAL_GPIO_WritePin(LD3_GPIO_Port, LD3_Pin, 1);
 80010d4:	2201      	movs	r2, #1
 80010d6:	2140      	movs	r1, #64	@ 0x40
 80010d8:	4819      	ldr	r0, [pc, #100]	@ (8001140 <UART2_RX_transfer_complete_callback+0xc8>)
 80010da:	f002 f975 	bl	80033c8 <HAL_GPIO_WritePin>
 80010de:	e7ef      	b.n	80010c0 <UART2_RX_transfer_complete_callback+0x48>
			speed_fsm.prev_state = speed_fsm.current_state;
 80010e0:	4b16      	ldr	r3, [pc, #88]	@ (800113c <UART2_RX_transfer_complete_callback+0xc4>)
			HAL_GPIO_WritePin(SW_OUT_GPIO_Port, SW_OUT_Pin, 0);
 80010e2:	2180      	movs	r1, #128	@ 0x80
			speed_fsm.prev_state = speed_fsm.current_state;
 80010e4:	781a      	ldrb	r2, [r3, #0]
			HAL_GPIO_WritePin(SW_OUT_GPIO_Port, SW_OUT_Pin, 0);
 80010e6:	20a0      	movs	r0, #160	@ 0xa0
			speed_fsm.prev_state = speed_fsm.current_state;
 80010e8:	705a      	strb	r2, [r3, #1]
			speed_fsm.current_state.speed_exclusive_state = MIDI_CLK_PENDING_MODE;
 80010ea:	2209      	movs	r2, #9
			HAL_GPIO_WritePin(SW_OUT_GPIO_Port, SW_OUT_Pin, 0);
 80010ec:	0089      	lsls	r1, r1, #2
			speed_fsm.current_state.speed_exclusive_state = MIDI_CLK_PENDING_MODE;
 80010ee:	701a      	strb	r2, [r3, #0]
			HAL_GPIO_WritePin(SW_OUT_GPIO_Port, SW_OUT_Pin, 0);
 80010f0:	05c0      	lsls	r0, r0, #23
 80010f2:	2200      	movs	r2, #0
 80010f4:	f002 f968 	bl	80033c8 <HAL_GPIO_WritePin>
			HAL_GPIO_WritePin(LD3_GPIO_Port, LD3_Pin, 1);
 80010f8:	2201      	movs	r2, #1
 80010fa:	2140      	movs	r1, #64	@ 0x40
 80010fc:	4810      	ldr	r0, [pc, #64]	@ (8001140 <UART2_RX_transfer_complete_callback+0xc8>)
 80010fe:	f002 f963 	bl	80033c8 <HAL_GPIO_WritePin>
			MIDI_CLK_FSM_state = COMPILING;
 8001102:	2301      	movs	r3, #1
			MIDI_CLK_tag++;
 8001104:	4a0c      	ldr	r2, [pc, #48]	@ (8001138 <UART2_RX_transfer_complete_callback+0xc0>)
			MIDI_CLK_FSM_state = COMPILING;
 8001106:	702b      	strb	r3, [r5, #0]
			MIDI_CLK_tag++;
 8001108:	7813      	ldrb	r3, [r2, #0]
 800110a:	3301      	adds	r3, #1
 800110c:	b2db      	uxtb	r3, r3
 800110e:	7013      	strb	r3, [r2, #0]
 8001110:	e7d6      	b.n	80010c0 <UART2_RX_transfer_complete_callback+0x48>
				HAL_GPIO_WritePin(SW_OUT_GPIO_Port, SW_OUT_Pin, 1);
 8001112:	2180      	movs	r1, #128	@ 0x80
 8001114:	20a0      	movs	r0, #160	@ 0xa0
 8001116:	2201      	movs	r2, #1
 8001118:	0089      	lsls	r1, r1, #2
 800111a:	05c0      	lsls	r0, r0, #23
 800111c:	f002 f954 	bl	80033c8 <HAL_GPIO_WritePin>
				HAL_GPIO_WritePin(LD3_GPIO_Port, LD3_Pin, 0);
 8001120:	2200      	movs	r2, #0
 8001122:	2140      	movs	r1, #64	@ 0x40
 8001124:	4806      	ldr	r0, [pc, #24]	@ (8001140 <UART2_RX_transfer_complete_callback+0xc8>)
 8001126:	f002 f94f 	bl	80033c8 <HAL_GPIO_WritePin>
 800112a:	e7c9      	b.n	80010c0 <UART2_RX_transfer_complete_callback+0x48>
 800112c:	2000043c 	.word	0x2000043c
 8001130:	2000055c 	.word	0x2000055c
 8001134:	20000bfe 	.word	0x20000bfe
 8001138:	20000b76 	.word	0x20000b76
 800113c:	20000410 	.word	0x20000410
 8001140:	50000800 	.word	0x50000800

08001144 <HAL_GPIO_EXTI_Falling_Callback>:

void HAL_GPIO_EXTI_Falling_Callback(uint16_t GPIO_Pin){
 8001144:	b510      	push	{r4, lr}

	if((GPIO_Pin == CLK_IN_Pin)){ //if specifically CLK IN pin with falling interrupt
 8001146:	2880      	cmp	r0, #128	@ 0x80
 8001148:	d000      	beq.n	800114c <HAL_GPIO_EXTI_Falling_Callback+0x8>

			HAL_GPIO_WritePin(SW_OUT_GPIO_Port, SW_OUT_Pin, 1);
			HAL_GPIO_WritePin(LD3_GPIO_Port, LD3_Pin, 0);
		}
	}
}
 800114a:	bd10      	pop	{r4, pc}
		if((speed_fsm.current_state.speed_exclusive_state == CLK_IN_MODE) || (speed_fsm.current_state.speed_exclusive_state == CLK_IN_PENDING_MODE)){
 800114c:	4b09      	ldr	r3, [pc, #36]	@ (8001174 <HAL_GPIO_EXTI_Falling_Callback+0x30>)
 800114e:	781a      	ldrb	r2, [r3, #0]
 8001150:	2a06      	cmp	r2, #6
 8001152:	d002      	beq.n	800115a <HAL_GPIO_EXTI_Falling_Callback+0x16>
 8001154:	781b      	ldrb	r3, [r3, #0]
 8001156:	2b07      	cmp	r3, #7
 8001158:	d1f7      	bne.n	800114a <HAL_GPIO_EXTI_Falling_Callback+0x6>
			HAL_GPIO_WritePin(SW_OUT_GPIO_Port, SW_OUT_Pin, 1);
 800115a:	2180      	movs	r1, #128	@ 0x80
 800115c:	20a0      	movs	r0, #160	@ 0xa0
 800115e:	2201      	movs	r2, #1
 8001160:	0089      	lsls	r1, r1, #2
 8001162:	05c0      	lsls	r0, r0, #23
 8001164:	f002 f930 	bl	80033c8 <HAL_GPIO_WritePin>
			HAL_GPIO_WritePin(LD3_GPIO_Port, LD3_Pin, 0);
 8001168:	2200      	movs	r2, #0
 800116a:	2140      	movs	r1, #64	@ 0x40
 800116c:	4802      	ldr	r0, [pc, #8]	@ (8001178 <HAL_GPIO_EXTI_Falling_Callback+0x34>)
 800116e:	f002 f92b 	bl	80033c8 <HAL_GPIO_WritePin>
}
 8001172:	e7ea      	b.n	800114a <HAL_GPIO_EXTI_Falling_Callback+0x6>
 8001174:	20000410 	.word	0x20000410
 8001178:	50000800 	.word	0x50000800

0800117c <HAL_GPIO_EXTI_Rising_Callback>:

void HAL_GPIO_EXTI_Rising_Callback(uint16_t GPIO_Pin){
 800117c:	b570      	push	{r4, r5, r6, lr}

	//HAL_GPIO_WritePin(MONITOR_GPIO_Port, MONITOR_Pin, 1);

	if((GPIO_Pin == CLK_IN_Pin)){ //if specifically CLK IN pin with rising interrupt
 800117e:	2880      	cmp	r0, #128	@ 0x80
 8001180:	d000      	beq.n	8001184 <HAL_GPIO_EXTI_Rising_Callback+0x8>
		}

	}

	//HAL_GPIO_WritePin(MONITOR_GPIO_Port, MONITOR_Pin, 0);
}
 8001182:	bd70      	pop	{r4, r5, r6, pc}
		if(speed_fsm.current_state.shared_state == MANUAL_MODE){
 8001184:	4c28      	ldr	r4, [pc, #160]	@ (8001228 <HAL_GPIO_EXTI_Rising_Callback+0xac>)
 8001186:	7823      	ldrb	r3, [r4, #0]
 8001188:	b2dd      	uxtb	r5, r3
 800118a:	2b01      	cmp	r3, #1
 800118c:	d027      	beq.n	80011de <HAL_GPIO_EXTI_Rising_Callback+0x62>
		else if(speed_fsm.current_state.shared_state == PC_MODE){
 800118e:	7823      	ldrb	r3, [r4, #0]
 8001190:	b2dd      	uxtb	r5, r3
 8001192:	2b03      	cmp	r3, #3
 8001194:	d023      	beq.n	80011de <HAL_GPIO_EXTI_Rising_Callback+0x62>
		else if(speed_fsm.current_state.shared_state == CC_MODE){
 8001196:	7823      	ldrb	r3, [r4, #0]
 8001198:	b2dd      	uxtb	r5, r3
 800119a:	2b02      	cmp	r3, #2
 800119c:	d01f      	beq.n	80011de <HAL_GPIO_EXTI_Rising_Callback+0x62>
		else if((speed_fsm.current_state.speed_exclusive_state == TAP_MODE) && (IP_CAP_fsm.current_state == IDLE)){
 800119e:	7823      	ldrb	r3, [r4, #0]
 80011a0:	b2dd      	uxtb	r5, r3
 80011a2:	2b04      	cmp	r3, #4
 80011a4:	d017      	beq.n	80011d6 <HAL_GPIO_EXTI_Rising_Callback+0x5a>
		else if((speed_fsm.current_state.speed_exclusive_state == MIDI_CLK_MODE) && (IP_CAP_fsm.current_state == IDLE)){
 80011a6:	7823      	ldrb	r3, [r4, #0]
 80011a8:	b2dd      	uxtb	r5, r3
 80011aa:	2b08      	cmp	r3, #8
 80011ac:	d027      	beq.n	80011fe <HAL_GPIO_EXTI_Rising_Callback+0x82>
		else if(speed_fsm.current_state.speed_exclusive_state == CLK_IN_PENDING_MODE){ //second edge
 80011ae:	7823      	ldrb	r3, [r4, #0]
 80011b0:	b2dd      	uxtb	r5, r3
 80011b2:	2b07      	cmp	r3, #7
 80011b4:	d028      	beq.n	8001208 <HAL_GPIO_EXTI_Rising_Callback+0x8c>
		else if(speed_fsm.current_state.speed_exclusive_state == CLK_IN_MODE){
 80011b6:	7823      	ldrb	r3, [r4, #0]
 80011b8:	2b06      	cmp	r3, #6
 80011ba:	d1e2      	bne.n	8001182 <HAL_GPIO_EXTI_Rising_Callback+0x6>
			HAL_GPIO_WritePin(SW_OUT_GPIO_Port, SW_OUT_Pin, 0);
 80011bc:	2180      	movs	r1, #128	@ 0x80
 80011be:	20a0      	movs	r0, #160	@ 0xa0
 80011c0:	2200      	movs	r2, #0
 80011c2:	0089      	lsls	r1, r1, #2
 80011c4:	05c0      	lsls	r0, r0, #23
 80011c6:	f002 f8ff 	bl	80033c8 <HAL_GPIO_WritePin>
			HAL_GPIO_WritePin(LD3_GPIO_Port, LD3_Pin, 1);
 80011ca:	2201      	movs	r2, #1
 80011cc:	2140      	movs	r1, #64	@ 0x40
 80011ce:	4817      	ldr	r0, [pc, #92]	@ (800122c <HAL_GPIO_EXTI_Rising_Callback+0xb0>)
 80011d0:	f002 f8fa 	bl	80033c8 <HAL_GPIO_WritePin>
}
 80011d4:	e7d5      	b.n	8001182 <HAL_GPIO_EXTI_Rising_Callback+0x6>
		else if((speed_fsm.current_state.speed_exclusive_state == TAP_MODE) && (IP_CAP_fsm.current_state == IDLE)){
 80011d6:	4b16      	ldr	r3, [pc, #88]	@ (8001230 <HAL_GPIO_EXTI_Rising_Callback+0xb4>)
 80011d8:	781b      	ldrb	r3, [r3, #0]
 80011da:	2b00      	cmp	r3, #0
 80011dc:	d1e3      	bne.n	80011a6 <HAL_GPIO_EXTI_Rising_Callback+0x2a>
			HAL_GPIO_WritePin(SW_OUT_GPIO_Port, SW_OUT_Pin, 0);
 80011de:	2180      	movs	r1, #128	@ 0x80
 80011e0:	20a0      	movs	r0, #160	@ 0xa0
 80011e2:	2200      	movs	r2, #0
 80011e4:	0089      	lsls	r1, r1, #2
 80011e6:	05c0      	lsls	r0, r0, #23
 80011e8:	f002 f8ee 	bl	80033c8 <HAL_GPIO_WritePin>
			HAL_GPIO_WritePin(LD3_GPIO_Port, LD3_Pin, 1);
 80011ec:	2201      	movs	r2, #1
 80011ee:	2140      	movs	r1, #64	@ 0x40
 80011f0:	480e      	ldr	r0, [pc, #56]	@ (800122c <HAL_GPIO_EXTI_Rising_Callback+0xb0>)
 80011f2:	f002 f8e9 	bl	80033c8 <HAL_GPIO_WritePin>
			speed_fsm.current_state.speed_exclusive_state = CLK_IN_PENDING_MODE;
 80011f6:	2307      	movs	r3, #7
			speed_fsm.prev_state.speed_exclusive_state = MIDI_CLK_MODE;
 80011f8:	7065      	strb	r5, [r4, #1]
			speed_fsm.current_state.speed_exclusive_state = CLK_IN_PENDING_MODE;
 80011fa:	7023      	strb	r3, [r4, #0]
 80011fc:	e7c1      	b.n	8001182 <HAL_GPIO_EXTI_Rising_Callback+0x6>
		else if((speed_fsm.current_state.speed_exclusive_state == MIDI_CLK_MODE) && (IP_CAP_fsm.current_state == IDLE)){
 80011fe:	4b0c      	ldr	r3, [pc, #48]	@ (8001230 <HAL_GPIO_EXTI_Rising_Callback+0xb4>)
 8001200:	781b      	ldrb	r3, [r3, #0]
 8001202:	2b00      	cmp	r3, #0
 8001204:	d1d3      	bne.n	80011ae <HAL_GPIO_EXTI_Rising_Callback+0x32>
 8001206:	e7ea      	b.n	80011de <HAL_GPIO_EXTI_Rising_Callback+0x62>
			HAL_GPIO_WritePin(SW_OUT_GPIO_Port, SW_OUT_Pin, 0);
 8001208:	2180      	movs	r1, #128	@ 0x80
 800120a:	20a0      	movs	r0, #160	@ 0xa0
 800120c:	2200      	movs	r2, #0
 800120e:	0089      	lsls	r1, r1, #2
 8001210:	05c0      	lsls	r0, r0, #23
 8001212:	f002 f8d9 	bl	80033c8 <HAL_GPIO_WritePin>
			HAL_GPIO_WritePin(LD3_GPIO_Port, LD3_Pin, 1);
 8001216:	2201      	movs	r2, #1
 8001218:	2140      	movs	r1, #64	@ 0x40
 800121a:	4804      	ldr	r0, [pc, #16]	@ (800122c <HAL_GPIO_EXTI_Rising_Callback+0xb0>)
 800121c:	f002 f8d4 	bl	80033c8 <HAL_GPIO_WritePin>
			speed_fsm.current_state.speed_exclusive_state = CLK_IN_MODE;
 8001220:	2306      	movs	r3, #6
			speed_fsm.prev_state.speed_exclusive_state = CLK_IN_PENDING_MODE;
 8001222:	7065      	strb	r5, [r4, #1]
			speed_fsm.current_state.speed_exclusive_state = CLK_IN_MODE;
 8001224:	7023      	strb	r3, [r4, #0]
 8001226:	e7ac      	b.n	8001182 <HAL_GPIO_EXTI_Rising_Callback+0x6>
 8001228:	20000410 	.word	0x20000410
 800122c:	50000800 	.word	0x50000800
 8001230:	2000040c 	.word	0x2000040c

08001234 <LPTIM1_callback>:

	static volatile struct Tap_Tempo_Switch_States tap_tempo_switch_states = {0};

	//CHECK IF NEED TO TAP_PENDING TRANSITION

	uint8_t pin_state = (uint8_t)HAL_GPIO_ReadPin(SW_IN_GPIO_Port, SW_IN_Pin);
 8001234:	2180      	movs	r1, #128	@ 0x80
 8001236:	20a0      	movs	r0, #160	@ 0xa0
void LPTIM1_callback(LPTIM_HandleTypeDef *hlptim){
 8001238:	b570      	push	{r4, r5, r6, lr}
	uint8_t pin_state = (uint8_t)HAL_GPIO_ReadPin(SW_IN_GPIO_Port, SW_IN_Pin);
 800123a:	00c9      	lsls	r1, r1, #3
 800123c:	05c0      	lsls	r0, r0, #23
 800123e:	f002 f8bd 	bl	80033bc <HAL_GPIO_ReadPin>

	if((speed_fsm.current_state.shared_state == MANUAL_MODE) && (pin_state == 0)){
 8001242:	4c51      	ldr	r4, [pc, #324]	@ (8001388 <LPTIM1_callback+0x154>)
 8001244:	7823      	ldrb	r3, [r4, #0]
 8001246:	b2da      	uxtb	r2, r3
 8001248:	2b01      	cmp	r3, #1
 800124a:	d03a      	beq.n	80012c2 <LPTIM1_callback+0x8e>

		speed_fsm.current_state.speed_exclusive_state = TAP_PENDING_MODE;
		speed_fsm.prev_state.shared_state = MANUAL_MODE;
	}
	else if((speed_fsm.current_state.shared_state == CC_MODE) && (pin_state == 0)){
 800124c:	7823      	ldrb	r3, [r4, #0]
 800124e:	b2da      	uxtb	r2, r3
 8001250:	2b02      	cmp	r3, #2
 8001252:	d016      	beq.n	8001282 <LPTIM1_callback+0x4e>

		speed_fsm.current_state.speed_exclusive_state = TAP_PENDING_MODE;
		speed_fsm.prev_state.shared_state = CC_MODE;
	}
	else if((speed_fsm.current_state.shared_state == PC_MODE) && (pin_state == 0)){
 8001254:	7823      	ldrb	r3, [r4, #0]
 8001256:	b2da      	uxtb	r2, r3
 8001258:	2b03      	cmp	r3, #3
 800125a:	d100      	bne.n	800125e <LPTIM1_callback+0x2a>
 800125c:	e081      	b.n	8001362 <LPTIM1_callback+0x12e>

		speed_fsm.current_state.speed_exclusive_state = TAP_PENDING_MODE;
		speed_fsm.prev_state.shared_state = PC_MODE;
	}
	else if((speed_fsm.current_state.speed_exclusive_state == CLK_IN_MODE) && (pin_state == 0) && IP_CAP_fsm.current_state == IDLE){
 800125e:	7823      	ldrb	r3, [r4, #0]
 8001260:	b2da      	uxtb	r2, r3
 8001262:	2b06      	cmp	r3, #6
 8001264:	d053      	beq.n	800130e <LPTIM1_callback+0xda>

		speed_fsm.current_state.speed_exclusive_state = TAP_PENDING_MODE;
		speed_fsm.prev_state.speed_exclusive_state = CLK_IN_MODE;
	}
	else if((speed_fsm.current_state.speed_exclusive_state == MIDI_CLK_MODE) && (pin_state == 0) && IP_CAP_fsm.current_state == IDLE){
 8001266:	7823      	ldrb	r3, [r4, #0]
 8001268:	2b08      	cmp	r3, #8
 800126a:	d10f      	bne.n	800128c <LPTIM1_callback+0x58>
 800126c:	2800      	cmp	r0, #0
 800126e:	d10d      	bne.n	800128c <LPTIM1_callback+0x58>
 8001270:	4b46      	ldr	r3, [pc, #280]	@ (800138c <LPTIM1_callback+0x158>)
 8001272:	781b      	ldrb	r3, [r3, #0]
 8001274:	2b00      	cmp	r3, #0
 8001276:	d109      	bne.n	800128c <LPTIM1_callback+0x58>

		speed_fsm.current_state.speed_exclusive_state = TAP_PENDING_MODE;
 8001278:	3305      	adds	r3, #5
 800127a:	7023      	strb	r3, [r4, #0]
		speed_fsm.prev_state.speed_exclusive_state = MIDI_CLK_MODE;
 800127c:	3303      	adds	r3, #3
 800127e:	7063      	strb	r3, [r4, #1]
 8001280:	e004      	b.n	800128c <LPTIM1_callback+0x58>
	else if((speed_fsm.current_state.shared_state == CC_MODE) && (pin_state == 0)){
 8001282:	2800      	cmp	r0, #0
 8001284:	d120      	bne.n	80012c8 <LPTIM1_callback+0x94>
		speed_fsm.current_state.speed_exclusive_state = TAP_PENDING_MODE;
 8001286:	2305      	movs	r3, #5
 8001288:	7023      	strb	r3, [r4, #0]
		speed_fsm.prev_state.speed_exclusive_state = CLK_IN_MODE;
 800128a:	7062      	strb	r2, [r4, #1]
	}

	//CHECK TAP TEMPO STATE
	if((speed_fsm.current_state.speed_exclusive_state == TAP_PENDING_MODE) || (speed_fsm.current_state.speed_exclusive_state == TAP_MODE)){
 800128c:	7823      	ldrb	r3, [r4, #0]
 800128e:	2b05      	cmp	r3, #5
 8001290:	d020      	beq.n	80012d4 <LPTIM1_callback+0xa0>
 8001292:	7823      	ldrb	r3, [r4, #0]
 8001294:	2b04      	cmp	r3, #4
 8001296:	d01d      	beq.n	80012d4 <LPTIM1_callback+0xa0>
	//SET PREVIOUS STATE TO CURRENT STATE
	//tap_tempo_switch_states.tap_tempo_switch_prev_state = tap_tempo_switch_states.tap_tempo_switch_state;


	//PERFORM SPEED POT CHECKING
	if((speed_fsm.current_state.shared_state == PC_MODE) || (speed_fsm.current_state.shared_state == CC_MODE)){
 8001298:	7823      	ldrb	r3, [r4, #0]
 800129a:	2b03      	cmp	r3, #3
 800129c:	d033      	beq.n	8001306 <LPTIM1_callback+0xd2>
 800129e:	7823      	ldrb	r3, [r4, #0]
 80012a0:	2b02      	cmp	r3, #2
 80012a2:	d030      	beq.n	8001306 <LPTIM1_callback+0xd2>

		Speed_Pot_Check(&params);
	}
	else if((speed_fsm.current_state.speed_exclusive_state == CLK_IN_MODE) && (IP_CAP_fsm.current_state == IDLE)){
 80012a4:	7823      	ldrb	r3, [r4, #0]
 80012a6:	2b06      	cmp	r3, #6
 80012a8:	d03b      	beq.n	8001322 <LPTIM1_callback+0xee>

			Clear_Status_Bit(&statuses, Software_IP_CAP_Idle_Timer_Has_Timed_Out);
			Speed_Pot_Check(&params);
		}
	}
	else if((speed_fsm.current_state.speed_exclusive_state == MIDI_CLK_MODE) && (IP_CAP_fsm.current_state == IDLE)){
 80012aa:	7823      	ldrb	r3, [r4, #0]
 80012ac:	2b08      	cmp	r3, #8
 80012ae:	d04c      	beq.n	800134a <LPTIM1_callback+0x116>

			Clear_Status_Bit(&statuses, Software_IP_CAP_Idle_Timer_Has_Timed_Out);
			Speed_Pot_Check(&params);
		}
	}
	else if((speed_fsm.current_state.speed_exclusive_state == TAP_MODE) && (IP_CAP_fsm.current_state == IDLE)){
 80012b0:	7823      	ldrb	r3, [r4, #0]
 80012b2:	2b04      	cmp	r3, #4
 80012b4:	d050      	beq.n	8001358 <LPTIM1_callback+0x124>
			Speed_Pot_Check(&params);
		}
	}

	//SET TIMER TRIGGER
	HAL_LPTIM_SetOnce_Start_IT(&hlptim1, LPTIM1_CCR_CHECK, LPTIM1_CCR_CHECK);
 80012b6:	22fa      	movs	r2, #250	@ 0xfa
 80012b8:	21fa      	movs	r1, #250	@ 0xfa
 80012ba:	4835      	ldr	r0, [pc, #212]	@ (8001390 <LPTIM1_callback+0x15c>)
 80012bc:	f002 faae 	bl	800381c <HAL_LPTIM_SetOnce_Start_IT>

}
 80012c0:	bd70      	pop	{r4, r5, r6, pc}
	if((speed_fsm.current_state.shared_state == MANUAL_MODE) && (pin_state == 0)){
 80012c2:	2800      	cmp	r0, #0
 80012c4:	d0df      	beq.n	8001286 <LPTIM1_callback+0x52>
	else if((speed_fsm.current_state.shared_state == CC_MODE) && (pin_state == 0)){
 80012c6:	7823      	ldrb	r3, [r4, #0]
	else if((speed_fsm.current_state.shared_state == PC_MODE) && (pin_state == 0)){
 80012c8:	7823      	ldrb	r3, [r4, #0]
	else if((speed_fsm.current_state.speed_exclusive_state == CLK_IN_MODE) && (pin_state == 0) && IP_CAP_fsm.current_state == IDLE){
 80012ca:	7823      	ldrb	r3, [r4, #0]
	else if((speed_fsm.current_state.speed_exclusive_state == MIDI_CLK_MODE) && (pin_state == 0) && IP_CAP_fsm.current_state == IDLE){
 80012cc:	7823      	ldrb	r3, [r4, #0]
	if((speed_fsm.current_state.speed_exclusive_state == TAP_PENDING_MODE) || (speed_fsm.current_state.speed_exclusive_state == TAP_MODE)){
 80012ce:	7823      	ldrb	r3, [r4, #0]
 80012d0:	2b05      	cmp	r3, #5
 80012d2:	d1de      	bne.n	8001292 <LPTIM1_callback+0x5e>
		Check_Tap_Tempo_Switch_State(&tap_tempo_switch_states);
 80012d4:	4d2f      	ldr	r5, [pc, #188]	@ (8001394 <LPTIM1_callback+0x160>)
 80012d6:	0028      	movs	r0, r5
 80012d8:	f7ff f8fe 	bl	80004d8 <Check_Tap_Tempo_Switch_State>
		if(tap_tempo_switch_states.tap_tempo_switch_state == DEPRESSED){
 80012dc:	782b      	ldrb	r3, [r5, #0]
 80012de:	2b01      	cmp	r3, #1
 80012e0:	d044      	beq.n	800136c <LPTIM1_callback+0x138>
		else if(tap_tempo_switch_states.tap_tempo_switch_state == NOT_DEPRESSED){
 80012e2:	782b      	ldrb	r3, [r5, #0]
 80012e4:	2b00      	cmp	r3, #0
 80012e6:	d1d7      	bne.n	8001298 <LPTIM1_callback+0x64>
			HAL_GPIO_WritePin(SW_OUT_GPIO_Port, SW_OUT_Pin, 1); //reset
 80012e8:	2180      	movs	r1, #128	@ 0x80
 80012ea:	20a0      	movs	r0, #160	@ 0xa0
 80012ec:	2201      	movs	r2, #1
 80012ee:	0089      	lsls	r1, r1, #2
 80012f0:	05c0      	lsls	r0, r0, #23
 80012f2:	f002 f869 	bl	80033c8 <HAL_GPIO_WritePin>
			HAL_GPIO_WritePin(LD3_GPIO_Port, LD3_Pin, 0);
 80012f6:	2200      	movs	r2, #0
 80012f8:	2140      	movs	r1, #64	@ 0x40
 80012fa:	4827      	ldr	r0, [pc, #156]	@ (8001398 <LPTIM1_callback+0x164>)
 80012fc:	f002 f864 	bl	80033c8 <HAL_GPIO_WritePin>
	if((speed_fsm.current_state.shared_state == PC_MODE) || (speed_fsm.current_state.shared_state == CC_MODE)){
 8001300:	7823      	ldrb	r3, [r4, #0]
 8001302:	2b03      	cmp	r3, #3
 8001304:	d1cb      	bne.n	800129e <LPTIM1_callback+0x6a>
			Speed_Pot_Check(&params);
 8001306:	4825      	ldr	r0, [pc, #148]	@ (800139c <LPTIM1_callback+0x168>)
 8001308:	f7ff f8aa 	bl	8000460 <Speed_Pot_Check>
 800130c:	e7d3      	b.n	80012b6 <LPTIM1_callback+0x82>
	else if((speed_fsm.current_state.speed_exclusive_state == CLK_IN_MODE) && (pin_state == 0) && IP_CAP_fsm.current_state == IDLE){
 800130e:	2800      	cmp	r0, #0
 8001310:	d1dc      	bne.n	80012cc <LPTIM1_callback+0x98>
 8001312:	4b1e      	ldr	r3, [pc, #120]	@ (800138c <LPTIM1_callback+0x158>)
 8001314:	7819      	ldrb	r1, [r3, #0]
 8001316:	2900      	cmp	r1, #0
 8001318:	d0b5      	beq.n	8001286 <LPTIM1_callback+0x52>
	else if((speed_fsm.current_state.speed_exclusive_state == MIDI_CLK_MODE) && (pin_state == 0) && IP_CAP_fsm.current_state == IDLE){
 800131a:	7822      	ldrb	r2, [r4, #0]
 800131c:	2a08      	cmp	r2, #8
 800131e:	d1b5      	bne.n	800128c <LPTIM1_callback+0x58>
 8001320:	e7a7      	b.n	8001272 <LPTIM1_callback+0x3e>
	else if((speed_fsm.current_state.speed_exclusive_state == CLK_IN_MODE) && (IP_CAP_fsm.current_state == IDLE)){
 8001322:	4b1a      	ldr	r3, [pc, #104]	@ (800138c <LPTIM1_callback+0x158>)
 8001324:	781b      	ldrb	r3, [r3, #0]
 8001326:	2b00      	cmp	r3, #0
 8001328:	d1bf      	bne.n	80012aa <LPTIM1_callback+0x76>
		Set_Status_Bit(&statuses, Software_IP_CAP_Idle_Timer_Is_Running);
 800132a:	4c1d      	ldr	r4, [pc, #116]	@ (80013a0 <LPTIM1_callback+0x16c>)
 800132c:	2140      	movs	r1, #64	@ 0x40
 800132e:	0020      	movs	r0, r4
 8001330:	f000 ff52 	bl	80021d8 <Set_Status_Bit>
		if(Get_Status_Bit(&statuses, Software_IP_CAP_Idle_Timer_Has_Timed_Out) == YES){
 8001334:	2120      	movs	r1, #32
 8001336:	0020      	movs	r0, r4
 8001338:	f000 ff48 	bl	80021cc <Get_Status_Bit>
 800133c:	2801      	cmp	r0, #1
 800133e:	d1ba      	bne.n	80012b6 <LPTIM1_callback+0x82>
			Clear_Status_Bit(&statuses, Software_IP_CAP_Idle_Timer_Has_Timed_Out);
 8001340:	2120      	movs	r1, #32
 8001342:	0020      	movs	r0, r4
 8001344:	f000 ff4c 	bl	80021e0 <Clear_Status_Bit>
 8001348:	e7dd      	b.n	8001306 <LPTIM1_callback+0xd2>
	else if((speed_fsm.current_state.speed_exclusive_state == MIDI_CLK_MODE) && (IP_CAP_fsm.current_state == IDLE)){
 800134a:	4b10      	ldr	r3, [pc, #64]	@ (800138c <LPTIM1_callback+0x158>)
 800134c:	781b      	ldrb	r3, [r3, #0]
 800134e:	2b00      	cmp	r3, #0
 8001350:	d0eb      	beq.n	800132a <LPTIM1_callback+0xf6>
	else if((speed_fsm.current_state.speed_exclusive_state == TAP_MODE) && (IP_CAP_fsm.current_state == IDLE)){
 8001352:	7823      	ldrb	r3, [r4, #0]
 8001354:	2b04      	cmp	r3, #4
 8001356:	d1ae      	bne.n	80012b6 <LPTIM1_callback+0x82>
 8001358:	4b0c      	ldr	r3, [pc, #48]	@ (800138c <LPTIM1_callback+0x158>)
 800135a:	781b      	ldrb	r3, [r3, #0]
 800135c:	2b00      	cmp	r3, #0
 800135e:	d1aa      	bne.n	80012b6 <LPTIM1_callback+0x82>
 8001360:	e7e3      	b.n	800132a <LPTIM1_callback+0xf6>
	else if((speed_fsm.current_state.shared_state == PC_MODE) && (pin_state == 0)){
 8001362:	2800      	cmp	r0, #0
 8001364:	d100      	bne.n	8001368 <LPTIM1_callback+0x134>
 8001366:	e78e      	b.n	8001286 <LPTIM1_callback+0x52>
	else if((speed_fsm.current_state.speed_exclusive_state == CLK_IN_MODE) && (pin_state == 0) && IP_CAP_fsm.current_state == IDLE){
 8001368:	7823      	ldrb	r3, [r4, #0]
 800136a:	e7af      	b.n	80012cc <LPTIM1_callback+0x98>
			HAL_GPIO_WritePin(SW_OUT_GPIO_Port, SW_OUT_Pin, 0);
 800136c:	2180      	movs	r1, #128	@ 0x80
 800136e:	20a0      	movs	r0, #160	@ 0xa0
 8001370:	2200      	movs	r2, #0
 8001372:	0089      	lsls	r1, r1, #2
 8001374:	05c0      	lsls	r0, r0, #23
 8001376:	f002 f827 	bl	80033c8 <HAL_GPIO_WritePin>
			HAL_GPIO_WritePin(LD3_GPIO_Port, LD3_Pin, 1);
 800137a:	2201      	movs	r2, #1
 800137c:	2140      	movs	r1, #64	@ 0x40
 800137e:	4806      	ldr	r0, [pc, #24]	@ (8001398 <LPTIM1_callback+0x164>)
 8001380:	f002 f822 	bl	80033c8 <HAL_GPIO_WritePin>
 8001384:	e788      	b.n	8001298 <LPTIM1_callback+0x64>
 8001386:	46c0      	nop			@ (mov r8, r8)
 8001388:	20000410 	.word	0x20000410
 800138c:	2000040c 	.word	0x2000040c
 8001390:	20000448 	.word	0x20000448
 8001394:	20000b74 	.word	0x20000b74
 8001398:	50000800 	.word	0x50000800
 800139c:	20000bd0 	.word	0x20000bd0
 80013a0:	20000b84 	.word	0x20000b84

080013a4 <TIM17_callback>:

void TIM17_callback(TIM_HandleTypeDef *htim){


}
 80013a4:	4770      	bx	lr
 80013a6:	46c0      	nop			@ (mov r8, r8)

080013a8 <TIM14_callback>:

void TIM14_callback(TIM_HandleTypeDef *htim){
 80013a8:	4770      	bx	lr
 80013aa:	46c0      	nop			@ (mov r8, r8)

080013ac <Input_Capture_Processing>:
volatile uint32_t TIM2_ch1_input_capture_value;
volatile uint16_t interrupt_period = 0;
volatile uint8_t MIDI_CLK_tag = 0;

//FUNCTION DEFINITIONS
uint8_t Input_Capture_Processing(volatile uint16_t interrupt_period_value, struct Params *params_ptr){
 80013ac:	b5f0      	push	{r4, r5, r6, r7, lr}
 80013ae:	b083      	sub	sp, #12
 80013b0:	466b      	mov	r3, sp
 80013b2:	000f      	movs	r7, r1
 80013b4:	80d8      	strh	r0, [r3, #6]

	//HAL_GPIO_WritePin(MONITOR_GPIO_Port, MONITOR_Pin, 1);

	Clear_Status_Bit(&statuses, Input_Capture_Processing_Can_Be_Started); //reset flag
 80013b6:	2104      	movs	r1, #4
 80013b8:	481a      	ldr	r0, [pc, #104]	@ (8001424 <Input_Capture_Processing+0x78>)
uint8_t Input_Capture_Processing(volatile uint16_t interrupt_period_value, struct Params *params_ptr){
 80013ba:	1d9d      	adds	r5, r3, #6
	Clear_Status_Bit(&statuses, Input_Capture_Processing_Can_Be_Started); //reset flag
 80013bc:	f000 ff10 	bl	80021e0 <Clear_Status_Bit>

	//DETERMINE WHAT TO SET THE RAW_START_VALUE AND BASE_PRESCALER TO BASED ON THE I/P CAPTURE VALUE
	//CHECK FOR PRIMALITY
	if(isPrime(interrupt_period_value) == YES){
 80013c0:	8828      	ldrh	r0, [r5, #0]
 80013c2:	b280      	uxth	r0, r0
 80013c4:	f000 fede 	bl	8002184 <isPrime>
 80013c8:	2801      	cmp	r0, #1
 80013ca:	d103      	bne.n	80013d4 <Input_Capture_Processing+0x28>

		interrupt_period_value += 1;
 80013cc:	882b      	ldrh	r3, [r5, #0]
 80013ce:	3301      	adds	r3, #1
 80013d0:	b29b      	uxth	r3, r3
 80013d2:	802b      	strh	r3, [r5, #0]
	}

	//START FINDING FACTORS
	uint32_t N = interrupt_period_value << 6; //calculate the N-value which is prescaler_meas * interrupt_period_meas. The measurement prescaler is used which is 64. (TIM2 has a prescaler of 64*512, but since we divide this value by 512, the prescaler is then just 64).
 80013d4:	2480      	movs	r4, #128	@ 0x80
 80013d6:	882e      	ldrh	r6, [r5, #0]
 80013d8:	0064      	lsls	r4, r4, #1
 80013da:	01b6      	lsls	r6, r6, #6

	for(uint8_t i = 0; i < 129; i++){ //check from period = 264 to 128 - there will be a prescaler for every non-prime value of N
 80013dc:	e003      	b.n	80013e6 <Input_Capture_Processing+0x3a>
 80013de:	3c01      	subs	r4, #1
 80013e0:	b2a4      	uxth	r4, r4
 80013e2:	2c7f      	cmp	r4, #127	@ 0x7f
 80013e4:	d00e      	beq.n	8001404 <Input_Capture_Processing+0x58>

		interrupt_period_value = 256 - i;
 80013e6:	802c      	strh	r4, [r5, #0]
		uint16_t remainder = N % interrupt_period_value;
 80013e8:	8829      	ldrh	r1, [r5, #0]
 80013ea:	0030      	movs	r0, r6
 80013ec:	b289      	uxth	r1, r1
 80013ee:	f7fe ff0f 	bl	8000210 <__aeabi_uidivmod>

		if(remainder == 0){ //check if no remainder -> integer
 80013f2:	2900      	cmp	r1, #0
 80013f4:	d1f3      	bne.n	80013de <Input_Capture_Processing+0x32>

			params_ptr->raw_prescaler = N / interrupt_period_value;
 80013f6:	8829      	ldrh	r1, [r5, #0]
 80013f8:	0030      	movs	r0, r6
 80013fa:	b289      	uxth	r1, r1
 80013fc:	f7fe fe82 	bl	8000104 <__udivsi3>
 8001400:	b280      	uxth	r0, r0
 8001402:	8378      	strh	r0, [r7, #26]
			break;
		}
	}

	params_ptr->raw_start_value = 256 - interrupt_period_value;
 8001404:	2380      	movs	r3, #128	@ 0x80
 8001406:	882a      	ldrh	r2, [r5, #0]
 8001408:	005b      	lsls	r3, r3, #1
 800140a:	1a9b      	subs	r3, r3, r2
 800140c:	b29b      	uxth	r3, r3

	Calculate_Next_Main_Oscillator_Values(params_ptr, (enum Next_Values_Processing_Mode)IP_CAPTURE_MODE);
 800140e:	2101      	movs	r1, #1
	params_ptr->raw_start_value = 256 - interrupt_period_value;
 8001410:	827b      	strh	r3, [r7, #18]
	Calculate_Next_Main_Oscillator_Values(params_ptr, (enum Next_Values_Processing_Mode)IP_CAPTURE_MODE);
 8001412:	0038      	movs	r0, r7
 8001414:	f000 f8fc 	bl	8001610 <Calculate_Next_Main_Oscillator_Values>
	Process_TIM16_Final_Start_Value_and_Final_Prescaler(params_ptr);
 8001418:	0038      	movs	r0, r7
 800141a:	f000 fd4d 	bl	8001eb8 <Process_TIM16_Final_Start_Value_and_Final_Prescaler>

	//HAL_GPIO_WritePin(MONITOR_GPIO_Port, MONITOR_Pin, 0);

	return 1;
}
 800141e:	2001      	movs	r0, #1
 8001420:	b003      	add	sp, #12
 8001422:	bdf0      	pop	{r4, r5, r6, r7, pc}
 8001424:	20000b84 	.word	0x20000b84

08001428 <Start_Input_Capture_Timer>:

uint8_t Start_Input_Capture_Timer(void){
 8001428:	b570      	push	{r4, r5, r6, lr}
	return ok;
}

uint8_t Start_IC_TIM(TIM_HandleTypeDef *TIM, uint32_t IC_TIM_channel){

	uint8_t ok_AND = HAL_TIM_Base_Start_IT(&htim2);
 800142a:	4d0a      	ldr	r5, [pc, #40]	@ (8001454 <Start_Input_Capture_Timer+0x2c>)
 800142c:	0028      	movs	r0, r5
 800142e:	f003 f823 	bl	8004478 <HAL_TIM_Base_Start_IT>
	ok_AND &= HAL_TIM_IC_Start_IT(&htim2, IC_TIM_channel);
 8001432:	2100      	movs	r1, #0
	uint8_t ok_AND = HAL_TIM_Base_Start_IT(&htim2);
 8001434:	0004      	movs	r4, r0
	ok_AND &= HAL_TIM_IC_Start_IT(&htim2, IC_TIM_channel);
 8001436:	0028      	movs	r0, r5
 8001438:	f003 fc12 	bl	8004c60 <HAL_TIM_IC_Start_IT>
 800143c:	4004      	ands	r4, r0
 800143e:	b2e4      	uxtb	r4, r4

	if(ok_AND != HAL_OK){
 8001440:	2c00      	cmp	r4, #0
 8001442:	d101      	bne.n	8001448 <Start_Input_Capture_Timer+0x20>
}
 8001444:	0020      	movs	r0, r4
 8001446:	bd70      	pop	{r4, r5, r6, pc}

		Error_Handler();
 8001448:	f7ff fc08 	bl	8000c5c <Error_Handler>
		Error_Handler();
 800144c:	f7ff fc06 	bl	8000c5c <Error_Handler>
 8001450:	e7f8      	b.n	8001444 <Start_Input_Capture_Timer+0x1c>
 8001452:	46c0      	nop			@ (mov r8, r8)
 8001454:	200007a0 	.word	0x200007a0

08001458 <Copy_Params_Structs>:
	}

	return ok_AND;
}

uint8_t Copy_Params_Structs(struct Params *src_ptr, struct Params *dst_ptr){
 8001458:	0003      	movs	r3, r0
 800145a:	b510      	push	{r4, lr}
 800145c:	0008      	movs	r0, r1

	*dst_ptr = *src_ptr;
 800145e:	2222      	movs	r2, #34	@ 0x22
 8001460:	0019      	movs	r1, r3
 8001462:	f005 fa79 	bl	8006958 <memcpy>

	return 1;
}
 8001466:	2001      	movs	r0, #1
 8001468:	bd10      	pop	{r4, pc}
 800146a:	46c0      	nop			@ (mov r8, r8)

0800146c <Start_Measurement_Reelapse_Timer>:

uint8_t Start_Measurement_Reelapse_Timer(void){
 800146c:	b510      	push	{r4, lr}

	Stop_OC_TIM(&htim3, TIM_CHANNEL_1);
 800146e:	4c09      	ldr	r4, [pc, #36]	@ (8001494 <Start_Measurement_Reelapse_Timer+0x28>)
 8001470:	2100      	movs	r1, #0
 8001472:	0020      	movs	r0, r4
 8001474:	f000 fe7c 	bl	8002170 <Stop_OC_TIM>
	__HAL_TIM_SET_COUNTER(&htim3, 0);
 8001478:	2300      	movs	r3, #0
 800147a:	6822      	ldr	r2, [r4, #0]
	__HAL_TIM_SET_COMPARE(&htim3, TIM_CHANNEL_1, interrupt_period);
	Start_OC_TIM(&htim3, TIM_CHANNEL_1);
 800147c:	2100      	movs	r1, #0
	__HAL_TIM_SET_COUNTER(&htim3, 0);
 800147e:	6253      	str	r3, [r2, #36]	@ 0x24
	__HAL_TIM_SET_COMPARE(&htim3, TIM_CHANNEL_1, interrupt_period);
 8001480:	4b05      	ldr	r3, [pc, #20]	@ (8001498 <Start_Measurement_Reelapse_Timer+0x2c>)
	Start_OC_TIM(&htim3, TIM_CHANNEL_1);
 8001482:	0020      	movs	r0, r4
	__HAL_TIM_SET_COMPARE(&htim3, TIM_CHANNEL_1, interrupt_period);
 8001484:	881b      	ldrh	r3, [r3, #0]
 8001486:	b29b      	uxth	r3, r3
 8001488:	6353      	str	r3, [r2, #52]	@ 0x34
	Start_OC_TIM(&htim3, TIM_CHANNEL_1);
 800148a:	f000 fe67 	bl	800215c <Start_OC_TIM>

	return 1;
}
 800148e:	2001      	movs	r0, #1
 8001490:	bd10      	pop	{r4, pc}
 8001492:	46c0      	nop			@ (mov r8, r8)
 8001494:	200006e4 	.word	0x200006e4
 8001498:	20000b78 	.word	0x20000b78

0800149c <Begin_Input_Capture_Measurement>:

uint8_t Begin_Input_Capture_Measurement(void){

	__HAL_TIM_SET_COUNTER(&htim2, 0); //begin measurement
 800149c:	2200      	movs	r2, #0
 800149e:	4b02      	ldr	r3, [pc, #8]	@ (80014a8 <Begin_Input_Capture_Measurement+0xc>)

	return 1;
}
 80014a0:	2001      	movs	r0, #1
	__HAL_TIM_SET_COUNTER(&htim2, 0); //begin measurement
 80014a2:	681b      	ldr	r3, [r3, #0]
 80014a4:	625a      	str	r2, [r3, #36]	@ 0x24
}
 80014a6:	4770      	bx	lr
 80014a8:	200007a0 	.word	0x200007a0

080014ac <main>:
//VARIABLE DEFINITIONS
volatile uint32_t statuses = 0; //set of all status bits (to reduce memory usage)
uint32_t idle_counter = 0;

int main(void)
{
 80014ac:	b5f8      	push	{r3, r4, r5, r6, r7, lr}
 80014ae:	46ce      	mov	lr, r9
 80014b0:	4647      	mov	r7, r8
 80014b2:	b580      	push	{r7, lr}
	//SYSTEM INIT
	System_Init();
 80014b4:	f7ff fbd4 	bl	8000c60 <System_Init>

	//STARTUP
	Startup();
 80014b8:	f000 f9ba 	bl	8001830 <Startup>
 80014bc:	4b23      	ldr	r3, [pc, #140]	@ (800154c <main+0xa0>)
 80014be:	4d24      	ldr	r5, [pc, #144]	@ (8001550 <main+0xa4>)
 80014c0:	4699      	mov	r9, r3
			//HAL_GPIO_WritePin(MONITOR_GPIO_Port, MONITOR_Pin, 0);
		}

		if(Get_Status_Bit(&statuses, Software_IP_CAP_Idle_Timer_Is_Running) == YES){

			if(idle_counter < IDLE_COUNT){
 80014c2:	23fa      	movs	r3, #250	@ 0xfa
 80014c4:	01db      	lsls	r3, r3, #7
 80014c6:	4698      	mov	r8, r3
 80014c8:	4c22      	ldr	r4, [pc, #136]	@ (8001554 <main+0xa8>)
 80014ca:	4f23      	ldr	r7, [pc, #140]	@ (8001558 <main+0xac>)
 80014cc:	4e23      	ldr	r6, [pc, #140]	@ (800155c <main+0xb0>)
		if(Get_Status_Bit(&statuses, Input_Capture_Processing_Can_Be_Started) == YES){
 80014ce:	2104      	movs	r1, #4
 80014d0:	0020      	movs	r0, r4
 80014d2:	f000 fe7b 	bl	80021cc <Get_Status_Bit>
 80014d6:	2801      	cmp	r0, #1
 80014d8:	d01c      	beq.n	8001514 <main+0x68>
		if(Get_Status_Bit(&statuses, Software_IP_CAP_Idle_Timer_Is_Running) == YES){
 80014da:	2140      	movs	r1, #64	@ 0x40
 80014dc:	0020      	movs	r0, r4
 80014de:	f000 fe75 	bl	80021cc <Get_Status_Bit>
 80014e2:	2801      	cmp	r0, #1
 80014e4:	d1f3      	bne.n	80014ce <main+0x22>
			if(idle_counter < IDLE_COUNT){
 80014e6:	682b      	ldr	r3, [r5, #0]
 80014e8:	4543      	cmp	r3, r8
 80014ea:	d221      	bcs.n	8001530 <main+0x84>

				if(IP_CAP_fsm.current_state != IDLE){
 80014ec:	464a      	mov	r2, r9
 80014ee:	7812      	ldrb	r2, [r2, #0]
 80014f0:	2a00      	cmp	r2, #0
 80014f2:	d027      	beq.n	8001544 <main+0x98>

					Clear_Status_Bit(&statuses, Software_IP_CAP_Idle_Timer_Is_Running);
 80014f4:	2140      	movs	r1, #64	@ 0x40
 80014f6:	0020      	movs	r0, r4
 80014f8:	f000 fe72 	bl	80021e0 <Clear_Status_Bit>
					Clear_Status_Bit(&statuses, Software_IP_CAP_Idle_Timer_Has_Timed_Out);
 80014fc:	2120      	movs	r1, #32
 80014fe:	0020      	movs	r0, r4
 8001500:	f000 fe6e 	bl	80021e0 <Clear_Status_Bit>
{
 8001504:	2300      	movs	r3, #0
					idle_counter = 0;
 8001506:	602b      	str	r3, [r5, #0]
		if(Get_Status_Bit(&statuses, Input_Capture_Processing_Can_Be_Started) == YES){
 8001508:	2104      	movs	r1, #4
 800150a:	0020      	movs	r0, r4
 800150c:	f000 fe5e 	bl	80021cc <Get_Status_Bit>
 8001510:	2801      	cmp	r0, #1
 8001512:	d1e2      	bne.n	80014da <main+0x2e>
			Input_Capture_Processing(interrupt_period, &params_to_be_loaded);
 8001514:	8838      	ldrh	r0, [r7, #0]
 8001516:	0031      	movs	r1, r6
 8001518:	b280      	uxth	r0, r0
 800151a:	f7ff ff47 	bl	80013ac <Input_Capture_Processing>
		if(Get_Status_Bit(&statuses, Software_IP_CAP_Idle_Timer_Is_Running) == YES){
 800151e:	2140      	movs	r1, #64	@ 0x40
 8001520:	0020      	movs	r0, r4
 8001522:	f000 fe53 	bl	80021cc <Get_Status_Bit>
 8001526:	2801      	cmp	r0, #1
 8001528:	d1d1      	bne.n	80014ce <main+0x22>
			if(idle_counter < IDLE_COUNT){
 800152a:	682b      	ldr	r3, [r5, #0]
 800152c:	4543      	cmp	r3, r8
 800152e:	d3dd      	bcc.n	80014ec <main+0x40>
					idle_counter++;
				}
			}
			else{

				Clear_Status_Bit(&statuses, Software_IP_CAP_Idle_Timer_Is_Running);
 8001530:	2140      	movs	r1, #64	@ 0x40
 8001532:	0020      	movs	r0, r4
 8001534:	f000 fe54 	bl	80021e0 <Clear_Status_Bit>
				Set_Status_Bit(&statuses, Software_IP_CAP_Idle_Timer_Has_Timed_Out);
 8001538:	2120      	movs	r1, #32
 800153a:	0020      	movs	r0, r4
 800153c:	f000 fe4c 	bl	80021d8 <Set_Status_Bit>
{
 8001540:	2300      	movs	r3, #0
 8001542:	e7e0      	b.n	8001506 <main+0x5a>
					idle_counter++;
 8001544:	3301      	adds	r3, #1
					idle_counter = 0;
 8001546:	602b      	str	r3, [r5, #0]
 8001548:	e7de      	b.n	8001508 <main+0x5c>
 800154a:	46c0      	nop			@ (mov r8, r8)
 800154c:	2000040c 	.word	0x2000040c
 8001550:	20000b80 	.word	0x20000b80
 8001554:	20000b84 	.word	0x20000b84
 8001558:	20000b78 	.word	0x20000b78
 800155c:	20000bac 	.word	0x20000bac

08001560 <Start_PWM_Gen_Timer_Main_and_Secondary_Oscillators>:
								.duty_delay_line_finish_offset = FINAL_INDEX + 1, //initial value is 512th index, one larger than the index of the final sample
								.duty_delay_line_read_pointer_offset = 0}; //determined in running

//FUNCTION DEFINITIONS
uint8_t Start_PWM_Gen_Timer_Main_and_Secondary_Oscillators(TIM_HandleTypeDef *TIM, uint32_t PWM_TIM_channel_1, uint32_t PWM_TIM_channel_2)
{
 8001560:	b5f8      	push	{r3, r4, r5, r6, r7, lr}
 8001562:	0016      	movs	r6, r2
 8001564:	0005      	movs	r5, r0
 8001566:	000f      	movs	r7, r1
	uint8_t ok_OR = 0;
	ok_OR |= HAL_TIM_Base_Start(TIM);
 8001568:	f002 ff58 	bl	800441c <HAL_TIM_Base_Start>
	ok_OR |= HAL_TIM_PWM_Start(TIM, PWM_TIM_channel_1); //start PWM
 800156c:	0039      	movs	r1, r7
	ok_OR |= HAL_TIM_Base_Start(TIM);
 800156e:	0004      	movs	r4, r0
	ok_OR |= HAL_TIM_PWM_Start(TIM, PWM_TIM_channel_1); //start PWM
 8001570:	0028      	movs	r0, r5
 8001572:	f003 fa45 	bl	8004a00 <HAL_TIM_PWM_Start>
	ok_OR |= HAL_TIM_PWM_Start(TIM, PWM_TIM_channel_2); //start PWM
 8001576:	0031      	movs	r1, r6
	ok_OR |= HAL_TIM_PWM_Start(TIM, PWM_TIM_channel_1); //start PWM
 8001578:	4304      	orrs	r4, r0
	ok_OR |= HAL_TIM_PWM_Start(TIM, PWM_TIM_channel_2); //start PWM
 800157a:	0028      	movs	r0, r5
 800157c:	f003 fa40 	bl	8004a00 <HAL_TIM_PWM_Start>
	ok_OR |= HAL_TIM_PWM_Start(TIM, PWM_TIM_channel_1); //start PWM
 8001580:	b2e4      	uxtb	r4, r4
	ok_OR |= HAL_TIM_PWM_Start(TIM, PWM_TIM_channel_2); //start PWM
 8001582:	4304      	orrs	r4, r0
 8001584:	b2e4      	uxtb	r4, r4

	if(ok_OR != HAL_OK){
 8001586:	2c00      	cmp	r4, #0
 8001588:	d101      	bne.n	800158e <Start_PWM_Gen_Timer_Main_and_Secondary_Oscillators+0x2e>

		Error_Handler();
	}

	return ok_OR;
}
 800158a:	0020      	movs	r0, r4
 800158c:	bdf8      	pop	{r3, r4, r5, r6, r7, pc}
		Error_Handler();
 800158e:	f7ff fb65 	bl	8000c5c <Error_Handler>
 8001592:	e7fa      	b.n	800158a <Start_PWM_Gen_Timer_Main_and_Secondary_Oscillators+0x2a>

08001594 <Start_Freq_Gen_Timer>:

uint8_t Start_Freq_Gen_Timer(void)
{
 8001594:	b510      	push	{r4, lr}
	uint8_t ok = Start_OC_TIM(&htim16, TIM_CHANNEL_1); //start freq. gen.
 8001596:	2100      	movs	r1, #0
 8001598:	4804      	ldr	r0, [pc, #16]	@ (80015ac <Start_Freq_Gen_Timer+0x18>)
 800159a:	f000 fddf 	bl	800215c <Start_OC_TIM>
 800159e:	1e04      	subs	r4, r0, #0

	if(ok != HAL_OK){
 80015a0:	d101      	bne.n	80015a6 <Start_Freq_Gen_Timer+0x12>

		Error_Handler();
	}

	return ok;
}
 80015a2:	0020      	movs	r0, r4
 80015a4:	bd10      	pop	{r4, pc}
		Error_Handler();
 80015a6:	f7ff fb59 	bl	8000c5c <Error_Handler>
 80015aa:	e7fa      	b.n	80015a2 <Start_Freq_Gen_Timer+0xe>
 80015ac:	2000085c 	.word	0x2000085c

080015b0 <Process_TIM16_Raw_Start_Value_and_Raw_Prescaler>:

	uint32_t speed_control = 0;
	uint8_t how_many_128 = 0;

    //speed_control = (speed_adc_10_bit/1024)*'range macro'
    speed_control = params_ptr->speed * NUMBER_OF_FREQUENCY_STEPS;
 80015b0:	8902      	ldrh	r2, [r0, #8]
 80015b2:	0093      	lsls	r3, r2, #2
 80015b4:	189b      	adds	r3, r3, r2
 80015b6:	019b      	lsls	r3, r3, #6
 80015b8:	189b      	adds	r3, r3, r2
 80015ba:	005b      	lsls	r3, r3, #1
 80015bc:	189b      	adds	r3, r3, r2
    speed_control = speed_control >> SPEED_ADC_RESOLUTION;

    how_many_128 = (uint8_t)(speed_control >> 7); //divide by 128, i.e. return how many 128s go into the speed_control
 80015be:	0c59      	lsrs	r1, r3, #17
    params_ptr->raw_start_value = (uint16_t)(speed_control - (uint16_t)(how_many_128 << 7)); //how_many_128*128
 80015c0:	b2ca      	uxtb	r2, r1
 80015c2:	01d2      	lsls	r2, r2, #7
    speed_control = speed_control >> SPEED_ADC_RESOLUTION;
 80015c4:	0a9b      	lsrs	r3, r3, #10
    params_ptr->raw_start_value = (uint16_t)(speed_control - (uint16_t)(how_many_128 << 7)); //how_many_128*128
 80015c6:	1a9b      	subs	r3, r3, r2
 80015c8:	b29b      	uxth	r3, r3
 80015ca:	8243      	strh	r3, [r0, #18]
    params_ptr->raw_prescaler = SLOWEST_SPEED_PRESCALER >> how_many_128;
 80015cc:	22ff      	movs	r2, #255	@ 0xff
 80015ce:	2380      	movs	r3, #128	@ 0x80
 80015d0:	400a      	ands	r2, r1
 80015d2:	00db      	lsls	r3, r3, #3
 80015d4:	4113      	asrs	r3, r2
 80015d6:	b29b      	uxth	r3, r3
 80015d8:	8343      	strh	r3, [r0, #26]

    return 1;
}
 80015da:	2001      	movs	r0, #1
 80015dc:	4770      	bx	lr
 80015de:	46c0      	nop			@ (mov r8, r8)

080015e0 <Set_Oscillator_Values>:
uint8_t Set_Oscillator_Values(struct Params* params_ptr){

	////////////////////////////////////////////////////////
	//SET THE CURRENT(prev) VALUES FOR THE MAIN OSCILLATOR//
	////////////////////////////////////////////////////////
	__HAL_TIM_SET_AUTORELOAD(&htim16, params_ptr->final_ARR);
 80015e0:	4909      	ldr	r1, [pc, #36]	@ (8001608 <Set_Oscillator_Values+0x28>)
 80015e2:	8b03      	ldrh	r3, [r0, #24]
 80015e4:	680a      	ldr	r2, [r1, #0]
 80015e6:	b29b      	uxth	r3, r3
 80015e8:	62d3      	str	r3, [r2, #44]	@ 0x2c
 80015ea:	8b03      	ldrh	r3, [r0, #24]
 80015ec:	60cb      	str	r3, [r1, #12]
	__HAL_TIM_SET_PRESCALER(&htim16, params_ptr->final_prescaler_minus_one); //have to take one off the divisor
 80015ee:	8bc3      	ldrh	r3, [r0, #30]
 80015f0:	b29b      	uxth	r3, r3
 80015f2:	6293      	str	r3, [r2, #40]	@ 0x28

	__HAL_TIM_SET_COMPARE(&htim1, TIM_CHANNEL_2, params_ptr->prev_duty); //updates the CCR register of TIM14, which sets duty, i.e. the ON time relative to the total period which is set by the ARR.
 80015f4:	4a05      	ldr	r2, [pc, #20]	@ (800160c <Set_Oscillator_Values+0x2c>)
 80015f6:	8843      	ldrh	r3, [r0, #2]
 80015f8:	6812      	ldr	r2, [r2, #0]
 80015fa:	b29b      	uxth	r3, r3
 80015fc:	6393      	str	r3, [r2, #56]	@ 0x38

	/////////////////////////////////////////////////////////////
	//SET THE CURRENT(prev) VALUES FOR THE SECONDARY OSCILLATOR//
	/////////////////////////////////////////////////////////////
	__HAL_TIM_SET_COMPARE(&htim1, TIM_CHANNEL_4, params_ptr->duty_delayed); //updates the CCR register of TIM14, which sets duty, i.e. the ON time relative to the total period which is set by the ARR.
 80015fe:	8883      	ldrh	r3, [r0, #4]

	return 1;
}
 8001600:	2001      	movs	r0, #1
	__HAL_TIM_SET_COMPARE(&htim1, TIM_CHANNEL_4, params_ptr->duty_delayed); //updates the CCR register of TIM14, which sets duty, i.e. the ON time relative to the total period which is set by the ARR.
 8001602:	b29b      	uxth	r3, r3
 8001604:	6413      	str	r3, [r2, #64]	@ 0x40
}
 8001606:	4770      	bx	lr
 8001608:	2000085c 	.word	0x2000085c
 800160c:	20000628 	.word	0x20000628

08001610 <Calculate_Next_Main_Oscillator_Values>:

uint8_t Calculate_Next_Main_Oscillator_Values(struct Params* params_ptr, enum Next_Values_Processing_Mode mode){

	if(mode == REGULAR_MODE){
 8001610:	2900      	cmp	r1, #0
 8001612:	d11e      	bne.n	8001652 <Calculate_Next_Main_Oscillator_Values+0x42>

		params_ptr->index++;
 8001614:	89c3      	ldrh	r3, [r0, #14]
 8001616:	3301      	adds	r3, #1
 8001618:	b29b      	uxth	r3, r3
 800161a:	81c3      	strh	r3, [r0, #14]

		if(params_ptr->index == FINAL_INDEX + 1){
 800161c:	2380      	movs	r3, #128	@ 0x80
 800161e:	89c2      	ldrh	r2, [r0, #14]
 8001620:	009b      	lsls	r3, r3, #2
 8001622:	429a      	cmp	r2, r3
 8001624:	d053      	beq.n	80016ce <Calculate_Next_Main_Oscillator_Values+0xbe>
			params_ptr->index = 0;
		}

		if(params_ptr->index == FIRST_QUADRANT_START_INDEX){
 8001626:	89c3      	ldrh	r3, [r0, #14]
 8001628:	b29a      	uxth	r2, r3
 800162a:	2b00      	cmp	r3, #0
 800162c:	d04c      	beq.n	80016c8 <Calculate_Next_Main_Oscillator_Values+0xb8>
			params_ptr->quadrant = FIRST_QUADRANT;
			params_ptr->halfcycle = FIRST_HALFCYCLE;
		}
		else if(params_ptr->index == SECOND_QUADRANT_START_INDEX){
 800162e:	89c3      	ldrh	r3, [r0, #14]
 8001630:	2b80      	cmp	r3, #128	@ 0x80
 8001632:	d04e      	beq.n	80016d2 <Calculate_Next_Main_Oscillator_Values+0xc2>
			params_ptr->quadrant = SECOND_QUADRANT;
			params_ptr->halfcycle = FIRST_HALFCYCLE;
		}
		else if(params_ptr->index == THIRD_QUADRANT_START_INDEX){
 8001634:	2380      	movs	r3, #128	@ 0x80
 8001636:	89c2      	ldrh	r2, [r0, #14]
 8001638:	005b      	lsls	r3, r3, #1
 800163a:	429a      	cmp	r2, r3
 800163c:	d051      	beq.n	80016e2 <Calculate_Next_Main_Oscillator_Values+0xd2>
			params_ptr->quadrant = FIRST_QUADRANT;
			params_ptr->halfcycle = SECOND_HALFCYCLE;
		}
		else if(params_ptr->index == FOURTH_QUADRANT_START_INDEX){
 800163e:	23c0      	movs	r3, #192	@ 0xc0
 8001640:	89c2      	ldrh	r2, [r0, #14]
 8001642:	005b      	lsls	r3, r3, #1
 8001644:	429a      	cmp	r2, r3
 8001646:	d108      	bne.n	800165a <Calculate_Next_Main_Oscillator_Values+0x4a>
			params_ptr->quadrant = SECOND_QUADRANT;
 8001648:	3b80      	subs	r3, #128	@ 0x80
 800164a:	3bff      	subs	r3, #255	@ 0xff
 800164c:	7443      	strb	r3, [r0, #17]
			params_ptr->halfcycle = SECOND_HALFCYCLE;
 800164e:	7403      	strb	r3, [r0, #16]
 8001650:	e003      	b.n	800165a <Calculate_Next_Main_Oscillator_Values+0x4a>
		}
	}
	else if(mode == IP_CAPTURE_MODE){
 8001652:	2901      	cmp	r1, #1
 8001654:	d050      	beq.n	80016f8 <Calculate_Next_Main_Oscillator_Values+0xe8>
			params_ptr->index = SQUARE_WAVE_TEMPO_APEX_INDEX;
			params_ptr->quadrant = CURRENT_QUADRANT_SQUARE_SYNCED;
			params_ptr->halfcycle = CURRENT_HALFCYCLE_SQUARE_SYNCED;
		}
	}
	else if(mode == STARTUP_MODE){
 8001656:	2902      	cmp	r1, #2
 8001658:	d032      	beq.n	80016c0 <Calculate_Next_Main_Oscillator_Values+0xb0>
			params_ptr->halfcycle = FIRST_HALFCYCLE;
		}
	}

	//ONCE INDEX IS SET, FIND THE DUTY VALUE
	if(params_ptr->waveshape == TRIANGLE_MODE){
 800165a:	7983      	ldrb	r3, [r0, #6]
 800165c:	2b00      	cmp	r3, #0
 800165e:	d117      	bne.n	8001690 <Calculate_Next_Main_Oscillator_Values+0x80>
		params_ptr->duty = tri_wavetable[params_ptr->index];
 8001660:	89c2      	ldrh	r2, [r0, #14]
 8001662:	4b2f      	ldr	r3, [pc, #188]	@ (8001720 <Calculate_Next_Main_Oscillator_Values+0x110>)
 8001664:	0052      	lsls	r2, r2, #1
 8001666:	5ad3      	ldrh	r3, [r2, r3]
 8001668:	8003      	strh	r3, [r0, #0]

	//APPLY DEPTH
	#if DEPTH_ON_OR_OFF == 1

		//Apply Depth
		if(params_ptr->depth == ((1 << DEPTH_ADC_RESOLUTION) - 1)){ //255
 800166a:	7a83      	ldrb	r3, [r0, #10]
 800166c:	2b7f      	cmp	r3, #127	@ 0x7f
 800166e:	d01e      	beq.n	80016ae <Calculate_Next_Main_Oscillator_Values+0x9e>
			params_ptr->duty = PWM_DUTY_VALUE_MAX - params_ptr->duty;
		}
		else if(params_ptr->depth != 0){
 8001670:	7a83      	ldrb	r3, [r0, #10]
 8001672:	2b00      	cmp	r3, #0
 8001674:	d021      	beq.n	80016ba <Calculate_Next_Main_Oscillator_Values+0xaa>

			//duty = 1023 - duty*(current_depth >> 8);
			uint32_t multiply_product = 0;
			multiply_product = (params_ptr->duty) * (params_ptr->depth);
 8001676:	8803      	ldrh	r3, [r0, #0]
 8001678:	7a82      	ldrb	r2, [r0, #10]
 800167a:	435a      	muls	r2, r3
			params_ptr->duty = PWM_DUTY_VALUE_MAX - (multiply_product >> DEPTH_ADC_RESOLUTION);
 800167c:	4b29      	ldr	r3, [pc, #164]	@ (8001724 <Calculate_Next_Main_Oscillator_Values+0x114>)
 800167e:	09d2      	lsrs	r2, r2, #7
 8001680:	1a9b      	subs	r3, r3, r2
 8001682:	b29b      	uxth	r3, r3
 8001684:	8003      	strh	r3, [r0, #0]
		}

	#endif

	//SET THE NEXT VALUE FOR THE MAIN OSCILLATOR
	params_ptr->prev_duty = params_ptr->duty;
 8001686:	8803      	ldrh	r3, [r0, #0]
 8001688:	b29b      	uxth	r3, r3
 800168a:	8043      	strh	r3, [r0, #2]

	return 1;
}
 800168c:	2001      	movs	r0, #1
 800168e:	4770      	bx	lr
	else if(params_ptr->waveshape == SINE_MODE){
 8001690:	7983      	ldrb	r3, [r0, #6]
 8001692:	2b01      	cmp	r3, #1
 8001694:	d02a      	beq.n	80016ec <Calculate_Next_Main_Oscillator_Values+0xdc>
	else if((params_ptr->waveshape == SQUARE_MODE) && (params_ptr->index < THIRD_QUADRANT_START_INDEX)){
 8001696:	7983      	ldrb	r3, [r0, #6]
 8001698:	2b02      	cmp	r3, #2
 800169a:	d03a      	beq.n	8001712 <Calculate_Next_Main_Oscillator_Values+0x102>
	else if((params_ptr->waveshape == SQUARE_MODE) && (params_ptr->index >= THIRD_QUADRANT_START_INDEX)){
 800169c:	7983      	ldrb	r3, [r0, #6]
 800169e:	2b02      	cmp	r3, #2
 80016a0:	d1e3      	bne.n	800166a <Calculate_Next_Main_Oscillator_Values+0x5a>
 80016a2:	89c3      	ldrh	r3, [r0, #14]
 80016a4:	2bff      	cmp	r3, #255	@ 0xff
 80016a6:	d9e0      	bls.n	800166a <Calculate_Next_Main_Oscillator_Values+0x5a>
		params_ptr->duty = PWM_DUTY_VALUE_MIN;
 80016a8:	2300      	movs	r3, #0
 80016aa:	8003      	strh	r3, [r0, #0]
 80016ac:	e7dd      	b.n	800166a <Calculate_Next_Main_Oscillator_Values+0x5a>
			params_ptr->duty = PWM_DUTY_VALUE_MAX - params_ptr->duty;
 80016ae:	8802      	ldrh	r2, [r0, #0]
 80016b0:	4b1c      	ldr	r3, [pc, #112]	@ (8001724 <Calculate_Next_Main_Oscillator_Values+0x114>)
 80016b2:	1a9b      	subs	r3, r3, r2
 80016b4:	b29b      	uxth	r3, r3
 80016b6:	8003      	strh	r3, [r0, #0]
 80016b8:	e7e5      	b.n	8001686 <Calculate_Next_Main_Oscillator_Values+0x76>
			params_ptr->duty = PWM_DUTY_VALUE_MAX; //if depth is 0, just output 1023
 80016ba:	4b1a      	ldr	r3, [pc, #104]	@ (8001724 <Calculate_Next_Main_Oscillator_Values+0x114>)
 80016bc:	8003      	strh	r3, [r0, #0]
 80016be:	e7e2      	b.n	8001686 <Calculate_Next_Main_Oscillator_Values+0x76>
		if(params_ptr->index == FIRST_QUADRANT_START_INDEX){
 80016c0:	89c3      	ldrh	r3, [r0, #14]
 80016c2:	b29a      	uxth	r2, r3
 80016c4:	2b00      	cmp	r3, #0
 80016c6:	d1c8      	bne.n	800165a <Calculate_Next_Main_Oscillator_Values+0x4a>
			params_ptr->quadrant = FIRST_QUADRANT;
 80016c8:	7442      	strb	r2, [r0, #17]
			params_ptr->halfcycle = FIRST_HALFCYCLE;
 80016ca:	7402      	strb	r2, [r0, #16]
 80016cc:	e7c5      	b.n	800165a <Calculate_Next_Main_Oscillator_Values+0x4a>
			params_ptr->index = 0;
 80016ce:	81c1      	strh	r1, [r0, #14]
 80016d0:	e7a9      	b.n	8001626 <Calculate_Next_Main_Oscillator_Values+0x16>
			params_ptr->quadrant = SECOND_QUADRANT;
 80016d2:	3b7f      	subs	r3, #127	@ 0x7f
 80016d4:	7443      	strb	r3, [r0, #17]
			params_ptr->halfcycle = FIRST_HALFCYCLE;
 80016d6:	2300      	movs	r3, #0
 80016d8:	7403      	strb	r3, [r0, #16]
 80016da:	e7be      	b.n	800165a <Calculate_Next_Main_Oscillator_Values+0x4a>
			params_ptr->index = SINE_OR_TRIANGLE_WAVE_TEMPO_PERCEIVED_APEX_INDEX;
 80016dc:	23a7      	movs	r3, #167	@ 0xa7
 80016de:	005b      	lsls	r3, r3, #1
 80016e0:	81c3      	strh	r3, [r0, #14]
			params_ptr->quadrant = CURRENT_QUADRANT_SINE_OR_TRI_SYNCED;
 80016e2:	2300      	movs	r3, #0
 80016e4:	7443      	strb	r3, [r0, #17]
			params_ptr->halfcycle = CURRENT_HALFCYCLE_SINE_OR_TRI_SYNCED;
 80016e6:	3301      	adds	r3, #1
 80016e8:	7403      	strb	r3, [r0, #16]
 80016ea:	e7b6      	b.n	800165a <Calculate_Next_Main_Oscillator_Values+0x4a>
		params_ptr->duty = sine_wavetable[params_ptr->index];
 80016ec:	89c2      	ldrh	r2, [r0, #14]
 80016ee:	4b0e      	ldr	r3, [pc, #56]	@ (8001728 <Calculate_Next_Main_Oscillator_Values+0x118>)
 80016f0:	0052      	lsls	r2, r2, #1
 80016f2:	5ad3      	ldrh	r3, [r2, r3]
 80016f4:	8003      	strh	r3, [r0, #0]
 80016f6:	e7b8      	b.n	800166a <Calculate_Next_Main_Oscillator_Values+0x5a>
		if(params_ptr->waveshape == SINE_MODE || params_ptr->waveshape == TRIANGLE_MODE){
 80016f8:	7983      	ldrb	r3, [r0, #6]
 80016fa:	2b01      	cmp	r3, #1
 80016fc:	d0ee      	beq.n	80016dc <Calculate_Next_Main_Oscillator_Values+0xcc>
 80016fe:	7983      	ldrb	r3, [r0, #6]
 8001700:	2b00      	cmp	r3, #0
 8001702:	d0eb      	beq.n	80016dc <Calculate_Next_Main_Oscillator_Values+0xcc>
			params_ptr->index = SQUARE_WAVE_TEMPO_APEX_INDEX;
 8001704:	2380      	movs	r3, #128	@ 0x80
 8001706:	005b      	lsls	r3, r3, #1
 8001708:	81c3      	strh	r3, [r0, #14]
			params_ptr->quadrant = CURRENT_QUADRANT_SQUARE_SYNCED;
 800170a:	2300      	movs	r3, #0
 800170c:	7443      	strb	r3, [r0, #17]
			params_ptr->halfcycle = CURRENT_HALFCYCLE_SQUARE_SYNCED;
 800170e:	7401      	strb	r1, [r0, #16]
 8001710:	e7a3      	b.n	800165a <Calculate_Next_Main_Oscillator_Values+0x4a>
	else if((params_ptr->waveshape == SQUARE_MODE) && (params_ptr->index < THIRD_QUADRANT_START_INDEX)){
 8001712:	89c3      	ldrh	r3, [r0, #14]
 8001714:	2bff      	cmp	r3, #255	@ 0xff
 8001716:	d8c1      	bhi.n	800169c <Calculate_Next_Main_Oscillator_Values+0x8c>
		params_ptr->duty = PWM_DUTY_VALUE_MAX;
 8001718:	4b02      	ldr	r3, [pc, #8]	@ (8001724 <Calculate_Next_Main_Oscillator_Values+0x114>)
 800171a:	8003      	strh	r3, [r0, #0]
 800171c:	e7a5      	b.n	800166a <Calculate_Next_Main_Oscillator_Values+0x5a>
 800171e:	46c0      	nop			@ (mov r8, r8)
 8001720:	08006988 	.word	0x08006988
 8001724:	000003ff 	.word	0x000003ff
 8001728:	08006d88 	.word	0x08006d88

0800172c <Write_Next_Main_Oscillator_Values_to_Delay_Line>:

uint8_t Write_Next_Main_Oscillator_Values_to_Delay_Line(struct Params* params_ptr, struct Delay_Line* delay_line_ptr){
 800172c:	b530      	push	{r4, r5, lr}

	//STORE THE VALUES IN THE APPROPRIATE '0TH - 1' INDEX RELATIVE TO THE START POINTER
		if(delay_line_ptr->duty_delay_line_start_offset != 0){
 800172e:	4b29      	ldr	r3, [pc, #164]	@ (80017d4 <Write_Next_Main_Oscillator_Values_to_Delay_Line+0xa8>)
 8001730:	5aca      	ldrh	r2, [r1, r3]
 8001732:	2a00      	cmp	r2, #0
 8001734:	d027      	beq.n	8001786 <Write_Next_Main_Oscillator_Values_to_Delay_Line+0x5a>
			delay_line_ptr->duty_delay_line_storage_array[delay_line_ptr->duty_delay_line_start_offset - 1] = params_ptr->duty;
 8001736:	5acb      	ldrh	r3, [r1, r3]
 8001738:	8802      	ldrh	r2, [r0, #0]
 800173a:	3b01      	subs	r3, #1
 800173c:	b292      	uxth	r2, r2
 800173e:	005b      	lsls	r3, r3, #1
 8001740:	525a      	strh	r2, [r3, r1]
		else{
			delay_line_ptr->duty_delay_line_storage_array[FINAL_INDEX + 1] = params_ptr->duty;
		}

		//DECREMENT THE START AND FINISH POINTERS
		if(delay_line_ptr->duty_delay_line_start_offset == 0){
 8001742:	4b24      	ldr	r3, [pc, #144]	@ (80017d4 <Write_Next_Main_Oscillator_Values_to_Delay_Line+0xa8>)
 8001744:	5aca      	ldrh	r2, [r1, r3]
 8001746:	2a00      	cmp	r2, #0
 8001748:	d126      	bne.n	8001798 <Write_Next_Main_Oscillator_Values_to_Delay_Line+0x6c>
			delay_line_ptr->duty_delay_line_start_offset = FINAL_INDEX + 1;
 800174a:	2280      	movs	r2, #128	@ 0x80
 800174c:	0092      	lsls	r2, r2, #2
 800174e:	52ca      	strh	r2, [r1, r3]
			delay_line_ptr->duty_delay_line_finish_offset = delay_line_ptr->duty_delay_line_finish_offset - 1;
 8001750:	4a21      	ldr	r2, [pc, #132]	@ (80017d8 <Write_Next_Main_Oscillator_Values_to_Delay_Line+0xac>)
 8001752:	5a8b      	ldrh	r3, [r1, r2]
 8001754:	3b01      	subs	r3, #1
 8001756:	b29b      	uxth	r3, r3
 8001758:	528b      	strh	r3, [r1, r2]
			delay_line_ptr->duty_delay_line_start_offset = delay_line_ptr->duty_delay_line_start_offset - 1;
			delay_line_ptr->duty_delay_line_finish_offset = delay_line_ptr->duty_delay_line_finish_offset - 1;
		}

		//DETERMINE THE DELAYED WAVE'S VALUES
		if(delay_line_ptr->duty_delay_line_start_offset + delay_line_ptr->duty_delay_line_read_pointer_offset > FINAL_INDEX + 1){ //if the desired starting index falls off the end of the array
 800175a:	4c1e      	ldr	r4, [pc, #120]	@ (80017d4 <Write_Next_Main_Oscillator_Values_to_Delay_Line+0xa8>)
 800175c:	4a1f      	ldr	r2, [pc, #124]	@ (80017dc <Write_Next_Main_Oscillator_Values_to_Delay_Line+0xb0>)
 800175e:	5b0b      	ldrh	r3, [r1, r4]
 8001760:	5a8d      	ldrh	r5, [r1, r2]
 8001762:	195b      	adds	r3, r3, r5
 8001764:	2580      	movs	r5, #128	@ 0x80
 8001766:	00ad      	lsls	r5, r5, #2
 8001768:	42ab      	cmp	r3, r5
 800176a:	dd21      	ble.n	80017b0 <Write_Next_Main_Oscillator_Values_to_Delay_Line+0x84>
			params_ptr->duty_delayed = *(delay_line_ptr->duty_delay_line_storage_array + (delay_line_ptr->duty_delay_line_start_offset + delay_line_ptr->duty_delay_line_read_pointer_offset - (FINAL_INDEX + 1)));
 800176c:	5b0b      	ldrh	r3, [r1, r4]
 800176e:	5a8a      	ldrh	r2, [r1, r2]
 8001770:	189b      	adds	r3, r3, r2
 8001772:	4a1b      	ldr	r2, [pc, #108]	@ (80017e0 <Write_Next_Main_Oscillator_Values_to_Delay_Line+0xb4>)
 8001774:	4694      	mov	ip, r2
 8001776:	4463      	add	r3, ip
 8001778:	005b      	lsls	r3, r3, #1
 800177a:	18cb      	adds	r3, r1, r3
 800177c:	881b      	ldrh	r3, [r3, #0]
 800177e:	b29b      	uxth	r3, r3
 8001780:	8083      	strh	r3, [r0, #4]
		else{
			params_ptr->duty_delayed = *(delay_line_ptr->duty_delay_line_storage_array + delay_line_ptr->duty_delay_line_start_offset + delay_line_ptr->duty_delay_line_read_pointer_offset);
		}

	return 1;
}
 8001782:	2001      	movs	r0, #1
 8001784:	bd30      	pop	{r4, r5, pc}
			delay_line_ptr->duty_delay_line_storage_array[FINAL_INDEX + 1] = params_ptr->duty;
 8001786:	2280      	movs	r2, #128	@ 0x80
 8001788:	8803      	ldrh	r3, [r0, #0]
 800178a:	00d2      	lsls	r2, r2, #3
 800178c:	b29b      	uxth	r3, r3
 800178e:	528b      	strh	r3, [r1, r2]
		if(delay_line_ptr->duty_delay_line_start_offset == 0){
 8001790:	4b10      	ldr	r3, [pc, #64]	@ (80017d4 <Write_Next_Main_Oscillator_Values_to_Delay_Line+0xa8>)
 8001792:	5aca      	ldrh	r2, [r1, r3]
 8001794:	2a00      	cmp	r2, #0
 8001796:	d0d8      	beq.n	800174a <Write_Next_Main_Oscillator_Values_to_Delay_Line+0x1e>
		else if(delay_line_ptr->duty_delay_line_finish_offset == 0){
 8001798:	4a0f      	ldr	r2, [pc, #60]	@ (80017d8 <Write_Next_Main_Oscillator_Values_to_Delay_Line+0xac>)
 800179a:	5a8c      	ldrh	r4, [r1, r2]
 800179c:	2c00      	cmp	r4, #0
 800179e:	d110      	bne.n	80017c2 <Write_Next_Main_Oscillator_Values_to_Delay_Line+0x96>
			delay_line_ptr->duty_delay_line_finish_offset = FINAL_INDEX + 1;
 80017a0:	2480      	movs	r4, #128	@ 0x80
 80017a2:	00a4      	lsls	r4, r4, #2
 80017a4:	528c      	strh	r4, [r1, r2]
			delay_line_ptr->duty_delay_line_start_offset = delay_line_ptr->duty_delay_line_start_offset - 1;
 80017a6:	5aca      	ldrh	r2, [r1, r3]
 80017a8:	3a01      	subs	r2, #1
 80017aa:	b292      	uxth	r2, r2
 80017ac:	52ca      	strh	r2, [r1, r3]
 80017ae:	e7d4      	b.n	800175a <Write_Next_Main_Oscillator_Values_to_Delay_Line+0x2e>
			params_ptr->duty_delayed = *(delay_line_ptr->duty_delay_line_storage_array + delay_line_ptr->duty_delay_line_start_offset + delay_line_ptr->duty_delay_line_read_pointer_offset);
 80017b0:	5b0b      	ldrh	r3, [r1, r4]
 80017b2:	5a8a      	ldrh	r2, [r1, r2]
 80017b4:	189b      	adds	r3, r3, r2
 80017b6:	005b      	lsls	r3, r3, #1
 80017b8:	18c9      	adds	r1, r1, r3
 80017ba:	880b      	ldrh	r3, [r1, #0]
 80017bc:	b29b      	uxth	r3, r3
 80017be:	8083      	strh	r3, [r0, #4]
 80017c0:	e7df      	b.n	8001782 <Write_Next_Main_Oscillator_Values_to_Delay_Line+0x56>
			delay_line_ptr->duty_delay_line_start_offset = delay_line_ptr->duty_delay_line_start_offset - 1;
 80017c2:	5acc      	ldrh	r4, [r1, r3]
 80017c4:	3c01      	subs	r4, #1
 80017c6:	b2a4      	uxth	r4, r4
 80017c8:	52cc      	strh	r4, [r1, r3]
			delay_line_ptr->duty_delay_line_finish_offset = delay_line_ptr->duty_delay_line_finish_offset - 1;
 80017ca:	5a8b      	ldrh	r3, [r1, r2]
 80017cc:	3b01      	subs	r3, #1
 80017ce:	b29b      	uxth	r3, r3
 80017d0:	528b      	strh	r3, [r1, r2]
 80017d2:	e7c2      	b.n	800175a <Write_Next_Main_Oscillator_Values_to_Delay_Line+0x2e>
 80017d4:	00000402 	.word	0x00000402
 80017d8:	00000404 	.word	0x00000404
 80017dc:	00000406 	.word	0x00000406
 80017e0:	7ffffe00 	.word	0x7ffffe00

080017e4 <Process_ADC_Conversion_Values>:

uint8_t Process_ADC_Conversion_Values(struct Params* params_ptr, struct Delay_Line* delay_line_ptr, volatile uint16_t* ADCResultsDMA_ptr){

	//GET WAVESHAPE
	uint16_t ADC_result = ADCResultsDMA_ptr[WAVESHAPE_ADC_RESULT_INDEX] >> 5; //set ADC_Result to waveshape index value, truncate to 7-bit
 80017e4:	8813      	ldrh	r3, [r2, #0]
 80017e6:	095b      	lsrs	r3, r3, #5

	if(ADC_result <= TRIANGLE_MODE_ADC_THRESHOLD){
 80017e8:	2b2a      	cmp	r3, #42	@ 0x2a
 80017ea:	d814      	bhi.n	8001816 <Process_ADC_Conversion_Values+0x32>
		params_ptr->waveshape = TRIANGLE_MODE; //triangle wave
 80017ec:	2300      	movs	r3, #0
 80017ee:	7183      	strb	r3, [r0, #6]
	else if (ADC_result <= SQUARE_MODE_ADC_THRESHOLD){
		params_ptr->waveshape = SQUARE_MODE; //square wave
	}

	//GET SPEED
	uint16_t temp_speed = ADCResultsDMA_ptr[SPEED_ADC_RESULT_INDEX] >> 5; //truncate to 7-bit
 80017f0:	8853      	ldrh	r3, [r2, #2]
 80017f2:	095b      	lsrs	r3, r3, #5
	temp_speed <<= 3; //convert to 10-bit
 80017f4:	00db      	lsls	r3, r3, #3
	params_ptr->speed = temp_speed;
 80017f6:	8103      	strh	r3, [r0, #8]

	//GET DEPTH
	#if DEPTH_ON_OR_OFF == ON

		uint8_t temp_depth = ADCResultsDMA_ptr[DEPTH_ADC_RESULT_INDEX] >> 5; //truncate to 7-bit
 80017f8:	8893      	ldrh	r3, [r2, #4]
 80017fa:	095b      	lsrs	r3, r3, #5
 80017fc:	b2db      	uxtb	r3, r3
		params_ptr->depth = temp_depth;
 80017fe:	7283      	strb	r3, [r0, #10]
	#endif

	//GET SYMMETRY
	#if SYMMETRY_ON_OR_OFF == ON

		uint16_t temp_symmetry = ADCResultsDMA_ptr[SYMMETRY_ADC_RESULT_INDEX] >> 5; //truncate to 7-bit
 8001800:	88d3      	ldrh	r3, [r2, #6]
 8001802:	095b      	lsrs	r3, r3, #5
		temp_symmetry <<= 1; //convert to 8-bit
 8001804:	005b      	lsls	r3, r3, #1
		params_ptr->symmetry = temp_symmetry;
 8001806:	8183      	strh	r3, [r0, #12]

	#endif

	//GET DELAY LINE READ POINTER OFFSET

	uint16_t temp_delay = ADCResultsDMA_ptr[DUTY_DELAY_LINE_READ_POINTER_OFFSET_ADC_RESULT_INDEX] >> 5; //truncate to 7-bit
 8001808:	8913      	ldrh	r3, [r2, #8]
	temp_delay <<= 2; //convert to 9-bit
	delay_line_ptr->duty_delay_line_read_pointer_offset = temp_delay;
 800180a:	4a08      	ldr	r2, [pc, #32]	@ (800182c <Process_ADC_Conversion_Values+0x48>)
	uint16_t temp_delay = ADCResultsDMA_ptr[DUTY_DELAY_LINE_READ_POINTER_OFFSET_ADC_RESULT_INDEX] >> 5; //truncate to 7-bit
 800180c:	095b      	lsrs	r3, r3, #5
	temp_delay <<= 2; //convert to 9-bit
 800180e:	009b      	lsls	r3, r3, #2

	return 1;
}
 8001810:	2001      	movs	r0, #1
	delay_line_ptr->duty_delay_line_read_pointer_offset = temp_delay;
 8001812:	528b      	strh	r3, [r1, r2]
}
 8001814:	4770      	bx	lr
	else if (ADC_result <= SINE_MODE_ADC_THRESHOLD){
 8001816:	2b55      	cmp	r3, #85	@ 0x55
 8001818:	d802      	bhi.n	8001820 <Process_ADC_Conversion_Values+0x3c>
		params_ptr->waveshape = SINE_MODE; //sine wave
 800181a:	2301      	movs	r3, #1
 800181c:	7183      	strb	r3, [r0, #6]
 800181e:	e7e7      	b.n	80017f0 <Process_ADC_Conversion_Values+0xc>
	else if (ADC_result <= SQUARE_MODE_ADC_THRESHOLD){
 8001820:	2b7f      	cmp	r3, #127	@ 0x7f
 8001822:	d8e5      	bhi.n	80017f0 <Process_ADC_Conversion_Values+0xc>
		params_ptr->waveshape = SQUARE_MODE; //square wave
 8001824:	2302      	movs	r3, #2
 8001826:	7183      	strb	r3, [r0, #6]
 8001828:	e7e2      	b.n	80017f0 <Process_ADC_Conversion_Values+0xc>
 800182a:	46c0      	nop			@ (mov r8, r8)
 800182c:	00000406 	.word	0x00000406

08001830 <Startup>:
#include "startup.h"

#include "stm32g0xx_ll_lptim.h"

uint8_t Startup(void){
 8001830:	b570      	push	{r4, r5, r6, lr}

	HAL_NVIC_DisableIRQ(EXTI4_15_IRQn);
 8001832:	2007      	movs	r0, #7
 8001834:	f001 faf4 	bl	8002e20 <HAL_NVIC_DisableIRQ>

	__HAL_TIM_ENABLE_IT(&htim2, TIM_IT_UPDATE); //make sure the overflow (update) interrupt is enabled for TIM2
 8001838:	2101      	movs	r1, #1
 800183a:	4b35      	ldr	r3, [pc, #212]	@ (8001910 <Startup+0xe0>)
	__HAL_TIM_ENABLE_IT(&htim16, TIM_IT_UPDATE); //make sure the overflow (update) interrupt is enabled for TIM16


	//SET DEFAULT PIN STATES
	HAL_GPIO_WritePin(SW_OUT_GPIO_Port, SW_OUT_Pin, 1); //latch high the debounced o/p
 800183c:	20a0      	movs	r0, #160	@ 0xa0
	__HAL_TIM_ENABLE_IT(&htim2, TIM_IT_UPDATE); //make sure the overflow (update) interrupt is enabled for TIM2
 800183e:	681a      	ldr	r2, [r3, #0]
	HAL_GPIO_WritePin(SW_OUT_GPIO_Port, SW_OUT_Pin, 1); //latch high the debounced o/p
 8001840:	05c0      	lsls	r0, r0, #23
	__HAL_TIM_ENABLE_IT(&htim2, TIM_IT_UPDATE); //make sure the overflow (update) interrupt is enabled for TIM2
 8001842:	68d3      	ldr	r3, [r2, #12]
 8001844:	430b      	orrs	r3, r1
 8001846:	60d3      	str	r3, [r2, #12]
	__HAL_TIM_ENABLE_IT(&htim16, TIM_IT_UPDATE); //make sure the overflow (update) interrupt is enabled for TIM16
 8001848:	4b32      	ldr	r3, [pc, #200]	@ (8001914 <Startup+0xe4>)
 800184a:	681a      	ldr	r2, [r3, #0]
 800184c:	68d3      	ldr	r3, [r2, #12]
 800184e:	430b      	orrs	r3, r1
	HAL_GPIO_WritePin(SW_OUT_GPIO_Port, SW_OUT_Pin, 1); //latch high the debounced o/p
 8001850:	2180      	movs	r1, #128	@ 0x80
	__HAL_TIM_ENABLE_IT(&htim16, TIM_IT_UPDATE); //make sure the overflow (update) interrupt is enabled for TIM16
 8001852:	60d3      	str	r3, [r2, #12]
	HAL_GPIO_WritePin(SW_OUT_GPIO_Port, SW_OUT_Pin, 1); //latch high the debounced o/p
 8001854:	0089      	lsls	r1, r1, #2
 8001856:	2201      	movs	r2, #1
 8001858:	f001 fdb6 	bl	80033c8 <HAL_GPIO_WritePin>
	HAL_GPIO_WritePin(HACK_POT_HIGH_GPIO_Port, HACK_POT_HIGH_Pin, 1);
 800185c:	2180      	movs	r1, #128	@ 0x80
 800185e:	20a0      	movs	r0, #160	@ 0xa0
 8001860:	2201      	movs	r2, #1
 8001862:	0149      	lsls	r1, r1, #5
 8001864:	05c0      	lsls	r0, r0, #23
 8001866:	f001 fdaf 	bl	80033c8 <HAL_GPIO_WritePin>
	HAL_GPIO_WritePin(HACK_POT_LOW_GPIO_Port, HACK_POT_LOW_Pin, 0);
 800186a:	20a0      	movs	r0, #160	@ 0xa0
 800186c:	2200      	movs	r2, #0
 800186e:	2180      	movs	r1, #128	@ 0x80
 8001870:	05c0      	lsls	r0, r0, #23
 8001872:	f001 fda9 	bl	80033c8 <HAL_GPIO_WritePin>


	//GET ADC VALUES
	HAL_ADC_Start_DMA(&hadc1, (uint32_t*)ADCResultsDMA, (uint32_t)num_ADC_conversions);
 8001876:	4b28      	ldr	r3, [pc, #160]	@ (8001918 <Startup+0xe8>)
 8001878:	4928      	ldr	r1, [pc, #160]	@ (800191c <Startup+0xec>)
 800187a:	781a      	ldrb	r2, [r3, #0]
 800187c:	4828      	ldr	r0, [pc, #160]	@ (8001920 <Startup+0xf0>)
 800187e:	f001 f8e1 	bl	8002a44 <HAL_ADC_Start_DMA>

	//WAIT
	while(Get_Status_Bit(&statuses, Initial_ADC_Conversion_Complete) == NO){}; //wait while first ADC conversion is ongoing - raw and final values will be computed within this time
 8001882:	4c28      	ldr	r4, [pc, #160]	@ (8001924 <Startup+0xf4>)
 8001884:	2110      	movs	r1, #16
 8001886:	0020      	movs	r0, r4
 8001888:	f000 fca0 	bl	80021cc <Get_Status_Bit>
 800188c:	2800      	cmp	r0, #0
 800188e:	d0f9      	beq.n	8001884 <Startup+0x54>
 8001890:	2200      	movs	r2, #0
 8001892:	4c25      	ldr	r4, [pc, #148]	@ (8001928 <Startup+0xf8>)
 8001894:	4d25      	ldr	r5, [pc, #148]	@ (800192c <Startup+0xfc>)

			delay_line.duty_delay_line_storage_array[i] = PWM_DUTY_VALUE_MAX - ((params.depth * PWM_DUTY_VALUE_MAX) >> DEPTH_ADC_RESOLUTION);
		}
		else{

			delay_line.duty_delay_line_storage_array[i] = PWM_DUTY_VALUE_MAX - (((params.depth * PWM_DUTY_VALUE_MAX) >> DEPTH_ADC_RESOLUTION) >> 1);
 8001896:	4826      	ldr	r0, [pc, #152]	@ (8001930 <Startup+0x100>)
	for(uint16_t i = 0; i < FINAL_INDEX + 2; i++){ //513
 8001898:	4926      	ldr	r1, [pc, #152]	@ (8001934 <Startup+0x104>)
 800189a:	e009      	b.n	80018b0 <Startup+0x80>
			delay_line.duty_delay_line_storage_array[i] = PWM_DUTY_VALUE_MAX - (((params.depth * PWM_DUTY_VALUE_MAX) >> DEPTH_ADC_RESOLUTION) >> 1);
 800189c:	02b3      	lsls	r3, r6, #10
 800189e:	1b9b      	subs	r3, r3, r6
 80018a0:	121b      	asrs	r3, r3, #8
 80018a2:	1ac3      	subs	r3, r0, r3
 80018a4:	0056      	lsls	r6, r2, #1
 80018a6:	b29b      	uxth	r3, r3
	for(uint16_t i = 0; i < FINAL_INDEX + 2; i++){ //513
 80018a8:	3201      	adds	r2, #1
			delay_line.duty_delay_line_storage_array[i] = PWM_DUTY_VALUE_MAX - (((params.depth * PWM_DUTY_VALUE_MAX) >> DEPTH_ADC_RESOLUTION) >> 1);
 80018aa:	53ab      	strh	r3, [r5, r6]
	for(uint16_t i = 0; i < FINAL_INDEX + 2; i++){ //513
 80018ac:	428a      	cmp	r2, r1
 80018ae:	d00d      	beq.n	80018cc <Startup+0x9c>
		if(params.waveshape == SQUARE_MODE){
 80018b0:	79a3      	ldrb	r3, [r4, #6]
			delay_line.duty_delay_line_storage_array[i] = PWM_DUTY_VALUE_MAX - ((params.depth * PWM_DUTY_VALUE_MAX) >> DEPTH_ADC_RESOLUTION);
 80018b2:	7aa6      	ldrb	r6, [r4, #10]
		if(params.waveshape == SQUARE_MODE){
 80018b4:	2b02      	cmp	r3, #2
 80018b6:	d1f1      	bne.n	800189c <Startup+0x6c>
			delay_line.duty_delay_line_storage_array[i] = PWM_DUTY_VALUE_MAX - ((params.depth * PWM_DUTY_VALUE_MAX) >> DEPTH_ADC_RESOLUTION);
 80018b8:	02b3      	lsls	r3, r6, #10
 80018ba:	1b9b      	subs	r3, r3, r6
 80018bc:	11db      	asrs	r3, r3, #7
 80018be:	1ac3      	subs	r3, r0, r3
 80018c0:	0056      	lsls	r6, r2, #1
 80018c2:	b29b      	uxth	r3, r3
	for(uint16_t i = 0; i < FINAL_INDEX + 2; i++){ //513
 80018c4:	3201      	adds	r2, #1
			delay_line.duty_delay_line_storage_array[i] = PWM_DUTY_VALUE_MAX - ((params.depth * PWM_DUTY_VALUE_MAX) >> DEPTH_ADC_RESOLUTION);
 80018c6:	53ab      	strh	r3, [r5, r6]
	for(uint16_t i = 0; i < FINAL_INDEX + 2; i++){ //513
 80018c8:	428a      	cmp	r2, r1
 80018ca:	d1f1      	bne.n	80018b0 <Startup+0x80>
		}
	}

	//PREPARE OSCILLATORS
	Calculate_Next_Main_Oscillator_Values(&params, (enum Next_Values_Processing_Mode)STARTUP_MODE);
 80018cc:	2102      	movs	r1, #2
 80018ce:	0020      	movs	r0, r4
 80018d0:	f7ff fe9e 	bl	8001610 <Calculate_Next_Main_Oscillator_Values>
	Write_Next_Main_Oscillator_Values_to_Delay_Line(&params, &delay_line);
 80018d4:	0029      	movs	r1, r5
 80018d6:	0020      	movs	r0, r4
 80018d8:	f7ff ff28 	bl	800172c <Write_Next_Main_Oscillator_Values_to_Delay_Line>
	Set_Oscillator_Values(&params);
 80018dc:	0020      	movs	r0, r4
 80018de:	f7ff fe7f 	bl	80015e0 <Set_Oscillator_Values>

	//START FREQ. GEN and PWM GEN TIMERS and ENABLE PWM OUTPUT
	Start_PWM_Gen_Timer_Main_and_Secondary_Oscillators(&htim1, TIM_CHANNEL_2, TIM_CHANNEL_4);
 80018e2:	220c      	movs	r2, #12
 80018e4:	2104      	movs	r1, #4
 80018e6:	4814      	ldr	r0, [pc, #80]	@ (8001938 <Startup+0x108>)
 80018e8:	f7ff fe3a 	bl	8001560 <Start_PWM_Gen_Timer_Main_and_Secondary_Oscillators>
	Start_Freq_Gen_Timer();
 80018ec:	f7ff fe52 	bl	8001594 <Start_Freq_Gen_Timer>

	//ENABLE INTERRUPTS
	Global_Interrupt_Enable();
 80018f0:	f000 fc68 	bl	80021c4 <Global_Interrupt_Enable>

	//START UART RECEIVE
	Start_UART_Receive();
 80018f4:	f7fe fda8 	bl	8000448 <Start_UART_Receive>

	//START IP CAP
	Start_Input_Capture_Timer();
 80018f8:	f7ff fd96 	bl	8001428 <Start_Input_Capture_Timer>


	#if TAPCLK_ON_OR_OFF == ON

		//ENABLE TAP-TEMPO SWITCH CHECKING
		HAL_LPTIM_SetOnce_Start_IT(&hlptim1, LPTIM1_CCR_CHECK, LPTIM1_CCR_CHECK);
 80018fc:	22fa      	movs	r2, #250	@ 0xfa
 80018fe:	21fa      	movs	r1, #250	@ 0xfa
 8001900:	480e      	ldr	r0, [pc, #56]	@ (800193c <Startup+0x10c>)
 8001902:	f001 ff8b 	bl	800381c <HAL_LPTIM_SetOnce_Start_IT>


	#endif

	//ENABLE EXTI
	HAL_NVIC_EnableIRQ(EXTI4_15_IRQn);
 8001906:	2007      	movs	r0, #7
 8001908:	f001 fa7e 	bl	8002e08 <HAL_NVIC_EnableIRQ>
	//DEBUG
	/*__HAL_TIM_SET_COUNTER(&htim14, 0);
	Start_OC_TIM(&htim14, TIM_CHANNEL_1);*/

	return 1;
}
 800190c:	2001      	movs	r0, #1
 800190e:	bd70      	pop	{r4, r5, r6, pc}
 8001910:	200007a0 	.word	0x200007a0
 8001914:	2000085c 	.word	0x2000085c
 8001918:	08006984 	.word	0x08006984
 800191c:	20000bf4 	.word	0x20000bf4
 8001920:	20000aec 	.word	0x20000aec
 8001924:	20000b84 	.word	0x20000b84
 8001928:	20000bd0 	.word	0x20000bd0
 800192c:	20000004 	.word	0x20000004
 8001930:	000003ff 	.word	0x000003ff
 8001934:	00000201 	.word	0x00000201
 8001938:	20000628 	.word	0x20000628
 800193c:	20000448 	.word	0x20000448

08001940 <Advance_Pending_States>:
 8001940:	4b07      	ldr	r3, [pc, #28]	@ (8001960 <Advance_Pending_States+0x20>)
 8001942:	781a      	ldrb	r2, [r3, #0]
 8001944:	7819      	ldrb	r1, [r3, #0]
 8001946:	2905      	cmp	r1, #5
 8001948:	d005      	beq.n	8001956 <Advance_Pending_States+0x16>
 800194a:	7819      	ldrb	r1, [r3, #0]
 800194c:	2907      	cmp	r1, #7
 800194e:	d002      	beq.n	8001956 <Advance_Pending_States+0x16>
 8001950:	7819      	ldrb	r1, [r3, #0]
 8001952:	2909      	cmp	r1, #9
 8001954:	d101      	bne.n	800195a <Advance_Pending_States+0x1a>
 8001956:	3901      	subs	r1, #1
 8001958:	7019      	strb	r1, [r3, #0]
 800195a:	2001      	movs	r0, #1
 800195c:	705a      	strb	r2, [r3, #1]
 800195e:	4770      	bx	lr
 8001960:	20000410 	.word	0x20000410

08001964 <HAL_MspInit>:
 8001964:	2201      	movs	r2, #1
 8001966:	4b0a      	ldr	r3, [pc, #40]	@ (8001990 <HAL_MspInit+0x2c>)
 8001968:	b082      	sub	sp, #8
 800196a:	6c19      	ldr	r1, [r3, #64]	@ 0x40
 800196c:	4311      	orrs	r1, r2
 800196e:	6419      	str	r1, [r3, #64]	@ 0x40
 8001970:	6c19      	ldr	r1, [r3, #64]	@ 0x40
 8001972:	400a      	ands	r2, r1
 8001974:	2180      	movs	r1, #128	@ 0x80
 8001976:	9200      	str	r2, [sp, #0]
 8001978:	9a00      	ldr	r2, [sp, #0]
 800197a:	6bda      	ldr	r2, [r3, #60]	@ 0x3c
 800197c:	0549      	lsls	r1, r1, #21
 800197e:	430a      	orrs	r2, r1
 8001980:	63da      	str	r2, [r3, #60]	@ 0x3c
 8001982:	6bdb      	ldr	r3, [r3, #60]	@ 0x3c
 8001984:	400b      	ands	r3, r1
 8001986:	9301      	str	r3, [sp, #4]
 8001988:	9b01      	ldr	r3, [sp, #4]
 800198a:	b002      	add	sp, #8
 800198c:	4770      	bx	lr
 800198e:	46c0      	nop			@ (mov r8, r8)
 8001990:	40021000 	.word	0x40021000

08001994 <HAL_ADC_MspInit>:
 8001994:	b530      	push	{r4, r5, lr}
 8001996:	0004      	movs	r4, r0
 8001998:	b089      	sub	sp, #36	@ 0x24
 800199a:	2214      	movs	r2, #20
 800199c:	2100      	movs	r1, #0
 800199e:	a802      	add	r0, sp, #8
 80019a0:	f004 ffae 	bl	8006900 <memset>
 80019a4:	4b1f      	ldr	r3, [pc, #124]	@ (8001a24 <HAL_ADC_MspInit+0x90>)
 80019a6:	6822      	ldr	r2, [r4, #0]
 80019a8:	429a      	cmp	r2, r3
 80019aa:	d001      	beq.n	80019b0 <HAL_ADC_MspInit+0x1c>
 80019ac:	b009      	add	sp, #36	@ 0x24
 80019ae:	bd30      	pop	{r4, r5, pc}
 80019b0:	2180      	movs	r1, #128	@ 0x80
 80019b2:	4b1d      	ldr	r3, [pc, #116]	@ (8001a28 <HAL_ADC_MspInit+0x94>)
 80019b4:	0349      	lsls	r1, r1, #13
 80019b6:	6c1a      	ldr	r2, [r3, #64]	@ 0x40
 80019b8:	20a0      	movs	r0, #160	@ 0xa0
 80019ba:	430a      	orrs	r2, r1
 80019bc:	641a      	str	r2, [r3, #64]	@ 0x40
 80019be:	6c1a      	ldr	r2, [r3, #64]	@ 0x40
 80019c0:	05c0      	lsls	r0, r0, #23
 80019c2:	400a      	ands	r2, r1
 80019c4:	9200      	str	r2, [sp, #0]
 80019c6:	9a00      	ldr	r2, [sp, #0]
 80019c8:	2201      	movs	r2, #1
 80019ca:	6b59      	ldr	r1, [r3, #52]	@ 0x34
 80019cc:	4311      	orrs	r1, r2
 80019ce:	6359      	str	r1, [r3, #52]	@ 0x34
 80019d0:	6b5b      	ldr	r3, [r3, #52]	@ 0x34
 80019d2:	a902      	add	r1, sp, #8
 80019d4:	401a      	ands	r2, r3
 80019d6:	9201      	str	r2, [sp, #4]
 80019d8:	9b01      	ldr	r3, [sp, #4]
 80019da:	2273      	movs	r2, #115	@ 0x73
 80019dc:	2303      	movs	r3, #3
 80019de:	9202      	str	r2, [sp, #8]
 80019e0:	9303      	str	r3, [sp, #12]
 80019e2:	f001 fbf9 	bl	80031d8 <HAL_GPIO_Init>
 80019e6:	4d11      	ldr	r5, [pc, #68]	@ (8001a2c <HAL_ADC_MspInit+0x98>)
 80019e8:	4b11      	ldr	r3, [pc, #68]	@ (8001a30 <HAL_ADC_MspInit+0x9c>)
 80019ea:	2280      	movs	r2, #128	@ 0x80
 80019ec:	602b      	str	r3, [r5, #0]
 80019ee:	2305      	movs	r3, #5
 80019f0:	606b      	str	r3, [r5, #4]
 80019f2:	2300      	movs	r3, #0
 80019f4:	612a      	str	r2, [r5, #16]
 80019f6:	3280      	adds	r2, #128	@ 0x80
 80019f8:	60ab      	str	r3, [r5, #8]
 80019fa:	60eb      	str	r3, [r5, #12]
 80019fc:	616a      	str	r2, [r5, #20]
 80019fe:	61eb      	str	r3, [r5, #28]
 8001a00:	2280      	movs	r2, #128	@ 0x80
 8001a02:	2380      	movs	r3, #128	@ 0x80
 8001a04:	00d2      	lsls	r2, r2, #3
 8001a06:	019b      	lsls	r3, r3, #6
 8001a08:	0028      	movs	r0, r5
 8001a0a:	61aa      	str	r2, [r5, #24]
 8001a0c:	622b      	str	r3, [r5, #32]
 8001a0e:	f001 fa31 	bl	8002e74 <HAL_DMA_Init>
 8001a12:	2800      	cmp	r0, #0
 8001a14:	d102      	bne.n	8001a1c <HAL_ADC_MspInit+0x88>
 8001a16:	6525      	str	r5, [r4, #80]	@ 0x50
 8001a18:	62ac      	str	r4, [r5, #40]	@ 0x28
 8001a1a:	e7c7      	b.n	80019ac <HAL_ADC_MspInit+0x18>
 8001a1c:	f7ff f91e 	bl	8000c5c <Error_Handler>
 8001a20:	e7f9      	b.n	8001a16 <HAL_ADC_MspInit+0x82>
 8001a22:	46c0      	nop			@ (mov r8, r8)
 8001a24:	40012400 	.word	0x40012400
 8001a28:	40021000 	.word	0x40021000
 8001a2c:	20000a90 	.word	0x20000a90
 8001a30:	40020008 	.word	0x40020008

08001a34 <HAL_LPTIM_MspInit>:
 8001a34:	b510      	push	{r4, lr}
 8001a36:	0004      	movs	r4, r0
 8001a38:	b094      	sub	sp, #80	@ 0x50
 8001a3a:	2214      	movs	r2, #20
 8001a3c:	2100      	movs	r1, #0
 8001a3e:	a804      	add	r0, sp, #16
 8001a40:	f004 ff5e 	bl	8006900 <memset>
 8001a44:	2228      	movs	r2, #40	@ 0x28
 8001a46:	2100      	movs	r1, #0
 8001a48:	a80a      	add	r0, sp, #40	@ 0x28
 8001a4a:	f004 ff59 	bl	8006900 <memset>
 8001a4e:	6823      	ldr	r3, [r4, #0]
 8001a50:	4a31      	ldr	r2, [pc, #196]	@ (8001b18 <HAL_LPTIM_MspInit+0xe4>)
 8001a52:	4293      	cmp	r3, r2
 8001a54:	d004      	beq.n	8001a60 <HAL_LPTIM_MspInit+0x2c>
 8001a56:	4a31      	ldr	r2, [pc, #196]	@ (8001b1c <HAL_LPTIM_MspInit+0xe8>)
 8001a58:	4293      	cmp	r3, r2
 8001a5a:	d02b      	beq.n	8001ab4 <HAL_LPTIM_MspInit+0x80>
 8001a5c:	b014      	add	sp, #80	@ 0x50
 8001a5e:	bd10      	pop	{r4, pc}
 8001a60:	2380      	movs	r3, #128	@ 0x80
 8001a62:	a80a      	add	r0, sp, #40	@ 0x28
 8001a64:	009b      	lsls	r3, r3, #2
 8001a66:	930a      	str	r3, [sp, #40]	@ 0x28
 8001a68:	f002 fafe 	bl	8004068 <HAL_RCCEx_PeriphCLKConfig>
 8001a6c:	2800      	cmp	r0, #0
 8001a6e:	d14c      	bne.n	8001b0a <HAL_LPTIM_MspInit+0xd6>
 8001a70:	2280      	movs	r2, #128	@ 0x80
 8001a72:	4b2b      	ldr	r3, [pc, #172]	@ (8001b20 <HAL_LPTIM_MspInit+0xec>)
 8001a74:	0612      	lsls	r2, r2, #24
 8001a76:	6bd9      	ldr	r1, [r3, #60]	@ 0x3c
 8001a78:	482a      	ldr	r0, [pc, #168]	@ (8001b24 <HAL_LPTIM_MspInit+0xf0>)
 8001a7a:	430a      	orrs	r2, r1
 8001a7c:	63da      	str	r2, [r3, #60]	@ 0x3c
 8001a7e:	6bda      	ldr	r2, [r3, #60]	@ 0x3c
 8001a80:	0fd2      	lsrs	r2, r2, #31
 8001a82:	07d2      	lsls	r2, r2, #31
 8001a84:	9200      	str	r2, [sp, #0]
 8001a86:	9a00      	ldr	r2, [sp, #0]
 8001a88:	2202      	movs	r2, #2
 8001a8a:	6b59      	ldr	r1, [r3, #52]	@ 0x34
 8001a8c:	4311      	orrs	r1, r2
 8001a8e:	6359      	str	r1, [r3, #52]	@ 0x34
 8001a90:	6b5b      	ldr	r3, [r3, #52]	@ 0x34
 8001a92:	a904      	add	r1, sp, #16
 8001a94:	401a      	ands	r2, r3
 8001a96:	9201      	str	r2, [sp, #4]
 8001a98:	9b01      	ldr	r3, [sp, #4]
 8001a9a:	2201      	movs	r2, #1
 8001a9c:	2302      	movs	r3, #2
 8001a9e:	9204      	str	r2, [sp, #16]
 8001aa0:	9305      	str	r3, [sp, #20]
 8001aa2:	2200      	movs	r2, #0
 8001aa4:	2300      	movs	r3, #0
 8001aa6:	9206      	str	r2, [sp, #24]
 8001aa8:	9307      	str	r3, [sp, #28]
 8001aaa:	2305      	movs	r3, #5
 8001aac:	9308      	str	r3, [sp, #32]
 8001aae:	f001 fb93 	bl	80031d8 <HAL_GPIO_Init>
 8001ab2:	e7d3      	b.n	8001a5c <HAL_LPTIM_MspInit+0x28>
 8001ab4:	2380      	movs	r3, #128	@ 0x80
 8001ab6:	a80a      	add	r0, sp, #40	@ 0x28
 8001ab8:	00db      	lsls	r3, r3, #3
 8001aba:	930a      	str	r3, [sp, #40]	@ 0x28
 8001abc:	f002 fad4 	bl	8004068 <HAL_RCCEx_PeriphCLKConfig>
 8001ac0:	2800      	cmp	r0, #0
 8001ac2:	d125      	bne.n	8001b10 <HAL_LPTIM_MspInit+0xdc>
 8001ac4:	2180      	movs	r1, #128	@ 0x80
 8001ac6:	4b16      	ldr	r3, [pc, #88]	@ (8001b20 <HAL_LPTIM_MspInit+0xec>)
 8001ac8:	05c9      	lsls	r1, r1, #23
 8001aca:	6bda      	ldr	r2, [r3, #60]	@ 0x3c
 8001acc:	20a0      	movs	r0, #160	@ 0xa0
 8001ace:	430a      	orrs	r2, r1
 8001ad0:	63da      	str	r2, [r3, #60]	@ 0x3c
 8001ad2:	6bda      	ldr	r2, [r3, #60]	@ 0x3c
 8001ad4:	05c0      	lsls	r0, r0, #23
 8001ad6:	400a      	ands	r2, r1
 8001ad8:	9202      	str	r2, [sp, #8]
 8001ada:	9a02      	ldr	r2, [sp, #8]
 8001adc:	2201      	movs	r2, #1
 8001ade:	6b59      	ldr	r1, [r3, #52]	@ 0x34
 8001ae0:	4311      	orrs	r1, r2
 8001ae2:	6359      	str	r1, [r3, #52]	@ 0x34
 8001ae4:	6b5b      	ldr	r3, [r3, #52]	@ 0x34
 8001ae6:	a904      	add	r1, sp, #16
 8001ae8:	401a      	ands	r2, r3
 8001aea:	9203      	str	r2, [sp, #12]
 8001aec:	2280      	movs	r2, #128	@ 0x80
 8001aee:	9b03      	ldr	r3, [sp, #12]
 8001af0:	2302      	movs	r3, #2
 8001af2:	0052      	lsls	r2, r2, #1
 8001af4:	9204      	str	r2, [sp, #16]
 8001af6:	9305      	str	r3, [sp, #20]
 8001af8:	2200      	movs	r2, #0
 8001afa:	2300      	movs	r3, #0
 8001afc:	9206      	str	r2, [sp, #24]
 8001afe:	9307      	str	r3, [sp, #28]
 8001b00:	2305      	movs	r3, #5
 8001b02:	9308      	str	r3, [sp, #32]
 8001b04:	f001 fb68 	bl	80031d8 <HAL_GPIO_Init>
 8001b08:	e7a8      	b.n	8001a5c <HAL_LPTIM_MspInit+0x28>
 8001b0a:	f7ff f8a7 	bl	8000c5c <Error_Handler>
 8001b0e:	e7af      	b.n	8001a70 <HAL_LPTIM_MspInit+0x3c>
 8001b10:	f7ff f8a4 	bl	8000c5c <Error_Handler>
 8001b14:	e7d6      	b.n	8001ac4 <HAL_LPTIM_MspInit+0x90>
 8001b16:	46c0      	nop			@ (mov r8, r8)
 8001b18:	40007c00 	.word	0x40007c00
 8001b1c:	40009400 	.word	0x40009400
 8001b20:	40021000 	.word	0x40021000
 8001b24:	50000400 	.word	0x50000400

08001b28 <HAL_TIM_Base_MspInit>:
 8001b28:	b510      	push	{r4, lr}
 8001b2a:	0004      	movs	r4, r0
 8001b2c:	b098      	sub	sp, #96	@ 0x60
 8001b2e:	2214      	movs	r2, #20
 8001b30:	2100      	movs	r1, #0
 8001b32:	a808      	add	r0, sp, #32
 8001b34:	f004 fee4 	bl	8006900 <memset>
 8001b38:	2228      	movs	r2, #40	@ 0x28
 8001b3a:	2100      	movs	r1, #0
 8001b3c:	a80e      	add	r0, sp, #56	@ 0x38
 8001b3e:	f004 fedf 	bl	8006900 <memset>
 8001b42:	6823      	ldr	r3, [r4, #0]
 8001b44:	4a4e      	ldr	r2, [pc, #312]	@ (8001c80 <HAL_TIM_Base_MspInit+0x158>)
 8001b46:	4293      	cmp	r3, r2
 8001b48:	d025      	beq.n	8001b96 <HAL_TIM_Base_MspInit+0x6e>
 8001b4a:	2280      	movs	r2, #128	@ 0x80
 8001b4c:	05d2      	lsls	r2, r2, #23
 8001b4e:	4293      	cmp	r3, r2
 8001b50:	d034      	beq.n	8001bbc <HAL_TIM_Base_MspInit+0x94>
 8001b52:	4a4c      	ldr	r2, [pc, #304]	@ (8001c84 <HAL_TIM_Base_MspInit+0x15c>)
 8001b54:	4293      	cmp	r3, r2
 8001b56:	d057      	beq.n	8001c08 <HAL_TIM_Base_MspInit+0xe0>
 8001b58:	4a4b      	ldr	r2, [pc, #300]	@ (8001c88 <HAL_TIM_Base_MspInit+0x160>)
 8001b5a:	4293      	cmp	r3, r2
 8001b5c:	d008      	beq.n	8001b70 <HAL_TIM_Base_MspInit+0x48>
 8001b5e:	4a4b      	ldr	r2, [pc, #300]	@ (8001c8c <HAL_TIM_Base_MspInit+0x164>)
 8001b60:	4293      	cmp	r3, r2
 8001b62:	d063      	beq.n	8001c2c <HAL_TIM_Base_MspInit+0x104>
 8001b64:	4a4a      	ldr	r2, [pc, #296]	@ (8001c90 <HAL_TIM_Base_MspInit+0x168>)
 8001b66:	4293      	cmp	r3, r2
 8001b68:	d100      	bne.n	8001b6c <HAL_TIM_Base_MspInit+0x44>
 8001b6a:	e072      	b.n	8001c52 <HAL_TIM_Base_MspInit+0x12a>
 8001b6c:	b018      	add	sp, #96	@ 0x60
 8001b6e:	bd10      	pop	{r4, pc}
 8001b70:	2180      	movs	r1, #128	@ 0x80
 8001b72:	4b48      	ldr	r3, [pc, #288]	@ (8001c94 <HAL_TIM_Base_MspInit+0x16c>)
 8001b74:	0289      	lsls	r1, r1, #10
 8001b76:	6c1a      	ldr	r2, [r3, #64]	@ 0x40
 8001b78:	2015      	movs	r0, #21
 8001b7a:	430a      	orrs	r2, r1
 8001b7c:	641a      	str	r2, [r3, #64]	@ 0x40
 8001b7e:	6c1b      	ldr	r3, [r3, #64]	@ 0x40
 8001b80:	2200      	movs	r2, #0
 8001b82:	400b      	ands	r3, r1
 8001b84:	9305      	str	r3, [sp, #20]
 8001b86:	2100      	movs	r1, #0
 8001b88:	9b05      	ldr	r3, [sp, #20]
 8001b8a:	f001 f913 	bl	8002db4 <HAL_NVIC_SetPriority>
 8001b8e:	2015      	movs	r0, #21
 8001b90:	f001 f93a 	bl	8002e08 <HAL_NVIC_EnableIRQ>
 8001b94:	e7ea      	b.n	8001b6c <HAL_TIM_Base_MspInit+0x44>
 8001b96:	2380      	movs	r3, #128	@ 0x80
 8001b98:	a80e      	add	r0, sp, #56	@ 0x38
 8001b9a:	039b      	lsls	r3, r3, #14
 8001b9c:	930e      	str	r3, [sp, #56]	@ 0x38
 8001b9e:	f002 fa63 	bl	8004068 <HAL_RCCEx_PeriphCLKConfig>
 8001ba2:	2800      	cmp	r0, #0
 8001ba4:	d168      	bne.n	8001c78 <HAL_TIM_Base_MspInit+0x150>
 8001ba6:	2180      	movs	r1, #128	@ 0x80
 8001ba8:	4b3a      	ldr	r3, [pc, #232]	@ (8001c94 <HAL_TIM_Base_MspInit+0x16c>)
 8001baa:	0109      	lsls	r1, r1, #4
 8001bac:	6c1a      	ldr	r2, [r3, #64]	@ 0x40
 8001bae:	430a      	orrs	r2, r1
 8001bb0:	641a      	str	r2, [r3, #64]	@ 0x40
 8001bb2:	6c1b      	ldr	r3, [r3, #64]	@ 0x40
 8001bb4:	400b      	ands	r3, r1
 8001bb6:	9301      	str	r3, [sp, #4]
 8001bb8:	9b01      	ldr	r3, [sp, #4]
 8001bba:	e7d7      	b.n	8001b6c <HAL_TIM_Base_MspInit+0x44>
 8001bbc:	2201      	movs	r2, #1
 8001bbe:	4b35      	ldr	r3, [pc, #212]	@ (8001c94 <HAL_TIM_Base_MspInit+0x16c>)
 8001bc0:	2080      	movs	r0, #128	@ 0x80
 8001bc2:	6bd9      	ldr	r1, [r3, #60]	@ 0x3c
 8001bc4:	0200      	lsls	r0, r0, #8
 8001bc6:	4311      	orrs	r1, r2
 8001bc8:	63d9      	str	r1, [r3, #60]	@ 0x3c
 8001bca:	6bd9      	ldr	r1, [r3, #60]	@ 0x3c
 8001bcc:	4011      	ands	r1, r2
 8001bce:	9102      	str	r1, [sp, #8]
 8001bd0:	9902      	ldr	r1, [sp, #8]
 8001bd2:	6b59      	ldr	r1, [r3, #52]	@ 0x34
 8001bd4:	4311      	orrs	r1, r2
 8001bd6:	6359      	str	r1, [r3, #52]	@ 0x34
 8001bd8:	2102      	movs	r1, #2
 8001bda:	6b5b      	ldr	r3, [r3, #52]	@ 0x34
 8001bdc:	9008      	str	r0, [sp, #32]
 8001bde:	9109      	str	r1, [sp, #36]	@ 0x24
 8001be0:	4013      	ands	r3, r2
 8001be2:	9303      	str	r3, [sp, #12]
 8001be4:	20a0      	movs	r0, #160	@ 0xa0
 8001be6:	9b03      	ldr	r3, [sp, #12]
 8001be8:	2302      	movs	r3, #2
 8001bea:	a908      	add	r1, sp, #32
 8001bec:	05c0      	lsls	r0, r0, #23
 8001bee:	920a      	str	r2, [sp, #40]	@ 0x28
 8001bf0:	930c      	str	r3, [sp, #48]	@ 0x30
 8001bf2:	f001 faf1 	bl	80031d8 <HAL_GPIO_Init>
 8001bf6:	2202      	movs	r2, #2
 8001bf8:	2102      	movs	r1, #2
 8001bfa:	200f      	movs	r0, #15
 8001bfc:	f001 f8da 	bl	8002db4 <HAL_NVIC_SetPriority>
 8001c00:	200f      	movs	r0, #15
 8001c02:	f001 f901 	bl	8002e08 <HAL_NVIC_EnableIRQ>
 8001c06:	e7b1      	b.n	8001b6c <HAL_TIM_Base_MspInit+0x44>
 8001c08:	2302      	movs	r3, #2
 8001c0a:	4a22      	ldr	r2, [pc, #136]	@ (8001c94 <HAL_TIM_Base_MspInit+0x16c>)
 8001c0c:	2010      	movs	r0, #16
 8001c0e:	6bd1      	ldr	r1, [r2, #60]	@ 0x3c
 8001c10:	4319      	orrs	r1, r3
 8001c12:	63d1      	str	r1, [r2, #60]	@ 0x3c
 8001c14:	6bd2      	ldr	r2, [r2, #60]	@ 0x3c
 8001c16:	2100      	movs	r1, #0
 8001c18:	4013      	ands	r3, r2
 8001c1a:	9304      	str	r3, [sp, #16]
 8001c1c:	2200      	movs	r2, #0
 8001c1e:	9b04      	ldr	r3, [sp, #16]
 8001c20:	f001 f8c8 	bl	8002db4 <HAL_NVIC_SetPriority>
 8001c24:	2010      	movs	r0, #16
 8001c26:	f001 f8ef 	bl	8002e08 <HAL_NVIC_EnableIRQ>
 8001c2a:	e79f      	b.n	8001b6c <HAL_TIM_Base_MspInit+0x44>
 8001c2c:	2180      	movs	r1, #128	@ 0x80
 8001c2e:	4b19      	ldr	r3, [pc, #100]	@ (8001c94 <HAL_TIM_Base_MspInit+0x16c>)
 8001c30:	02c9      	lsls	r1, r1, #11
 8001c32:	6c1a      	ldr	r2, [r3, #64]	@ 0x40
 8001c34:	2016      	movs	r0, #22
 8001c36:	430a      	orrs	r2, r1
 8001c38:	641a      	str	r2, [r3, #64]	@ 0x40
 8001c3a:	6c1b      	ldr	r3, [r3, #64]	@ 0x40
 8001c3c:	2203      	movs	r2, #3
 8001c3e:	400b      	ands	r3, r1
 8001c40:	9306      	str	r3, [sp, #24]
 8001c42:	2103      	movs	r1, #3
 8001c44:	9b06      	ldr	r3, [sp, #24]
 8001c46:	f001 f8b5 	bl	8002db4 <HAL_NVIC_SetPriority>
 8001c4a:	2016      	movs	r0, #22
 8001c4c:	f001 f8dc 	bl	8002e08 <HAL_NVIC_EnableIRQ>
 8001c50:	e78c      	b.n	8001b6c <HAL_TIM_Base_MspInit+0x44>
 8001c52:	2180      	movs	r1, #128	@ 0x80
 8001c54:	4b0f      	ldr	r3, [pc, #60]	@ (8001c94 <HAL_TIM_Base_MspInit+0x16c>)
 8001c56:	0209      	lsls	r1, r1, #8
 8001c58:	6c1a      	ldr	r2, [r3, #64]	@ 0x40
 8001c5a:	2013      	movs	r0, #19
 8001c5c:	430a      	orrs	r2, r1
 8001c5e:	641a      	str	r2, [r3, #64]	@ 0x40
 8001c60:	6c1b      	ldr	r3, [r3, #64]	@ 0x40
 8001c62:	2203      	movs	r2, #3
 8001c64:	400b      	ands	r3, r1
 8001c66:	9307      	str	r3, [sp, #28]
 8001c68:	2103      	movs	r1, #3
 8001c6a:	9b07      	ldr	r3, [sp, #28]
 8001c6c:	f001 f8a2 	bl	8002db4 <HAL_NVIC_SetPriority>
 8001c70:	2013      	movs	r0, #19
 8001c72:	f001 f8c9 	bl	8002e08 <HAL_NVIC_EnableIRQ>
 8001c76:	e779      	b.n	8001b6c <HAL_TIM_Base_MspInit+0x44>
 8001c78:	f7fe fff0 	bl	8000c5c <Error_Handler>
 8001c7c:	e793      	b.n	8001ba6 <HAL_TIM_Base_MspInit+0x7e>
 8001c7e:	46c0      	nop			@ (mov r8, r8)
 8001c80:	40012c00 	.word	0x40012c00
 8001c84:	40000400 	.word	0x40000400
 8001c88:	40014400 	.word	0x40014400
 8001c8c:	40014800 	.word	0x40014800
 8001c90:	40002000 	.word	0x40002000
 8001c94:	40021000 	.word	0x40021000

08001c98 <HAL_TIM_MspPostInit>:
 8001c98:	b530      	push	{r4, r5, lr}
 8001c9a:	0004      	movs	r4, r0
 8001c9c:	b089      	sub	sp, #36	@ 0x24
 8001c9e:	2214      	movs	r2, #20
 8001ca0:	2100      	movs	r1, #0
 8001ca2:	a802      	add	r0, sp, #8
 8001ca4:	f004 fe2c 	bl	8006900 <memset>
 8001ca8:	4b16      	ldr	r3, [pc, #88]	@ (8001d04 <HAL_TIM_MspPostInit+0x6c>)
 8001caa:	6822      	ldr	r2, [r4, #0]
 8001cac:	429a      	cmp	r2, r3
 8001cae:	d001      	beq.n	8001cb4 <HAL_TIM_MspPostInit+0x1c>
 8001cb0:	b009      	add	sp, #36	@ 0x24
 8001cb2:	bd30      	pop	{r4, r5, pc}
 8001cb4:	2501      	movs	r5, #1
 8001cb6:	2402      	movs	r4, #2
 8001cb8:	4b13      	ldr	r3, [pc, #76]	@ (8001d08 <HAL_TIM_MspPostInit+0x70>)
 8001cba:	20a0      	movs	r0, #160	@ 0xa0
 8001cbc:	6b5a      	ldr	r2, [r3, #52]	@ 0x34
 8001cbe:	a902      	add	r1, sp, #8
 8001cc0:	432a      	orrs	r2, r5
 8001cc2:	635a      	str	r2, [r3, #52]	@ 0x34
 8001cc4:	6b5a      	ldr	r2, [r3, #52]	@ 0x34
 8001cc6:	05c0      	lsls	r0, r0, #23
 8001cc8:	402a      	ands	r2, r5
 8001cca:	9200      	str	r2, [sp, #0]
 8001ccc:	9a00      	ldr	r2, [sp, #0]
 8001cce:	6b5a      	ldr	r2, [r3, #52]	@ 0x34
 8001cd0:	4322      	orrs	r2, r4
 8001cd2:	635a      	str	r2, [r3, #52]	@ 0x34
 8001cd4:	6b5b      	ldr	r3, [r3, #52]	@ 0x34
 8001cd6:	2280      	movs	r2, #128	@ 0x80
 8001cd8:	4023      	ands	r3, r4
 8001cda:	9301      	str	r3, [sp, #4]
 8001cdc:	9b01      	ldr	r3, [sp, #4]
 8001cde:	2302      	movs	r3, #2
 8001ce0:	0112      	lsls	r2, r2, #4
 8001ce2:	9202      	str	r2, [sp, #8]
 8001ce4:	9303      	str	r3, [sp, #12]
 8001ce6:	9406      	str	r4, [sp, #24]
 8001ce8:	f001 fa76 	bl	80031d8 <HAL_GPIO_Init>
 8001cec:	2308      	movs	r3, #8
 8001cee:	9302      	str	r3, [sp, #8]
 8001cf0:	2300      	movs	r3, #0
 8001cf2:	4806      	ldr	r0, [pc, #24]	@ (8001d0c <HAL_TIM_MspPostInit+0x74>)
 8001cf4:	a902      	add	r1, sp, #8
 8001cf6:	9403      	str	r4, [sp, #12]
 8001cf8:	9304      	str	r3, [sp, #16]
 8001cfa:	9305      	str	r3, [sp, #20]
 8001cfc:	9506      	str	r5, [sp, #24]
 8001cfe:	f001 fa6b 	bl	80031d8 <HAL_GPIO_Init>
 8001d02:	e7d5      	b.n	8001cb0 <HAL_TIM_MspPostInit+0x18>
 8001d04:	40012c00 	.word	0x40012c00
 8001d08:	40021000 	.word	0x40021000
 8001d0c:	50000400 	.word	0x50000400

08001d10 <HAL_UART_MspInit>:
 8001d10:	b530      	push	{r4, r5, lr}
 8001d12:	0004      	movs	r4, r0
 8001d14:	b089      	sub	sp, #36	@ 0x24
 8001d16:	2214      	movs	r2, #20
 8001d18:	2100      	movs	r1, #0
 8001d1a:	a802      	add	r0, sp, #8
 8001d1c:	f004 fdf0 	bl	8006900 <memset>
 8001d20:	4b30      	ldr	r3, [pc, #192]	@ (8001de4 <HAL_UART_MspInit+0xd4>)
 8001d22:	6822      	ldr	r2, [r4, #0]
 8001d24:	429a      	cmp	r2, r3
 8001d26:	d001      	beq.n	8001d2c <HAL_UART_MspInit+0x1c>
 8001d28:	b009      	add	sp, #36	@ 0x24
 8001d2a:	bd30      	pop	{r4, r5, pc}
 8001d2c:	2180      	movs	r1, #128	@ 0x80
 8001d2e:	4b2e      	ldr	r3, [pc, #184]	@ (8001de8 <HAL_UART_MspInit+0xd8>)
 8001d30:	0289      	lsls	r1, r1, #10
 8001d32:	6bda      	ldr	r2, [r3, #60]	@ 0x3c
 8001d34:	200c      	movs	r0, #12
 8001d36:	430a      	orrs	r2, r1
 8001d38:	63da      	str	r2, [r3, #60]	@ 0x3c
 8001d3a:	6bda      	ldr	r2, [r3, #60]	@ 0x3c
 8001d3c:	400a      	ands	r2, r1
 8001d3e:	9200      	str	r2, [sp, #0]
 8001d40:	9a00      	ldr	r2, [sp, #0]
 8001d42:	2201      	movs	r2, #1
 8001d44:	6b59      	ldr	r1, [r3, #52]	@ 0x34
 8001d46:	4311      	orrs	r1, r2
 8001d48:	6359      	str	r1, [r3, #52]	@ 0x34
 8001d4a:	2102      	movs	r1, #2
 8001d4c:	6b5b      	ldr	r3, [r3, #52]	@ 0x34
 8001d4e:	9002      	str	r0, [sp, #8]
 8001d50:	9103      	str	r1, [sp, #12]
 8001d52:	20a0      	movs	r0, #160	@ 0xa0
 8001d54:	4013      	ands	r3, r2
 8001d56:	9301      	str	r3, [sp, #4]
 8001d58:	05c0      	lsls	r0, r0, #23
 8001d5a:	a902      	add	r1, sp, #8
 8001d5c:	9b01      	ldr	r3, [sp, #4]
 8001d5e:	9204      	str	r2, [sp, #16]
 8001d60:	9206      	str	r2, [sp, #24]
 8001d62:	f001 fa39 	bl	80031d8 <HAL_GPIO_Init>
 8001d66:	4d21      	ldr	r5, [pc, #132]	@ (8001dec <HAL_UART_MspInit+0xdc>)
 8001d68:	4b21      	ldr	r3, [pc, #132]	@ (8001df0 <HAL_UART_MspInit+0xe0>)
 8001d6a:	2280      	movs	r2, #128	@ 0x80
 8001d6c:	602b      	str	r3, [r5, #0]
 8001d6e:	2334      	movs	r3, #52	@ 0x34
 8001d70:	606b      	str	r3, [r5, #4]
 8001d72:	2300      	movs	r3, #0
 8001d74:	60ab      	str	r3, [r5, #8]
 8001d76:	60eb      	str	r3, [r5, #12]
 8001d78:	616b      	str	r3, [r5, #20]
 8001d7a:	61ab      	str	r3, [r5, #24]
 8001d7c:	61eb      	str	r3, [r5, #28]
 8001d7e:	2380      	movs	r3, #128	@ 0x80
 8001d80:	0028      	movs	r0, r5
 8001d82:	015b      	lsls	r3, r3, #5
 8001d84:	612a      	str	r2, [r5, #16]
 8001d86:	622b      	str	r3, [r5, #32]
 8001d88:	f001 f874 	bl	8002e74 <HAL_DMA_Init>
 8001d8c:	2800      	cmp	r0, #0
 8001d8e:	d122      	bne.n	8001dd6 <HAL_UART_MspInit+0xc6>
 8001d90:	2280      	movs	r2, #128	@ 0x80
 8001d92:	4b18      	ldr	r3, [pc, #96]	@ (8001df4 <HAL_UART_MspInit+0xe4>)
 8001d94:	50a5      	str	r5, [r4, r2]
 8001d96:	62ac      	str	r4, [r5, #40]	@ 0x28
 8001d98:	4d17      	ldr	r5, [pc, #92]	@ (8001df8 <HAL_UART_MspInit+0xe8>)
 8001d9a:	602b      	str	r3, [r5, #0]
 8001d9c:	2335      	movs	r3, #53	@ 0x35
 8001d9e:	606b      	str	r3, [r5, #4]
 8001da0:	3b25      	subs	r3, #37	@ 0x25
 8001da2:	60ab      	str	r3, [r5, #8]
 8001da4:	2300      	movs	r3, #0
 8001da6:	60eb      	str	r3, [r5, #12]
 8001da8:	616b      	str	r3, [r5, #20]
 8001daa:	61ab      	str	r3, [r5, #24]
 8001dac:	61eb      	str	r3, [r5, #28]
 8001dae:	2380      	movs	r3, #128	@ 0x80
 8001db0:	0028      	movs	r0, r5
 8001db2:	015b      	lsls	r3, r3, #5
 8001db4:	612a      	str	r2, [r5, #16]
 8001db6:	622b      	str	r3, [r5, #32]
 8001db8:	f001 f85c 	bl	8002e74 <HAL_DMA_Init>
 8001dbc:	2800      	cmp	r0, #0
 8001dbe:	d10d      	bne.n	8001ddc <HAL_UART_MspInit+0xcc>
 8001dc0:	2201      	movs	r2, #1
 8001dc2:	2101      	movs	r1, #1
 8001dc4:	201c      	movs	r0, #28
 8001dc6:	67e5      	str	r5, [r4, #124]	@ 0x7c
 8001dc8:	62ac      	str	r4, [r5, #40]	@ 0x28
 8001dca:	f000 fff3 	bl	8002db4 <HAL_NVIC_SetPriority>
 8001dce:	201c      	movs	r0, #28
 8001dd0:	f001 f81a 	bl	8002e08 <HAL_NVIC_EnableIRQ>
 8001dd4:	e7a8      	b.n	8001d28 <HAL_UART_MspInit+0x18>
 8001dd6:	f7fe ff41 	bl	8000c5c <Error_Handler>
 8001dda:	e7d9      	b.n	8001d90 <HAL_UART_MspInit+0x80>
 8001ddc:	f7fe ff3e 	bl	8000c5c <Error_Handler>
 8001de0:	e7ee      	b.n	8001dc0 <HAL_UART_MspInit+0xb0>
 8001de2:	46c0      	nop			@ (mov r8, r8)
 8001de4:	40004400 	.word	0x40004400
 8001de8:	40021000 	.word	0x40021000
 8001dec:	20000500 	.word	0x20000500
 8001df0:	4002001c 	.word	0x4002001c
 8001df4:	40020030 	.word	0x40020030
 8001df8:	200004a4 	.word	0x200004a4

08001dfc <NMI_Handler>:
{
  /* USER CODE BEGIN NonMaskableInt_IRQn 0 */

  /* USER CODE END NonMaskableInt_IRQn 0 */
  /* USER CODE BEGIN NonMaskableInt_IRQn 1 */
   while (1)
 8001dfc:	e7fe      	b.n	8001dfc <NMI_Handler>
 8001dfe:	46c0      	nop			@ (mov r8, r8)

08001e00 <HardFault_Handler>:
void HardFault_Handler(void)
{
  /* USER CODE BEGIN HardFault_IRQn 0 */

  /* USER CODE END HardFault_IRQn 0 */
  while (1)
 8001e00:	e7fe      	b.n	8001e00 <HardFault_Handler>
 8001e02:	46c0      	nop			@ (mov r8, r8)

08001e04 <SVC_Handler>:

  /* USER CODE END SVC_IRQn 0 */
  /* USER CODE BEGIN SVC_IRQn 1 */

  /* USER CODE END SVC_IRQn 1 */
}
 8001e04:	4770      	bx	lr
 8001e06:	46c0      	nop			@ (mov r8, r8)

08001e08 <PendSV_Handler>:

/**
  * @brief This function handles Pendable request for system service.
  */
void PendSV_Handler(void)
 8001e08:	4770      	bx	lr
 8001e0a:	46c0      	nop			@ (mov r8, r8)

08001e0c <SysTick_Handler>:

/**
  * @brief This function handles System tick timer.
  */
void SysTick_Handler(void)
{
 8001e0c:	b510      	push	{r4, lr}
  /* USER CODE BEGIN SysTick_IRQn 0 */

  /* USER CODE END SysTick_IRQn 0 */
  HAL_IncTick();
 8001e0e:	f000 fa4f 	bl	80022b0 <HAL_IncTick>
  /* USER CODE BEGIN SysTick_IRQn 1 */

  /* USER CODE END SysTick_IRQn 1 */
}
 8001e12:	bd10      	pop	{r4, pc}

08001e14 <EXTI4_15_IRQHandler>:

/**
  * @brief This function handles EXTI line 4 to 15 interrupts.
  */
void EXTI4_15_IRQHandler(void)
{
 8001e14:	b510      	push	{r4, lr}
  /* USER CODE BEGIN EXTI4_15_IRQn 0 */

  /* USER CODE END EXTI4_15_IRQn 0 */

	HAL_GPIO_EXTI_IRQHandler(CLK_IN_Pin);
 8001e16:	2080      	movs	r0, #128	@ 0x80
 8001e18:	f001 fadc 	bl	80033d4 <HAL_GPIO_EXTI_IRQHandler>
	//HAL_GPIO_EXTI_IRQHandler(SW_IN_Pin);

  /* USER CODE BEGIN EXTI4_15_IRQn 1 */

  /* USER CODE END EXTI4_15_IRQn 1 */
}
 8001e1c:	bd10      	pop	{r4, pc}
 8001e1e:	46c0      	nop			@ (mov r8, r8)

08001e20 <DMA1_Channel1_IRQHandler>:

/**
  * @brief This function handles DMA1 channel 1 interrupt.
  */
void DMA1_Channel1_IRQHandler(void)
{
 8001e20:	b510      	push	{r4, lr}
  /* USER CODE BEGIN DMA1_Channel1_IRQn 0 */

  /* USER CODE END DMA1_Channel1_IRQn 0 */
  HAL_DMA_IRQHandler(&hdma_adc1);
 8001e22:	4802      	ldr	r0, [pc, #8]	@ (8001e2c <DMA1_Channel1_IRQHandler+0xc>)
 8001e24:	f001 f97c 	bl	8003120 <HAL_DMA_IRQHandler>
  /* USER CODE BEGIN DMA1_Channel1_IRQn 1 */

  /* USER CODE END DMA1_Channel1_IRQn 1 */
}
 8001e28:	bd10      	pop	{r4, pc}
 8001e2a:	46c0      	nop			@ (mov r8, r8)
 8001e2c:	20000a90 	.word	0x20000a90

08001e30 <DMA1_Channel2_3_IRQHandler>:

/**
  * @brief This function handles DMA1 channel 2 and channel 3 interrupts.
  */
void DMA1_Channel2_3_IRQHandler(void)
{
 8001e30:	b510      	push	{r4, lr}
  /* USER CODE BEGIN DMA1_Channel2_3_IRQn 0 */

  /* USER CODE END DMA1_Channel2_3_IRQn 0 */
  HAL_DMA_IRQHandler(&hdma_usart2_rx);
 8001e32:	4803      	ldr	r0, [pc, #12]	@ (8001e40 <DMA1_Channel2_3_IRQHandler+0x10>)
 8001e34:	f001 f974 	bl	8003120 <HAL_DMA_IRQHandler>
  HAL_DMA_IRQHandler(&hdma_usart2_tx);
 8001e38:	4802      	ldr	r0, [pc, #8]	@ (8001e44 <DMA1_Channel2_3_IRQHandler+0x14>)
 8001e3a:	f001 f971 	bl	8003120 <HAL_DMA_IRQHandler>
  /* USER CODE BEGIN DMA1_Channel2_3_IRQn 1 */

  /* USER CODE END DMA1_Channel2_3_IRQn 1 */
}
 8001e3e:	bd10      	pop	{r4, pc}
 8001e40:	20000500 	.word	0x20000500
 8001e44:	200004a4 	.word	0x200004a4

08001e48 <TIM2_IRQHandler>:

/**
  * @brief This function handles TIM2 global interrupt.
  */
void TIM2_IRQHandler(void)
{
 8001e48:	b510      	push	{r4, lr}
  /* USER CODE BEGIN TIM2_IRQn 0 */

  /* USER CODE END TIM2_IRQn 0 */
  HAL_TIM_IRQHandler(&htim2);
 8001e4a:	4802      	ldr	r0, [pc, #8]	@ (8001e54 <TIM2_IRQHandler+0xc>)
 8001e4c:	f002 ffbc 	bl	8004dc8 <HAL_TIM_IRQHandler>
  /* USER CODE BEGIN TIM2_IRQn 1 */

  /* USER CODE END TIM2_IRQn 1 */
}
 8001e50:	bd10      	pop	{r4, pc}
 8001e52:	46c0      	nop			@ (mov r8, r8)
 8001e54:	200007a0 	.word	0x200007a0

08001e58 <TIM3_IRQHandler>:

/**
  * @brief This function handles TIM3 global interrupt.
  */
void TIM3_IRQHandler(void)
{
 8001e58:	b510      	push	{r4, lr}
  /* USER CODE BEGIN TIM3_IRQn 0 */

  /* USER CODE END TIM3_IRQn 0 */
  HAL_TIM_IRQHandler(&htim3);
 8001e5a:	4802      	ldr	r0, [pc, #8]	@ (8001e64 <TIM3_IRQHandler+0xc>)
 8001e5c:	f002 ffb4 	bl	8004dc8 <HAL_TIM_IRQHandler>
  /* USER CODE BEGIN TIM3_IRQn 1 */

  /* USER CODE END TIM3_IRQn 1 */
}
 8001e60:	bd10      	pop	{r4, pc}
 8001e62:	46c0      	nop			@ (mov r8, r8)
 8001e64:	200006e4 	.word	0x200006e4

08001e68 <TIM16_IRQHandler>:

/**
  * @brief This function handles TIM16 global interrupt.
  */
void TIM16_IRQHandler(void)
{
 8001e68:	b510      	push	{r4, lr}
  /* USER CODE BEGIN TIM16_IRQn 0 */

  /* USER CODE END TIM16_IRQn 0 */
  HAL_TIM_IRQHandler(&htim16);
 8001e6a:	4802      	ldr	r0, [pc, #8]	@ (8001e74 <TIM16_IRQHandler+0xc>)
 8001e6c:	f002 ffac 	bl	8004dc8 <HAL_TIM_IRQHandler>
  /* USER CODE BEGIN TIM16_IRQn 1 */

  /* USER CODE END TIM16_IRQn 1 */
}
 8001e70:	bd10      	pop	{r4, pc}
 8001e72:	46c0      	nop			@ (mov r8, r8)
 8001e74:	2000085c 	.word	0x2000085c

08001e78 <USART2_IRQHandler>:

/**
  * @brief This function handles USART2 global interrupt / USART2 wake-up interrupt through EXTI line 26.
  */
void USART2_IRQHandler(void)
{
 8001e78:	b510      	push	{r4, lr}
  /* USER CODE BEGIN USART2_IRQn 0 */

  /* USER CODE END USART2_IRQn 0 */
  HAL_UART_IRQHandler(&huart2);
 8001e7a:	4802      	ldr	r0, [pc, #8]	@ (8001e84 <USART2_IRQHandler+0xc>)
 8001e7c:	f004 f804 	bl	8005e88 <HAL_UART_IRQHandler>
  /* USER CODE BEGIN USART2_IRQn 1 */

  /* USER CODE END USART2_IRQn 1 */
}
 8001e80:	bd10      	pop	{r4, pc}
 8001e82:	46c0      	nop			@ (mov r8, r8)
 8001e84:	2000055c 	.word	0x2000055c

08001e88 <LPTIM1_IRQHandler>:
/* USER CODE BEGIN 1 */

/* USER CODE END 1 */

void LPTIM1_IRQHandler(void)
{
 8001e88:	b510      	push	{r4, lr}
  HAL_LPTIM_IRQHandler(&hlptim1);
 8001e8a:	4802      	ldr	r0, [pc, #8]	@ (8001e94 <LPTIM1_IRQHandler+0xc>)
 8001e8c:	f001 fb4e 	bl	800352c <HAL_LPTIM_IRQHandler>
}
 8001e90:	bd10      	pop	{r4, pc}
 8001e92:	46c0      	nop			@ (mov r8, r8)
 8001e94:	20000448 	.word	0x20000448

08001e98 <TIM17_IRQHandler>:


void TIM17_IRQHandler(void)
{
 8001e98:	b510      	push	{r4, lr}
  /* USER CODE BEGIN TIM17_IRQn 0 */

  /* USER CODE END TIM17_IRQn 0 */
  HAL_TIM_IRQHandler(&htim17);
 8001e9a:	4802      	ldr	r0, [pc, #8]	@ (8001ea4 <TIM17_IRQHandler+0xc>)
 8001e9c:	f002 ff94 	bl	8004dc8 <HAL_TIM_IRQHandler>
  /* USER CODE BEGIN TIM17_IRQn 1 */

  /* USER CODE END TIM17_IRQn 1 */
}
 8001ea0:	bd10      	pop	{r4, pc}
 8001ea2:	46c0      	nop			@ (mov r8, r8)
 8001ea4:	20000918 	.word	0x20000918

08001ea8 <TIM14_IRQHandler>:

/**
  * @brief This function handles TIM14 global interrupt.
  */
void TIM14_IRQHandler(void)
{
 8001ea8:	b510      	push	{r4, lr}
  /* USER CODE BEGIN TIM14_IRQn 0 */

  /* USER CODE END TIM14_IRQn 0 */
  HAL_TIM_IRQHandler(&htim14);
 8001eaa:	4802      	ldr	r0, [pc, #8]	@ (8001eb4 <TIM14_IRQHandler+0xc>)
 8001eac:	f002 ff8c 	bl	8004dc8 <HAL_TIM_IRQHandler>
  /* USER CODE BEGIN TIM14_IRQn 1 */

  /* USER CODE END TIM14_IRQn 1 */
}
 8001eb0:	bd10      	pop	{r4, pc}
 8001eb2:	46c0      	nop			@ (mov r8, r8)
 8001eb4:	200009d4 	.word	0x200009d4

08001eb8 <Process_TIM16_Final_Start_Value_and_Final_Prescaler>:
    	params_ptr->final_prescaler = params_ptr->raw_prescaler;
    }
    return 1;
}

uint8_t Process_TIM16_Final_Start_Value_and_Final_Prescaler(struct Params* params_ptr){
 8001eb8:	b5f0      	push	{r4, r5, r6, r7, lr}
 8001eba:	46d6      	mov	lr, sl
 8001ebc:	464f      	mov	r7, r9
 8001ebe:	4646      	mov	r6, r8
 8001ec0:	b5c0      	push	{r6, r7, lr}

			uint8_t pot_rotation_corrected = 0;
			enum Symmetry_Status symmetry_status = CW;

			//DETERMINE IF CW OR CCW SYMMETRY POT ROTATION
			if(params_ptr->symmetry < SYMMETRY_ADC_HALF_SCALE){ //adc = 0-127
 8001ec2:	8982      	ldrh	r2, [r0, #12]
			else{ //adc is 128-255
				symmetry_status = CCW;
			}

			//DETERMINE WHETHER TO SHORTEN OR LENGTHEN BASED ON CURRENT INDEX AND SYMMETRY POT POSITION
			if((params_ptr->waveshape == SINE_MODE) || (params_ptr->waveshape == TRIANGLE_MODE)){
 8001ec4:	7983      	ldrb	r3, [r0, #6]
uint8_t Process_TIM16_Final_Start_Value_and_Final_Prescaler(struct Params* params_ptr){
 8001ec6:	0004      	movs	r4, r0
			if(params_ptr->symmetry < SYMMETRY_ADC_HALF_SCALE){ //adc = 0-127
 8001ec8:	b292      	uxth	r2, r2
			if((params_ptr->waveshape == SINE_MODE) || (params_ptr->waveshape == TRIANGLE_MODE)){
 8001eca:	2b01      	cmp	r3, #1
 8001ecc:	d054      	beq.n	8001f78 <Process_TIM16_Final_Start_Value_and_Final_Prescaler+0xc0>
 8001ece:	7983      	ldrb	r3, [r0, #6]
 8001ed0:	2b00      	cmp	r3, #0
 8001ed2:	d051      	beq.n	8001f78 <Process_TIM16_Final_Start_Value_and_Final_Prescaler+0xc0>

						symmetry_type_for_halfcycle = LENGTHEN;
					}
				}
			}
			else if(params_ptr->waveshape == SQUARE_MODE){
 8001ed4:	7983      	ldrb	r3, [r0, #6]
 8001ed6:	2b02      	cmp	r3, #2
 8001ed8:	d100      	bne.n	8001edc <Process_TIM16_Final_Start_Value_and_Final_Prescaler+0x24>
 8001eda:	e0ce      	b.n	800207a <Process_TIM16_Final_Start_Value_and_Final_Prescaler+0x1c2>
						symmetry_type_for_halfcycle = LENGTHEN;
					}
				}
			}

			if(symmetry_status == CW){
 8001edc:	2700      	movs	r7, #0
 8001ede:	2a7f      	cmp	r2, #127	@ 0x7f
 8001ee0:	d854      	bhi.n	8001f8c <Process_TIM16_Final_Start_Value_and_Final_Prescaler+0xd4>

				pot_rotation_corrected = SYMMETRY_ADC_HALF_SCALE - 1 - params_ptr->symmetry;
 8001ee2:	227f      	movs	r2, #127	@ 0x7f
 8001ee4:	89a3      	ldrh	r3, [r4, #12]
 8001ee6:	1ad2      	subs	r2, r2, r3
 8001ee8:	b2d2      	uxtb	r2, r2

				pot_rotation_corrected = SYMMETRY_ADC_HALF_SCALE - 1 - (SYMMETRY_ADC_FULL_SCALE - params_ptr->symmetry);
			}

			//HAVE TO BE uin16_t FOR 1ST AND 3RD VARIABLES HERE BECAUSE A uint8_t IS LIMITED TO 255!
			uint16_t two_fifty_six_minus_TIM16_raw_start_value = 256 - params_ptr->raw_start_value;
 8001eea:	8a65      	ldrh	r5, [r4, #18]
 8001eec:	b2ab      	uxth	r3, r5
 8001eee:	4698      	mov	r8, r3
 8001ef0:	2380      	movs	r3, #128	@ 0x80
 8001ef2:	005b      	lsls	r3, r3, #1
 8001ef4:	1b5d      	subs	r5, r3, r5
 8001ef6:	b2ad      	uxth	r5, r5

			//uint16_t two_fifty_six_minus_TIM16_raw_start_value_multiplied_by_PRC = (two_fifty_six_minus_TIM16_raw_start_value * pot_rotation_corrected);
			//COMMENT LINE BELOW IN AND LINE ABOVE OUT TO EXPERIMENT WITH MORE EXTREME SYMMETRY ADJUSTMENT
			uint16_t two_fifty_six_minus_TIM16_raw_start_value_multiplied_by_PRC = ((two_fifty_six_minus_TIM16_raw_start_value * pot_rotation_corrected) * 12) >> 3; //x(12/8) - 12/8 is the absolute maximum we can get away with
 8001ef8:	436a      	muls	r2, r5
 8001efa:	0056      	lsls	r6, r2, #1
 8001efc:	18b6      	adds	r6, r6, r2
 8001efe:	1076      	asrs	r6, r6, #1

			uint16_t two_fifty_six_minus_TIM16_raw_start_value_multiplied_by_PRC_and_shifted_by_ADC_bits = (uint16_t)(two_fifty_six_minus_TIM16_raw_start_value_multiplied_by_PRC >> SYMMETRY_ADC_NUM_BITS);
 8001f00:	b2b2      	uxth	r2, r6
 8001f02:	0a12      	lsrs	r2, r2, #8
 8001f04:	4691      	mov	r9, r2


			//HAVE TO BE uin16_t HERE BECAUSE A uint8_t IS LIMITED TO 255!
			uint16_t manipulated_period_shorten = two_fifty_six_minus_TIM16_raw_start_value - two_fifty_six_minus_TIM16_raw_start_value_multiplied_by_PRC_and_shifted_by_ADC_bits; //manipulated shorten will always be less than 256
 8001f06:	1aaa      	subs	r2, r5, r2

			uint16_t manipulated_period_lengthen = two_fifty_six_minus_TIM16_raw_start_value + two_fifty_six_minus_TIM16_raw_start_value_multiplied_by_PRC_and_shifted_by_ADC_bits; //manipulated lengthen can be greater than 256 up to 381
 8001f08:	444d      	add	r5, r9
			uint16_t manipulated_period_shorten = two_fifty_six_minus_TIM16_raw_start_value - two_fifty_six_minus_TIM16_raw_start_value_multiplied_by_PRC_and_shifted_by_ADC_bits; //manipulated shorten will always be less than 256
 8001f0a:	b292      	uxth	r2, r2


			if((manipulated_period_lengthen < 256) || ((manipulated_period_lengthen == 256) && (unsigned_bitwise_modulo(two_fifty_six_minus_TIM16_raw_start_value_multiplied_by_PRC, 8) == 0))){

				if(unsigned_bitwise_modulo(two_fifty_six_minus_TIM16_raw_start_value_multiplied_by_PRC, 8) == 128){
 8001f0c:	0436      	lsls	r6, r6, #16
			uint16_t manipulated_period_lengthen = two_fifty_six_minus_TIM16_raw_start_value + two_fifty_six_minus_TIM16_raw_start_value_multiplied_by_PRC_and_shifted_by_ADC_bits; //manipulated lengthen can be greater than 256 up to 381
 8001f0e:	b2ad      	uxth	r5, r5
			uint16_t manipulated_period_shorten = two_fifty_six_minus_TIM16_raw_start_value - two_fifty_six_minus_TIM16_raw_start_value_multiplied_by_PRC_and_shifted_by_ADC_bits; //manipulated shorten will always be less than 256
 8001f10:	4692      	mov	sl, r2
				if(unsigned_bitwise_modulo(two_fifty_six_minus_TIM16_raw_start_value_multiplied_by_PRC, 8) == 128){
 8001f12:	0c36      	lsrs	r6, r6, #16
			if((manipulated_period_lengthen < 256) || ((manipulated_period_lengthen == 256) && (unsigned_bitwise_modulo(two_fifty_six_minus_TIM16_raw_start_value_multiplied_by_PRC, 8) == 0))){
 8001f14:	2dff      	cmp	r5, #255	@ 0xff
 8001f16:	d800      	bhi.n	8001f1a <Process_TIM16_Final_Start_Value_and_Final_Prescaler+0x62>
 8001f18:	e07f      	b.n	800201a <Process_TIM16_Final_Start_Value_and_Final_Prescaler+0x162>
 8001f1a:	429d      	cmp	r5, r3
 8001f1c:	d100      	bne.n	8001f20 <Process_TIM16_Final_Start_Value_and_Final_Prescaler+0x68>
 8001f1e:	e0db      	b.n	80020d8 <Process_TIM16_Final_Start_Value_and_Final_Prescaler+0x220>
				}
			}

			else if((manipulated_period_lengthen > 256) || ((manipulated_period_lengthen == 256) && (unsigned_bitwise_modulo(two_fifty_six_minus_TIM16_raw_start_value_multiplied_by_PRC, 8) > 0))){

				if(unsigned_bitwise_modulo(two_fifty_six_minus_TIM16_raw_start_value_multiplied_by_PRC, 8) == 128){
 8001f20:	2108      	movs	r1, #8
 8001f22:	0030      	movs	r0, r6
 8001f24:	f000 f948 	bl	80021b8 <unsigned_bitwise_modulo>
 8001f28:	2880      	cmp	r0, #128	@ 0x80
 8001f2a:	d100      	bne.n	8001f2e <Process_TIM16_Final_Start_Value_and_Final_Prescaler+0x76>
 8001f2c:	e0c1      	b.n	80020b2 <Process_TIM16_Final_Start_Value_and_Final_Prescaler+0x1fa>
							TIM16_final_start_value_oscillation_mode = OSCILLATE_UPWARDS;
							params_ptr->prescaler_adjust = MULTIPLY_BY_TWO;
						}
					}
				}
				else if(unsigned_bitwise_modulo(two_fifty_six_minus_TIM16_raw_start_value_multiplied_by_PRC, 8) == 0){
 8001f2e:	2108      	movs	r1, #8
 8001f30:	0030      	movs	r0, r6
 8001f32:	f000 f941 	bl	80021b8 <unsigned_bitwise_modulo>
 8001f36:	2800      	cmp	r0, #0
 8001f38:	d040      	beq.n	8001fbc <Process_TIM16_Final_Start_Value_and_Final_Prescaler+0x104>
							TIM16_final_start_value_oscillation_mode = OSCILLATE_UPWARDS;
							params_ptr->prescaler_adjust = MULTIPLY_BY_TWO;
						}
					}
				}
				else if(unsigned_bitwise_modulo(two_fifty_six_minus_TIM16_raw_start_value_multiplied_by_PRC, 8) < 128){
 8001f3a:	2108      	movs	r1, #8
 8001f3c:	0030      	movs	r0, r6
 8001f3e:	f000 f93b 	bl	80021b8 <unsigned_bitwise_modulo>
 8001f42:	287f      	cmp	r0, #127	@ 0x7f
 8001f44:	d93a      	bls.n	8001fbc <Process_TIM16_Final_Start_Value_and_Final_Prescaler+0x104>
							TIM16_final_start_value_oscillation_mode = OSCILLATE_UPWARDS;
							params_ptr->prescaler_adjust = MULTIPLY_BY_TWO;
						}
					}
				}
				else if(unsigned_bitwise_modulo(two_fifty_six_minus_TIM16_raw_start_value_multiplied_by_PRC, 8) > 128){
 8001f46:	2108      	movs	r1, #8
 8001f48:	0030      	movs	r0, r6
 8001f4a:	f000 f935 	bl	80021b8 <unsigned_bitwise_modulo>
 8001f4e:	2880      	cmp	r0, #128	@ 0x80
 8001f50:	d900      	bls.n	8001f54 <Process_TIM16_Final_Start_Value_and_Final_Prescaler+0x9c>
 8001f52:	e0ae      	b.n	80020b2 <Process_TIM16_Final_Start_Value_and_Final_Prescaler+0x1fa>
			}

	        //DETERMINE THE TIM16_FINAL_START_VALUE FROM MANIPULATED_PERIOD_LENGTHEN/SHORTEN CALCULATED
	        //NOTE INVERSE RELATIONSHIP BETWEEN TIM16_FINAL_START_VALUE AND MANIPULATED_PERIOD_LENGTHEN/SHORTEN BECAUSE 256-TIM16_FINAL_START_VALUE = MANIPULATED_PERIOD_LENGTHEN/SHORTEN
	        //ODD VALUES OF CURRENT_INDEX WILL FEATURE THE ADJUSTED(OSCILLATED) VALUE
	        if(symmetry_type_for_halfcycle == SHORTEN){
 8001f54:	2f00      	cmp	r7, #0
 8001f56:	d000      	beq.n	8001f5a <Process_TIM16_Final_Start_Value_and_Final_Prescaler+0xa2>
 8001f58:	e0a6      	b.n	80020a8 <Process_TIM16_Final_Start_Value_and_Final_Prescaler+0x1f0>

	            if(TIM16_final_start_value_oscillation_mode == DO_NOT_OSCILLATE){

	                params_ptr->final_start_value = 256 - manipulated_period_shorten;
 8001f5a:	2380      	movs	r3, #128	@ 0x80
 8001f5c:	4652      	mov	r2, sl
 8001f5e:	005b      	lsls	r3, r3, #1
 8001f60:	1a9b      	subs	r3, r3, r2
 8001f62:	b29b      	uxth	r3, r3
 8001f64:	82a3      	strh	r3, [r4, #20]
    if(params_ptr->prescaler_adjust == MULTIPLY_BY_TWO){
 8001f66:	2320      	movs	r3, #32
 8001f68:	5ce2      	ldrb	r2, [r4, r3]
 8001f6a:	2a01      	cmp	r2, #1
 8001f6c:	d13b      	bne.n	8001fe6 <Process_TIM16_Final_Start_Value_and_Final_Prescaler+0x12e>
    	params_ptr->final_prescaler = params_ptr->raw_prescaler << 1;
 8001f6e:	8b63      	ldrh	r3, [r4, #26]
 8001f70:	005b      	lsls	r3, r3, #1
 8001f72:	b29b      	uxth	r3, r3
 8001f74:	83a3      	strh	r3, [r4, #28]
 8001f76:	e03c      	b.n	8001ff2 <Process_TIM16_Final_Start_Value_and_Final_Prescaler+0x13a>
				if((params_ptr->halfcycle == FIRST_HALFCYCLE && params_ptr->quadrant == FIRST_QUADRANT) || (params_ptr->halfcycle == SECOND_HALFCYCLE && params_ptr->quadrant == SECOND_QUADRANT)){
 8001f78:	7c23      	ldrb	r3, [r4, #16]
 8001f7a:	2b00      	cmp	r3, #0
 8001f7c:	d10a      	bne.n	8001f94 <Process_TIM16_Final_Start_Value_and_Final_Prescaler+0xdc>
 8001f7e:	7c63      	ldrb	r3, [r4, #17]
 8001f80:	2b00      	cmp	r3, #0
 8001f82:	d107      	bne.n	8001f94 <Process_TIM16_Final_Start_Value_and_Final_Prescaler+0xdc>
					if(symmetry_status == CW){
 8001f84:	2700      	movs	r7, #0
 8001f86:	2a7f      	cmp	r2, #127	@ 0x7f
 8001f88:	d800      	bhi.n	8001f8c <Process_TIM16_Final_Start_Value_and_Final_Prescaler+0xd4>
 8001f8a:	e07d      	b.n	8002088 <Process_TIM16_Final_Start_Value_and_Final_Prescaler+0x1d0>
				pot_rotation_corrected = SYMMETRY_ADC_HALF_SCALE - 1 - (SYMMETRY_ADC_FULL_SCALE - params_ptr->symmetry);
 8001f8c:	89a2      	ldrh	r2, [r4, #12]
 8001f8e:	3a80      	subs	r2, #128	@ 0x80
 8001f90:	b2d2      	uxtb	r2, r2
 8001f92:	e7aa      	b.n	8001eea <Process_TIM16_Final_Start_Value_and_Final_Prescaler+0x32>
				if((params_ptr->halfcycle == FIRST_HALFCYCLE && params_ptr->quadrant == FIRST_QUADRANT) || (params_ptr->halfcycle == SECOND_HALFCYCLE && params_ptr->quadrant == SECOND_QUADRANT)){
 8001f94:	7c23      	ldrb	r3, [r4, #16]
 8001f96:	2b01      	cmp	r3, #1
 8001f98:	d05a      	beq.n	8002050 <Process_TIM16_Final_Start_Value_and_Final_Prescaler+0x198>
				else if((params_ptr->halfcycle == FIRST_HALFCYCLE && params_ptr->quadrant == SECOND_QUADRANT) || (params_ptr->halfcycle == SECOND_HALFCYCLE && params_ptr->quadrant == FIRST_QUADRANT)){
 8001f9a:	7c23      	ldrb	r3, [r4, #16]
 8001f9c:	2b00      	cmp	r3, #0
 8001f9e:	d102      	bne.n	8001fa6 <Process_TIM16_Final_Start_Value_and_Final_Prescaler+0xee>
 8001fa0:	7c63      	ldrb	r3, [r4, #17]
 8001fa2:	2b01      	cmp	r3, #1
 8001fa4:	d005      	beq.n	8001fb2 <Process_TIM16_Final_Start_Value_and_Final_Prescaler+0xfa>
 8001fa6:	7c23      	ldrb	r3, [r4, #16]
 8001fa8:	2b01      	cmp	r3, #1
 8001faa:	d197      	bne.n	8001edc <Process_TIM16_Final_Start_Value_and_Final_Prescaler+0x24>
 8001fac:	7c63      	ldrb	r3, [r4, #17]
 8001fae:	2b00      	cmp	r3, #0
 8001fb0:	d194      	bne.n	8001edc <Process_TIM16_Final_Start_Value_and_Final_Prescaler+0x24>
						symmetry_type_for_halfcycle = LENGTHEN;
 8001fb2:	2701      	movs	r7, #1
					if(symmetry_status == CW){
 8001fb4:	2a7f      	cmp	r2, #127	@ 0x7f
 8001fb6:	d8e9      	bhi.n	8001f8c <Process_TIM16_Final_Start_Value_and_Final_Prescaler+0xd4>
 8001fb8:	2700      	movs	r7, #0
 8001fba:	e792      	b.n	8001ee2 <Process_TIM16_Final_Start_Value_and_Final_Prescaler+0x2a>
					if(unsigned_bitwise_modulo(manipulated_period_lengthen, 1) == 0){
 8001fbc:	0028      	movs	r0, r5
 8001fbe:	2101      	movs	r1, #1
 8001fc0:	f000 f8fa 	bl	80021b8 <unsigned_bitwise_modulo>
						manipulated_period_lengthen = manipulated_period_lengthen >> 1; //DONE
 8001fc4:	086d      	lsrs	r5, r5, #1
							params_ptr->prescaler_adjust = DO_NOTHING;
 8001fc6:	2320      	movs	r3, #32
					if(unsigned_bitwise_modulo(manipulated_period_lengthen, 1) == 0){
 8001fc8:	2800      	cmp	r0, #0
 8001fca:	d145      	bne.n	8002058 <Process_TIM16_Final_Start_Value_and_Final_Prescaler+0x1a0>
						if(symmetry_type_for_halfcycle == SHORTEN){
 8001fcc:	2f00      	cmp	r7, #0
 8001fce:	d100      	bne.n	8001fd2 <Process_TIM16_Final_Start_Value_and_Final_Prescaler+0x11a>
 8001fd0:	e094      	b.n	80020fc <Process_TIM16_Final_Start_Value_and_Final_Prescaler+0x244>
							params_ptr->prescaler_adjust = MULTIPLY_BY_TWO;
 8001fd2:	2201      	movs	r2, #1
 8001fd4:	54e2      	strb	r2, [r4, r3]
	        }
	        else if(symmetry_type_for_halfcycle == LENGTHEN){

	            if(TIM16_final_start_value_oscillation_mode == DO_NOT_OSCILLATE){

	                params_ptr->final_start_value = 256 - manipulated_period_lengthen;
 8001fd6:	33e0      	adds	r3, #224	@ 0xe0
 8001fd8:	1b5b      	subs	r3, r3, r5
 8001fda:	b29b      	uxth	r3, r3

	                    params_ptr->final_start_value = 256 - manipulated_period_lengthen;
	                }
	                else{ //if current index is odd

	                    params_ptr->final_start_value = 256 - manipulated_period_lengthen - 1;
 8001fdc:	82a3      	strh	r3, [r4, #20]
    if(params_ptr->prescaler_adjust == MULTIPLY_BY_TWO){
 8001fde:	2320      	movs	r3, #32
 8001fe0:	5ce2      	ldrb	r2, [r4, r3]
 8001fe2:	2a01      	cmp	r2, #1
 8001fe4:	d0c3      	beq.n	8001f6e <Process_TIM16_Final_Start_Value_and_Final_Prescaler+0xb6>
    else if(params_ptr->prescaler_adjust == DO_NOTHING){
 8001fe6:	5ce3      	ldrb	r3, [r4, r3]
 8001fe8:	2b00      	cmp	r3, #0
 8001fea:	d102      	bne.n	8001ff2 <Process_TIM16_Final_Start_Value_and_Final_Prescaler+0x13a>
    	params_ptr->final_prescaler = params_ptr->raw_prescaler;
 8001fec:	8b63      	ldrh	r3, [r4, #26]
 8001fee:	b29b      	uxth	r3, r3
 8001ff0:	83a3      	strh	r3, [r4, #28]
		params_ptr->final_start_value = params_ptr->raw_start_value;
		params_ptr->prescaler_adjust = DO_NOTHING;
        Adjust_TIM16_Prescaler(params_ptr);
    #endif

    params_ptr->final_period = 256 - params_ptr->final_start_value;
 8001ff2:	2380      	movs	r3, #128	@ 0x80
 8001ff4:	8aa2      	ldrh	r2, [r4, #20]
 8001ff6:	005b      	lsls	r3, r3, #1
 8001ff8:	1a9b      	subs	r3, r3, r2
 8001ffa:	b29b      	uxth	r3, r3
 8001ffc:	82e3      	strh	r3, [r4, #22]
    params_ptr->final_ARR = params_ptr->final_period - 1;
 8001ffe:	8ae3      	ldrh	r3, [r4, #22]
    params_ptr->final_prescaler_minus_one = params_ptr->final_prescaler - 1;

    return 1;
}
 8002000:	2001      	movs	r0, #1
    params_ptr->final_ARR = params_ptr->final_period - 1;
 8002002:	3b01      	subs	r3, #1
 8002004:	b29b      	uxth	r3, r3
 8002006:	8323      	strh	r3, [r4, #24]
    params_ptr->final_prescaler_minus_one = params_ptr->final_prescaler - 1;
 8002008:	8ba3      	ldrh	r3, [r4, #28]
 800200a:	3b01      	subs	r3, #1
 800200c:	b29b      	uxth	r3, r3
 800200e:	83e3      	strh	r3, [r4, #30]
}
 8002010:	bce0      	pop	{r5, r6, r7}
 8002012:	46ba      	mov	sl, r7
 8002014:	46b1      	mov	r9, r6
 8002016:	46a8      	mov	r8, r5
 8002018:	bdf0      	pop	{r4, r5, r6, r7, pc}
				if(unsigned_bitwise_modulo(two_fifty_six_minus_TIM16_raw_start_value_multiplied_by_PRC, 8) == 128){
 800201a:	2108      	movs	r1, #8
 800201c:	0030      	movs	r0, r6
 800201e:	f000 f8cb 	bl	80021b8 <unsigned_bitwise_modulo>
 8002022:	2880      	cmp	r0, #128	@ 0x80
 8002024:	d135      	bne.n	8002092 <Process_TIM16_Final_Start_Value_and_Final_Prescaler+0x1da>
					params_ptr->prescaler_adjust = DO_NOTHING;
 8002026:	2320      	movs	r3, #32
					if(symmetry_type_for_halfcycle == SHORTEN){
 8002028:	2f00      	cmp	r7, #0
 800202a:	d12f      	bne.n	800208c <Process_TIM16_Final_Start_Value_and_Final_Prescaler+0x1d4>
					params_ptr->prescaler_adjust = DO_NOTHING;
 800202c:	54e7      	strb	r7, [r4, r3]
	                if(unsigned_bitwise_modulo(params_ptr->index, 1) == 0){ //if current index is even
 800202e:	89e0      	ldrh	r0, [r4, #14]
 8002030:	2101      	movs	r1, #1
 8002032:	b280      	uxth	r0, r0
 8002034:	f000 f8c0 	bl	80021b8 <unsigned_bitwise_modulo>
 8002038:	4643      	mov	r3, r8
 800203a:	3b01      	subs	r3, #1
 800203c:	3bff      	subs	r3, #255	@ 0xff
 800203e:	444b      	add	r3, r9
 8002040:	b29b      	uxth	r3, r3
 8002042:	2800      	cmp	r0, #0
 8002044:	d165      	bne.n	8002112 <Process_TIM16_Final_Start_Value_and_Final_Prescaler+0x25a>
	                    params_ptr->final_start_value = 256 - manipulated_period_shorten;
 8002046:	3301      	adds	r3, #1
 8002048:	33ff      	adds	r3, #255	@ 0xff
 800204a:	b29b      	uxth	r3, r3
 800204c:	82a3      	strh	r3, [r4, #20]
 800204e:	e7c6      	b.n	8001fde <Process_TIM16_Final_Start_Value_and_Final_Prescaler+0x126>
				if((params_ptr->halfcycle == FIRST_HALFCYCLE && params_ptr->quadrant == FIRST_QUADRANT) || (params_ptr->halfcycle == SECOND_HALFCYCLE && params_ptr->quadrant == SECOND_QUADRANT)){
 8002050:	7c63      	ldrb	r3, [r4, #17]
 8002052:	2b01      	cmp	r3, #1
 8002054:	d1a1      	bne.n	8001f9a <Process_TIM16_Final_Start_Value_and_Final_Prescaler+0xe2>
 8002056:	e795      	b.n	8001f84 <Process_TIM16_Final_Start_Value_and_Final_Prescaler+0xcc>
						if(symmetry_type_for_halfcycle == SHORTEN){
 8002058:	2f00      	cmp	r7, #0
 800205a:	d04f      	beq.n	80020fc <Process_TIM16_Final_Start_Value_and_Final_Prescaler+0x244>
							params_ptr->prescaler_adjust = MULTIPLY_BY_TWO;
 800205c:	2201      	movs	r2, #1
 800205e:	54e2      	strb	r2, [r4, r3]
	                if(unsigned_bitwise_modulo(params_ptr->index, 1) == 0){ //if current index is even
 8002060:	89e0      	ldrh	r0, [r4, #14]
 8002062:	2101      	movs	r1, #1
 8002064:	b280      	uxth	r0, r0
 8002066:	f000 f8a7 	bl	80021b8 <unsigned_bitwise_modulo>
 800206a:	2800      	cmp	r0, #0
 800206c:	d16f      	bne.n	800214e <Process_TIM16_Final_Start_Value_and_Final_Prescaler+0x296>
	                    params_ptr->final_start_value = 256 - manipulated_period_lengthen;
 800206e:	2380      	movs	r3, #128	@ 0x80
 8002070:	005b      	lsls	r3, r3, #1
 8002072:	1b5b      	subs	r3, r3, r5
 8002074:	b29b      	uxth	r3, r3
 8002076:	82a3      	strh	r3, [r4, #20]
 8002078:	e7b1      	b.n	8001fde <Process_TIM16_Final_Start_Value_and_Final_Prescaler+0x126>
				if(params_ptr->halfcycle == FIRST_HALFCYCLE){
 800207a:	7c03      	ldrb	r3, [r0, #16]
 800207c:	b2df      	uxtb	r7, r3
 800207e:	2b00      	cmp	r3, #0
 8002080:	d197      	bne.n	8001fb2 <Process_TIM16_Final_Start_Value_and_Final_Prescaler+0xfa>
					if(symmetry_status == CW){
 8002082:	2a7f      	cmp	r2, #127	@ 0x7f
 8002084:	d900      	bls.n	8002088 <Process_TIM16_Final_Start_Value_and_Final_Prescaler+0x1d0>
 8002086:	e781      	b.n	8001f8c <Process_TIM16_Final_Start_Value_and_Final_Prescaler+0xd4>
						symmetry_type_for_halfcycle = LENGTHEN;
 8002088:	2701      	movs	r7, #1
 800208a:	e72a      	b.n	8001ee2 <Process_TIM16_Final_Start_Value_and_Final_Prescaler+0x2a>
					params_ptr->prescaler_adjust = DO_NOTHING;
 800208c:	2200      	movs	r2, #0
 800208e:	54e2      	strb	r2, [r4, r3]
	        if(symmetry_type_for_halfcycle == SHORTEN){
 8002090:	e7e6      	b.n	8002060 <Process_TIM16_Final_Start_Value_and_Final_Prescaler+0x1a8>
				else if(unsigned_bitwise_modulo(two_fifty_six_minus_TIM16_raw_start_value_multiplied_by_PRC, 8) == 0){
 8002092:	2108      	movs	r1, #8
 8002094:	0030      	movs	r0, r6
 8002096:	f000 f88f 	bl	80021b8 <unsigned_bitwise_modulo>
 800209a:	2800      	cmp	r0, #0
 800209c:	d13e      	bne.n	800211c <Process_TIM16_Final_Start_Value_and_Final_Prescaler+0x264>
					params_ptr->prescaler_adjust = DO_NOTHING;
 800209e:	2320      	movs	r3, #32
 80020a0:	54e0      	strb	r0, [r4, r3]
	        if(symmetry_type_for_halfcycle == SHORTEN){
 80020a2:	2f00      	cmp	r7, #0
 80020a4:	d100      	bne.n	80020a8 <Process_TIM16_Final_Start_Value_and_Final_Prescaler+0x1f0>
 80020a6:	e758      	b.n	8001f5a <Process_TIM16_Final_Start_Value_and_Final_Prescaler+0xa2>
	                params_ptr->final_start_value = 256 - manipulated_period_lengthen;
 80020a8:	2380      	movs	r3, #128	@ 0x80
 80020aa:	005b      	lsls	r3, r3, #1
 80020ac:	1b5b      	subs	r3, r3, r5
 80020ae:	b29b      	uxth	r3, r3
 80020b0:	e794      	b.n	8001fdc <Process_TIM16_Final_Start_Value_and_Final_Prescaler+0x124>
					manipulated_period_lengthen = manipulated_period_lengthen + 1; //DONE
 80020b2:	3501      	adds	r5, #1
 80020b4:	b2ad      	uxth	r5, r5
					if(unsigned_bitwise_modulo(manipulated_period_lengthen, 1) == 0){
 80020b6:	0028      	movs	r0, r5
 80020b8:	2101      	movs	r1, #1
 80020ba:	f000 f87d 	bl	80021b8 <unsigned_bitwise_modulo>
						manipulated_period_lengthen = manipulated_period_lengthen >> 1; //DONE
 80020be:	086d      	lsrs	r5, r5, #1
							params_ptr->prescaler_adjust = DO_NOTHING;
 80020c0:	2320      	movs	r3, #32
					if(unsigned_bitwise_modulo(manipulated_period_lengthen, 1) == 0){
 80020c2:	2800      	cmp	r0, #0
 80020c4:	d122      	bne.n	800210c <Process_TIM16_Final_Start_Value_and_Final_Prescaler+0x254>
						if(symmetry_type_for_halfcycle == SHORTEN){
 80020c6:	2f00      	cmp	r7, #0
 80020c8:	d000      	beq.n	80020cc <Process_TIM16_Final_Start_Value_and_Final_Prescaler+0x214>
 80020ca:	e782      	b.n	8001fd2 <Process_TIM16_Final_Start_Value_and_Final_Prescaler+0x11a>
							params_ptr->prescaler_adjust = DO_NOTHING;
 80020cc:	54e7      	strb	r7, [r4, r3]
					manipulated_period_shorten = manipulated_period_shorten - 1; //DONE
 80020ce:	4653      	mov	r3, sl
 80020d0:	3b01      	subs	r3, #1
 80020d2:	b29b      	uxth	r3, r3
 80020d4:	469a      	mov	sl, r3
 80020d6:	e740      	b.n	8001f5a <Process_TIM16_Final_Start_Value_and_Final_Prescaler+0xa2>
			if((manipulated_period_lengthen < 256) || ((manipulated_period_lengthen == 256) && (unsigned_bitwise_modulo(two_fifty_six_minus_TIM16_raw_start_value_multiplied_by_PRC, 8) == 0))){
 80020d8:	2108      	movs	r1, #8
 80020da:	0030      	movs	r0, r6
 80020dc:	f000 f86c 	bl	80021b8 <unsigned_bitwise_modulo>
 80020e0:	2800      	cmp	r0, #0
 80020e2:	d09a      	beq.n	800201a <Process_TIM16_Final_Start_Value_and_Final_Prescaler+0x162>
			else if((manipulated_period_lengthen > 256) || ((manipulated_period_lengthen == 256) && (unsigned_bitwise_modulo(two_fifty_six_minus_TIM16_raw_start_value_multiplied_by_PRC, 8) > 0))){
 80020e4:	2108      	movs	r1, #8
 80020e6:	0030      	movs	r0, r6
 80020e8:	f000 f866 	bl	80021b8 <unsigned_bitwise_modulo>
 80020ec:	2800      	cmp	r0, #0
 80020ee:	d000      	beq.n	80020f2 <Process_TIM16_Final_Start_Value_and_Final_Prescaler+0x23a>
 80020f0:	e716      	b.n	8001f20 <Process_TIM16_Final_Start_Value_and_Final_Prescaler+0x68>
	        if(symmetry_type_for_halfcycle == SHORTEN){
 80020f2:	2300      	movs	r3, #0
 80020f4:	2f00      	cmp	r7, #0
 80020f6:	d000      	beq.n	80020fa <Process_TIM16_Final_Start_Value_and_Final_Prescaler+0x242>
 80020f8:	e770      	b.n	8001fdc <Process_TIM16_Final_Start_Value_and_Final_Prescaler+0x124>
 80020fa:	e72e      	b.n	8001f5a <Process_TIM16_Final_Start_Value_and_Final_Prescaler+0xa2>
							params_ptr->prescaler_adjust = DO_NOTHING;
 80020fc:	54e7      	strb	r7, [r4, r3]
	                params_ptr->final_start_value = 256 - manipulated_period_shorten;
 80020fe:	2380      	movs	r3, #128	@ 0x80
 8002100:	4652      	mov	r2, sl
 8002102:	005b      	lsls	r3, r3, #1
 8002104:	1a9b      	subs	r3, r3, r2
 8002106:	b29b      	uxth	r3, r3
 8002108:	82a3      	strh	r3, [r4, #20]
 800210a:	e72c      	b.n	8001f66 <Process_TIM16_Final_Start_Value_and_Final_Prescaler+0xae>
						if(symmetry_type_for_halfcycle == SHORTEN){
 800210c:	2f00      	cmp	r7, #0
 800210e:	d1a5      	bne.n	800205c <Process_TIM16_Final_Start_Value_and_Final_Prescaler+0x1a4>
 8002110:	e7dc      	b.n	80020cc <Process_TIM16_Final_Start_Value_and_Final_Prescaler+0x214>
	                    params_ptr->final_start_value = 256 - manipulated_period_shorten + 1;
 8002112:	3302      	adds	r3, #2
 8002114:	33ff      	adds	r3, #255	@ 0xff
 8002116:	b29b      	uxth	r3, r3
 8002118:	82a3      	strh	r3, [r4, #20]
 800211a:	e760      	b.n	8001fde <Process_TIM16_Final_Start_Value_and_Final_Prescaler+0x126>
				else if(unsigned_bitwise_modulo(two_fifty_six_minus_TIM16_raw_start_value_multiplied_by_PRC, 8) < 128){
 800211c:	2108      	movs	r1, #8
 800211e:	0030      	movs	r0, r6
 8002120:	f000 f84a 	bl	80021b8 <unsigned_bitwise_modulo>
 8002124:	287f      	cmp	r0, #127	@ 0x7f
 8002126:	d806      	bhi.n	8002136 <Process_TIM16_Final_Start_Value_and_Final_Prescaler+0x27e>
					params_ptr->prescaler_adjust = DO_NOTHING;
 8002128:	2320      	movs	r3, #32
 800212a:	2200      	movs	r2, #0
 800212c:	54e2      	strb	r2, [r4, r3]
	        if(symmetry_type_for_halfcycle == SHORTEN){
 800212e:	2f00      	cmp	r7, #0
 8002130:	d100      	bne.n	8002134 <Process_TIM16_Final_Start_Value_and_Final_Prescaler+0x27c>
 8002132:	e712      	b.n	8001f5a <Process_TIM16_Final_Start_Value_and_Final_Prescaler+0xa2>
 8002134:	e74f      	b.n	8001fd6 <Process_TIM16_Final_Start_Value_and_Final_Prescaler+0x11e>
				else if(unsigned_bitwise_modulo(two_fifty_six_minus_TIM16_raw_start_value_multiplied_by_PRC, 8) > 128){
 8002136:	2108      	movs	r1, #8
 8002138:	0030      	movs	r0, r6
 800213a:	f000 f83d 	bl	80021b8 <unsigned_bitwise_modulo>
 800213e:	2880      	cmp	r0, #128	@ 0x80
 8002140:	d800      	bhi.n	8002144 <Process_TIM16_Final_Start_Value_and_Final_Prescaler+0x28c>
 8002142:	e707      	b.n	8001f54 <Process_TIM16_Final_Start_Value_and_Final_Prescaler+0x9c>
					params_ptr->prescaler_adjust = DO_NOTHING;
 8002144:	2320      	movs	r3, #32
 8002146:	2200      	movs	r2, #0
 8002148:	54e2      	strb	r2, [r4, r3]
	        if(symmetry_type_for_halfcycle == SHORTEN){
 800214a:	2f00      	cmp	r7, #0
 800214c:	d0bf      	beq.n	80020ce <Process_TIM16_Final_Start_Value_and_Final_Prescaler+0x216>
	                    params_ptr->final_start_value = 256 - manipulated_period_lengthen - 1;
 800214e:	23ff      	movs	r3, #255	@ 0xff
 8002150:	1b5b      	subs	r3, r3, r5
 8002152:	b29b      	uxth	r3, r3
 8002154:	e742      	b.n	8001fdc <Process_TIM16_Final_Start_Value_and_Final_Prescaler+0x124>
 8002156:	46c0      	nop			@ (mov r8, r8)

08002158 <SystemInit>:
 8002158:	4770      	bx	lr
 800215a:	46c0      	nop			@ (mov r8, r8)

0800215c <Start_OC_TIM>:
 800215c:	b510      	push	{r4, lr}
 800215e:	f002 fa85 	bl	800466c <HAL_TIM_OC_Start_IT>
 8002162:	1e04      	subs	r4, r0, #0
 8002164:	d101      	bne.n	800216a <Start_OC_TIM+0xe>
 8002166:	0020      	movs	r0, r4
 8002168:	bd10      	pop	{r4, pc}
 800216a:	f7fe fd77 	bl	8000c5c <Error_Handler>
 800216e:	e7fa      	b.n	8002166 <Start_OC_TIM+0xa>

08002170 <Stop_OC_TIM>:
 8002170:	b510      	push	{r4, lr}
 8002172:	f002 fafd 	bl	8004770 <HAL_TIM_OC_Stop_IT>
 8002176:	1e04      	subs	r4, r0, #0
 8002178:	d101      	bne.n	800217e <Stop_OC_TIM+0xe>
 800217a:	0020      	movs	r0, r4
 800217c:	bd10      	pop	{r4, pc}
 800217e:	f7fe fd6d 	bl	8000c5c <Error_Handler>
 8002182:	e7fa      	b.n	800217a <Stop_OC_TIM+0xa>

08002184 <isPrime>:
#include "utility.h"

enum Validate isPrime(uint16_t x){
 8002184:	b570      	push	{r4, r5, r6, lr}
 8002186:	0005      	movs	r5, r0
    for (uint16_t d = 2; d * d <= x; d++) {
 8002188:	2803      	cmp	r0, #3
 800218a:	d910      	bls.n	80021ae <isPrime+0x2a>
        if (x % d == 0)
 800218c:	07c3      	lsls	r3, r0, #31
 800218e:	d510      	bpl.n	80021b2 <isPrime+0x2e>
    for (uint16_t d = 2; d * d <= x; d++) {
 8002190:	2402      	movs	r4, #2
 8002192:	e006      	b.n	80021a2 <isPrime+0x1e>
        if (x % d == 0)
 8002194:	0021      	movs	r1, r4
 8002196:	0028      	movs	r0, r5
 8002198:	f7fe f83a 	bl	8000210 <__aeabi_uidivmod>
 800219c:	b289      	uxth	r1, r1
 800219e:	2900      	cmp	r1, #0
 80021a0:	d007      	beq.n	80021b2 <isPrime+0x2e>
    for (uint16_t d = 2; d * d <= x; d++) {
 80021a2:	3401      	adds	r4, #1
 80021a4:	b2a4      	uxth	r4, r4
 80021a6:	0023      	movs	r3, r4
 80021a8:	4363      	muls	r3, r4
 80021aa:	42ab      	cmp	r3, r5
 80021ac:	ddf2      	ble.n	8002194 <isPrime+0x10>
            return NO;
    }
    return YES;
 80021ae:	2001      	movs	r0, #1
}
 80021b0:	bd70      	pop	{r4, r5, r6, pc}
            return NO;
 80021b2:	2000      	movs	r0, #0
 80021b4:	e7fc      	b.n	80021b0 <isPrime+0x2c>
 80021b6:	46c0      	nop			@ (mov r8, r8)

080021b8 <unsigned_bitwise_modulo>:

uint32_t unsigned_bitwise_modulo(uint32_t dividend, uint8_t base_2_exponent){

    return dividend & ((1 << base_2_exponent) - 1);
 80021b8:	2301      	movs	r3, #1
 80021ba:	408b      	lsls	r3, r1
 80021bc:	3b01      	subs	r3, #1
 80021be:	4018      	ands	r0, r3
}
 80021c0:	4770      	bx	lr
 80021c2:	46c0      	nop			@ (mov r8, r8)

080021c4 <Global_Interrupt_Enable>:
  __ASM volatile ("cpsie i" : : : "memory");
 80021c4:	b662      	cpsie	i

uint8_t Global_Interrupt_Enable(void){

	__enable_irq();
	return 1;
}
 80021c6:	2001      	movs	r0, #1
 80021c8:	4770      	bx	lr
 80021ca:	46c0      	nop			@ (mov r8, r8)

080021cc <Get_Status_Bit>:
	return 1;
}

enum Validate Get_Status_Bit(volatile uint32_t *bits, enum Status_Bit bit){

    if(*bits & bit){
 80021cc:	6800      	ldr	r0, [r0, #0]
 80021ce:	4008      	ands	r0, r1
 80021d0:	1e43      	subs	r3, r0, #1
 80021d2:	4198      	sbcs	r0, r3

    else{

        return (enum Validate) NO;
    }
}
 80021d4:	b2c0      	uxtb	r0, r0
 80021d6:	4770      	bx	lr

080021d8 <Set_Status_Bit>:

void Set_Status_Bit(volatile uint32_t *bits, enum Status_Bit bit){

	*bits |= bit;
 80021d8:	6803      	ldr	r3, [r0, #0]
 80021da:	4319      	orrs	r1, r3
 80021dc:	6001      	str	r1, [r0, #0]
}
 80021de:	4770      	bx	lr

080021e0 <Clear_Status_Bit>:

void Clear_Status_Bit(volatile uint32_t *bits, enum Status_Bit bit){

	*bits &= ~bit;
 80021e0:	6803      	ldr	r3, [r0, #0]
 80021e2:	438b      	bics	r3, r1
 80021e4:	6003      	str	r3, [r0, #0]
}
 80021e6:	4770      	bx	lr

080021e8 <Reset_Handler>:
 80021e8:	480d      	ldr	r0, [pc, #52]	@ (8002220 <LoopForever+0x2>)
 80021ea:	4685      	mov	sp, r0
 80021ec:	f7ff ffb4 	bl	8002158 <SystemInit>
 80021f0:	480c      	ldr	r0, [pc, #48]	@ (8002224 <LoopForever+0x6>)
 80021f2:	490d      	ldr	r1, [pc, #52]	@ (8002228 <LoopForever+0xa>)
 80021f4:	4a0d      	ldr	r2, [pc, #52]	@ (800222c <LoopForever+0xe>)
 80021f6:	2300      	movs	r3, #0
 80021f8:	e002      	b.n	8002200 <LoopCopyDataInit>

080021fa <CopyDataInit>:
 80021fa:	58d4      	ldr	r4, [r2, r3]
 80021fc:	50c4      	str	r4, [r0, r3]
 80021fe:	3304      	adds	r3, #4

08002200 <LoopCopyDataInit>:
 8002200:	18c4      	adds	r4, r0, r3
 8002202:	428c      	cmp	r4, r1
 8002204:	d3f9      	bcc.n	80021fa <CopyDataInit>
 8002206:	4a0a      	ldr	r2, [pc, #40]	@ (8002230 <LoopForever+0x12>)
 8002208:	4c0a      	ldr	r4, [pc, #40]	@ (8002234 <LoopForever+0x16>)
 800220a:	2300      	movs	r3, #0
 800220c:	e001      	b.n	8002212 <LoopFillZerobss>

0800220e <FillZerobss>:
 800220e:	6013      	str	r3, [r2, #0]
 8002210:	3204      	adds	r2, #4

08002212 <LoopFillZerobss>:
 8002212:	42a2      	cmp	r2, r4
 8002214:	d3fb      	bcc.n	800220e <FillZerobss>
 8002216:	f004 fb7b 	bl	8006910 <__libc_init_array>
 800221a:	f7ff f947 	bl	80014ac <main>

0800221e <LoopForever>:
 800221e:	e7fe      	b.n	800221e <LoopForever>
 8002220:	20002000 	.word	0x20002000
 8002224:	20000000 	.word	0x20000000
 8002228:	20000420 	.word	0x20000420
 800222c:	080074e4 	.word	0x080074e4
 8002230:	20000420 	.word	0x20000420
 8002234:	20000c04 	.word	0x20000c04

08002238 <ADC1_IRQHandler>:
 8002238:	e7fe      	b.n	8002238 <ADC1_IRQHandler>
	...

0800223c <HAL_InitTick>:
 800223c:	b570      	push	{r4, r5, r6, lr}
 800223e:	4b0f      	ldr	r3, [pc, #60]	@ (800227c <HAL_InitTick+0x40>)
 8002240:	0004      	movs	r4, r0
 8002242:	7819      	ldrb	r1, [r3, #0]
 8002244:	2900      	cmp	r1, #0
 8002246:	d101      	bne.n	800224c <HAL_InitTick+0x10>
 8002248:	2001      	movs	r0, #1
 800224a:	bd70      	pop	{r4, r5, r6, pc}
 800224c:	20fa      	movs	r0, #250	@ 0xfa
 800224e:	0080      	lsls	r0, r0, #2
 8002250:	f7fd ff58 	bl	8000104 <__udivsi3>
 8002254:	4d0a      	ldr	r5, [pc, #40]	@ (8002280 <HAL_InitTick+0x44>)
 8002256:	0001      	movs	r1, r0
 8002258:	6828      	ldr	r0, [r5, #0]
 800225a:	f7fd ff53 	bl	8000104 <__udivsi3>
 800225e:	f000 fdef 	bl	8002e40 <HAL_SYSTICK_Config>
 8002262:	2800      	cmp	r0, #0
 8002264:	d1f0      	bne.n	8002248 <HAL_InitTick+0xc>
 8002266:	2c03      	cmp	r4, #3
 8002268:	d8ee      	bhi.n	8002248 <HAL_InitTick+0xc>
 800226a:	3801      	subs	r0, #1
 800226c:	2200      	movs	r2, #0
 800226e:	0021      	movs	r1, r4
 8002270:	f000 fda0 	bl	8002db4 <HAL_NVIC_SetPriority>
 8002274:	4b03      	ldr	r3, [pc, #12]	@ (8002284 <HAL_InitTick+0x48>)
 8002276:	2000      	movs	r0, #0
 8002278:	601c      	str	r4, [r3, #0]
 800227a:	e7e6      	b.n	800224a <HAL_InitTick+0xe>
 800227c:	20000418 	.word	0x20000418
 8002280:	20000414 	.word	0x20000414
 8002284:	2000041c 	.word	0x2000041c

08002288 <HAL_Init>:
 8002288:	2380      	movs	r3, #128	@ 0x80
 800228a:	4a08      	ldr	r2, [pc, #32]	@ (80022ac <HAL_Init+0x24>)
 800228c:	005b      	lsls	r3, r3, #1
 800228e:	6811      	ldr	r1, [r2, #0]
 8002290:	b510      	push	{r4, lr}
 8002292:	430b      	orrs	r3, r1
 8002294:	2000      	movs	r0, #0
 8002296:	6013      	str	r3, [r2, #0]
 8002298:	f7ff ffd0 	bl	800223c <HAL_InitTick>
 800229c:	1e04      	subs	r4, r0, #0
 800229e:	d002      	beq.n	80022a6 <HAL_Init+0x1e>
 80022a0:	2401      	movs	r4, #1
 80022a2:	0020      	movs	r0, r4
 80022a4:	bd10      	pop	{r4, pc}
 80022a6:	f7ff fb5d 	bl	8001964 <HAL_MspInit>
 80022aa:	e7fa      	b.n	80022a2 <HAL_Init+0x1a>
 80022ac:	40022000 	.word	0x40022000

080022b0 <HAL_IncTick>:
 80022b0:	4a03      	ldr	r2, [pc, #12]	@ (80022c0 <HAL_IncTick+0x10>)
 80022b2:	4b04      	ldr	r3, [pc, #16]	@ (80022c4 <HAL_IncTick+0x14>)
 80022b4:	6811      	ldr	r1, [r2, #0]
 80022b6:	781b      	ldrb	r3, [r3, #0]
 80022b8:	185b      	adds	r3, r3, r1
 80022ba:	6013      	str	r3, [r2, #0]
 80022bc:	4770      	bx	lr
 80022be:	46c0      	nop			@ (mov r8, r8)
 80022c0:	20000c00 	.word	0x20000c00
 80022c4:	20000418 	.word	0x20000418

080022c8 <HAL_GetTick>:
 80022c8:	4b01      	ldr	r3, [pc, #4]	@ (80022d0 <HAL_GetTick+0x8>)
 80022ca:	6818      	ldr	r0, [r3, #0]
 80022cc:	4770      	bx	lr
 80022ce:	46c0      	nop			@ (mov r8, r8)
 80022d0:	20000c00 	.word	0x20000c00

080022d4 <ADC_DMAConvCplt>:
 80022d4:	2150      	movs	r1, #80	@ 0x50
 80022d6:	0003      	movs	r3, r0
 80022d8:	6a80      	ldr	r0, [r0, #40]	@ 0x28
 80022da:	b510      	push	{r4, lr}
 80022dc:	6d82      	ldr	r2, [r0, #88]	@ 0x58
 80022de:	4211      	tst	r1, r2
 80022e0:	d10d      	bne.n	80022fe <ADC_DMAConvCplt+0x2a>
 80022e2:	2380      	movs	r3, #128	@ 0x80
 80022e4:	6d82      	ldr	r2, [r0, #88]	@ 0x58
 80022e6:	009b      	lsls	r3, r3, #2
 80022e8:	4313      	orrs	r3, r2
 80022ea:	22c0      	movs	r2, #192	@ 0xc0
 80022ec:	6583      	str	r3, [r0, #88]	@ 0x58
 80022ee:	6803      	ldr	r3, [r0, #0]
 80022f0:	0112      	lsls	r2, r2, #4
 80022f2:	68d9      	ldr	r1, [r3, #12]
 80022f4:	4211      	tst	r1, r2
 80022f6:	d00d      	beq.n	8002314 <ADC_DMAConvCplt+0x40>
 80022f8:	6e43      	ldr	r3, [r0, #100]	@ 0x64
 80022fa:	4798      	blx	r3
 80022fc:	bd10      	pop	{r4, pc}
 80022fe:	6d82      	ldr	r2, [r0, #88]	@ 0x58
 8002300:	06d2      	lsls	r2, r2, #27
 8002302:	d502      	bpl.n	800230a <ADC_DMAConvCplt+0x36>
 8002304:	6f03      	ldr	r3, [r0, #112]	@ 0x70
 8002306:	4798      	blx	r3
 8002308:	e7f8      	b.n	80022fc <ADC_DMAConvCplt+0x28>
 800230a:	6d02      	ldr	r2, [r0, #80]	@ 0x50
 800230c:	0018      	movs	r0, r3
 800230e:	6b52      	ldr	r2, [r2, #52]	@ 0x34
 8002310:	4790      	blx	r2
 8002312:	e7f3      	b.n	80022fc <ADC_DMAConvCplt+0x28>
 8002314:	7e82      	ldrb	r2, [r0, #26]
 8002316:	2a00      	cmp	r2, #0
 8002318:	d1ee      	bne.n	80022f8 <ADC_DMAConvCplt+0x24>
 800231a:	681a      	ldr	r2, [r3, #0]
 800231c:	0712      	lsls	r2, r2, #28
 800231e:	d5eb      	bpl.n	80022f8 <ADC_DMAConvCplt+0x24>
 8002320:	689a      	ldr	r2, [r3, #8]
 8002322:	0752      	lsls	r2, r2, #29
 8002324:	d508      	bpl.n	8002338 <ADC_DMAConvCplt+0x64>
 8002326:	2220      	movs	r2, #32
 8002328:	6d83      	ldr	r3, [r0, #88]	@ 0x58
 800232a:	4313      	orrs	r3, r2
 800232c:	6583      	str	r3, [r0, #88]	@ 0x58
 800232e:	6dc3      	ldr	r3, [r0, #92]	@ 0x5c
 8002330:	3a1f      	subs	r2, #31
 8002332:	4313      	orrs	r3, r2
 8002334:	65c3      	str	r3, [r0, #92]	@ 0x5c
 8002336:	e7df      	b.n	80022f8 <ADC_DMAConvCplt+0x24>
 8002338:	210c      	movs	r1, #12
 800233a:	685a      	ldr	r2, [r3, #4]
 800233c:	438a      	bics	r2, r1
 800233e:	605a      	str	r2, [r3, #4]
 8002340:	6d83      	ldr	r3, [r0, #88]	@ 0x58
 8002342:	4a03      	ldr	r2, [pc, #12]	@ (8002350 <ADC_DMAConvCplt+0x7c>)
 8002344:	4013      	ands	r3, r2
 8002346:	3204      	adds	r2, #4
 8002348:	32ff      	adds	r2, #255	@ 0xff
 800234a:	4313      	orrs	r3, r2
 800234c:	6583      	str	r3, [r0, #88]	@ 0x58
 800234e:	e7d3      	b.n	80022f8 <ADC_DMAConvCplt+0x24>
 8002350:	fffffefe 	.word	0xfffffefe

08002354 <ADC_DMAHalfConvCplt>:
 8002354:	b510      	push	{r4, lr}
 8002356:	6a80      	ldr	r0, [r0, #40]	@ 0x28
 8002358:	6e83      	ldr	r3, [r0, #104]	@ 0x68
 800235a:	4798      	blx	r3
 800235c:	bd10      	pop	{r4, pc}
 800235e:	46c0      	nop			@ (mov r8, r8)

08002360 <ADC_DMAError>:
 8002360:	2240      	movs	r2, #64	@ 0x40
 8002362:	6a80      	ldr	r0, [r0, #40]	@ 0x28
 8002364:	b510      	push	{r4, lr}
 8002366:	6d83      	ldr	r3, [r0, #88]	@ 0x58
 8002368:	4313      	orrs	r3, r2
 800236a:	6583      	str	r3, [r0, #88]	@ 0x58
 800236c:	6dc3      	ldr	r3, [r0, #92]	@ 0x5c
 800236e:	3a3c      	subs	r2, #60	@ 0x3c
 8002370:	4313      	orrs	r3, r2
 8002372:	65c3      	str	r3, [r0, #92]	@ 0x5c
 8002374:	6f03      	ldr	r3, [r0, #112]	@ 0x70
 8002376:	4798      	blx	r3
 8002378:	bd10      	pop	{r4, pc}
 800237a:	46c0      	nop			@ (mov r8, r8)

0800237c <HAL_ADC_ErrorCallback>:
 800237c:	4770      	bx	lr
 800237e:	46c0      	nop			@ (mov r8, r8)

08002380 <HAL_ADC_ConvCpltCallback>:
 8002380:	4770      	bx	lr
 8002382:	46c0      	nop			@ (mov r8, r8)

08002384 <HAL_ADC_ConvHalfCpltCallback>:
 8002384:	4770      	bx	lr
 8002386:	46c0      	nop			@ (mov r8, r8)

08002388 <HAL_ADC_LevelOutOfWindowCallback>:
 8002388:	4770      	bx	lr
 800238a:	46c0      	nop			@ (mov r8, r8)

0800238c <HAL_ADC_Init>:
 800238c:	b5f0      	push	{r4, r5, r6, r7, lr}
 800238e:	46d6      	mov	lr, sl
 8002390:	464f      	mov	r7, r9
 8002392:	4646      	mov	r6, r8
 8002394:	2300      	movs	r3, #0
 8002396:	b5c0      	push	{r6, r7, lr}
 8002398:	b082      	sub	sp, #8
 800239a:	1e04      	subs	r4, r0, #0
 800239c:	9301      	str	r3, [sp, #4]
 800239e:	d044      	beq.n	800242a <HAL_ADC_Init+0x9e>
 80023a0:	6d83      	ldr	r3, [r0, #88]	@ 0x58
 80023a2:	2b00      	cmp	r3, #0
 80023a4:	d118      	bne.n	80023d8 <HAL_ADC_Init+0x4c>
 80023a6:	2280      	movs	r2, #128	@ 0x80
 80023a8:	4b89      	ldr	r3, [pc, #548]	@ (80025d0 <HAL_ADC_Init+0x244>)
 80023aa:	6643      	str	r3, [r0, #100]	@ 0x64
 80023ac:	4b89      	ldr	r3, [pc, #548]	@ (80025d4 <HAL_ADC_Init+0x248>)
 80023ae:	6683      	str	r3, [r0, #104]	@ 0x68
 80023b0:	4b89      	ldr	r3, [pc, #548]	@ (80025d8 <HAL_ADC_Init+0x24c>)
 80023b2:	66c3      	str	r3, [r0, #108]	@ 0x6c
 80023b4:	4b89      	ldr	r3, [pc, #548]	@ (80025dc <HAL_ADC_Init+0x250>)
 80023b6:	6703      	str	r3, [r0, #112]	@ 0x70
 80023b8:	4b89      	ldr	r3, [pc, #548]	@ (80025e0 <HAL_ADC_Init+0x254>)
 80023ba:	6743      	str	r3, [r0, #116]	@ 0x74
 80023bc:	4b89      	ldr	r3, [pc, #548]	@ (80025e4 <HAL_ADC_Init+0x258>)
 80023be:	6783      	str	r3, [r0, #120]	@ 0x78
 80023c0:	4b89      	ldr	r3, [pc, #548]	@ (80025e8 <HAL_ADC_Init+0x25c>)
 80023c2:	67c3      	str	r3, [r0, #124]	@ 0x7c
 80023c4:	5883      	ldr	r3, [r0, r2]
 80023c6:	2b00      	cmp	r3, #0
 80023c8:	d100      	bne.n	80023cc <HAL_ADC_Init+0x40>
 80023ca:	e0e3      	b.n	8002594 <HAL_ADC_Init+0x208>
 80023cc:	0020      	movs	r0, r4
 80023ce:	4798      	blx	r3
 80023d0:	2300      	movs	r3, #0
 80023d2:	2254      	movs	r2, #84	@ 0x54
 80023d4:	65e3      	str	r3, [r4, #92]	@ 0x5c
 80023d6:	54a3      	strb	r3, [r4, r2]
 80023d8:	2380      	movs	r3, #128	@ 0x80
 80023da:	6825      	ldr	r5, [r4, #0]
 80023dc:	055b      	lsls	r3, r3, #21
 80023de:	68aa      	ldr	r2, [r5, #8]
 80023e0:	421a      	tst	r2, r3
 80023e2:	d115      	bne.n	8002410 <HAL_ADC_Init+0x84>
 80023e4:	68aa      	ldr	r2, [r5, #8]
 80023e6:	4981      	ldr	r1, [pc, #516]	@ (80025ec <HAL_ADC_Init+0x260>)
 80023e8:	400a      	ands	r2, r1
 80023ea:	4313      	orrs	r3, r2
 80023ec:	60ab      	str	r3, [r5, #8]
 80023ee:	4b80      	ldr	r3, [pc, #512]	@ (80025f0 <HAL_ADC_Init+0x264>)
 80023f0:	4980      	ldr	r1, [pc, #512]	@ (80025f4 <HAL_ADC_Init+0x268>)
 80023f2:	6818      	ldr	r0, [r3, #0]
 80023f4:	f7fd fe86 	bl	8000104 <__udivsi3>
 80023f8:	3001      	adds	r0, #1
 80023fa:	0040      	lsls	r0, r0, #1
 80023fc:	9001      	str	r0, [sp, #4]
 80023fe:	9b01      	ldr	r3, [sp, #4]
 8002400:	2b00      	cmp	r3, #0
 8002402:	d005      	beq.n	8002410 <HAL_ADC_Init+0x84>
 8002404:	9b01      	ldr	r3, [sp, #4]
 8002406:	3b01      	subs	r3, #1
 8002408:	9301      	str	r3, [sp, #4]
 800240a:	9b01      	ldr	r3, [sp, #4]
 800240c:	2b00      	cmp	r3, #0
 800240e:	d1f9      	bne.n	8002404 <HAL_ADC_Init+0x78>
 8002410:	68ab      	ldr	r3, [r5, #8]
 8002412:	2000      	movs	r0, #0
 8002414:	00db      	lsls	r3, r3, #3
 8002416:	d400      	bmi.n	800241a <HAL_ADC_Init+0x8e>
 8002418:	e09d      	b.n	8002556 <HAL_ADC_Init+0x1ca>
 800241a:	68ab      	ldr	r3, [r5, #8]
 800241c:	075b      	lsls	r3, r3, #29
 800241e:	d50b      	bpl.n	8002438 <HAL_ADC_Init+0xac>
 8002420:	6da3      	ldr	r3, [r4, #88]	@ 0x58
 8002422:	2210      	movs	r2, #16
 8002424:	6da3      	ldr	r3, [r4, #88]	@ 0x58
 8002426:	4313      	orrs	r3, r2
 8002428:	65a3      	str	r3, [r4, #88]	@ 0x58
 800242a:	2001      	movs	r0, #1
 800242c:	b002      	add	sp, #8
 800242e:	bce0      	pop	{r5, r6, r7}
 8002430:	46ba      	mov	sl, r7
 8002432:	46b1      	mov	r9, r6
 8002434:	46a8      	mov	r8, r5
 8002436:	bdf0      	pop	{r4, r5, r6, r7, pc}
 8002438:	6da3      	ldr	r3, [r4, #88]	@ 0x58
 800243a:	06db      	lsls	r3, r3, #27
 800243c:	d4f1      	bmi.n	8002422 <HAL_ADC_Init+0x96>
 800243e:	6da3      	ldr	r3, [r4, #88]	@ 0x58
 8002440:	4a6d      	ldr	r2, [pc, #436]	@ (80025f8 <HAL_ADC_Init+0x26c>)
 8002442:	6921      	ldr	r1, [r4, #16]
 8002444:	4013      	ands	r3, r2
 8002446:	3206      	adds	r2, #6
 8002448:	32ff      	adds	r2, #255	@ 0xff
 800244a:	4313      	orrs	r3, r2
 800244c:	65a3      	str	r3, [r4, #88]	@ 0x58
 800244e:	68ab      	ldr	r3, [r5, #8]
 8002450:	07db      	lsls	r3, r3, #31
 8002452:	d45c      	bmi.n	800250e <HAL_ADC_Init+0x182>
 8002454:	6b27      	ldr	r7, [r4, #48]	@ 0x30
 8002456:	68a2      	ldr	r2, [r4, #8]
 8002458:	1e7b      	subs	r3, r7, #1
 800245a:	419f      	sbcs	r7, r3
 800245c:	68e3      	ldr	r3, [r4, #12]
 800245e:	7ea6      	ldrb	r6, [r4, #26]
 8002460:	431a      	orrs	r2, r3
 8002462:	7e23      	ldrb	r3, [r4, #24]
 8002464:	033f      	lsls	r7, r7, #12
 8002466:	039b      	lsls	r3, r3, #14
 8002468:	431a      	orrs	r2, r3
 800246a:	7e63      	ldrb	r3, [r4, #25]
 800246c:	03db      	lsls	r3, r3, #15
 800246e:	431a      	orrs	r2, r3
 8002470:	0373      	lsls	r3, r6, #13
 8002472:	431a      	orrs	r2, r3
 8002474:	2900      	cmp	r1, #0
 8002476:	da00      	bge.n	800247a <HAL_ADC_Init+0xee>
 8002478:	e098      	b.n	80025ac <HAL_ADC_Init+0x220>
 800247a:	2380      	movs	r3, #128	@ 0x80
 800247c:	039b      	lsls	r3, r3, #14
 800247e:	469c      	mov	ip, r3
 8002480:	232c      	movs	r3, #44	@ 0x2c
 8002482:	5ce3      	ldrb	r3, [r4, r3]
 8002484:	005b      	lsls	r3, r3, #1
 8002486:	4313      	orrs	r3, r2
 8002488:	433b      	orrs	r3, r7
 800248a:	4662      	mov	r2, ip
 800248c:	2720      	movs	r7, #32
 800248e:	4313      	orrs	r3, r2
 8002490:	5de2      	ldrb	r2, [r4, r7]
 8002492:	2a01      	cmp	r2, #1
 8002494:	d100      	bne.n	8002498 <HAL_ADC_Init+0x10c>
 8002496:	e08d      	b.n	80025b4 <HAL_ADC_Init+0x228>
 8002498:	6a62      	ldr	r2, [r4, #36]	@ 0x24
 800249a:	2a00      	cmp	r2, #0
 800249c:	d005      	beq.n	80024aa <HAL_ADC_Init+0x11e>
 800249e:	26e0      	movs	r6, #224	@ 0xe0
 80024a0:	0076      	lsls	r6, r6, #1
 80024a2:	4032      	ands	r2, r6
 80024a4:	6aa6      	ldr	r6, [r4, #40]	@ 0x28
 80024a6:	4332      	orrs	r2, r6
 80024a8:	4313      	orrs	r3, r2
 80024aa:	273c      	movs	r7, #60	@ 0x3c
 80024ac:	68ea      	ldr	r2, [r5, #12]
 80024ae:	4e53      	ldr	r6, [pc, #332]	@ (80025fc <HAL_ADC_Init+0x270>)
 80024b0:	4032      	ands	r2, r6
 80024b2:	4313      	orrs	r3, r2
 80024b4:	6866      	ldr	r6, [r4, #4]
 80024b6:	60eb      	str	r3, [r5, #12]
 80024b8:	6ce2      	ldr	r2, [r4, #76]	@ 0x4c
 80024ba:	5de7      	ldrb	r7, [r4, r7]
 80024bc:	0fb3      	lsrs	r3, r6, #30
 80024be:	079b      	lsls	r3, r3, #30
 80024c0:	469a      	mov	sl, r3
 80024c2:	46bc      	mov	ip, r7
 80024c4:	431a      	orrs	r2, r3
 80024c6:	2f01      	cmp	r7, #1
 80024c8:	d109      	bne.n	80024de <HAL_ADC_Init+0x152>
 80024ca:	6c67      	ldr	r7, [r4, #68]	@ 0x44
 80024cc:	6c23      	ldr	r3, [r4, #64]	@ 0x40
 80024ce:	433b      	orrs	r3, r7
 80024d0:	431a      	orrs	r2, r3
 80024d2:	4653      	mov	r3, sl
 80024d4:	6ca7      	ldr	r7, [r4, #72]	@ 0x48
 80024d6:	433a      	orrs	r2, r7
 80024d8:	431a      	orrs	r2, r3
 80024da:	4663      	mov	r3, ip
 80024dc:	431a      	orrs	r2, r3
 80024de:	692b      	ldr	r3, [r5, #16]
 80024e0:	4f47      	ldr	r7, [pc, #284]	@ (8002600 <HAL_ADC_Init+0x274>)
 80024e2:	403b      	ands	r3, r7
 80024e4:	4313      	orrs	r3, r2
 80024e6:	2280      	movs	r2, #128	@ 0x80
 80024e8:	612b      	str	r3, [r5, #16]
 80024ea:	0073      	lsls	r3, r6, #1
 80024ec:	085b      	lsrs	r3, r3, #1
 80024ee:	05d2      	lsls	r2, r2, #23
 80024f0:	4293      	cmp	r3, r2
 80024f2:	d00c      	beq.n	800250e <HAL_ADC_Init+0x182>
 80024f4:	2380      	movs	r3, #128	@ 0x80
 80024f6:	061b      	lsls	r3, r3, #24
 80024f8:	429e      	cmp	r6, r3
 80024fa:	d008      	beq.n	800250e <HAL_ADC_Init+0x182>
 80024fc:	4a41      	ldr	r2, [pc, #260]	@ (8002604 <HAL_ADC_Init+0x278>)
 80024fe:	4f42      	ldr	r7, [pc, #264]	@ (8002608 <HAL_ADC_Init+0x27c>)
 8002500:	6813      	ldr	r3, [r2, #0]
 8002502:	403b      	ands	r3, r7
 8002504:	27f0      	movs	r7, #240	@ 0xf0
 8002506:	03bf      	lsls	r7, r7, #14
 8002508:	403e      	ands	r6, r7
 800250a:	4333      	orrs	r3, r6
 800250c:	6013      	str	r3, [r2, #0]
 800250e:	2607      	movs	r6, #7
 8002510:	2770      	movs	r7, #112	@ 0x70
 8002512:	696b      	ldr	r3, [r5, #20]
 8002514:	6b62      	ldr	r2, [r4, #52]	@ 0x34
 8002516:	43b3      	bics	r3, r6
 8002518:	4313      	orrs	r3, r2
 800251a:	616b      	str	r3, [r5, #20]
 800251c:	696e      	ldr	r6, [r5, #20]
 800251e:	6ba3      	ldr	r3, [r4, #56]	@ 0x38
 8002520:	43be      	bics	r6, r7
 8002522:	011b      	lsls	r3, r3, #4
 8002524:	4333      	orrs	r3, r6
 8002526:	616b      	str	r3, [r5, #20]
 8002528:	2900      	cmp	r1, #0
 800252a:	d122      	bne.n	8002572 <HAL_ADC_Init+0x1e6>
 800252c:	2310      	movs	r3, #16
 800252e:	6aa9      	ldr	r1, [r5, #40]	@ 0x28
 8002530:	425b      	negs	r3, r3
 8002532:	430b      	orrs	r3, r1
 8002534:	62ab      	str	r3, [r5, #40]	@ 0x28
 8002536:	2307      	movs	r3, #7
 8002538:	6969      	ldr	r1, [r5, #20]
 800253a:	400b      	ands	r3, r1
 800253c:	429a      	cmp	r2, r3
 800253e:	d02c      	beq.n	800259a <HAL_ADC_Init+0x20e>
 8002540:	2212      	movs	r2, #18
 8002542:	6da3      	ldr	r3, [r4, #88]	@ 0x58
 8002544:	4393      	bics	r3, r2
 8002546:	3a02      	subs	r2, #2
 8002548:	4313      	orrs	r3, r2
 800254a:	65a3      	str	r3, [r4, #88]	@ 0x58
 800254c:	6de3      	ldr	r3, [r4, #92]	@ 0x5c
 800254e:	3a0f      	subs	r2, #15
 8002550:	4313      	orrs	r3, r2
 8002552:	65e3      	str	r3, [r4, #92]	@ 0x5c
 8002554:	e769      	b.n	800242a <HAL_ADC_Init+0x9e>
 8002556:	2210      	movs	r2, #16
 8002558:	6da3      	ldr	r3, [r4, #88]	@ 0x58
 800255a:	2001      	movs	r0, #1
 800255c:	4313      	orrs	r3, r2
 800255e:	65a3      	str	r3, [r4, #88]	@ 0x58
 8002560:	6de3      	ldr	r3, [r4, #92]	@ 0x5c
 8002562:	3a0f      	subs	r2, #15
 8002564:	4313      	orrs	r3, r2
 8002566:	65e3      	str	r3, [r4, #92]	@ 0x5c
 8002568:	68ab      	ldr	r3, [r5, #8]
 800256a:	075b      	lsls	r3, r3, #29
 800256c:	d400      	bmi.n	8002570 <HAL_ADC_Init+0x1e4>
 800256e:	e763      	b.n	8002438 <HAL_ADC_Init+0xac>
 8002570:	e756      	b.n	8002420 <HAL_ADC_Init+0x94>
 8002572:	2380      	movs	r3, #128	@ 0x80
 8002574:	039b      	lsls	r3, r3, #14
 8002576:	4299      	cmp	r1, r3
 8002578:	d1dd      	bne.n	8002536 <HAL_ADC_Init+0x1aa>
 800257a:	211c      	movs	r1, #28
 800257c:	6aab      	ldr	r3, [r5, #40]	@ 0x28
 800257e:	69e3      	ldr	r3, [r4, #28]
 8002580:	3b01      	subs	r3, #1
 8002582:	009b      	lsls	r3, r3, #2
 8002584:	4019      	ands	r1, r3
 8002586:	2310      	movs	r3, #16
 8002588:	425b      	negs	r3, r3
 800258a:	408b      	lsls	r3, r1
 800258c:	6e21      	ldr	r1, [r4, #96]	@ 0x60
 800258e:	430b      	orrs	r3, r1
 8002590:	62ab      	str	r3, [r5, #40]	@ 0x28
 8002592:	e7d0      	b.n	8002536 <HAL_ADC_Init+0x1aa>
 8002594:	4b1d      	ldr	r3, [pc, #116]	@ (800260c <HAL_ADC_Init+0x280>)
 8002596:	5083      	str	r3, [r0, r2]
 8002598:	e718      	b.n	80023cc <HAL_ADC_Init+0x40>
 800259a:	2300      	movs	r3, #0
 800259c:	2203      	movs	r2, #3
 800259e:	65e3      	str	r3, [r4, #92]	@ 0x5c
 80025a0:	6da3      	ldr	r3, [r4, #88]	@ 0x58
 80025a2:	4393      	bics	r3, r2
 80025a4:	3a02      	subs	r2, #2
 80025a6:	4313      	orrs	r3, r2
 80025a8:	65a3      	str	r3, [r4, #88]	@ 0x58
 80025aa:	e73f      	b.n	800242c <HAL_ADC_Init+0xa0>
 80025ac:	004b      	lsls	r3, r1, #1
 80025ae:	085b      	lsrs	r3, r3, #1
 80025b0:	469c      	mov	ip, r3
 80025b2:	e765      	b.n	8002480 <HAL_ADC_Init+0xf4>
 80025b4:	2e00      	cmp	r6, #0
 80025b6:	d103      	bne.n	80025c0 <HAL_ADC_Init+0x234>
 80025b8:	2280      	movs	r2, #128	@ 0x80
 80025ba:	0252      	lsls	r2, r2, #9
 80025bc:	4313      	orrs	r3, r2
 80025be:	e76b      	b.n	8002498 <HAL_ADC_Init+0x10c>
 80025c0:	6da6      	ldr	r6, [r4, #88]	@ 0x58
 80025c2:	433e      	orrs	r6, r7
 80025c4:	65a6      	str	r6, [r4, #88]	@ 0x58
 80025c6:	6de6      	ldr	r6, [r4, #92]	@ 0x5c
 80025c8:	4332      	orrs	r2, r6
 80025ca:	65e2      	str	r2, [r4, #92]	@ 0x5c
 80025cc:	e764      	b.n	8002498 <HAL_ADC_Init+0x10c>
 80025ce:	46c0      	nop			@ (mov r8, r8)
 80025d0:	08002381 	.word	0x08002381
 80025d4:	08002385 	.word	0x08002385
 80025d8:	08002389 	.word	0x08002389
 80025dc:	0800237d 	.word	0x0800237d
 80025e0:	08002da9 	.word	0x08002da9
 80025e4:	08002dad 	.word	0x08002dad
 80025e8:	08002db1 	.word	0x08002db1
 80025ec:	6fffffe8 	.word	0x6fffffe8
 80025f0:	20000414 	.word	0x20000414
 80025f4:	00030d40 	.word	0x00030d40
 80025f8:	fffffefd 	.word	0xfffffefd
 80025fc:	ffde0201 	.word	0xffde0201
 8002600:	1ffffc02 	.word	0x1ffffc02
 8002604:	40012708 	.word	0x40012708
 8002608:	ffc3ffff 	.word	0xffc3ffff
 800260c:	08001995 	.word	0x08001995

08002610 <HAL_ADC_RegisterCallback>:
 8002610:	2a00      	cmp	r2, #0
 8002612:	d00f      	beq.n	8002634 <HAL_ADC_RegisterCallback+0x24>
 8002614:	6d83      	ldr	r3, [r0, #88]	@ 0x58
 8002616:	07db      	lsls	r3, r3, #31
 8002618:	d505      	bpl.n	8002626 <HAL_ADC_RegisterCallback+0x16>
 800261a:	290a      	cmp	r1, #10
 800261c:	d80a      	bhi.n	8002634 <HAL_ADC_RegisterCallback+0x24>
 800261e:	4b17      	ldr	r3, [pc, #92]	@ (800267c <HAL_ADC_RegisterCallback+0x6c>)
 8002620:	0089      	lsls	r1, r1, #2
 8002622:	585b      	ldr	r3, [r3, r1]
 8002624:	469f      	mov	pc, r3
 8002626:	6d83      	ldr	r3, [r0, #88]	@ 0x58
 8002628:	2b00      	cmp	r3, #0
 800262a:	d103      	bne.n	8002634 <HAL_ADC_RegisterCallback+0x24>
 800262c:	2909      	cmp	r1, #9
 800262e:	d00b      	beq.n	8002648 <HAL_ADC_RegisterCallback+0x38>
 8002630:	290a      	cmp	r1, #10
 8002632:	d005      	beq.n	8002640 <HAL_ADC_RegisterCallback+0x30>
 8002634:	2210      	movs	r2, #16
 8002636:	6dc3      	ldr	r3, [r0, #92]	@ 0x5c
 8002638:	4313      	orrs	r3, r2
 800263a:	65c3      	str	r3, [r0, #92]	@ 0x5c
 800263c:	2001      	movs	r0, #1
 800263e:	4770      	bx	lr
 8002640:	2384      	movs	r3, #132	@ 0x84
 8002642:	50c2      	str	r2, [r0, r3]
 8002644:	2000      	movs	r0, #0
 8002646:	e7fa      	b.n	800263e <HAL_ADC_RegisterCallback+0x2e>
 8002648:	2380      	movs	r3, #128	@ 0x80
 800264a:	50c2      	str	r2, [r0, r3]
 800264c:	2000      	movs	r0, #0
 800264e:	e7f6      	b.n	800263e <HAL_ADC_RegisterCallback+0x2e>
 8002650:	6702      	str	r2, [r0, #112]	@ 0x70
 8002652:	2000      	movs	r0, #0
 8002654:	e7f3      	b.n	800263e <HAL_ADC_RegisterCallback+0x2e>
 8002656:	6742      	str	r2, [r0, #116]	@ 0x74
 8002658:	2000      	movs	r0, #0
 800265a:	e7f0      	b.n	800263e <HAL_ADC_RegisterCallback+0x2e>
 800265c:	6782      	str	r2, [r0, #120]	@ 0x78
 800265e:	2000      	movs	r0, #0
 8002660:	e7ed      	b.n	800263e <HAL_ADC_RegisterCallback+0x2e>
 8002662:	67c2      	str	r2, [r0, #124]	@ 0x7c
 8002664:	2000      	movs	r0, #0
 8002666:	e7ea      	b.n	800263e <HAL_ADC_RegisterCallback+0x2e>
 8002668:	6682      	str	r2, [r0, #104]	@ 0x68
 800266a:	2000      	movs	r0, #0
 800266c:	e7e7      	b.n	800263e <HAL_ADC_RegisterCallback+0x2e>
 800266e:	66c2      	str	r2, [r0, #108]	@ 0x6c
 8002670:	2000      	movs	r0, #0
 8002672:	e7e4      	b.n	800263e <HAL_ADC_RegisterCallback+0x2e>
 8002674:	6642      	str	r2, [r0, #100]	@ 0x64
 8002676:	2000      	movs	r0, #0
 8002678:	e7e1      	b.n	800263e <HAL_ADC_RegisterCallback+0x2e>
 800267a:	46c0      	nop			@ (mov r8, r8)
 800267c:	080071e8 	.word	0x080071e8

08002680 <HAL_ADC_ConfigChannel>:
 8002680:	b5f0      	push	{r4, r5, r6, r7, lr}
 8002682:	46de      	mov	lr, fp
 8002684:	4657      	mov	r7, sl
 8002686:	464e      	mov	r6, r9
 8002688:	4645      	mov	r5, r8
 800268a:	2300      	movs	r3, #0
 800268c:	0004      	movs	r4, r0
 800268e:	b5e0      	push	{r5, r6, r7, lr}
 8002690:	b085      	sub	sp, #20
 8002692:	9303      	str	r3, [sp, #12]
 8002694:	3354      	adds	r3, #84	@ 0x54
 8002696:	5ce2      	ldrb	r2, [r4, r3]
 8002698:	6900      	ldr	r0, [r0, #16]
 800269a:	2a01      	cmp	r2, #1
 800269c:	d100      	bne.n	80026a0 <HAL_ADC_ConfigChannel+0x20>
 800269e:	e09a      	b.n	80027d6 <HAL_ADC_ConfigChannel+0x156>
 80026a0:	2201      	movs	r2, #1
 80026a2:	54e2      	strb	r2, [r4, r3]
 80026a4:	6823      	ldr	r3, [r4, #0]
 80026a6:	3203      	adds	r2, #3
 80026a8:	689e      	ldr	r6, [r3, #8]
 80026aa:	4232      	tst	r2, r6
 80026ac:	d00e      	beq.n	80026cc <HAL_ADC_ConfigChannel+0x4c>
 80026ae:	2001      	movs	r0, #1
 80026b0:	6da3      	ldr	r3, [r4, #88]	@ 0x58
 80026b2:	321c      	adds	r2, #28
 80026b4:	4313      	orrs	r3, r2
 80026b6:	65a3      	str	r3, [r4, #88]	@ 0x58
 80026b8:	2354      	movs	r3, #84	@ 0x54
 80026ba:	2200      	movs	r2, #0
 80026bc:	54e2      	strb	r2, [r4, r3]
 80026be:	b005      	add	sp, #20
 80026c0:	bcf0      	pop	{r4, r5, r6, r7}
 80026c2:	46bb      	mov	fp, r7
 80026c4:	46b2      	mov	sl, r6
 80026c6:	46a9      	mov	r9, r5
 80026c8:	46a0      	mov	r8, r4
 80026ca:	bdf0      	pop	{r4, r5, r6, r7, pc}
 80026cc:	684e      	ldr	r6, [r1, #4]
 80026ce:	4390      	bics	r0, r2
 80026d0:	4684      	mov	ip, r0
 80026d2:	6808      	ldr	r0, [r1, #0]
 80026d4:	2e02      	cmp	r6, #2
 80026d6:	d05e      	beq.n	8002796 <HAL_ADC_ConfigChannel+0x116>
 80026d8:	0347      	lsls	r7, r0, #13
 80026da:	0b7d      	lsrs	r5, r7, #13
 80026dc:	2780      	movs	r7, #128	@ 0x80
 80026de:	9500      	str	r5, [sp, #0]
 80026e0:	063f      	lsls	r7, r7, #24
 80026e2:	45bc      	cmp	ip, r7
 80026e4:	d053      	beq.n	800278e <HAL_ADC_ConfigChannel+0x10e>
 80026e6:	6e27      	ldr	r7, [r4, #96]	@ 0x60
 80026e8:	46bb      	mov	fp, r7
 80026ea:	271f      	movs	r7, #31
 80026ec:	46b8      	mov	r8, r7
 80026ee:	4037      	ands	r7, r6
 80026f0:	46ba      	mov	sl, r7
 80026f2:	270f      	movs	r7, #15
 80026f4:	4655      	mov	r5, sl
 80026f6:	40af      	lsls	r7, r5
 80026f8:	43fd      	mvns	r5, r7
 80026fa:	46bc      	mov	ip, r7
 80026fc:	9501      	str	r5, [sp, #4]
 80026fe:	465f      	mov	r7, fp
 8002700:	4665      	mov	r5, ip
 8002702:	43af      	bics	r7, r5
 8002704:	9d00      	ldr	r5, [sp, #0]
 8002706:	46b9      	mov	r9, r7
 8002708:	2d00      	cmp	r5, #0
 800270a:	d166      	bne.n	80027da <HAL_ADC_ConfigChannel+0x15a>
 800270c:	4645      	mov	r5, r8
 800270e:	0e82      	lsrs	r2, r0, #26
 8002710:	4015      	ands	r5, r2
 8002712:	002a      	movs	r2, r5
 8002714:	4655      	mov	r5, sl
 8002716:	40aa      	lsls	r2, r5
 8002718:	464d      	mov	r5, r9
 800271a:	4315      	orrs	r5, r2
 800271c:	46a9      	mov	r9, r5
 800271e:	464a      	mov	r2, r9
 8002720:	08b6      	lsrs	r6, r6, #2
 8002722:	6622      	str	r2, [r4, #96]	@ 0x60
 8002724:	69e2      	ldr	r2, [r4, #28]
 8002726:	3601      	adds	r6, #1
 8002728:	4296      	cmp	r6, r2
 800272a:	d808      	bhi.n	800273e <HAL_ADC_ConfigChannel+0xbe>
 800272c:	4656      	mov	r6, sl
 800272e:	0082      	lsls	r2, r0, #2
 8002730:	0f12      	lsrs	r2, r2, #28
 8002732:	40b2      	lsls	r2, r6
 8002734:	6a9d      	ldr	r5, [r3, #40]	@ 0x28
 8002736:	9e01      	ldr	r6, [sp, #4]
 8002738:	4035      	ands	r5, r6
 800273a:	432a      	orrs	r2, r5
 800273c:	629a      	str	r2, [r3, #40]	@ 0x28
 800273e:	0205      	lsls	r5, r0, #8
 8002740:	688a      	ldr	r2, [r1, #8]
 8002742:	0029      	movs	r1, r5
 8002744:	695e      	ldr	r6, [r3, #20]
 8002746:	402a      	ands	r2, r5
 8002748:	4d66      	ldr	r5, [pc, #408]	@ (80028e4 <HAL_ADC_ConfigChannel+0x264>)
 800274a:	438e      	bics	r6, r1
 800274c:	402a      	ands	r2, r5
 800274e:	4332      	orrs	r2, r6
 8002750:	615a      	str	r2, [r3, #20]
 8002752:	2800      	cmp	r0, #0
 8002754:	db01      	blt.n	800275a <HAL_ADC_ConfigChannel+0xda>
 8002756:	2000      	movs	r0, #0
 8002758:	e7ae      	b.n	80026b8 <HAL_ADC_ConfigChannel+0x38>
 800275a:	21e0      	movs	r1, #224	@ 0xe0
 800275c:	4d62      	ldr	r5, [pc, #392]	@ (80028e8 <HAL_ADC_ConfigChannel+0x268>)
 800275e:	4a63      	ldr	r2, [pc, #396]	@ (80028ec <HAL_ADC_ConfigChannel+0x26c>)
 8002760:	682b      	ldr	r3, [r5, #0]
 8002762:	0449      	lsls	r1, r1, #17
 8002764:	4019      	ands	r1, r3
 8002766:	4290      	cmp	r0, r2
 8002768:	d04c      	beq.n	8002804 <HAL_ADC_ConfigChannel+0x184>
 800276a:	4a61      	ldr	r2, [pc, #388]	@ (80028f0 <HAL_ADC_ConfigChannel+0x270>)
 800276c:	4290      	cmp	r0, r2
 800276e:	d040      	beq.n	80027f2 <HAL_ADC_ConfigChannel+0x172>
 8002770:	4a60      	ldr	r2, [pc, #384]	@ (80028f4 <HAL_ADC_ConfigChannel+0x274>)
 8002772:	4290      	cmp	r0, r2
 8002774:	d1ef      	bne.n	8002756 <HAL_ADC_ConfigChannel+0xd6>
 8002776:	2280      	movs	r2, #128	@ 0x80
 8002778:	03d2      	lsls	r2, r2, #15
 800277a:	4213      	tst	r3, r2
 800277c:	d1eb      	bne.n	8002756 <HAL_ADC_ConfigChannel+0xd6>
 800277e:	682b      	ldr	r3, [r5, #0]
 8002780:	485d      	ldr	r0, [pc, #372]	@ (80028f8 <HAL_ADC_ConfigChannel+0x278>)
 8002782:	4003      	ands	r3, r0
 8002784:	430b      	orrs	r3, r1
 8002786:	431a      	orrs	r2, r3
 8002788:	2000      	movs	r0, #0
 800278a:	602a      	str	r2, [r5, #0]
 800278c:	e794      	b.n	80026b8 <HAL_ADC_ConfigChannel+0x38>
 800278e:	6a9a      	ldr	r2, [r3, #40]	@ 0x28
 8002790:	432a      	orrs	r2, r5
 8002792:	629a      	str	r2, [r3, #40]	@ 0x28
 8002794:	e7d3      	b.n	800273e <HAL_ADC_ConfigChannel+0xbe>
 8002796:	2280      	movs	r2, #128	@ 0x80
 8002798:	0612      	lsls	r2, r2, #24
 800279a:	4594      	cmp	ip, r2
 800279c:	d104      	bne.n	80027a8 <HAL_ADC_ConfigChannel+0x128>
 800279e:	6a9a      	ldr	r2, [r3, #40]	@ 0x28
 80027a0:	0341      	lsls	r1, r0, #13
 80027a2:	0b49      	lsrs	r1, r1, #13
 80027a4:	438a      	bics	r2, r1
 80027a6:	629a      	str	r2, [r3, #40]	@ 0x28
 80027a8:	2800      	cmp	r0, #0
 80027aa:	dad4      	bge.n	8002756 <HAL_ADC_ConfigChannel+0xd6>
 80027ac:	4a4e      	ldr	r2, [pc, #312]	@ (80028e8 <HAL_ADC_ConfigChannel+0x268>)
 80027ae:	494f      	ldr	r1, [pc, #316]	@ (80028ec <HAL_ADC_ConfigChannel+0x26c>)
 80027b0:	6813      	ldr	r3, [r2, #0]
 80027b2:	4288      	cmp	r0, r1
 80027b4:	d023      	beq.n	80027fe <HAL_ADC_ConfigChannel+0x17e>
 80027b6:	494e      	ldr	r1, [pc, #312]	@ (80028f0 <HAL_ADC_ConfigChannel+0x270>)
 80027b8:	4288      	cmp	r0, r1
 80027ba:	d04a      	beq.n	8002852 <HAL_ADC_ConfigChannel+0x1d2>
 80027bc:	494d      	ldr	r1, [pc, #308]	@ (80028f4 <HAL_ADC_ConfigChannel+0x274>)
 80027be:	4288      	cmp	r0, r1
 80027c0:	d1c9      	bne.n	8002756 <HAL_ADC_ConfigChannel+0xd6>
 80027c2:	20c0      	movs	r0, #192	@ 0xc0
 80027c4:	6811      	ldr	r1, [r2, #0]
 80027c6:	0440      	lsls	r0, r0, #17
 80027c8:	4003      	ands	r3, r0
 80027ca:	484b      	ldr	r0, [pc, #300]	@ (80028f8 <HAL_ADC_ConfigChannel+0x278>)
 80027cc:	4001      	ands	r1, r0
 80027ce:	430b      	orrs	r3, r1
 80027d0:	2000      	movs	r0, #0
 80027d2:	6013      	str	r3, [r2, #0]
 80027d4:	e770      	b.n	80026b8 <HAL_ADC_ConfigChannel+0x38>
 80027d6:	2002      	movs	r0, #2
 80027d8:	e771      	b.n	80026be <HAL_ADC_ConfigChannel+0x3e>
 80027da:	2501      	movs	r5, #1
 80027dc:	4205      	tst	r5, r0
 80027de:	d19e      	bne.n	800271e <HAL_ADC_ConfigChannel+0x9e>
 80027e0:	2702      	movs	r7, #2
 80027e2:	4207      	tst	r7, r0
 80027e4:	d02d      	beq.n	8002842 <HAL_ADC_ConfigChannel+0x1c2>
 80027e6:	4652      	mov	r2, sl
 80027e8:	4095      	lsls	r5, r2
 80027ea:	464a      	mov	r2, r9
 80027ec:	432a      	orrs	r2, r5
 80027ee:	4691      	mov	r9, r2
 80027f0:	e795      	b.n	800271e <HAL_ADC_ConfigChannel+0x9e>
 80027f2:	2280      	movs	r2, #128	@ 0x80
 80027f4:	0452      	lsls	r2, r2, #17
 80027f6:	4213      	tst	r3, r2
 80027f8:	d0c1      	beq.n	800277e <HAL_ADC_ConfigChannel+0xfe>
 80027fa:	2000      	movs	r0, #0
 80027fc:	e75c      	b.n	80026b8 <HAL_ADC_ConfigChannel+0x38>
 80027fe:	20a0      	movs	r0, #160	@ 0xa0
 8002800:	6811      	ldr	r1, [r2, #0]
 8002802:	e7e0      	b.n	80027c6 <HAL_ADC_ConfigChannel+0x146>
 8002804:	2280      	movs	r2, #128	@ 0x80
 8002806:	0412      	lsls	r2, r2, #16
 8002808:	4213      	tst	r3, r2
 800280a:	d1a4      	bne.n	8002756 <HAL_ADC_ConfigChannel+0xd6>
 800280c:	682b      	ldr	r3, [r5, #0]
 800280e:	483a      	ldr	r0, [pc, #232]	@ (80028f8 <HAL_ADC_ConfigChannel+0x278>)
 8002810:	4003      	ands	r3, r0
 8002812:	430b      	orrs	r3, r1
 8002814:	431a      	orrs	r2, r3
 8002816:	4b39      	ldr	r3, [pc, #228]	@ (80028fc <HAL_ADC_ConfigChannel+0x27c>)
 8002818:	602a      	str	r2, [r5, #0]
 800281a:	6818      	ldr	r0, [r3, #0]
 800281c:	4938      	ldr	r1, [pc, #224]	@ (8002900 <HAL_ADC_ConfigChannel+0x280>)
 800281e:	f7fd fc71 	bl	8000104 <__udivsi3>
 8002822:	3001      	adds	r0, #1
 8002824:	0043      	lsls	r3, r0, #1
 8002826:	181b      	adds	r3, r3, r0
 8002828:	009b      	lsls	r3, r3, #2
 800282a:	9303      	str	r3, [sp, #12]
 800282c:	9b03      	ldr	r3, [sp, #12]
 800282e:	2b00      	cmp	r3, #0
 8002830:	d091      	beq.n	8002756 <HAL_ADC_ConfigChannel+0xd6>
 8002832:	9b03      	ldr	r3, [sp, #12]
 8002834:	3b01      	subs	r3, #1
 8002836:	9303      	str	r3, [sp, #12]
 8002838:	9b03      	ldr	r3, [sp, #12]
 800283a:	2b00      	cmp	r3, #0
 800283c:	d1f9      	bne.n	8002832 <HAL_ADC_ConfigChannel+0x1b2>
 800283e:	2000      	movs	r0, #0
 8002840:	e73a      	b.n	80026b8 <HAL_ADC_ConfigChannel+0x38>
 8002842:	4202      	tst	r2, r0
 8002844:	d009      	beq.n	800285a <HAL_ADC_ConfigChannel+0x1da>
 8002846:	4652      	mov	r2, sl
 8002848:	4097      	lsls	r7, r2
 800284a:	464a      	mov	r2, r9
 800284c:	433a      	orrs	r2, r7
 800284e:	4691      	mov	r9, r2
 8002850:	e765      	b.n	800271e <HAL_ADC_ConfigChannel+0x9e>
 8002852:	20c0      	movs	r0, #192	@ 0xc0
 8002854:	6811      	ldr	r1, [r2, #0]
 8002856:	0400      	lsls	r0, r0, #16
 8002858:	e7b6      	b.n	80027c8 <HAL_ADC_ConfigChannel+0x148>
 800285a:	0702      	lsls	r2, r0, #28
 800285c:	d501      	bpl.n	8002862 <HAL_ADC_ConfigChannel+0x1e2>
 800285e:	2203      	movs	r2, #3
 8002860:	e758      	b.n	8002714 <HAL_ADC_ConfigChannel+0x94>
 8002862:	06c2      	lsls	r2, r0, #27
 8002864:	d501      	bpl.n	800286a <HAL_ADC_ConfigChannel+0x1ea>
 8002866:	2204      	movs	r2, #4
 8002868:	e754      	b.n	8002714 <HAL_ADC_ConfigChannel+0x94>
 800286a:	0682      	lsls	r2, r0, #26
 800286c:	d501      	bpl.n	8002872 <HAL_ADC_ConfigChannel+0x1f2>
 800286e:	2205      	movs	r2, #5
 8002870:	e750      	b.n	8002714 <HAL_ADC_ConfigChannel+0x94>
 8002872:	0642      	lsls	r2, r0, #25
 8002874:	d501      	bpl.n	800287a <HAL_ADC_ConfigChannel+0x1fa>
 8002876:	2206      	movs	r2, #6
 8002878:	e74c      	b.n	8002714 <HAL_ADC_ConfigChannel+0x94>
 800287a:	0602      	lsls	r2, r0, #24
 800287c:	d501      	bpl.n	8002882 <HAL_ADC_ConfigChannel+0x202>
 800287e:	2207      	movs	r2, #7
 8002880:	e748      	b.n	8002714 <HAL_ADC_ConfigChannel+0x94>
 8002882:	05c2      	lsls	r2, r0, #23
 8002884:	d501      	bpl.n	800288a <HAL_ADC_ConfigChannel+0x20a>
 8002886:	2208      	movs	r2, #8
 8002888:	e744      	b.n	8002714 <HAL_ADC_ConfigChannel+0x94>
 800288a:	0582      	lsls	r2, r0, #22
 800288c:	d501      	bpl.n	8002892 <HAL_ADC_ConfigChannel+0x212>
 800288e:	2209      	movs	r2, #9
 8002890:	e740      	b.n	8002714 <HAL_ADC_ConfigChannel+0x94>
 8002892:	0542      	lsls	r2, r0, #21
 8002894:	d501      	bpl.n	800289a <HAL_ADC_ConfigChannel+0x21a>
 8002896:	220a      	movs	r2, #10
 8002898:	e73c      	b.n	8002714 <HAL_ADC_ConfigChannel+0x94>
 800289a:	0502      	lsls	r2, r0, #20
 800289c:	d501      	bpl.n	80028a2 <HAL_ADC_ConfigChannel+0x222>
 800289e:	220b      	movs	r2, #11
 80028a0:	e738      	b.n	8002714 <HAL_ADC_ConfigChannel+0x94>
 80028a2:	04c2      	lsls	r2, r0, #19
 80028a4:	d501      	bpl.n	80028aa <HAL_ADC_ConfigChannel+0x22a>
 80028a6:	220c      	movs	r2, #12
 80028a8:	e734      	b.n	8002714 <HAL_ADC_ConfigChannel+0x94>
 80028aa:	0482      	lsls	r2, r0, #18
 80028ac:	d501      	bpl.n	80028b2 <HAL_ADC_ConfigChannel+0x232>
 80028ae:	220d      	movs	r2, #13
 80028b0:	e730      	b.n	8002714 <HAL_ADC_ConfigChannel+0x94>
 80028b2:	0442      	lsls	r2, r0, #17
 80028b4:	d501      	bpl.n	80028ba <HAL_ADC_ConfigChannel+0x23a>
 80028b6:	220e      	movs	r2, #14
 80028b8:	e72c      	b.n	8002714 <HAL_ADC_ConfigChannel+0x94>
 80028ba:	0402      	lsls	r2, r0, #16
 80028bc:	d504      	bpl.n	80028c8 <HAL_ADC_ConfigChannel+0x248>
 80028be:	465a      	mov	r2, fp
 80028c0:	4665      	mov	r5, ip
 80028c2:	432a      	orrs	r2, r5
 80028c4:	4691      	mov	r9, r2
 80028c6:	e72a      	b.n	800271e <HAL_ADC_ConfigChannel+0x9e>
 80028c8:	03c2      	lsls	r2, r0, #15
 80028ca:	d501      	bpl.n	80028d0 <HAL_ADC_ConfigChannel+0x250>
 80028cc:	2210      	movs	r2, #16
 80028ce:	e721      	b.n	8002714 <HAL_ADC_ConfigChannel+0x94>
 80028d0:	0382      	lsls	r2, r0, #14
 80028d2:	d501      	bpl.n	80028d8 <HAL_ADC_ConfigChannel+0x258>
 80028d4:	2211      	movs	r2, #17
 80028d6:	e71d      	b.n	8002714 <HAL_ADC_ConfigChannel+0x94>
 80028d8:	0342      	lsls	r2, r0, #13
 80028da:	d400      	bmi.n	80028de <HAL_ADC_ConfigChannel+0x25e>
 80028dc:	e71f      	b.n	800271e <HAL_ADC_ConfigChannel+0x9e>
 80028de:	2212      	movs	r2, #18
 80028e0:	e718      	b.n	8002714 <HAL_ADC_ConfigChannel+0x94>
 80028e2:	46c0      	nop			@ (mov r8, r8)
 80028e4:	07ffff00 	.word	0x07ffff00
 80028e8:	40012708 	.word	0x40012708
 80028ec:	b0001000 	.word	0xb0001000
 80028f0:	b8004000 	.word	0xb8004000
 80028f4:	b4002000 	.word	0xb4002000
 80028f8:	fe3fffff 	.word	0xfe3fffff
 80028fc:	20000414 	.word	0x20000414
 8002900:	00030d40 	.word	0x00030d40

08002904 <ADC_ConversionStop>:
 8002904:	6802      	ldr	r2, [r0, #0]
 8002906:	b570      	push	{r4, r5, r6, lr}
 8002908:	6893      	ldr	r3, [r2, #8]
 800290a:	0004      	movs	r4, r0
 800290c:	075b      	lsls	r3, r3, #29
 800290e:	d516      	bpl.n	800293e <ADC_ConversionStop+0x3a>
 8002910:	6893      	ldr	r3, [r2, #8]
 8002912:	079b      	lsls	r3, r3, #30
 8002914:	d515      	bpl.n	8002942 <ADC_ConversionStop+0x3e>
 8002916:	f7ff fcd7 	bl	80022c8 <HAL_GetTick>
 800291a:	6823      	ldr	r3, [r4, #0]
 800291c:	0006      	movs	r6, r0
 800291e:	689b      	ldr	r3, [r3, #8]
 8002920:	075b      	lsls	r3, r3, #29
 8002922:	d50c      	bpl.n	800293e <ADC_ConversionStop+0x3a>
 8002924:	2504      	movs	r5, #4
 8002926:	f7ff fccf 	bl	80022c8 <HAL_GetTick>
 800292a:	6823      	ldr	r3, [r4, #0]
 800292c:	1b80      	subs	r0, r0, r6
 800292e:	2802      	cmp	r0, #2
 8002930:	d902      	bls.n	8002938 <ADC_ConversionStop+0x34>
 8002932:	689a      	ldr	r2, [r3, #8]
 8002934:	4215      	tst	r5, r2
 8002936:	d112      	bne.n	800295e <ADC_ConversionStop+0x5a>
 8002938:	689b      	ldr	r3, [r3, #8]
 800293a:	421d      	tst	r5, r3
 800293c:	d1f3      	bne.n	8002926 <ADC_ConversionStop+0x22>
 800293e:	2000      	movs	r0, #0
 8002940:	bd70      	pop	{r4, r5, r6, pc}
 8002942:	6893      	ldr	r3, [r2, #8]
 8002944:	490b      	ldr	r1, [pc, #44]	@ (8002974 <ADC_ConversionStop+0x70>)
 8002946:	400b      	ands	r3, r1
 8002948:	2110      	movs	r1, #16
 800294a:	430b      	orrs	r3, r1
 800294c:	6093      	str	r3, [r2, #8]
 800294e:	f7ff fcbb 	bl	80022c8 <HAL_GetTick>
 8002952:	6823      	ldr	r3, [r4, #0]
 8002954:	0006      	movs	r6, r0
 8002956:	689b      	ldr	r3, [r3, #8]
 8002958:	075b      	lsls	r3, r3, #29
 800295a:	d4e3      	bmi.n	8002924 <ADC_ConversionStop+0x20>
 800295c:	e7ef      	b.n	800293e <ADC_ConversionStop+0x3a>
 800295e:	2210      	movs	r2, #16
 8002960:	6da3      	ldr	r3, [r4, #88]	@ 0x58
 8002962:	2001      	movs	r0, #1
 8002964:	4313      	orrs	r3, r2
 8002966:	65a3      	str	r3, [r4, #88]	@ 0x58
 8002968:	6de3      	ldr	r3, [r4, #92]	@ 0x5c
 800296a:	3a0f      	subs	r2, #15
 800296c:	4313      	orrs	r3, r2
 800296e:	65e3      	str	r3, [r4, #92]	@ 0x5c
 8002970:	e7e6      	b.n	8002940 <ADC_ConversionStop+0x3c>
 8002972:	46c0      	nop			@ (mov r8, r8)
 8002974:	7fffffe8 	.word	0x7fffffe8

08002978 <ADC_Enable>:
 8002978:	2300      	movs	r3, #0
 800297a:	2201      	movs	r2, #1
 800297c:	b5f0      	push	{r4, r5, r6, r7, lr}
 800297e:	b083      	sub	sp, #12
 8002980:	9301      	str	r3, [sp, #4]
 8002982:	6803      	ldr	r3, [r0, #0]
 8002984:	0004      	movs	r4, r0
 8002986:	6899      	ldr	r1, [r3, #8]
 8002988:	420a      	tst	r2, r1
 800298a:	d11f      	bne.n	80029cc <ADC_Enable+0x54>
 800298c:	6898      	ldr	r0, [r3, #8]
 800298e:	4928      	ldr	r1, [pc, #160]	@ (8002a30 <ADC_Enable+0xb8>)
 8002990:	4208      	tst	r0, r1
 8002992:	d11e      	bne.n	80029d2 <ADC_Enable+0x5a>
 8002994:	6899      	ldr	r1, [r3, #8]
 8002996:	4827      	ldr	r0, [pc, #156]	@ (8002a34 <ADC_Enable+0xbc>)
 8002998:	4001      	ands	r1, r0
 800299a:	430a      	orrs	r2, r1
 800299c:	609a      	str	r2, [r3, #8]
 800299e:	4b26      	ldr	r3, [pc, #152]	@ (8002a38 <ADC_Enable+0xc0>)
 80029a0:	681b      	ldr	r3, [r3, #0]
 80029a2:	021b      	lsls	r3, r3, #8
 80029a4:	d50f      	bpl.n	80029c6 <ADC_Enable+0x4e>
 80029a6:	4b25      	ldr	r3, [pc, #148]	@ (8002a3c <ADC_Enable+0xc4>)
 80029a8:	4925      	ldr	r1, [pc, #148]	@ (8002a40 <ADC_Enable+0xc8>)
 80029aa:	6818      	ldr	r0, [r3, #0]
 80029ac:	f7fd fbaa 	bl	8000104 <__udivsi3>
 80029b0:	3001      	adds	r0, #1
 80029b2:	9001      	str	r0, [sp, #4]
 80029b4:	9b01      	ldr	r3, [sp, #4]
 80029b6:	2b00      	cmp	r3, #0
 80029b8:	d005      	beq.n	80029c6 <ADC_Enable+0x4e>
 80029ba:	9b01      	ldr	r3, [sp, #4]
 80029bc:	3b01      	subs	r3, #1
 80029be:	9301      	str	r3, [sp, #4]
 80029c0:	9b01      	ldr	r3, [sp, #4]
 80029c2:	2b00      	cmp	r3, #0
 80029c4:	d1f9      	bne.n	80029ba <ADC_Enable+0x42>
 80029c6:	7e63      	ldrb	r3, [r4, #25]
 80029c8:	2b01      	cmp	r3, #1
 80029ca:	d10b      	bne.n	80029e4 <ADC_Enable+0x6c>
 80029cc:	2000      	movs	r0, #0
 80029ce:	b003      	add	sp, #12
 80029d0:	bdf0      	pop	{r4, r5, r6, r7, pc}
 80029d2:	2110      	movs	r1, #16
 80029d4:	6da3      	ldr	r3, [r4, #88]	@ 0x58
 80029d6:	2001      	movs	r0, #1
 80029d8:	430b      	orrs	r3, r1
 80029da:	65a3      	str	r3, [r4, #88]	@ 0x58
 80029dc:	6de3      	ldr	r3, [r4, #92]	@ 0x5c
 80029de:	4313      	orrs	r3, r2
 80029e0:	65e3      	str	r3, [r4, #92]	@ 0x5c
 80029e2:	e7f4      	b.n	80029ce <ADC_Enable+0x56>
 80029e4:	f7ff fc70 	bl	80022c8 <HAL_GetTick>
 80029e8:	6823      	ldr	r3, [r4, #0]
 80029ea:	0006      	movs	r6, r0
 80029ec:	681a      	ldr	r2, [r3, #0]
 80029ee:	07d2      	lsls	r2, r2, #31
 80029f0:	d4ec      	bmi.n	80029cc <ADC_Enable+0x54>
 80029f2:	2501      	movs	r5, #1
 80029f4:	4f0f      	ldr	r7, [pc, #60]	@ (8002a34 <ADC_Enable+0xbc>)
 80029f6:	689a      	ldr	r2, [r3, #8]
 80029f8:	4215      	tst	r5, r2
 80029fa:	d103      	bne.n	8002a04 <ADC_Enable+0x8c>
 80029fc:	689a      	ldr	r2, [r3, #8]
 80029fe:	403a      	ands	r2, r7
 8002a00:	432a      	orrs	r2, r5
 8002a02:	609a      	str	r2, [r3, #8]
 8002a04:	f7ff fc60 	bl	80022c8 <HAL_GetTick>
 8002a08:	6823      	ldr	r3, [r4, #0]
 8002a0a:	1b80      	subs	r0, r0, r6
 8002a0c:	2802      	cmp	r0, #2
 8002a0e:	d902      	bls.n	8002a16 <ADC_Enable+0x9e>
 8002a10:	681a      	ldr	r2, [r3, #0]
 8002a12:	4215      	tst	r5, r2
 8002a14:	d003      	beq.n	8002a1e <ADC_Enable+0xa6>
 8002a16:	681a      	ldr	r2, [r3, #0]
 8002a18:	4215      	tst	r5, r2
 8002a1a:	d0ec      	beq.n	80029f6 <ADC_Enable+0x7e>
 8002a1c:	e7d6      	b.n	80029cc <ADC_Enable+0x54>
 8002a1e:	2210      	movs	r2, #16
 8002a20:	6da3      	ldr	r3, [r4, #88]	@ 0x58
 8002a22:	2001      	movs	r0, #1
 8002a24:	4313      	orrs	r3, r2
 8002a26:	65a3      	str	r3, [r4, #88]	@ 0x58
 8002a28:	6de3      	ldr	r3, [r4, #92]	@ 0x5c
 8002a2a:	432b      	orrs	r3, r5
 8002a2c:	65e3      	str	r3, [r4, #92]	@ 0x5c
 8002a2e:	e7ce      	b.n	80029ce <ADC_Enable+0x56>
 8002a30:	80000017 	.word	0x80000017
 8002a34:	7fffffe8 	.word	0x7fffffe8
 8002a38:	40012708 	.word	0x40012708
 8002a3c:	20000414 	.word	0x20000414
 8002a40:	00030d40 	.word	0x00030d40

08002a44 <HAL_ADC_Start_DMA>:
 8002a44:	b5f0      	push	{r4, r5, r6, r7, lr}
 8002a46:	46c6      	mov	lr, r8
 8002a48:	6805      	ldr	r5, [r0, #0]
 8002a4a:	0004      	movs	r4, r0
 8002a4c:	68ae      	ldr	r6, [r5, #8]
 8002a4e:	4688      	mov	r8, r1
 8002a50:	0017      	movs	r7, r2
 8002a52:	2002      	movs	r0, #2
 8002a54:	b500      	push	{lr}
 8002a56:	0776      	lsls	r6, r6, #29
 8002a58:	d414      	bmi.n	8002a84 <HAL_ADC_Start_DMA+0x40>
 8002a5a:	2254      	movs	r2, #84	@ 0x54
 8002a5c:	5ca3      	ldrb	r3, [r4, r2]
 8002a5e:	2b01      	cmp	r3, #1
 8002a60:	d010      	beq.n	8002a84 <HAL_ADC_Start_DMA+0x40>
 8002a62:	2301      	movs	r3, #1
 8002a64:	54a3      	strb	r3, [r4, r2]
 8002a66:	68ea      	ldr	r2, [r5, #12]
 8002a68:	4213      	tst	r3, r2
 8002a6a:	d106      	bne.n	8002a7a <HAL_ADC_Start_DMA+0x36>
 8002a6c:	68aa      	ldr	r2, [r5, #8]
 8002a6e:	4213      	tst	r3, r2
 8002a70:	d131      	bne.n	8002ad6 <HAL_ADC_Start_DMA+0x92>
 8002a72:	2201      	movs	r2, #1
 8002a74:	68eb      	ldr	r3, [r5, #12]
 8002a76:	4313      	orrs	r3, r2
 8002a78:	60eb      	str	r3, [r5, #12]
 8002a7a:	0020      	movs	r0, r4
 8002a7c:	f7ff ff7c 	bl	8002978 <ADC_Enable>
 8002a80:	2800      	cmp	r0, #0
 8002a82:	d002      	beq.n	8002a8a <HAL_ADC_Start_DMA+0x46>
 8002a84:	bc80      	pop	{r7}
 8002a86:	46b8      	mov	r8, r7
 8002a88:	bdf0      	pop	{r4, r5, r6, r7, pc}
 8002a8a:	6da2      	ldr	r2, [r4, #88]	@ 0x58
 8002a8c:	4b15      	ldr	r3, [pc, #84]	@ (8002ae4 <HAL_ADC_Start_DMA+0xa0>)
 8002a8e:	6d25      	ldr	r5, [r4, #80]	@ 0x50
 8002a90:	401a      	ands	r2, r3
 8002a92:	2380      	movs	r3, #128	@ 0x80
 8002a94:	005b      	lsls	r3, r3, #1
 8002a96:	4313      	orrs	r3, r2
 8002a98:	65a3      	str	r3, [r4, #88]	@ 0x58
 8002a9a:	4b13      	ldr	r3, [pc, #76]	@ (8002ae8 <HAL_ADC_Start_DMA+0xa4>)
 8002a9c:	65e0      	str	r0, [r4, #92]	@ 0x5c
 8002a9e:	62eb      	str	r3, [r5, #44]	@ 0x2c
 8002aa0:	4b12      	ldr	r3, [pc, #72]	@ (8002aec <HAL_ADC_Start_DMA+0xa8>)
 8002aa2:	2210      	movs	r2, #16
 8002aa4:	632b      	str	r3, [r5, #48]	@ 0x30
 8002aa6:	4b12      	ldr	r3, [pc, #72]	@ (8002af0 <HAL_ADC_Start_DMA+0xac>)
 8002aa8:	6821      	ldr	r1, [r4, #0]
 8002aaa:	636b      	str	r3, [r5, #52]	@ 0x34
 8002aac:	231c      	movs	r3, #28
 8002aae:	600b      	str	r3, [r1, #0]
 8002ab0:	3338      	adds	r3, #56	@ 0x38
 8002ab2:	54e0      	strb	r0, [r4, r3]
 8002ab4:	684b      	ldr	r3, [r1, #4]
 8002ab6:	0028      	movs	r0, r5
 8002ab8:	4313      	orrs	r3, r2
 8002aba:	604b      	str	r3, [r1, #4]
 8002abc:	4642      	mov	r2, r8
 8002abe:	003b      	movs	r3, r7
 8002ac0:	3140      	adds	r1, #64	@ 0x40
 8002ac2:	f000 fa4d 	bl	8002f60 <HAL_DMA_Start_IT>
 8002ac6:	6822      	ldr	r2, [r4, #0]
 8002ac8:	490a      	ldr	r1, [pc, #40]	@ (8002af4 <HAL_ADC_Start_DMA+0xb0>)
 8002aca:	6893      	ldr	r3, [r2, #8]
 8002acc:	400b      	ands	r3, r1
 8002ace:	2104      	movs	r1, #4
 8002ad0:	430b      	orrs	r3, r1
 8002ad2:	6093      	str	r3, [r2, #8]
 8002ad4:	e7d6      	b.n	8002a84 <HAL_ADC_Start_DMA+0x40>
 8002ad6:	68ab      	ldr	r3, [r5, #8]
 8002ad8:	4a06      	ldr	r2, [pc, #24]	@ (8002af4 <HAL_ADC_Start_DMA+0xb0>)
 8002ada:	4013      	ands	r3, r2
 8002adc:	4303      	orrs	r3, r0
 8002ade:	60ab      	str	r3, [r5, #8]
 8002ae0:	e7c7      	b.n	8002a72 <HAL_ADC_Start_DMA+0x2e>
 8002ae2:	46c0      	nop			@ (mov r8, r8)
 8002ae4:	fffff0fe 	.word	0xfffff0fe
 8002ae8:	080022d5 	.word	0x080022d5
 8002aec:	08002355 	.word	0x08002355
 8002af0:	08002361 	.word	0x08002361
 8002af4:	7fffffe8 	.word	0x7fffffe8

08002af8 <ADC_Disable>:
 8002af8:	2202      	movs	r2, #2
 8002afa:	b5f8      	push	{r3, r4, r5, r6, r7, lr}
 8002afc:	6803      	ldr	r3, [r0, #0]
 8002afe:	0004      	movs	r4, r0
 8002b00:	6899      	ldr	r1, [r3, #8]
 8002b02:	420a      	tst	r2, r1
 8002b04:	d002      	beq.n	8002b0c <ADC_Disable+0x14>
 8002b06:	689b      	ldr	r3, [r3, #8]
 8002b08:	2000      	movs	r0, #0
 8002b0a:	bdf8      	pop	{r3, r4, r5, r6, r7, pc}
 8002b0c:	2101      	movs	r1, #1
 8002b0e:	6898      	ldr	r0, [r3, #8]
 8002b10:	4201      	tst	r1, r0
 8002b12:	d0f9      	beq.n	8002b08 <ADC_Disable+0x10>
 8002b14:	2705      	movs	r7, #5
 8002b16:	6898      	ldr	r0, [r3, #8]
 8002b18:	4007      	ands	r7, r0
 8002b1a:	2f01      	cmp	r7, #1
 8002b1c:	d008      	beq.n	8002b30 <ADC_Disable+0x38>
 8002b1e:	2210      	movs	r2, #16
 8002b20:	6da3      	ldr	r3, [r4, #88]	@ 0x58
 8002b22:	2001      	movs	r0, #1
 8002b24:	4313      	orrs	r3, r2
 8002b26:	65a3      	str	r3, [r4, #88]	@ 0x58
 8002b28:	6de3      	ldr	r3, [r4, #92]	@ 0x5c
 8002b2a:	430b      	orrs	r3, r1
 8002b2c:	65e3      	str	r3, [r4, #92]	@ 0x5c
 8002b2e:	e7ec      	b.n	8002b0a <ADC_Disable+0x12>
 8002b30:	6899      	ldr	r1, [r3, #8]
 8002b32:	4812      	ldr	r0, [pc, #72]	@ (8002b7c <ADC_Disable+0x84>)
 8002b34:	2501      	movs	r5, #1
 8002b36:	4001      	ands	r1, r0
 8002b38:	430a      	orrs	r2, r1
 8002b3a:	609a      	str	r2, [r3, #8]
 8002b3c:	2203      	movs	r2, #3
 8002b3e:	601a      	str	r2, [r3, #0]
 8002b40:	f7ff fbc2 	bl	80022c8 <HAL_GetTick>
 8002b44:	6823      	ldr	r3, [r4, #0]
 8002b46:	0006      	movs	r6, r0
 8002b48:	689b      	ldr	r3, [r3, #8]
 8002b4a:	421f      	tst	r7, r3
 8002b4c:	d0dc      	beq.n	8002b08 <ADC_Disable+0x10>
 8002b4e:	f7ff fbbb 	bl	80022c8 <HAL_GetTick>
 8002b52:	6823      	ldr	r3, [r4, #0]
 8002b54:	1b80      	subs	r0, r0, r6
 8002b56:	2802      	cmp	r0, #2
 8002b58:	d902      	bls.n	8002b60 <ADC_Disable+0x68>
 8002b5a:	689a      	ldr	r2, [r3, #8]
 8002b5c:	4215      	tst	r5, r2
 8002b5e:	d103      	bne.n	8002b68 <ADC_Disable+0x70>
 8002b60:	689b      	ldr	r3, [r3, #8]
 8002b62:	421d      	tst	r5, r3
 8002b64:	d1f3      	bne.n	8002b4e <ADC_Disable+0x56>
 8002b66:	e7cf      	b.n	8002b08 <ADC_Disable+0x10>
 8002b68:	2210      	movs	r2, #16
 8002b6a:	6da3      	ldr	r3, [r4, #88]	@ 0x58
 8002b6c:	2001      	movs	r0, #1
 8002b6e:	4313      	orrs	r3, r2
 8002b70:	65a3      	str	r3, [r4, #88]	@ 0x58
 8002b72:	6de3      	ldr	r3, [r4, #92]	@ 0x5c
 8002b74:	432b      	orrs	r3, r5
 8002b76:	65e3      	str	r3, [r4, #92]	@ 0x5c
 8002b78:	e7c7      	b.n	8002b0a <ADC_Disable+0x12>
 8002b7a:	46c0      	nop			@ (mov r8, r8)
 8002b7c:	7fffffe8 	.word	0x7fffffe8

08002b80 <HAL_ADC_Stop_DMA>:
 8002b80:	2354      	movs	r3, #84	@ 0x54
 8002b82:	b570      	push	{r4, r5, r6, lr}
 8002b84:	5cc2      	ldrb	r2, [r0, r3]
 8002b86:	0004      	movs	r4, r0
 8002b88:	2a01      	cmp	r2, #1
 8002b8a:	d025      	beq.n	8002bd8 <HAL_ADC_Stop_DMA+0x58>
 8002b8c:	2201      	movs	r2, #1
 8002b8e:	54c2      	strb	r2, [r0, r3]
 8002b90:	f7ff feb8 	bl	8002904 <ADC_ConversionStop>
 8002b94:	1e05      	subs	r5, r0, #0
 8002b96:	d11a      	bne.n	8002bce <HAL_ADC_Stop_DMA+0x4e>
 8002b98:	2325      	movs	r3, #37	@ 0x25
 8002b9a:	6d20      	ldr	r0, [r4, #80]	@ 0x50
 8002b9c:	5cc3      	ldrb	r3, [r0, r3]
 8002b9e:	2b02      	cmp	r3, #2
 8002ba0:	d01c      	beq.n	8002bdc <HAL_ADC_Stop_DMA+0x5c>
 8002ba2:	2110      	movs	r1, #16
 8002ba4:	6822      	ldr	r2, [r4, #0]
 8002ba6:	0020      	movs	r0, r4
 8002ba8:	6853      	ldr	r3, [r2, #4]
 8002baa:	438b      	bics	r3, r1
 8002bac:	6053      	str	r3, [r2, #4]
 8002bae:	f7ff ffa3 	bl	8002af8 <ADC_Disable>
 8002bb2:	1e05      	subs	r5, r0, #0
 8002bb4:	d106      	bne.n	8002bc4 <HAL_ADC_Stop_DMA+0x44>
 8002bb6:	6da3      	ldr	r3, [r4, #88]	@ 0x58
 8002bb8:	4a13      	ldr	r2, [pc, #76]	@ (8002c08 <HAL_ADC_Stop_DMA+0x88>)
 8002bba:	4013      	ands	r3, r2
 8002bbc:	3204      	adds	r2, #4
 8002bbe:	32ff      	adds	r2, #255	@ 0xff
 8002bc0:	4313      	orrs	r3, r2
 8002bc2:	65a3      	str	r3, [r4, #88]	@ 0x58
 8002bc4:	2101      	movs	r1, #1
 8002bc6:	6822      	ldr	r2, [r4, #0]
 8002bc8:	68d3      	ldr	r3, [r2, #12]
 8002bca:	438b      	bics	r3, r1
 8002bcc:	60d3      	str	r3, [r2, #12]
 8002bce:	2354      	movs	r3, #84	@ 0x54
 8002bd0:	2200      	movs	r2, #0
 8002bd2:	54e2      	strb	r2, [r4, r3]
 8002bd4:	0028      	movs	r0, r5
 8002bd6:	bd70      	pop	{r4, r5, r6, pc}
 8002bd8:	2502      	movs	r5, #2
 8002bda:	e7fb      	b.n	8002bd4 <HAL_ADC_Stop_DMA+0x54>
 8002bdc:	f000 fa28 	bl	8003030 <HAL_DMA_Abort>
 8002be0:	1e05      	subs	r5, r0, #0
 8002be2:	d0de      	beq.n	8002ba2 <HAL_ADC_Stop_DMA+0x22>
 8002be4:	2240      	movs	r2, #64	@ 0x40
 8002be6:	2110      	movs	r1, #16
 8002be8:	6da3      	ldr	r3, [r4, #88]	@ 0x58
 8002bea:	0020      	movs	r0, r4
 8002bec:	4313      	orrs	r3, r2
 8002bee:	6822      	ldr	r2, [r4, #0]
 8002bf0:	65a3      	str	r3, [r4, #88]	@ 0x58
 8002bf2:	6853      	ldr	r3, [r2, #4]
 8002bf4:	438b      	bics	r3, r1
 8002bf6:	6053      	str	r3, [r2, #4]
 8002bf8:	f7ff ff7e 	bl	8002af8 <ADC_Disable>
 8002bfc:	2101      	movs	r1, #1
 8002bfe:	6822      	ldr	r2, [r4, #0]
 8002c00:	68d3      	ldr	r3, [r2, #12]
 8002c02:	438b      	bics	r3, r1
 8002c04:	60d3      	str	r3, [r2, #12]
 8002c06:	e7e2      	b.n	8002bce <HAL_ADC_Stop_DMA+0x4e>
 8002c08:	fffffefe 	.word	0xfffffefe

08002c0c <HAL_ADCEx_Calibration_Start>:
 8002c0c:	b5f0      	push	{r4, r5, r6, r7, lr}
 8002c0e:	46de      	mov	lr, fp
 8002c10:	4657      	mov	r7, sl
 8002c12:	464e      	mov	r6, r9
 8002c14:	4645      	mov	r5, r8
 8002c16:	2300      	movs	r3, #0
 8002c18:	b5e0      	push	{r5, r6, r7, lr}
 8002c1a:	b085      	sub	sp, #20
 8002c1c:	9302      	str	r3, [sp, #8]
 8002c1e:	3354      	adds	r3, #84	@ 0x54
 8002c20:	5cc2      	ldrb	r2, [r0, r3]
 8002c22:	0004      	movs	r4, r0
 8002c24:	2a01      	cmp	r2, #1
 8002c26:	d100      	bne.n	8002c2a <HAL_ADCEx_Calibration_Start+0x1e>
 8002c28:	e0af      	b.n	8002d8a <HAL_ADCEx_Calibration_Start+0x17e>
 8002c2a:	2701      	movs	r7, #1
 8002c2c:	54c7      	strb	r7, [r0, r3]
 8002c2e:	f7ff ff63 	bl	8002af8 <ADC_Disable>
 8002c32:	003d      	movs	r5, r7
 8002c34:	6823      	ldr	r3, [r4, #0]
 8002c36:	9001      	str	r0, [sp, #4]
 8002c38:	689a      	ldr	r2, [r3, #8]
 8002c3a:	4015      	ands	r5, r2
 8002c3c:	4217      	tst	r7, r2
 8002c3e:	d136      	bne.n	8002cae <HAL_ADCEx_Calibration_Start+0xa2>
 8002c40:	6da2      	ldr	r2, [r4, #88]	@ 0x58
 8002c42:	4953      	ldr	r1, [pc, #332]	@ (8002d90 <HAL_ADCEx_Calibration_Start+0x184>)
 8002c44:	2080      	movs	r0, #128	@ 0x80
 8002c46:	400a      	ands	r2, r1
 8002c48:	3106      	adds	r1, #6
 8002c4a:	31ff      	adds	r1, #255	@ 0xff
 8002c4c:	430a      	orrs	r2, r1
 8002c4e:	65a2      	str	r2, [r4, #88]	@ 0x58
 8002c50:	68da      	ldr	r2, [r3, #12]
 8002c52:	4950      	ldr	r1, [pc, #320]	@ (8002d94 <HAL_ADCEx_Calibration_Start+0x188>)
 8002c54:	4693      	mov	fp, r2
 8002c56:	68da      	ldr	r2, [r3, #12]
 8002c58:	277f      	movs	r7, #127	@ 0x7f
 8002c5a:	400a      	ands	r2, r1
 8002c5c:	60da      	str	r2, [r3, #12]
 8002c5e:	4a4e      	ldr	r2, [pc, #312]	@ (8002d98 <HAL_ADCEx_Calibration_Start+0x18c>)
 8002c60:	2108      	movs	r1, #8
 8002c62:	4694      	mov	ip, r2
 8002c64:	4a4d      	ldr	r2, [pc, #308]	@ (8002d9c <HAL_ADCEx_Calibration_Start+0x190>)
 8002c66:	0600      	lsls	r0, r0, #24
 8002c68:	4692      	mov	sl, r2
 8002c6a:	22b4      	movs	r2, #180	@ 0xb4
 8002c6c:	4691      	mov	r9, r2
 8002c6e:	e006      	b.n	8002c7e <HAL_ADCEx_Calibration_Start+0x72>
 8002c70:	464a      	mov	r2, r9
 8002c72:	589a      	ldr	r2, [r3, r2]
 8002c74:	3901      	subs	r1, #1
 8002c76:	403a      	ands	r2, r7
 8002c78:	18ad      	adds	r5, r5, r2
 8002c7a:	2900      	cmp	r1, #0
 8002c7c:	d026      	beq.n	8002ccc <HAL_ADCEx_Calibration_Start+0xc0>
 8002c7e:	4666      	mov	r6, ip
 8002c80:	689a      	ldr	r2, [r3, #8]
 8002c82:	4032      	ands	r2, r6
 8002c84:	4302      	orrs	r2, r0
 8002c86:	609a      	str	r2, [r3, #8]
 8002c88:	689a      	ldr	r2, [r3, #8]
 8002c8a:	2a00      	cmp	r2, #0
 8002c8c:	daf0      	bge.n	8002c70 <HAL_ADCEx_Calibration_Start+0x64>
 8002c8e:	9a02      	ldr	r2, [sp, #8]
 8002c90:	3201      	adds	r2, #1
 8002c92:	9202      	str	r2, [sp, #8]
 8002c94:	9a02      	ldr	r2, [sp, #8]
 8002c96:	4552      	cmp	r2, sl
 8002c98:	d9f6      	bls.n	8002c88 <HAL_ADCEx_Calibration_Start+0x7c>
 8002c9a:	2212      	movs	r2, #18
 8002c9c:	6da3      	ldr	r3, [r4, #88]	@ 0x58
 8002c9e:	4393      	bics	r3, r2
 8002ca0:	3a02      	subs	r2, #2
 8002ca2:	4313      	orrs	r3, r2
 8002ca4:	65a3      	str	r3, [r4, #88]	@ 0x58
 8002ca6:	2200      	movs	r2, #0
 8002ca8:	2354      	movs	r3, #84	@ 0x54
 8002caa:	54e2      	strb	r2, [r4, r3]
 8002cac:	e059      	b.n	8002d62 <HAL_ADCEx_Calibration_Start+0x156>
 8002cae:	2210      	movs	r2, #16
 8002cb0:	6da3      	ldr	r3, [r4, #88]	@ 0x58
 8002cb2:	4313      	orrs	r3, r2
 8002cb4:	65a3      	str	r3, [r4, #88]	@ 0x58
 8002cb6:	2354      	movs	r3, #84	@ 0x54
 8002cb8:	2200      	movs	r2, #0
 8002cba:	54e2      	strb	r2, [r4, r3]
 8002cbc:	9801      	ldr	r0, [sp, #4]
 8002cbe:	b005      	add	sp, #20
 8002cc0:	bcf0      	pop	{r4, r5, r6, r7}
 8002cc2:	46bb      	mov	fp, r7
 8002cc4:	46b2      	mov	sl, r6
 8002cc6:	46a9      	mov	r9, r5
 8002cc8:	46a0      	mov	r8, r4
 8002cca:	bdf0      	pop	{r4, r5, r6, r7, pc}
 8002ccc:	689a      	ldr	r2, [r3, #8]
 8002cce:	4832      	ldr	r0, [pc, #200]	@ (8002d98 <HAL_ADCEx_Calibration_Start+0x18c>)
 8002cd0:	08e9      	lsrs	r1, r5, #3
 8002cd2:	4002      	ands	r2, r0
 8002cd4:	2001      	movs	r0, #1
 8002cd6:	4302      	orrs	r2, r0
 8002cd8:	609a      	str	r2, [r3, #8]
 8002cda:	2280      	movs	r2, #128	@ 0x80
 8002cdc:	691d      	ldr	r5, [r3, #16]
 8002cde:	05d2      	lsls	r2, r2, #23
 8002ce0:	4295      	cmp	r5, r2
 8002ce2:	d218      	bcs.n	8002d16 <HAL_ADCEx_Calibration_Start+0x10a>
 8002ce4:	25f0      	movs	r5, #240	@ 0xf0
 8002ce6:	4a2e      	ldr	r2, [pc, #184]	@ (8002da0 <HAL_ADCEx_Calibration_Start+0x194>)
 8002ce8:	03ad      	lsls	r5, r5, #14
 8002cea:	6812      	ldr	r2, [r2, #0]
 8002cec:	402a      	ands	r2, r5
 8002cee:	25e0      	movs	r5, #224	@ 0xe0
 8002cf0:	036d      	lsls	r5, r5, #13
 8002cf2:	42aa      	cmp	r2, r5
 8002cf4:	d30f      	bcc.n	8002d16 <HAL_ADCEx_Calibration_Start+0x10a>
 8002cf6:	0c92      	lsrs	r2, r2, #18
 8002cf8:	3a03      	subs	r2, #3
 8002cfa:	4090      	lsls	r0, r2
 8002cfc:	9003      	str	r0, [sp, #12]
 8002cfe:	9a03      	ldr	r2, [sp, #12]
 8002d00:	0852      	lsrs	r2, r2, #1
 8002d02:	9203      	str	r2, [sp, #12]
 8002d04:	9a03      	ldr	r2, [sp, #12]
 8002d06:	2a00      	cmp	r2, #0
 8002d08:	d005      	beq.n	8002d16 <HAL_ADCEx_Calibration_Start+0x10a>
 8002d0a:	9a03      	ldr	r2, [sp, #12]
 8002d0c:	3a01      	subs	r2, #1
 8002d0e:	9203      	str	r2, [sp, #12]
 8002d10:	9a03      	ldr	r2, [sp, #12]
 8002d12:	2a00      	cmp	r2, #0
 8002d14:	d1f9      	bne.n	8002d0a <HAL_ADCEx_Calibration_Start+0xfe>
 8002d16:	22b4      	movs	r2, #180	@ 0xb4
 8002d18:	207f      	movs	r0, #127	@ 0x7f
 8002d1a:	589d      	ldr	r5, [r3, r2]
 8002d1c:	4385      	bics	r5, r0
 8002d1e:	430d      	orrs	r5, r1
 8002d20:	509d      	str	r5, [r3, r2]
 8002d22:	689a      	ldr	r2, [r3, #8]
 8002d24:	491c      	ldr	r1, [pc, #112]	@ (8002d98 <HAL_ADCEx_Calibration_Start+0x18c>)
 8002d26:	400a      	ands	r2, r1
 8002d28:	2102      	movs	r1, #2
 8002d2a:	430a      	orrs	r2, r1
 8002d2c:	609a      	str	r2, [r3, #8]
 8002d2e:	f7ff facb 	bl	80022c8 <HAL_GetTick>
 8002d32:	6823      	ldr	r3, [r4, #0]
 8002d34:	0005      	movs	r5, r0
 8002d36:	689a      	ldr	r2, [r3, #8]
 8002d38:	07d2      	lsls	r2, r2, #31
 8002d3a:	d519      	bpl.n	8002d70 <HAL_ADCEx_Calibration_Start+0x164>
 8002d3c:	2301      	movs	r3, #1
 8002d3e:	4698      	mov	r8, r3
 8002d40:	f7ff fac2 	bl	80022c8 <HAL_GetTick>
 8002d44:	6823      	ldr	r3, [r4, #0]
 8002d46:	1b40      	subs	r0, r0, r5
 8002d48:	2802      	cmp	r0, #2
 8002d4a:	d90d      	bls.n	8002d68 <HAL_ADCEx_Calibration_Start+0x15c>
 8002d4c:	2201      	movs	r2, #1
 8002d4e:	6899      	ldr	r1, [r3, #8]
 8002d50:	420a      	tst	r2, r1
 8002d52:	d009      	beq.n	8002d68 <HAL_ADCEx_Calibration_Start+0x15c>
 8002d54:	2110      	movs	r1, #16
 8002d56:	6da3      	ldr	r3, [r4, #88]	@ 0x58
 8002d58:	430b      	orrs	r3, r1
 8002d5a:	65a3      	str	r3, [r4, #88]	@ 0x58
 8002d5c:	6de3      	ldr	r3, [r4, #92]	@ 0x5c
 8002d5e:	4313      	orrs	r3, r2
 8002d60:	65e3      	str	r3, [r4, #92]	@ 0x5c
 8002d62:	2301      	movs	r3, #1
 8002d64:	9301      	str	r3, [sp, #4]
 8002d66:	e7a9      	b.n	8002cbc <HAL_ADCEx_Calibration_Start+0xb0>
 8002d68:	4641      	mov	r1, r8
 8002d6a:	689a      	ldr	r2, [r3, #8]
 8002d6c:	4211      	tst	r1, r2
 8002d6e:	d1e7      	bne.n	8002d40 <HAL_ADCEx_Calibration_Start+0x134>
 8002d70:	465f      	mov	r7, fp
 8002d72:	490c      	ldr	r1, [pc, #48]	@ (8002da4 <HAL_ADCEx_Calibration_Start+0x198>)
 8002d74:	68da      	ldr	r2, [r3, #12]
 8002d76:	400f      	ands	r7, r1
 8002d78:	4317      	orrs	r7, r2
 8002d7a:	2203      	movs	r2, #3
 8002d7c:	60df      	str	r7, [r3, #12]
 8002d7e:	6da3      	ldr	r3, [r4, #88]	@ 0x58
 8002d80:	4393      	bics	r3, r2
 8002d82:	3a02      	subs	r2, #2
 8002d84:	4313      	orrs	r3, r2
 8002d86:	65a3      	str	r3, [r4, #88]	@ 0x58
 8002d88:	e795      	b.n	8002cb6 <HAL_ADCEx_Calibration_Start+0xaa>
 8002d8a:	2302      	movs	r3, #2
 8002d8c:	9301      	str	r3, [sp, #4]
 8002d8e:	e795      	b.n	8002cbc <HAL_ADCEx_Calibration_Start+0xb0>
 8002d90:	fffffefd 	.word	0xfffffefd
 8002d94:	ffff7ffc 	.word	0xffff7ffc
 8002d98:	7fffffe8 	.word	0x7fffffe8
 8002d9c:	0002f1ff 	.word	0x0002f1ff
 8002da0:	40012708 	.word	0x40012708
 8002da4:	00008003 	.word	0x00008003

08002da8 <HAL_ADCEx_LevelOutOfWindow2Callback>:
 8002da8:	4770      	bx	lr
 8002daa:	46c0      	nop			@ (mov r8, r8)

08002dac <HAL_ADCEx_LevelOutOfWindow3Callback>:
 8002dac:	4770      	bx	lr
 8002dae:	46c0      	nop			@ (mov r8, r8)

08002db0 <HAL_ADCEx_EndOfSamplingCallback>:
 8002db0:	4770      	bx	lr
 8002db2:	46c0      	nop			@ (mov r8, r8)

08002db4 <HAL_NVIC_SetPriority>:
 8002db4:	22ff      	movs	r2, #255	@ 0xff
 8002db6:	2303      	movs	r3, #3
 8002db8:	b510      	push	{r4, lr}
 8002dba:	0014      	movs	r4, r2
 8002dbc:	4003      	ands	r3, r0
 8002dbe:	00db      	lsls	r3, r3, #3
 8002dc0:	409c      	lsls	r4, r3
 8002dc2:	0189      	lsls	r1, r1, #6
 8002dc4:	400a      	ands	r2, r1
 8002dc6:	43e4      	mvns	r4, r4
 8002dc8:	409a      	lsls	r2, r3
 8002dca:	2800      	cmp	r0, #0
 8002dcc:	db0b      	blt.n	8002de6 <HAL_NVIC_SetPriority+0x32>
 8002dce:	4b0c      	ldr	r3, [pc, #48]	@ (8002e00 <HAL_NVIC_SetPriority+0x4c>)
 8002dd0:	21c0      	movs	r1, #192	@ 0xc0
 8002dd2:	469c      	mov	ip, r3
 8002dd4:	0880      	lsrs	r0, r0, #2
 8002dd6:	0080      	lsls	r0, r0, #2
 8002dd8:	4460      	add	r0, ip
 8002dda:	0089      	lsls	r1, r1, #2
 8002ddc:	5843      	ldr	r3, [r0, r1]
 8002dde:	4023      	ands	r3, r4
 8002de0:	4313      	orrs	r3, r2
 8002de2:	5043      	str	r3, [r0, r1]
 8002de4:	bd10      	pop	{r4, pc}
 8002de6:	230f      	movs	r3, #15
 8002de8:	4906      	ldr	r1, [pc, #24]	@ (8002e04 <HAL_NVIC_SetPriority+0x50>)
 8002dea:	4003      	ands	r3, r0
 8002dec:	468c      	mov	ip, r1
 8002dee:	3b08      	subs	r3, #8
 8002df0:	089b      	lsrs	r3, r3, #2
 8002df2:	009b      	lsls	r3, r3, #2
 8002df4:	4463      	add	r3, ip
 8002df6:	69d9      	ldr	r1, [r3, #28]
 8002df8:	400c      	ands	r4, r1
 8002dfa:	4314      	orrs	r4, r2
 8002dfc:	61dc      	str	r4, [r3, #28]
 8002dfe:	e7f1      	b.n	8002de4 <HAL_NVIC_SetPriority+0x30>
 8002e00:	e000e100 	.word	0xe000e100
 8002e04:	e000ed00 	.word	0xe000ed00

08002e08 <HAL_NVIC_EnableIRQ>:
 8002e08:	2800      	cmp	r0, #0
 8002e0a:	db05      	blt.n	8002e18 <HAL_NVIC_EnableIRQ+0x10>
 8002e0c:	221f      	movs	r2, #31
 8002e0e:	2301      	movs	r3, #1
 8002e10:	4002      	ands	r2, r0
 8002e12:	4093      	lsls	r3, r2
 8002e14:	4a01      	ldr	r2, [pc, #4]	@ (8002e1c <HAL_NVIC_EnableIRQ+0x14>)
 8002e16:	6013      	str	r3, [r2, #0]
 8002e18:	4770      	bx	lr
 8002e1a:	46c0      	nop			@ (mov r8, r8)
 8002e1c:	e000e100 	.word	0xe000e100

08002e20 <HAL_NVIC_DisableIRQ>:
 8002e20:	2800      	cmp	r0, #0
 8002e22:	db0a      	blt.n	8002e3a <HAL_NVIC_DisableIRQ+0x1a>
 8002e24:	221f      	movs	r2, #31
 8002e26:	2301      	movs	r3, #1
 8002e28:	4002      	ands	r2, r0
 8002e2a:	4093      	lsls	r3, r2
 8002e2c:	2280      	movs	r2, #128	@ 0x80
 8002e2e:	4903      	ldr	r1, [pc, #12]	@ (8002e3c <HAL_NVIC_DisableIRQ+0x1c>)
 8002e30:	508b      	str	r3, [r1, r2]
 8002e32:	f3bf 8f4f 	dsb	sy
 8002e36:	f3bf 8f6f 	isb	sy
 8002e3a:	4770      	bx	lr
 8002e3c:	e000e100 	.word	0xe000e100

08002e40 <HAL_SYSTICK_Config>:
 8002e40:	2280      	movs	r2, #128	@ 0x80
 8002e42:	1e43      	subs	r3, r0, #1
 8002e44:	0452      	lsls	r2, r2, #17
 8002e46:	2001      	movs	r0, #1
 8002e48:	4293      	cmp	r3, r2
 8002e4a:	d20e      	bcs.n	8002e6a <HAL_SYSTICK_Config+0x2a>
 8002e4c:	21c0      	movs	r1, #192	@ 0xc0
 8002e4e:	4a07      	ldr	r2, [pc, #28]	@ (8002e6c <HAL_SYSTICK_Config+0x2c>)
 8002e50:	4807      	ldr	r0, [pc, #28]	@ (8002e70 <HAL_SYSTICK_Config+0x30>)
 8002e52:	6053      	str	r3, [r2, #4]
 8002e54:	6a03      	ldr	r3, [r0, #32]
 8002e56:	0609      	lsls	r1, r1, #24
 8002e58:	021b      	lsls	r3, r3, #8
 8002e5a:	0a1b      	lsrs	r3, r3, #8
 8002e5c:	430b      	orrs	r3, r1
 8002e5e:	6203      	str	r3, [r0, #32]
 8002e60:	2300      	movs	r3, #0
 8002e62:	2000      	movs	r0, #0
 8002e64:	6093      	str	r3, [r2, #8]
 8002e66:	3307      	adds	r3, #7
 8002e68:	6013      	str	r3, [r2, #0]
 8002e6a:	4770      	bx	lr
 8002e6c:	e000e010 	.word	0xe000e010
 8002e70:	e000ed00 	.word	0xe000ed00

08002e74 <HAL_DMA_Init>:
 8002e74:	b5f0      	push	{r4, r5, r6, r7, lr}
 8002e76:	46c6      	mov	lr, r8
 8002e78:	0004      	movs	r4, r0
 8002e7a:	b500      	push	{lr}
 8002e7c:	2800      	cmp	r0, #0
 8002e7e:	d060      	beq.n	8002f42 <HAL_DMA_Init+0xce>
 8002e80:	6805      	ldr	r5, [r0, #0]
 8002e82:	4b31      	ldr	r3, [pc, #196]	@ (8002f48 <HAL_DMA_Init+0xd4>)
 8002e84:	2114      	movs	r1, #20
 8002e86:	18e8      	adds	r0, r5, r3
 8002e88:	f7fd f93c 	bl	8000104 <__udivsi3>
 8002e8c:	0083      	lsls	r3, r0, #2
 8002e8e:	6423      	str	r3, [r4, #64]	@ 0x40
 8002e90:	2202      	movs	r2, #2
 8002e92:	2325      	movs	r3, #37	@ 0x25
 8002e94:	54e2      	strb	r2, [r4, r3]
 8002e96:	682b      	ldr	r3, [r5, #0]
 8002e98:	4a2c      	ldr	r2, [pc, #176]	@ (8002f4c <HAL_DMA_Init+0xd8>)
 8002e9a:	68a6      	ldr	r6, [r4, #8]
 8002e9c:	4013      	ands	r3, r2
 8002e9e:	602b      	str	r3, [r5, #0]
 8002ea0:	68e3      	ldr	r3, [r4, #12]
 8002ea2:	6921      	ldr	r1, [r4, #16]
 8002ea4:	4333      	orrs	r3, r6
 8002ea6:	430b      	orrs	r3, r1
 8002ea8:	6961      	ldr	r1, [r4, #20]
 8002eaa:	682a      	ldr	r2, [r5, #0]
 8002eac:	430b      	orrs	r3, r1
 8002eae:	69a1      	ldr	r1, [r4, #24]
 8002eb0:	430b      	orrs	r3, r1
 8002eb2:	69e1      	ldr	r1, [r4, #28]
 8002eb4:	430b      	orrs	r3, r1
 8002eb6:	6a21      	ldr	r1, [r4, #32]
 8002eb8:	430b      	orrs	r3, r1
 8002eba:	4313      	orrs	r3, r2
 8002ebc:	602b      	str	r3, [r5, #0]
 8002ebe:	4b24      	ldr	r3, [pc, #144]	@ (8002f50 <HAL_DMA_Init+0xdc>)
 8002ec0:	2114      	movs	r1, #20
 8002ec2:	469c      	mov	ip, r3
 8002ec4:	4460      	add	r0, ip
 8002ec6:	0087      	lsls	r7, r0, #2
 8002ec8:	20ff      	movs	r0, #255	@ 0xff
 8002eca:	4b22      	ldr	r3, [pc, #136]	@ (8002f54 <HAL_DMA_Init+0xe0>)
 8002ecc:	4028      	ands	r0, r5
 8002ece:	64a3      	str	r3, [r4, #72]	@ 0x48
 8002ed0:	6467      	str	r7, [r4, #68]	@ 0x44
 8002ed2:	3808      	subs	r0, #8
 8002ed4:	4698      	mov	r8, r3
 8002ed6:	f7fd f915 	bl	8000104 <__udivsi3>
 8002eda:	231f      	movs	r3, #31
 8002edc:	2201      	movs	r2, #1
 8002ede:	4003      	ands	r3, r0
 8002ee0:	0010      	movs	r0, r2
 8002ee2:	4098      	lsls	r0, r3
 8002ee4:	2380      	movs	r3, #128	@ 0x80
 8002ee6:	64e0      	str	r0, [r4, #76]	@ 0x4c
 8002ee8:	01db      	lsls	r3, r3, #7
 8002eea:	429e      	cmp	r6, r3
 8002eec:	d01f      	beq.n	8002f2e <HAL_DMA_Init+0xba>
 8002eee:	233f      	movs	r3, #63	@ 0x3f
 8002ef0:	4645      	mov	r5, r8
 8002ef2:	6861      	ldr	r1, [r4, #4]
 8002ef4:	400b      	ands	r3, r1
 8002ef6:	3901      	subs	r1, #1
 8002ef8:	603b      	str	r3, [r7, #0]
 8002efa:	6068      	str	r0, [r5, #4]
 8002efc:	2903      	cmp	r1, #3
 8002efe:	d81b      	bhi.n	8002f38 <HAL_DMA_Init+0xc4>
 8002f00:	4915      	ldr	r1, [pc, #84]	@ (8002f58 <HAL_DMA_Init+0xe4>)
 8002f02:	4816      	ldr	r0, [pc, #88]	@ (8002f5c <HAL_DMA_Init+0xe8>)
 8002f04:	1859      	adds	r1, r3, r1
 8002f06:	3b01      	subs	r3, #1
 8002f08:	409a      	lsls	r2, r3
 8002f0a:	2300      	movs	r3, #0
 8002f0c:	0089      	lsls	r1, r1, #2
 8002f0e:	6521      	str	r1, [r4, #80]	@ 0x50
 8002f10:	6560      	str	r0, [r4, #84]	@ 0x54
 8002f12:	65a2      	str	r2, [r4, #88]	@ 0x58
 8002f14:	600b      	str	r3, [r1, #0]
 8002f16:	6042      	str	r2, [r0, #4]
 8002f18:	2300      	movs	r3, #0
 8002f1a:	2225      	movs	r2, #37	@ 0x25
 8002f1c:	2101      	movs	r1, #1
 8002f1e:	2000      	movs	r0, #0
 8002f20:	63e3      	str	r3, [r4, #60]	@ 0x3c
 8002f22:	54a1      	strb	r1, [r4, r2]
 8002f24:	3a01      	subs	r2, #1
 8002f26:	54a3      	strb	r3, [r4, r2]
 8002f28:	bc80      	pop	{r7}
 8002f2a:	46b8      	mov	r8, r7
 8002f2c:	bdf0      	pop	{r4, r5, r6, r7, pc}
 8002f2e:	2300      	movs	r3, #0
 8002f30:	6063      	str	r3, [r4, #4]
 8002f32:	603b      	str	r3, [r7, #0]
 8002f34:	4643      	mov	r3, r8
 8002f36:	6058      	str	r0, [r3, #4]
 8002f38:	2300      	movs	r3, #0
 8002f3a:	6523      	str	r3, [r4, #80]	@ 0x50
 8002f3c:	6563      	str	r3, [r4, #84]	@ 0x54
 8002f3e:	65a3      	str	r3, [r4, #88]	@ 0x58
 8002f40:	e7ea      	b.n	8002f18 <HAL_DMA_Init+0xa4>
 8002f42:	2001      	movs	r0, #1
 8002f44:	e7f0      	b.n	8002f28 <HAL_DMA_Init+0xb4>
 8002f46:	46c0      	nop			@ (mov r8, r8)
 8002f48:	bffdfff8 	.word	0xbffdfff8
 8002f4c:	ffff800f 	.word	0xffff800f
 8002f50:	10008200 	.word	0x10008200
 8002f54:	40020880 	.word	0x40020880
 8002f58:	1000823f 	.word	0x1000823f
 8002f5c:	40020940 	.word	0x40020940

08002f60 <HAL_DMA_Start_IT>:
 8002f60:	b5f0      	push	{r4, r5, r6, r7, lr}
 8002f62:	46c6      	mov	lr, r8
 8002f64:	2424      	movs	r4, #36	@ 0x24
 8002f66:	b500      	push	{lr}
 8002f68:	5d05      	ldrb	r5, [r0, r4]
 8002f6a:	2d01      	cmp	r5, #1
 8002f6c:	d04f      	beq.n	800300e <HAL_DMA_Start_IT+0xae>
 8002f6e:	2501      	movs	r5, #1
 8002f70:	2625      	movs	r6, #37	@ 0x25
 8002f72:	5505      	strb	r5, [r0, r4]
 8002f74:	5d85      	ldrb	r5, [r0, r6]
 8002f76:	b2ef      	uxtb	r7, r5
 8002f78:	2d01      	cmp	r5, #1
 8002f7a:	d007      	beq.n	8002f8c <HAL_DMA_Start_IT+0x2c>
 8002f7c:	2380      	movs	r3, #128	@ 0x80
 8002f7e:	63c3      	str	r3, [r0, #60]	@ 0x3c
 8002f80:	2300      	movs	r3, #0
 8002f82:	5503      	strb	r3, [r0, r4]
 8002f84:	2001      	movs	r0, #1
 8002f86:	bc80      	pop	{r7}
 8002f88:	46b8      	mov	r8, r7
 8002f8a:	bdf0      	pop	{r4, r5, r6, r7, pc}
 8002f8c:	3c22      	subs	r4, #34	@ 0x22
 8002f8e:	5584      	strb	r4, [r0, r6]
 8002f90:	2400      	movs	r4, #0
 8002f92:	63c4      	str	r4, [r0, #60]	@ 0x3c
 8002f94:	6804      	ldr	r4, [r0, #0]
 8002f96:	6cc6      	ldr	r6, [r0, #76]	@ 0x4c
 8002f98:	6825      	ldr	r5, [r4, #0]
 8002f9a:	43bd      	bics	r5, r7
 8002f9c:	6025      	str	r5, [r4, #0]
 8002f9e:	6c85      	ldr	r5, [r0, #72]	@ 0x48
 8002fa0:	606e      	str	r6, [r5, #4]
 8002fa2:	6d06      	ldr	r6, [r0, #80]	@ 0x50
 8002fa4:	2e00      	cmp	r6, #0
 8002fa6:	d002      	beq.n	8002fae <HAL_DMA_Start_IT+0x4e>
 8002fa8:	6d45      	ldr	r5, [r0, #84]	@ 0x54
 8002faa:	6d87      	ldr	r7, [r0, #88]	@ 0x58
 8002fac:	606f      	str	r7, [r5, #4]
 8002fae:	4d1f      	ldr	r5, [pc, #124]	@ (800302c <HAL_DMA_Start_IT+0xcc>)
 8002fb0:	6c07      	ldr	r7, [r0, #64]	@ 0x40
 8002fb2:	46ac      	mov	ip, r5
 8002fb4:	686d      	ldr	r5, [r5, #4]
 8002fb6:	46a8      	mov	r8, r5
 8002fb8:	251c      	movs	r5, #28
 8002fba:	402f      	ands	r7, r5
 8002fbc:	3d1b      	subs	r5, #27
 8002fbe:	40bd      	lsls	r5, r7
 8002fc0:	4647      	mov	r7, r8
 8002fc2:	433d      	orrs	r5, r7
 8002fc4:	4667      	mov	r7, ip
 8002fc6:	607d      	str	r5, [r7, #4]
 8002fc8:	6063      	str	r3, [r4, #4]
 8002fca:	6883      	ldr	r3, [r0, #8]
 8002fcc:	2b10      	cmp	r3, #16
 8002fce:	d020      	beq.n	8003012 <HAL_DMA_Start_IT+0xb2>
 8002fd0:	60a1      	str	r1, [r4, #8]
 8002fd2:	60e2      	str	r2, [r4, #12]
 8002fd4:	6b03      	ldr	r3, [r0, #48]	@ 0x30
 8002fd6:	2b00      	cmp	r3, #0
 8002fd8:	d01e      	beq.n	8003018 <HAL_DMA_Start_IT+0xb8>
 8002fda:	220e      	movs	r2, #14
 8002fdc:	6823      	ldr	r3, [r4, #0]
 8002fde:	4313      	orrs	r3, r2
 8002fe0:	6023      	str	r3, [r4, #0]
 8002fe2:	6c42      	ldr	r2, [r0, #68]	@ 0x44
 8002fe4:	6813      	ldr	r3, [r2, #0]
 8002fe6:	03db      	lsls	r3, r3, #15
 8002fe8:	d504      	bpl.n	8002ff4 <HAL_DMA_Start_IT+0x94>
 8002fea:	2380      	movs	r3, #128	@ 0x80
 8002fec:	6811      	ldr	r1, [r2, #0]
 8002fee:	005b      	lsls	r3, r3, #1
 8002ff0:	430b      	orrs	r3, r1
 8002ff2:	6013      	str	r3, [r2, #0]
 8002ff4:	2e00      	cmp	r6, #0
 8002ff6:	d004      	beq.n	8003002 <HAL_DMA_Start_IT+0xa2>
 8002ff8:	2380      	movs	r3, #128	@ 0x80
 8002ffa:	6832      	ldr	r2, [r6, #0]
 8002ffc:	005b      	lsls	r3, r3, #1
 8002ffe:	4313      	orrs	r3, r2
 8003000:	6033      	str	r3, [r6, #0]
 8003002:	2201      	movs	r2, #1
 8003004:	6823      	ldr	r3, [r4, #0]
 8003006:	2000      	movs	r0, #0
 8003008:	4313      	orrs	r3, r2
 800300a:	6023      	str	r3, [r4, #0]
 800300c:	e7bb      	b.n	8002f86 <HAL_DMA_Start_IT+0x26>
 800300e:	2002      	movs	r0, #2
 8003010:	e7b9      	b.n	8002f86 <HAL_DMA_Start_IT+0x26>
 8003012:	60a2      	str	r2, [r4, #8]
 8003014:	60e1      	str	r1, [r4, #12]
 8003016:	e7dd      	b.n	8002fd4 <HAL_DMA_Start_IT+0x74>
 8003018:	2204      	movs	r2, #4
 800301a:	6823      	ldr	r3, [r4, #0]
 800301c:	4393      	bics	r3, r2
 800301e:	6023      	str	r3, [r4, #0]
 8003020:	6823      	ldr	r3, [r4, #0]
 8003022:	3206      	adds	r2, #6
 8003024:	4313      	orrs	r3, r2
 8003026:	6023      	str	r3, [r4, #0]
 8003028:	e7db      	b.n	8002fe2 <HAL_DMA_Start_IT+0x82>
 800302a:	46c0      	nop			@ (mov r8, r8)
 800302c:	40020000 	.word	0x40020000

08003030 <HAL_DMA_Abort>:
 8003030:	b570      	push	{r4, r5, r6, lr}
 8003032:	2800      	cmp	r0, #0
 8003034:	d032      	beq.n	800309c <HAL_DMA_Abort+0x6c>
 8003036:	2325      	movs	r3, #37	@ 0x25
 8003038:	5cc3      	ldrb	r3, [r0, r3]
 800303a:	2b02      	cmp	r3, #2
 800303c:	d129      	bne.n	8003092 <HAL_DMA_Abort+0x62>
 800303e:	210e      	movs	r1, #14
 8003040:	6802      	ldr	r2, [r0, #0]
 8003042:	4c17      	ldr	r4, [pc, #92]	@ (80030a0 <HAL_DMA_Abort+0x70>)
 8003044:	6813      	ldr	r3, [r2, #0]
 8003046:	261c      	movs	r6, #28
 8003048:	438b      	bics	r3, r1
 800304a:	6c41      	ldr	r1, [r0, #68]	@ 0x44
 800304c:	6013      	str	r3, [r2, #0]
 800304e:	680b      	ldr	r3, [r1, #0]
 8003050:	4023      	ands	r3, r4
 8003052:	600b      	str	r3, [r1, #0]
 8003054:	2301      	movs	r3, #1
 8003056:	6811      	ldr	r1, [r2, #0]
 8003058:	4399      	bics	r1, r3
 800305a:	6011      	str	r1, [r2, #0]
 800305c:	6c02      	ldr	r2, [r0, #64]	@ 0x40
 800305e:	4911      	ldr	r1, [pc, #68]	@ (80030a4 <HAL_DMA_Abort+0x74>)
 8003060:	4032      	ands	r2, r6
 8003062:	4093      	lsls	r3, r2
 8003064:	684d      	ldr	r5, [r1, #4]
 8003066:	432b      	orrs	r3, r5
 8003068:	604b      	str	r3, [r1, #4]
 800306a:	6cc2      	ldr	r2, [r0, #76]	@ 0x4c
 800306c:	6c83      	ldr	r3, [r0, #72]	@ 0x48
 800306e:	605a      	str	r2, [r3, #4]
 8003070:	6d03      	ldr	r3, [r0, #80]	@ 0x50
 8003072:	2b00      	cmp	r3, #0
 8003074:	d005      	beq.n	8003082 <HAL_DMA_Abort+0x52>
 8003076:	681a      	ldr	r2, [r3, #0]
 8003078:	4022      	ands	r2, r4
 800307a:	601a      	str	r2, [r3, #0]
 800307c:	6d43      	ldr	r3, [r0, #84]	@ 0x54
 800307e:	6d82      	ldr	r2, [r0, #88]	@ 0x58
 8003080:	605a      	str	r2, [r3, #4]
 8003082:	2325      	movs	r3, #37	@ 0x25
 8003084:	2201      	movs	r2, #1
 8003086:	54c2      	strb	r2, [r0, r3]
 8003088:	2200      	movs	r2, #0
 800308a:	3b01      	subs	r3, #1
 800308c:	54c2      	strb	r2, [r0, r3]
 800308e:	2000      	movs	r0, #0
 8003090:	bd70      	pop	{r4, r5, r6, pc}
 8003092:	2304      	movs	r3, #4
 8003094:	2200      	movs	r2, #0
 8003096:	63c3      	str	r3, [r0, #60]	@ 0x3c
 8003098:	3320      	adds	r3, #32
 800309a:	54c2      	strb	r2, [r0, r3]
 800309c:	2001      	movs	r0, #1
 800309e:	e7f7      	b.n	8003090 <HAL_DMA_Abort+0x60>
 80030a0:	fffffeff 	.word	0xfffffeff
 80030a4:	40020000 	.word	0x40020000

080030a8 <HAL_DMA_Abort_IT>:
 80030a8:	2325      	movs	r3, #37	@ 0x25
 80030aa:	b570      	push	{r4, r5, r6, lr}
 80030ac:	5cc3      	ldrb	r3, [r0, r3]
 80030ae:	2b02      	cmp	r3, #2
 80030b0:	d003      	beq.n	80030ba <HAL_DMA_Abort_IT+0x12>
 80030b2:	2304      	movs	r3, #4
 80030b4:	63c3      	str	r3, [r0, #60]	@ 0x3c
 80030b6:	2001      	movs	r0, #1
 80030b8:	bd70      	pop	{r4, r5, r6, pc}
 80030ba:	210e      	movs	r1, #14
 80030bc:	6802      	ldr	r2, [r0, #0]
 80030be:	261c      	movs	r6, #28
 80030c0:	6813      	ldr	r3, [r2, #0]
 80030c2:	4c15      	ldr	r4, [pc, #84]	@ (8003118 <HAL_DMA_Abort_IT+0x70>)
 80030c4:	438b      	bics	r3, r1
 80030c6:	6013      	str	r3, [r2, #0]
 80030c8:	2301      	movs	r3, #1
 80030ca:	6811      	ldr	r1, [r2, #0]
 80030cc:	4399      	bics	r1, r3
 80030ce:	6011      	str	r1, [r2, #0]
 80030d0:	6c41      	ldr	r1, [r0, #68]	@ 0x44
 80030d2:	680a      	ldr	r2, [r1, #0]
 80030d4:	4022      	ands	r2, r4
 80030d6:	600a      	str	r2, [r1, #0]
 80030d8:	6c02      	ldr	r2, [r0, #64]	@ 0x40
 80030da:	4910      	ldr	r1, [pc, #64]	@ (800311c <HAL_DMA_Abort_IT+0x74>)
 80030dc:	4032      	ands	r2, r6
 80030de:	4093      	lsls	r3, r2
 80030e0:	684d      	ldr	r5, [r1, #4]
 80030e2:	432b      	orrs	r3, r5
 80030e4:	604b      	str	r3, [r1, #4]
 80030e6:	6cc2      	ldr	r2, [r0, #76]	@ 0x4c
 80030e8:	6c83      	ldr	r3, [r0, #72]	@ 0x48
 80030ea:	605a      	str	r2, [r3, #4]
 80030ec:	6d03      	ldr	r3, [r0, #80]	@ 0x50
 80030ee:	2b00      	cmp	r3, #0
 80030f0:	d005      	beq.n	80030fe <HAL_DMA_Abort_IT+0x56>
 80030f2:	681a      	ldr	r2, [r3, #0]
 80030f4:	4022      	ands	r2, r4
 80030f6:	601a      	str	r2, [r3, #0]
 80030f8:	6d43      	ldr	r3, [r0, #84]	@ 0x54
 80030fa:	6d82      	ldr	r2, [r0, #88]	@ 0x58
 80030fc:	605a      	str	r2, [r3, #4]
 80030fe:	2325      	movs	r3, #37	@ 0x25
 8003100:	2201      	movs	r2, #1
 8003102:	54c2      	strb	r2, [r0, r3]
 8003104:	2200      	movs	r2, #0
 8003106:	3b01      	subs	r3, #1
 8003108:	54c2      	strb	r2, [r0, r3]
 800310a:	6b83      	ldr	r3, [r0, #56]	@ 0x38
 800310c:	2b00      	cmp	r3, #0
 800310e:	d000      	beq.n	8003112 <HAL_DMA_Abort_IT+0x6a>
 8003110:	4798      	blx	r3
 8003112:	2000      	movs	r0, #0
 8003114:	e7d0      	b.n	80030b8 <HAL_DMA_Abort_IT+0x10>
 8003116:	46c0      	nop			@ (mov r8, r8)
 8003118:	fffffeff 	.word	0xfffffeff
 800311c:	40020000 	.word	0x40020000

08003120 <HAL_DMA_IRQHandler>:
 8003120:	b570      	push	{r4, r5, r6, lr}
 8003122:	211c      	movs	r1, #28
 8003124:	2404      	movs	r4, #4
 8003126:	4b2b      	ldr	r3, [pc, #172]	@ (80031d4 <HAL_DMA_IRQHandler+0xb4>)
 8003128:	6806      	ldr	r6, [r0, #0]
 800312a:	681a      	ldr	r2, [r3, #0]
 800312c:	6c03      	ldr	r3, [r0, #64]	@ 0x40
 800312e:	6835      	ldr	r5, [r6, #0]
 8003130:	400b      	ands	r3, r1
 8003132:	0021      	movs	r1, r4
 8003134:	4099      	lsls	r1, r3
 8003136:	420a      	tst	r2, r1
 8003138:	d010      	beq.n	800315c <HAL_DMA_IRQHandler+0x3c>
 800313a:	422c      	tst	r4, r5
 800313c:	d00e      	beq.n	800315c <HAL_DMA_IRQHandler+0x3c>
 800313e:	6833      	ldr	r3, [r6, #0]
 8003140:	069b      	lsls	r3, r3, #26
 8003142:	d402      	bmi.n	800314a <HAL_DMA_IRQHandler+0x2a>
 8003144:	6833      	ldr	r3, [r6, #0]
 8003146:	43a3      	bics	r3, r4
 8003148:	6033      	str	r3, [r6, #0]
 800314a:	4b22      	ldr	r3, [pc, #136]	@ (80031d4 <HAL_DMA_IRQHandler+0xb4>)
 800314c:	685a      	ldr	r2, [r3, #4]
 800314e:	4311      	orrs	r1, r2
 8003150:	6059      	str	r1, [r3, #4]
 8003152:	6b03      	ldr	r3, [r0, #48]	@ 0x30
 8003154:	2b00      	cmp	r3, #0
 8003156:	d000      	beq.n	800315a <HAL_DMA_IRQHandler+0x3a>
 8003158:	4798      	blx	r3
 800315a:	bd70      	pop	{r4, r5, r6, pc}
 800315c:	2402      	movs	r4, #2
 800315e:	0021      	movs	r1, r4
 8003160:	4099      	lsls	r1, r3
 8003162:	420a      	tst	r2, r1
 8003164:	d017      	beq.n	8003196 <HAL_DMA_IRQHandler+0x76>
 8003166:	422c      	tst	r4, r5
 8003168:	d015      	beq.n	8003196 <HAL_DMA_IRQHandler+0x76>
 800316a:	6833      	ldr	r3, [r6, #0]
 800316c:	069b      	lsls	r3, r3, #26
 800316e:	d406      	bmi.n	800317e <HAL_DMA_IRQHandler+0x5e>
 8003170:	220a      	movs	r2, #10
 8003172:	6833      	ldr	r3, [r6, #0]
 8003174:	4393      	bics	r3, r2
 8003176:	6033      	str	r3, [r6, #0]
 8003178:	2325      	movs	r3, #37	@ 0x25
 800317a:	3a09      	subs	r2, #9
 800317c:	54c2      	strb	r2, [r0, r3]
 800317e:	4b15      	ldr	r3, [pc, #84]	@ (80031d4 <HAL_DMA_IRQHandler+0xb4>)
 8003180:	685a      	ldr	r2, [r3, #4]
 8003182:	4311      	orrs	r1, r2
 8003184:	6059      	str	r1, [r3, #4]
 8003186:	2200      	movs	r2, #0
 8003188:	2324      	movs	r3, #36	@ 0x24
 800318a:	54c2      	strb	r2, [r0, r3]
 800318c:	6ac3      	ldr	r3, [r0, #44]	@ 0x2c
 800318e:	2b00      	cmp	r3, #0
 8003190:	d0e3      	beq.n	800315a <HAL_DMA_IRQHandler+0x3a>
 8003192:	4798      	blx	r3
 8003194:	e7e1      	b.n	800315a <HAL_DMA_IRQHandler+0x3a>
 8003196:	2108      	movs	r1, #8
 8003198:	000c      	movs	r4, r1
 800319a:	409c      	lsls	r4, r3
 800319c:	4222      	tst	r2, r4
 800319e:	d0dc      	beq.n	800315a <HAL_DMA_IRQHandler+0x3a>
 80031a0:	4229      	tst	r1, r5
 80031a2:	d0da      	beq.n	800315a <HAL_DMA_IRQHandler+0x3a>
 80031a4:	6832      	ldr	r2, [r6, #0]
 80031a6:	3106      	adds	r1, #6
 80031a8:	438a      	bics	r2, r1
 80031aa:	6032      	str	r2, [r6, #0]
 80031ac:	2201      	movs	r2, #1
 80031ae:	0015      	movs	r5, r2
 80031b0:	409d      	lsls	r5, r3
 80031b2:	002b      	movs	r3, r5
 80031b4:	4907      	ldr	r1, [pc, #28]	@ (80031d4 <HAL_DMA_IRQHandler+0xb4>)
 80031b6:	684c      	ldr	r4, [r1, #4]
 80031b8:	4323      	orrs	r3, r4
 80031ba:	604b      	str	r3, [r1, #4]
 80031bc:	2325      	movs	r3, #37	@ 0x25
 80031be:	63c2      	str	r2, [r0, #60]	@ 0x3c
 80031c0:	54c2      	strb	r2, [r0, r3]
 80031c2:	2200      	movs	r2, #0
 80031c4:	3b01      	subs	r3, #1
 80031c6:	54c2      	strb	r2, [r0, r3]
 80031c8:	6b43      	ldr	r3, [r0, #52]	@ 0x34
 80031ca:	2b00      	cmp	r3, #0
 80031cc:	d0c5      	beq.n	800315a <HAL_DMA_IRQHandler+0x3a>
 80031ce:	4798      	blx	r3
 80031d0:	e7c3      	b.n	800315a <HAL_DMA_IRQHandler+0x3a>
 80031d2:	46c0      	nop			@ (mov r8, r8)
 80031d4:	40020000 	.word	0x40020000

080031d8 <HAL_GPIO_Init>:
 80031d8:	b5f0      	push	{r4, r5, r6, r7, lr}
 80031da:	46de      	mov	lr, fp
 80031dc:	4657      	mov	r7, sl
 80031de:	464e      	mov	r6, r9
 80031e0:	4645      	mov	r5, r8
 80031e2:	b5e0      	push	{r5, r6, r7, lr}
 80031e4:	680c      	ldr	r4, [r1, #0]
 80031e6:	468b      	mov	fp, r1
 80031e8:	2300      	movs	r3, #0
 80031ea:	b083      	sub	sp, #12
 80031ec:	2c00      	cmp	r4, #0
 80031ee:	d068      	beq.n	80032c2 <HAL_GPIO_Init+0xea>
 80031f0:	2201      	movs	r2, #1
 80031f2:	409a      	lsls	r2, r3
 80031f4:	4694      	mov	ip, r2
 80031f6:	4022      	ands	r2, r4
 80031f8:	4692      	mov	sl, r2
 80031fa:	4662      	mov	r2, ip
 80031fc:	4214      	tst	r4, r2
 80031fe:	d05c      	beq.n	80032ba <HAL_GPIO_Init+0xe2>
 8003200:	2103      	movs	r1, #3
 8003202:	465a      	mov	r2, fp
 8003204:	005f      	lsls	r7, r3, #1
 8003206:	40b9      	lsls	r1, r7
 8003208:	6855      	ldr	r5, [r2, #4]
 800320a:	2203      	movs	r2, #3
 800320c:	43c9      	mvns	r1, r1
 800320e:	402a      	ands	r2, r5
 8003210:	1e56      	subs	r6, r2, #1
 8003212:	9100      	str	r1, [sp, #0]
 8003214:	2e01      	cmp	r6, #1
 8003216:	d95b      	bls.n	80032d0 <HAL_GPIO_Init+0xf8>
 8003218:	2a03      	cmp	r2, #3
 800321a:	d000      	beq.n	800321e <HAL_GPIO_Init+0x46>
 800321c:	e0ad      	b.n	800337a <HAL_GPIO_Init+0x1a2>
 800321e:	40ba      	lsls	r2, r7
 8003220:	6806      	ldr	r6, [r0, #0]
 8003222:	9900      	ldr	r1, [sp, #0]
 8003224:	4031      	ands	r1, r6
 8003226:	430a      	orrs	r2, r1
 8003228:	6002      	str	r2, [r0, #0]
 800322a:	22c0      	movs	r2, #192	@ 0xc0
 800322c:	0292      	lsls	r2, r2, #10
 800322e:	4215      	tst	r5, r2
 8003230:	d043      	beq.n	80032ba <HAL_GPIO_Init+0xe2>
 8003232:	2703      	movs	r7, #3
 8003234:	260f      	movs	r6, #15
 8003236:	495d      	ldr	r1, [pc, #372]	@ (80033ac <HAL_GPIO_Init+0x1d4>)
 8003238:	401f      	ands	r7, r3
 800323a:	468c      	mov	ip, r1
 800323c:	00ff      	lsls	r7, r7, #3
 800323e:	40be      	lsls	r6, r7
 8003240:	089a      	lsrs	r2, r3, #2
 8003242:	0092      	lsls	r2, r2, #2
 8003244:	4462      	add	r2, ip
 8003246:	6e11      	ldr	r1, [r2, #96]	@ 0x60
 8003248:	43b1      	bics	r1, r6
 800324a:	26a0      	movs	r6, #160	@ 0xa0
 800324c:	05f6      	lsls	r6, r6, #23
 800324e:	42b0      	cmp	r0, r6
 8003250:	d00e      	beq.n	8003270 <HAL_GPIO_Init+0x98>
 8003252:	4e57      	ldr	r6, [pc, #348]	@ (80033b0 <HAL_GPIO_Init+0x1d8>)
 8003254:	42b0      	cmp	r0, r6
 8003256:	d100      	bne.n	800325a <HAL_GPIO_Init+0x82>
 8003258:	e0a0      	b.n	800339c <HAL_GPIO_Init+0x1c4>
 800325a:	4e56      	ldr	r6, [pc, #344]	@ (80033b4 <HAL_GPIO_Init+0x1dc>)
 800325c:	42b0      	cmp	r0, r6
 800325e:	d100      	bne.n	8003262 <HAL_GPIO_Init+0x8a>
 8003260:	e0a0      	b.n	80033a4 <HAL_GPIO_Init+0x1cc>
 8003262:	4e55      	ldr	r6, [pc, #340]	@ (80033b8 <HAL_GPIO_Init+0x1e0>)
 8003264:	42b0      	cmp	r0, r6
 8003266:	d100      	bne.n	800326a <HAL_GPIO_Init+0x92>
 8003268:	e094      	b.n	8003394 <HAL_GPIO_Init+0x1bc>
 800326a:	2605      	movs	r6, #5
 800326c:	40be      	lsls	r6, r7
 800326e:	4331      	orrs	r1, r6
 8003270:	2680      	movs	r6, #128	@ 0x80
 8003272:	6611      	str	r1, [r2, #96]	@ 0x60
 8003274:	4651      	mov	r1, sl
 8003276:	4a4d      	ldr	r2, [pc, #308]	@ (80033ac <HAL_GPIO_Init+0x1d4>)
 8003278:	0376      	lsls	r6, r6, #13
 800327a:	43c9      	mvns	r1, r1
 800327c:	6812      	ldr	r2, [r2, #0]
 800327e:	4235      	tst	r5, r6
 8003280:	d000      	beq.n	8003284 <HAL_GPIO_Init+0xac>
 8003282:	e077      	b.n	8003374 <HAL_GPIO_Init+0x19c>
 8003284:	400a      	ands	r2, r1
 8003286:	4e49      	ldr	r6, [pc, #292]	@ (80033ac <HAL_GPIO_Init+0x1d4>)
 8003288:	6032      	str	r2, [r6, #0]
 800328a:	6872      	ldr	r2, [r6, #4]
 800328c:	2680      	movs	r6, #128	@ 0x80
 800328e:	03b6      	lsls	r6, r6, #14
 8003290:	4235      	tst	r5, r6
 8003292:	d16c      	bne.n	800336e <HAL_GPIO_Init+0x196>
 8003294:	400a      	ands	r2, r1
 8003296:	4e45      	ldr	r6, [pc, #276]	@ (80033ac <HAL_GPIO_Init+0x1d4>)
 8003298:	6072      	str	r2, [r6, #4]
 800329a:	2284      	movs	r2, #132	@ 0x84
 800329c:	58b2      	ldr	r2, [r6, r2]
 800329e:	03af      	lsls	r7, r5, #14
 80032a0:	d462      	bmi.n	8003368 <HAL_GPIO_Init+0x190>
 80032a2:	400a      	ands	r2, r1
 80032a4:	2784      	movs	r7, #132	@ 0x84
 80032a6:	4e41      	ldr	r6, [pc, #260]	@ (80033ac <HAL_GPIO_Init+0x1d4>)
 80032a8:	51f2      	str	r2, [r6, r7]
 80032aa:	2280      	movs	r2, #128	@ 0x80
 80032ac:	58b2      	ldr	r2, [r6, r2]
 80032ae:	03ed      	lsls	r5, r5, #15
 80032b0:	d456      	bmi.n	8003360 <HAL_GPIO_Init+0x188>
 80032b2:	400a      	ands	r2, r1
 80032b4:	2180      	movs	r1, #128	@ 0x80
 80032b6:	4d3d      	ldr	r5, [pc, #244]	@ (80033ac <HAL_GPIO_Init+0x1d4>)
 80032b8:	506a      	str	r2, [r5, r1]
 80032ba:	0022      	movs	r2, r4
 80032bc:	3301      	adds	r3, #1
 80032be:	40da      	lsrs	r2, r3
 80032c0:	d196      	bne.n	80031f0 <HAL_GPIO_Init+0x18>
 80032c2:	b003      	add	sp, #12
 80032c4:	bcf0      	pop	{r4, r5, r6, r7}
 80032c6:	46bb      	mov	fp, r7
 80032c8:	46b2      	mov	sl, r6
 80032ca:	46a9      	mov	r9, r5
 80032cc:	46a0      	mov	r8, r4
 80032ce:	bdf0      	pop	{r4, r5, r6, r7, pc}
 80032d0:	6881      	ldr	r1, [r0, #8]
 80032d2:	000e      	movs	r6, r1
 80032d4:	9900      	ldr	r1, [sp, #0]
 80032d6:	400e      	ands	r6, r1
 80032d8:	4659      	mov	r1, fp
 80032da:	68c9      	ldr	r1, [r1, #12]
 80032dc:	46b1      	mov	r9, r6
 80032de:	000e      	movs	r6, r1
 80032e0:	40be      	lsls	r6, r7
 80032e2:	46b0      	mov	r8, r6
 80032e4:	464e      	mov	r6, r9
 80032e6:	4641      	mov	r1, r8
 80032e8:	430e      	orrs	r6, r1
 80032ea:	6086      	str	r6, [r0, #8]
 80032ec:	6841      	ldr	r1, [r0, #4]
 80032ee:	000e      	movs	r6, r1
 80032f0:	4661      	mov	r1, ip
 80032f2:	438e      	bics	r6, r1
 80032f4:	0929      	lsrs	r1, r5, #4
 80032f6:	46b0      	mov	r8, r6
 80032f8:	000e      	movs	r6, r1
 80032fa:	2101      	movs	r1, #1
 80032fc:	400e      	ands	r6, r1
 80032fe:	409e      	lsls	r6, r3
 8003300:	46b4      	mov	ip, r6
 8003302:	4646      	mov	r6, r8
 8003304:	4661      	mov	r1, ip
 8003306:	430e      	orrs	r6, r1
 8003308:	6046      	str	r6, [r0, #4]
 800330a:	68c1      	ldr	r1, [r0, #12]
 800330c:	000e      	movs	r6, r1
 800330e:	9900      	ldr	r1, [sp, #0]
 8003310:	400e      	ands	r6, r1
 8003312:	4659      	mov	r1, fp
 8003314:	6889      	ldr	r1, [r1, #8]
 8003316:	46b0      	mov	r8, r6
 8003318:	000e      	movs	r6, r1
 800331a:	40be      	lsls	r6, r7
 800331c:	46b4      	mov	ip, r6
 800331e:	4646      	mov	r6, r8
 8003320:	4661      	mov	r1, ip
 8003322:	430e      	orrs	r6, r1
 8003324:	60c6      	str	r6, [r0, #12]
 8003326:	2a02      	cmp	r2, #2
 8003328:	d000      	beq.n	800332c <HAL_GPIO_Init+0x154>
 800332a:	e778      	b.n	800321e <HAL_GPIO_Init+0x46>
 800332c:	08d9      	lsrs	r1, r3, #3
 800332e:	0089      	lsls	r1, r1, #2
 8003330:	468c      	mov	ip, r1
 8003332:	4484      	add	ip, r0
 8003334:	4661      	mov	r1, ip
 8003336:	6a0e      	ldr	r6, [r1, #32]
 8003338:	2107      	movs	r1, #7
 800333a:	4019      	ands	r1, r3
 800333c:	0089      	lsls	r1, r1, #2
 800333e:	4688      	mov	r8, r1
 8003340:	9601      	str	r6, [sp, #4]
 8003342:	210f      	movs	r1, #15
 8003344:	4646      	mov	r6, r8
 8003346:	40b1      	lsls	r1, r6
 8003348:	9e01      	ldr	r6, [sp, #4]
 800334a:	438e      	bics	r6, r1
 800334c:	4659      	mov	r1, fp
 800334e:	9601      	str	r6, [sp, #4]
 8003350:	4646      	mov	r6, r8
 8003352:	6909      	ldr	r1, [r1, #16]
 8003354:	40b1      	lsls	r1, r6
 8003356:	9e01      	ldr	r6, [sp, #4]
 8003358:	430e      	orrs	r6, r1
 800335a:	4661      	mov	r1, ip
 800335c:	620e      	str	r6, [r1, #32]
 800335e:	e75e      	b.n	800321e <HAL_GPIO_Init+0x46>
 8003360:	4651      	mov	r1, sl
 8003362:	4311      	orrs	r1, r2
 8003364:	000a      	movs	r2, r1
 8003366:	e7a5      	b.n	80032b4 <HAL_GPIO_Init+0xdc>
 8003368:	4656      	mov	r6, sl
 800336a:	4332      	orrs	r2, r6
 800336c:	e79a      	b.n	80032a4 <HAL_GPIO_Init+0xcc>
 800336e:	4656      	mov	r6, sl
 8003370:	4332      	orrs	r2, r6
 8003372:	e790      	b.n	8003296 <HAL_GPIO_Init+0xbe>
 8003374:	4656      	mov	r6, sl
 8003376:	4332      	orrs	r2, r6
 8003378:	e785      	b.n	8003286 <HAL_GPIO_Init+0xae>
 800337a:	000e      	movs	r6, r1
 800337c:	68c1      	ldr	r1, [r0, #12]
 800337e:	4031      	ands	r1, r6
 8003380:	4688      	mov	r8, r1
 8003382:	4659      	mov	r1, fp
 8003384:	6889      	ldr	r1, [r1, #8]
 8003386:	40b9      	lsls	r1, r7
 8003388:	468c      	mov	ip, r1
 800338a:	4641      	mov	r1, r8
 800338c:	4666      	mov	r6, ip
 800338e:	4331      	orrs	r1, r6
 8003390:	60c1      	str	r1, [r0, #12]
 8003392:	e744      	b.n	800321e <HAL_GPIO_Init+0x46>
 8003394:	2603      	movs	r6, #3
 8003396:	40be      	lsls	r6, r7
 8003398:	4331      	orrs	r1, r6
 800339a:	e769      	b.n	8003270 <HAL_GPIO_Init+0x98>
 800339c:	2601      	movs	r6, #1
 800339e:	40be      	lsls	r6, r7
 80033a0:	4331      	orrs	r1, r6
 80033a2:	e765      	b.n	8003270 <HAL_GPIO_Init+0x98>
 80033a4:	2602      	movs	r6, #2
 80033a6:	40be      	lsls	r6, r7
 80033a8:	4331      	orrs	r1, r6
 80033aa:	e761      	b.n	8003270 <HAL_GPIO_Init+0x98>
 80033ac:	40021800 	.word	0x40021800
 80033b0:	50000400 	.word	0x50000400
 80033b4:	50000800 	.word	0x50000800
 80033b8:	50000c00 	.word	0x50000c00

080033bc <HAL_GPIO_ReadPin>:
 80033bc:	6900      	ldr	r0, [r0, #16]
 80033be:	4008      	ands	r0, r1
 80033c0:	1e43      	subs	r3, r0, #1
 80033c2:	4198      	sbcs	r0, r3
 80033c4:	b2c0      	uxtb	r0, r0
 80033c6:	4770      	bx	lr

080033c8 <HAL_GPIO_WritePin>:
 80033c8:	2a00      	cmp	r2, #0
 80033ca:	d001      	beq.n	80033d0 <HAL_GPIO_WritePin+0x8>
 80033cc:	6181      	str	r1, [r0, #24]
 80033ce:	4770      	bx	lr
 80033d0:	6281      	str	r1, [r0, #40]	@ 0x28
 80033d2:	e7fc      	b.n	80033ce <HAL_GPIO_WritePin+0x6>

080033d4 <HAL_GPIO_EXTI_IRQHandler>:
 80033d4:	4b0b      	ldr	r3, [pc, #44]	@ (8003404 <HAL_GPIO_EXTI_IRQHandler+0x30>)
 80033d6:	b510      	push	{r4, lr}
 80033d8:	68da      	ldr	r2, [r3, #12]
 80033da:	0004      	movs	r4, r0
 80033dc:	4210      	tst	r0, r2
 80033de:	d104      	bne.n	80033ea <HAL_GPIO_EXTI_IRQHandler+0x16>
 80033e0:	4b08      	ldr	r3, [pc, #32]	@ (8003404 <HAL_GPIO_EXTI_IRQHandler+0x30>)
 80033e2:	691a      	ldr	r2, [r3, #16]
 80033e4:	4222      	tst	r2, r4
 80033e6:	d107      	bne.n	80033f8 <HAL_GPIO_EXTI_IRQHandler+0x24>
 80033e8:	bd10      	pop	{r4, pc}
 80033ea:	60d8      	str	r0, [r3, #12]
 80033ec:	f7fd fec6 	bl	800117c <HAL_GPIO_EXTI_Rising_Callback>
 80033f0:	4b04      	ldr	r3, [pc, #16]	@ (8003404 <HAL_GPIO_EXTI_IRQHandler+0x30>)
 80033f2:	691a      	ldr	r2, [r3, #16]
 80033f4:	4222      	tst	r2, r4
 80033f6:	d0f7      	beq.n	80033e8 <HAL_GPIO_EXTI_IRQHandler+0x14>
 80033f8:	0020      	movs	r0, r4
 80033fa:	611c      	str	r4, [r3, #16]
 80033fc:	f7fd fea2 	bl	8001144 <HAL_GPIO_EXTI_Falling_Callback>
 8003400:	e7f2      	b.n	80033e8 <HAL_GPIO_EXTI_IRQHandler+0x14>
 8003402:	46c0      	nop			@ (mov r8, r8)
 8003404:	40021800 	.word	0x40021800

08003408 <HAL_LPTIM_DirectionDownCallback>:
 8003408:	4770      	bx	lr
 800340a:	46c0      	nop			@ (mov r8, r8)

0800340c <HAL_LPTIM_CompareMatchCallback>:
 800340c:	4770      	bx	lr
 800340e:	46c0      	nop			@ (mov r8, r8)

08003410 <HAL_LPTIM_AutoReloadMatchCallback>:
 8003410:	4770      	bx	lr
 8003412:	46c0      	nop			@ (mov r8, r8)

08003414 <HAL_LPTIM_TriggerCallback>:
 8003414:	4770      	bx	lr
 8003416:	46c0      	nop			@ (mov r8, r8)

08003418 <HAL_LPTIM_CompareWriteCallback>:
 8003418:	4770      	bx	lr
 800341a:	46c0      	nop			@ (mov r8, r8)

0800341c <HAL_LPTIM_AutoReloadWriteCallback>:
 800341c:	4770      	bx	lr
 800341e:	46c0      	nop			@ (mov r8, r8)

08003420 <HAL_LPTIM_DirectionUpCallback>:
 8003420:	4770      	bx	lr
 8003422:	46c0      	nop			@ (mov r8, r8)

08003424 <HAL_LPTIM_Init>:
 8003424:	b5f8      	push	{r3, r4, r5, r6, r7, lr}
 8003426:	1e04      	subs	r4, r0, #0
 8003428:	d062      	beq.n	80034f0 <HAL_LPTIM_Init+0xcc>
 800342a:	2336      	movs	r3, #54	@ 0x36
 800342c:	5cc3      	ldrb	r3, [r0, r3]
 800342e:	b2da      	uxtb	r2, r3
 8003430:	2b00      	cmp	r3, #0
 8003432:	d114      	bne.n	800345e <HAL_LPTIM_Init+0x3a>
 8003434:	3335      	adds	r3, #53	@ 0x35
 8003436:	54c2      	strb	r2, [r0, r3]
 8003438:	4b30      	ldr	r3, [pc, #192]	@ (80034fc <HAL_LPTIM_Init+0xd8>)
 800343a:	6403      	str	r3, [r0, #64]	@ 0x40
 800343c:	4b30      	ldr	r3, [pc, #192]	@ (8003500 <HAL_LPTIM_Init+0xdc>)
 800343e:	6443      	str	r3, [r0, #68]	@ 0x44
 8003440:	4b30      	ldr	r3, [pc, #192]	@ (8003504 <HAL_LPTIM_Init+0xe0>)
 8003442:	6483      	str	r3, [r0, #72]	@ 0x48
 8003444:	4b30      	ldr	r3, [pc, #192]	@ (8003508 <HAL_LPTIM_Init+0xe4>)
 8003446:	64c3      	str	r3, [r0, #76]	@ 0x4c
 8003448:	4b30      	ldr	r3, [pc, #192]	@ (800350c <HAL_LPTIM_Init+0xe8>)
 800344a:	6503      	str	r3, [r0, #80]	@ 0x50
 800344c:	4b30      	ldr	r3, [pc, #192]	@ (8003510 <HAL_LPTIM_Init+0xec>)
 800344e:	6543      	str	r3, [r0, #84]	@ 0x54
 8003450:	4b30      	ldr	r3, [pc, #192]	@ (8003514 <HAL_LPTIM_Init+0xf0>)
 8003452:	6583      	str	r3, [r0, #88]	@ 0x58
 8003454:	6b83      	ldr	r3, [r0, #56]	@ 0x38
 8003456:	2b00      	cmp	r3, #0
 8003458:	d04c      	beq.n	80034f4 <HAL_LPTIM_Init+0xd0>
 800345a:	0020      	movs	r0, r4
 800345c:	4798      	blx	r3
 800345e:	2336      	movs	r3, #54	@ 0x36
 8003460:	2202      	movs	r2, #2
 8003462:	54e2      	strb	r2, [r4, r3]
 8003464:	6820      	ldr	r0, [r4, #0]
 8003466:	6865      	ldr	r5, [r4, #4]
 8003468:	68c3      	ldr	r3, [r0, #12]
 800346a:	6aa6      	ldr	r6, [r4, #40]	@ 0x28
 800346c:	2d01      	cmp	r5, #1
 800346e:	d038      	beq.n	80034e2 <HAL_LPTIM_Init+0xbe>
 8003470:	2280      	movs	r2, #128	@ 0x80
 8003472:	0412      	lsls	r2, r2, #16
 8003474:	4296      	cmp	r6, r2
 8003476:	d034      	beq.n	80034e2 <HAL_LPTIM_Init+0xbe>
 8003478:	6961      	ldr	r1, [r4, #20]
 800347a:	4a27      	ldr	r2, [pc, #156]	@ (8003518 <HAL_LPTIM_Init+0xf4>)
 800347c:	4291      	cmp	r1, r2
 800347e:	d001      	beq.n	8003484 <HAL_LPTIM_Init+0x60>
 8003480:	4a26      	ldr	r2, [pc, #152]	@ (800351c <HAL_LPTIM_Init+0xf8>)
 8003482:	4013      	ands	r3, r2
 8003484:	4a26      	ldr	r2, [pc, #152]	@ (8003520 <HAL_LPTIM_Init+0xfc>)
 8003486:	68a7      	ldr	r7, [r4, #8]
 8003488:	401a      	ands	r2, r3
 800348a:	002b      	movs	r3, r5
 800348c:	4333      	orrs	r3, r6
 800348e:	433b      	orrs	r3, r7
 8003490:	6a27      	ldr	r7, [r4, #32]
 8003492:	433b      	orrs	r3, r7
 8003494:	6a67      	ldr	r7, [r4, #36]	@ 0x24
 8003496:	433b      	orrs	r3, r7
 8003498:	4313      	orrs	r3, r2
 800349a:	2d00      	cmp	r5, #0
 800349c:	d018      	beq.n	80034d0 <HAL_LPTIM_Init+0xac>
 800349e:	2d01      	cmp	r5, #1
 80034a0:	d11a      	bne.n	80034d8 <HAL_LPTIM_Init+0xb4>
 80034a2:	68e2      	ldr	r2, [r4, #12]
 80034a4:	6925      	ldr	r5, [r4, #16]
 80034a6:	432a      	orrs	r2, r5
 80034a8:	4313      	orrs	r3, r2
 80034aa:	4a1b      	ldr	r2, [pc, #108]	@ (8003518 <HAL_LPTIM_Init+0xf4>)
 80034ac:	4291      	cmp	r1, r2
 80034ae:	d004      	beq.n	80034ba <HAL_LPTIM_Init+0x96>
 80034b0:	69a2      	ldr	r2, [r4, #24]
 80034b2:	4311      	orrs	r1, r2
 80034b4:	69e2      	ldr	r2, [r4, #28]
 80034b6:	4311      	orrs	r1, r2
 80034b8:	430b      	orrs	r3, r1
 80034ba:	4a1a      	ldr	r2, [pc, #104]	@ (8003524 <HAL_LPTIM_Init+0x100>)
 80034bc:	60c3      	str	r3, [r0, #12]
 80034be:	6ae3      	ldr	r3, [r4, #44]	@ 0x2c
 80034c0:	4290      	cmp	r0, r2
 80034c2:	d011      	beq.n	80034e8 <HAL_LPTIM_Init+0xc4>
 80034c4:	6243      	str	r3, [r0, #36]	@ 0x24
 80034c6:	2336      	movs	r3, #54	@ 0x36
 80034c8:	2201      	movs	r2, #1
 80034ca:	2000      	movs	r0, #0
 80034cc:	54e2      	strb	r2, [r4, r3]
 80034ce:	bdf8      	pop	{r3, r4, r5, r6, r7, pc}
 80034d0:	69e2      	ldr	r2, [r4, #28]
 80034d2:	6925      	ldr	r5, [r4, #16]
 80034d4:	432a      	orrs	r2, r5
 80034d6:	4313      	orrs	r3, r2
 80034d8:	2280      	movs	r2, #128	@ 0x80
 80034da:	0412      	lsls	r2, r2, #16
 80034dc:	4296      	cmp	r6, r2
 80034de:	d1e4      	bne.n	80034aa <HAL_LPTIM_Init+0x86>
 80034e0:	e7df      	b.n	80034a2 <HAL_LPTIM_Init+0x7e>
 80034e2:	221e      	movs	r2, #30
 80034e4:	4393      	bics	r3, r2
 80034e6:	e7c7      	b.n	8003478 <HAL_LPTIM_Init+0x54>
 80034e8:	6b22      	ldr	r2, [r4, #48]	@ 0x30
 80034ea:	4313      	orrs	r3, r2
 80034ec:	6243      	str	r3, [r0, #36]	@ 0x24
 80034ee:	e7ea      	b.n	80034c6 <HAL_LPTIM_Init+0xa2>
 80034f0:	2001      	movs	r0, #1
 80034f2:	e7ec      	b.n	80034ce <HAL_LPTIM_Init+0xaa>
 80034f4:	4b0c      	ldr	r3, [pc, #48]	@ (8003528 <HAL_LPTIM_Init+0x104>)
 80034f6:	6383      	str	r3, [r0, #56]	@ 0x38
 80034f8:	e7af      	b.n	800345a <HAL_LPTIM_Init+0x36>
 80034fa:	46c0      	nop			@ (mov r8, r8)
 80034fc:	0800340d 	.word	0x0800340d
 8003500:	08003411 	.word	0x08003411
 8003504:	08003415 	.word	0x08003415
 8003508:	08003419 	.word	0x08003419
 800350c:	0800341d 	.word	0x0800341d
 8003510:	08003421 	.word	0x08003421
 8003514:	08003409 	.word	0x08003409
 8003518:	0000ffff 	.word	0x0000ffff
 800351c:	ffff1f3f 	.word	0xffff1f3f
 8003520:	ff19f1fe 	.word	0xff19f1fe
 8003524:	40007c00 	.word	0x40007c00
 8003528:	08001a35 	.word	0x08001a35

0800352c <HAL_LPTIM_IRQHandler>:
 800352c:	2201      	movs	r2, #1
 800352e:	6803      	ldr	r3, [r0, #0]
 8003530:	b510      	push	{r4, lr}
 8003532:	6819      	ldr	r1, [r3, #0]
 8003534:	0004      	movs	r4, r0
 8003536:	420a      	tst	r2, r1
 8003538:	d002      	beq.n	8003540 <HAL_LPTIM_IRQHandler+0x14>
 800353a:	6899      	ldr	r1, [r3, #8]
 800353c:	420a      	tst	r2, r1
 800353e:	d14c      	bne.n	80035da <HAL_LPTIM_IRQHandler+0xae>
 8003540:	2202      	movs	r2, #2
 8003542:	6819      	ldr	r1, [r3, #0]
 8003544:	420a      	tst	r2, r1
 8003546:	d002      	beq.n	800354e <HAL_LPTIM_IRQHandler+0x22>
 8003548:	6899      	ldr	r1, [r3, #8]
 800354a:	420a      	tst	r2, r1
 800354c:	d13f      	bne.n	80035ce <HAL_LPTIM_IRQHandler+0xa2>
 800354e:	2204      	movs	r2, #4
 8003550:	6819      	ldr	r1, [r3, #0]
 8003552:	420a      	tst	r2, r1
 8003554:	d002      	beq.n	800355c <HAL_LPTIM_IRQHandler+0x30>
 8003556:	6899      	ldr	r1, [r3, #8]
 8003558:	420a      	tst	r2, r1
 800355a:	d132      	bne.n	80035c2 <HAL_LPTIM_IRQHandler+0x96>
 800355c:	2208      	movs	r2, #8
 800355e:	6819      	ldr	r1, [r3, #0]
 8003560:	420a      	tst	r2, r1
 8003562:	d002      	beq.n	800356a <HAL_LPTIM_IRQHandler+0x3e>
 8003564:	6899      	ldr	r1, [r3, #8]
 8003566:	420a      	tst	r2, r1
 8003568:	d125      	bne.n	80035b6 <HAL_LPTIM_IRQHandler+0x8a>
 800356a:	2210      	movs	r2, #16
 800356c:	6819      	ldr	r1, [r3, #0]
 800356e:	420a      	tst	r2, r1
 8003570:	d002      	beq.n	8003578 <HAL_LPTIM_IRQHandler+0x4c>
 8003572:	6899      	ldr	r1, [r3, #8]
 8003574:	420a      	tst	r2, r1
 8003576:	d118      	bne.n	80035aa <HAL_LPTIM_IRQHandler+0x7e>
 8003578:	2220      	movs	r2, #32
 800357a:	6819      	ldr	r1, [r3, #0]
 800357c:	420a      	tst	r2, r1
 800357e:	d002      	beq.n	8003586 <HAL_LPTIM_IRQHandler+0x5a>
 8003580:	6899      	ldr	r1, [r3, #8]
 8003582:	420a      	tst	r2, r1
 8003584:	d10b      	bne.n	800359e <HAL_LPTIM_IRQHandler+0x72>
 8003586:	2240      	movs	r2, #64	@ 0x40
 8003588:	6819      	ldr	r1, [r3, #0]
 800358a:	420a      	tst	r2, r1
 800358c:	d006      	beq.n	800359c <HAL_LPTIM_IRQHandler+0x70>
 800358e:	6899      	ldr	r1, [r3, #8]
 8003590:	420a      	tst	r2, r1
 8003592:	d003      	beq.n	800359c <HAL_LPTIM_IRQHandler+0x70>
 8003594:	605a      	str	r2, [r3, #4]
 8003596:	0020      	movs	r0, r4
 8003598:	6da3      	ldr	r3, [r4, #88]	@ 0x58
 800359a:	4798      	blx	r3
 800359c:	bd10      	pop	{r4, pc}
 800359e:	605a      	str	r2, [r3, #4]
 80035a0:	0020      	movs	r0, r4
 80035a2:	6d63      	ldr	r3, [r4, #84]	@ 0x54
 80035a4:	4798      	blx	r3
 80035a6:	6823      	ldr	r3, [r4, #0]
 80035a8:	e7ed      	b.n	8003586 <HAL_LPTIM_IRQHandler+0x5a>
 80035aa:	605a      	str	r2, [r3, #4]
 80035ac:	0020      	movs	r0, r4
 80035ae:	6d23      	ldr	r3, [r4, #80]	@ 0x50
 80035b0:	4798      	blx	r3
 80035b2:	6823      	ldr	r3, [r4, #0]
 80035b4:	e7e0      	b.n	8003578 <HAL_LPTIM_IRQHandler+0x4c>
 80035b6:	605a      	str	r2, [r3, #4]
 80035b8:	0020      	movs	r0, r4
 80035ba:	6ce3      	ldr	r3, [r4, #76]	@ 0x4c
 80035bc:	4798      	blx	r3
 80035be:	6823      	ldr	r3, [r4, #0]
 80035c0:	e7d3      	b.n	800356a <HAL_LPTIM_IRQHandler+0x3e>
 80035c2:	605a      	str	r2, [r3, #4]
 80035c4:	0020      	movs	r0, r4
 80035c6:	6ca3      	ldr	r3, [r4, #72]	@ 0x48
 80035c8:	4798      	blx	r3
 80035ca:	6823      	ldr	r3, [r4, #0]
 80035cc:	e7c6      	b.n	800355c <HAL_LPTIM_IRQHandler+0x30>
 80035ce:	605a      	str	r2, [r3, #4]
 80035d0:	0020      	movs	r0, r4
 80035d2:	6c63      	ldr	r3, [r4, #68]	@ 0x44
 80035d4:	4798      	blx	r3
 80035d6:	6823      	ldr	r3, [r4, #0]
 80035d8:	e7b9      	b.n	800354e <HAL_LPTIM_IRQHandler+0x22>
 80035da:	605a      	str	r2, [r3, #4]
 80035dc:	6c03      	ldr	r3, [r0, #64]	@ 0x40
 80035de:	4798      	blx	r3
 80035e0:	6823      	ldr	r3, [r4, #0]
 80035e2:	e7ad      	b.n	8003540 <HAL_LPTIM_IRQHandler+0x14>

080035e4 <HAL_LPTIM_RegisterCallback>:
 80035e4:	0003      	movs	r3, r0
 80035e6:	b530      	push	{r4, r5, lr}
 80035e8:	2a00      	cmp	r2, #0
 80035ea:	d019      	beq.n	8003620 <HAL_LPTIM_RegisterCallback+0x3c>
 80035ec:	2536      	movs	r5, #54	@ 0x36
 80035ee:	5d44      	ldrb	r4, [r0, r5]
 80035f0:	b2e0      	uxtb	r0, r4
 80035f2:	2c01      	cmp	r4, #1
 80035f4:	d008      	beq.n	8003608 <HAL_LPTIM_RegisterCallback+0x24>
 80035f6:	5d5c      	ldrb	r4, [r3, r5]
 80035f8:	2001      	movs	r0, #1
 80035fa:	2c00      	cmp	r4, #0
 80035fc:	d103      	bne.n	8003606 <HAL_LPTIM_RegisterCallback+0x22>
 80035fe:	2900      	cmp	r1, #0
 8003600:	d00b      	beq.n	800361a <HAL_LPTIM_RegisterCallback+0x36>
 8003602:	2901      	cmp	r1, #1
 8003604:	d006      	beq.n	8003614 <HAL_LPTIM_RegisterCallback+0x30>
 8003606:	bd30      	pop	{r4, r5, pc}
 8003608:	2908      	cmp	r1, #8
 800360a:	d8fc      	bhi.n	8003606 <HAL_LPTIM_RegisterCallback+0x22>
 800360c:	4810      	ldr	r0, [pc, #64]	@ (8003650 <HAL_LPTIM_RegisterCallback+0x6c>)
 800360e:	0089      	lsls	r1, r1, #2
 8003610:	5841      	ldr	r1, [r0, r1]
 8003612:	468f      	mov	pc, r1
 8003614:	2000      	movs	r0, #0
 8003616:	63da      	str	r2, [r3, #60]	@ 0x3c
 8003618:	e7f5      	b.n	8003606 <HAL_LPTIM_RegisterCallback+0x22>
 800361a:	2000      	movs	r0, #0
 800361c:	639a      	str	r2, [r3, #56]	@ 0x38
 800361e:	e7f2      	b.n	8003606 <HAL_LPTIM_RegisterCallback+0x22>
 8003620:	2001      	movs	r0, #1
 8003622:	e7f0      	b.n	8003606 <HAL_LPTIM_RegisterCallback+0x22>
 8003624:	2000      	movs	r0, #0
 8003626:	659a      	str	r2, [r3, #88]	@ 0x58
 8003628:	e7ed      	b.n	8003606 <HAL_LPTIM_RegisterCallback+0x22>
 800362a:	2000      	movs	r0, #0
 800362c:	641a      	str	r2, [r3, #64]	@ 0x40
 800362e:	e7ea      	b.n	8003606 <HAL_LPTIM_RegisterCallback+0x22>
 8003630:	2000      	movs	r0, #0
 8003632:	645a      	str	r2, [r3, #68]	@ 0x44
 8003634:	e7e7      	b.n	8003606 <HAL_LPTIM_RegisterCallback+0x22>
 8003636:	2000      	movs	r0, #0
 8003638:	649a      	str	r2, [r3, #72]	@ 0x48
 800363a:	e7e4      	b.n	8003606 <HAL_LPTIM_RegisterCallback+0x22>
 800363c:	2000      	movs	r0, #0
 800363e:	64da      	str	r2, [r3, #76]	@ 0x4c
 8003640:	e7e1      	b.n	8003606 <HAL_LPTIM_RegisterCallback+0x22>
 8003642:	2000      	movs	r0, #0
 8003644:	651a      	str	r2, [r3, #80]	@ 0x50
 8003646:	e7de      	b.n	8003606 <HAL_LPTIM_RegisterCallback+0x22>
 8003648:	2000      	movs	r0, #0
 800364a:	655a      	str	r2, [r3, #84]	@ 0x54
 800364c:	e7db      	b.n	8003606 <HAL_LPTIM_RegisterCallback+0x22>
 800364e:	46c0      	nop			@ (mov r8, r8)
 8003650:	08007214 	.word	0x08007214

08003654 <LPTIM_Disable>:
 8003654:	b5f8      	push	{r3, r4, r5, r6, r7, lr}
 8003656:	4645      	mov	r5, r8
 8003658:	46de      	mov	lr, fp
 800365a:	4657      	mov	r7, sl
 800365c:	464e      	mov	r6, r9
 800365e:	b5e0      	push	{r5, r6, r7, lr}
 8003660:	0005      	movs	r5, r0
 8003662:	f3ef 8710 	mrs	r7, PRIMASK
 8003666:	2301      	movs	r3, #1
 8003668:	f383 8810 	msr	PRIMASK, r3
 800366c:	4b63      	ldr	r3, [pc, #396]	@ (80037fc <LPTIM_Disable+0x1a8>)
 800366e:	6804      	ldr	r4, [r0, #0]
 8003670:	429c      	cmp	r4, r3
 8003672:	d067      	beq.n	8003744 <LPTIM_Disable+0xf0>
 8003674:	4b62      	ldr	r3, [pc, #392]	@ (8003800 <LPTIM_Disable+0x1ac>)
 8003676:	429c      	cmp	r4, r3
 8003678:	d100      	bne.n	800367c <LPTIM_Disable+0x28>
 800367a:	e08e      	b.n	800379a <LPTIM_Disable+0x146>
 800367c:	68a3      	ldr	r3, [r4, #8]
 800367e:	469a      	mov	sl, r3
 8003680:	68e3      	ldr	r3, [r4, #12]
 8003682:	6966      	ldr	r6, [r4, #20]
 8003684:	4699      	mov	r9, r3
 8003686:	69a3      	ldr	r3, [r4, #24]
 8003688:	469b      	mov	fp, r3
 800368a:	6a63      	ldr	r3, [r4, #36]	@ 0x24
 800368c:	4698      	mov	r8, r3
 800368e:	465b      	mov	r3, fp
 8003690:	4333      	orrs	r3, r6
 8003692:	d045      	beq.n	8003720 <LPTIM_Disable+0xcc>
 8003694:	2e00      	cmp	r6, #0
 8003696:	d01a      	beq.n	80036ce <LPTIM_Disable+0x7a>
 8003698:	0032      	movs	r2, r6
 800369a:	2600      	movs	r6, #0
 800369c:	2101      	movs	r1, #1
 800369e:	6923      	ldr	r3, [r4, #16]
 80036a0:	430b      	orrs	r3, r1
 80036a2:	6123      	str	r3, [r4, #16]
 80036a4:	4b57      	ldr	r3, [pc, #348]	@ (8003804 <LPTIM_Disable+0x1b0>)
 80036a6:	4958      	ldr	r1, [pc, #352]	@ (8003808 <LPTIM_Disable+0x1b4>)
 80036a8:	6818      	ldr	r0, [r3, #0]
 80036aa:	6162      	str	r2, [r4, #20]
 80036ac:	f7fc fd2a 	bl	8000104 <__udivsi3>
 80036b0:	2108      	movs	r1, #8
 80036b2:	0143      	lsls	r3, r0, #5
 80036b4:	1a1b      	subs	r3, r3, r0
 80036b6:	009b      	lsls	r3, r3, #2
 80036b8:	181b      	adds	r3, r3, r0
 80036ba:	00db      	lsls	r3, r3, #3
 80036bc:	3b01      	subs	r3, #1
 80036be:	2b00      	cmp	r3, #0
 80036c0:	d100      	bne.n	80036c4 <LPTIM_Disable+0x70>
 80036c2:	e095      	b.n	80037f0 <LPTIM_Disable+0x19c>
 80036c4:	6822      	ldr	r2, [r4, #0]
 80036c6:	4211      	tst	r1, r2
 80036c8:	d0f8      	beq.n	80036bc <LPTIM_Disable+0x68>
 80036ca:	2308      	movs	r3, #8
 80036cc:	6063      	str	r3, [r4, #4]
 80036ce:	465b      	mov	r3, fp
 80036d0:	2b00      	cmp	r3, #0
 80036d2:	d019      	beq.n	8003708 <LPTIM_Disable+0xb4>
 80036d4:	2201      	movs	r2, #1
 80036d6:	6923      	ldr	r3, [r4, #16]
 80036d8:	494b      	ldr	r1, [pc, #300]	@ (8003808 <LPTIM_Disable+0x1b4>)
 80036da:	4313      	orrs	r3, r2
 80036dc:	6123      	str	r3, [r4, #16]
 80036de:	465b      	mov	r3, fp
 80036e0:	61a3      	str	r3, [r4, #24]
 80036e2:	4b48      	ldr	r3, [pc, #288]	@ (8003804 <LPTIM_Disable+0x1b0>)
 80036e4:	6818      	ldr	r0, [r3, #0]
 80036e6:	f7fc fd0d 	bl	8000104 <__udivsi3>
 80036ea:	2110      	movs	r1, #16
 80036ec:	0143      	lsls	r3, r0, #5
 80036ee:	1a1b      	subs	r3, r3, r0
 80036f0:	009b      	lsls	r3, r3, #2
 80036f2:	181b      	adds	r3, r3, r0
 80036f4:	00db      	lsls	r3, r3, #3
 80036f6:	3b01      	subs	r3, #1
 80036f8:	2b00      	cmp	r3, #0
 80036fa:	d100      	bne.n	80036fe <LPTIM_Disable+0xaa>
 80036fc:	e073      	b.n	80037e6 <LPTIM_Disable+0x192>
 80036fe:	6822      	ldr	r2, [r4, #0]
 8003700:	4211      	tst	r1, r2
 8003702:	d0f8      	beq.n	80036f6 <LPTIM_Disable+0xa2>
 8003704:	2310      	movs	r3, #16
 8003706:	6063      	str	r3, [r4, #4]
 8003708:	4b3c      	ldr	r3, [pc, #240]	@ (80037fc <LPTIM_Disable+0x1a8>)
 800370a:	429c      	cmp	r4, r3
 800370c:	d03e      	beq.n	800378c <LPTIM_Disable+0x138>
 800370e:	4b3c      	ldr	r3, [pc, #240]	@ (8003800 <LPTIM_Disable+0x1ac>)
 8003710:	429c      	cmp	r4, r3
 8003712:	d105      	bne.n	8003720 <LPTIM_Disable+0xcc>
 8003714:	4a3d      	ldr	r2, [pc, #244]	@ (800380c <LPTIM_Disable+0x1b8>)
 8003716:	493e      	ldr	r1, [pc, #248]	@ (8003810 <LPTIM_Disable+0x1bc>)
 8003718:	6d53      	ldr	r3, [r2, #84]	@ 0x54
 800371a:	400b      	ands	r3, r1
 800371c:	4333      	orrs	r3, r6
 800371e:	6553      	str	r3, [r2, #84]	@ 0x54
 8003720:	2201      	movs	r2, #1
 8003722:	6923      	ldr	r3, [r4, #16]
 8003724:	4393      	bics	r3, r2
 8003726:	6123      	str	r3, [r4, #16]
 8003728:	4653      	mov	r3, sl
 800372a:	60a3      	str	r3, [r4, #8]
 800372c:	464b      	mov	r3, r9
 800372e:	60e3      	str	r3, [r4, #12]
 8003730:	4643      	mov	r3, r8
 8003732:	6263      	str	r3, [r4, #36]	@ 0x24
 8003734:	f387 8810 	msr	PRIMASK, r7
 8003738:	bcf0      	pop	{r4, r5, r6, r7}
 800373a:	46bb      	mov	fp, r7
 800373c:	46b2      	mov	sl, r6
 800373e:	46a9      	mov	r9, r5
 8003740:	46a0      	mov	r8, r4
 8003742:	bdf8      	pop	{r3, r4, r5, r6, r7, pc}
 8003744:	4b31      	ldr	r3, [pc, #196]	@ (800380c <LPTIM_Disable+0x1b8>)
 8003746:	6d5e      	ldr	r6, [r3, #84]	@ 0x54
 8003748:	68a2      	ldr	r2, [r4, #8]
 800374a:	4692      	mov	sl, r2
 800374c:	68e2      	ldr	r2, [r4, #12]
 800374e:	4691      	mov	r9, r2
 8003750:	6962      	ldr	r2, [r4, #20]
 8003752:	69a1      	ldr	r1, [r4, #24]
 8003754:	468b      	mov	fp, r1
 8003756:	6a61      	ldr	r1, [r4, #36]	@ 0x24
 8003758:	6ad8      	ldr	r0, [r3, #44]	@ 0x2c
 800375a:	4688      	mov	r8, r1
 800375c:	2180      	movs	r1, #128	@ 0x80
 800375e:	0609      	lsls	r1, r1, #24
 8003760:	4301      	orrs	r1, r0
 8003762:	62d9      	str	r1, [r3, #44]	@ 0x2c
 8003764:	6ad9      	ldr	r1, [r3, #44]	@ 0x2c
 8003766:	0049      	lsls	r1, r1, #1
 8003768:	0849      	lsrs	r1, r1, #1
 800376a:	62d9      	str	r1, [r3, #44]	@ 0x2c
 800376c:	4659      	mov	r1, fp
 800376e:	4311      	orrs	r1, r2
 8003770:	d0d6      	beq.n	8003720 <LPTIM_Disable+0xcc>
 8003772:	21c0      	movs	r1, #192	@ 0xc0
 8003774:	0309      	lsls	r1, r1, #12
 8003776:	4827      	ldr	r0, [pc, #156]	@ (8003814 <LPTIM_Disable+0x1c0>)
 8003778:	400e      	ands	r6, r1
 800377a:	6d59      	ldr	r1, [r3, #84]	@ 0x54
 800377c:	4001      	ands	r1, r0
 800377e:	6559      	str	r1, [r3, #84]	@ 0x54
 8003780:	2a00      	cmp	r2, #0
 8003782:	d000      	beq.n	8003786 <LPTIM_Disable+0x132>
 8003784:	e78a      	b.n	800369c <LPTIM_Disable+0x48>
 8003786:	465b      	mov	r3, fp
 8003788:	2b00      	cmp	r3, #0
 800378a:	d1a3      	bne.n	80036d4 <LPTIM_Disable+0x80>
 800378c:	4a1f      	ldr	r2, [pc, #124]	@ (800380c <LPTIM_Disable+0x1b8>)
 800378e:	4921      	ldr	r1, [pc, #132]	@ (8003814 <LPTIM_Disable+0x1c0>)
 8003790:	6d53      	ldr	r3, [r2, #84]	@ 0x54
 8003792:	400b      	ands	r3, r1
 8003794:	4333      	orrs	r3, r6
 8003796:	6553      	str	r3, [r2, #84]	@ 0x54
 8003798:	e7c2      	b.n	8003720 <LPTIM_Disable+0xcc>
 800379a:	4b1c      	ldr	r3, [pc, #112]	@ (800380c <LPTIM_Disable+0x1b8>)
 800379c:	6d5e      	ldr	r6, [r3, #84]	@ 0x54
 800379e:	68a2      	ldr	r2, [r4, #8]
 80037a0:	4692      	mov	sl, r2
 80037a2:	68e2      	ldr	r2, [r4, #12]
 80037a4:	4691      	mov	r9, r2
 80037a6:	6962      	ldr	r2, [r4, #20]
 80037a8:	69a1      	ldr	r1, [r4, #24]
 80037aa:	468b      	mov	fp, r1
 80037ac:	6a61      	ldr	r1, [r4, #36]	@ 0x24
 80037ae:	6ad8      	ldr	r0, [r3, #44]	@ 0x2c
 80037b0:	4688      	mov	r8, r1
 80037b2:	2180      	movs	r1, #128	@ 0x80
 80037b4:	05c9      	lsls	r1, r1, #23
 80037b6:	4301      	orrs	r1, r0
 80037b8:	62d9      	str	r1, [r3, #44]	@ 0x2c
 80037ba:	6ad9      	ldr	r1, [r3, #44]	@ 0x2c
 80037bc:	4816      	ldr	r0, [pc, #88]	@ (8003818 <LPTIM_Disable+0x1c4>)
 80037be:	4001      	ands	r1, r0
 80037c0:	62d9      	str	r1, [r3, #44]	@ 0x2c
 80037c2:	4659      	mov	r1, fp
 80037c4:	4311      	orrs	r1, r2
 80037c6:	d0ab      	beq.n	8003720 <LPTIM_Disable+0xcc>
 80037c8:	21c0      	movs	r1, #192	@ 0xc0
 80037ca:	0389      	lsls	r1, r1, #14
 80037cc:	4810      	ldr	r0, [pc, #64]	@ (8003810 <LPTIM_Disable+0x1bc>)
 80037ce:	400e      	ands	r6, r1
 80037d0:	6d59      	ldr	r1, [r3, #84]	@ 0x54
 80037d2:	4001      	ands	r1, r0
 80037d4:	6559      	str	r1, [r3, #84]	@ 0x54
 80037d6:	2a00      	cmp	r2, #0
 80037d8:	d000      	beq.n	80037dc <LPTIM_Disable+0x188>
 80037da:	e75f      	b.n	800369c <LPTIM_Disable+0x48>
 80037dc:	465b      	mov	r3, fp
 80037de:	2b00      	cmp	r3, #0
 80037e0:	d000      	beq.n	80037e4 <LPTIM_Disable+0x190>
 80037e2:	e777      	b.n	80036d4 <LPTIM_Disable+0x80>
 80037e4:	e796      	b.n	8003714 <LPTIM_Disable+0xc0>
 80037e6:	6823      	ldr	r3, [r4, #0]
 80037e8:	2203      	movs	r2, #3
 80037ea:	2336      	movs	r3, #54	@ 0x36
 80037ec:	54ea      	strb	r2, [r5, r3]
 80037ee:	e789      	b.n	8003704 <LPTIM_Disable+0xb0>
 80037f0:	6823      	ldr	r3, [r4, #0]
 80037f2:	2203      	movs	r2, #3
 80037f4:	2336      	movs	r3, #54	@ 0x36
 80037f6:	54ea      	strb	r2, [r5, r3]
 80037f8:	e767      	b.n	80036ca <LPTIM_Disable+0x76>
 80037fa:	46c0      	nop			@ (mov r8, r8)
 80037fc:	40007c00 	.word	0x40007c00
 8003800:	40009400 	.word	0x40009400
 8003804:	20000414 	.word	0x20000414
 8003808:	00004e20 	.word	0x00004e20
 800380c:	40021000 	.word	0x40021000
 8003810:	ffcfffff 	.word	0xffcfffff
 8003814:	fff3ffff 	.word	0xfff3ffff
 8003818:	bfffffff 	.word	0xbfffffff

0800381c <HAL_LPTIM_SetOnce_Start_IT>:
 800381c:	b570      	push	{r4, r5, r6, lr}
 800381e:	2336      	movs	r3, #54	@ 0x36
 8003820:	0016      	movs	r6, r2
 8003822:	2202      	movs	r2, #2
 8003824:	54c2      	strb	r2, [r0, r3]
 8003826:	2380      	movs	r3, #128	@ 0x80
 8003828:	6804      	ldr	r4, [r0, #0]
 800382a:	035b      	lsls	r3, r3, #13
 800382c:	68e2      	ldr	r2, [r4, #12]
 800382e:	0005      	movs	r5, r0
 8003830:	4313      	orrs	r3, r2
 8003832:	2201      	movs	r2, #1
 8003834:	60e3      	str	r3, [r4, #12]
 8003836:	6923      	ldr	r3, [r4, #16]
 8003838:	4313      	orrs	r3, r2
 800383a:	6123      	str	r3, [r4, #16]
 800383c:	2310      	movs	r3, #16
 800383e:	6063      	str	r3, [r4, #4]
 8003840:	4b25      	ldr	r3, [pc, #148]	@ (80038d8 <HAL_LPTIM_SetOnce_Start_IT+0xbc>)
 8003842:	61a1      	str	r1, [r4, #24]
 8003844:	6818      	ldr	r0, [r3, #0]
 8003846:	4925      	ldr	r1, [pc, #148]	@ (80038dc <HAL_LPTIM_SetOnce_Start_IT+0xc0>)
 8003848:	f7fc fc5c 	bl	8000104 <__udivsi3>
 800384c:	0143      	lsls	r3, r0, #5
 800384e:	1a1b      	subs	r3, r3, r0
 8003850:	009b      	lsls	r3, r3, #2
 8003852:	181b      	adds	r3, r3, r0
 8003854:	00db      	lsls	r3, r3, #3
 8003856:	001a      	movs	r2, r3
 8003858:	2010      	movs	r0, #16
 800385a:	3a01      	subs	r2, #1
 800385c:	2a00      	cmp	r2, #0
 800385e:	d037      	beq.n	80038d0 <HAL_LPTIM_SetOnce_Start_IT+0xb4>
 8003860:	6821      	ldr	r1, [r4, #0]
 8003862:	4208      	tst	r0, r1
 8003864:	d0f9      	beq.n	800385a <HAL_LPTIM_SetOnce_Start_IT+0x3e>
 8003866:	2208      	movs	r2, #8
 8003868:	6062      	str	r2, [r4, #4]
 800386a:	6166      	str	r6, [r4, #20]
 800386c:	2608      	movs	r6, #8
 800386e:	3b01      	subs	r3, #1
 8003870:	2b00      	cmp	r3, #0
 8003872:	d02d      	beq.n	80038d0 <HAL_LPTIM_SetOnce_Start_IT+0xb4>
 8003874:	6822      	ldr	r2, [r4, #0]
 8003876:	4216      	tst	r6, r2
 8003878:	d0f9      	beq.n	800386e <HAL_LPTIM_SetOnce_Start_IT+0x52>
 800387a:	0028      	movs	r0, r5
 800387c:	f7ff feea 	bl	8003654 <LPTIM_Disable>
 8003880:	2336      	movs	r3, #54	@ 0x36
 8003882:	5ceb      	ldrb	r3, [r5, r3]
 8003884:	2b03      	cmp	r3, #3
 8003886:	d024      	beq.n	80038d2 <HAL_LPTIM_SetOnce_Start_IT+0xb6>
 8003888:	2110      	movs	r1, #16
 800388a:	682b      	ldr	r3, [r5, #0]
 800388c:	689a      	ldr	r2, [r3, #8]
 800388e:	430a      	orrs	r2, r1
 8003890:	609a      	str	r2, [r3, #8]
 8003892:	689a      	ldr	r2, [r3, #8]
 8003894:	390e      	subs	r1, #14
 8003896:	4332      	orrs	r2, r6
 8003898:	609a      	str	r2, [r3, #8]
 800389a:	689a      	ldr	r2, [r3, #8]
 800389c:	430a      	orrs	r2, r1
 800389e:	609a      	str	r2, [r3, #8]
 80038a0:	689a      	ldr	r2, [r3, #8]
 80038a2:	3901      	subs	r1, #1
 80038a4:	430a      	orrs	r2, r1
 80038a6:	609a      	str	r2, [r3, #8]
 80038a8:	6969      	ldr	r1, [r5, #20]
 80038aa:	4a0d      	ldr	r2, [pc, #52]	@ (80038e0 <HAL_LPTIM_SetOnce_Start_IT+0xc4>)
 80038ac:	4291      	cmp	r1, r2
 80038ae:	d003      	beq.n	80038b8 <HAL_LPTIM_SetOnce_Start_IT+0x9c>
 80038b0:	2104      	movs	r1, #4
 80038b2:	689a      	ldr	r2, [r3, #8]
 80038b4:	430a      	orrs	r2, r1
 80038b6:	609a      	str	r2, [r3, #8]
 80038b8:	2101      	movs	r1, #1
 80038ba:	2002      	movs	r0, #2
 80038bc:	691a      	ldr	r2, [r3, #16]
 80038be:	430a      	orrs	r2, r1
 80038c0:	611a      	str	r2, [r3, #16]
 80038c2:	691a      	ldr	r2, [r3, #16]
 80038c4:	4302      	orrs	r2, r0
 80038c6:	611a      	str	r2, [r3, #16]
 80038c8:	2336      	movs	r3, #54	@ 0x36
 80038ca:	2000      	movs	r0, #0
 80038cc:	54e9      	strb	r1, [r5, r3]
 80038ce:	bd70      	pop	{r4, r5, r6, pc}
 80038d0:	6823      	ldr	r3, [r4, #0]
 80038d2:	2003      	movs	r0, #3
 80038d4:	e7fb      	b.n	80038ce <HAL_LPTIM_SetOnce_Start_IT+0xb2>
 80038d6:	46c0      	nop			@ (mov r8, r8)
 80038d8:	20000414 	.word	0x20000414
 80038dc:	00004e20 	.word	0x00004e20
 80038e0:	0000ffff 	.word	0x0000ffff

080038e4 <HAL_PWREx_ControlVoltageScaling>:
 80038e4:	b570      	push	{r4, r5, r6, lr}
 80038e6:	4c13      	ldr	r4, [pc, #76]	@ (8003934 <HAL_PWREx_ControlVoltageScaling+0x50>)
 80038e8:	4a13      	ldr	r2, [pc, #76]	@ (8003938 <HAL_PWREx_ControlVoltageScaling+0x54>)
 80038ea:	6823      	ldr	r3, [r4, #0]
 80038ec:	2500      	movs	r5, #0
 80038ee:	4013      	ands	r3, r2
 80038f0:	4303      	orrs	r3, r0
 80038f2:	6023      	str	r3, [r4, #0]
 80038f4:	2380      	movs	r3, #128	@ 0x80
 80038f6:	009b      	lsls	r3, r3, #2
 80038f8:	4298      	cmp	r0, r3
 80038fa:	d001      	beq.n	8003900 <HAL_PWREx_ControlVoltageScaling+0x1c>
 80038fc:	0028      	movs	r0, r5
 80038fe:	bd70      	pop	{r4, r5, r6, pc}
 8003900:	4b0e      	ldr	r3, [pc, #56]	@ (800393c <HAL_PWREx_ControlVoltageScaling+0x58>)
 8003902:	490f      	ldr	r1, [pc, #60]	@ (8003940 <HAL_PWREx_ControlVoltageScaling+0x5c>)
 8003904:	681b      	ldr	r3, [r3, #0]
 8003906:	0058      	lsls	r0, r3, #1
 8003908:	18c0      	adds	r0, r0, r3
 800390a:	0040      	lsls	r0, r0, #1
 800390c:	f7fc fbfa 	bl	8000104 <__udivsi3>
 8003910:	2280      	movs	r2, #128	@ 0x80
 8003912:	6963      	ldr	r3, [r4, #20]
 8003914:	00d2      	lsls	r2, r2, #3
 8003916:	3001      	adds	r0, #1
 8003918:	4213      	tst	r3, r2
 800391a:	d102      	bne.n	8003922 <HAL_PWREx_ControlVoltageScaling+0x3e>
 800391c:	e7ee      	b.n	80038fc <HAL_PWREx_ControlVoltageScaling+0x18>
 800391e:	2800      	cmp	r0, #0
 8003920:	d005      	beq.n	800392e <HAL_PWREx_ControlVoltageScaling+0x4a>
 8003922:	6963      	ldr	r3, [r4, #20]
 8003924:	3801      	subs	r0, #1
 8003926:	4213      	tst	r3, r2
 8003928:	d1f9      	bne.n	800391e <HAL_PWREx_ControlVoltageScaling+0x3a>
 800392a:	2500      	movs	r5, #0
 800392c:	e7e6      	b.n	80038fc <HAL_PWREx_ControlVoltageScaling+0x18>
 800392e:	2503      	movs	r5, #3
 8003930:	e7e4      	b.n	80038fc <HAL_PWREx_ControlVoltageScaling+0x18>
 8003932:	46c0      	nop			@ (mov r8, r8)
 8003934:	40007000 	.word	0x40007000
 8003938:	fffff9ff 	.word	0xfffff9ff
 800393c:	20000414 	.word	0x20000414
 8003940:	000f4240 	.word	0x000f4240

08003944 <HAL_RCC_OscConfig>:
 8003944:	b5f0      	push	{r4, r5, r6, r7, lr}
 8003946:	46ce      	mov	lr, r9
 8003948:	4647      	mov	r7, r8
 800394a:	b580      	push	{r7, lr}
 800394c:	0004      	movs	r4, r0
 800394e:	b083      	sub	sp, #12
 8003950:	2800      	cmp	r0, #0
 8003952:	d027      	beq.n	80039a4 <HAL_RCC_OscConfig+0x60>
 8003954:	6803      	ldr	r3, [r0, #0]
 8003956:	07da      	lsls	r2, r3, #31
 8003958:	d511      	bpl.n	800397e <HAL_RCC_OscConfig+0x3a>
 800395a:	2238      	movs	r2, #56	@ 0x38
 800395c:	49c0      	ldr	r1, [pc, #768]	@ (8003c60 <HAL_RCC_OscConfig+0x31c>)
 800395e:	6888      	ldr	r0, [r1, #8]
 8003960:	68c9      	ldr	r1, [r1, #12]
 8003962:	4002      	ands	r2, r0
 8003964:	2a10      	cmp	r2, #16
 8003966:	d100      	bne.n	800396a <HAL_RCC_OscConfig+0x26>
 8003968:	e0cc      	b.n	8003b04 <HAL_RCC_OscConfig+0x1c0>
 800396a:	2a08      	cmp	r2, #8
 800396c:	d000      	beq.n	8003970 <HAL_RCC_OscConfig+0x2c>
 800396e:	e0cd      	b.n	8003b0c <HAL_RCC_OscConfig+0x1c8>
 8003970:	4abb      	ldr	r2, [pc, #748]	@ (8003c60 <HAL_RCC_OscConfig+0x31c>)
 8003972:	6812      	ldr	r2, [r2, #0]
 8003974:	0392      	lsls	r2, r2, #14
 8003976:	d502      	bpl.n	800397e <HAL_RCC_OscConfig+0x3a>
 8003978:	6862      	ldr	r2, [r4, #4]
 800397a:	2a00      	cmp	r2, #0
 800397c:	d012      	beq.n	80039a4 <HAL_RCC_OscConfig+0x60>
 800397e:	079a      	lsls	r2, r3, #30
 8003980:	d532      	bpl.n	80039e8 <HAL_RCC_OscConfig+0xa4>
 8003982:	2338      	movs	r3, #56	@ 0x38
 8003984:	4ab6      	ldr	r2, [pc, #728]	@ (8003c60 <HAL_RCC_OscConfig+0x31c>)
 8003986:	6891      	ldr	r1, [r2, #8]
 8003988:	400b      	ands	r3, r1
 800398a:	68d1      	ldr	r1, [r2, #12]
 800398c:	2b10      	cmp	r3, #16
 800398e:	d100      	bne.n	8003992 <HAL_RCC_OscConfig+0x4e>
 8003990:	e10b      	b.n	8003baa <HAL_RCC_OscConfig+0x266>
 8003992:	2b00      	cmp	r3, #0
 8003994:	d000      	beq.n	8003998 <HAL_RCC_OscConfig+0x54>
 8003996:	e10d      	b.n	8003bb4 <HAL_RCC_OscConfig+0x270>
 8003998:	6813      	ldr	r3, [r2, #0]
 800399a:	055b      	lsls	r3, r3, #21
 800399c:	d508      	bpl.n	80039b0 <HAL_RCC_OscConfig+0x6c>
 800399e:	68e3      	ldr	r3, [r4, #12]
 80039a0:	2b00      	cmp	r3, #0
 80039a2:	d105      	bne.n	80039b0 <HAL_RCC_OscConfig+0x6c>
 80039a4:	2001      	movs	r0, #1
 80039a6:	b003      	add	sp, #12
 80039a8:	bcc0      	pop	{r6, r7}
 80039aa:	46b9      	mov	r9, r7
 80039ac:	46b0      	mov	r8, r6
 80039ae:	bdf0      	pop	{r4, r5, r6, r7, pc}
 80039b0:	6851      	ldr	r1, [r2, #4]
 80039b2:	6963      	ldr	r3, [r4, #20]
 80039b4:	48ab      	ldr	r0, [pc, #684]	@ (8003c64 <HAL_RCC_OscConfig+0x320>)
 80039b6:	021b      	lsls	r3, r3, #8
 80039b8:	4001      	ands	r1, r0
 80039ba:	430b      	orrs	r3, r1
 80039bc:	6053      	str	r3, [r2, #4]
 80039be:	4aa8      	ldr	r2, [pc, #672]	@ (8003c60 <HAL_RCC_OscConfig+0x31c>)
 80039c0:	49a9      	ldr	r1, [pc, #676]	@ (8003c68 <HAL_RCC_OscConfig+0x324>)
 80039c2:	6813      	ldr	r3, [r2, #0]
 80039c4:	400b      	ands	r3, r1
 80039c6:	6921      	ldr	r1, [r4, #16]
 80039c8:	430b      	orrs	r3, r1
 80039ca:	6013      	str	r3, [r2, #0]
 80039cc:	6813      	ldr	r3, [r2, #0]
 80039ce:	4aa7      	ldr	r2, [pc, #668]	@ (8003c6c <HAL_RCC_OscConfig+0x328>)
 80039d0:	049b      	lsls	r3, r3, #18
 80039d2:	0f5b      	lsrs	r3, r3, #29
 80039d4:	40da      	lsrs	r2, r3
 80039d6:	49a6      	ldr	r1, [pc, #664]	@ (8003c70 <HAL_RCC_OscConfig+0x32c>)
 80039d8:	600a      	str	r2, [r1, #0]
 80039da:	4ba6      	ldr	r3, [pc, #664]	@ (8003c74 <HAL_RCC_OscConfig+0x330>)
 80039dc:	6818      	ldr	r0, [r3, #0]
 80039de:	f7fe fc2d 	bl	800223c <HAL_InitTick>
 80039e2:	2800      	cmp	r0, #0
 80039e4:	d1de      	bne.n	80039a4 <HAL_RCC_OscConfig+0x60>
 80039e6:	6823      	ldr	r3, [r4, #0]
 80039e8:	071a      	lsls	r2, r3, #28
 80039ea:	d46d      	bmi.n	8003ac8 <HAL_RCC_OscConfig+0x184>
 80039ec:	075b      	lsls	r3, r3, #29
 80039ee:	d545      	bpl.n	8003a7c <HAL_RCC_OscConfig+0x138>
 80039f0:	2338      	movs	r3, #56	@ 0x38
 80039f2:	4a9b      	ldr	r2, [pc, #620]	@ (8003c60 <HAL_RCC_OscConfig+0x31c>)
 80039f4:	6891      	ldr	r1, [r2, #8]
 80039f6:	400b      	ands	r3, r1
 80039f8:	2b20      	cmp	r3, #32
 80039fa:	d100      	bne.n	80039fe <HAL_RCC_OscConfig+0xba>
 80039fc:	e0cc      	b.n	8003b98 <HAL_RCC_OscConfig+0x254>
 80039fe:	2380      	movs	r3, #128	@ 0x80
 8003a00:	2000      	movs	r0, #0
 8003a02:	6bd1      	ldr	r1, [r2, #60]	@ 0x3c
 8003a04:	055b      	lsls	r3, r3, #21
 8003a06:	4681      	mov	r9, r0
 8003a08:	4219      	tst	r1, r3
 8003a0a:	d108      	bne.n	8003a1e <HAL_RCC_OscConfig+0xda>
 8003a0c:	6bd1      	ldr	r1, [r2, #60]	@ 0x3c
 8003a0e:	4319      	orrs	r1, r3
 8003a10:	63d1      	str	r1, [r2, #60]	@ 0x3c
 8003a12:	6bd2      	ldr	r2, [r2, #60]	@ 0x3c
 8003a14:	4013      	ands	r3, r2
 8003a16:	9301      	str	r3, [sp, #4]
 8003a18:	9b01      	ldr	r3, [sp, #4]
 8003a1a:	2301      	movs	r3, #1
 8003a1c:	4699      	mov	r9, r3
 8003a1e:	2780      	movs	r7, #128	@ 0x80
 8003a20:	4e95      	ldr	r6, [pc, #596]	@ (8003c78 <HAL_RCC_OscConfig+0x334>)
 8003a22:	007f      	lsls	r7, r7, #1
 8003a24:	6833      	ldr	r3, [r6, #0]
 8003a26:	423b      	tst	r3, r7
 8003a28:	d100      	bne.n	8003a2c <HAL_RCC_OscConfig+0xe8>
 8003a2a:	e0ff      	b.n	8003c2c <HAL_RCC_OscConfig+0x2e8>
 8003a2c:	68a3      	ldr	r3, [r4, #8]
 8003a2e:	2b01      	cmp	r3, #1
 8003a30:	d100      	bne.n	8003a34 <HAL_RCC_OscConfig+0xf0>
 8003a32:	e0e5      	b.n	8003c00 <HAL_RCC_OscConfig+0x2bc>
 8003a34:	2b05      	cmp	r3, #5
 8003a36:	d100      	bne.n	8003a3a <HAL_RCC_OscConfig+0xf6>
 8003a38:	e1d1      	b.n	8003dde <HAL_RCC_OscConfig+0x49a>
 8003a3a:	2101      	movs	r1, #1
 8003a3c:	4e88      	ldr	r6, [pc, #544]	@ (8003c60 <HAL_RCC_OscConfig+0x31c>)
 8003a3e:	6df2      	ldr	r2, [r6, #92]	@ 0x5c
 8003a40:	438a      	bics	r2, r1
 8003a42:	65f2      	str	r2, [r6, #92]	@ 0x5c
 8003a44:	6df2      	ldr	r2, [r6, #92]	@ 0x5c
 8003a46:	3103      	adds	r1, #3
 8003a48:	438a      	bics	r2, r1
 8003a4a:	65f2      	str	r2, [r6, #92]	@ 0x5c
 8003a4c:	2b00      	cmp	r3, #0
 8003a4e:	d000      	beq.n	8003a52 <HAL_RCC_OscConfig+0x10e>
 8003a50:	e0da      	b.n	8003c08 <HAL_RCC_OscConfig+0x2c4>
 8003a52:	f7fe fc39 	bl	80022c8 <HAL_GetTick>
 8003a56:	2302      	movs	r3, #2
 8003a58:	0007      	movs	r7, r0
 8003a5a:	4698      	mov	r8, r3
 8003a5c:	4d87      	ldr	r5, [pc, #540]	@ (8003c7c <HAL_RCC_OscConfig+0x338>)
 8003a5e:	e005      	b.n	8003a6c <HAL_RCC_OscConfig+0x128>
 8003a60:	f7fe fc32 	bl	80022c8 <HAL_GetTick>
 8003a64:	1bc0      	subs	r0, r0, r7
 8003a66:	42a8      	cmp	r0, r5
 8003a68:	d900      	bls.n	8003a6c <HAL_RCC_OscConfig+0x128>
 8003a6a:	e0ee      	b.n	8003c4a <HAL_RCC_OscConfig+0x306>
 8003a6c:	4642      	mov	r2, r8
 8003a6e:	6df3      	ldr	r3, [r6, #92]	@ 0x5c
 8003a70:	421a      	tst	r2, r3
 8003a72:	d1f5      	bne.n	8003a60 <HAL_RCC_OscConfig+0x11c>
 8003a74:	464b      	mov	r3, r9
 8003a76:	2b01      	cmp	r3, #1
 8003a78:	d100      	bne.n	8003a7c <HAL_RCC_OscConfig+0x138>
 8003a7a:	e16a      	b.n	8003d52 <HAL_RCC_OscConfig+0x40e>
 8003a7c:	69e3      	ldr	r3, [r4, #28]
 8003a7e:	2b00      	cmp	r3, #0
 8003a80:	d020      	beq.n	8003ac4 <HAL_RCC_OscConfig+0x180>
 8003a82:	2238      	movs	r2, #56	@ 0x38
 8003a84:	4d76      	ldr	r5, [pc, #472]	@ (8003c60 <HAL_RCC_OscConfig+0x31c>)
 8003a86:	68a9      	ldr	r1, [r5, #8]
 8003a88:	400a      	ands	r2, r1
 8003a8a:	2a10      	cmp	r2, #16
 8003a8c:	d100      	bne.n	8003a90 <HAL_RCC_OscConfig+0x14c>
 8003a8e:	e11d      	b.n	8003ccc <HAL_RCC_OscConfig+0x388>
 8003a90:	2b02      	cmp	r3, #2
 8003a92:	d100      	bne.n	8003a96 <HAL_RCC_OscConfig+0x152>
 8003a94:	e163      	b.n	8003d5e <HAL_RCC_OscConfig+0x41a>
 8003a96:	682b      	ldr	r3, [r5, #0]
 8003a98:	4a79      	ldr	r2, [pc, #484]	@ (8003c80 <HAL_RCC_OscConfig+0x33c>)
 8003a9a:	2680      	movs	r6, #128	@ 0x80
 8003a9c:	4013      	ands	r3, r2
 8003a9e:	602b      	str	r3, [r5, #0]
 8003aa0:	f7fe fc12 	bl	80022c8 <HAL_GetTick>
 8003aa4:	04b6      	lsls	r6, r6, #18
 8003aa6:	0004      	movs	r4, r0
 8003aa8:	e005      	b.n	8003ab6 <HAL_RCC_OscConfig+0x172>
 8003aaa:	f7fe fc0d 	bl	80022c8 <HAL_GetTick>
 8003aae:	1b00      	subs	r0, r0, r4
 8003ab0:	2802      	cmp	r0, #2
 8003ab2:	d900      	bls.n	8003ab6 <HAL_RCC_OscConfig+0x172>
 8003ab4:	e0c9      	b.n	8003c4a <HAL_RCC_OscConfig+0x306>
 8003ab6:	682b      	ldr	r3, [r5, #0]
 8003ab8:	4233      	tst	r3, r6
 8003aba:	d1f6      	bne.n	8003aaa <HAL_RCC_OscConfig+0x166>
 8003abc:	68eb      	ldr	r3, [r5, #12]
 8003abe:	4a71      	ldr	r2, [pc, #452]	@ (8003c84 <HAL_RCC_OscConfig+0x340>)
 8003ac0:	4013      	ands	r3, r2
 8003ac2:	60eb      	str	r3, [r5, #12]
 8003ac4:	2000      	movs	r0, #0
 8003ac6:	e76e      	b.n	80039a6 <HAL_RCC_OscConfig+0x62>
 8003ac8:	2238      	movs	r2, #56	@ 0x38
 8003aca:	4d65      	ldr	r5, [pc, #404]	@ (8003c60 <HAL_RCC_OscConfig+0x31c>)
 8003acc:	68a9      	ldr	r1, [r5, #8]
 8003ace:	400a      	ands	r2, r1
 8003ad0:	2a18      	cmp	r2, #24
 8003ad2:	d043      	beq.n	8003b5c <HAL_RCC_OscConfig+0x218>
 8003ad4:	69a3      	ldr	r3, [r4, #24]
 8003ad6:	2b00      	cmp	r3, #0
 8003ad8:	d100      	bne.n	8003adc <HAL_RCC_OscConfig+0x198>
 8003ada:	e0b8      	b.n	8003c4e <HAL_RCC_OscConfig+0x30a>
 8003adc:	2201      	movs	r2, #1
 8003ade:	6e2b      	ldr	r3, [r5, #96]	@ 0x60
 8003ae0:	2702      	movs	r7, #2
 8003ae2:	4313      	orrs	r3, r2
 8003ae4:	662b      	str	r3, [r5, #96]	@ 0x60
 8003ae6:	f7fe fbef 	bl	80022c8 <HAL_GetTick>
 8003aea:	0006      	movs	r6, r0
 8003aec:	e005      	b.n	8003afa <HAL_RCC_OscConfig+0x1b6>
 8003aee:	f7fe fbeb 	bl	80022c8 <HAL_GetTick>
 8003af2:	1b80      	subs	r0, r0, r6
 8003af4:	2802      	cmp	r0, #2
 8003af6:	d900      	bls.n	8003afa <HAL_RCC_OscConfig+0x1b6>
 8003af8:	e0a7      	b.n	8003c4a <HAL_RCC_OscConfig+0x306>
 8003afa:	6e2b      	ldr	r3, [r5, #96]	@ 0x60
 8003afc:	421f      	tst	r7, r3
 8003afe:	d0f6      	beq.n	8003aee <HAL_RCC_OscConfig+0x1aa>
 8003b00:	6823      	ldr	r3, [r4, #0]
 8003b02:	e773      	b.n	80039ec <HAL_RCC_OscConfig+0xa8>
 8003b04:	43c9      	mvns	r1, r1
 8003b06:	0789      	lsls	r1, r1, #30
 8003b08:	d100      	bne.n	8003b0c <HAL_RCC_OscConfig+0x1c8>
 8003b0a:	e731      	b.n	8003970 <HAL_RCC_OscConfig+0x2c>
 8003b0c:	2280      	movs	r2, #128	@ 0x80
 8003b0e:	6863      	ldr	r3, [r4, #4]
 8003b10:	0252      	lsls	r2, r2, #9
 8003b12:	4293      	cmp	r3, r2
 8003b14:	d02b      	beq.n	8003b6e <HAL_RCC_OscConfig+0x22a>
 8003b16:	21a0      	movs	r1, #160	@ 0xa0
 8003b18:	02c9      	lsls	r1, r1, #11
 8003b1a:	428b      	cmp	r3, r1
 8003b1c:	d100      	bne.n	8003b20 <HAL_RCC_OscConfig+0x1dc>
 8003b1e:	e103      	b.n	8003d28 <HAL_RCC_OscConfig+0x3e4>
 8003b20:	4d4f      	ldr	r5, [pc, #316]	@ (8003c60 <HAL_RCC_OscConfig+0x31c>)
 8003b22:	4959      	ldr	r1, [pc, #356]	@ (8003c88 <HAL_RCC_OscConfig+0x344>)
 8003b24:	682a      	ldr	r2, [r5, #0]
 8003b26:	400a      	ands	r2, r1
 8003b28:	602a      	str	r2, [r5, #0]
 8003b2a:	682a      	ldr	r2, [r5, #0]
 8003b2c:	4957      	ldr	r1, [pc, #348]	@ (8003c8c <HAL_RCC_OscConfig+0x348>)
 8003b2e:	400a      	ands	r2, r1
 8003b30:	602a      	str	r2, [r5, #0]
 8003b32:	2b00      	cmp	r3, #0
 8003b34:	d11f      	bne.n	8003b76 <HAL_RCC_OscConfig+0x232>
 8003b36:	f7fe fbc7 	bl	80022c8 <HAL_GetTick>
 8003b3a:	2780      	movs	r7, #128	@ 0x80
 8003b3c:	0006      	movs	r6, r0
 8003b3e:	02bf      	lsls	r7, r7, #10
 8003b40:	e004      	b.n	8003b4c <HAL_RCC_OscConfig+0x208>
 8003b42:	f7fe fbc1 	bl	80022c8 <HAL_GetTick>
 8003b46:	1b80      	subs	r0, r0, r6
 8003b48:	2864      	cmp	r0, #100	@ 0x64
 8003b4a:	d87e      	bhi.n	8003c4a <HAL_RCC_OscConfig+0x306>
 8003b4c:	682b      	ldr	r3, [r5, #0]
 8003b4e:	423b      	tst	r3, r7
 8003b50:	d1f7      	bne.n	8003b42 <HAL_RCC_OscConfig+0x1fe>
 8003b52:	6823      	ldr	r3, [r4, #0]
 8003b54:	079a      	lsls	r2, r3, #30
 8003b56:	d400      	bmi.n	8003b5a <HAL_RCC_OscConfig+0x216>
 8003b58:	e746      	b.n	80039e8 <HAL_RCC_OscConfig+0xa4>
 8003b5a:	e712      	b.n	8003982 <HAL_RCC_OscConfig+0x3e>
 8003b5c:	6e2a      	ldr	r2, [r5, #96]	@ 0x60
 8003b5e:	0792      	lsls	r2, r2, #30
 8003b60:	d400      	bmi.n	8003b64 <HAL_RCC_OscConfig+0x220>
 8003b62:	e743      	b.n	80039ec <HAL_RCC_OscConfig+0xa8>
 8003b64:	69a2      	ldr	r2, [r4, #24]
 8003b66:	2a00      	cmp	r2, #0
 8003b68:	d000      	beq.n	8003b6c <HAL_RCC_OscConfig+0x228>
 8003b6a:	e73f      	b.n	80039ec <HAL_RCC_OscConfig+0xa8>
 8003b6c:	e71a      	b.n	80039a4 <HAL_RCC_OscConfig+0x60>
 8003b6e:	4a3c      	ldr	r2, [pc, #240]	@ (8003c60 <HAL_RCC_OscConfig+0x31c>)
 8003b70:	6811      	ldr	r1, [r2, #0]
 8003b72:	430b      	orrs	r3, r1
 8003b74:	6013      	str	r3, [r2, #0]
 8003b76:	f7fe fba7 	bl	80022c8 <HAL_GetTick>
 8003b7a:	2680      	movs	r6, #128	@ 0x80
 8003b7c:	0005      	movs	r5, r0
 8003b7e:	4f38      	ldr	r7, [pc, #224]	@ (8003c60 <HAL_RCC_OscConfig+0x31c>)
 8003b80:	02b6      	lsls	r6, r6, #10
 8003b82:	e004      	b.n	8003b8e <HAL_RCC_OscConfig+0x24a>
 8003b84:	f7fe fba0 	bl	80022c8 <HAL_GetTick>
 8003b88:	1b40      	subs	r0, r0, r5
 8003b8a:	2864      	cmp	r0, #100	@ 0x64
 8003b8c:	d85d      	bhi.n	8003c4a <HAL_RCC_OscConfig+0x306>
 8003b8e:	683b      	ldr	r3, [r7, #0]
 8003b90:	4233      	tst	r3, r6
 8003b92:	d0f7      	beq.n	8003b84 <HAL_RCC_OscConfig+0x240>
 8003b94:	6823      	ldr	r3, [r4, #0]
 8003b96:	e7dd      	b.n	8003b54 <HAL_RCC_OscConfig+0x210>
 8003b98:	6dd3      	ldr	r3, [r2, #92]	@ 0x5c
 8003b9a:	079b      	lsls	r3, r3, #30
 8003b9c:	d400      	bmi.n	8003ba0 <HAL_RCC_OscConfig+0x25c>
 8003b9e:	e76d      	b.n	8003a7c <HAL_RCC_OscConfig+0x138>
 8003ba0:	68a3      	ldr	r3, [r4, #8]
 8003ba2:	2b00      	cmp	r3, #0
 8003ba4:	d000      	beq.n	8003ba8 <HAL_RCC_OscConfig+0x264>
 8003ba6:	e769      	b.n	8003a7c <HAL_RCC_OscConfig+0x138>
 8003ba8:	e6fc      	b.n	80039a4 <HAL_RCC_OscConfig+0x60>
 8003baa:	3b0d      	subs	r3, #13
 8003bac:	400b      	ands	r3, r1
 8003bae:	2b02      	cmp	r3, #2
 8003bb0:	d100      	bne.n	8003bb4 <HAL_RCC_OscConfig+0x270>
 8003bb2:	e0c3      	b.n	8003d3c <HAL_RCC_OscConfig+0x3f8>
 8003bb4:	68e3      	ldr	r3, [r4, #12]
 8003bb6:	4d2a      	ldr	r5, [pc, #168]	@ (8003c60 <HAL_RCC_OscConfig+0x31c>)
 8003bb8:	2b00      	cmp	r3, #0
 8003bba:	d073      	beq.n	8003ca4 <HAL_RCC_OscConfig+0x360>
 8003bbc:	682b      	ldr	r3, [r5, #0]
 8003bbe:	4a2a      	ldr	r2, [pc, #168]	@ (8003c68 <HAL_RCC_OscConfig+0x324>)
 8003bc0:	2780      	movs	r7, #128	@ 0x80
 8003bc2:	4013      	ands	r3, r2
 8003bc4:	6922      	ldr	r2, [r4, #16]
 8003bc6:	00ff      	lsls	r7, r7, #3
 8003bc8:	4313      	orrs	r3, r2
 8003bca:	602b      	str	r3, [r5, #0]
 8003bcc:	2380      	movs	r3, #128	@ 0x80
 8003bce:	682a      	ldr	r2, [r5, #0]
 8003bd0:	005b      	lsls	r3, r3, #1
 8003bd2:	4313      	orrs	r3, r2
 8003bd4:	602b      	str	r3, [r5, #0]
 8003bd6:	f7fe fb77 	bl	80022c8 <HAL_GetTick>
 8003bda:	0006      	movs	r6, r0
 8003bdc:	e004      	b.n	8003be8 <HAL_RCC_OscConfig+0x2a4>
 8003bde:	f7fe fb73 	bl	80022c8 <HAL_GetTick>
 8003be2:	1b80      	subs	r0, r0, r6
 8003be4:	2802      	cmp	r0, #2
 8003be6:	d830      	bhi.n	8003c4a <HAL_RCC_OscConfig+0x306>
 8003be8:	682b      	ldr	r3, [r5, #0]
 8003bea:	423b      	tst	r3, r7
 8003bec:	d0f7      	beq.n	8003bde <HAL_RCC_OscConfig+0x29a>
 8003bee:	686a      	ldr	r2, [r5, #4]
 8003bf0:	6963      	ldr	r3, [r4, #20]
 8003bf2:	491c      	ldr	r1, [pc, #112]	@ (8003c64 <HAL_RCC_OscConfig+0x320>)
 8003bf4:	021b      	lsls	r3, r3, #8
 8003bf6:	400a      	ands	r2, r1
 8003bf8:	4313      	orrs	r3, r2
 8003bfa:	606b      	str	r3, [r5, #4]
 8003bfc:	6823      	ldr	r3, [r4, #0]
 8003bfe:	e6f3      	b.n	80039e8 <HAL_RCC_OscConfig+0xa4>
 8003c00:	4917      	ldr	r1, [pc, #92]	@ (8003c60 <HAL_RCC_OscConfig+0x31c>)
 8003c02:	6dca      	ldr	r2, [r1, #92]	@ 0x5c
 8003c04:	4313      	orrs	r3, r2
 8003c06:	65cb      	str	r3, [r1, #92]	@ 0x5c
 8003c08:	f7fe fb5e 	bl	80022c8 <HAL_GetTick>
 8003c0c:	4b14      	ldr	r3, [pc, #80]	@ (8003c60 <HAL_RCC_OscConfig+0x31c>)
 8003c0e:	0006      	movs	r6, r0
 8003c10:	4698      	mov	r8, r3
 8003c12:	2702      	movs	r7, #2
 8003c14:	4d19      	ldr	r5, [pc, #100]	@ (8003c7c <HAL_RCC_OscConfig+0x338>)
 8003c16:	e004      	b.n	8003c22 <HAL_RCC_OscConfig+0x2de>
 8003c18:	f7fe fb56 	bl	80022c8 <HAL_GetTick>
 8003c1c:	1b80      	subs	r0, r0, r6
 8003c1e:	42a8      	cmp	r0, r5
 8003c20:	d813      	bhi.n	8003c4a <HAL_RCC_OscConfig+0x306>
 8003c22:	4643      	mov	r3, r8
 8003c24:	6ddb      	ldr	r3, [r3, #92]	@ 0x5c
 8003c26:	421f      	tst	r7, r3
 8003c28:	d0f6      	beq.n	8003c18 <HAL_RCC_OscConfig+0x2d4>
 8003c2a:	e723      	b.n	8003a74 <HAL_RCC_OscConfig+0x130>
 8003c2c:	6833      	ldr	r3, [r6, #0]
 8003c2e:	433b      	orrs	r3, r7
 8003c30:	6033      	str	r3, [r6, #0]
 8003c32:	f7fe fb49 	bl	80022c8 <HAL_GetTick>
 8003c36:	0005      	movs	r5, r0
 8003c38:	6833      	ldr	r3, [r6, #0]
 8003c3a:	423b      	tst	r3, r7
 8003c3c:	d000      	beq.n	8003c40 <HAL_RCC_OscConfig+0x2fc>
 8003c3e:	e6f5      	b.n	8003a2c <HAL_RCC_OscConfig+0xe8>
 8003c40:	f7fe fb42 	bl	80022c8 <HAL_GetTick>
 8003c44:	1b40      	subs	r0, r0, r5
 8003c46:	2802      	cmp	r0, #2
 8003c48:	d9f6      	bls.n	8003c38 <HAL_RCC_OscConfig+0x2f4>
 8003c4a:	2003      	movs	r0, #3
 8003c4c:	e6ab      	b.n	80039a6 <HAL_RCC_OscConfig+0x62>
 8003c4e:	2201      	movs	r2, #1
 8003c50:	6e2b      	ldr	r3, [r5, #96]	@ 0x60
 8003c52:	2702      	movs	r7, #2
 8003c54:	4393      	bics	r3, r2
 8003c56:	662b      	str	r3, [r5, #96]	@ 0x60
 8003c58:	f7fe fb36 	bl	80022c8 <HAL_GetTick>
 8003c5c:	0006      	movs	r6, r0
 8003c5e:	e01c      	b.n	8003c9a <HAL_RCC_OscConfig+0x356>
 8003c60:	40021000 	.word	0x40021000
 8003c64:	ffff80ff 	.word	0xffff80ff
 8003c68:	ffffc7ff 	.word	0xffffc7ff
 8003c6c:	00f42400 	.word	0x00f42400
 8003c70:	20000414 	.word	0x20000414
 8003c74:	2000041c 	.word	0x2000041c
 8003c78:	40007000 	.word	0x40007000
 8003c7c:	00001388 	.word	0x00001388
 8003c80:	feffffff 	.word	0xfeffffff
 8003c84:	eefefffc 	.word	0xeefefffc
 8003c88:	fffeffff 	.word	0xfffeffff
 8003c8c:	fffbffff 	.word	0xfffbffff
 8003c90:	f7fe fb1a 	bl	80022c8 <HAL_GetTick>
 8003c94:	1b80      	subs	r0, r0, r6
 8003c96:	2802      	cmp	r0, #2
 8003c98:	d8d7      	bhi.n	8003c4a <HAL_RCC_OscConfig+0x306>
 8003c9a:	6e2b      	ldr	r3, [r5, #96]	@ 0x60
 8003c9c:	421f      	tst	r7, r3
 8003c9e:	d1f7      	bne.n	8003c90 <HAL_RCC_OscConfig+0x34c>
 8003ca0:	6823      	ldr	r3, [r4, #0]
 8003ca2:	e6a3      	b.n	80039ec <HAL_RCC_OscConfig+0xa8>
 8003ca4:	682b      	ldr	r3, [r5, #0]
 8003ca6:	4a55      	ldr	r2, [pc, #340]	@ (8003dfc <HAL_RCC_OscConfig+0x4b8>)
 8003ca8:	2780      	movs	r7, #128	@ 0x80
 8003caa:	4013      	ands	r3, r2
 8003cac:	602b      	str	r3, [r5, #0]
 8003cae:	f7fe fb0b 	bl	80022c8 <HAL_GetTick>
 8003cb2:	00ff      	lsls	r7, r7, #3
 8003cb4:	0006      	movs	r6, r0
 8003cb6:	e004      	b.n	8003cc2 <HAL_RCC_OscConfig+0x37e>
 8003cb8:	f7fe fb06 	bl	80022c8 <HAL_GetTick>
 8003cbc:	1b80      	subs	r0, r0, r6
 8003cbe:	2802      	cmp	r0, #2
 8003cc0:	d8c3      	bhi.n	8003c4a <HAL_RCC_OscConfig+0x306>
 8003cc2:	682b      	ldr	r3, [r5, #0]
 8003cc4:	423b      	tst	r3, r7
 8003cc6:	d1f7      	bne.n	8003cb8 <HAL_RCC_OscConfig+0x374>
 8003cc8:	6823      	ldr	r3, [r4, #0]
 8003cca:	e68d      	b.n	80039e8 <HAL_RCC_OscConfig+0xa4>
 8003ccc:	2b01      	cmp	r3, #1
 8003cce:	d100      	bne.n	8003cd2 <HAL_RCC_OscConfig+0x38e>
 8003cd0:	e668      	b.n	80039a4 <HAL_RCC_OscConfig+0x60>
 8003cd2:	2203      	movs	r2, #3
 8003cd4:	68e8      	ldr	r0, [r5, #12]
 8003cd6:	6a21      	ldr	r1, [r4, #32]
 8003cd8:	4002      	ands	r2, r0
 8003cda:	428a      	cmp	r2, r1
 8003cdc:	d000      	beq.n	8003ce0 <HAL_RCC_OscConfig+0x39c>
 8003cde:	e661      	b.n	80039a4 <HAL_RCC_OscConfig+0x60>
 8003ce0:	2270      	movs	r2, #112	@ 0x70
 8003ce2:	6a61      	ldr	r1, [r4, #36]	@ 0x24
 8003ce4:	4002      	ands	r2, r0
 8003ce6:	428a      	cmp	r2, r1
 8003ce8:	d000      	beq.n	8003cec <HAL_RCC_OscConfig+0x3a8>
 8003cea:	e65b      	b.n	80039a4 <HAL_RCC_OscConfig+0x60>
 8003cec:	21fe      	movs	r1, #254	@ 0xfe
 8003cee:	6aa2      	ldr	r2, [r4, #40]	@ 0x28
 8003cf0:	01c9      	lsls	r1, r1, #7
 8003cf2:	4001      	ands	r1, r0
 8003cf4:	0212      	lsls	r2, r2, #8
 8003cf6:	4291      	cmp	r1, r2
 8003cf8:	d000      	beq.n	8003cfc <HAL_RCC_OscConfig+0x3b8>
 8003cfa:	e653      	b.n	80039a4 <HAL_RCC_OscConfig+0x60>
 8003cfc:	22f8      	movs	r2, #248	@ 0xf8
 8003cfe:	6ae1      	ldr	r1, [r4, #44]	@ 0x2c
 8003d00:	0392      	lsls	r2, r2, #14
 8003d02:	4002      	ands	r2, r0
 8003d04:	428a      	cmp	r2, r1
 8003d06:	d000      	beq.n	8003d0a <HAL_RCC_OscConfig+0x3c6>
 8003d08:	e64c      	b.n	80039a4 <HAL_RCC_OscConfig+0x60>
 8003d0a:	22e0      	movs	r2, #224	@ 0xe0
 8003d0c:	6b21      	ldr	r1, [r4, #48]	@ 0x30
 8003d0e:	0512      	lsls	r2, r2, #20
 8003d10:	4002      	ands	r2, r0
 8003d12:	428a      	cmp	r2, r1
 8003d14:	d000      	beq.n	8003d18 <HAL_RCC_OscConfig+0x3d4>
 8003d16:	e645      	b.n	80039a4 <HAL_RCC_OscConfig+0x60>
 8003d18:	6b63      	ldr	r3, [r4, #52]	@ 0x34
 8003d1a:	0f40      	lsrs	r0, r0, #29
 8003d1c:	0740      	lsls	r0, r0, #29
 8003d1e:	1ac0      	subs	r0, r0, r3
 8003d20:	1e43      	subs	r3, r0, #1
 8003d22:	4198      	sbcs	r0, r3
 8003d24:	b2c0      	uxtb	r0, r0
 8003d26:	e63e      	b.n	80039a6 <HAL_RCC_OscConfig+0x62>
 8003d28:	2180      	movs	r1, #128	@ 0x80
 8003d2a:	4b35      	ldr	r3, [pc, #212]	@ (8003e00 <HAL_RCC_OscConfig+0x4bc>)
 8003d2c:	02c9      	lsls	r1, r1, #11
 8003d2e:	6818      	ldr	r0, [r3, #0]
 8003d30:	4301      	orrs	r1, r0
 8003d32:	6019      	str	r1, [r3, #0]
 8003d34:	6819      	ldr	r1, [r3, #0]
 8003d36:	430a      	orrs	r2, r1
 8003d38:	601a      	str	r2, [r3, #0]
 8003d3a:	e71c      	b.n	8003b76 <HAL_RCC_OscConfig+0x232>
 8003d3c:	6813      	ldr	r3, [r2, #0]
 8003d3e:	055b      	lsls	r3, r3, #21
 8003d40:	d457      	bmi.n	8003df2 <HAL_RCC_OscConfig+0x4ae>
 8003d42:	6851      	ldr	r1, [r2, #4]
 8003d44:	6963      	ldr	r3, [r4, #20]
 8003d46:	482f      	ldr	r0, [pc, #188]	@ (8003e04 <HAL_RCC_OscConfig+0x4c0>)
 8003d48:	021b      	lsls	r3, r3, #8
 8003d4a:	4001      	ands	r1, r0
 8003d4c:	430b      	orrs	r3, r1
 8003d4e:	6053      	str	r3, [r2, #4]
 8003d50:	e643      	b.n	80039da <HAL_RCC_OscConfig+0x96>
 8003d52:	4a2b      	ldr	r2, [pc, #172]	@ (8003e00 <HAL_RCC_OscConfig+0x4bc>)
 8003d54:	492c      	ldr	r1, [pc, #176]	@ (8003e08 <HAL_RCC_OscConfig+0x4c4>)
 8003d56:	6bd3      	ldr	r3, [r2, #60]	@ 0x3c
 8003d58:	400b      	ands	r3, r1
 8003d5a:	63d3      	str	r3, [r2, #60]	@ 0x3c
 8003d5c:	e68e      	b.n	8003a7c <HAL_RCC_OscConfig+0x138>
 8003d5e:	682b      	ldr	r3, [r5, #0]
 8003d60:	4a2a      	ldr	r2, [pc, #168]	@ (8003e0c <HAL_RCC_OscConfig+0x4c8>)
 8003d62:	2780      	movs	r7, #128	@ 0x80
 8003d64:	4013      	ands	r3, r2
 8003d66:	602b      	str	r3, [r5, #0]
 8003d68:	f7fe faae 	bl	80022c8 <HAL_GetTick>
 8003d6c:	04bf      	lsls	r7, r7, #18
 8003d6e:	0006      	movs	r6, r0
 8003d70:	e005      	b.n	8003d7e <HAL_RCC_OscConfig+0x43a>
 8003d72:	f7fe faa9 	bl	80022c8 <HAL_GetTick>
 8003d76:	1b80      	subs	r0, r0, r6
 8003d78:	2802      	cmp	r0, #2
 8003d7a:	d900      	bls.n	8003d7e <HAL_RCC_OscConfig+0x43a>
 8003d7c:	e765      	b.n	8003c4a <HAL_RCC_OscConfig+0x306>
 8003d7e:	682b      	ldr	r3, [r5, #0]
 8003d80:	423b      	tst	r3, r7
 8003d82:	d1f6      	bne.n	8003d72 <HAL_RCC_OscConfig+0x42e>
 8003d84:	6a61      	ldr	r1, [r4, #36]	@ 0x24
 8003d86:	6a23      	ldr	r3, [r4, #32]
 8003d88:	68ea      	ldr	r2, [r5, #12]
 8003d8a:	430b      	orrs	r3, r1
 8003d8c:	4920      	ldr	r1, [pc, #128]	@ (8003e10 <HAL_RCC_OscConfig+0x4cc>)
 8003d8e:	4e1c      	ldr	r6, [pc, #112]	@ (8003e00 <HAL_RCC_OscConfig+0x4bc>)
 8003d90:	400a      	ands	r2, r1
 8003d92:	4313      	orrs	r3, r2
 8003d94:	6ae2      	ldr	r2, [r4, #44]	@ 0x2c
 8003d96:	4313      	orrs	r3, r2
 8003d98:	6b22      	ldr	r2, [r4, #48]	@ 0x30
 8003d9a:	4313      	orrs	r3, r2
 8003d9c:	6b62      	ldr	r2, [r4, #52]	@ 0x34
 8003d9e:	4313      	orrs	r3, r2
 8003da0:	6aa2      	ldr	r2, [r4, #40]	@ 0x28
 8003da2:	0212      	lsls	r2, r2, #8
 8003da4:	4313      	orrs	r3, r2
 8003da6:	60eb      	str	r3, [r5, #12]
 8003da8:	2380      	movs	r3, #128	@ 0x80
 8003daa:	682a      	ldr	r2, [r5, #0]
 8003dac:	045b      	lsls	r3, r3, #17
 8003dae:	4313      	orrs	r3, r2
 8003db0:	602b      	str	r3, [r5, #0]
 8003db2:	2380      	movs	r3, #128	@ 0x80
 8003db4:	68ea      	ldr	r2, [r5, #12]
 8003db6:	055b      	lsls	r3, r3, #21
 8003db8:	4313      	orrs	r3, r2
 8003dba:	60eb      	str	r3, [r5, #12]
 8003dbc:	f7fe fa84 	bl	80022c8 <HAL_GetTick>
 8003dc0:	2580      	movs	r5, #128	@ 0x80
 8003dc2:	0004      	movs	r4, r0
 8003dc4:	04ad      	lsls	r5, r5, #18
 8003dc6:	e005      	b.n	8003dd4 <HAL_RCC_OscConfig+0x490>
 8003dc8:	f7fe fa7e 	bl	80022c8 <HAL_GetTick>
 8003dcc:	1b00      	subs	r0, r0, r4
 8003dce:	2802      	cmp	r0, #2
 8003dd0:	d900      	bls.n	8003dd4 <HAL_RCC_OscConfig+0x490>
 8003dd2:	e73a      	b.n	8003c4a <HAL_RCC_OscConfig+0x306>
 8003dd4:	6833      	ldr	r3, [r6, #0]
 8003dd6:	422b      	tst	r3, r5
 8003dd8:	d0f6      	beq.n	8003dc8 <HAL_RCC_OscConfig+0x484>
 8003dda:	2000      	movs	r0, #0
 8003ddc:	e5e3      	b.n	80039a6 <HAL_RCC_OscConfig+0x62>
 8003dde:	2104      	movs	r1, #4
 8003de0:	4b07      	ldr	r3, [pc, #28]	@ (8003e00 <HAL_RCC_OscConfig+0x4bc>)
 8003de2:	6dda      	ldr	r2, [r3, #92]	@ 0x5c
 8003de4:	430a      	orrs	r2, r1
 8003de6:	65da      	str	r2, [r3, #92]	@ 0x5c
 8003de8:	6dda      	ldr	r2, [r3, #92]	@ 0x5c
 8003dea:	3903      	subs	r1, #3
 8003dec:	430a      	orrs	r2, r1
 8003dee:	65da      	str	r2, [r3, #92]	@ 0x5c
 8003df0:	e70a      	b.n	8003c08 <HAL_RCC_OscConfig+0x2c4>
 8003df2:	68e3      	ldr	r3, [r4, #12]
 8003df4:	2b00      	cmp	r3, #0
 8003df6:	d1a4      	bne.n	8003d42 <HAL_RCC_OscConfig+0x3fe>
 8003df8:	e5d4      	b.n	80039a4 <HAL_RCC_OscConfig+0x60>
 8003dfa:	46c0      	nop			@ (mov r8, r8)
 8003dfc:	fffffeff 	.word	0xfffffeff
 8003e00:	40021000 	.word	0x40021000
 8003e04:	ffff80ff 	.word	0xffff80ff
 8003e08:	efffffff 	.word	0xefffffff
 8003e0c:	feffffff 	.word	0xfeffffff
 8003e10:	11c1808c 	.word	0x11c1808c

08003e14 <HAL_RCC_GetSysClockFreq>:
 8003e14:	2338      	movs	r3, #56	@ 0x38
 8003e16:	4a22      	ldr	r2, [pc, #136]	@ (8003ea0 <HAL_RCC_GetSysClockFreq+0x8c>)
 8003e18:	b510      	push	{r4, lr}
 8003e1a:	6891      	ldr	r1, [r2, #8]
 8003e1c:	420b      	tst	r3, r1
 8003e1e:	d105      	bne.n	8003e2c <HAL_RCC_GetSysClockFreq+0x18>
 8003e20:	6813      	ldr	r3, [r2, #0]
 8003e22:	4820      	ldr	r0, [pc, #128]	@ (8003ea4 <HAL_RCC_GetSysClockFreq+0x90>)
 8003e24:	049b      	lsls	r3, r3, #18
 8003e26:	0f5b      	lsrs	r3, r3, #29
 8003e28:	40d8      	lsrs	r0, r3
 8003e2a:	bd10      	pop	{r4, pc}
 8003e2c:	6891      	ldr	r1, [r2, #8]
 8003e2e:	4019      	ands	r1, r3
 8003e30:	2908      	cmp	r1, #8
 8003e32:	d014      	beq.n	8003e5e <HAL_RCC_GetSysClockFreq+0x4a>
 8003e34:	6891      	ldr	r1, [r2, #8]
 8003e36:	4019      	ands	r1, r3
 8003e38:	2910      	cmp	r1, #16
 8003e3a:	d012      	beq.n	8003e62 <HAL_RCC_GetSysClockFreq+0x4e>
 8003e3c:	6891      	ldr	r1, [r2, #8]
 8003e3e:	4019      	ands	r1, r3
 8003e40:	2920      	cmp	r1, #32
 8003e42:	d024      	beq.n	8003e8e <HAL_RCC_GetSysClockFreq+0x7a>
 8003e44:	6890      	ldr	r0, [r2, #8]
 8003e46:	4018      	ands	r0, r3
 8003e48:	3818      	subs	r0, #24
 8003e4a:	1e43      	subs	r3, r0, #1
 8003e4c:	4198      	sbcs	r0, r3
 8003e4e:	4b16      	ldr	r3, [pc, #88]	@ (8003ea8 <HAL_RCC_GetSysClockFreq+0x94>)
 8003e50:	4240      	negs	r0, r0
 8003e52:	4018      	ands	r0, r3
 8003e54:	23fa      	movs	r3, #250	@ 0xfa
 8003e56:	01db      	lsls	r3, r3, #7
 8003e58:	469c      	mov	ip, r3
 8003e5a:	4460      	add	r0, ip
 8003e5c:	e7e5      	b.n	8003e2a <HAL_RCC_GetSysClockFreq+0x16>
 8003e5e:	4813      	ldr	r0, [pc, #76]	@ (8003eac <HAL_RCC_GetSysClockFreq+0x98>)
 8003e60:	e7e3      	b.n	8003e2a <HAL_RCC_GetSysClockFreq+0x16>
 8003e62:	68d3      	ldr	r3, [r2, #12]
 8003e64:	68d1      	ldr	r1, [r2, #12]
 8003e66:	43db      	mvns	r3, r3
 8003e68:	68d4      	ldr	r4, [r2, #12]
 8003e6a:	0649      	lsls	r1, r1, #25
 8003e6c:	0f49      	lsrs	r1, r1, #29
 8003e6e:	0464      	lsls	r4, r4, #17
 8003e70:	3101      	adds	r1, #1
 8003e72:	0e64      	lsrs	r4, r4, #25
 8003e74:	079b      	lsls	r3, r3, #30
 8003e76:	d00d      	beq.n	8003e94 <HAL_RCC_GetSysClockFreq+0x80>
 8003e78:	480a      	ldr	r0, [pc, #40]	@ (8003ea4 <HAL_RCC_GetSysClockFreq+0x90>)
 8003e7a:	f7fc f943 	bl	8000104 <__udivsi3>
 8003e7e:	4360      	muls	r0, r4
 8003e80:	4b07      	ldr	r3, [pc, #28]	@ (8003ea0 <HAL_RCC_GetSysClockFreq+0x8c>)
 8003e82:	68d9      	ldr	r1, [r3, #12]
 8003e84:	0f49      	lsrs	r1, r1, #29
 8003e86:	3101      	adds	r1, #1
 8003e88:	f7fc f93c 	bl	8000104 <__udivsi3>
 8003e8c:	e7cd      	b.n	8003e2a <HAL_RCC_GetSysClockFreq+0x16>
 8003e8e:	2080      	movs	r0, #128	@ 0x80
 8003e90:	0200      	lsls	r0, r0, #8
 8003e92:	e7ca      	b.n	8003e2a <HAL_RCC_GetSysClockFreq+0x16>
 8003e94:	4805      	ldr	r0, [pc, #20]	@ (8003eac <HAL_RCC_GetSysClockFreq+0x98>)
 8003e96:	f7fc f935 	bl	8000104 <__udivsi3>
 8003e9a:	4360      	muls	r0, r4
 8003e9c:	e7f0      	b.n	8003e80 <HAL_RCC_GetSysClockFreq+0x6c>
 8003e9e:	46c0      	nop			@ (mov r8, r8)
 8003ea0:	40021000 	.word	0x40021000
 8003ea4:	00f42400 	.word	0x00f42400
 8003ea8:	ffff8300 	.word	0xffff8300
 8003eac:	007a1200 	.word	0x007a1200

08003eb0 <HAL_RCC_ClockConfig>:
 8003eb0:	b5f8      	push	{r3, r4, r5, r6, r7, lr}
 8003eb2:	46ce      	mov	lr, r9
 8003eb4:	4647      	mov	r7, r8
 8003eb6:	0005      	movs	r5, r0
 8003eb8:	000c      	movs	r4, r1
 8003eba:	b580      	push	{r7, lr}
 8003ebc:	2800      	cmp	r0, #0
 8003ebe:	d026      	beq.n	8003f0e <HAL_RCC_ClockConfig+0x5e>
 8003ec0:	2207      	movs	r2, #7
 8003ec2:	4e57      	ldr	r6, [pc, #348]	@ (8004020 <HAL_RCC_ClockConfig+0x170>)
 8003ec4:	6833      	ldr	r3, [r6, #0]
 8003ec6:	4013      	ands	r3, r2
 8003ec8:	428b      	cmp	r3, r1
 8003eca:	d35e      	bcc.n	8003f8a <HAL_RCC_ClockConfig+0xda>
 8003ecc:	682b      	ldr	r3, [r5, #0]
 8003ece:	079a      	lsls	r2, r3, #30
 8003ed0:	d50e      	bpl.n	8003ef0 <HAL_RCC_ClockConfig+0x40>
 8003ed2:	075a      	lsls	r2, r3, #29
 8003ed4:	d505      	bpl.n	8003ee2 <HAL_RCC_ClockConfig+0x32>
 8003ed6:	22e0      	movs	r2, #224	@ 0xe0
 8003ed8:	4952      	ldr	r1, [pc, #328]	@ (8004024 <HAL_RCC_ClockConfig+0x174>)
 8003eda:	01d2      	lsls	r2, r2, #7
 8003edc:	6888      	ldr	r0, [r1, #8]
 8003ede:	4302      	orrs	r2, r0
 8003ee0:	608a      	str	r2, [r1, #8]
 8003ee2:	4950      	ldr	r1, [pc, #320]	@ (8004024 <HAL_RCC_ClockConfig+0x174>)
 8003ee4:	4850      	ldr	r0, [pc, #320]	@ (8004028 <HAL_RCC_ClockConfig+0x178>)
 8003ee6:	688a      	ldr	r2, [r1, #8]
 8003ee8:	4002      	ands	r2, r0
 8003eea:	68a8      	ldr	r0, [r5, #8]
 8003eec:	4302      	orrs	r2, r0
 8003eee:	608a      	str	r2, [r1, #8]
 8003ef0:	07db      	lsls	r3, r3, #31
 8003ef2:	d52b      	bpl.n	8003f4c <HAL_RCC_ClockConfig+0x9c>
 8003ef4:	686b      	ldr	r3, [r5, #4]
 8003ef6:	4a4b      	ldr	r2, [pc, #300]	@ (8004024 <HAL_RCC_ClockConfig+0x174>)
 8003ef8:	2b01      	cmp	r3, #1
 8003efa:	d100      	bne.n	8003efe <HAL_RCC_ClockConfig+0x4e>
 8003efc:	e07c      	b.n	8003ff8 <HAL_RCC_ClockConfig+0x148>
 8003efe:	2b02      	cmp	r3, #2
 8003f00:	d007      	beq.n	8003f12 <HAL_RCC_ClockConfig+0x62>
 8003f02:	2b00      	cmp	r3, #0
 8003f04:	d000      	beq.n	8003f08 <HAL_RCC_ClockConfig+0x58>
 8003f06:	e07d      	b.n	8004004 <HAL_RCC_ClockConfig+0x154>
 8003f08:	6812      	ldr	r2, [r2, #0]
 8003f0a:	0552      	lsls	r2, r2, #21
 8003f0c:	d404      	bmi.n	8003f18 <HAL_RCC_ClockConfig+0x68>
 8003f0e:	2001      	movs	r0, #1
 8003f10:	e037      	b.n	8003f82 <HAL_RCC_ClockConfig+0xd2>
 8003f12:	6812      	ldr	r2, [r2, #0]
 8003f14:	0192      	lsls	r2, r2, #6
 8003f16:	d5fa      	bpl.n	8003f0e <HAL_RCC_ClockConfig+0x5e>
 8003f18:	2107      	movs	r1, #7
 8003f1a:	4e42      	ldr	r6, [pc, #264]	@ (8004024 <HAL_RCC_ClockConfig+0x174>)
 8003f1c:	68b2      	ldr	r2, [r6, #8]
 8003f1e:	438a      	bics	r2, r1
 8003f20:	4313      	orrs	r3, r2
 8003f22:	60b3      	str	r3, [r6, #8]
 8003f24:	f7fe f9d0 	bl	80022c8 <HAL_GetTick>
 8003f28:	2338      	movs	r3, #56	@ 0x38
 8003f2a:	4698      	mov	r8, r3
 8003f2c:	4b3f      	ldr	r3, [pc, #252]	@ (800402c <HAL_RCC_ClockConfig+0x17c>)
 8003f2e:	0007      	movs	r7, r0
 8003f30:	4699      	mov	r9, r3
 8003f32:	e004      	b.n	8003f3e <HAL_RCC_ClockConfig+0x8e>
 8003f34:	f7fe f9c8 	bl	80022c8 <HAL_GetTick>
 8003f38:	1bc0      	subs	r0, r0, r7
 8003f3a:	4548      	cmp	r0, r9
 8003f3c:	d83b      	bhi.n	8003fb6 <HAL_RCC_ClockConfig+0x106>
 8003f3e:	4643      	mov	r3, r8
 8003f40:	68b2      	ldr	r2, [r6, #8]
 8003f42:	401a      	ands	r2, r3
 8003f44:	686b      	ldr	r3, [r5, #4]
 8003f46:	00db      	lsls	r3, r3, #3
 8003f48:	429a      	cmp	r2, r3
 8003f4a:	d1f3      	bne.n	8003f34 <HAL_RCC_ClockConfig+0x84>
 8003f4c:	2207      	movs	r2, #7
 8003f4e:	4e34      	ldr	r6, [pc, #208]	@ (8004020 <HAL_RCC_ClockConfig+0x170>)
 8003f50:	6833      	ldr	r3, [r6, #0]
 8003f52:	4013      	ands	r3, r2
 8003f54:	42a3      	cmp	r3, r4
 8003f56:	d838      	bhi.n	8003fca <HAL_RCC_ClockConfig+0x11a>
 8003f58:	682b      	ldr	r3, [r5, #0]
 8003f5a:	075b      	lsls	r3, r3, #29
 8003f5c:	d42d      	bmi.n	8003fba <HAL_RCC_ClockConfig+0x10a>
 8003f5e:	f7ff ff59 	bl	8003e14 <HAL_RCC_GetSysClockFreq>
 8003f62:	4b30      	ldr	r3, [pc, #192]	@ (8004024 <HAL_RCC_ClockConfig+0x174>)
 8003f64:	4a32      	ldr	r2, [pc, #200]	@ (8004030 <HAL_RCC_ClockConfig+0x180>)
 8003f66:	689b      	ldr	r3, [r3, #8]
 8003f68:	4932      	ldr	r1, [pc, #200]	@ (8004034 <HAL_RCC_ClockConfig+0x184>)
 8003f6a:	051b      	lsls	r3, r3, #20
 8003f6c:	0f1b      	lsrs	r3, r3, #28
 8003f6e:	009b      	lsls	r3, r3, #2
 8003f70:	589b      	ldr	r3, [r3, r2]
 8003f72:	221f      	movs	r2, #31
 8003f74:	4013      	ands	r3, r2
 8003f76:	40d8      	lsrs	r0, r3
 8003f78:	4b2f      	ldr	r3, [pc, #188]	@ (8004038 <HAL_RCC_ClockConfig+0x188>)
 8003f7a:	6008      	str	r0, [r1, #0]
 8003f7c:	6818      	ldr	r0, [r3, #0]
 8003f7e:	f7fe f95d 	bl	800223c <HAL_InitTick>
 8003f82:	bcc0      	pop	{r6, r7}
 8003f84:	46b9      	mov	r9, r7
 8003f86:	46b0      	mov	r8, r6
 8003f88:	bdf8      	pop	{r3, r4, r5, r6, r7, pc}
 8003f8a:	6833      	ldr	r3, [r6, #0]
 8003f8c:	4393      	bics	r3, r2
 8003f8e:	430b      	orrs	r3, r1
 8003f90:	6033      	str	r3, [r6, #0]
 8003f92:	f7fe f999 	bl	80022c8 <HAL_GetTick>
 8003f96:	2307      	movs	r3, #7
 8003f98:	4698      	mov	r8, r3
 8003f9a:	4b24      	ldr	r3, [pc, #144]	@ (800402c <HAL_RCC_ClockConfig+0x17c>)
 8003f9c:	0007      	movs	r7, r0
 8003f9e:	4699      	mov	r9, r3
 8003fa0:	4642      	mov	r2, r8
 8003fa2:	6833      	ldr	r3, [r6, #0]
 8003fa4:	4013      	ands	r3, r2
 8003fa6:	42a3      	cmp	r3, r4
 8003fa8:	d100      	bne.n	8003fac <HAL_RCC_ClockConfig+0xfc>
 8003faa:	e78f      	b.n	8003ecc <HAL_RCC_ClockConfig+0x1c>
 8003fac:	f7fe f98c 	bl	80022c8 <HAL_GetTick>
 8003fb0:	1bc0      	subs	r0, r0, r7
 8003fb2:	4548      	cmp	r0, r9
 8003fb4:	d9f4      	bls.n	8003fa0 <HAL_RCC_ClockConfig+0xf0>
 8003fb6:	2003      	movs	r0, #3
 8003fb8:	e7e3      	b.n	8003f82 <HAL_RCC_ClockConfig+0xd2>
 8003fba:	4a1a      	ldr	r2, [pc, #104]	@ (8004024 <HAL_RCC_ClockConfig+0x174>)
 8003fbc:	491f      	ldr	r1, [pc, #124]	@ (800403c <HAL_RCC_ClockConfig+0x18c>)
 8003fbe:	6893      	ldr	r3, [r2, #8]
 8003fc0:	400b      	ands	r3, r1
 8003fc2:	68e9      	ldr	r1, [r5, #12]
 8003fc4:	430b      	orrs	r3, r1
 8003fc6:	6093      	str	r3, [r2, #8]
 8003fc8:	e7c9      	b.n	8003f5e <HAL_RCC_ClockConfig+0xae>
 8003fca:	6833      	ldr	r3, [r6, #0]
 8003fcc:	4393      	bics	r3, r2
 8003fce:	4323      	orrs	r3, r4
 8003fd0:	6033      	str	r3, [r6, #0]
 8003fd2:	f7fe f979 	bl	80022c8 <HAL_GetTick>
 8003fd6:	2307      	movs	r3, #7
 8003fd8:	4698      	mov	r8, r3
 8003fda:	4b14      	ldr	r3, [pc, #80]	@ (800402c <HAL_RCC_ClockConfig+0x17c>)
 8003fdc:	0007      	movs	r7, r0
 8003fde:	4699      	mov	r9, r3
 8003fe0:	4642      	mov	r2, r8
 8003fe2:	6833      	ldr	r3, [r6, #0]
 8003fe4:	4013      	ands	r3, r2
 8003fe6:	42a3      	cmp	r3, r4
 8003fe8:	d0b6      	beq.n	8003f58 <HAL_RCC_ClockConfig+0xa8>
 8003fea:	f7fe f96d 	bl	80022c8 <HAL_GetTick>
 8003fee:	1bc0      	subs	r0, r0, r7
 8003ff0:	4548      	cmp	r0, r9
 8003ff2:	d9f5      	bls.n	8003fe0 <HAL_RCC_ClockConfig+0x130>
 8003ff4:	2003      	movs	r0, #3
 8003ff6:	e7c4      	b.n	8003f82 <HAL_RCC_ClockConfig+0xd2>
 8003ff8:	6812      	ldr	r2, [r2, #0]
 8003ffa:	0392      	lsls	r2, r2, #14
 8003ffc:	d500      	bpl.n	8004000 <HAL_RCC_ClockConfig+0x150>
 8003ffe:	e78b      	b.n	8003f18 <HAL_RCC_ClockConfig+0x68>
 8004000:	2001      	movs	r0, #1
 8004002:	e7be      	b.n	8003f82 <HAL_RCC_ClockConfig+0xd2>
 8004004:	2b03      	cmp	r3, #3
 8004006:	d005      	beq.n	8004014 <HAL_RCC_ClockConfig+0x164>
 8004008:	6dd2      	ldr	r2, [r2, #92]	@ 0x5c
 800400a:	0792      	lsls	r2, r2, #30
 800400c:	d500      	bpl.n	8004010 <HAL_RCC_ClockConfig+0x160>
 800400e:	e783      	b.n	8003f18 <HAL_RCC_ClockConfig+0x68>
 8004010:	2001      	movs	r0, #1
 8004012:	e7b6      	b.n	8003f82 <HAL_RCC_ClockConfig+0xd2>
 8004014:	6e12      	ldr	r2, [r2, #96]	@ 0x60
 8004016:	0792      	lsls	r2, r2, #30
 8004018:	d500      	bpl.n	800401c <HAL_RCC_ClockConfig+0x16c>
 800401a:	e77d      	b.n	8003f18 <HAL_RCC_ClockConfig+0x68>
 800401c:	2001      	movs	r0, #1
 800401e:	e7b0      	b.n	8003f82 <HAL_RCC_ClockConfig+0xd2>
 8004020:	40022000 	.word	0x40022000
 8004024:	40021000 	.word	0x40021000
 8004028:	fffff0ff 	.word	0xfffff0ff
 800402c:	00001388 	.word	0x00001388
 8004030:	080071a8 	.word	0x080071a8
 8004034:	20000414 	.word	0x20000414
 8004038:	2000041c 	.word	0x2000041c
 800403c:	ffff8fff 	.word	0xffff8fff

08004040 <HAL_RCC_GetPCLK1Freq>:
 8004040:	4b06      	ldr	r3, [pc, #24]	@ (800405c <HAL_RCC_GetPCLK1Freq+0x1c>)
 8004042:	4907      	ldr	r1, [pc, #28]	@ (8004060 <HAL_RCC_GetPCLK1Freq+0x20>)
 8004044:	689b      	ldr	r3, [r3, #8]
 8004046:	4a07      	ldr	r2, [pc, #28]	@ (8004064 <HAL_RCC_GetPCLK1Freq+0x24>)
 8004048:	045b      	lsls	r3, r3, #17
 800404a:	0f5b      	lsrs	r3, r3, #29
 800404c:	009b      	lsls	r3, r3, #2
 800404e:	585b      	ldr	r3, [r3, r1]
 8004050:	211f      	movs	r1, #31
 8004052:	6810      	ldr	r0, [r2, #0]
 8004054:	400b      	ands	r3, r1
 8004056:	40d8      	lsrs	r0, r3
 8004058:	4770      	bx	lr
 800405a:	46c0      	nop			@ (mov r8, r8)
 800405c:	40021000 	.word	0x40021000
 8004060:	08007188 	.word	0x08007188
 8004064:	20000414 	.word	0x20000414

08004068 <HAL_RCCEx_PeriphCLKConfig>:
 8004068:	b5f0      	push	{r4, r5, r6, r7, lr}
 800406a:	46d6      	mov	lr, sl
 800406c:	464f      	mov	r7, r9
 800406e:	4646      	mov	r6, r8
 8004070:	b5c0      	push	{r6, r7, lr}
 8004072:	6803      	ldr	r3, [r0, #0]
 8004074:	0004      	movs	r4, r0
 8004076:	b082      	sub	sp, #8
 8004078:	2000      	movs	r0, #0
 800407a:	039a      	lsls	r2, r3, #14
 800407c:	d552      	bpl.n	8004124 <HAL_RCCEx_PeriphCLKConfig+0xbc>
 800407e:	2280      	movs	r2, #128	@ 0x80
 8004080:	4b69      	ldr	r3, [pc, #420]	@ (8004228 <HAL_RCCEx_PeriphCLKConfig+0x1c0>)
 8004082:	0552      	lsls	r2, r2, #21
 8004084:	6bd9      	ldr	r1, [r3, #60]	@ 0x3c
 8004086:	4682      	mov	sl, r0
 8004088:	4211      	tst	r1, r2
 800408a:	d100      	bne.n	800408e <HAL_RCCEx_PeriphCLKConfig+0x26>
 800408c:	e0a4      	b.n	80041d8 <HAL_RCCEx_PeriphCLKConfig+0x170>
 800408e:	2780      	movs	r7, #128	@ 0x80
 8004090:	4d66      	ldr	r5, [pc, #408]	@ (800422c <HAL_RCCEx_PeriphCLKConfig+0x1c4>)
 8004092:	007f      	lsls	r7, r7, #1
 8004094:	682b      	ldr	r3, [r5, #0]
 8004096:	433b      	orrs	r3, r7
 8004098:	602b      	str	r3, [r5, #0]
 800409a:	f7fe f915 	bl	80022c8 <HAL_GetTick>
 800409e:	0006      	movs	r6, r0
 80040a0:	e005      	b.n	80040ae <HAL_RCCEx_PeriphCLKConfig+0x46>
 80040a2:	f7fe f911 	bl	80022c8 <HAL_GetTick>
 80040a6:	1b80      	subs	r0, r0, r6
 80040a8:	2802      	cmp	r0, #2
 80040aa:	d900      	bls.n	80040ae <HAL_RCCEx_PeriphCLKConfig+0x46>
 80040ac:	e09e      	b.n	80041ec <HAL_RCCEx_PeriphCLKConfig+0x184>
 80040ae:	682b      	ldr	r3, [r5, #0]
 80040b0:	423b      	tst	r3, r7
 80040b2:	d0f6      	beq.n	80040a2 <HAL_RCCEx_PeriphCLKConfig+0x3a>
 80040b4:	4d5c      	ldr	r5, [pc, #368]	@ (8004228 <HAL_RCCEx_PeriphCLKConfig+0x1c0>)
 80040b6:	23c0      	movs	r3, #192	@ 0xc0
 80040b8:	6dea      	ldr	r2, [r5, #92]	@ 0x5c
 80040ba:	009b      	lsls	r3, r3, #2
 80040bc:	0010      	movs	r0, r2
 80040be:	6a61      	ldr	r1, [r4, #36]	@ 0x24
 80040c0:	4018      	ands	r0, r3
 80040c2:	421a      	tst	r2, r3
 80040c4:	d023      	beq.n	800410e <HAL_RCCEx_PeriphCLKConfig+0xa6>
 80040c6:	4288      	cmp	r0, r1
 80040c8:	d021      	beq.n	800410e <HAL_RCCEx_PeriphCLKConfig+0xa6>
 80040ca:	2080      	movs	r0, #128	@ 0x80
 80040cc:	6deb      	ldr	r3, [r5, #92]	@ 0x5c
 80040ce:	6dee      	ldr	r6, [r5, #92]	@ 0x5c
 80040d0:	0240      	lsls	r0, r0, #9
 80040d2:	4330      	orrs	r0, r6
 80040d4:	65e8      	str	r0, [r5, #92]	@ 0x5c
 80040d6:	6de8      	ldr	r0, [r5, #92]	@ 0x5c
 80040d8:	4a55      	ldr	r2, [pc, #340]	@ (8004230 <HAL_RCCEx_PeriphCLKConfig+0x1c8>)
 80040da:	4e56      	ldr	r6, [pc, #344]	@ (8004234 <HAL_RCCEx_PeriphCLKConfig+0x1cc>)
 80040dc:	401a      	ands	r2, r3
 80040de:	4030      	ands	r0, r6
 80040e0:	65e8      	str	r0, [r5, #92]	@ 0x5c
 80040e2:	65ea      	str	r2, [r5, #92]	@ 0x5c
 80040e4:	07db      	lsls	r3, r3, #31
 80040e6:	d512      	bpl.n	800410e <HAL_RCCEx_PeriphCLKConfig+0xa6>
 80040e8:	f7fe f8ee 	bl	80022c8 <HAL_GetTick>
 80040ec:	2302      	movs	r3, #2
 80040ee:	4698      	mov	r8, r3
 80040f0:	4b51      	ldr	r3, [pc, #324]	@ (8004238 <HAL_RCCEx_PeriphCLKConfig+0x1d0>)
 80040f2:	0006      	movs	r6, r0
 80040f4:	4699      	mov	r9, r3
 80040f6:	e005      	b.n	8004104 <HAL_RCCEx_PeriphCLKConfig+0x9c>
 80040f8:	f7fe f8e6 	bl	80022c8 <HAL_GetTick>
 80040fc:	1b80      	subs	r0, r0, r6
 80040fe:	4548      	cmp	r0, r9
 8004100:	d900      	bls.n	8004104 <HAL_RCCEx_PeriphCLKConfig+0x9c>
 8004102:	e073      	b.n	80041ec <HAL_RCCEx_PeriphCLKConfig+0x184>
 8004104:	4642      	mov	r2, r8
 8004106:	6deb      	ldr	r3, [r5, #92]	@ 0x5c
 8004108:	421a      	tst	r2, r3
 800410a:	d0f5      	beq.n	80040f8 <HAL_RCCEx_PeriphCLKConfig+0x90>
 800410c:	6a61      	ldr	r1, [r4, #36]	@ 0x24
 800410e:	4a46      	ldr	r2, [pc, #280]	@ (8004228 <HAL_RCCEx_PeriphCLKConfig+0x1c0>)
 8004110:	4847      	ldr	r0, [pc, #284]	@ (8004230 <HAL_RCCEx_PeriphCLKConfig+0x1c8>)
 8004112:	6dd3      	ldr	r3, [r2, #92]	@ 0x5c
 8004114:	4003      	ands	r3, r0
 8004116:	430b      	orrs	r3, r1
 8004118:	65d3      	str	r3, [r2, #92]	@ 0x5c
 800411a:	4652      	mov	r2, sl
 800411c:	2000      	movs	r0, #0
 800411e:	6823      	ldr	r3, [r4, #0]
 8004120:	2a01      	cmp	r2, #1
 8004122:	d068      	beq.n	80041f6 <HAL_RCCEx_PeriphCLKConfig+0x18e>
 8004124:	07da      	lsls	r2, r3, #31
 8004126:	d506      	bpl.n	8004136 <HAL_RCCEx_PeriphCLKConfig+0xce>
 8004128:	2503      	movs	r5, #3
 800412a:	493f      	ldr	r1, [pc, #252]	@ (8004228 <HAL_RCCEx_PeriphCLKConfig+0x1c0>)
 800412c:	6d4a      	ldr	r2, [r1, #84]	@ 0x54
 800412e:	43aa      	bics	r2, r5
 8004130:	6865      	ldr	r5, [r4, #4]
 8004132:	432a      	orrs	r2, r5
 8004134:	654a      	str	r2, [r1, #84]	@ 0x54
 8004136:	06da      	lsls	r2, r3, #27
 8004138:	d506      	bpl.n	8004148 <HAL_RCCEx_PeriphCLKConfig+0xe0>
 800413a:	493b      	ldr	r1, [pc, #236]	@ (8004228 <HAL_RCCEx_PeriphCLKConfig+0x1c0>)
 800413c:	4d3f      	ldr	r5, [pc, #252]	@ (800423c <HAL_RCCEx_PeriphCLKConfig+0x1d4>)
 800413e:	6d4a      	ldr	r2, [r1, #84]	@ 0x54
 8004140:	402a      	ands	r2, r5
 8004142:	68a5      	ldr	r5, [r4, #8]
 8004144:	432a      	orrs	r2, r5
 8004146:	654a      	str	r2, [r1, #84]	@ 0x54
 8004148:	059a      	lsls	r2, r3, #22
 800414a:	d506      	bpl.n	800415a <HAL_RCCEx_PeriphCLKConfig+0xf2>
 800414c:	4936      	ldr	r1, [pc, #216]	@ (8004228 <HAL_RCCEx_PeriphCLKConfig+0x1c0>)
 800414e:	4d3c      	ldr	r5, [pc, #240]	@ (8004240 <HAL_RCCEx_PeriphCLKConfig+0x1d8>)
 8004150:	6d4a      	ldr	r2, [r1, #84]	@ 0x54
 8004152:	402a      	ands	r2, r5
 8004154:	6965      	ldr	r5, [r4, #20]
 8004156:	432a      	orrs	r2, r5
 8004158:	654a      	str	r2, [r1, #84]	@ 0x54
 800415a:	055a      	lsls	r2, r3, #21
 800415c:	d506      	bpl.n	800416c <HAL_RCCEx_PeriphCLKConfig+0x104>
 800415e:	4932      	ldr	r1, [pc, #200]	@ (8004228 <HAL_RCCEx_PeriphCLKConfig+0x1c0>)
 8004160:	4d38      	ldr	r5, [pc, #224]	@ (8004244 <HAL_RCCEx_PeriphCLKConfig+0x1dc>)
 8004162:	6d4a      	ldr	r2, [r1, #84]	@ 0x54
 8004164:	402a      	ands	r2, r5
 8004166:	69a5      	ldr	r5, [r4, #24]
 8004168:	432a      	orrs	r2, r5
 800416a:	654a      	str	r2, [r1, #84]	@ 0x54
 800416c:	069a      	lsls	r2, r3, #26
 800416e:	d506      	bpl.n	800417e <HAL_RCCEx_PeriphCLKConfig+0x116>
 8004170:	492d      	ldr	r1, [pc, #180]	@ (8004228 <HAL_RCCEx_PeriphCLKConfig+0x1c0>)
 8004172:	4d35      	ldr	r5, [pc, #212]	@ (8004248 <HAL_RCCEx_PeriphCLKConfig+0x1e0>)
 8004174:	6d4a      	ldr	r2, [r1, #84]	@ 0x54
 8004176:	402a      	ands	r2, r5
 8004178:	68e5      	ldr	r5, [r4, #12]
 800417a:	432a      	orrs	r2, r5
 800417c:	654a      	str	r2, [r1, #84]	@ 0x54
 800417e:	045a      	lsls	r2, r3, #17
 8004180:	d50a      	bpl.n	8004198 <HAL_RCCEx_PeriphCLKConfig+0x130>
 8004182:	4929      	ldr	r1, [pc, #164]	@ (8004228 <HAL_RCCEx_PeriphCLKConfig+0x1c0>)
 8004184:	69e5      	ldr	r5, [r4, #28]
 8004186:	6d4a      	ldr	r2, [r1, #84]	@ 0x54
 8004188:	0092      	lsls	r2, r2, #2
 800418a:	0892      	lsrs	r2, r2, #2
 800418c:	432a      	orrs	r2, r5
 800418e:	654a      	str	r2, [r1, #84]	@ 0x54
 8004190:	2280      	movs	r2, #128	@ 0x80
 8004192:	05d2      	lsls	r2, r2, #23
 8004194:	4295      	cmp	r5, r2
 8004196:	d034      	beq.n	8004202 <HAL_RCCEx_PeriphCLKConfig+0x19a>
 8004198:	029a      	lsls	r2, r3, #10
 800419a:	d50a      	bpl.n	80041b2 <HAL_RCCEx_PeriphCLKConfig+0x14a>
 800419c:	4922      	ldr	r1, [pc, #136]	@ (8004228 <HAL_RCCEx_PeriphCLKConfig+0x1c0>)
 800419e:	4e2b      	ldr	r6, [pc, #172]	@ (800424c <HAL_RCCEx_PeriphCLKConfig+0x1e4>)
 80041a0:	6d4a      	ldr	r2, [r1, #84]	@ 0x54
 80041a2:	6a25      	ldr	r5, [r4, #32]
 80041a4:	4032      	ands	r2, r6
 80041a6:	432a      	orrs	r2, r5
 80041a8:	654a      	str	r2, [r1, #84]	@ 0x54
 80041aa:	2280      	movs	r2, #128	@ 0x80
 80041ac:	03d2      	lsls	r2, r2, #15
 80041ae:	4295      	cmp	r5, r2
 80041b0:	d02d      	beq.n	800420e <HAL_RCCEx_PeriphCLKConfig+0x1a6>
 80041b2:	051b      	lsls	r3, r3, #20
 80041b4:	d50a      	bpl.n	80041cc <HAL_RCCEx_PeriphCLKConfig+0x164>
 80041b6:	4a1c      	ldr	r2, [pc, #112]	@ (8004228 <HAL_RCCEx_PeriphCLKConfig+0x1c0>)
 80041b8:	6921      	ldr	r1, [r4, #16]
 80041ba:	6d53      	ldr	r3, [r2, #84]	@ 0x54
 80041bc:	4c24      	ldr	r4, [pc, #144]	@ (8004250 <HAL_RCCEx_PeriphCLKConfig+0x1e8>)
 80041be:	4023      	ands	r3, r4
 80041c0:	430b      	orrs	r3, r1
 80041c2:	6553      	str	r3, [r2, #84]	@ 0x54
 80041c4:	2380      	movs	r3, #128	@ 0x80
 80041c6:	01db      	lsls	r3, r3, #7
 80041c8:	4299      	cmp	r1, r3
 80041ca:	d026      	beq.n	800421a <HAL_RCCEx_PeriphCLKConfig+0x1b2>
 80041cc:	b002      	add	sp, #8
 80041ce:	bce0      	pop	{r5, r6, r7}
 80041d0:	46ba      	mov	sl, r7
 80041d2:	46b1      	mov	r9, r6
 80041d4:	46a8      	mov	r8, r5
 80041d6:	bdf0      	pop	{r4, r5, r6, r7, pc}
 80041d8:	6bd9      	ldr	r1, [r3, #60]	@ 0x3c
 80041da:	4311      	orrs	r1, r2
 80041dc:	63d9      	str	r1, [r3, #60]	@ 0x3c
 80041de:	6bdb      	ldr	r3, [r3, #60]	@ 0x3c
 80041e0:	4013      	ands	r3, r2
 80041e2:	9301      	str	r3, [sp, #4]
 80041e4:	9b01      	ldr	r3, [sp, #4]
 80041e6:	2301      	movs	r3, #1
 80041e8:	469a      	mov	sl, r3
 80041ea:	e750      	b.n	800408e <HAL_RCCEx_PeriphCLKConfig+0x26>
 80041ec:	4652      	mov	r2, sl
 80041ee:	2003      	movs	r0, #3
 80041f0:	6823      	ldr	r3, [r4, #0]
 80041f2:	2a01      	cmp	r2, #1
 80041f4:	d196      	bne.n	8004124 <HAL_RCCEx_PeriphCLKConfig+0xbc>
 80041f6:	490c      	ldr	r1, [pc, #48]	@ (8004228 <HAL_RCCEx_PeriphCLKConfig+0x1c0>)
 80041f8:	4d16      	ldr	r5, [pc, #88]	@ (8004254 <HAL_RCCEx_PeriphCLKConfig+0x1ec>)
 80041fa:	6bca      	ldr	r2, [r1, #60]	@ 0x3c
 80041fc:	402a      	ands	r2, r5
 80041fe:	63ca      	str	r2, [r1, #60]	@ 0x3c
 8004200:	e790      	b.n	8004124 <HAL_RCCEx_PeriphCLKConfig+0xbc>
 8004202:	2280      	movs	r2, #128	@ 0x80
 8004204:	68cd      	ldr	r5, [r1, #12]
 8004206:	0252      	lsls	r2, r2, #9
 8004208:	432a      	orrs	r2, r5
 800420a:	60ca      	str	r2, [r1, #12]
 800420c:	e7c4      	b.n	8004198 <HAL_RCCEx_PeriphCLKConfig+0x130>
 800420e:	2280      	movs	r2, #128	@ 0x80
 8004210:	68cd      	ldr	r5, [r1, #12]
 8004212:	0452      	lsls	r2, r2, #17
 8004214:	432a      	orrs	r2, r5
 8004216:	60ca      	str	r2, [r1, #12]
 8004218:	e7cb      	b.n	80041b2 <HAL_RCCEx_PeriphCLKConfig+0x14a>
 800421a:	2380      	movs	r3, #128	@ 0x80
 800421c:	68d1      	ldr	r1, [r2, #12]
 800421e:	025b      	lsls	r3, r3, #9
 8004220:	430b      	orrs	r3, r1
 8004222:	60d3      	str	r3, [r2, #12]
 8004224:	e7d2      	b.n	80041cc <HAL_RCCEx_PeriphCLKConfig+0x164>
 8004226:	46c0      	nop			@ (mov r8, r8)
 8004228:	40021000 	.word	0x40021000
 800422c:	40007000 	.word	0x40007000
 8004230:	fffffcff 	.word	0xfffffcff
 8004234:	fffeffff 	.word	0xfffeffff
 8004238:	00001388 	.word	0x00001388
 800423c:	fffff3ff 	.word	0xfffff3ff
 8004240:	fff3ffff 	.word	0xfff3ffff
 8004244:	ffcfffff 	.word	0xffcfffff
 8004248:	ffffcfff 	.word	0xffffcfff
 800424c:	ffbfffff 	.word	0xffbfffff
 8004250:	ffff3fff 	.word	0xffff3fff
 8004254:	efffffff 	.word	0xefffffff

08004258 <HAL_TIM_OC_MspInit>:
 8004258:	4770      	bx	lr
 800425a:	46c0      	nop			@ (mov r8, r8)

0800425c <HAL_TIM_PWM_MspInit>:
 800425c:	4770      	bx	lr
 800425e:	46c0      	nop			@ (mov r8, r8)

08004260 <HAL_TIM_IC_MspInit>:
 8004260:	4770      	bx	lr
 8004262:	46c0      	nop			@ (mov r8, r8)

08004264 <HAL_TIM_PeriodElapsedCallback>:
 8004264:	4770      	bx	lr
 8004266:	46c0      	nop			@ (mov r8, r8)

08004268 <HAL_TIM_PeriodElapsedHalfCpltCallback>:
 8004268:	4770      	bx	lr
 800426a:	46c0      	nop			@ (mov r8, r8)

0800426c <HAL_TIM_OC_DelayElapsedCallback>:
 800426c:	4770      	bx	lr
 800426e:	46c0      	nop			@ (mov r8, r8)

08004270 <HAL_TIM_IC_CaptureCallback>:
 8004270:	4770      	bx	lr
 8004272:	46c0      	nop			@ (mov r8, r8)

08004274 <HAL_TIM_IC_CaptureHalfCpltCallback>:
 8004274:	4770      	bx	lr
 8004276:	46c0      	nop			@ (mov r8, r8)

08004278 <HAL_TIM_PWM_PulseFinishedCallback>:
 8004278:	4770      	bx	lr
 800427a:	46c0      	nop			@ (mov r8, r8)

0800427c <HAL_TIM_PWM_PulseFinishedHalfCpltCallback>:
 800427c:	4770      	bx	lr
 800427e:	46c0      	nop			@ (mov r8, r8)

08004280 <HAL_TIM_TriggerCallback>:
 8004280:	4770      	bx	lr
 8004282:	46c0      	nop			@ (mov r8, r8)

08004284 <HAL_TIM_TriggerHalfCpltCallback>:
 8004284:	4770      	bx	lr
 8004286:	46c0      	nop			@ (mov r8, r8)

08004288 <HAL_TIM_ErrorCallback>:
 8004288:	4770      	bx	lr
 800428a:	46c0      	nop			@ (mov r8, r8)

0800428c <HAL_TIM_Base_Init>:
 800428c:	b570      	push	{r4, r5, r6, lr}
 800428e:	1e04      	subs	r4, r0, #0
 8004290:	d100      	bne.n	8004294 <HAL_TIM_Base_Init+0x8>
 8004292:	e093      	b.n	80043bc <HAL_TIM_Base_Init+0x130>
 8004294:	233d      	movs	r3, #61	@ 0x3d
 8004296:	5cc3      	ldrb	r3, [r0, r3]
 8004298:	b2da      	uxtb	r2, r3
 800429a:	2b00      	cmp	r3, #0
 800429c:	d130      	bne.n	8004300 <HAL_TIM_Base_Init+0x74>
 800429e:	333c      	adds	r3, #60	@ 0x3c
 80042a0:	54c2      	strb	r2, [r0, r3]
 80042a2:	2284      	movs	r2, #132	@ 0x84
 80042a4:	4b48      	ldr	r3, [pc, #288]	@ (80043c8 <HAL_TIM_Base_Init+0x13c>)
 80042a6:	5083      	str	r3, [r0, r2]
 80042a8:	4b48      	ldr	r3, [pc, #288]	@ (80043cc <HAL_TIM_Base_Init+0x140>)
 80042aa:	3204      	adds	r2, #4
 80042ac:	5083      	str	r3, [r0, r2]
 80042ae:	4b48      	ldr	r3, [pc, #288]	@ (80043d0 <HAL_TIM_Base_Init+0x144>)
 80042b0:	3204      	adds	r2, #4
 80042b2:	5083      	str	r3, [r0, r2]
 80042b4:	4b47      	ldr	r3, [pc, #284]	@ (80043d4 <HAL_TIM_Base_Init+0x148>)
 80042b6:	3204      	adds	r2, #4
 80042b8:	5083      	str	r3, [r0, r2]
 80042ba:	4b47      	ldr	r3, [pc, #284]	@ (80043d8 <HAL_TIM_Base_Init+0x14c>)
 80042bc:	3204      	adds	r2, #4
 80042be:	5083      	str	r3, [r0, r2]
 80042c0:	4b46      	ldr	r3, [pc, #280]	@ (80043dc <HAL_TIM_Base_Init+0x150>)
 80042c2:	3204      	adds	r2, #4
 80042c4:	5083      	str	r3, [r0, r2]
 80042c6:	4b46      	ldr	r3, [pc, #280]	@ (80043e0 <HAL_TIM_Base_Init+0x154>)
 80042c8:	3204      	adds	r2, #4
 80042ca:	5083      	str	r3, [r0, r2]
 80042cc:	4b45      	ldr	r3, [pc, #276]	@ (80043e4 <HAL_TIM_Base_Init+0x158>)
 80042ce:	3204      	adds	r2, #4
 80042d0:	5083      	str	r3, [r0, r2]
 80042d2:	4b45      	ldr	r3, [pc, #276]	@ (80043e8 <HAL_TIM_Base_Init+0x15c>)
 80042d4:	3204      	adds	r2, #4
 80042d6:	5083      	str	r3, [r0, r2]
 80042d8:	4b44      	ldr	r3, [pc, #272]	@ (80043ec <HAL_TIM_Base_Init+0x160>)
 80042da:	3204      	adds	r2, #4
 80042dc:	5083      	str	r3, [r0, r2]
 80042de:	4b44      	ldr	r3, [pc, #272]	@ (80043f0 <HAL_TIM_Base_Init+0x164>)
 80042e0:	3204      	adds	r2, #4
 80042e2:	5083      	str	r3, [r0, r2]
 80042e4:	4b43      	ldr	r3, [pc, #268]	@ (80043f4 <HAL_TIM_Base_Init+0x168>)
 80042e6:	3204      	adds	r2, #4
 80042e8:	5083      	str	r3, [r0, r2]
 80042ea:	4b43      	ldr	r3, [pc, #268]	@ (80043f8 <HAL_TIM_Base_Init+0x16c>)
 80042ec:	3204      	adds	r2, #4
 80042ee:	5083      	str	r3, [r0, r2]
 80042f0:	4b42      	ldr	r3, [pc, #264]	@ (80043fc <HAL_TIM_Base_Init+0x170>)
 80042f2:	3204      	adds	r2, #4
 80042f4:	5083      	str	r3, [r0, r2]
 80042f6:	6cc3      	ldr	r3, [r0, #76]	@ 0x4c
 80042f8:	2b00      	cmp	r3, #0
 80042fa:	d061      	beq.n	80043c0 <HAL_TIM_Base_Init+0x134>
 80042fc:	0020      	movs	r0, r4
 80042fe:	4798      	blx	r3
 8004300:	233d      	movs	r3, #61	@ 0x3d
 8004302:	2202      	movs	r2, #2
 8004304:	54e2      	strb	r2, [r4, r3]
 8004306:	6823      	ldr	r3, [r4, #0]
 8004308:	4e3d      	ldr	r6, [pc, #244]	@ (8004400 <HAL_TIM_Base_Init+0x174>)
 800430a:	681a      	ldr	r2, [r3, #0]
 800430c:	69a5      	ldr	r5, [r4, #24]
 800430e:	6861      	ldr	r1, [r4, #4]
 8004310:	68e0      	ldr	r0, [r4, #12]
 8004312:	42b3      	cmp	r3, r6
 8004314:	d041      	beq.n	800439a <HAL_TIM_Base_Init+0x10e>
 8004316:	2680      	movs	r6, #128	@ 0x80
 8004318:	05f6      	lsls	r6, r6, #23
 800431a:	42b3      	cmp	r3, r6
 800431c:	d034      	beq.n	8004388 <HAL_TIM_Base_Init+0xfc>
 800431e:	4e39      	ldr	r6, [pc, #228]	@ (8004404 <HAL_TIM_Base_Init+0x178>)
 8004320:	42b3      	cmp	r3, r6
 8004322:	d031      	beq.n	8004388 <HAL_TIM_Base_Init+0xfc>
 8004324:	4e38      	ldr	r6, [pc, #224]	@ (8004408 <HAL_TIM_Base_Init+0x17c>)
 8004326:	42b3      	cmp	r3, r6
 8004328:	d032      	beq.n	8004390 <HAL_TIM_Base_Init+0x104>
 800432a:	4e38      	ldr	r6, [pc, #224]	@ (800440c <HAL_TIM_Base_Init+0x180>)
 800432c:	42b3      	cmp	r3, r6
 800432e:	d038      	beq.n	80043a2 <HAL_TIM_Base_Init+0x116>
 8004330:	4e37      	ldr	r6, [pc, #220]	@ (8004410 <HAL_TIM_Base_Init+0x184>)
 8004332:	42b3      	cmp	r3, r6
 8004334:	d035      	beq.n	80043a2 <HAL_TIM_Base_Init+0x116>
 8004336:	2680      	movs	r6, #128	@ 0x80
 8004338:	43b2      	bics	r2, r6
 800433a:	432a      	orrs	r2, r5
 800433c:	601a      	str	r2, [r3, #0]
 800433e:	62d8      	str	r0, [r3, #44]	@ 0x2c
 8004340:	6299      	str	r1, [r3, #40]	@ 0x28
 8004342:	2201      	movs	r2, #1
 8004344:	615a      	str	r2, [r3, #20]
 8004346:	6919      	ldr	r1, [r3, #16]
 8004348:	420a      	tst	r2, r1
 800434a:	d002      	beq.n	8004352 <HAL_TIM_Base_Init+0xc6>
 800434c:	6919      	ldr	r1, [r3, #16]
 800434e:	4391      	bics	r1, r2
 8004350:	6119      	str	r1, [r3, #16]
 8004352:	2301      	movs	r3, #1
 8004354:	2248      	movs	r2, #72	@ 0x48
 8004356:	2000      	movs	r0, #0
 8004358:	54a3      	strb	r3, [r4, r2]
 800435a:	3a0a      	subs	r2, #10
 800435c:	54a3      	strb	r3, [r4, r2]
 800435e:	3201      	adds	r2, #1
 8004360:	54a3      	strb	r3, [r4, r2]
 8004362:	3201      	adds	r2, #1
 8004364:	54a3      	strb	r3, [r4, r2]
 8004366:	3201      	adds	r2, #1
 8004368:	54a3      	strb	r3, [r4, r2]
 800436a:	3201      	adds	r2, #1
 800436c:	54a3      	strb	r3, [r4, r2]
 800436e:	3201      	adds	r2, #1
 8004370:	54a3      	strb	r3, [r4, r2]
 8004372:	3201      	adds	r2, #1
 8004374:	54a3      	strb	r3, [r4, r2]
 8004376:	3201      	adds	r2, #1
 8004378:	54a3      	strb	r3, [r4, r2]
 800437a:	3201      	adds	r2, #1
 800437c:	54a3      	strb	r3, [r4, r2]
 800437e:	3201      	adds	r2, #1
 8004380:	54a3      	strb	r3, [r4, r2]
 8004382:	3a0a      	subs	r2, #10
 8004384:	54a3      	strb	r3, [r4, r2]
 8004386:	bd70      	pop	{r4, r5, r6, pc}
 8004388:	2670      	movs	r6, #112	@ 0x70
 800438a:	43b2      	bics	r2, r6
 800438c:	68a6      	ldr	r6, [r4, #8]
 800438e:	4332      	orrs	r2, r6
 8004390:	4e20      	ldr	r6, [pc, #128]	@ (8004414 <HAL_TIM_Base_Init+0x188>)
 8004392:	4032      	ands	r2, r6
 8004394:	6926      	ldr	r6, [r4, #16]
 8004396:	4332      	orrs	r2, r6
 8004398:	e7cd      	b.n	8004336 <HAL_TIM_Base_Init+0xaa>
 800439a:	2670      	movs	r6, #112	@ 0x70
 800439c:	43b2      	bics	r2, r6
 800439e:	68a6      	ldr	r6, [r4, #8]
 80043a0:	4332      	orrs	r2, r6
 80043a2:	4e1c      	ldr	r6, [pc, #112]	@ (8004414 <HAL_TIM_Base_Init+0x188>)
 80043a4:	4032      	ands	r2, r6
 80043a6:	6926      	ldr	r6, [r4, #16]
 80043a8:	4332      	orrs	r2, r6
 80043aa:	2680      	movs	r6, #128	@ 0x80
 80043ac:	43b2      	bics	r2, r6
 80043ae:	432a      	orrs	r2, r5
 80043b0:	601a      	str	r2, [r3, #0]
 80043b2:	62d8      	str	r0, [r3, #44]	@ 0x2c
 80043b4:	6299      	str	r1, [r3, #40]	@ 0x28
 80043b6:	6962      	ldr	r2, [r4, #20]
 80043b8:	631a      	str	r2, [r3, #48]	@ 0x30
 80043ba:	e7c2      	b.n	8004342 <HAL_TIM_Base_Init+0xb6>
 80043bc:	2001      	movs	r0, #1
 80043be:	e7e2      	b.n	8004386 <HAL_TIM_Base_Init+0xfa>
 80043c0:	4b15      	ldr	r3, [pc, #84]	@ (8004418 <HAL_TIM_Base_Init+0x18c>)
 80043c2:	64c3      	str	r3, [r0, #76]	@ 0x4c
 80043c4:	e79a      	b.n	80042fc <HAL_TIM_Base_Init+0x70>
 80043c6:	46c0      	nop			@ (mov r8, r8)
 80043c8:	08004265 	.word	0x08004265
 80043cc:	08004269 	.word	0x08004269
 80043d0:	08004281 	.word	0x08004281
 80043d4:	08004285 	.word	0x08004285
 80043d8:	08004271 	.word	0x08004271
 80043dc:	08004275 	.word	0x08004275
 80043e0:	0800426d 	.word	0x0800426d
 80043e4:	08004279 	.word	0x08004279
 80043e8:	0800427d 	.word	0x0800427d
 80043ec:	08004289 	.word	0x08004289
 80043f0:	08005af9 	.word	0x08005af9
 80043f4:	08005afd 	.word	0x08005afd
 80043f8:	08005b01 	.word	0x08005b01
 80043fc:	08005b05 	.word	0x08005b05
 8004400:	40012c00 	.word	0x40012c00
 8004404:	40000400 	.word	0x40000400
 8004408:	40002000 	.word	0x40002000
 800440c:	40014400 	.word	0x40014400
 8004410:	40014800 	.word	0x40014800
 8004414:	fffffcff 	.word	0xfffffcff
 8004418:	08001b29 	.word	0x08001b29

0800441c <HAL_TIM_Base_Start>:
 800441c:	213d      	movs	r1, #61	@ 0x3d
 800441e:	b510      	push	{r4, lr}
 8004420:	5c42      	ldrb	r2, [r0, r1]
 8004422:	0003      	movs	r3, r0
 8004424:	b2d4      	uxtb	r4, r2
 8004426:	2001      	movs	r0, #1
 8004428:	2a01      	cmp	r2, #1
 800442a:	d110      	bne.n	800444e <HAL_TIM_Base_Start+0x32>
 800442c:	3201      	adds	r2, #1
 800442e:	545a      	strb	r2, [r3, r1]
 8004430:	681b      	ldr	r3, [r3, #0]
 8004432:	4a0e      	ldr	r2, [pc, #56]	@ (800446c <HAL_TIM_Base_Start+0x50>)
 8004434:	4293      	cmp	r3, r2
 8004436:	d00b      	beq.n	8004450 <HAL_TIM_Base_Start+0x34>
 8004438:	2280      	movs	r2, #128	@ 0x80
 800443a:	05d2      	lsls	r2, r2, #23
 800443c:	4293      	cmp	r3, r2
 800443e:	d007      	beq.n	8004450 <HAL_TIM_Base_Start+0x34>
 8004440:	4a0b      	ldr	r2, [pc, #44]	@ (8004470 <HAL_TIM_Base_Start+0x54>)
 8004442:	4293      	cmp	r3, r2
 8004444:	d004      	beq.n	8004450 <HAL_TIM_Base_Start+0x34>
 8004446:	681a      	ldr	r2, [r3, #0]
 8004448:	4322      	orrs	r2, r4
 800444a:	601a      	str	r2, [r3, #0]
 800444c:	2000      	movs	r0, #0
 800444e:	bd10      	pop	{r4, pc}
 8004450:	689a      	ldr	r2, [r3, #8]
 8004452:	4908      	ldr	r1, [pc, #32]	@ (8004474 <HAL_TIM_Base_Start+0x58>)
 8004454:	400a      	ands	r2, r1
 8004456:	2a06      	cmp	r2, #6
 8004458:	d0f8      	beq.n	800444c <HAL_TIM_Base_Start+0x30>
 800445a:	3907      	subs	r1, #7
 800445c:	428a      	cmp	r2, r1
 800445e:	d0f5      	beq.n	800444c <HAL_TIM_Base_Start+0x30>
 8004460:	2101      	movs	r1, #1
 8004462:	681a      	ldr	r2, [r3, #0]
 8004464:	2000      	movs	r0, #0
 8004466:	430a      	orrs	r2, r1
 8004468:	601a      	str	r2, [r3, #0]
 800446a:	e7f0      	b.n	800444e <HAL_TIM_Base_Start+0x32>
 800446c:	40012c00 	.word	0x40012c00
 8004470:	40000400 	.word	0x40000400
 8004474:	00010007 	.word	0x00010007

08004478 <HAL_TIM_Base_Start_IT>:
 8004478:	213d      	movs	r1, #61	@ 0x3d
 800447a:	b510      	push	{r4, lr}
 800447c:	5c42      	ldrb	r2, [r0, r1]
 800447e:	0003      	movs	r3, r0
 8004480:	b2d4      	uxtb	r4, r2
 8004482:	2001      	movs	r0, #1
 8004484:	2a01      	cmp	r2, #1
 8004486:	d113      	bne.n	80044b0 <HAL_TIM_Base_Start_IT+0x38>
 8004488:	3201      	adds	r2, #1
 800448a:	545a      	strb	r2, [r3, r1]
 800448c:	681b      	ldr	r3, [r3, #0]
 800448e:	68da      	ldr	r2, [r3, #12]
 8004490:	4322      	orrs	r2, r4
 8004492:	60da      	str	r2, [r3, #12]
 8004494:	4a0e      	ldr	r2, [pc, #56]	@ (80044d0 <HAL_TIM_Base_Start_IT+0x58>)
 8004496:	4293      	cmp	r3, r2
 8004498:	d00b      	beq.n	80044b2 <HAL_TIM_Base_Start_IT+0x3a>
 800449a:	2280      	movs	r2, #128	@ 0x80
 800449c:	05d2      	lsls	r2, r2, #23
 800449e:	4293      	cmp	r3, r2
 80044a0:	d007      	beq.n	80044b2 <HAL_TIM_Base_Start_IT+0x3a>
 80044a2:	4a0c      	ldr	r2, [pc, #48]	@ (80044d4 <HAL_TIM_Base_Start_IT+0x5c>)
 80044a4:	4293      	cmp	r3, r2
 80044a6:	d004      	beq.n	80044b2 <HAL_TIM_Base_Start_IT+0x3a>
 80044a8:	681a      	ldr	r2, [r3, #0]
 80044aa:	4322      	orrs	r2, r4
 80044ac:	601a      	str	r2, [r3, #0]
 80044ae:	2000      	movs	r0, #0
 80044b0:	bd10      	pop	{r4, pc}
 80044b2:	689a      	ldr	r2, [r3, #8]
 80044b4:	4908      	ldr	r1, [pc, #32]	@ (80044d8 <HAL_TIM_Base_Start_IT+0x60>)
 80044b6:	400a      	ands	r2, r1
 80044b8:	2a06      	cmp	r2, #6
 80044ba:	d0f8      	beq.n	80044ae <HAL_TIM_Base_Start_IT+0x36>
 80044bc:	3907      	subs	r1, #7
 80044be:	428a      	cmp	r2, r1
 80044c0:	d0f5      	beq.n	80044ae <HAL_TIM_Base_Start_IT+0x36>
 80044c2:	2101      	movs	r1, #1
 80044c4:	681a      	ldr	r2, [r3, #0]
 80044c6:	2000      	movs	r0, #0
 80044c8:	430a      	orrs	r2, r1
 80044ca:	601a      	str	r2, [r3, #0]
 80044cc:	e7f0      	b.n	80044b0 <HAL_TIM_Base_Start_IT+0x38>
 80044ce:	46c0      	nop			@ (mov r8, r8)
 80044d0:	40012c00 	.word	0x40012c00
 80044d4:	40000400 	.word	0x40000400
 80044d8:	00010007 	.word	0x00010007

080044dc <HAL_TIM_OC_Init>:
 80044dc:	b570      	push	{r4, r5, r6, lr}
 80044de:	1e04      	subs	r4, r0, #0
 80044e0:	d100      	bne.n	80044e4 <HAL_TIM_OC_Init+0x8>
 80044e2:	e093      	b.n	800460c <HAL_TIM_OC_Init+0x130>
 80044e4:	233d      	movs	r3, #61	@ 0x3d
 80044e6:	5cc3      	ldrb	r3, [r0, r3]
 80044e8:	b2da      	uxtb	r2, r3
 80044ea:	2b00      	cmp	r3, #0
 80044ec:	d130      	bne.n	8004550 <HAL_TIM_OC_Init+0x74>
 80044ee:	333c      	adds	r3, #60	@ 0x3c
 80044f0:	54c2      	strb	r2, [r0, r3]
 80044f2:	2284      	movs	r2, #132	@ 0x84
 80044f4:	4b48      	ldr	r3, [pc, #288]	@ (8004618 <HAL_TIM_OC_Init+0x13c>)
 80044f6:	5083      	str	r3, [r0, r2]
 80044f8:	4b48      	ldr	r3, [pc, #288]	@ (800461c <HAL_TIM_OC_Init+0x140>)
 80044fa:	3204      	adds	r2, #4
 80044fc:	5083      	str	r3, [r0, r2]
 80044fe:	4b48      	ldr	r3, [pc, #288]	@ (8004620 <HAL_TIM_OC_Init+0x144>)
 8004500:	3204      	adds	r2, #4
 8004502:	5083      	str	r3, [r0, r2]
 8004504:	4b47      	ldr	r3, [pc, #284]	@ (8004624 <HAL_TIM_OC_Init+0x148>)
 8004506:	3204      	adds	r2, #4
 8004508:	5083      	str	r3, [r0, r2]
 800450a:	4b47      	ldr	r3, [pc, #284]	@ (8004628 <HAL_TIM_OC_Init+0x14c>)
 800450c:	3204      	adds	r2, #4
 800450e:	5083      	str	r3, [r0, r2]
 8004510:	4b46      	ldr	r3, [pc, #280]	@ (800462c <HAL_TIM_OC_Init+0x150>)
 8004512:	3204      	adds	r2, #4
 8004514:	5083      	str	r3, [r0, r2]
 8004516:	4b46      	ldr	r3, [pc, #280]	@ (8004630 <HAL_TIM_OC_Init+0x154>)
 8004518:	3204      	adds	r2, #4
 800451a:	5083      	str	r3, [r0, r2]
 800451c:	4b45      	ldr	r3, [pc, #276]	@ (8004634 <HAL_TIM_OC_Init+0x158>)
 800451e:	3204      	adds	r2, #4
 8004520:	5083      	str	r3, [r0, r2]
 8004522:	4b45      	ldr	r3, [pc, #276]	@ (8004638 <HAL_TIM_OC_Init+0x15c>)
 8004524:	3204      	adds	r2, #4
 8004526:	5083      	str	r3, [r0, r2]
 8004528:	4b44      	ldr	r3, [pc, #272]	@ (800463c <HAL_TIM_OC_Init+0x160>)
 800452a:	3204      	adds	r2, #4
 800452c:	5083      	str	r3, [r0, r2]
 800452e:	4b44      	ldr	r3, [pc, #272]	@ (8004640 <HAL_TIM_OC_Init+0x164>)
 8004530:	3204      	adds	r2, #4
 8004532:	5083      	str	r3, [r0, r2]
 8004534:	4b43      	ldr	r3, [pc, #268]	@ (8004644 <HAL_TIM_OC_Init+0x168>)
 8004536:	3204      	adds	r2, #4
 8004538:	5083      	str	r3, [r0, r2]
 800453a:	4b43      	ldr	r3, [pc, #268]	@ (8004648 <HAL_TIM_OC_Init+0x16c>)
 800453c:	3204      	adds	r2, #4
 800453e:	5083      	str	r3, [r0, r2]
 8004540:	4b42      	ldr	r3, [pc, #264]	@ (800464c <HAL_TIM_OC_Init+0x170>)
 8004542:	3204      	adds	r2, #4
 8004544:	5083      	str	r3, [r0, r2]
 8004546:	6dc3      	ldr	r3, [r0, #92]	@ 0x5c
 8004548:	2b00      	cmp	r3, #0
 800454a:	d061      	beq.n	8004610 <HAL_TIM_OC_Init+0x134>
 800454c:	0020      	movs	r0, r4
 800454e:	4798      	blx	r3
 8004550:	233d      	movs	r3, #61	@ 0x3d
 8004552:	2202      	movs	r2, #2
 8004554:	54e2      	strb	r2, [r4, r3]
 8004556:	6823      	ldr	r3, [r4, #0]
 8004558:	4e3d      	ldr	r6, [pc, #244]	@ (8004650 <HAL_TIM_OC_Init+0x174>)
 800455a:	681a      	ldr	r2, [r3, #0]
 800455c:	69a5      	ldr	r5, [r4, #24]
 800455e:	6861      	ldr	r1, [r4, #4]
 8004560:	68e0      	ldr	r0, [r4, #12]
 8004562:	42b3      	cmp	r3, r6
 8004564:	d041      	beq.n	80045ea <HAL_TIM_OC_Init+0x10e>
 8004566:	2680      	movs	r6, #128	@ 0x80
 8004568:	05f6      	lsls	r6, r6, #23
 800456a:	42b3      	cmp	r3, r6
 800456c:	d034      	beq.n	80045d8 <HAL_TIM_OC_Init+0xfc>
 800456e:	4e39      	ldr	r6, [pc, #228]	@ (8004654 <HAL_TIM_OC_Init+0x178>)
 8004570:	42b3      	cmp	r3, r6
 8004572:	d031      	beq.n	80045d8 <HAL_TIM_OC_Init+0xfc>
 8004574:	4e38      	ldr	r6, [pc, #224]	@ (8004658 <HAL_TIM_OC_Init+0x17c>)
 8004576:	42b3      	cmp	r3, r6
 8004578:	d032      	beq.n	80045e0 <HAL_TIM_OC_Init+0x104>
 800457a:	4e38      	ldr	r6, [pc, #224]	@ (800465c <HAL_TIM_OC_Init+0x180>)
 800457c:	42b3      	cmp	r3, r6
 800457e:	d038      	beq.n	80045f2 <HAL_TIM_OC_Init+0x116>
 8004580:	4e37      	ldr	r6, [pc, #220]	@ (8004660 <HAL_TIM_OC_Init+0x184>)
 8004582:	42b3      	cmp	r3, r6
 8004584:	d035      	beq.n	80045f2 <HAL_TIM_OC_Init+0x116>
 8004586:	2680      	movs	r6, #128	@ 0x80
 8004588:	43b2      	bics	r2, r6
 800458a:	432a      	orrs	r2, r5
 800458c:	601a      	str	r2, [r3, #0]
 800458e:	62d8      	str	r0, [r3, #44]	@ 0x2c
 8004590:	6299      	str	r1, [r3, #40]	@ 0x28
 8004592:	2201      	movs	r2, #1
 8004594:	615a      	str	r2, [r3, #20]
 8004596:	6919      	ldr	r1, [r3, #16]
 8004598:	420a      	tst	r2, r1
 800459a:	d002      	beq.n	80045a2 <HAL_TIM_OC_Init+0xc6>
 800459c:	6919      	ldr	r1, [r3, #16]
 800459e:	4391      	bics	r1, r2
 80045a0:	6119      	str	r1, [r3, #16]
 80045a2:	2301      	movs	r3, #1
 80045a4:	2248      	movs	r2, #72	@ 0x48
 80045a6:	2000      	movs	r0, #0
 80045a8:	54a3      	strb	r3, [r4, r2]
 80045aa:	3a0a      	subs	r2, #10
 80045ac:	54a3      	strb	r3, [r4, r2]
 80045ae:	3201      	adds	r2, #1
 80045b0:	54a3      	strb	r3, [r4, r2]
 80045b2:	3201      	adds	r2, #1
 80045b4:	54a3      	strb	r3, [r4, r2]
 80045b6:	3201      	adds	r2, #1
 80045b8:	54a3      	strb	r3, [r4, r2]
 80045ba:	3201      	adds	r2, #1
 80045bc:	54a3      	strb	r3, [r4, r2]
 80045be:	3201      	adds	r2, #1
 80045c0:	54a3      	strb	r3, [r4, r2]
 80045c2:	3201      	adds	r2, #1
 80045c4:	54a3      	strb	r3, [r4, r2]
 80045c6:	3201      	adds	r2, #1
 80045c8:	54a3      	strb	r3, [r4, r2]
 80045ca:	3201      	adds	r2, #1
 80045cc:	54a3      	strb	r3, [r4, r2]
 80045ce:	3201      	adds	r2, #1
 80045d0:	54a3      	strb	r3, [r4, r2]
 80045d2:	3a0a      	subs	r2, #10
 80045d4:	54a3      	strb	r3, [r4, r2]
 80045d6:	bd70      	pop	{r4, r5, r6, pc}
 80045d8:	2670      	movs	r6, #112	@ 0x70
 80045da:	43b2      	bics	r2, r6
 80045dc:	68a6      	ldr	r6, [r4, #8]
 80045de:	4332      	orrs	r2, r6
 80045e0:	4e20      	ldr	r6, [pc, #128]	@ (8004664 <HAL_TIM_OC_Init+0x188>)
 80045e2:	4032      	ands	r2, r6
 80045e4:	6926      	ldr	r6, [r4, #16]
 80045e6:	4332      	orrs	r2, r6
 80045e8:	e7cd      	b.n	8004586 <HAL_TIM_OC_Init+0xaa>
 80045ea:	2670      	movs	r6, #112	@ 0x70
 80045ec:	43b2      	bics	r2, r6
 80045ee:	68a6      	ldr	r6, [r4, #8]
 80045f0:	4332      	orrs	r2, r6
 80045f2:	4e1c      	ldr	r6, [pc, #112]	@ (8004664 <HAL_TIM_OC_Init+0x188>)
 80045f4:	4032      	ands	r2, r6
 80045f6:	6926      	ldr	r6, [r4, #16]
 80045f8:	4332      	orrs	r2, r6
 80045fa:	2680      	movs	r6, #128	@ 0x80
 80045fc:	43b2      	bics	r2, r6
 80045fe:	432a      	orrs	r2, r5
 8004600:	601a      	str	r2, [r3, #0]
 8004602:	62d8      	str	r0, [r3, #44]	@ 0x2c
 8004604:	6299      	str	r1, [r3, #40]	@ 0x28
 8004606:	6962      	ldr	r2, [r4, #20]
 8004608:	631a      	str	r2, [r3, #48]	@ 0x30
 800460a:	e7c2      	b.n	8004592 <HAL_TIM_OC_Init+0xb6>
 800460c:	2001      	movs	r0, #1
 800460e:	e7e2      	b.n	80045d6 <HAL_TIM_OC_Init+0xfa>
 8004610:	4b15      	ldr	r3, [pc, #84]	@ (8004668 <HAL_TIM_OC_Init+0x18c>)
 8004612:	65c3      	str	r3, [r0, #92]	@ 0x5c
 8004614:	e79a      	b.n	800454c <HAL_TIM_OC_Init+0x70>
 8004616:	46c0      	nop			@ (mov r8, r8)
 8004618:	08004265 	.word	0x08004265
 800461c:	08004269 	.word	0x08004269
 8004620:	08004281 	.word	0x08004281
 8004624:	08004285 	.word	0x08004285
 8004628:	08004271 	.word	0x08004271
 800462c:	08004275 	.word	0x08004275
 8004630:	0800426d 	.word	0x0800426d
 8004634:	08004279 	.word	0x08004279
 8004638:	0800427d 	.word	0x0800427d
 800463c:	08004289 	.word	0x08004289
 8004640:	08005af9 	.word	0x08005af9
 8004644:	08005afd 	.word	0x08005afd
 8004648:	08005b01 	.word	0x08005b01
 800464c:	08005b05 	.word	0x08005b05
 8004650:	40012c00 	.word	0x40012c00
 8004654:	40000400 	.word	0x40000400
 8004658:	40002000 	.word	0x40002000
 800465c:	40014400 	.word	0x40014400
 8004660:	40014800 	.word	0x40014800
 8004664:	fffffcff 	.word	0xfffffcff
 8004668:	08004259 	.word	0x08004259

0800466c <HAL_TIM_OC_Start_IT>:
 800466c:	b510      	push	{r4, lr}
 800466e:	2910      	cmp	r1, #16
 8004670:	d803      	bhi.n	800467a <HAL_TIM_OC_Start_IT+0xe>
 8004672:	4a39      	ldr	r2, [pc, #228]	@ (8004758 <HAL_TIM_OC_Start_IT+0xec>)
 8004674:	008b      	lsls	r3, r1, #2
 8004676:	58d3      	ldr	r3, [r2, r3]
 8004678:	469f      	mov	pc, r3
 800467a:	2343      	movs	r3, #67	@ 0x43
 800467c:	5cc2      	ldrb	r2, [r0, r3]
 800467e:	2a01      	cmp	r2, #1
 8004680:	d101      	bne.n	8004686 <HAL_TIM_OC_Start_IT+0x1a>
 8004682:	2202      	movs	r2, #2
 8004684:	54c2      	strb	r2, [r0, r3]
 8004686:	2001      	movs	r0, #1
 8004688:	bd10      	pop	{r4, pc}
 800468a:	233e      	movs	r3, #62	@ 0x3e
 800468c:	5cc2      	ldrb	r2, [r0, r3]
 800468e:	2a01      	cmp	r2, #1
 8004690:	d1f9      	bne.n	8004686 <HAL_TIM_OC_Start_IT+0x1a>
 8004692:	2402      	movs	r4, #2
 8004694:	54c4      	strb	r4, [r0, r3]
 8004696:	6803      	ldr	r3, [r0, #0]
 8004698:	68da      	ldr	r2, [r3, #12]
 800469a:	4322      	orrs	r2, r4
 800469c:	60da      	str	r2, [r3, #12]
 800469e:	221f      	movs	r2, #31
 80046a0:	4011      	ands	r1, r2
 80046a2:	3a1e      	subs	r2, #30
 80046a4:	408a      	lsls	r2, r1
 80046a6:	6a19      	ldr	r1, [r3, #32]
 80046a8:	4391      	bics	r1, r2
 80046aa:	6219      	str	r1, [r3, #32]
 80046ac:	6a19      	ldr	r1, [r3, #32]
 80046ae:	430a      	orrs	r2, r1
 80046b0:	621a      	str	r2, [r3, #32]
 80046b2:	4a2a      	ldr	r2, [pc, #168]	@ (800475c <HAL_TIM_OC_Start_IT+0xf0>)
 80046b4:	4293      	cmp	r3, r2
 80046b6:	d049      	beq.n	800474c <HAL_TIM_OC_Start_IT+0xe0>
 80046b8:	4a29      	ldr	r2, [pc, #164]	@ (8004760 <HAL_TIM_OC_Start_IT+0xf4>)
 80046ba:	4293      	cmp	r3, r2
 80046bc:	d040      	beq.n	8004740 <HAL_TIM_OC_Start_IT+0xd4>
 80046be:	4a29      	ldr	r2, [pc, #164]	@ (8004764 <HAL_TIM_OC_Start_IT+0xf8>)
 80046c0:	4293      	cmp	r3, r2
 80046c2:	d03d      	beq.n	8004740 <HAL_TIM_OC_Start_IT+0xd4>
 80046c4:	2280      	movs	r2, #128	@ 0x80
 80046c6:	05d2      	lsls	r2, r2, #23
 80046c8:	4293      	cmp	r3, r2
 80046ca:	d002      	beq.n	80046d2 <HAL_TIM_OC_Start_IT+0x66>
 80046cc:	4a26      	ldr	r2, [pc, #152]	@ (8004768 <HAL_TIM_OC_Start_IT+0xfc>)
 80046ce:	4293      	cmp	r3, r2
 80046d0:	d107      	bne.n	80046e2 <HAL_TIM_OC_Start_IT+0x76>
 80046d2:	689a      	ldr	r2, [r3, #8]
 80046d4:	4925      	ldr	r1, [pc, #148]	@ (800476c <HAL_TIM_OC_Start_IT+0x100>)
 80046d6:	400a      	ands	r2, r1
 80046d8:	2a06      	cmp	r2, #6
 80046da:	d006      	beq.n	80046ea <HAL_TIM_OC_Start_IT+0x7e>
 80046dc:	3907      	subs	r1, #7
 80046de:	428a      	cmp	r2, r1
 80046e0:	d003      	beq.n	80046ea <HAL_TIM_OC_Start_IT+0x7e>
 80046e2:	2101      	movs	r1, #1
 80046e4:	681a      	ldr	r2, [r3, #0]
 80046e6:	430a      	orrs	r2, r1
 80046e8:	601a      	str	r2, [r3, #0]
 80046ea:	2000      	movs	r0, #0
 80046ec:	e7cc      	b.n	8004688 <HAL_TIM_OC_Start_IT+0x1c>
 80046ee:	233f      	movs	r3, #63	@ 0x3f
 80046f0:	5cc2      	ldrb	r2, [r0, r3]
 80046f2:	2a01      	cmp	r2, #1
 80046f4:	d1c7      	bne.n	8004686 <HAL_TIM_OC_Start_IT+0x1a>
 80046f6:	2202      	movs	r2, #2
 80046f8:	54c2      	strb	r2, [r0, r3]
 80046fa:	6803      	ldr	r3, [r0, #0]
 80046fc:	2004      	movs	r0, #4
 80046fe:	68da      	ldr	r2, [r3, #12]
 8004700:	4302      	orrs	r2, r0
 8004702:	60da      	str	r2, [r3, #12]
 8004704:	e7cb      	b.n	800469e <HAL_TIM_OC_Start_IT+0x32>
 8004706:	2340      	movs	r3, #64	@ 0x40
 8004708:	5cc2      	ldrb	r2, [r0, r3]
 800470a:	2a01      	cmp	r2, #1
 800470c:	d1bb      	bne.n	8004686 <HAL_TIM_OC_Start_IT+0x1a>
 800470e:	2202      	movs	r2, #2
 8004710:	54c2      	strb	r2, [r0, r3]
 8004712:	6803      	ldr	r3, [r0, #0]
 8004714:	2008      	movs	r0, #8
 8004716:	68da      	ldr	r2, [r3, #12]
 8004718:	4302      	orrs	r2, r0
 800471a:	60da      	str	r2, [r3, #12]
 800471c:	e7bf      	b.n	800469e <HAL_TIM_OC_Start_IT+0x32>
 800471e:	2341      	movs	r3, #65	@ 0x41
 8004720:	5cc2      	ldrb	r2, [r0, r3]
 8004722:	2a01      	cmp	r2, #1
 8004724:	d1af      	bne.n	8004686 <HAL_TIM_OC_Start_IT+0x1a>
 8004726:	2202      	movs	r2, #2
 8004728:	54c2      	strb	r2, [r0, r3]
 800472a:	6803      	ldr	r3, [r0, #0]
 800472c:	2010      	movs	r0, #16
 800472e:	68da      	ldr	r2, [r3, #12]
 8004730:	4302      	orrs	r2, r0
 8004732:	60da      	str	r2, [r3, #12]
 8004734:	e7b3      	b.n	800469e <HAL_TIM_OC_Start_IT+0x32>
 8004736:	2342      	movs	r3, #66	@ 0x42
 8004738:	5cc2      	ldrb	r2, [r0, r3]
 800473a:	2a01      	cmp	r2, #1
 800473c:	d0a1      	beq.n	8004682 <HAL_TIM_OC_Start_IT+0x16>
 800473e:	e7a2      	b.n	8004686 <HAL_TIM_OC_Start_IT+0x1a>
 8004740:	2280      	movs	r2, #128	@ 0x80
 8004742:	6c59      	ldr	r1, [r3, #68]	@ 0x44
 8004744:	0212      	lsls	r2, r2, #8
 8004746:	430a      	orrs	r2, r1
 8004748:	645a      	str	r2, [r3, #68]	@ 0x44
 800474a:	e7ca      	b.n	80046e2 <HAL_TIM_OC_Start_IT+0x76>
 800474c:	2280      	movs	r2, #128	@ 0x80
 800474e:	6c59      	ldr	r1, [r3, #68]	@ 0x44
 8004750:	0212      	lsls	r2, r2, #8
 8004752:	430a      	orrs	r2, r1
 8004754:	645a      	str	r2, [r3, #68]	@ 0x44
 8004756:	e7bc      	b.n	80046d2 <HAL_TIM_OC_Start_IT+0x66>
 8004758:	08007238 	.word	0x08007238
 800475c:	40012c00 	.word	0x40012c00
 8004760:	40014400 	.word	0x40014400
 8004764:	40014800 	.word	0x40014800
 8004768:	40000400 	.word	0x40000400
 800476c:	00010007 	.word	0x00010007

08004770 <HAL_TIM_OC_Stop_IT>:
 8004770:	b530      	push	{r4, r5, lr}
 8004772:	2908      	cmp	r1, #8
 8004774:	d004      	beq.n	8004780 <HAL_TIM_OC_Stop_IT+0x10>
 8004776:	d845      	bhi.n	8004804 <HAL_TIM_OC_Stop_IT+0x94>
 8004778:	2900      	cmp	r1, #0
 800477a:	d052      	beq.n	8004822 <HAL_TIM_OC_Stop_IT+0xb2>
 800477c:	2904      	cmp	r1, #4
 800477e:	d14e      	bne.n	800481e <HAL_TIM_OC_Stop_IT+0xae>
 8004780:	6805      	ldr	r5, [r0, #0]
 8004782:	68eb      	ldr	r3, [r5, #12]
 8004784:	438b      	bics	r3, r1
 8004786:	60eb      	str	r3, [r5, #12]
 8004788:	241f      	movs	r4, #31
 800478a:	2201      	movs	r2, #1
 800478c:	400c      	ands	r4, r1
 800478e:	40a2      	lsls	r2, r4
 8004790:	6a2b      	ldr	r3, [r5, #32]
 8004792:	4393      	bics	r3, r2
 8004794:	622b      	str	r3, [r5, #32]
 8004796:	6a2b      	ldr	r3, [r5, #32]
 8004798:	622b      	str	r3, [r5, #32]
 800479a:	4b2f      	ldr	r3, [pc, #188]	@ (8004858 <HAL_TIM_OC_Stop_IT+0xe8>)
 800479c:	429d      	cmp	r5, r3
 800479e:	d020      	beq.n	80047e2 <HAL_TIM_OC_Stop_IT+0x72>
 80047a0:	4b2e      	ldr	r3, [pc, #184]	@ (800485c <HAL_TIM_OC_Stop_IT+0xec>)
 80047a2:	429d      	cmp	r5, r3
 80047a4:	d01d      	beq.n	80047e2 <HAL_TIM_OC_Stop_IT+0x72>
 80047a6:	4b2e      	ldr	r3, [pc, #184]	@ (8004860 <HAL_TIM_OC_Stop_IT+0xf0>)
 80047a8:	429d      	cmp	r5, r3
 80047aa:	d01a      	beq.n	80047e2 <HAL_TIM_OC_Stop_IT+0x72>
 80047ac:	6a2a      	ldr	r2, [r5, #32]
 80047ae:	4b2d      	ldr	r3, [pc, #180]	@ (8004864 <HAL_TIM_OC_Stop_IT+0xf4>)
 80047b0:	421a      	tst	r2, r3
 80047b2:	d107      	bne.n	80047c4 <HAL_TIM_OC_Stop_IT+0x54>
 80047b4:	6a2a      	ldr	r2, [r5, #32]
 80047b6:	4b2c      	ldr	r3, [pc, #176]	@ (8004868 <HAL_TIM_OC_Stop_IT+0xf8>)
 80047b8:	421a      	tst	r2, r3
 80047ba:	d103      	bne.n	80047c4 <HAL_TIM_OC_Stop_IT+0x54>
 80047bc:	2201      	movs	r2, #1
 80047be:	682b      	ldr	r3, [r5, #0]
 80047c0:	4393      	bics	r3, r2
 80047c2:	602b      	str	r3, [r5, #0]
 80047c4:	2900      	cmp	r1, #0
 80047c6:	d025      	beq.n	8004814 <HAL_TIM_OC_Stop_IT+0xa4>
 80047c8:	2904      	cmp	r1, #4
 80047ca:	d035      	beq.n	8004838 <HAL_TIM_OC_Stop_IT+0xc8>
 80047cc:	2908      	cmp	r1, #8
 80047ce:	d02e      	beq.n	800482e <HAL_TIM_OC_Stop_IT+0xbe>
 80047d0:	290c      	cmp	r1, #12
 80047d2:	d036      	beq.n	8004842 <HAL_TIM_OC_Stop_IT+0xd2>
 80047d4:	2910      	cmp	r1, #16
 80047d6:	d039      	beq.n	800484c <HAL_TIM_OC_Stop_IT+0xdc>
 80047d8:	2343      	movs	r3, #67	@ 0x43
 80047da:	2201      	movs	r2, #1
 80047dc:	54c2      	strb	r2, [r0, r3]
 80047de:	2000      	movs	r0, #0
 80047e0:	e01e      	b.n	8004820 <HAL_TIM_OC_Stop_IT+0xb0>
 80047e2:	6a2a      	ldr	r2, [r5, #32]
 80047e4:	4b1f      	ldr	r3, [pc, #124]	@ (8004864 <HAL_TIM_OC_Stop_IT+0xf4>)
 80047e6:	421a      	tst	r2, r3
 80047e8:	d1e0      	bne.n	80047ac <HAL_TIM_OC_Stop_IT+0x3c>
 80047ea:	6a2a      	ldr	r2, [r5, #32]
 80047ec:	4b1e      	ldr	r3, [pc, #120]	@ (8004868 <HAL_TIM_OC_Stop_IT+0xf8>)
 80047ee:	421a      	tst	r2, r3
 80047f0:	d1dc      	bne.n	80047ac <HAL_TIM_OC_Stop_IT+0x3c>
 80047f2:	6c6b      	ldr	r3, [r5, #68]	@ 0x44
 80047f4:	4a1d      	ldr	r2, [pc, #116]	@ (800486c <HAL_TIM_OC_Stop_IT+0xfc>)
 80047f6:	4013      	ands	r3, r2
 80047f8:	646b      	str	r3, [r5, #68]	@ 0x44
 80047fa:	6a2a      	ldr	r2, [r5, #32]
 80047fc:	4b19      	ldr	r3, [pc, #100]	@ (8004864 <HAL_TIM_OC_Stop_IT+0xf4>)
 80047fe:	421a      	tst	r2, r3
 8004800:	d1e0      	bne.n	80047c4 <HAL_TIM_OC_Stop_IT+0x54>
 8004802:	e7d7      	b.n	80047b4 <HAL_TIM_OC_Stop_IT+0x44>
 8004804:	290c      	cmp	r1, #12
 8004806:	d10a      	bne.n	800481e <HAL_TIM_OC_Stop_IT+0xae>
 8004808:	2210      	movs	r2, #16
 800480a:	6805      	ldr	r5, [r0, #0]
 800480c:	68eb      	ldr	r3, [r5, #12]
 800480e:	4393      	bics	r3, r2
 8004810:	60eb      	str	r3, [r5, #12]
 8004812:	e7b9      	b.n	8004788 <HAL_TIM_OC_Stop_IT+0x18>
 8004814:	233e      	movs	r3, #62	@ 0x3e
 8004816:	2201      	movs	r2, #1
 8004818:	54c2      	strb	r2, [r0, r3]
 800481a:	2000      	movs	r0, #0
 800481c:	e000      	b.n	8004820 <HAL_TIM_OC_Stop_IT+0xb0>
 800481e:	2001      	movs	r0, #1
 8004820:	bd30      	pop	{r4, r5, pc}
 8004822:	2202      	movs	r2, #2
 8004824:	6805      	ldr	r5, [r0, #0]
 8004826:	68eb      	ldr	r3, [r5, #12]
 8004828:	4393      	bics	r3, r2
 800482a:	60eb      	str	r3, [r5, #12]
 800482c:	e7ac      	b.n	8004788 <HAL_TIM_OC_Stop_IT+0x18>
 800482e:	2340      	movs	r3, #64	@ 0x40
 8004830:	2201      	movs	r2, #1
 8004832:	54c2      	strb	r2, [r0, r3]
 8004834:	2000      	movs	r0, #0
 8004836:	e7f3      	b.n	8004820 <HAL_TIM_OC_Stop_IT+0xb0>
 8004838:	233f      	movs	r3, #63	@ 0x3f
 800483a:	2201      	movs	r2, #1
 800483c:	54c2      	strb	r2, [r0, r3]
 800483e:	2000      	movs	r0, #0
 8004840:	e7ee      	b.n	8004820 <HAL_TIM_OC_Stop_IT+0xb0>
 8004842:	2341      	movs	r3, #65	@ 0x41
 8004844:	2201      	movs	r2, #1
 8004846:	54c2      	strb	r2, [r0, r3]
 8004848:	2000      	movs	r0, #0
 800484a:	e7e9      	b.n	8004820 <HAL_TIM_OC_Stop_IT+0xb0>
 800484c:	2342      	movs	r3, #66	@ 0x42
 800484e:	2201      	movs	r2, #1
 8004850:	54c2      	strb	r2, [r0, r3]
 8004852:	2000      	movs	r0, #0
 8004854:	e7e4      	b.n	8004820 <HAL_TIM_OC_Stop_IT+0xb0>
 8004856:	46c0      	nop			@ (mov r8, r8)
 8004858:	40012c00 	.word	0x40012c00
 800485c:	40014400 	.word	0x40014400
 8004860:	40014800 	.word	0x40014800
 8004864:	00001111 	.word	0x00001111
 8004868:	00000444 	.word	0x00000444
 800486c:	ffff7fff 	.word	0xffff7fff

08004870 <HAL_TIM_PWM_Init>:
 8004870:	b570      	push	{r4, r5, r6, lr}
 8004872:	1e04      	subs	r4, r0, #0
 8004874:	d100      	bne.n	8004878 <HAL_TIM_PWM_Init+0x8>
 8004876:	e093      	b.n	80049a0 <HAL_TIM_PWM_Init+0x130>
 8004878:	233d      	movs	r3, #61	@ 0x3d
 800487a:	5cc3      	ldrb	r3, [r0, r3]
 800487c:	b2da      	uxtb	r2, r3
 800487e:	2b00      	cmp	r3, #0
 8004880:	d130      	bne.n	80048e4 <HAL_TIM_PWM_Init+0x74>
 8004882:	333c      	adds	r3, #60	@ 0x3c
 8004884:	54c2      	strb	r2, [r0, r3]
 8004886:	2284      	movs	r2, #132	@ 0x84
 8004888:	4b48      	ldr	r3, [pc, #288]	@ (80049ac <HAL_TIM_PWM_Init+0x13c>)
 800488a:	5083      	str	r3, [r0, r2]
 800488c:	4b48      	ldr	r3, [pc, #288]	@ (80049b0 <HAL_TIM_PWM_Init+0x140>)
 800488e:	3204      	adds	r2, #4
 8004890:	5083      	str	r3, [r0, r2]
 8004892:	4b48      	ldr	r3, [pc, #288]	@ (80049b4 <HAL_TIM_PWM_Init+0x144>)
 8004894:	3204      	adds	r2, #4
 8004896:	5083      	str	r3, [r0, r2]
 8004898:	4b47      	ldr	r3, [pc, #284]	@ (80049b8 <HAL_TIM_PWM_Init+0x148>)
 800489a:	3204      	adds	r2, #4
 800489c:	5083      	str	r3, [r0, r2]
 800489e:	4b47      	ldr	r3, [pc, #284]	@ (80049bc <HAL_TIM_PWM_Init+0x14c>)
 80048a0:	3204      	adds	r2, #4
 80048a2:	5083      	str	r3, [r0, r2]
 80048a4:	4b46      	ldr	r3, [pc, #280]	@ (80049c0 <HAL_TIM_PWM_Init+0x150>)
 80048a6:	3204      	adds	r2, #4
 80048a8:	5083      	str	r3, [r0, r2]
 80048aa:	4b46      	ldr	r3, [pc, #280]	@ (80049c4 <HAL_TIM_PWM_Init+0x154>)
 80048ac:	3204      	adds	r2, #4
 80048ae:	5083      	str	r3, [r0, r2]
 80048b0:	4b45      	ldr	r3, [pc, #276]	@ (80049c8 <HAL_TIM_PWM_Init+0x158>)
 80048b2:	3204      	adds	r2, #4
 80048b4:	5083      	str	r3, [r0, r2]
 80048b6:	4b45      	ldr	r3, [pc, #276]	@ (80049cc <HAL_TIM_PWM_Init+0x15c>)
 80048b8:	3204      	adds	r2, #4
 80048ba:	5083      	str	r3, [r0, r2]
 80048bc:	4b44      	ldr	r3, [pc, #272]	@ (80049d0 <HAL_TIM_PWM_Init+0x160>)
 80048be:	3204      	adds	r2, #4
 80048c0:	5083      	str	r3, [r0, r2]
 80048c2:	4b44      	ldr	r3, [pc, #272]	@ (80049d4 <HAL_TIM_PWM_Init+0x164>)
 80048c4:	3204      	adds	r2, #4
 80048c6:	5083      	str	r3, [r0, r2]
 80048c8:	4b43      	ldr	r3, [pc, #268]	@ (80049d8 <HAL_TIM_PWM_Init+0x168>)
 80048ca:	3204      	adds	r2, #4
 80048cc:	5083      	str	r3, [r0, r2]
 80048ce:	4b43      	ldr	r3, [pc, #268]	@ (80049dc <HAL_TIM_PWM_Init+0x16c>)
 80048d0:	3204      	adds	r2, #4
 80048d2:	5083      	str	r3, [r0, r2]
 80048d4:	4b42      	ldr	r3, [pc, #264]	@ (80049e0 <HAL_TIM_PWM_Init+0x170>)
 80048d6:	3204      	adds	r2, #4
 80048d8:	5083      	str	r3, [r0, r2]
 80048da:	6e43      	ldr	r3, [r0, #100]	@ 0x64
 80048dc:	2b00      	cmp	r3, #0
 80048de:	d061      	beq.n	80049a4 <HAL_TIM_PWM_Init+0x134>
 80048e0:	0020      	movs	r0, r4
 80048e2:	4798      	blx	r3
 80048e4:	233d      	movs	r3, #61	@ 0x3d
 80048e6:	2202      	movs	r2, #2
 80048e8:	54e2      	strb	r2, [r4, r3]
 80048ea:	6823      	ldr	r3, [r4, #0]
 80048ec:	4e3d      	ldr	r6, [pc, #244]	@ (80049e4 <HAL_TIM_PWM_Init+0x174>)
 80048ee:	681a      	ldr	r2, [r3, #0]
 80048f0:	69a5      	ldr	r5, [r4, #24]
 80048f2:	6861      	ldr	r1, [r4, #4]
 80048f4:	68e0      	ldr	r0, [r4, #12]
 80048f6:	42b3      	cmp	r3, r6
 80048f8:	d041      	beq.n	800497e <HAL_TIM_PWM_Init+0x10e>
 80048fa:	2680      	movs	r6, #128	@ 0x80
 80048fc:	05f6      	lsls	r6, r6, #23
 80048fe:	42b3      	cmp	r3, r6
 8004900:	d034      	beq.n	800496c <HAL_TIM_PWM_Init+0xfc>
 8004902:	4e39      	ldr	r6, [pc, #228]	@ (80049e8 <HAL_TIM_PWM_Init+0x178>)
 8004904:	42b3      	cmp	r3, r6
 8004906:	d031      	beq.n	800496c <HAL_TIM_PWM_Init+0xfc>
 8004908:	4e38      	ldr	r6, [pc, #224]	@ (80049ec <HAL_TIM_PWM_Init+0x17c>)
 800490a:	42b3      	cmp	r3, r6
 800490c:	d032      	beq.n	8004974 <HAL_TIM_PWM_Init+0x104>
 800490e:	4e38      	ldr	r6, [pc, #224]	@ (80049f0 <HAL_TIM_PWM_Init+0x180>)
 8004910:	42b3      	cmp	r3, r6
 8004912:	d038      	beq.n	8004986 <HAL_TIM_PWM_Init+0x116>
 8004914:	4e37      	ldr	r6, [pc, #220]	@ (80049f4 <HAL_TIM_PWM_Init+0x184>)
 8004916:	42b3      	cmp	r3, r6
 8004918:	d035      	beq.n	8004986 <HAL_TIM_PWM_Init+0x116>
 800491a:	2680      	movs	r6, #128	@ 0x80
 800491c:	43b2      	bics	r2, r6
 800491e:	432a      	orrs	r2, r5
 8004920:	601a      	str	r2, [r3, #0]
 8004922:	62d8      	str	r0, [r3, #44]	@ 0x2c
 8004924:	6299      	str	r1, [r3, #40]	@ 0x28
 8004926:	2201      	movs	r2, #1
 8004928:	615a      	str	r2, [r3, #20]
 800492a:	6919      	ldr	r1, [r3, #16]
 800492c:	420a      	tst	r2, r1
 800492e:	d002      	beq.n	8004936 <HAL_TIM_PWM_Init+0xc6>
 8004930:	6919      	ldr	r1, [r3, #16]
 8004932:	4391      	bics	r1, r2
 8004934:	6119      	str	r1, [r3, #16]
 8004936:	2301      	movs	r3, #1
 8004938:	2248      	movs	r2, #72	@ 0x48
 800493a:	2000      	movs	r0, #0
 800493c:	54a3      	strb	r3, [r4, r2]
 800493e:	3a0a      	subs	r2, #10
 8004940:	54a3      	strb	r3, [r4, r2]
 8004942:	3201      	adds	r2, #1
 8004944:	54a3      	strb	r3, [r4, r2]
 8004946:	3201      	adds	r2, #1
 8004948:	54a3      	strb	r3, [r4, r2]
 800494a:	3201      	adds	r2, #1
 800494c:	54a3      	strb	r3, [r4, r2]
 800494e:	3201      	adds	r2, #1
 8004950:	54a3      	strb	r3, [r4, r2]
 8004952:	3201      	adds	r2, #1
 8004954:	54a3      	strb	r3, [r4, r2]
 8004956:	3201      	adds	r2, #1
 8004958:	54a3      	strb	r3, [r4, r2]
 800495a:	3201      	adds	r2, #1
 800495c:	54a3      	strb	r3, [r4, r2]
 800495e:	3201      	adds	r2, #1
 8004960:	54a3      	strb	r3, [r4, r2]
 8004962:	3201      	adds	r2, #1
 8004964:	54a3      	strb	r3, [r4, r2]
 8004966:	3a0a      	subs	r2, #10
 8004968:	54a3      	strb	r3, [r4, r2]
 800496a:	bd70      	pop	{r4, r5, r6, pc}
 800496c:	2670      	movs	r6, #112	@ 0x70
 800496e:	43b2      	bics	r2, r6
 8004970:	68a6      	ldr	r6, [r4, #8]
 8004972:	4332      	orrs	r2, r6
 8004974:	4e20      	ldr	r6, [pc, #128]	@ (80049f8 <HAL_TIM_PWM_Init+0x188>)
 8004976:	4032      	ands	r2, r6
 8004978:	6926      	ldr	r6, [r4, #16]
 800497a:	4332      	orrs	r2, r6
 800497c:	e7cd      	b.n	800491a <HAL_TIM_PWM_Init+0xaa>
 800497e:	2670      	movs	r6, #112	@ 0x70
 8004980:	43b2      	bics	r2, r6
 8004982:	68a6      	ldr	r6, [r4, #8]
 8004984:	4332      	orrs	r2, r6
 8004986:	4e1c      	ldr	r6, [pc, #112]	@ (80049f8 <HAL_TIM_PWM_Init+0x188>)
 8004988:	4032      	ands	r2, r6
 800498a:	6926      	ldr	r6, [r4, #16]
 800498c:	4332      	orrs	r2, r6
 800498e:	2680      	movs	r6, #128	@ 0x80
 8004990:	43b2      	bics	r2, r6
 8004992:	432a      	orrs	r2, r5
 8004994:	601a      	str	r2, [r3, #0]
 8004996:	62d8      	str	r0, [r3, #44]	@ 0x2c
 8004998:	6299      	str	r1, [r3, #40]	@ 0x28
 800499a:	6962      	ldr	r2, [r4, #20]
 800499c:	631a      	str	r2, [r3, #48]	@ 0x30
 800499e:	e7c2      	b.n	8004926 <HAL_TIM_PWM_Init+0xb6>
 80049a0:	2001      	movs	r0, #1
 80049a2:	e7e2      	b.n	800496a <HAL_TIM_PWM_Init+0xfa>
 80049a4:	4b15      	ldr	r3, [pc, #84]	@ (80049fc <HAL_TIM_PWM_Init+0x18c>)
 80049a6:	6643      	str	r3, [r0, #100]	@ 0x64
 80049a8:	e79a      	b.n	80048e0 <HAL_TIM_PWM_Init+0x70>
 80049aa:	46c0      	nop			@ (mov r8, r8)
 80049ac:	08004265 	.word	0x08004265
 80049b0:	08004269 	.word	0x08004269
 80049b4:	08004281 	.word	0x08004281
 80049b8:	08004285 	.word	0x08004285
 80049bc:	08004271 	.word	0x08004271
 80049c0:	08004275 	.word	0x08004275
 80049c4:	0800426d 	.word	0x0800426d
 80049c8:	08004279 	.word	0x08004279
 80049cc:	0800427d 	.word	0x0800427d
 80049d0:	08004289 	.word	0x08004289
 80049d4:	08005af9 	.word	0x08005af9
 80049d8:	08005afd 	.word	0x08005afd
 80049dc:	08005b01 	.word	0x08005b01
 80049e0:	08005b05 	.word	0x08005b05
 80049e4:	40012c00 	.word	0x40012c00
 80049e8:	40000400 	.word	0x40000400
 80049ec:	40002000 	.word	0x40002000
 80049f0:	40014400 	.word	0x40014400
 80049f4:	40014800 	.word	0x40014800
 80049f8:	fffffcff 	.word	0xfffffcff
 80049fc:	0800425d 	.word	0x0800425d

08004a00 <HAL_TIM_PWM_Start>:
 8004a00:	2910      	cmp	r1, #16
 8004a02:	d803      	bhi.n	8004a0c <HAL_TIM_PWM_Start+0xc>
 8004a04:	4a2c      	ldr	r2, [pc, #176]	@ (8004ab8 <HAL_TIM_PWM_Start+0xb8>)
 8004a06:	008b      	lsls	r3, r1, #2
 8004a08:	58d3      	ldr	r3, [r2, r3]
 8004a0a:	469f      	mov	pc, r3
 8004a0c:	2343      	movs	r3, #67	@ 0x43
 8004a0e:	5cc2      	ldrb	r2, [r0, r3]
 8004a10:	2a01      	cmp	r2, #1
 8004a12:	d12e      	bne.n	8004a72 <HAL_TIM_PWM_Start+0x72>
 8004a14:	2202      	movs	r2, #2
 8004a16:	54c2      	strb	r2, [r0, r3]
 8004a18:	221f      	movs	r2, #31
 8004a1a:	4011      	ands	r1, r2
 8004a1c:	3a1e      	subs	r2, #30
 8004a1e:	408a      	lsls	r2, r1
 8004a20:	6803      	ldr	r3, [r0, #0]
 8004a22:	6a19      	ldr	r1, [r3, #32]
 8004a24:	4391      	bics	r1, r2
 8004a26:	6219      	str	r1, [r3, #32]
 8004a28:	6a19      	ldr	r1, [r3, #32]
 8004a2a:	430a      	orrs	r2, r1
 8004a2c:	621a      	str	r2, [r3, #32]
 8004a2e:	4a23      	ldr	r2, [pc, #140]	@ (8004abc <HAL_TIM_PWM_Start+0xbc>)
 8004a30:	4293      	cmp	r3, r2
 8004a32:	d03a      	beq.n	8004aaa <HAL_TIM_PWM_Start+0xaa>
 8004a34:	4a22      	ldr	r2, [pc, #136]	@ (8004ac0 <HAL_TIM_PWM_Start+0xc0>)
 8004a36:	4293      	cmp	r3, r2
 8004a38:	d031      	beq.n	8004a9e <HAL_TIM_PWM_Start+0x9e>
 8004a3a:	4a22      	ldr	r2, [pc, #136]	@ (8004ac4 <HAL_TIM_PWM_Start+0xc4>)
 8004a3c:	4293      	cmp	r3, r2
 8004a3e:	d02e      	beq.n	8004a9e <HAL_TIM_PWM_Start+0x9e>
 8004a40:	2280      	movs	r2, #128	@ 0x80
 8004a42:	05d2      	lsls	r2, r2, #23
 8004a44:	4293      	cmp	r3, r2
 8004a46:	d002      	beq.n	8004a4e <HAL_TIM_PWM_Start+0x4e>
 8004a48:	4a1f      	ldr	r2, [pc, #124]	@ (8004ac8 <HAL_TIM_PWM_Start+0xc8>)
 8004a4a:	4293      	cmp	r3, r2
 8004a4c:	d107      	bne.n	8004a5e <HAL_TIM_PWM_Start+0x5e>
 8004a4e:	689a      	ldr	r2, [r3, #8]
 8004a50:	491e      	ldr	r1, [pc, #120]	@ (8004acc <HAL_TIM_PWM_Start+0xcc>)
 8004a52:	400a      	ands	r2, r1
 8004a54:	2a06      	cmp	r2, #6
 8004a56:	d006      	beq.n	8004a66 <HAL_TIM_PWM_Start+0x66>
 8004a58:	3907      	subs	r1, #7
 8004a5a:	428a      	cmp	r2, r1
 8004a5c:	d003      	beq.n	8004a66 <HAL_TIM_PWM_Start+0x66>
 8004a5e:	2101      	movs	r1, #1
 8004a60:	681a      	ldr	r2, [r3, #0]
 8004a62:	430a      	orrs	r2, r1
 8004a64:	601a      	str	r2, [r3, #0]
 8004a66:	2000      	movs	r0, #0
 8004a68:	4770      	bx	lr
 8004a6a:	233e      	movs	r3, #62	@ 0x3e
 8004a6c:	5cc2      	ldrb	r2, [r0, r3]
 8004a6e:	2a01      	cmp	r2, #1
 8004a70:	d0d0      	beq.n	8004a14 <HAL_TIM_PWM_Start+0x14>
 8004a72:	2001      	movs	r0, #1
 8004a74:	e7f8      	b.n	8004a68 <HAL_TIM_PWM_Start+0x68>
 8004a76:	233f      	movs	r3, #63	@ 0x3f
 8004a78:	5cc2      	ldrb	r2, [r0, r3]
 8004a7a:	2a01      	cmp	r2, #1
 8004a7c:	d0ca      	beq.n	8004a14 <HAL_TIM_PWM_Start+0x14>
 8004a7e:	e7f8      	b.n	8004a72 <HAL_TIM_PWM_Start+0x72>
 8004a80:	2340      	movs	r3, #64	@ 0x40
 8004a82:	5cc2      	ldrb	r2, [r0, r3]
 8004a84:	2a01      	cmp	r2, #1
 8004a86:	d0c5      	beq.n	8004a14 <HAL_TIM_PWM_Start+0x14>
 8004a88:	e7f3      	b.n	8004a72 <HAL_TIM_PWM_Start+0x72>
 8004a8a:	2341      	movs	r3, #65	@ 0x41
 8004a8c:	5cc2      	ldrb	r2, [r0, r3]
 8004a8e:	2a01      	cmp	r2, #1
 8004a90:	d0c0      	beq.n	8004a14 <HAL_TIM_PWM_Start+0x14>
 8004a92:	e7ee      	b.n	8004a72 <HAL_TIM_PWM_Start+0x72>
 8004a94:	2342      	movs	r3, #66	@ 0x42
 8004a96:	5cc2      	ldrb	r2, [r0, r3]
 8004a98:	2a01      	cmp	r2, #1
 8004a9a:	d0bb      	beq.n	8004a14 <HAL_TIM_PWM_Start+0x14>
 8004a9c:	e7e9      	b.n	8004a72 <HAL_TIM_PWM_Start+0x72>
 8004a9e:	2280      	movs	r2, #128	@ 0x80
 8004aa0:	6c59      	ldr	r1, [r3, #68]	@ 0x44
 8004aa2:	0212      	lsls	r2, r2, #8
 8004aa4:	430a      	orrs	r2, r1
 8004aa6:	645a      	str	r2, [r3, #68]	@ 0x44
 8004aa8:	e7d9      	b.n	8004a5e <HAL_TIM_PWM_Start+0x5e>
 8004aaa:	2280      	movs	r2, #128	@ 0x80
 8004aac:	6c59      	ldr	r1, [r3, #68]	@ 0x44
 8004aae:	0212      	lsls	r2, r2, #8
 8004ab0:	430a      	orrs	r2, r1
 8004ab2:	645a      	str	r2, [r3, #68]	@ 0x44
 8004ab4:	e7cb      	b.n	8004a4e <HAL_TIM_PWM_Start+0x4e>
 8004ab6:	46c0      	nop			@ (mov r8, r8)
 8004ab8:	0800727c 	.word	0x0800727c
 8004abc:	40012c00 	.word	0x40012c00
 8004ac0:	40014400 	.word	0x40014400
 8004ac4:	40014800 	.word	0x40014800
 8004ac8:	40000400 	.word	0x40000400
 8004acc:	00010007 	.word	0x00010007

08004ad0 <HAL_TIM_IC_Init>:
 8004ad0:	b570      	push	{r4, r5, r6, lr}
 8004ad2:	1e04      	subs	r4, r0, #0
 8004ad4:	d100      	bne.n	8004ad8 <HAL_TIM_IC_Init+0x8>
 8004ad6:	e093      	b.n	8004c00 <HAL_TIM_IC_Init+0x130>
 8004ad8:	233d      	movs	r3, #61	@ 0x3d
 8004ada:	5cc3      	ldrb	r3, [r0, r3]
 8004adc:	b2da      	uxtb	r2, r3
 8004ade:	2b00      	cmp	r3, #0
 8004ae0:	d130      	bne.n	8004b44 <HAL_TIM_IC_Init+0x74>
 8004ae2:	333c      	adds	r3, #60	@ 0x3c
 8004ae4:	54c2      	strb	r2, [r0, r3]
 8004ae6:	2284      	movs	r2, #132	@ 0x84
 8004ae8:	4b48      	ldr	r3, [pc, #288]	@ (8004c0c <HAL_TIM_IC_Init+0x13c>)
 8004aea:	5083      	str	r3, [r0, r2]
 8004aec:	4b48      	ldr	r3, [pc, #288]	@ (8004c10 <HAL_TIM_IC_Init+0x140>)
 8004aee:	3204      	adds	r2, #4
 8004af0:	5083      	str	r3, [r0, r2]
 8004af2:	4b48      	ldr	r3, [pc, #288]	@ (8004c14 <HAL_TIM_IC_Init+0x144>)
 8004af4:	3204      	adds	r2, #4
 8004af6:	5083      	str	r3, [r0, r2]
 8004af8:	4b47      	ldr	r3, [pc, #284]	@ (8004c18 <HAL_TIM_IC_Init+0x148>)
 8004afa:	3204      	adds	r2, #4
 8004afc:	5083      	str	r3, [r0, r2]
 8004afe:	4b47      	ldr	r3, [pc, #284]	@ (8004c1c <HAL_TIM_IC_Init+0x14c>)
 8004b00:	3204      	adds	r2, #4
 8004b02:	5083      	str	r3, [r0, r2]
 8004b04:	4b46      	ldr	r3, [pc, #280]	@ (8004c20 <HAL_TIM_IC_Init+0x150>)
 8004b06:	3204      	adds	r2, #4
 8004b08:	5083      	str	r3, [r0, r2]
 8004b0a:	4b46      	ldr	r3, [pc, #280]	@ (8004c24 <HAL_TIM_IC_Init+0x154>)
 8004b0c:	3204      	adds	r2, #4
 8004b0e:	5083      	str	r3, [r0, r2]
 8004b10:	4b45      	ldr	r3, [pc, #276]	@ (8004c28 <HAL_TIM_IC_Init+0x158>)
 8004b12:	3204      	adds	r2, #4
 8004b14:	5083      	str	r3, [r0, r2]
 8004b16:	4b45      	ldr	r3, [pc, #276]	@ (8004c2c <HAL_TIM_IC_Init+0x15c>)
 8004b18:	3204      	adds	r2, #4
 8004b1a:	5083      	str	r3, [r0, r2]
 8004b1c:	4b44      	ldr	r3, [pc, #272]	@ (8004c30 <HAL_TIM_IC_Init+0x160>)
 8004b1e:	3204      	adds	r2, #4
 8004b20:	5083      	str	r3, [r0, r2]
 8004b22:	4b44      	ldr	r3, [pc, #272]	@ (8004c34 <HAL_TIM_IC_Init+0x164>)
 8004b24:	3204      	adds	r2, #4
 8004b26:	5083      	str	r3, [r0, r2]
 8004b28:	4b43      	ldr	r3, [pc, #268]	@ (8004c38 <HAL_TIM_IC_Init+0x168>)
 8004b2a:	3204      	adds	r2, #4
 8004b2c:	5083      	str	r3, [r0, r2]
 8004b2e:	4b43      	ldr	r3, [pc, #268]	@ (8004c3c <HAL_TIM_IC_Init+0x16c>)
 8004b30:	3204      	adds	r2, #4
 8004b32:	5083      	str	r3, [r0, r2]
 8004b34:	4b42      	ldr	r3, [pc, #264]	@ (8004c40 <HAL_TIM_IC_Init+0x170>)
 8004b36:	3204      	adds	r2, #4
 8004b38:	5083      	str	r3, [r0, r2]
 8004b3a:	6d43      	ldr	r3, [r0, #84]	@ 0x54
 8004b3c:	2b00      	cmp	r3, #0
 8004b3e:	d061      	beq.n	8004c04 <HAL_TIM_IC_Init+0x134>
 8004b40:	0020      	movs	r0, r4
 8004b42:	4798      	blx	r3
 8004b44:	233d      	movs	r3, #61	@ 0x3d
 8004b46:	2202      	movs	r2, #2
 8004b48:	54e2      	strb	r2, [r4, r3]
 8004b4a:	6823      	ldr	r3, [r4, #0]
 8004b4c:	4e3d      	ldr	r6, [pc, #244]	@ (8004c44 <HAL_TIM_IC_Init+0x174>)
 8004b4e:	681a      	ldr	r2, [r3, #0]
 8004b50:	69a5      	ldr	r5, [r4, #24]
 8004b52:	6861      	ldr	r1, [r4, #4]
 8004b54:	68e0      	ldr	r0, [r4, #12]
 8004b56:	42b3      	cmp	r3, r6
 8004b58:	d041      	beq.n	8004bde <HAL_TIM_IC_Init+0x10e>
 8004b5a:	2680      	movs	r6, #128	@ 0x80
 8004b5c:	05f6      	lsls	r6, r6, #23
 8004b5e:	42b3      	cmp	r3, r6
 8004b60:	d034      	beq.n	8004bcc <HAL_TIM_IC_Init+0xfc>
 8004b62:	4e39      	ldr	r6, [pc, #228]	@ (8004c48 <HAL_TIM_IC_Init+0x178>)
 8004b64:	42b3      	cmp	r3, r6
 8004b66:	d031      	beq.n	8004bcc <HAL_TIM_IC_Init+0xfc>
 8004b68:	4e38      	ldr	r6, [pc, #224]	@ (8004c4c <HAL_TIM_IC_Init+0x17c>)
 8004b6a:	42b3      	cmp	r3, r6
 8004b6c:	d032      	beq.n	8004bd4 <HAL_TIM_IC_Init+0x104>
 8004b6e:	4e38      	ldr	r6, [pc, #224]	@ (8004c50 <HAL_TIM_IC_Init+0x180>)
 8004b70:	42b3      	cmp	r3, r6
 8004b72:	d038      	beq.n	8004be6 <HAL_TIM_IC_Init+0x116>
 8004b74:	4e37      	ldr	r6, [pc, #220]	@ (8004c54 <HAL_TIM_IC_Init+0x184>)
 8004b76:	42b3      	cmp	r3, r6
 8004b78:	d035      	beq.n	8004be6 <HAL_TIM_IC_Init+0x116>
 8004b7a:	2680      	movs	r6, #128	@ 0x80
 8004b7c:	43b2      	bics	r2, r6
 8004b7e:	432a      	orrs	r2, r5
 8004b80:	601a      	str	r2, [r3, #0]
 8004b82:	62d8      	str	r0, [r3, #44]	@ 0x2c
 8004b84:	6299      	str	r1, [r3, #40]	@ 0x28
 8004b86:	2201      	movs	r2, #1
 8004b88:	615a      	str	r2, [r3, #20]
 8004b8a:	6919      	ldr	r1, [r3, #16]
 8004b8c:	420a      	tst	r2, r1
 8004b8e:	d002      	beq.n	8004b96 <HAL_TIM_IC_Init+0xc6>
 8004b90:	6919      	ldr	r1, [r3, #16]
 8004b92:	4391      	bics	r1, r2
 8004b94:	6119      	str	r1, [r3, #16]
 8004b96:	2301      	movs	r3, #1
 8004b98:	2248      	movs	r2, #72	@ 0x48
 8004b9a:	2000      	movs	r0, #0
 8004b9c:	54a3      	strb	r3, [r4, r2]
 8004b9e:	3a0a      	subs	r2, #10
 8004ba0:	54a3      	strb	r3, [r4, r2]
 8004ba2:	3201      	adds	r2, #1
 8004ba4:	54a3      	strb	r3, [r4, r2]
 8004ba6:	3201      	adds	r2, #1
 8004ba8:	54a3      	strb	r3, [r4, r2]
 8004baa:	3201      	adds	r2, #1
 8004bac:	54a3      	strb	r3, [r4, r2]
 8004bae:	3201      	adds	r2, #1
 8004bb0:	54a3      	strb	r3, [r4, r2]
 8004bb2:	3201      	adds	r2, #1
 8004bb4:	54a3      	strb	r3, [r4, r2]
 8004bb6:	3201      	adds	r2, #1
 8004bb8:	54a3      	strb	r3, [r4, r2]
 8004bba:	3201      	adds	r2, #1
 8004bbc:	54a3      	strb	r3, [r4, r2]
 8004bbe:	3201      	adds	r2, #1
 8004bc0:	54a3      	strb	r3, [r4, r2]
 8004bc2:	3201      	adds	r2, #1
 8004bc4:	54a3      	strb	r3, [r4, r2]
 8004bc6:	3a0a      	subs	r2, #10
 8004bc8:	54a3      	strb	r3, [r4, r2]
 8004bca:	bd70      	pop	{r4, r5, r6, pc}
 8004bcc:	2670      	movs	r6, #112	@ 0x70
 8004bce:	43b2      	bics	r2, r6
 8004bd0:	68a6      	ldr	r6, [r4, #8]
 8004bd2:	4332      	orrs	r2, r6
 8004bd4:	4e20      	ldr	r6, [pc, #128]	@ (8004c58 <HAL_TIM_IC_Init+0x188>)
 8004bd6:	4032      	ands	r2, r6
 8004bd8:	6926      	ldr	r6, [r4, #16]
 8004bda:	4332      	orrs	r2, r6
 8004bdc:	e7cd      	b.n	8004b7a <HAL_TIM_IC_Init+0xaa>
 8004bde:	2670      	movs	r6, #112	@ 0x70
 8004be0:	43b2      	bics	r2, r6
 8004be2:	68a6      	ldr	r6, [r4, #8]
 8004be4:	4332      	orrs	r2, r6
 8004be6:	4e1c      	ldr	r6, [pc, #112]	@ (8004c58 <HAL_TIM_IC_Init+0x188>)
 8004be8:	4032      	ands	r2, r6
 8004bea:	6926      	ldr	r6, [r4, #16]
 8004bec:	4332      	orrs	r2, r6
 8004bee:	2680      	movs	r6, #128	@ 0x80
 8004bf0:	43b2      	bics	r2, r6
 8004bf2:	432a      	orrs	r2, r5
 8004bf4:	601a      	str	r2, [r3, #0]
 8004bf6:	62d8      	str	r0, [r3, #44]	@ 0x2c
 8004bf8:	6299      	str	r1, [r3, #40]	@ 0x28
 8004bfa:	6962      	ldr	r2, [r4, #20]
 8004bfc:	631a      	str	r2, [r3, #48]	@ 0x30
 8004bfe:	e7c2      	b.n	8004b86 <HAL_TIM_IC_Init+0xb6>
 8004c00:	2001      	movs	r0, #1
 8004c02:	e7e2      	b.n	8004bca <HAL_TIM_IC_Init+0xfa>
 8004c04:	4b15      	ldr	r3, [pc, #84]	@ (8004c5c <HAL_TIM_IC_Init+0x18c>)
 8004c06:	6543      	str	r3, [r0, #84]	@ 0x54
 8004c08:	e79a      	b.n	8004b40 <HAL_TIM_IC_Init+0x70>
 8004c0a:	46c0      	nop			@ (mov r8, r8)
 8004c0c:	08004265 	.word	0x08004265
 8004c10:	08004269 	.word	0x08004269
 8004c14:	08004281 	.word	0x08004281
 8004c18:	08004285 	.word	0x08004285
 8004c1c:	08004271 	.word	0x08004271
 8004c20:	08004275 	.word	0x08004275
 8004c24:	0800426d 	.word	0x0800426d
 8004c28:	08004279 	.word	0x08004279
 8004c2c:	0800427d 	.word	0x0800427d
 8004c30:	08004289 	.word	0x08004289
 8004c34:	08005af9 	.word	0x08005af9
 8004c38:	08005afd 	.word	0x08005afd
 8004c3c:	08005b01 	.word	0x08005b01
 8004c40:	08005b05 	.word	0x08005b05
 8004c44:	40012c00 	.word	0x40012c00
 8004c48:	40000400 	.word	0x40000400
 8004c4c:	40002000 	.word	0x40002000
 8004c50:	40014400 	.word	0x40014400
 8004c54:	40014800 	.word	0x40014800
 8004c58:	fffffcff 	.word	0xfffffcff
 8004c5c:	08004261 	.word	0x08004261

08004c60 <HAL_TIM_IC_Start_IT>:
 8004c60:	b530      	push	{r4, r5, lr}
 8004c62:	2910      	cmp	r1, #16
 8004c64:	d816      	bhi.n	8004c94 <HAL_TIM_IC_Start_IT+0x34>
 8004c66:	4a53      	ldr	r2, [pc, #332]	@ (8004db4 <HAL_TIM_IC_Start_IT+0x154>)
 8004c68:	008b      	lsls	r3, r1, #2
 8004c6a:	58d3      	ldr	r3, [r2, r3]
 8004c6c:	469f      	mov	pc, r3
 8004c6e:	243e      	movs	r4, #62	@ 0x3e
 8004c70:	2244      	movs	r2, #68	@ 0x44
 8004c72:	5d05      	ldrb	r5, [r0, r4]
 8004c74:	5c83      	ldrb	r3, [r0, r2]
 8004c76:	b2db      	uxtb	r3, r3
 8004c78:	2d01      	cmp	r5, #1
 8004c7a:	d001      	beq.n	8004c80 <HAL_TIM_IC_Start_IT+0x20>
 8004c7c:	2001      	movs	r0, #1
 8004c7e:	bd30      	pop	{r4, r5, pc}
 8004c80:	2b01      	cmp	r3, #1
 8004c82:	d1fb      	bne.n	8004c7c <HAL_TIM_IC_Start_IT+0x1c>
 8004c84:	2502      	movs	r5, #2
 8004c86:	5505      	strb	r5, [r0, r4]
 8004c88:	5485      	strb	r5, [r0, r2]
 8004c8a:	6803      	ldr	r3, [r0, #0]
 8004c8c:	68da      	ldr	r2, [r3, #12]
 8004c8e:	432a      	orrs	r2, r5
 8004c90:	60da      	str	r2, [r3, #12]
 8004c92:	e022      	b.n	8004cda <HAL_TIM_IC_Start_IT+0x7a>
 8004c94:	2343      	movs	r3, #67	@ 0x43
 8004c96:	5cc2      	ldrb	r2, [r0, r3]
 8004c98:	3304      	adds	r3, #4
 8004c9a:	5cc3      	ldrb	r3, [r0, r3]
 8004c9c:	b2db      	uxtb	r3, r3
 8004c9e:	2a01      	cmp	r2, #1
 8004ca0:	d1ec      	bne.n	8004c7c <HAL_TIM_IC_Start_IT+0x1c>
 8004ca2:	2b01      	cmp	r3, #1
 8004ca4:	d1ea      	bne.n	8004c7c <HAL_TIM_IC_Start_IT+0x1c>
 8004ca6:	1f0b      	subs	r3, r1, #4
 8004ca8:	2b0c      	cmp	r3, #12
 8004caa:	d878      	bhi.n	8004d9e <HAL_TIM_IC_Start_IT+0x13e>
 8004cac:	4a42      	ldr	r2, [pc, #264]	@ (8004db8 <HAL_TIM_IC_Start_IT+0x158>)
 8004cae:	009b      	lsls	r3, r3, #2
 8004cb0:	58d3      	ldr	r3, [r2, r3]
 8004cb2:	469f      	mov	pc, r3
 8004cb4:	233f      	movs	r3, #63	@ 0x3f
 8004cb6:	5cc2      	ldrb	r2, [r0, r3]
 8004cb8:	3306      	adds	r3, #6
 8004cba:	5cc3      	ldrb	r3, [r0, r3]
 8004cbc:	b2db      	uxtb	r3, r3
 8004cbe:	2a01      	cmp	r2, #1
 8004cc0:	d1dc      	bne.n	8004c7c <HAL_TIM_IC_Start_IT+0x1c>
 8004cc2:	2b01      	cmp	r3, #1
 8004cc4:	d1da      	bne.n	8004c7c <HAL_TIM_IC_Start_IT+0x1c>
 8004cc6:	2302      	movs	r3, #2
 8004cc8:	223f      	movs	r2, #63	@ 0x3f
 8004cca:	5483      	strb	r3, [r0, r2]
 8004ccc:	3206      	adds	r2, #6
 8004cce:	5483      	strb	r3, [r0, r2]
 8004cd0:	6803      	ldr	r3, [r0, #0]
 8004cd2:	2004      	movs	r0, #4
 8004cd4:	68da      	ldr	r2, [r3, #12]
 8004cd6:	4302      	orrs	r2, r0
 8004cd8:	60da      	str	r2, [r3, #12]
 8004cda:	221f      	movs	r2, #31
 8004cdc:	2001      	movs	r0, #1
 8004cde:	400a      	ands	r2, r1
 8004ce0:	0001      	movs	r1, r0
 8004ce2:	4091      	lsls	r1, r2
 8004ce4:	000a      	movs	r2, r1
 8004ce6:	6a19      	ldr	r1, [r3, #32]
 8004ce8:	4391      	bics	r1, r2
 8004cea:	6219      	str	r1, [r3, #32]
 8004cec:	6a19      	ldr	r1, [r3, #32]
 8004cee:	430a      	orrs	r2, r1
 8004cf0:	621a      	str	r2, [r3, #32]
 8004cf2:	4a32      	ldr	r2, [pc, #200]	@ (8004dbc <HAL_TIM_IC_Start_IT+0x15c>)
 8004cf4:	4293      	cmp	r3, r2
 8004cf6:	d044      	beq.n	8004d82 <HAL_TIM_IC_Start_IT+0x122>
 8004cf8:	2280      	movs	r2, #128	@ 0x80
 8004cfa:	05d2      	lsls	r2, r2, #23
 8004cfc:	4293      	cmp	r3, r2
 8004cfe:	d040      	beq.n	8004d82 <HAL_TIM_IC_Start_IT+0x122>
 8004d00:	4a2f      	ldr	r2, [pc, #188]	@ (8004dc0 <HAL_TIM_IC_Start_IT+0x160>)
 8004d02:	4293      	cmp	r3, r2
 8004d04:	d03d      	beq.n	8004d82 <HAL_TIM_IC_Start_IT+0x122>
 8004d06:	681a      	ldr	r2, [r3, #0]
 8004d08:	4302      	orrs	r2, r0
 8004d0a:	601a      	str	r2, [r3, #0]
 8004d0c:	2000      	movs	r0, #0
 8004d0e:	e7b6      	b.n	8004c7e <HAL_TIM_IC_Start_IT+0x1e>
 8004d10:	2342      	movs	r3, #66	@ 0x42
 8004d12:	5cc2      	ldrb	r2, [r0, r3]
 8004d14:	3305      	adds	r3, #5
 8004d16:	5cc3      	ldrb	r3, [r0, r3]
 8004d18:	b2db      	uxtb	r3, r3
 8004d1a:	2a01      	cmp	r2, #1
 8004d1c:	d1ae      	bne.n	8004c7c <HAL_TIM_IC_Start_IT+0x1c>
 8004d1e:	2b01      	cmp	r3, #1
 8004d20:	d1ac      	bne.n	8004c7c <HAL_TIM_IC_Start_IT+0x1c>
 8004d22:	2302      	movs	r3, #2
 8004d24:	2242      	movs	r2, #66	@ 0x42
 8004d26:	5483      	strb	r3, [r0, r2]
 8004d28:	3205      	adds	r2, #5
 8004d2a:	5483      	strb	r3, [r0, r2]
 8004d2c:	e7a6      	b.n	8004c7c <HAL_TIM_IC_Start_IT+0x1c>
 8004d2e:	2240      	movs	r2, #64	@ 0x40
 8004d30:	2346      	movs	r3, #70	@ 0x46
 8004d32:	5c84      	ldrb	r4, [r0, r2]
 8004d34:	5cc3      	ldrb	r3, [r0, r3]
 8004d36:	b2db      	uxtb	r3, r3
 8004d38:	2c01      	cmp	r4, #1
 8004d3a:	d19f      	bne.n	8004c7c <HAL_TIM_IC_Start_IT+0x1c>
 8004d3c:	2b01      	cmp	r3, #1
 8004d3e:	d19d      	bne.n	8004c7c <HAL_TIM_IC_Start_IT+0x1c>
 8004d40:	2302      	movs	r3, #2
 8004d42:	5483      	strb	r3, [r0, r2]
 8004d44:	2346      	movs	r3, #70	@ 0x46
 8004d46:	2202      	movs	r2, #2
 8004d48:	54c2      	strb	r2, [r0, r3]
 8004d4a:	6803      	ldr	r3, [r0, #0]
 8004d4c:	2008      	movs	r0, #8
 8004d4e:	68da      	ldr	r2, [r3, #12]
 8004d50:	4302      	orrs	r2, r0
 8004d52:	60da      	str	r2, [r3, #12]
 8004d54:	e7c1      	b.n	8004cda <HAL_TIM_IC_Start_IT+0x7a>
 8004d56:	2341      	movs	r3, #65	@ 0x41
 8004d58:	5cc2      	ldrb	r2, [r0, r3]
 8004d5a:	3306      	adds	r3, #6
 8004d5c:	5cc3      	ldrb	r3, [r0, r3]
 8004d5e:	b2db      	uxtb	r3, r3
 8004d60:	2a01      	cmp	r2, #1
 8004d62:	d000      	beq.n	8004d66 <HAL_TIM_IC_Start_IT+0x106>
 8004d64:	e78a      	b.n	8004c7c <HAL_TIM_IC_Start_IT+0x1c>
 8004d66:	2b01      	cmp	r3, #1
 8004d68:	d000      	beq.n	8004d6c <HAL_TIM_IC_Start_IT+0x10c>
 8004d6a:	e787      	b.n	8004c7c <HAL_TIM_IC_Start_IT+0x1c>
 8004d6c:	2302      	movs	r3, #2
 8004d6e:	2241      	movs	r2, #65	@ 0x41
 8004d70:	5483      	strb	r3, [r0, r2]
 8004d72:	3206      	adds	r2, #6
 8004d74:	5483      	strb	r3, [r0, r2]
 8004d76:	6803      	ldr	r3, [r0, #0]
 8004d78:	2010      	movs	r0, #16
 8004d7a:	68da      	ldr	r2, [r3, #12]
 8004d7c:	4302      	orrs	r2, r0
 8004d7e:	60da      	str	r2, [r3, #12]
 8004d80:	e7ab      	b.n	8004cda <HAL_TIM_IC_Start_IT+0x7a>
 8004d82:	689a      	ldr	r2, [r3, #8]
 8004d84:	490f      	ldr	r1, [pc, #60]	@ (8004dc4 <HAL_TIM_IC_Start_IT+0x164>)
 8004d86:	400a      	ands	r2, r1
 8004d88:	2a06      	cmp	r2, #6
 8004d8a:	d0bf      	beq.n	8004d0c <HAL_TIM_IC_Start_IT+0xac>
 8004d8c:	3907      	subs	r1, #7
 8004d8e:	428a      	cmp	r2, r1
 8004d90:	d0bc      	beq.n	8004d0c <HAL_TIM_IC_Start_IT+0xac>
 8004d92:	2101      	movs	r1, #1
 8004d94:	681a      	ldr	r2, [r3, #0]
 8004d96:	2000      	movs	r0, #0
 8004d98:	430a      	orrs	r2, r1
 8004d9a:	601a      	str	r2, [r3, #0]
 8004d9c:	e76f      	b.n	8004c7e <HAL_TIM_IC_Start_IT+0x1e>
 8004d9e:	2302      	movs	r3, #2
 8004da0:	2243      	movs	r2, #67	@ 0x43
 8004da2:	5483      	strb	r3, [r0, r2]
 8004da4:	3204      	adds	r2, #4
 8004da6:	5483      	strb	r3, [r0, r2]
 8004da8:	e768      	b.n	8004c7c <HAL_TIM_IC_Start_IT+0x1c>
 8004daa:	2340      	movs	r3, #64	@ 0x40
 8004dac:	2202      	movs	r2, #2
 8004dae:	54c2      	strb	r2, [r0, r3]
 8004db0:	e7c8      	b.n	8004d44 <HAL_TIM_IC_Start_IT+0xe4>
 8004db2:	46c0      	nop			@ (mov r8, r8)
 8004db4:	080072c0 	.word	0x080072c0
 8004db8:	08007304 	.word	0x08007304
 8004dbc:	40012c00 	.word	0x40012c00
 8004dc0:	40000400 	.word	0x40000400
 8004dc4:	00010007 	.word	0x00010007

08004dc8 <HAL_TIM_IRQHandler>:
 8004dc8:	2202      	movs	r2, #2
 8004dca:	b5f8      	push	{r3, r4, r5, r6, r7, lr}
 8004dcc:	6803      	ldr	r3, [r0, #0]
 8004dce:	0004      	movs	r4, r0
 8004dd0:	68de      	ldr	r6, [r3, #12]
 8004dd2:	691d      	ldr	r5, [r3, #16]
 8004dd4:	422a      	tst	r2, r5
 8004dd6:	d002      	beq.n	8004dde <HAL_TIM_IRQHandler+0x16>
 8004dd8:	4232      	tst	r2, r6
 8004dda:	d000      	beq.n	8004dde <HAL_TIM_IRQHandler+0x16>
 8004ddc:	e0a6      	b.n	8004f2c <HAL_TIM_IRQHandler+0x164>
 8004dde:	2304      	movs	r3, #4
 8004de0:	422b      	tst	r3, r5
 8004de2:	d002      	beq.n	8004dea <HAL_TIM_IRQHandler+0x22>
 8004de4:	4233      	tst	r3, r6
 8004de6:	d000      	beq.n	8004dea <HAL_TIM_IRQHandler+0x22>
 8004de8:	e08a      	b.n	8004f00 <HAL_TIM_IRQHandler+0x138>
 8004dea:	2308      	movs	r3, #8
 8004dec:	422b      	tst	r3, r5
 8004dee:	d002      	beq.n	8004df6 <HAL_TIM_IRQHandler+0x2e>
 8004df0:	4233      	tst	r3, r6
 8004df2:	d000      	beq.n	8004df6 <HAL_TIM_IRQHandler+0x2e>
 8004df4:	e070      	b.n	8004ed8 <HAL_TIM_IRQHandler+0x110>
 8004df6:	2310      	movs	r3, #16
 8004df8:	422b      	tst	r3, r5
 8004dfa:	d001      	beq.n	8004e00 <HAL_TIM_IRQHandler+0x38>
 8004dfc:	4233      	tst	r3, r6
 8004dfe:	d155      	bne.n	8004eac <HAL_TIM_IRQHandler+0xe4>
 8004e00:	2301      	movs	r3, #1
 8004e02:	422b      	tst	r3, r5
 8004e04:	d001      	beq.n	8004e0a <HAL_TIM_IRQHandler+0x42>
 8004e06:	4233      	tst	r3, r6
 8004e08:	d135      	bne.n	8004e76 <HAL_TIM_IRQHandler+0xae>
 8004e0a:	2780      	movs	r7, #128	@ 0x80
 8004e0c:	2382      	movs	r3, #130	@ 0x82
 8004e0e:	007f      	lsls	r7, r7, #1
 8004e10:	019b      	lsls	r3, r3, #6
 8004e12:	402f      	ands	r7, r5
 8004e14:	421d      	tst	r5, r3
 8004e16:	d03d      	beq.n	8004e94 <HAL_TIM_IRQHandler+0xcc>
 8004e18:	0633      	lsls	r3, r6, #24
 8004e1a:	d41b      	bmi.n	8004e54 <HAL_TIM_IRQHandler+0x8c>
 8004e1c:	2340      	movs	r3, #64	@ 0x40
 8004e1e:	422b      	tst	r3, r5
 8004e20:	d001      	beq.n	8004e26 <HAL_TIM_IRQHandler+0x5e>
 8004e22:	4233      	tst	r3, r6
 8004e24:	d10d      	bne.n	8004e42 <HAL_TIM_IRQHandler+0x7a>
 8004e26:	2320      	movs	r3, #32
 8004e28:	422b      	tst	r3, r5
 8004e2a:	d009      	beq.n	8004e40 <HAL_TIM_IRQHandler+0x78>
 8004e2c:	4233      	tst	r3, r6
 8004e2e:	d007      	beq.n	8004e40 <HAL_TIM_IRQHandler+0x78>
 8004e30:	2221      	movs	r2, #33	@ 0x21
 8004e32:	6823      	ldr	r3, [r4, #0]
 8004e34:	4252      	negs	r2, r2
 8004e36:	611a      	str	r2, [r3, #16]
 8004e38:	23ac      	movs	r3, #172	@ 0xac
 8004e3a:	0020      	movs	r0, r4
 8004e3c:	58e3      	ldr	r3, [r4, r3]
 8004e3e:	4798      	blx	r3
 8004e40:	bdf8      	pop	{r3, r4, r5, r6, r7, pc}
 8004e42:	2241      	movs	r2, #65	@ 0x41
 8004e44:	6823      	ldr	r3, [r4, #0]
 8004e46:	4252      	negs	r2, r2
 8004e48:	611a      	str	r2, [r3, #16]
 8004e4a:	238c      	movs	r3, #140	@ 0x8c
 8004e4c:	0020      	movs	r0, r4
 8004e4e:	58e3      	ldr	r3, [r4, r3]
 8004e50:	4798      	blx	r3
 8004e52:	e7e8      	b.n	8004e26 <HAL_TIM_IRQHandler+0x5e>
 8004e54:	6823      	ldr	r3, [r4, #0]
 8004e56:	4a47      	ldr	r2, [pc, #284]	@ (8004f74 <HAL_TIM_IRQHandler+0x1ac>)
 8004e58:	0020      	movs	r0, r4
 8004e5a:	611a      	str	r2, [r3, #16]
 8004e5c:	23b4      	movs	r3, #180	@ 0xb4
 8004e5e:	58e3      	ldr	r3, [r4, r3]
 8004e60:	4798      	blx	r3
 8004e62:	2f00      	cmp	r7, #0
 8004e64:	d0da      	beq.n	8004e1c <HAL_TIM_IRQHandler+0x54>
 8004e66:	6823      	ldr	r3, [r4, #0]
 8004e68:	4a43      	ldr	r2, [pc, #268]	@ (8004f78 <HAL_TIM_IRQHandler+0x1b0>)
 8004e6a:	0020      	movs	r0, r4
 8004e6c:	611a      	str	r2, [r3, #16]
 8004e6e:	23b8      	movs	r3, #184	@ 0xb8
 8004e70:	58e3      	ldr	r3, [r4, r3]
 8004e72:	4798      	blx	r3
 8004e74:	e7d2      	b.n	8004e1c <HAL_TIM_IRQHandler+0x54>
 8004e76:	2202      	movs	r2, #2
 8004e78:	6823      	ldr	r3, [r4, #0]
 8004e7a:	4252      	negs	r2, r2
 8004e7c:	611a      	str	r2, [r3, #16]
 8004e7e:	2384      	movs	r3, #132	@ 0x84
 8004e80:	0020      	movs	r0, r4
 8004e82:	58e3      	ldr	r3, [r4, r3]
 8004e84:	4798      	blx	r3
 8004e86:	2780      	movs	r7, #128	@ 0x80
 8004e88:	2382      	movs	r3, #130	@ 0x82
 8004e8a:	007f      	lsls	r7, r7, #1
 8004e8c:	019b      	lsls	r3, r3, #6
 8004e8e:	402f      	ands	r7, r5
 8004e90:	421d      	tst	r5, r3
 8004e92:	d1c1      	bne.n	8004e18 <HAL_TIM_IRQHandler+0x50>
 8004e94:	2f00      	cmp	r7, #0
 8004e96:	d0c1      	beq.n	8004e1c <HAL_TIM_IRQHandler+0x54>
 8004e98:	0633      	lsls	r3, r6, #24
 8004e9a:	d5bf      	bpl.n	8004e1c <HAL_TIM_IRQHandler+0x54>
 8004e9c:	6823      	ldr	r3, [r4, #0]
 8004e9e:	4a36      	ldr	r2, [pc, #216]	@ (8004f78 <HAL_TIM_IRQHandler+0x1b0>)
 8004ea0:	0020      	movs	r0, r4
 8004ea2:	611a      	str	r2, [r3, #16]
 8004ea4:	23b8      	movs	r3, #184	@ 0xb8
 8004ea6:	58e3      	ldr	r3, [r4, r3]
 8004ea8:	4798      	blx	r3
 8004eaa:	e7b7      	b.n	8004e1c <HAL_TIM_IRQHandler+0x54>
 8004eac:	2211      	movs	r2, #17
 8004eae:	6823      	ldr	r3, [r4, #0]
 8004eb0:	4252      	negs	r2, r2
 8004eb2:	611a      	str	r2, [r3, #16]
 8004eb4:	3219      	adds	r2, #25
 8004eb6:	7722      	strb	r2, [r4, #28]
 8004eb8:	69da      	ldr	r2, [r3, #28]
 8004eba:	23c0      	movs	r3, #192	@ 0xc0
 8004ebc:	009b      	lsls	r3, r3, #2
 8004ebe:	421a      	tst	r2, r3
 8004ec0:	d153      	bne.n	8004f6a <HAL_TIM_IRQHandler+0x1a2>
 8004ec2:	239c      	movs	r3, #156	@ 0x9c
 8004ec4:	0020      	movs	r0, r4
 8004ec6:	58e3      	ldr	r3, [r4, r3]
 8004ec8:	4798      	blx	r3
 8004eca:	23a0      	movs	r3, #160	@ 0xa0
 8004ecc:	0020      	movs	r0, r4
 8004ece:	58e3      	ldr	r3, [r4, r3]
 8004ed0:	4798      	blx	r3
 8004ed2:	2300      	movs	r3, #0
 8004ed4:	7723      	strb	r3, [r4, #28]
 8004ed6:	e793      	b.n	8004e00 <HAL_TIM_IRQHandler+0x38>
 8004ed8:	2209      	movs	r2, #9
 8004eda:	6823      	ldr	r3, [r4, #0]
 8004edc:	4252      	negs	r2, r2
 8004ede:	611a      	str	r2, [r3, #16]
 8004ee0:	320d      	adds	r2, #13
 8004ee2:	7722      	strb	r2, [r4, #28]
 8004ee4:	69db      	ldr	r3, [r3, #28]
 8004ee6:	079b      	lsls	r3, r3, #30
 8004ee8:	d13a      	bne.n	8004f60 <HAL_TIM_IRQHandler+0x198>
 8004eea:	239c      	movs	r3, #156	@ 0x9c
 8004eec:	0020      	movs	r0, r4
 8004eee:	58e3      	ldr	r3, [r4, r3]
 8004ef0:	4798      	blx	r3
 8004ef2:	23a0      	movs	r3, #160	@ 0xa0
 8004ef4:	0020      	movs	r0, r4
 8004ef6:	58e3      	ldr	r3, [r4, r3]
 8004ef8:	4798      	blx	r3
 8004efa:	2300      	movs	r3, #0
 8004efc:	7723      	strb	r3, [r4, #28]
 8004efe:	e77a      	b.n	8004df6 <HAL_TIM_IRQHandler+0x2e>
 8004f00:	2205      	movs	r2, #5
 8004f02:	6823      	ldr	r3, [r4, #0]
 8004f04:	4252      	negs	r2, r2
 8004f06:	611a      	str	r2, [r3, #16]
 8004f08:	3207      	adds	r2, #7
 8004f0a:	7722      	strb	r2, [r4, #28]
 8004f0c:	699a      	ldr	r2, [r3, #24]
 8004f0e:	23c0      	movs	r3, #192	@ 0xc0
 8004f10:	009b      	lsls	r3, r3, #2
 8004f12:	421a      	tst	r2, r3
 8004f14:	d11f      	bne.n	8004f56 <HAL_TIM_IRQHandler+0x18e>
 8004f16:	239c      	movs	r3, #156	@ 0x9c
 8004f18:	0020      	movs	r0, r4
 8004f1a:	58e3      	ldr	r3, [r4, r3]
 8004f1c:	4798      	blx	r3
 8004f1e:	23a0      	movs	r3, #160	@ 0xa0
 8004f20:	0020      	movs	r0, r4
 8004f22:	58e3      	ldr	r3, [r4, r3]
 8004f24:	4798      	blx	r3
 8004f26:	2300      	movs	r3, #0
 8004f28:	7723      	strb	r3, [r4, #28]
 8004f2a:	e75e      	b.n	8004dea <HAL_TIM_IRQHandler+0x22>
 8004f2c:	3a05      	subs	r2, #5
 8004f2e:	611a      	str	r2, [r3, #16]
 8004f30:	3204      	adds	r2, #4
 8004f32:	7702      	strb	r2, [r0, #28]
 8004f34:	699b      	ldr	r3, [r3, #24]
 8004f36:	079b      	lsls	r3, r3, #30
 8004f38:	d109      	bne.n	8004f4e <HAL_TIM_IRQHandler+0x186>
 8004f3a:	239c      	movs	r3, #156	@ 0x9c
 8004f3c:	58c3      	ldr	r3, [r0, r3]
 8004f3e:	4798      	blx	r3
 8004f40:	23a0      	movs	r3, #160	@ 0xa0
 8004f42:	0020      	movs	r0, r4
 8004f44:	58e3      	ldr	r3, [r4, r3]
 8004f46:	4798      	blx	r3
 8004f48:	2300      	movs	r3, #0
 8004f4a:	7723      	strb	r3, [r4, #28]
 8004f4c:	e747      	b.n	8004dde <HAL_TIM_IRQHandler+0x16>
 8004f4e:	2394      	movs	r3, #148	@ 0x94
 8004f50:	58c3      	ldr	r3, [r0, r3]
 8004f52:	4798      	blx	r3
 8004f54:	e7f8      	b.n	8004f48 <HAL_TIM_IRQHandler+0x180>
 8004f56:	2394      	movs	r3, #148	@ 0x94
 8004f58:	0020      	movs	r0, r4
 8004f5a:	58e3      	ldr	r3, [r4, r3]
 8004f5c:	4798      	blx	r3
 8004f5e:	e7e2      	b.n	8004f26 <HAL_TIM_IRQHandler+0x15e>
 8004f60:	2394      	movs	r3, #148	@ 0x94
 8004f62:	0020      	movs	r0, r4
 8004f64:	58e3      	ldr	r3, [r4, r3]
 8004f66:	4798      	blx	r3
 8004f68:	e7c7      	b.n	8004efa <HAL_TIM_IRQHandler+0x132>
 8004f6a:	2394      	movs	r3, #148	@ 0x94
 8004f6c:	0020      	movs	r0, r4
 8004f6e:	58e3      	ldr	r3, [r4, r3]
 8004f70:	4798      	blx	r3
 8004f72:	e7ae      	b.n	8004ed2 <HAL_TIM_IRQHandler+0x10a>
 8004f74:	ffffdf7f 	.word	0xffffdf7f
 8004f78:	fffffeff 	.word	0xfffffeff

08004f7c <HAL_TIM_OC_ConfigChannel>:
 8004f7c:	233c      	movs	r3, #60	@ 0x3c
 8004f7e:	b5f0      	push	{r4, r5, r6, r7, lr}
 8004f80:	5cc3      	ldrb	r3, [r0, r3]
 8004f82:	0004      	movs	r4, r0
 8004f84:	2b01      	cmp	r3, #1
 8004f86:	d100      	bne.n	8004f8a <HAL_TIM_OC_ConfigChannel+0xe>
 8004f88:	e119      	b.n	80051be <HAL_TIM_OC_ConfigChannel+0x242>
 8004f8a:	2a14      	cmp	r2, #20
 8004f8c:	d803      	bhi.n	8004f96 <HAL_TIM_OC_ConfigChannel+0x1a>
 8004f8e:	4b8d      	ldr	r3, [pc, #564]	@ (80051c4 <HAL_TIM_OC_ConfigChannel+0x248>)
 8004f90:	0092      	lsls	r2, r2, #2
 8004f92:	589b      	ldr	r3, [r3, r2]
 8004f94:	469f      	mov	pc, r3
 8004f96:	2001      	movs	r0, #1
 8004f98:	233c      	movs	r3, #60	@ 0x3c
 8004f9a:	2200      	movs	r2, #0
 8004f9c:	54e2      	strb	r2, [r4, r3]
 8004f9e:	bdf0      	pop	{r4, r5, r6, r7, pc}
 8004fa0:	6803      	ldr	r3, [r0, #0]
 8004fa2:	4d89      	ldr	r5, [pc, #548]	@ (80051c8 <HAL_TIM_OC_ConfigChannel+0x24c>)
 8004fa4:	6a18      	ldr	r0, [r3, #32]
 8004fa6:	6a1a      	ldr	r2, [r3, #32]
 8004fa8:	402a      	ands	r2, r5
 8004faa:	621a      	str	r2, [r3, #32]
 8004fac:	4d87      	ldr	r5, [pc, #540]	@ (80051cc <HAL_TIM_OC_ConfigChannel+0x250>)
 8004fae:	685e      	ldr	r6, [r3, #4]
 8004fb0:	6d5a      	ldr	r2, [r3, #84]	@ 0x54
 8004fb2:	402a      	ands	r2, r5
 8004fb4:	680d      	ldr	r5, [r1, #0]
 8004fb6:	022d      	lsls	r5, r5, #8
 8004fb8:	4315      	orrs	r5, r2
 8004fba:	4a85      	ldr	r2, [pc, #532]	@ (80051d0 <HAL_TIM_OC_ConfigChannel+0x254>)
 8004fbc:	4010      	ands	r0, r2
 8004fbe:	688a      	ldr	r2, [r1, #8]
 8004fc0:	0512      	lsls	r2, r2, #20
 8004fc2:	4302      	orrs	r2, r0
 8004fc4:	4883      	ldr	r0, [pc, #524]	@ (80051d4 <HAL_TIM_OC_ConfigChannel+0x258>)
 8004fc6:	4283      	cmp	r3, r0
 8004fc8:	d100      	bne.n	8004fcc <HAL_TIM_OC_ConfigChannel+0x50>
 8004fca:	e0c8      	b.n	800515e <HAL_TIM_OC_ConfigChannel+0x1e2>
 8004fcc:	4882      	ldr	r0, [pc, #520]	@ (80051d8 <HAL_TIM_OC_ConfigChannel+0x25c>)
 8004fce:	4283      	cmp	r3, r0
 8004fd0:	d100      	bne.n	8004fd4 <HAL_TIM_OC_ConfigChannel+0x58>
 8004fd2:	e0c4      	b.n	800515e <HAL_TIM_OC_ConfigChannel+0x1e2>
 8004fd4:	4881      	ldr	r0, [pc, #516]	@ (80051dc <HAL_TIM_OC_ConfigChannel+0x260>)
 8004fd6:	4283      	cmp	r3, r0
 8004fd8:	d100      	bne.n	8004fdc <HAL_TIM_OC_ConfigChannel+0x60>
 8004fda:	e0c0      	b.n	800515e <HAL_TIM_OC_ConfigChannel+0x1e2>
 8004fdc:	6849      	ldr	r1, [r1, #4]
 8004fde:	605e      	str	r6, [r3, #4]
 8004fe0:	2000      	movs	r0, #0
 8004fe2:	655d      	str	r5, [r3, #84]	@ 0x54
 8004fe4:	65d9      	str	r1, [r3, #92]	@ 0x5c
 8004fe6:	621a      	str	r2, [r3, #32]
 8004fe8:	e7d6      	b.n	8004f98 <HAL_TIM_OC_ConfigChannel+0x1c>
 8004fea:	2501      	movs	r5, #1
 8004fec:	6803      	ldr	r3, [r0, #0]
 8004fee:	4e7c      	ldr	r6, [pc, #496]	@ (80051e0 <HAL_TIM_OC_ConfigChannel+0x264>)
 8004ff0:	6a1a      	ldr	r2, [r3, #32]
 8004ff2:	6a18      	ldr	r0, [r3, #32]
 8004ff4:	43a8      	bics	r0, r5
 8004ff6:	6218      	str	r0, [r3, #32]
 8004ff8:	685d      	ldr	r5, [r3, #4]
 8004ffa:	6998      	ldr	r0, [r3, #24]
 8004ffc:	4030      	ands	r0, r6
 8004ffe:	680e      	ldr	r6, [r1, #0]
 8005000:	4330      	orrs	r0, r6
 8005002:	2602      	movs	r6, #2
 8005004:	43b2      	bics	r2, r6
 8005006:	688e      	ldr	r6, [r1, #8]
 8005008:	4332      	orrs	r2, r6
 800500a:	4e72      	ldr	r6, [pc, #456]	@ (80051d4 <HAL_TIM_OC_ConfigChannel+0x258>)
 800500c:	42b3      	cmp	r3, r6
 800500e:	d100      	bne.n	8005012 <HAL_TIM_OC_ConfigChannel+0x96>
 8005010:	e098      	b.n	8005144 <HAL_TIM_OC_ConfigChannel+0x1c8>
 8005012:	4e71      	ldr	r6, [pc, #452]	@ (80051d8 <HAL_TIM_OC_ConfigChannel+0x25c>)
 8005014:	42b3      	cmp	r3, r6
 8005016:	d100      	bne.n	800501a <HAL_TIM_OC_ConfigChannel+0x9e>
 8005018:	e094      	b.n	8005144 <HAL_TIM_OC_ConfigChannel+0x1c8>
 800501a:	4e70      	ldr	r6, [pc, #448]	@ (80051dc <HAL_TIM_OC_ConfigChannel+0x260>)
 800501c:	42b3      	cmp	r3, r6
 800501e:	d100      	bne.n	8005022 <HAL_TIM_OC_ConfigChannel+0xa6>
 8005020:	e090      	b.n	8005144 <HAL_TIM_OC_ConfigChannel+0x1c8>
 8005022:	6849      	ldr	r1, [r1, #4]
 8005024:	605d      	str	r5, [r3, #4]
 8005026:	6198      	str	r0, [r3, #24]
 8005028:	6359      	str	r1, [r3, #52]	@ 0x34
 800502a:	2000      	movs	r0, #0
 800502c:	621a      	str	r2, [r3, #32]
 800502e:	e7b3      	b.n	8004f98 <HAL_TIM_OC_ConfigChannel+0x1c>
 8005030:	2510      	movs	r5, #16
 8005032:	6803      	ldr	r3, [r0, #0]
 8005034:	6a1a      	ldr	r2, [r3, #32]
 8005036:	6a18      	ldr	r0, [r3, #32]
 8005038:	43a8      	bics	r0, r5
 800503a:	6218      	str	r0, [r3, #32]
 800503c:	4d69      	ldr	r5, [pc, #420]	@ (80051e4 <HAL_TIM_OC_ConfigChannel+0x268>)
 800503e:	685e      	ldr	r6, [r3, #4]
 8005040:	6998      	ldr	r0, [r3, #24]
 8005042:	4028      	ands	r0, r5
 8005044:	680d      	ldr	r5, [r1, #0]
 8005046:	022d      	lsls	r5, r5, #8
 8005048:	4305      	orrs	r5, r0
 800504a:	2020      	movs	r0, #32
 800504c:	4382      	bics	r2, r0
 800504e:	6888      	ldr	r0, [r1, #8]
 8005050:	0100      	lsls	r0, r0, #4
 8005052:	4310      	orrs	r0, r2
 8005054:	4a5f      	ldr	r2, [pc, #380]	@ (80051d4 <HAL_TIM_OC_ConfigChannel+0x258>)
 8005056:	4293      	cmp	r3, r2
 8005058:	d100      	bne.n	800505c <HAL_TIM_OC_ConfigChannel+0xe0>
 800505a:	e08c      	b.n	8005176 <HAL_TIM_OC_ConfigChannel+0x1fa>
 800505c:	4a5e      	ldr	r2, [pc, #376]	@ (80051d8 <HAL_TIM_OC_ConfigChannel+0x25c>)
 800505e:	4293      	cmp	r3, r2
 8005060:	d100      	bne.n	8005064 <HAL_TIM_OC_ConfigChannel+0xe8>
 8005062:	e08f      	b.n	8005184 <HAL_TIM_OC_ConfigChannel+0x208>
 8005064:	4a5d      	ldr	r2, [pc, #372]	@ (80051dc <HAL_TIM_OC_ConfigChannel+0x260>)
 8005066:	4293      	cmp	r3, r2
 8005068:	d100      	bne.n	800506c <HAL_TIM_OC_ConfigChannel+0xf0>
 800506a:	e08b      	b.n	8005184 <HAL_TIM_OC_ConfigChannel+0x208>
 800506c:	684a      	ldr	r2, [r1, #4]
 800506e:	605e      	str	r6, [r3, #4]
 8005070:	619d      	str	r5, [r3, #24]
 8005072:	639a      	str	r2, [r3, #56]	@ 0x38
 8005074:	6218      	str	r0, [r3, #32]
 8005076:	2000      	movs	r0, #0
 8005078:	e78e      	b.n	8004f98 <HAL_TIM_OC_ConfigChannel+0x1c>
 800507a:	6803      	ldr	r3, [r0, #0]
 800507c:	4d5a      	ldr	r5, [pc, #360]	@ (80051e8 <HAL_TIM_OC_ConfigChannel+0x26c>)
 800507e:	6a1a      	ldr	r2, [r3, #32]
 8005080:	6a18      	ldr	r0, [r3, #32]
 8005082:	4e57      	ldr	r6, [pc, #348]	@ (80051e0 <HAL_TIM_OC_ConfigChannel+0x264>)
 8005084:	4028      	ands	r0, r5
 8005086:	6218      	str	r0, [r3, #32]
 8005088:	685d      	ldr	r5, [r3, #4]
 800508a:	69d8      	ldr	r0, [r3, #28]
 800508c:	4030      	ands	r0, r6
 800508e:	680e      	ldr	r6, [r1, #0]
 8005090:	4306      	orrs	r6, r0
 8005092:	4856      	ldr	r0, [pc, #344]	@ (80051ec <HAL_TIM_OC_ConfigChannel+0x270>)
 8005094:	4002      	ands	r2, r0
 8005096:	6888      	ldr	r0, [r1, #8]
 8005098:	0200      	lsls	r0, r0, #8
 800509a:	4302      	orrs	r2, r0
 800509c:	484d      	ldr	r0, [pc, #308]	@ (80051d4 <HAL_TIM_OC_ConfigChannel+0x258>)
 800509e:	4283      	cmp	r3, r0
 80050a0:	d07e      	beq.n	80051a0 <HAL_TIM_OC_ConfigChannel+0x224>
 80050a2:	484d      	ldr	r0, [pc, #308]	@ (80051d8 <HAL_TIM_OC_ConfigChannel+0x25c>)
 80050a4:	4283      	cmp	r3, r0
 80050a6:	d100      	bne.n	80050aa <HAL_TIM_OC_ConfigChannel+0x12e>
 80050a8:	e081      	b.n	80051ae <HAL_TIM_OC_ConfigChannel+0x232>
 80050aa:	484c      	ldr	r0, [pc, #304]	@ (80051dc <HAL_TIM_OC_ConfigChannel+0x260>)
 80050ac:	4283      	cmp	r3, r0
 80050ae:	d07e      	beq.n	80051ae <HAL_TIM_OC_ConfigChannel+0x232>
 80050b0:	6849      	ldr	r1, [r1, #4]
 80050b2:	605d      	str	r5, [r3, #4]
 80050b4:	2000      	movs	r0, #0
 80050b6:	61de      	str	r6, [r3, #28]
 80050b8:	63d9      	str	r1, [r3, #60]	@ 0x3c
 80050ba:	621a      	str	r2, [r3, #32]
 80050bc:	e76c      	b.n	8004f98 <HAL_TIM_OC_ConfigChannel+0x1c>
 80050be:	6803      	ldr	r3, [r0, #0]
 80050c0:	4d4b      	ldr	r5, [pc, #300]	@ (80051f0 <HAL_TIM_OC_ConfigChannel+0x274>)
 80050c2:	6a18      	ldr	r0, [r3, #32]
 80050c4:	6a1a      	ldr	r2, [r3, #32]
 80050c6:	402a      	ands	r2, r5
 80050c8:	621a      	str	r2, [r3, #32]
 80050ca:	4d46      	ldr	r5, [pc, #280]	@ (80051e4 <HAL_TIM_OC_ConfigChannel+0x268>)
 80050cc:	685e      	ldr	r6, [r3, #4]
 80050ce:	69da      	ldr	r2, [r3, #28]
 80050d0:	402a      	ands	r2, r5
 80050d2:	680d      	ldr	r5, [r1, #0]
 80050d4:	022d      	lsls	r5, r5, #8
 80050d6:	4315      	orrs	r5, r2
 80050d8:	4a46      	ldr	r2, [pc, #280]	@ (80051f4 <HAL_TIM_OC_ConfigChannel+0x278>)
 80050da:	4010      	ands	r0, r2
 80050dc:	688a      	ldr	r2, [r1, #8]
 80050de:	0312      	lsls	r2, r2, #12
 80050e0:	4302      	orrs	r2, r0
 80050e2:	483c      	ldr	r0, [pc, #240]	@ (80051d4 <HAL_TIM_OC_ConfigChannel+0x258>)
 80050e4:	4283      	cmp	r3, r0
 80050e6:	d055      	beq.n	8005194 <HAL_TIM_OC_ConfigChannel+0x218>
 80050e8:	483b      	ldr	r0, [pc, #236]	@ (80051d8 <HAL_TIM_OC_ConfigChannel+0x25c>)
 80050ea:	4283      	cmp	r3, r0
 80050ec:	d052      	beq.n	8005194 <HAL_TIM_OC_ConfigChannel+0x218>
 80050ee:	483b      	ldr	r0, [pc, #236]	@ (80051dc <HAL_TIM_OC_ConfigChannel+0x260>)
 80050f0:	4283      	cmp	r3, r0
 80050f2:	d04f      	beq.n	8005194 <HAL_TIM_OC_ConfigChannel+0x218>
 80050f4:	6849      	ldr	r1, [r1, #4]
 80050f6:	605e      	str	r6, [r3, #4]
 80050f8:	2000      	movs	r0, #0
 80050fa:	61dd      	str	r5, [r3, #28]
 80050fc:	6419      	str	r1, [r3, #64]	@ 0x40
 80050fe:	621a      	str	r2, [r3, #32]
 8005100:	e74a      	b.n	8004f98 <HAL_TIM_OC_ConfigChannel+0x1c>
 8005102:	6803      	ldr	r3, [r0, #0]
 8005104:	4d3c      	ldr	r5, [pc, #240]	@ (80051f8 <HAL_TIM_OC_ConfigChannel+0x27c>)
 8005106:	6a18      	ldr	r0, [r3, #32]
 8005108:	6a1a      	ldr	r2, [r3, #32]
 800510a:	402a      	ands	r2, r5
 800510c:	621a      	str	r2, [r3, #32]
 800510e:	4d3b      	ldr	r5, [pc, #236]	@ (80051fc <HAL_TIM_OC_ConfigChannel+0x280>)
 8005110:	685e      	ldr	r6, [r3, #4]
 8005112:	6d5a      	ldr	r2, [r3, #84]	@ 0x54
 8005114:	402a      	ands	r2, r5
 8005116:	680d      	ldr	r5, [r1, #0]
 8005118:	4315      	orrs	r5, r2
 800511a:	4a39      	ldr	r2, [pc, #228]	@ (8005200 <HAL_TIM_OC_ConfigChannel+0x284>)
 800511c:	4010      	ands	r0, r2
 800511e:	688a      	ldr	r2, [r1, #8]
 8005120:	0412      	lsls	r2, r2, #16
 8005122:	4302      	orrs	r2, r0
 8005124:	482b      	ldr	r0, [pc, #172]	@ (80051d4 <HAL_TIM_OC_ConfigChannel+0x258>)
 8005126:	4283      	cmp	r3, r0
 8005128:	d01f      	beq.n	800516a <HAL_TIM_OC_ConfigChannel+0x1ee>
 800512a:	482b      	ldr	r0, [pc, #172]	@ (80051d8 <HAL_TIM_OC_ConfigChannel+0x25c>)
 800512c:	4283      	cmp	r3, r0
 800512e:	d01c      	beq.n	800516a <HAL_TIM_OC_ConfigChannel+0x1ee>
 8005130:	482a      	ldr	r0, [pc, #168]	@ (80051dc <HAL_TIM_OC_ConfigChannel+0x260>)
 8005132:	4283      	cmp	r3, r0
 8005134:	d019      	beq.n	800516a <HAL_TIM_OC_ConfigChannel+0x1ee>
 8005136:	6849      	ldr	r1, [r1, #4]
 8005138:	605e      	str	r6, [r3, #4]
 800513a:	2000      	movs	r0, #0
 800513c:	655d      	str	r5, [r3, #84]	@ 0x54
 800513e:	6599      	str	r1, [r3, #88]	@ 0x58
 8005140:	621a      	str	r2, [r3, #32]
 8005142:	e729      	b.n	8004f98 <HAL_TIM_OC_ConfigChannel+0x1c>
 8005144:	2608      	movs	r6, #8
 8005146:	43b2      	bics	r2, r6
 8005148:	68ce      	ldr	r6, [r1, #12]
 800514a:	698f      	ldr	r7, [r1, #24]
 800514c:	4332      	orrs	r2, r6
 800514e:	2604      	movs	r6, #4
 8005150:	43b2      	bics	r2, r6
 8005152:	4e2c      	ldr	r6, [pc, #176]	@ (8005204 <HAL_TIM_OC_ConfigChannel+0x288>)
 8005154:	402e      	ands	r6, r5
 8005156:	694d      	ldr	r5, [r1, #20]
 8005158:	433d      	orrs	r5, r7
 800515a:	4335      	orrs	r5, r6
 800515c:	e761      	b.n	8005022 <HAL_TIM_OC_ConfigChannel+0xa6>
 800515e:	482a      	ldr	r0, [pc, #168]	@ (8005208 <HAL_TIM_OC_ConfigChannel+0x28c>)
 8005160:	4030      	ands	r0, r6
 8005162:	694e      	ldr	r6, [r1, #20]
 8005164:	02b6      	lsls	r6, r6, #10
 8005166:	4306      	orrs	r6, r0
 8005168:	e738      	b.n	8004fdc <HAL_TIM_OC_ConfigChannel+0x60>
 800516a:	4823      	ldr	r0, [pc, #140]	@ (80051f8 <HAL_TIM_OC_ConfigChannel+0x27c>)
 800516c:	4030      	ands	r0, r6
 800516e:	694e      	ldr	r6, [r1, #20]
 8005170:	0236      	lsls	r6, r6, #8
 8005172:	4306      	orrs	r6, r0
 8005174:	e7df      	b.n	8005136 <HAL_TIM_OC_ConfigChannel+0x1ba>
 8005176:	2280      	movs	r2, #128	@ 0x80
 8005178:	4390      	bics	r0, r2
 800517a:	68ca      	ldr	r2, [r1, #12]
 800517c:	0112      	lsls	r2, r2, #4
 800517e:	4310      	orrs	r0, r2
 8005180:	2240      	movs	r2, #64	@ 0x40
 8005182:	4390      	bics	r0, r2
 8005184:	4a21      	ldr	r2, [pc, #132]	@ (800520c <HAL_TIM_OC_ConfigChannel+0x290>)
 8005186:	694f      	ldr	r7, [r1, #20]
 8005188:	4032      	ands	r2, r6
 800518a:	698e      	ldr	r6, [r1, #24]
 800518c:	433e      	orrs	r6, r7
 800518e:	00b6      	lsls	r6, r6, #2
 8005190:	4316      	orrs	r6, r2
 8005192:	e76b      	b.n	800506c <HAL_TIM_OC_ConfigChannel+0xf0>
 8005194:	481e      	ldr	r0, [pc, #120]	@ (8005210 <HAL_TIM_OC_ConfigChannel+0x294>)
 8005196:	4030      	ands	r0, r6
 8005198:	694e      	ldr	r6, [r1, #20]
 800519a:	01b6      	lsls	r6, r6, #6
 800519c:	4306      	orrs	r6, r0
 800519e:	e7a9      	b.n	80050f4 <HAL_TIM_OC_ConfigChannel+0x178>
 80051a0:	481c      	ldr	r0, [pc, #112]	@ (8005214 <HAL_TIM_OC_ConfigChannel+0x298>)
 80051a2:	4002      	ands	r2, r0
 80051a4:	68c8      	ldr	r0, [r1, #12]
 80051a6:	0200      	lsls	r0, r0, #8
 80051a8:	4310      	orrs	r0, r2
 80051aa:	4a1b      	ldr	r2, [pc, #108]	@ (8005218 <HAL_TIM_OC_ConfigChannel+0x29c>)
 80051ac:	4002      	ands	r2, r0
 80051ae:	481b      	ldr	r0, [pc, #108]	@ (800521c <HAL_TIM_OC_ConfigChannel+0x2a0>)
 80051b0:	694f      	ldr	r7, [r1, #20]
 80051b2:	4028      	ands	r0, r5
 80051b4:	698d      	ldr	r5, [r1, #24]
 80051b6:	433d      	orrs	r5, r7
 80051b8:	012d      	lsls	r5, r5, #4
 80051ba:	4305      	orrs	r5, r0
 80051bc:	e778      	b.n	80050b0 <HAL_TIM_OC_ConfigChannel+0x134>
 80051be:	2002      	movs	r0, #2
 80051c0:	e6ed      	b.n	8004f9e <HAL_TIM_OC_ConfigChannel+0x22>
 80051c2:	46c0      	nop			@ (mov r8, r8)
 80051c4:	08007338 	.word	0x08007338
 80051c8:	ffefffff 	.word	0xffefffff
 80051cc:	feff8fff 	.word	0xfeff8fff
 80051d0:	ffdfffff 	.word	0xffdfffff
 80051d4:	40012c00 	.word	0x40012c00
 80051d8:	40014400 	.word	0x40014400
 80051dc:	40014800 	.word	0x40014800
 80051e0:	fffeff8c 	.word	0xfffeff8c
 80051e4:	feff8cff 	.word	0xfeff8cff
 80051e8:	fffffeff 	.word	0xfffffeff
 80051ec:	fffffdff 	.word	0xfffffdff
 80051f0:	ffffefff 	.word	0xffffefff
 80051f4:	ffffdfff 	.word	0xffffdfff
 80051f8:	fffeffff 	.word	0xfffeffff
 80051fc:	fffeff8f 	.word	0xfffeff8f
 8005200:	fffdffff 	.word	0xfffdffff
 8005204:	fffffcff 	.word	0xfffffcff
 8005208:	fffbffff 	.word	0xfffbffff
 800520c:	fffff3ff 	.word	0xfffff3ff
 8005210:	ffffbfff 	.word	0xffffbfff
 8005214:	fffff7ff 	.word	0xfffff7ff
 8005218:	fffffbff 	.word	0xfffffbff
 800521c:	ffffcfff 	.word	0xffffcfff

08005220 <HAL_TIM_IC_ConfigChannel>:
 8005220:	0003      	movs	r3, r0
 8005222:	203c      	movs	r0, #60	@ 0x3c
 8005224:	b5f0      	push	{r4, r5, r6, r7, lr}
 8005226:	46ce      	mov	lr, r9
 8005228:	4647      	mov	r7, r8
 800522a:	5c1c      	ldrb	r4, [r3, r0]
 800522c:	b580      	push	{r7, lr}
 800522e:	2c01      	cmp	r4, #1
 8005230:	d100      	bne.n	8005234 <HAL_TIM_IC_ConfigChannel+0x14>
 8005232:	e0bf      	b.n	80053b4 <HAL_TIM_IC_ConfigChannel+0x194>
 8005234:	2401      	movs	r4, #1
 8005236:	541c      	strb	r4, [r3, r0]
 8005238:	2a00      	cmp	r2, #0
 800523a:	d00e      	beq.n	800525a <HAL_TIM_IC_ConfigChannel+0x3a>
 800523c:	2a04      	cmp	r2, #4
 800523e:	d039      	beq.n	80052b4 <HAL_TIM_IC_ConfigChannel+0x94>
 8005240:	2a08      	cmp	r2, #8
 8005242:	d100      	bne.n	8005246 <HAL_TIM_IC_ConfigChannel+0x26>
 8005244:	e08d      	b.n	8005362 <HAL_TIM_IC_ConfigChannel+0x142>
 8005246:	2001      	movs	r0, #1
 8005248:	2a0c      	cmp	r2, #12
 800524a:	d05a      	beq.n	8005302 <HAL_TIM_IC_ConfigChannel+0xe2>
 800524c:	223c      	movs	r2, #60	@ 0x3c
 800524e:	2100      	movs	r1, #0
 8005250:	5499      	strb	r1, [r3, r2]
 8005252:	bcc0      	pop	{r6, r7}
 8005254:	46b9      	mov	r9, r7
 8005256:	46b0      	mov	r8, r6
 8005258:	bdf0      	pop	{r4, r5, r6, r7, pc}
 800525a:	681a      	ldr	r2, [r3, #0]
 800525c:	6848      	ldr	r0, [r1, #4]
 800525e:	6a15      	ldr	r5, [r2, #32]
 8005260:	4681      	mov	r9, r0
 8005262:	6a10      	ldr	r0, [r2, #32]
 8005264:	680e      	ldr	r6, [r1, #0]
 8005266:	43a0      	bics	r0, r4
 8005268:	68cf      	ldr	r7, [r1, #12]
 800526a:	6210      	str	r0, [r2, #32]
 800526c:	6990      	ldr	r0, [r2, #24]
 800526e:	4684      	mov	ip, r0
 8005270:	4851      	ldr	r0, [pc, #324]	@ (80053b8 <HAL_TIM_IC_ConfigChannel+0x198>)
 8005272:	4282      	cmp	r2, r0
 8005274:	d06e      	beq.n	8005354 <HAL_TIM_IC_ConfigChannel+0x134>
 8005276:	2080      	movs	r0, #128	@ 0x80
 8005278:	05c0      	lsls	r0, r0, #23
 800527a:	4282      	cmp	r2, r0
 800527c:	d06a      	beq.n	8005354 <HAL_TIM_IC_ConfigChannel+0x134>
 800527e:	484f      	ldr	r0, [pc, #316]	@ (80053bc <HAL_TIM_IC_ConfigChannel+0x19c>)
 8005280:	4282      	cmp	r2, r0
 8005282:	d067      	beq.n	8005354 <HAL_TIM_IC_ConfigChannel+0x134>
 8005284:	4660      	mov	r0, ip
 8005286:	4320      	orrs	r0, r4
 8005288:	24f0      	movs	r4, #240	@ 0xf0
 800528a:	013f      	lsls	r7, r7, #4
 800528c:	43a0      	bics	r0, r4
 800528e:	340f      	adds	r4, #15
 8005290:	403c      	ands	r4, r7
 8005292:	4304      	orrs	r4, r0
 8005294:	200a      	movs	r0, #10
 8005296:	6194      	str	r4, [r2, #24]
 8005298:	240c      	movs	r4, #12
 800529a:	4385      	bics	r5, r0
 800529c:	4030      	ands	r0, r6
 800529e:	4328      	orrs	r0, r5
 80052a0:	6210      	str	r0, [r2, #32]
 80052a2:	6990      	ldr	r0, [r2, #24]
 80052a4:	6889      	ldr	r1, [r1, #8]
 80052a6:	43a0      	bics	r0, r4
 80052a8:	6190      	str	r0, [r2, #24]
 80052aa:	6990      	ldr	r0, [r2, #24]
 80052ac:	4301      	orrs	r1, r0
 80052ae:	6191      	str	r1, [r2, #24]
 80052b0:	2000      	movs	r0, #0
 80052b2:	e7cb      	b.n	800524c <HAL_TIM_IC_ConfigChannel+0x2c>
 80052b4:	68c8      	ldr	r0, [r1, #12]
 80052b6:	681a      	ldr	r2, [r3, #0]
 80052b8:	4680      	mov	r8, r0
 80052ba:	2010      	movs	r0, #16
 80052bc:	6a15      	ldr	r5, [r2, #32]
 80052be:	6a17      	ldr	r7, [r2, #32]
 80052c0:	680e      	ldr	r6, [r1, #0]
 80052c2:	4387      	bics	r7, r0
 80052c4:	684c      	ldr	r4, [r1, #4]
 80052c6:	6217      	str	r7, [r2, #32]
 80052c8:	6997      	ldr	r7, [r2, #24]
 80052ca:	483d      	ldr	r0, [pc, #244]	@ (80053c0 <HAL_TIM_IC_ConfigChannel+0x1a0>)
 80052cc:	0224      	lsls	r4, r4, #8
 80052ce:	4007      	ands	r7, r0
 80052d0:	4640      	mov	r0, r8
 80052d2:	433c      	orrs	r4, r7
 80052d4:	4f3b      	ldr	r7, [pc, #236]	@ (80053c4 <HAL_TIM_IC_ConfigChannel+0x1a4>)
 80052d6:	0700      	lsls	r0, r0, #28
 80052d8:	403c      	ands	r4, r7
 80052da:	0c00      	lsrs	r0, r0, #16
 80052dc:	4320      	orrs	r0, r4
 80052de:	24a0      	movs	r4, #160	@ 0xa0
 80052e0:	0136      	lsls	r6, r6, #4
 80052e2:	43a5      	bics	r5, r4
 80052e4:	4034      	ands	r4, r6
 80052e6:	432c      	orrs	r4, r5
 80052e8:	6190      	str	r0, [r2, #24]
 80052ea:	6214      	str	r4, [r2, #32]
 80052ec:	6990      	ldr	r0, [r2, #24]
 80052ee:	4c36      	ldr	r4, [pc, #216]	@ (80053c8 <HAL_TIM_IC_ConfigChannel+0x1a8>)
 80052f0:	6889      	ldr	r1, [r1, #8]
 80052f2:	4020      	ands	r0, r4
 80052f4:	6190      	str	r0, [r2, #24]
 80052f6:	6990      	ldr	r0, [r2, #24]
 80052f8:	0209      	lsls	r1, r1, #8
 80052fa:	4301      	orrs	r1, r0
 80052fc:	6191      	str	r1, [r2, #24]
 80052fe:	2000      	movs	r0, #0
 8005300:	e7a4      	b.n	800524c <HAL_TIM_IC_ConfigChannel+0x2c>
 8005302:	6808      	ldr	r0, [r1, #0]
 8005304:	681a      	ldr	r2, [r3, #0]
 8005306:	4680      	mov	r8, r0
 8005308:	6a16      	ldr	r6, [r2, #32]
 800530a:	4830      	ldr	r0, [pc, #192]	@ (80053cc <HAL_TIM_IC_ConfigChannel+0x1ac>)
 800530c:	6a17      	ldr	r7, [r2, #32]
 800530e:	684d      	ldr	r5, [r1, #4]
 8005310:	4007      	ands	r7, r0
 8005312:	68cc      	ldr	r4, [r1, #12]
 8005314:	6217      	str	r7, [r2, #32]
 8005316:	69d7      	ldr	r7, [r2, #28]
 8005318:	4829      	ldr	r0, [pc, #164]	@ (80053c0 <HAL_TIM_IC_ConfigChannel+0x1a0>)
 800531a:	022d      	lsls	r5, r5, #8
 800531c:	4007      	ands	r7, r0
 800531e:	433d      	orrs	r5, r7
 8005320:	4f28      	ldr	r7, [pc, #160]	@ (80053c4 <HAL_TIM_IC_ConfigChannel+0x1a4>)
 8005322:	0724      	lsls	r4, r4, #28
 8005324:	403d      	ands	r5, r7
 8005326:	0c24      	lsrs	r4, r4, #16
 8005328:	432c      	orrs	r4, r5
 800532a:	4d29      	ldr	r5, [pc, #164]	@ (80053d0 <HAL_TIM_IC_ConfigChannel+0x1b0>)
 800532c:	4640      	mov	r0, r8
 800532e:	4035      	ands	r5, r6
 8005330:	26a0      	movs	r6, #160	@ 0xa0
 8005332:	0300      	lsls	r0, r0, #12
 8005334:	0236      	lsls	r6, r6, #8
 8005336:	4030      	ands	r0, r6
 8005338:	4328      	orrs	r0, r5
 800533a:	61d4      	str	r4, [r2, #28]
 800533c:	6210      	str	r0, [r2, #32]
 800533e:	69d0      	ldr	r0, [r2, #28]
 8005340:	4c21      	ldr	r4, [pc, #132]	@ (80053c8 <HAL_TIM_IC_ConfigChannel+0x1a8>)
 8005342:	6889      	ldr	r1, [r1, #8]
 8005344:	4020      	ands	r0, r4
 8005346:	61d0      	str	r0, [r2, #28]
 8005348:	69d0      	ldr	r0, [r2, #28]
 800534a:	0209      	lsls	r1, r1, #8
 800534c:	4301      	orrs	r1, r0
 800534e:	61d1      	str	r1, [r2, #28]
 8005350:	2000      	movs	r0, #0
 8005352:	e77b      	b.n	800524c <HAL_TIM_IC_ConfigChannel+0x2c>
 8005354:	2403      	movs	r4, #3
 8005356:	4660      	mov	r0, ip
 8005358:	43a0      	bics	r0, r4
 800535a:	0004      	movs	r4, r0
 800535c:	4648      	mov	r0, r9
 800535e:	4320      	orrs	r0, r4
 8005360:	e792      	b.n	8005288 <HAL_TIM_IC_ConfigChannel+0x68>
 8005362:	681a      	ldr	r2, [r3, #0]
 8005364:	6808      	ldr	r0, [r1, #0]
 8005366:	6a16      	ldr	r6, [r2, #32]
 8005368:	4680      	mov	r8, r0
 800536a:	6a14      	ldr	r4, [r2, #32]
 800536c:	4819      	ldr	r0, [pc, #100]	@ (80053d4 <HAL_TIM_IC_ConfigChannel+0x1b4>)
 800536e:	684d      	ldr	r5, [r1, #4]
 8005370:	4004      	ands	r4, r0
 8005372:	68cf      	ldr	r7, [r1, #12]
 8005374:	6214      	str	r4, [r2, #32]
 8005376:	69d4      	ldr	r4, [r2, #28]
 8005378:	3005      	adds	r0, #5
 800537a:	30ff      	adds	r0, #255	@ 0xff
 800537c:	4384      	bics	r4, r0
 800537e:	4325      	orrs	r5, r4
 8005380:	24f0      	movs	r4, #240	@ 0xf0
 8005382:	013f      	lsls	r7, r7, #4
 8005384:	43a5      	bics	r5, r4
 8005386:	340f      	adds	r4, #15
 8005388:	403c      	ands	r4, r7
 800538a:	432c      	orrs	r4, r5
 800538c:	4d12      	ldr	r5, [pc, #72]	@ (80053d8 <HAL_TIM_IC_ConfigChannel+0x1b8>)
 800538e:	4640      	mov	r0, r8
 8005390:	4035      	ands	r5, r6
 8005392:	26a0      	movs	r6, #160	@ 0xa0
 8005394:	61d4      	str	r4, [r2, #28]
 8005396:	240c      	movs	r4, #12
 8005398:	0200      	lsls	r0, r0, #8
 800539a:	0136      	lsls	r6, r6, #4
 800539c:	4030      	ands	r0, r6
 800539e:	4328      	orrs	r0, r5
 80053a0:	6210      	str	r0, [r2, #32]
 80053a2:	69d0      	ldr	r0, [r2, #28]
 80053a4:	6889      	ldr	r1, [r1, #8]
 80053a6:	43a0      	bics	r0, r4
 80053a8:	61d0      	str	r0, [r2, #28]
 80053aa:	69d0      	ldr	r0, [r2, #28]
 80053ac:	4301      	orrs	r1, r0
 80053ae:	61d1      	str	r1, [r2, #28]
 80053b0:	2000      	movs	r0, #0
 80053b2:	e74b      	b.n	800524c <HAL_TIM_IC_ConfigChannel+0x2c>
 80053b4:	2002      	movs	r0, #2
 80053b6:	e74c      	b.n	8005252 <HAL_TIM_IC_ConfigChannel+0x32>
 80053b8:	40012c00 	.word	0x40012c00
 80053bc:	40000400 	.word	0x40000400
 80053c0:	fffffcff 	.word	0xfffffcff
 80053c4:	ffff0fff 	.word	0xffff0fff
 80053c8:	fffff3ff 	.word	0xfffff3ff
 80053cc:	ffffefff 	.word	0xffffefff
 80053d0:	ffff5fff 	.word	0xffff5fff
 80053d4:	fffffeff 	.word	0xfffffeff
 80053d8:	fffff5ff 	.word	0xfffff5ff

080053dc <HAL_TIM_PWM_ConfigChannel>:
 80053dc:	0003      	movs	r3, r0
 80053de:	203c      	movs	r0, #60	@ 0x3c
 80053e0:	b5f0      	push	{r4, r5, r6, r7, lr}
 80053e2:	5c1c      	ldrb	r4, [r3, r0]
 80053e4:	2c01      	cmp	r4, #1
 80053e6:	d100      	bne.n	80053ea <HAL_TIM_PWM_ConfigChannel+0xe>
 80053e8:	e16b      	b.n	80056c2 <HAL_TIM_PWM_ConfigChannel+0x2e6>
 80053ea:	2401      	movs	r4, #1
 80053ec:	541c      	strb	r4, [r3, r0]
 80053ee:	2a14      	cmp	r2, #20
 80053f0:	d803      	bhi.n	80053fa <HAL_TIM_PWM_ConfigChannel+0x1e>
 80053f2:	48b5      	ldr	r0, [pc, #724]	@ (80056c8 <HAL_TIM_PWM_ConfigChannel+0x2ec>)
 80053f4:	0092      	lsls	r2, r2, #2
 80053f6:	5882      	ldr	r2, [r0, r2]
 80053f8:	4697      	mov	pc, r2
 80053fa:	2001      	movs	r0, #1
 80053fc:	223c      	movs	r2, #60	@ 0x3c
 80053fe:	2100      	movs	r1, #0
 8005400:	5499      	strb	r1, [r3, r2]
 8005402:	bdf0      	pop	{r4, r5, r6, r7, pc}
 8005404:	681a      	ldr	r2, [r3, #0]
 8005406:	4db1      	ldr	r5, [pc, #708]	@ (80056cc <HAL_TIM_PWM_ConfigChannel+0x2f0>)
 8005408:	6a14      	ldr	r4, [r2, #32]
 800540a:	6a10      	ldr	r0, [r2, #32]
 800540c:	4028      	ands	r0, r5
 800540e:	6210      	str	r0, [r2, #32]
 8005410:	4daf      	ldr	r5, [pc, #700]	@ (80056d0 <HAL_TIM_PWM_ConfigChannel+0x2f4>)
 8005412:	6856      	ldr	r6, [r2, #4]
 8005414:	6d50      	ldr	r0, [r2, #84]	@ 0x54
 8005416:	4028      	ands	r0, r5
 8005418:	680d      	ldr	r5, [r1, #0]
 800541a:	022d      	lsls	r5, r5, #8
 800541c:	4305      	orrs	r5, r0
 800541e:	48ad      	ldr	r0, [pc, #692]	@ (80056d4 <HAL_TIM_PWM_ConfigChannel+0x2f8>)
 8005420:	4004      	ands	r4, r0
 8005422:	6888      	ldr	r0, [r1, #8]
 8005424:	0500      	lsls	r0, r0, #20
 8005426:	4320      	orrs	r0, r4
 8005428:	4cab      	ldr	r4, [pc, #684]	@ (80056d8 <HAL_TIM_PWM_ConfigChannel+0x2fc>)
 800542a:	42a2      	cmp	r2, r4
 800542c:	d100      	bne.n	8005430 <HAL_TIM_PWM_ConfigChannel+0x54>
 800542e:	e118      	b.n	8005662 <HAL_TIM_PWM_ConfigChannel+0x286>
 8005430:	4caa      	ldr	r4, [pc, #680]	@ (80056dc <HAL_TIM_PWM_ConfigChannel+0x300>)
 8005432:	42a2      	cmp	r2, r4
 8005434:	d100      	bne.n	8005438 <HAL_TIM_PWM_ConfigChannel+0x5c>
 8005436:	e114      	b.n	8005662 <HAL_TIM_PWM_ConfigChannel+0x286>
 8005438:	4ca9      	ldr	r4, [pc, #676]	@ (80056e0 <HAL_TIM_PWM_ConfigChannel+0x304>)
 800543a:	42a2      	cmp	r2, r4
 800543c:	d100      	bne.n	8005440 <HAL_TIM_PWM_ConfigChannel+0x64>
 800543e:	e110      	b.n	8005662 <HAL_TIM_PWM_ConfigChannel+0x286>
 8005440:	684c      	ldr	r4, [r1, #4]
 8005442:	6056      	str	r6, [r2, #4]
 8005444:	6555      	str	r5, [r2, #84]	@ 0x54
 8005446:	65d4      	str	r4, [r2, #92]	@ 0x5c
 8005448:	6210      	str	r0, [r2, #32]
 800544a:	2080      	movs	r0, #128	@ 0x80
 800544c:	6d54      	ldr	r4, [r2, #84]	@ 0x54
 800544e:	0100      	lsls	r0, r0, #4
 8005450:	4320      	orrs	r0, r4
 8005452:	6550      	str	r0, [r2, #84]	@ 0x54
 8005454:	6d50      	ldr	r0, [r2, #84]	@ 0x54
 8005456:	4ca3      	ldr	r4, [pc, #652]	@ (80056e4 <HAL_TIM_PWM_ConfigChannel+0x308>)
 8005458:	6909      	ldr	r1, [r1, #16]
 800545a:	4020      	ands	r0, r4
 800545c:	6550      	str	r0, [r2, #84]	@ 0x54
 800545e:	6d50      	ldr	r0, [r2, #84]	@ 0x54
 8005460:	0209      	lsls	r1, r1, #8
 8005462:	4301      	orrs	r1, r0
 8005464:	6551      	str	r1, [r2, #84]	@ 0x54
 8005466:	2000      	movs	r0, #0
 8005468:	e7c8      	b.n	80053fc <HAL_TIM_PWM_ConfigChannel+0x20>
 800546a:	2501      	movs	r5, #1
 800546c:	681a      	ldr	r2, [r3, #0]
 800546e:	4e9e      	ldr	r6, [pc, #632]	@ (80056e8 <HAL_TIM_PWM_ConfigChannel+0x30c>)
 8005470:	6a10      	ldr	r0, [r2, #32]
 8005472:	6a14      	ldr	r4, [r2, #32]
 8005474:	43ac      	bics	r4, r5
 8005476:	6214      	str	r4, [r2, #32]
 8005478:	6855      	ldr	r5, [r2, #4]
 800547a:	6994      	ldr	r4, [r2, #24]
 800547c:	4034      	ands	r4, r6
 800547e:	680e      	ldr	r6, [r1, #0]
 8005480:	4334      	orrs	r4, r6
 8005482:	2602      	movs	r6, #2
 8005484:	43b0      	bics	r0, r6
 8005486:	688e      	ldr	r6, [r1, #8]
 8005488:	4330      	orrs	r0, r6
 800548a:	4e93      	ldr	r6, [pc, #588]	@ (80056d8 <HAL_TIM_PWM_ConfigChannel+0x2fc>)
 800548c:	42b2      	cmp	r2, r6
 800548e:	d100      	bne.n	8005492 <HAL_TIM_PWM_ConfigChannel+0xb6>
 8005490:	e0da      	b.n	8005648 <HAL_TIM_PWM_ConfigChannel+0x26c>
 8005492:	4e92      	ldr	r6, [pc, #584]	@ (80056dc <HAL_TIM_PWM_ConfigChannel+0x300>)
 8005494:	42b2      	cmp	r2, r6
 8005496:	d100      	bne.n	800549a <HAL_TIM_PWM_ConfigChannel+0xbe>
 8005498:	e0d6      	b.n	8005648 <HAL_TIM_PWM_ConfigChannel+0x26c>
 800549a:	4e91      	ldr	r6, [pc, #580]	@ (80056e0 <HAL_TIM_PWM_ConfigChannel+0x304>)
 800549c:	42b2      	cmp	r2, r6
 800549e:	d100      	bne.n	80054a2 <HAL_TIM_PWM_ConfigChannel+0xc6>
 80054a0:	e0d2      	b.n	8005648 <HAL_TIM_PWM_ConfigChannel+0x26c>
 80054a2:	6055      	str	r5, [r2, #4]
 80054a4:	6194      	str	r4, [r2, #24]
 80054a6:	684c      	ldr	r4, [r1, #4]
 80054a8:	6909      	ldr	r1, [r1, #16]
 80054aa:	6354      	str	r4, [r2, #52]	@ 0x34
 80054ac:	2408      	movs	r4, #8
 80054ae:	6210      	str	r0, [r2, #32]
 80054b0:	6990      	ldr	r0, [r2, #24]
 80054b2:	4320      	orrs	r0, r4
 80054b4:	6190      	str	r0, [r2, #24]
 80054b6:	6990      	ldr	r0, [r2, #24]
 80054b8:	3c04      	subs	r4, #4
 80054ba:	43a0      	bics	r0, r4
 80054bc:	6190      	str	r0, [r2, #24]
 80054be:	6990      	ldr	r0, [r2, #24]
 80054c0:	4301      	orrs	r1, r0
 80054c2:	6191      	str	r1, [r2, #24]
 80054c4:	2000      	movs	r0, #0
 80054c6:	e799      	b.n	80053fc <HAL_TIM_PWM_ConfigChannel+0x20>
 80054c8:	2510      	movs	r5, #16
 80054ca:	681a      	ldr	r2, [r3, #0]
 80054cc:	6a10      	ldr	r0, [r2, #32]
 80054ce:	6a14      	ldr	r4, [r2, #32]
 80054d0:	43ac      	bics	r4, r5
 80054d2:	6214      	str	r4, [r2, #32]
 80054d4:	4d85      	ldr	r5, [pc, #532]	@ (80056ec <HAL_TIM_PWM_ConfigChannel+0x310>)
 80054d6:	6856      	ldr	r6, [r2, #4]
 80054d8:	6994      	ldr	r4, [r2, #24]
 80054da:	402c      	ands	r4, r5
 80054dc:	680d      	ldr	r5, [r1, #0]
 80054de:	022d      	lsls	r5, r5, #8
 80054e0:	4325      	orrs	r5, r4
 80054e2:	2420      	movs	r4, #32
 80054e4:	43a0      	bics	r0, r4
 80054e6:	688c      	ldr	r4, [r1, #8]
 80054e8:	0124      	lsls	r4, r4, #4
 80054ea:	4304      	orrs	r4, r0
 80054ec:	487a      	ldr	r0, [pc, #488]	@ (80056d8 <HAL_TIM_PWM_ConfigChannel+0x2fc>)
 80054ee:	4282      	cmp	r2, r0
 80054f0:	d100      	bne.n	80054f4 <HAL_TIM_PWM_ConfigChannel+0x118>
 80054f2:	e0c2      	b.n	800567a <HAL_TIM_PWM_ConfigChannel+0x29e>
 80054f4:	4879      	ldr	r0, [pc, #484]	@ (80056dc <HAL_TIM_PWM_ConfigChannel+0x300>)
 80054f6:	4282      	cmp	r2, r0
 80054f8:	d100      	bne.n	80054fc <HAL_TIM_PWM_ConfigChannel+0x120>
 80054fa:	e0c5      	b.n	8005688 <HAL_TIM_PWM_ConfigChannel+0x2ac>
 80054fc:	4878      	ldr	r0, [pc, #480]	@ (80056e0 <HAL_TIM_PWM_ConfigChannel+0x304>)
 80054fe:	4282      	cmp	r2, r0
 8005500:	d100      	bne.n	8005504 <HAL_TIM_PWM_ConfigChannel+0x128>
 8005502:	e0c1      	b.n	8005688 <HAL_TIM_PWM_ConfigChannel+0x2ac>
 8005504:	6848      	ldr	r0, [r1, #4]
 8005506:	6056      	str	r6, [r2, #4]
 8005508:	6195      	str	r5, [r2, #24]
 800550a:	6390      	str	r0, [r2, #56]	@ 0x38
 800550c:	2080      	movs	r0, #128	@ 0x80
 800550e:	6214      	str	r4, [r2, #32]
 8005510:	6994      	ldr	r4, [r2, #24]
 8005512:	0100      	lsls	r0, r0, #4
 8005514:	4320      	orrs	r0, r4
 8005516:	6190      	str	r0, [r2, #24]
 8005518:	6990      	ldr	r0, [r2, #24]
 800551a:	4c72      	ldr	r4, [pc, #456]	@ (80056e4 <HAL_TIM_PWM_ConfigChannel+0x308>)
 800551c:	6909      	ldr	r1, [r1, #16]
 800551e:	4020      	ands	r0, r4
 8005520:	6190      	str	r0, [r2, #24]
 8005522:	6990      	ldr	r0, [r2, #24]
 8005524:	0209      	lsls	r1, r1, #8
 8005526:	4301      	orrs	r1, r0
 8005528:	6191      	str	r1, [r2, #24]
 800552a:	2000      	movs	r0, #0
 800552c:	e766      	b.n	80053fc <HAL_TIM_PWM_ConfigChannel+0x20>
 800552e:	681a      	ldr	r2, [r3, #0]
 8005530:	4d6f      	ldr	r5, [pc, #444]	@ (80056f0 <HAL_TIM_PWM_ConfigChannel+0x314>)
 8005532:	6a10      	ldr	r0, [r2, #32]
 8005534:	6a14      	ldr	r4, [r2, #32]
 8005536:	4e6c      	ldr	r6, [pc, #432]	@ (80056e8 <HAL_TIM_PWM_ConfigChannel+0x30c>)
 8005538:	402c      	ands	r4, r5
 800553a:	6214      	str	r4, [r2, #32]
 800553c:	6855      	ldr	r5, [r2, #4]
 800553e:	69d4      	ldr	r4, [r2, #28]
 8005540:	4034      	ands	r4, r6
 8005542:	680e      	ldr	r6, [r1, #0]
 8005544:	4326      	orrs	r6, r4
 8005546:	4c6b      	ldr	r4, [pc, #428]	@ (80056f4 <HAL_TIM_PWM_ConfigChannel+0x318>)
 8005548:	4020      	ands	r0, r4
 800554a:	688c      	ldr	r4, [r1, #8]
 800554c:	0224      	lsls	r4, r4, #8
 800554e:	4320      	orrs	r0, r4
 8005550:	4c61      	ldr	r4, [pc, #388]	@ (80056d8 <HAL_TIM_PWM_ConfigChannel+0x2fc>)
 8005552:	42a2      	cmp	r2, r4
 8005554:	d100      	bne.n	8005558 <HAL_TIM_PWM_ConfigChannel+0x17c>
 8005556:	e0a5      	b.n	80056a4 <HAL_TIM_PWM_ConfigChannel+0x2c8>
 8005558:	4c60      	ldr	r4, [pc, #384]	@ (80056dc <HAL_TIM_PWM_ConfigChannel+0x300>)
 800555a:	42a2      	cmp	r2, r4
 800555c:	d100      	bne.n	8005560 <HAL_TIM_PWM_ConfigChannel+0x184>
 800555e:	e0a8      	b.n	80056b2 <HAL_TIM_PWM_ConfigChannel+0x2d6>
 8005560:	4c5f      	ldr	r4, [pc, #380]	@ (80056e0 <HAL_TIM_PWM_ConfigChannel+0x304>)
 8005562:	42a2      	cmp	r2, r4
 8005564:	d100      	bne.n	8005568 <HAL_TIM_PWM_ConfigChannel+0x18c>
 8005566:	e0a4      	b.n	80056b2 <HAL_TIM_PWM_ConfigChannel+0x2d6>
 8005568:	684c      	ldr	r4, [r1, #4]
 800556a:	6055      	str	r5, [r2, #4]
 800556c:	61d6      	str	r6, [r2, #28]
 800556e:	63d4      	str	r4, [r2, #60]	@ 0x3c
 8005570:	2408      	movs	r4, #8
 8005572:	6210      	str	r0, [r2, #32]
 8005574:	69d0      	ldr	r0, [r2, #28]
 8005576:	6909      	ldr	r1, [r1, #16]
 8005578:	4320      	orrs	r0, r4
 800557a:	61d0      	str	r0, [r2, #28]
 800557c:	69d0      	ldr	r0, [r2, #28]
 800557e:	3c04      	subs	r4, #4
 8005580:	43a0      	bics	r0, r4
 8005582:	61d0      	str	r0, [r2, #28]
 8005584:	69d0      	ldr	r0, [r2, #28]
 8005586:	4301      	orrs	r1, r0
 8005588:	61d1      	str	r1, [r2, #28]
 800558a:	2000      	movs	r0, #0
 800558c:	e736      	b.n	80053fc <HAL_TIM_PWM_ConfigChannel+0x20>
 800558e:	681a      	ldr	r2, [r3, #0]
 8005590:	4d59      	ldr	r5, [pc, #356]	@ (80056f8 <HAL_TIM_PWM_ConfigChannel+0x31c>)
 8005592:	6a14      	ldr	r4, [r2, #32]
 8005594:	6a10      	ldr	r0, [r2, #32]
 8005596:	4028      	ands	r0, r5
 8005598:	6210      	str	r0, [r2, #32]
 800559a:	4d54      	ldr	r5, [pc, #336]	@ (80056ec <HAL_TIM_PWM_ConfigChannel+0x310>)
 800559c:	6856      	ldr	r6, [r2, #4]
 800559e:	69d0      	ldr	r0, [r2, #28]
 80055a0:	4028      	ands	r0, r5
 80055a2:	680d      	ldr	r5, [r1, #0]
 80055a4:	022d      	lsls	r5, r5, #8
 80055a6:	4305      	orrs	r5, r0
 80055a8:	4854      	ldr	r0, [pc, #336]	@ (80056fc <HAL_TIM_PWM_ConfigChannel+0x320>)
 80055aa:	4004      	ands	r4, r0
 80055ac:	6888      	ldr	r0, [r1, #8]
 80055ae:	0300      	lsls	r0, r0, #12
 80055b0:	4320      	orrs	r0, r4
 80055b2:	4c49      	ldr	r4, [pc, #292]	@ (80056d8 <HAL_TIM_PWM_ConfigChannel+0x2fc>)
 80055b4:	42a2      	cmp	r2, r4
 80055b6:	d06f      	beq.n	8005698 <HAL_TIM_PWM_ConfigChannel+0x2bc>
 80055b8:	4c48      	ldr	r4, [pc, #288]	@ (80056dc <HAL_TIM_PWM_ConfigChannel+0x300>)
 80055ba:	42a2      	cmp	r2, r4
 80055bc:	d06c      	beq.n	8005698 <HAL_TIM_PWM_ConfigChannel+0x2bc>
 80055be:	4c48      	ldr	r4, [pc, #288]	@ (80056e0 <HAL_TIM_PWM_ConfigChannel+0x304>)
 80055c0:	42a2      	cmp	r2, r4
 80055c2:	d069      	beq.n	8005698 <HAL_TIM_PWM_ConfigChannel+0x2bc>
 80055c4:	684c      	ldr	r4, [r1, #4]
 80055c6:	6056      	str	r6, [r2, #4]
 80055c8:	61d5      	str	r5, [r2, #28]
 80055ca:	6414      	str	r4, [r2, #64]	@ 0x40
 80055cc:	6210      	str	r0, [r2, #32]
 80055ce:	2080      	movs	r0, #128	@ 0x80
 80055d0:	69d4      	ldr	r4, [r2, #28]
 80055d2:	0100      	lsls	r0, r0, #4
 80055d4:	4320      	orrs	r0, r4
 80055d6:	61d0      	str	r0, [r2, #28]
 80055d8:	69d0      	ldr	r0, [r2, #28]
 80055da:	4c42      	ldr	r4, [pc, #264]	@ (80056e4 <HAL_TIM_PWM_ConfigChannel+0x308>)
 80055dc:	6909      	ldr	r1, [r1, #16]
 80055de:	4020      	ands	r0, r4
 80055e0:	61d0      	str	r0, [r2, #28]
 80055e2:	69d0      	ldr	r0, [r2, #28]
 80055e4:	0209      	lsls	r1, r1, #8
 80055e6:	4301      	orrs	r1, r0
 80055e8:	61d1      	str	r1, [r2, #28]
 80055ea:	2000      	movs	r0, #0
 80055ec:	e706      	b.n	80053fc <HAL_TIM_PWM_ConfigChannel+0x20>
 80055ee:	681a      	ldr	r2, [r3, #0]
 80055f0:	4d43      	ldr	r5, [pc, #268]	@ (8005700 <HAL_TIM_PWM_ConfigChannel+0x324>)
 80055f2:	6a14      	ldr	r4, [r2, #32]
 80055f4:	6a10      	ldr	r0, [r2, #32]
 80055f6:	4028      	ands	r0, r5
 80055f8:	6210      	str	r0, [r2, #32]
 80055fa:	4d42      	ldr	r5, [pc, #264]	@ (8005704 <HAL_TIM_PWM_ConfigChannel+0x328>)
 80055fc:	6856      	ldr	r6, [r2, #4]
 80055fe:	6d50      	ldr	r0, [r2, #84]	@ 0x54
 8005600:	4028      	ands	r0, r5
 8005602:	680d      	ldr	r5, [r1, #0]
 8005604:	4305      	orrs	r5, r0
 8005606:	4840      	ldr	r0, [pc, #256]	@ (8005708 <HAL_TIM_PWM_ConfigChannel+0x32c>)
 8005608:	4004      	ands	r4, r0
 800560a:	6888      	ldr	r0, [r1, #8]
 800560c:	0400      	lsls	r0, r0, #16
 800560e:	4320      	orrs	r0, r4
 8005610:	4c31      	ldr	r4, [pc, #196]	@ (80056d8 <HAL_TIM_PWM_ConfigChannel+0x2fc>)
 8005612:	42a2      	cmp	r2, r4
 8005614:	d02b      	beq.n	800566e <HAL_TIM_PWM_ConfigChannel+0x292>
 8005616:	4c31      	ldr	r4, [pc, #196]	@ (80056dc <HAL_TIM_PWM_ConfigChannel+0x300>)
 8005618:	42a2      	cmp	r2, r4
 800561a:	d028      	beq.n	800566e <HAL_TIM_PWM_ConfigChannel+0x292>
 800561c:	4c30      	ldr	r4, [pc, #192]	@ (80056e0 <HAL_TIM_PWM_ConfigChannel+0x304>)
 800561e:	42a2      	cmp	r2, r4
 8005620:	d025      	beq.n	800566e <HAL_TIM_PWM_ConfigChannel+0x292>
 8005622:	684c      	ldr	r4, [r1, #4]
 8005624:	6056      	str	r6, [r2, #4]
 8005626:	6555      	str	r5, [r2, #84]	@ 0x54
 8005628:	6594      	str	r4, [r2, #88]	@ 0x58
 800562a:	2408      	movs	r4, #8
 800562c:	6210      	str	r0, [r2, #32]
 800562e:	6d50      	ldr	r0, [r2, #84]	@ 0x54
 8005630:	6909      	ldr	r1, [r1, #16]
 8005632:	4320      	orrs	r0, r4
 8005634:	6550      	str	r0, [r2, #84]	@ 0x54
 8005636:	6d50      	ldr	r0, [r2, #84]	@ 0x54
 8005638:	3c04      	subs	r4, #4
 800563a:	43a0      	bics	r0, r4
 800563c:	6550      	str	r0, [r2, #84]	@ 0x54
 800563e:	6d50      	ldr	r0, [r2, #84]	@ 0x54
 8005640:	4301      	orrs	r1, r0
 8005642:	6551      	str	r1, [r2, #84]	@ 0x54
 8005644:	2000      	movs	r0, #0
 8005646:	e6d9      	b.n	80053fc <HAL_TIM_PWM_ConfigChannel+0x20>
 8005648:	2608      	movs	r6, #8
 800564a:	43b0      	bics	r0, r6
 800564c:	68ce      	ldr	r6, [r1, #12]
 800564e:	698f      	ldr	r7, [r1, #24]
 8005650:	4330      	orrs	r0, r6
 8005652:	2604      	movs	r6, #4
 8005654:	43b0      	bics	r0, r6
 8005656:	4e2d      	ldr	r6, [pc, #180]	@ (800570c <HAL_TIM_PWM_ConfigChannel+0x330>)
 8005658:	402e      	ands	r6, r5
 800565a:	694d      	ldr	r5, [r1, #20]
 800565c:	433d      	orrs	r5, r7
 800565e:	4335      	orrs	r5, r6
 8005660:	e71f      	b.n	80054a2 <HAL_TIM_PWM_ConfigChannel+0xc6>
 8005662:	4c2b      	ldr	r4, [pc, #172]	@ (8005710 <HAL_TIM_PWM_ConfigChannel+0x334>)
 8005664:	4034      	ands	r4, r6
 8005666:	694e      	ldr	r6, [r1, #20]
 8005668:	02b6      	lsls	r6, r6, #10
 800566a:	4326      	orrs	r6, r4
 800566c:	e6e8      	b.n	8005440 <HAL_TIM_PWM_ConfigChannel+0x64>
 800566e:	4c24      	ldr	r4, [pc, #144]	@ (8005700 <HAL_TIM_PWM_ConfigChannel+0x324>)
 8005670:	4034      	ands	r4, r6
 8005672:	694e      	ldr	r6, [r1, #20]
 8005674:	0236      	lsls	r6, r6, #8
 8005676:	4326      	orrs	r6, r4
 8005678:	e7d3      	b.n	8005622 <HAL_TIM_PWM_ConfigChannel+0x246>
 800567a:	2080      	movs	r0, #128	@ 0x80
 800567c:	4384      	bics	r4, r0
 800567e:	68c8      	ldr	r0, [r1, #12]
 8005680:	0100      	lsls	r0, r0, #4
 8005682:	4304      	orrs	r4, r0
 8005684:	2040      	movs	r0, #64	@ 0x40
 8005686:	4384      	bics	r4, r0
 8005688:	4822      	ldr	r0, [pc, #136]	@ (8005714 <HAL_TIM_PWM_ConfigChannel+0x338>)
 800568a:	694f      	ldr	r7, [r1, #20]
 800568c:	4030      	ands	r0, r6
 800568e:	698e      	ldr	r6, [r1, #24]
 8005690:	433e      	orrs	r6, r7
 8005692:	00b6      	lsls	r6, r6, #2
 8005694:	4306      	orrs	r6, r0
 8005696:	e735      	b.n	8005504 <HAL_TIM_PWM_ConfigChannel+0x128>
 8005698:	4c1f      	ldr	r4, [pc, #124]	@ (8005718 <HAL_TIM_PWM_ConfigChannel+0x33c>)
 800569a:	4034      	ands	r4, r6
 800569c:	694e      	ldr	r6, [r1, #20]
 800569e:	01b6      	lsls	r6, r6, #6
 80056a0:	4326      	orrs	r6, r4
 80056a2:	e78f      	b.n	80055c4 <HAL_TIM_PWM_ConfigChannel+0x1e8>
 80056a4:	4c1d      	ldr	r4, [pc, #116]	@ (800571c <HAL_TIM_PWM_ConfigChannel+0x340>)
 80056a6:	4020      	ands	r0, r4
 80056a8:	68cc      	ldr	r4, [r1, #12]
 80056aa:	0224      	lsls	r4, r4, #8
 80056ac:	4304      	orrs	r4, r0
 80056ae:	480d      	ldr	r0, [pc, #52]	@ (80056e4 <HAL_TIM_PWM_ConfigChannel+0x308>)
 80056b0:	4020      	ands	r0, r4
 80056b2:	4c1b      	ldr	r4, [pc, #108]	@ (8005720 <HAL_TIM_PWM_ConfigChannel+0x344>)
 80056b4:	694f      	ldr	r7, [r1, #20]
 80056b6:	402c      	ands	r4, r5
 80056b8:	698d      	ldr	r5, [r1, #24]
 80056ba:	433d      	orrs	r5, r7
 80056bc:	012d      	lsls	r5, r5, #4
 80056be:	4325      	orrs	r5, r4
 80056c0:	e752      	b.n	8005568 <HAL_TIM_PWM_ConfigChannel+0x18c>
 80056c2:	2002      	movs	r0, #2
 80056c4:	e69d      	b.n	8005402 <HAL_TIM_PWM_ConfigChannel+0x26>
 80056c6:	46c0      	nop			@ (mov r8, r8)
 80056c8:	0800738c 	.word	0x0800738c
 80056cc:	ffefffff 	.word	0xffefffff
 80056d0:	feff8fff 	.word	0xfeff8fff
 80056d4:	ffdfffff 	.word	0xffdfffff
 80056d8:	40012c00 	.word	0x40012c00
 80056dc:	40014400 	.word	0x40014400
 80056e0:	40014800 	.word	0x40014800
 80056e4:	fffffbff 	.word	0xfffffbff
 80056e8:	fffeff8c 	.word	0xfffeff8c
 80056ec:	feff8cff 	.word	0xfeff8cff
 80056f0:	fffffeff 	.word	0xfffffeff
 80056f4:	fffffdff 	.word	0xfffffdff
 80056f8:	ffffefff 	.word	0xffffefff
 80056fc:	ffffdfff 	.word	0xffffdfff
 8005700:	fffeffff 	.word	0xfffeffff
 8005704:	fffeff8f 	.word	0xfffeff8f
 8005708:	fffdffff 	.word	0xfffdffff
 800570c:	fffffcff 	.word	0xfffffcff
 8005710:	fffbffff 	.word	0xfffbffff
 8005714:	fffff3ff 	.word	0xfffff3ff
 8005718:	ffffbfff 	.word	0xffffbfff
 800571c:	fffff7ff 	.word	0xfffff7ff
 8005720:	ffffcfff 	.word	0xffffcfff

08005724 <HAL_TIM_ConfigClockSource>:
 8005724:	233c      	movs	r3, #60	@ 0x3c
 8005726:	b570      	push	{r4, r5, r6, lr}
 8005728:	0002      	movs	r2, r0
 800572a:	5cc0      	ldrb	r0, [r0, r3]
 800572c:	2801      	cmp	r0, #1
 800572e:	d100      	bne.n	8005732 <HAL_TIM_ConfigClockSource+0xe>
 8005730:	e073      	b.n	800581a <HAL_TIM_ConfigClockSource+0xf6>
 8005732:	2401      	movs	r4, #1
 8005734:	2002      	movs	r0, #2
 8005736:	54d4      	strb	r4, [r2, r3]
 8005738:	3301      	adds	r3, #1
 800573a:	54d0      	strb	r0, [r2, r3]
 800573c:	6810      	ldr	r0, [r2, #0]
 800573e:	4d51      	ldr	r5, [pc, #324]	@ (8005884 <HAL_TIM_ConfigClockSource+0x160>)
 8005740:	6883      	ldr	r3, [r0, #8]
 8005742:	402b      	ands	r3, r5
 8005744:	6083      	str	r3, [r0, #8]
 8005746:	680b      	ldr	r3, [r1, #0]
 8005748:	2b60      	cmp	r3, #96	@ 0x60
 800574a:	d100      	bne.n	800574e <HAL_TIM_ConfigClockSource+0x2a>
 800574c:	e067      	b.n	800581e <HAL_TIM_ConfigClockSource+0xfa>
 800574e:	d81d      	bhi.n	800578c <HAL_TIM_ConfigClockSource+0x68>
 8005750:	2b40      	cmp	r3, #64	@ 0x40
 8005752:	d100      	bne.n	8005756 <HAL_TIM_ConfigClockSource+0x32>
 8005754:	e07d      	b.n	8005852 <HAL_TIM_ConfigClockSource+0x12e>
 8005756:	d93f      	bls.n	80057d8 <HAL_TIM_ConfigClockSource+0xb4>
 8005758:	2b50      	cmp	r3, #80	@ 0x50
 800575a:	d135      	bne.n	80057c8 <HAL_TIM_ConfigClockSource+0xa4>
 800575c:	684d      	ldr	r5, [r1, #4]
 800575e:	68cb      	ldr	r3, [r1, #12]
 8005760:	6a01      	ldr	r1, [r0, #32]
 8005762:	6a06      	ldr	r6, [r0, #32]
 8005764:	011b      	lsls	r3, r3, #4
 8005766:	43a6      	bics	r6, r4
 8005768:	6206      	str	r6, [r0, #32]
 800576a:	26f0      	movs	r6, #240	@ 0xf0
 800576c:	6984      	ldr	r4, [r0, #24]
 800576e:	43b4      	bics	r4, r6
 8005770:	4323      	orrs	r3, r4
 8005772:	240a      	movs	r4, #10
 8005774:	43a1      	bics	r1, r4
 8005776:	4329      	orrs	r1, r5
 8005778:	6183      	str	r3, [r0, #24]
 800577a:	6201      	str	r1, [r0, #32]
 800577c:	6883      	ldr	r3, [r0, #8]
 800577e:	4942      	ldr	r1, [pc, #264]	@ (8005888 <HAL_TIM_ConfigClockSource+0x164>)
 8005780:	400b      	ands	r3, r1
 8005782:	2157      	movs	r1, #87	@ 0x57
 8005784:	430b      	orrs	r3, r1
 8005786:	6083      	str	r3, [r0, #8]
 8005788:	2000      	movs	r0, #0
 800578a:	e01e      	b.n	80057ca <HAL_TIM_ConfigClockSource+0xa6>
 800578c:	2480      	movs	r4, #128	@ 0x80
 800578e:	0164      	lsls	r4, r4, #5
 8005790:	42a3      	cmp	r3, r4
 8005792:	d0f9      	beq.n	8005788 <HAL_TIM_ConfigClockSource+0x64>
 8005794:	2480      	movs	r4, #128	@ 0x80
 8005796:	01a4      	lsls	r4, r4, #6
 8005798:	42a3      	cmp	r3, r4
 800579a:	d12b      	bne.n	80057f4 <HAL_TIM_ConfigClockSource+0xd0>
 800579c:	6884      	ldr	r4, [r0, #8]
 800579e:	4b3b      	ldr	r3, [pc, #236]	@ (800588c <HAL_TIM_ConfigClockSource+0x168>)
 80057a0:	684d      	ldr	r5, [r1, #4]
 80057a2:	401c      	ands	r4, r3
 80057a4:	688b      	ldr	r3, [r1, #8]
 80057a6:	68c9      	ldr	r1, [r1, #12]
 80057a8:	432b      	orrs	r3, r5
 80057aa:	0209      	lsls	r1, r1, #8
 80057ac:	430b      	orrs	r3, r1
 80057ae:	4323      	orrs	r3, r4
 80057b0:	6083      	str	r3, [r0, #8]
 80057b2:	2380      	movs	r3, #128	@ 0x80
 80057b4:	6881      	ldr	r1, [r0, #8]
 80057b6:	01db      	lsls	r3, r3, #7
 80057b8:	430b      	orrs	r3, r1
 80057ba:	6083      	str	r3, [r0, #8]
 80057bc:	2000      	movs	r0, #0
 80057be:	e004      	b.n	80057ca <HAL_TIM_ConfigClockSource+0xa6>
 80057c0:	2110      	movs	r1, #16
 80057c2:	001c      	movs	r4, r3
 80057c4:	438c      	bics	r4, r1
 80057c6:	d00c      	beq.n	80057e2 <HAL_TIM_ConfigClockSource+0xbe>
 80057c8:	2001      	movs	r0, #1
 80057ca:	233d      	movs	r3, #61	@ 0x3d
 80057cc:	2101      	movs	r1, #1
 80057ce:	54d1      	strb	r1, [r2, r3]
 80057d0:	2100      	movs	r1, #0
 80057d2:	3b01      	subs	r3, #1
 80057d4:	54d1      	strb	r1, [r2, r3]
 80057d6:	bd70      	pop	{r4, r5, r6, pc}
 80057d8:	2b20      	cmp	r3, #32
 80057da:	d002      	beq.n	80057e2 <HAL_TIM_ConfigClockSource+0xbe>
 80057dc:	d9f0      	bls.n	80057c0 <HAL_TIM_ConfigClockSource+0x9c>
 80057de:	2b30      	cmp	r3, #48	@ 0x30
 80057e0:	d1f2      	bne.n	80057c8 <HAL_TIM_ConfigClockSource+0xa4>
 80057e2:	6881      	ldr	r1, [r0, #8]
 80057e4:	4c28      	ldr	r4, [pc, #160]	@ (8005888 <HAL_TIM_ConfigClockSource+0x164>)
 80057e6:	4021      	ands	r1, r4
 80057e8:	430b      	orrs	r3, r1
 80057ea:	2107      	movs	r1, #7
 80057ec:	430b      	orrs	r3, r1
 80057ee:	6083      	str	r3, [r0, #8]
 80057f0:	2000      	movs	r0, #0
 80057f2:	e7ea      	b.n	80057ca <HAL_TIM_ConfigClockSource+0xa6>
 80057f4:	2b70      	cmp	r3, #112	@ 0x70
 80057f6:	d1e7      	bne.n	80057c8 <HAL_TIM_ConfigClockSource+0xa4>
 80057f8:	6884      	ldr	r4, [r0, #8]
 80057fa:	4b24      	ldr	r3, [pc, #144]	@ (800588c <HAL_TIM_ConfigClockSource+0x168>)
 80057fc:	684d      	ldr	r5, [r1, #4]
 80057fe:	401c      	ands	r4, r3
 8005800:	688b      	ldr	r3, [r1, #8]
 8005802:	68c9      	ldr	r1, [r1, #12]
 8005804:	432b      	orrs	r3, r5
 8005806:	0209      	lsls	r1, r1, #8
 8005808:	430b      	orrs	r3, r1
 800580a:	2177      	movs	r1, #119	@ 0x77
 800580c:	4323      	orrs	r3, r4
 800580e:	6083      	str	r3, [r0, #8]
 8005810:	6883      	ldr	r3, [r0, #8]
 8005812:	430b      	orrs	r3, r1
 8005814:	6083      	str	r3, [r0, #8]
 8005816:	2000      	movs	r0, #0
 8005818:	e7d7      	b.n	80057ca <HAL_TIM_ConfigClockSource+0xa6>
 800581a:	2002      	movs	r0, #2
 800581c:	e7db      	b.n	80057d6 <HAL_TIM_ConfigClockSource+0xb2>
 800581e:	2610      	movs	r6, #16
 8005820:	6a04      	ldr	r4, [r0, #32]
 8005822:	6a05      	ldr	r5, [r0, #32]
 8005824:	684b      	ldr	r3, [r1, #4]
 8005826:	43b5      	bics	r5, r6
 8005828:	68c9      	ldr	r1, [r1, #12]
 800582a:	6205      	str	r5, [r0, #32]
 800582c:	6985      	ldr	r5, [r0, #24]
 800582e:	4e18      	ldr	r6, [pc, #96]	@ (8005890 <HAL_TIM_ConfigClockSource+0x16c>)
 8005830:	0309      	lsls	r1, r1, #12
 8005832:	4035      	ands	r5, r6
 8005834:	4329      	orrs	r1, r5
 8005836:	25a0      	movs	r5, #160	@ 0xa0
 8005838:	011b      	lsls	r3, r3, #4
 800583a:	43ac      	bics	r4, r5
 800583c:	4323      	orrs	r3, r4
 800583e:	6181      	str	r1, [r0, #24]
 8005840:	6203      	str	r3, [r0, #32]
 8005842:	6883      	ldr	r3, [r0, #8]
 8005844:	4910      	ldr	r1, [pc, #64]	@ (8005888 <HAL_TIM_ConfigClockSource+0x164>)
 8005846:	400b      	ands	r3, r1
 8005848:	2167      	movs	r1, #103	@ 0x67
 800584a:	430b      	orrs	r3, r1
 800584c:	6083      	str	r3, [r0, #8]
 800584e:	2000      	movs	r0, #0
 8005850:	e7bb      	b.n	80057ca <HAL_TIM_ConfigClockSource+0xa6>
 8005852:	684d      	ldr	r5, [r1, #4]
 8005854:	68cb      	ldr	r3, [r1, #12]
 8005856:	6a01      	ldr	r1, [r0, #32]
 8005858:	6a06      	ldr	r6, [r0, #32]
 800585a:	011b      	lsls	r3, r3, #4
 800585c:	43a6      	bics	r6, r4
 800585e:	6206      	str	r6, [r0, #32]
 8005860:	26f0      	movs	r6, #240	@ 0xf0
 8005862:	6984      	ldr	r4, [r0, #24]
 8005864:	43b4      	bics	r4, r6
 8005866:	4323      	orrs	r3, r4
 8005868:	240a      	movs	r4, #10
 800586a:	43a1      	bics	r1, r4
 800586c:	4329      	orrs	r1, r5
 800586e:	6183      	str	r3, [r0, #24]
 8005870:	6201      	str	r1, [r0, #32]
 8005872:	6883      	ldr	r3, [r0, #8]
 8005874:	4904      	ldr	r1, [pc, #16]	@ (8005888 <HAL_TIM_ConfigClockSource+0x164>)
 8005876:	400b      	ands	r3, r1
 8005878:	2147      	movs	r1, #71	@ 0x47
 800587a:	430b      	orrs	r3, r1
 800587c:	6083      	str	r3, [r0, #8]
 800587e:	2000      	movs	r0, #0
 8005880:	e7a3      	b.n	80057ca <HAL_TIM_ConfigClockSource+0xa6>
 8005882:	46c0      	nop			@ (mov r8, r8)
 8005884:	ffce0088 	.word	0xffce0088
 8005888:	ffcfff8f 	.word	0xffcfff8f
 800588c:	ffff00ff 	.word	0xffff00ff
 8005890:	ffff0fff 	.word	0xffff0fff

08005894 <HAL_TIM_ReadCapturedValue>:
 8005894:	2908      	cmp	r1, #8
 8005896:	d011      	beq.n	80058bc <HAL_TIM_ReadCapturedValue+0x28>
 8005898:	d806      	bhi.n	80058a8 <HAL_TIM_ReadCapturedValue+0x14>
 800589a:	2900      	cmp	r1, #0
 800589c:	d00b      	beq.n	80058b6 <HAL_TIM_ReadCapturedValue+0x22>
 800589e:	2904      	cmp	r1, #4
 80058a0:	d107      	bne.n	80058b2 <HAL_TIM_ReadCapturedValue+0x1e>
 80058a2:	6803      	ldr	r3, [r0, #0]
 80058a4:	6b98      	ldr	r0, [r3, #56]	@ 0x38
 80058a6:	4770      	bx	lr
 80058a8:	290c      	cmp	r1, #12
 80058aa:	d102      	bne.n	80058b2 <HAL_TIM_ReadCapturedValue+0x1e>
 80058ac:	6803      	ldr	r3, [r0, #0]
 80058ae:	6c18      	ldr	r0, [r3, #64]	@ 0x40
 80058b0:	e7f9      	b.n	80058a6 <HAL_TIM_ReadCapturedValue+0x12>
 80058b2:	2000      	movs	r0, #0
 80058b4:	e7f7      	b.n	80058a6 <HAL_TIM_ReadCapturedValue+0x12>
 80058b6:	6803      	ldr	r3, [r0, #0]
 80058b8:	6b58      	ldr	r0, [r3, #52]	@ 0x34
 80058ba:	e7f4      	b.n	80058a6 <HAL_TIM_ReadCapturedValue+0x12>
 80058bc:	6803      	ldr	r3, [r0, #0]
 80058be:	6bd8      	ldr	r0, [r3, #60]	@ 0x3c
 80058c0:	e7f1      	b.n	80058a6 <HAL_TIM_ReadCapturedValue+0x12>
 80058c2:	46c0      	nop			@ (mov r8, r8)

080058c4 <HAL_TIM_RegisterCallback>:
 80058c4:	0003      	movs	r3, r0
 80058c6:	b530      	push	{r4, r5, lr}
 80058c8:	2a00      	cmp	r2, #0
 80058ca:	d00e      	beq.n	80058ea <HAL_TIM_RegisterCallback+0x26>
 80058cc:	253d      	movs	r5, #61	@ 0x3d
 80058ce:	5d44      	ldrb	r4, [r0, r5]
 80058d0:	b2e0      	uxtb	r0, r4
 80058d2:	2c01      	cmp	r4, #1
 80058d4:	d00b      	beq.n	80058ee <HAL_TIM_RegisterCallback+0x2a>
 80058d6:	5d5c      	ldrb	r4, [r3, r5]
 80058d8:	2001      	movs	r0, #1
 80058da:	2c00      	cmp	r4, #0
 80058dc:	d106      	bne.n	80058ec <HAL_TIM_RegisterCallback+0x28>
 80058de:	290d      	cmp	r1, #13
 80058e0:	d804      	bhi.n	80058ec <HAL_TIM_RegisterCallback+0x28>
 80058e2:	4837      	ldr	r0, [pc, #220]	@ (80059c0 <HAL_TIM_RegisterCallback+0xfc>)
 80058e4:	0089      	lsls	r1, r1, #2
 80058e6:	5841      	ldr	r1, [r0, r1]
 80058e8:	468f      	mov	pc, r1
 80058ea:	2001      	movs	r0, #1
 80058ec:	bd30      	pop	{r4, r5, pc}
 80058ee:	291b      	cmp	r1, #27
 80058f0:	d8fc      	bhi.n	80058ec <HAL_TIM_RegisterCallback+0x28>
 80058f2:	4834      	ldr	r0, [pc, #208]	@ (80059c4 <HAL_TIM_RegisterCallback+0x100>)
 80058f4:	0089      	lsls	r1, r1, #2
 80058f6:	5841      	ldr	r1, [r0, r1]
 80058f8:	468f      	mov	pc, r1
 80058fa:	2000      	movs	r0, #0
 80058fc:	67da      	str	r2, [r3, #124]	@ 0x7c
 80058fe:	e7f5      	b.n	80058ec <HAL_TIM_RegisterCallback+0x28>
 8005900:	2180      	movs	r1, #128	@ 0x80
 8005902:	2000      	movs	r0, #0
 8005904:	505a      	str	r2, [r3, r1]
 8005906:	e7f1      	b.n	80058ec <HAL_TIM_RegisterCallback+0x28>
 8005908:	2000      	movs	r0, #0
 800590a:	64da      	str	r2, [r3, #76]	@ 0x4c
 800590c:	e7ee      	b.n	80058ec <HAL_TIM_RegisterCallback+0x28>
 800590e:	2000      	movs	r0, #0
 8005910:	651a      	str	r2, [r3, #80]	@ 0x50
 8005912:	e7eb      	b.n	80058ec <HAL_TIM_RegisterCallback+0x28>
 8005914:	2000      	movs	r0, #0
 8005916:	655a      	str	r2, [r3, #84]	@ 0x54
 8005918:	e7e8      	b.n	80058ec <HAL_TIM_RegisterCallback+0x28>
 800591a:	2000      	movs	r0, #0
 800591c:	659a      	str	r2, [r3, #88]	@ 0x58
 800591e:	e7e5      	b.n	80058ec <HAL_TIM_RegisterCallback+0x28>
 8005920:	2000      	movs	r0, #0
 8005922:	65da      	str	r2, [r3, #92]	@ 0x5c
 8005924:	e7e2      	b.n	80058ec <HAL_TIM_RegisterCallback+0x28>
 8005926:	2000      	movs	r0, #0
 8005928:	661a      	str	r2, [r3, #96]	@ 0x60
 800592a:	e7df      	b.n	80058ec <HAL_TIM_RegisterCallback+0x28>
 800592c:	2000      	movs	r0, #0
 800592e:	665a      	str	r2, [r3, #100]	@ 0x64
 8005930:	e7dc      	b.n	80058ec <HAL_TIM_RegisterCallback+0x28>
 8005932:	2000      	movs	r0, #0
 8005934:	669a      	str	r2, [r3, #104]	@ 0x68
 8005936:	e7d9      	b.n	80058ec <HAL_TIM_RegisterCallback+0x28>
 8005938:	2000      	movs	r0, #0
 800593a:	66da      	str	r2, [r3, #108]	@ 0x6c
 800593c:	e7d6      	b.n	80058ec <HAL_TIM_RegisterCallback+0x28>
 800593e:	2000      	movs	r0, #0
 8005940:	671a      	str	r2, [r3, #112]	@ 0x70
 8005942:	e7d3      	b.n	80058ec <HAL_TIM_RegisterCallback+0x28>
 8005944:	2000      	movs	r0, #0
 8005946:	675a      	str	r2, [r3, #116]	@ 0x74
 8005948:	e7d0      	b.n	80058ec <HAL_TIM_RegisterCallback+0x28>
 800594a:	2000      	movs	r0, #0
 800594c:	679a      	str	r2, [r3, #120]	@ 0x78
 800594e:	e7cd      	b.n	80058ec <HAL_TIM_RegisterCallback+0x28>
 8005950:	2184      	movs	r1, #132	@ 0x84
 8005952:	2000      	movs	r0, #0
 8005954:	505a      	str	r2, [r3, r1]
 8005956:	e7c9      	b.n	80058ec <HAL_TIM_RegisterCallback+0x28>
 8005958:	2188      	movs	r1, #136	@ 0x88
 800595a:	2000      	movs	r0, #0
 800595c:	505a      	str	r2, [r3, r1]
 800595e:	e7c5      	b.n	80058ec <HAL_TIM_RegisterCallback+0x28>
 8005960:	21b8      	movs	r1, #184	@ 0xb8
 8005962:	2000      	movs	r0, #0
 8005964:	505a      	str	r2, [r3, r1]
 8005966:	e7c1      	b.n	80058ec <HAL_TIM_RegisterCallback+0x28>
 8005968:	21b4      	movs	r1, #180	@ 0xb4
 800596a:	2000      	movs	r0, #0
 800596c:	505a      	str	r2, [r3, r1]
 800596e:	e7bd      	b.n	80058ec <HAL_TIM_RegisterCallback+0x28>
 8005970:	21ac      	movs	r1, #172	@ 0xac
 8005972:	2000      	movs	r0, #0
 8005974:	505a      	str	r2, [r3, r1]
 8005976:	e7b9      	b.n	80058ec <HAL_TIM_RegisterCallback+0x28>
 8005978:	21b0      	movs	r1, #176	@ 0xb0
 800597a:	2000      	movs	r0, #0
 800597c:	505a      	str	r2, [r3, r1]
 800597e:	e7b5      	b.n	80058ec <HAL_TIM_RegisterCallback+0x28>
 8005980:	218c      	movs	r1, #140	@ 0x8c
 8005982:	2000      	movs	r0, #0
 8005984:	505a      	str	r2, [r3, r1]
 8005986:	e7b1      	b.n	80058ec <HAL_TIM_RegisterCallback+0x28>
 8005988:	2190      	movs	r1, #144	@ 0x90
 800598a:	2000      	movs	r0, #0
 800598c:	505a      	str	r2, [r3, r1]
 800598e:	e7ad      	b.n	80058ec <HAL_TIM_RegisterCallback+0x28>
 8005990:	2194      	movs	r1, #148	@ 0x94
 8005992:	2000      	movs	r0, #0
 8005994:	505a      	str	r2, [r3, r1]
 8005996:	e7a9      	b.n	80058ec <HAL_TIM_RegisterCallback+0x28>
 8005998:	2198      	movs	r1, #152	@ 0x98
 800599a:	2000      	movs	r0, #0
 800599c:	505a      	str	r2, [r3, r1]
 800599e:	e7a5      	b.n	80058ec <HAL_TIM_RegisterCallback+0x28>
 80059a0:	219c      	movs	r1, #156	@ 0x9c
 80059a2:	2000      	movs	r0, #0
 80059a4:	505a      	str	r2, [r3, r1]
 80059a6:	e7a1      	b.n	80058ec <HAL_TIM_RegisterCallback+0x28>
 80059a8:	21a0      	movs	r1, #160	@ 0xa0
 80059aa:	2000      	movs	r0, #0
 80059ac:	505a      	str	r2, [r3, r1]
 80059ae:	e79d      	b.n	80058ec <HAL_TIM_RegisterCallback+0x28>
 80059b0:	21a4      	movs	r1, #164	@ 0xa4
 80059b2:	2000      	movs	r0, #0
 80059b4:	505a      	str	r2, [r3, r1]
 80059b6:	e799      	b.n	80058ec <HAL_TIM_RegisterCallback+0x28>
 80059b8:	21a8      	movs	r1, #168	@ 0xa8
 80059ba:	2000      	movs	r0, #0
 80059bc:	505a      	str	r2, [r3, r1]
 80059be:	e795      	b.n	80058ec <HAL_TIM_RegisterCallback+0x28>
 80059c0:	080073e0 	.word	0x080073e0
 80059c4:	08007418 	.word	0x08007418

080059c8 <HAL_TIMEx_MasterConfigSynchronization>:
 80059c8:	233c      	movs	r3, #60	@ 0x3c
 80059ca:	b570      	push	{r4, r5, r6, lr}
 80059cc:	5cc3      	ldrb	r3, [r0, r3]
 80059ce:	2b01      	cmp	r3, #1
 80059d0:	d02a      	beq.n	8005a28 <HAL_TIMEx_MasterConfigSynchronization+0x60>
 80059d2:	233d      	movs	r3, #61	@ 0x3d
 80059d4:	2202      	movs	r2, #2
 80059d6:	54c2      	strb	r2, [r0, r3]
 80059d8:	6802      	ldr	r2, [r0, #0]
 80059da:	4d14      	ldr	r5, [pc, #80]	@ (8005a2c <HAL_TIMEx_MasterConfigSynchronization+0x64>)
 80059dc:	6853      	ldr	r3, [r2, #4]
 80059de:	680e      	ldr	r6, [r1, #0]
 80059e0:	6894      	ldr	r4, [r2, #8]
 80059e2:	42aa      	cmp	r2, r5
 80059e4:	d017      	beq.n	8005a16 <HAL_TIMEx_MasterConfigSynchronization+0x4e>
 80059e6:	2570      	movs	r5, #112	@ 0x70
 80059e8:	43ab      	bics	r3, r5
 80059ea:	4333      	orrs	r3, r6
 80059ec:	6053      	str	r3, [r2, #4]
 80059ee:	2380      	movs	r3, #128	@ 0x80
 80059f0:	05db      	lsls	r3, r3, #23
 80059f2:	429a      	cmp	r2, r3
 80059f4:	d002      	beq.n	80059fc <HAL_TIMEx_MasterConfigSynchronization+0x34>
 80059f6:	4b0e      	ldr	r3, [pc, #56]	@ (8005a30 <HAL_TIMEx_MasterConfigSynchronization+0x68>)
 80059f8:	429a      	cmp	r2, r3
 80059fa:	d104      	bne.n	8005a06 <HAL_TIMEx_MasterConfigSynchronization+0x3e>
 80059fc:	2380      	movs	r3, #128	@ 0x80
 80059fe:	439c      	bics	r4, r3
 8005a00:	688b      	ldr	r3, [r1, #8]
 8005a02:	431c      	orrs	r4, r3
 8005a04:	6094      	str	r4, [r2, #8]
 8005a06:	233d      	movs	r3, #61	@ 0x3d
 8005a08:	2201      	movs	r2, #1
 8005a0a:	54c2      	strb	r2, [r0, r3]
 8005a0c:	2200      	movs	r2, #0
 8005a0e:	3b01      	subs	r3, #1
 8005a10:	54c2      	strb	r2, [r0, r3]
 8005a12:	2000      	movs	r0, #0
 8005a14:	bd70      	pop	{r4, r5, r6, pc}
 8005a16:	4d07      	ldr	r5, [pc, #28]	@ (8005a34 <HAL_TIMEx_MasterConfigSynchronization+0x6c>)
 8005a18:	402b      	ands	r3, r5
 8005a1a:	684d      	ldr	r5, [r1, #4]
 8005a1c:	432b      	orrs	r3, r5
 8005a1e:	2570      	movs	r5, #112	@ 0x70
 8005a20:	43ab      	bics	r3, r5
 8005a22:	4333      	orrs	r3, r6
 8005a24:	6053      	str	r3, [r2, #4]
 8005a26:	e7e9      	b.n	80059fc <HAL_TIMEx_MasterConfigSynchronization+0x34>
 8005a28:	2002      	movs	r0, #2
 8005a2a:	e7f3      	b.n	8005a14 <HAL_TIMEx_MasterConfigSynchronization+0x4c>
 8005a2c:	40012c00 	.word	0x40012c00
 8005a30:	40000400 	.word	0x40000400
 8005a34:	ff0fffff 	.word	0xff0fffff

08005a38 <HAL_TIMEx_ConfigBreakDeadTime>:
 8005a38:	233c      	movs	r3, #60	@ 0x3c
 8005a3a:	b510      	push	{r4, lr}
 8005a3c:	5cc3      	ldrb	r3, [r0, r3]
 8005a3e:	2b01      	cmp	r3, #1
 8005a40:	d03d      	beq.n	8005abe <HAL_TIMEx_ConfigBreakDeadTime+0x86>
 8005a42:	4a20      	ldr	r2, [pc, #128]	@ (8005ac4 <HAL_TIMEx_ConfigBreakDeadTime+0x8c>)
 8005a44:	68cb      	ldr	r3, [r1, #12]
 8005a46:	6804      	ldr	r4, [r0, #0]
 8005a48:	4013      	ands	r3, r2
 8005a4a:	688a      	ldr	r2, [r1, #8]
 8005a4c:	4313      	orrs	r3, r2
 8005a4e:	4a1e      	ldr	r2, [pc, #120]	@ (8005ac8 <HAL_TIMEx_ConfigBreakDeadTime+0x90>)
 8005a50:	4013      	ands	r3, r2
 8005a52:	684a      	ldr	r2, [r1, #4]
 8005a54:	4313      	orrs	r3, r2
 8005a56:	4a1d      	ldr	r2, [pc, #116]	@ (8005acc <HAL_TIMEx_ConfigBreakDeadTime+0x94>)
 8005a58:	4013      	ands	r3, r2
 8005a5a:	680a      	ldr	r2, [r1, #0]
 8005a5c:	4313      	orrs	r3, r2
 8005a5e:	4a1c      	ldr	r2, [pc, #112]	@ (8005ad0 <HAL_TIMEx_ConfigBreakDeadTime+0x98>)
 8005a60:	4013      	ands	r3, r2
 8005a62:	690a      	ldr	r2, [r1, #16]
 8005a64:	4313      	orrs	r3, r2
 8005a66:	4a1b      	ldr	r2, [pc, #108]	@ (8005ad4 <HAL_TIMEx_ConfigBreakDeadTime+0x9c>)
 8005a68:	4013      	ands	r3, r2
 8005a6a:	694a      	ldr	r2, [r1, #20]
 8005a6c:	4313      	orrs	r3, r2
 8005a6e:	4a1a      	ldr	r2, [pc, #104]	@ (8005ad8 <HAL_TIMEx_ConfigBreakDeadTime+0xa0>)
 8005a70:	4013      	ands	r3, r2
 8005a72:	6b0a      	ldr	r2, [r1, #48]	@ 0x30
 8005a74:	4313      	orrs	r3, r2
 8005a76:	4a19      	ldr	r2, [pc, #100]	@ (8005adc <HAL_TIMEx_ConfigBreakDeadTime+0xa4>)
 8005a78:	4013      	ands	r3, r2
 8005a7a:	698a      	ldr	r2, [r1, #24]
 8005a7c:	0412      	lsls	r2, r2, #16
 8005a7e:	4313      	orrs	r3, r2
 8005a80:	4a17      	ldr	r2, [pc, #92]	@ (8005ae0 <HAL_TIMEx_ConfigBreakDeadTime+0xa8>)
 8005a82:	4013      	ands	r3, r2
 8005a84:	69ca      	ldr	r2, [r1, #28]
 8005a86:	4313      	orrs	r3, r2
 8005a88:	4a16      	ldr	r2, [pc, #88]	@ (8005ae4 <HAL_TIMEx_ConfigBreakDeadTime+0xac>)
 8005a8a:	4294      	cmp	r4, r2
 8005a8c:	d005      	beq.n	8005a9a <HAL_TIMEx_ConfigBreakDeadTime+0x62>
 8005a8e:	6463      	str	r3, [r4, #68]	@ 0x44
 8005a90:	2200      	movs	r2, #0
 8005a92:	233c      	movs	r3, #60	@ 0x3c
 8005a94:	54c2      	strb	r2, [r0, r3]
 8005a96:	2000      	movs	r0, #0
 8005a98:	bd10      	pop	{r4, pc}
 8005a9a:	4a13      	ldr	r2, [pc, #76]	@ (8005ae8 <HAL_TIMEx_ConfigBreakDeadTime+0xb0>)
 8005a9c:	4013      	ands	r3, r2
 8005a9e:	6a8a      	ldr	r2, [r1, #40]	@ 0x28
 8005aa0:	0512      	lsls	r2, r2, #20
 8005aa2:	431a      	orrs	r2, r3
 8005aa4:	4b11      	ldr	r3, [pc, #68]	@ (8005aec <HAL_TIMEx_ConfigBreakDeadTime+0xb4>)
 8005aa6:	401a      	ands	r2, r3
 8005aa8:	6a0b      	ldr	r3, [r1, #32]
 8005aaa:	431a      	orrs	r2, r3
 8005aac:	4b10      	ldr	r3, [pc, #64]	@ (8005af0 <HAL_TIMEx_ConfigBreakDeadTime+0xb8>)
 8005aae:	401a      	ands	r2, r3
 8005ab0:	6a4b      	ldr	r3, [r1, #36]	@ 0x24
 8005ab2:	431a      	orrs	r2, r3
 8005ab4:	4b0f      	ldr	r3, [pc, #60]	@ (8005af4 <HAL_TIMEx_ConfigBreakDeadTime+0xbc>)
 8005ab6:	401a      	ands	r2, r3
 8005ab8:	6acb      	ldr	r3, [r1, #44]	@ 0x2c
 8005aba:	4313      	orrs	r3, r2
 8005abc:	e7e7      	b.n	8005a8e <HAL_TIMEx_ConfigBreakDeadTime+0x56>
 8005abe:	2002      	movs	r0, #2
 8005ac0:	e7ea      	b.n	8005a98 <HAL_TIMEx_ConfigBreakDeadTime+0x60>
 8005ac2:	46c0      	nop			@ (mov r8, r8)
 8005ac4:	fffffcff 	.word	0xfffffcff
 8005ac8:	fffffbff 	.word	0xfffffbff
 8005acc:	fffff7ff 	.word	0xfffff7ff
 8005ad0:	ffffefff 	.word	0xffffefff
 8005ad4:	ffffdfff 	.word	0xffffdfff
 8005ad8:	ffffbfff 	.word	0xffffbfff
 8005adc:	fff0ffff 	.word	0xfff0ffff
 8005ae0:	efffffff 	.word	0xefffffff
 8005ae4:	40012c00 	.word	0x40012c00
 8005ae8:	ff0fffff 	.word	0xff0fffff
 8005aec:	feffffff 	.word	0xfeffffff
 8005af0:	fdffffff 	.word	0xfdffffff
 8005af4:	dfffffff 	.word	0xdfffffff

08005af8 <HAL_TIMEx_CommutCallback>:
 8005af8:	4770      	bx	lr
 8005afa:	46c0      	nop			@ (mov r8, r8)

08005afc <HAL_TIMEx_CommutHalfCpltCallback>:
 8005afc:	4770      	bx	lr
 8005afe:	46c0      	nop			@ (mov r8, r8)

08005b00 <HAL_TIMEx_BreakCallback>:
 8005b00:	4770      	bx	lr
 8005b02:	46c0      	nop			@ (mov r8, r8)

08005b04 <HAL_TIMEx_Break2Callback>:
 8005b04:	4770      	bx	lr
 8005b06:	46c0      	nop			@ (mov r8, r8)

08005b08 <HAL_UARTEx_RxEventCallback>:
 8005b08:	4770      	bx	lr
 8005b0a:	46c0      	nop			@ (mov r8, r8)

08005b0c <UART_DMAReceiveCplt>:
 8005b0c:	0003      	movs	r3, r0
 8005b0e:	681b      	ldr	r3, [r3, #0]
 8005b10:	b570      	push	{r4, r5, r6, lr}
 8005b12:	681a      	ldr	r2, [r3, #0]
 8005b14:	2320      	movs	r3, #32
 8005b16:	0019      	movs	r1, r3
 8005b18:	6a80      	ldr	r0, [r0, #40]	@ 0x28
 8005b1a:	4011      	ands	r1, r2
 8005b1c:	4213      	tst	r3, r2
 8005b1e:	d127      	bne.n	8005b70 <UART_DMAReceiveCplt+0x64>
 8005b20:	225e      	movs	r2, #94	@ 0x5e
 8005b22:	5281      	strh	r1, [r0, r2]
 8005b24:	f3ef 8510 	mrs	r5, PRIMASK
 8005b28:	3a5d      	subs	r2, #93	@ 0x5d
 8005b2a:	f382 8810 	msr	PRIMASK, r2
 8005b2e:	6804      	ldr	r4, [r0, #0]
 8005b30:	4e1d      	ldr	r6, [pc, #116]	@ (8005ba8 <UART_DMAReceiveCplt+0x9c>)
 8005b32:	6821      	ldr	r1, [r4, #0]
 8005b34:	4031      	ands	r1, r6
 8005b36:	6021      	str	r1, [r4, #0]
 8005b38:	f385 8810 	msr	PRIMASK, r5
 8005b3c:	f3ef 8510 	mrs	r5, PRIMASK
 8005b40:	f382 8810 	msr	PRIMASK, r2
 8005b44:	6804      	ldr	r4, [r0, #0]
 8005b46:	68a1      	ldr	r1, [r4, #8]
 8005b48:	4391      	bics	r1, r2
 8005b4a:	60a1      	str	r1, [r4, #8]
 8005b4c:	f385 8810 	msr	PRIMASK, r5
 8005b50:	f3ef 8410 	mrs	r4, PRIMASK
 8005b54:	f382 8810 	msr	PRIMASK, r2
 8005b58:	2540      	movs	r5, #64	@ 0x40
 8005b5a:	6801      	ldr	r1, [r0, #0]
 8005b5c:	688a      	ldr	r2, [r1, #8]
 8005b5e:	43aa      	bics	r2, r5
 8005b60:	608a      	str	r2, [r1, #8]
 8005b62:	f384 8810 	msr	PRIMASK, r4
 8005b66:	228c      	movs	r2, #140	@ 0x8c
 8005b68:	5083      	str	r3, [r0, r2]
 8005b6a:	6ec3      	ldr	r3, [r0, #108]	@ 0x6c
 8005b6c:	2b01      	cmp	r3, #1
 8005b6e:	d00e      	beq.n	8005b8e <UART_DMAReceiveCplt+0x82>
 8005b70:	2300      	movs	r3, #0
 8005b72:	6703      	str	r3, [r0, #112]	@ 0x70
 8005b74:	6ec3      	ldr	r3, [r0, #108]	@ 0x6c
 8005b76:	2b01      	cmp	r3, #1
 8005b78:	d003      	beq.n	8005b82 <UART_DMAReceiveCplt+0x76>
 8005b7a:	23a0      	movs	r3, #160	@ 0xa0
 8005b7c:	58c3      	ldr	r3, [r0, r3]
 8005b7e:	4798      	blx	r3
 8005b80:	bd70      	pop	{r4, r5, r6, pc}
 8005b82:	335b      	adds	r3, #91	@ 0x5b
 8005b84:	5ac1      	ldrh	r1, [r0, r3]
 8005b86:	3364      	adds	r3, #100	@ 0x64
 8005b88:	58c3      	ldr	r3, [r0, r3]
 8005b8a:	4798      	blx	r3
 8005b8c:	e7f8      	b.n	8005b80 <UART_DMAReceiveCplt+0x74>
 8005b8e:	f3ef 8110 	mrs	r1, PRIMASK
 8005b92:	f383 8810 	msr	PRIMASK, r3
 8005b96:	2410      	movs	r4, #16
 8005b98:	6802      	ldr	r2, [r0, #0]
 8005b9a:	6813      	ldr	r3, [r2, #0]
 8005b9c:	43a3      	bics	r3, r4
 8005b9e:	6013      	str	r3, [r2, #0]
 8005ba0:	f381 8810 	msr	PRIMASK, r1
 8005ba4:	e7e4      	b.n	8005b70 <UART_DMAReceiveCplt+0x64>
 8005ba6:	46c0      	nop			@ (mov r8, r8)
 8005ba8:	fffffeff 	.word	0xfffffeff

08005bac <UART_DMARxHalfCplt>:
 8005bac:	2301      	movs	r3, #1
 8005bae:	6a80      	ldr	r0, [r0, #40]	@ 0x28
 8005bb0:	b510      	push	{r4, lr}
 8005bb2:	6703      	str	r3, [r0, #112]	@ 0x70
 8005bb4:	6ec3      	ldr	r3, [r0, #108]	@ 0x6c
 8005bb6:	2b01      	cmp	r3, #1
 8005bb8:	d003      	beq.n	8005bc2 <UART_DMARxHalfCplt+0x16>
 8005bba:	239c      	movs	r3, #156	@ 0x9c
 8005bbc:	58c3      	ldr	r3, [r0, r3]
 8005bbe:	4798      	blx	r3
 8005bc0:	bd10      	pop	{r4, pc}
 8005bc2:	335b      	adds	r3, #91	@ 0x5b
 8005bc4:	5ac1      	ldrh	r1, [r0, r3]
 8005bc6:	3364      	adds	r3, #100	@ 0x64
 8005bc8:	58c3      	ldr	r3, [r0, r3]
 8005bca:	0849      	lsrs	r1, r1, #1
 8005bcc:	4798      	blx	r3
 8005bce:	e7f7      	b.n	8005bc0 <UART_DMARxHalfCplt+0x14>

08005bd0 <UART_DMAAbortOnError>:
 8005bd0:	2300      	movs	r3, #0
 8005bd2:	225e      	movs	r2, #94	@ 0x5e
 8005bd4:	b510      	push	{r4, lr}
 8005bd6:	6a80      	ldr	r0, [r0, #40]	@ 0x28
 8005bd8:	5283      	strh	r3, [r0, r2]
 8005bda:	3a08      	subs	r2, #8
 8005bdc:	5283      	strh	r3, [r0, r2]
 8005bde:	33a4      	adds	r3, #164	@ 0xa4
 8005be0:	58c3      	ldr	r3, [r0, r3]
 8005be2:	4798      	blx	r3
 8005be4:	bd10      	pop	{r4, pc}
 8005be6:	46c0      	nop			@ (mov r8, r8)

08005be8 <HAL_UART_AbortReceiveCpltCallback>:
 8005be8:	4770      	bx	lr
 8005bea:	46c0      	nop			@ (mov r8, r8)

08005bec <HAL_UART_TxCpltCallback>:
 8005bec:	4770      	bx	lr
 8005bee:	46c0      	nop			@ (mov r8, r8)

08005bf0 <HAL_UART_TxHalfCpltCallback>:
 8005bf0:	4770      	bx	lr
 8005bf2:	46c0      	nop			@ (mov r8, r8)

08005bf4 <HAL_UART_RxCpltCallback>:
 8005bf4:	4770      	bx	lr
 8005bf6:	46c0      	nop			@ (mov r8, r8)

08005bf8 <HAL_UART_RxHalfCpltCallback>:
 8005bf8:	4770      	bx	lr
 8005bfa:	46c0      	nop			@ (mov r8, r8)

08005bfc <HAL_UART_ErrorCallback>:
 8005bfc:	4770      	bx	lr
 8005bfe:	46c0      	nop			@ (mov r8, r8)

08005c00 <HAL_UART_AbortCpltCallback>:
 8005c00:	4770      	bx	lr
 8005c02:	46c0      	nop			@ (mov r8, r8)

08005c04 <HAL_UART_AbortTransmitCpltCallback>:
 8005c04:	4770      	bx	lr
 8005c06:	46c0      	nop			@ (mov r8, r8)

08005c08 <UART_DMAError>:
 8005c08:	b5f8      	push	{r3, r4, r5, r6, r7, lr}
 8005c0a:	2188      	movs	r1, #136	@ 0x88
 8005c0c:	238c      	movs	r3, #140	@ 0x8c
 8005c0e:	6a80      	ldr	r0, [r0, #40]	@ 0x28
 8005c10:	5845      	ldr	r5, [r0, r1]
 8005c12:	58c4      	ldr	r4, [r0, r3]
 8005c14:	6803      	ldr	r3, [r0, #0]
 8005c16:	689a      	ldr	r2, [r3, #8]
 8005c18:	0612      	lsls	r2, r2, #24
 8005c1a:	d501      	bpl.n	8005c20 <UART_DMAError+0x18>
 8005c1c:	2d21      	cmp	r5, #33	@ 0x21
 8005c1e:	d00d      	beq.n	8005c3c <UART_DMAError+0x34>
 8005c20:	689b      	ldr	r3, [r3, #8]
 8005c22:	065b      	lsls	r3, r3, #25
 8005c24:	d501      	bpl.n	8005c2a <UART_DMAError+0x22>
 8005c26:	2c22      	cmp	r4, #34	@ 0x22
 8005c28:	d026      	beq.n	8005c78 <UART_DMAError+0x70>
 8005c2a:	2290      	movs	r2, #144	@ 0x90
 8005c2c:	2110      	movs	r1, #16
 8005c2e:	5883      	ldr	r3, [r0, r2]
 8005c30:	430b      	orrs	r3, r1
 8005c32:	5083      	str	r3, [r0, r2]
 8005c34:	23a4      	movs	r3, #164	@ 0xa4
 8005c36:	58c3      	ldr	r3, [r0, r3]
 8005c38:	4798      	blx	r3
 8005c3a:	bdf8      	pop	{r3, r4, r5, r6, r7, pc}
 8005c3c:	2356      	movs	r3, #86	@ 0x56
 8005c3e:	2200      	movs	r2, #0
 8005c40:	52c2      	strh	r2, [r0, r3]
 8005c42:	f3ef 8610 	mrs	r6, PRIMASK
 8005c46:	3201      	adds	r2, #1
 8005c48:	f382 8810 	msr	PRIMASK, r2
 8005c4c:	27c0      	movs	r7, #192	@ 0xc0
 8005c4e:	6805      	ldr	r5, [r0, #0]
 8005c50:	682b      	ldr	r3, [r5, #0]
 8005c52:	43bb      	bics	r3, r7
 8005c54:	602b      	str	r3, [r5, #0]
 8005c56:	f386 8810 	msr	PRIMASK, r6
 8005c5a:	f3ef 8510 	mrs	r5, PRIMASK
 8005c5e:	f382 8810 	msr	PRIMASK, r2
 8005c62:	6802      	ldr	r2, [r0, #0]
 8005c64:	4e1c      	ldr	r6, [pc, #112]	@ (8005cd8 <UART_DMAError+0xd0>)
 8005c66:	6893      	ldr	r3, [r2, #8]
 8005c68:	4033      	ands	r3, r6
 8005c6a:	6093      	str	r3, [r2, #8]
 8005c6c:	f385 8810 	msr	PRIMASK, r5
 8005c70:	2320      	movs	r3, #32
 8005c72:	5043      	str	r3, [r0, r1]
 8005c74:	6803      	ldr	r3, [r0, #0]
 8005c76:	e7d3      	b.n	8005c20 <UART_DMAError+0x18>
 8005c78:	235e      	movs	r3, #94	@ 0x5e
 8005c7a:	2200      	movs	r2, #0
 8005c7c:	52c2      	strh	r2, [r0, r3]
 8005c7e:	f3ef 8410 	mrs	r4, PRIMASK
 8005c82:	3201      	adds	r2, #1
 8005c84:	f382 8810 	msr	PRIMASK, r2
 8005c88:	6801      	ldr	r1, [r0, #0]
 8005c8a:	4d14      	ldr	r5, [pc, #80]	@ (8005cdc <UART_DMAError+0xd4>)
 8005c8c:	680b      	ldr	r3, [r1, #0]
 8005c8e:	402b      	ands	r3, r5
 8005c90:	600b      	str	r3, [r1, #0]
 8005c92:	f384 8810 	msr	PRIMASK, r4
 8005c96:	f3ef 8110 	mrs	r1, PRIMASK
 8005c9a:	f382 8810 	msr	PRIMASK, r2
 8005c9e:	6802      	ldr	r2, [r0, #0]
 8005ca0:	4c0f      	ldr	r4, [pc, #60]	@ (8005ce0 <UART_DMAError+0xd8>)
 8005ca2:	6893      	ldr	r3, [r2, #8]
 8005ca4:	4023      	ands	r3, r4
 8005ca6:	6093      	str	r3, [r2, #8]
 8005ca8:	f381 8810 	msr	PRIMASK, r1
 8005cac:	6ec3      	ldr	r3, [r0, #108]	@ 0x6c
 8005cae:	2b01      	cmp	r3, #1
 8005cb0:	d10a      	bne.n	8005cc8 <UART_DMAError+0xc0>
 8005cb2:	f3ef 8110 	mrs	r1, PRIMASK
 8005cb6:	f383 8810 	msr	PRIMASK, r3
 8005cba:	2410      	movs	r4, #16
 8005cbc:	6802      	ldr	r2, [r0, #0]
 8005cbe:	6813      	ldr	r3, [r2, #0]
 8005cc0:	43a3      	bics	r3, r4
 8005cc2:	6013      	str	r3, [r2, #0]
 8005cc4:	f381 8810 	msr	PRIMASK, r1
 8005cc8:	238c      	movs	r3, #140	@ 0x8c
 8005cca:	2220      	movs	r2, #32
 8005ccc:	50c2      	str	r2, [r0, r3]
 8005cce:	2300      	movs	r3, #0
 8005cd0:	66c3      	str	r3, [r0, #108]	@ 0x6c
 8005cd2:	6743      	str	r3, [r0, #116]	@ 0x74
 8005cd4:	e7a9      	b.n	8005c2a <UART_DMAError+0x22>
 8005cd6:	46c0      	nop			@ (mov r8, r8)
 8005cd8:	ff7fffff 	.word	0xff7fffff
 8005cdc:	fffffedf 	.word	0xfffffedf
 8005ce0:	effffffe 	.word	0xeffffffe

08005ce4 <HAL_UART_RegisterCallback>:
 8005ce4:	b510      	push	{r4, lr}
 8005ce6:	2a00      	cmp	r2, #0
 8005ce8:	d006      	beq.n	8005cf8 <HAL_UART_RegisterCallback+0x14>
 8005cea:	2388      	movs	r3, #136	@ 0x88
 8005cec:	58c4      	ldr	r4, [r0, r3]
 8005cee:	2c20      	cmp	r4, #32
 8005cf0:	d011      	beq.n	8005d16 <HAL_UART_RegisterCallback+0x32>
 8005cf2:	58c3      	ldr	r3, [r0, r3]
 8005cf4:	2b00      	cmp	r3, #0
 8005cf6:	d006      	beq.n	8005d06 <HAL_UART_RegisterCallback+0x22>
 8005cf8:	2290      	movs	r2, #144	@ 0x90
 8005cfa:	2140      	movs	r1, #64	@ 0x40
 8005cfc:	5883      	ldr	r3, [r0, r2]
 8005cfe:	430b      	orrs	r3, r1
 8005d00:	5083      	str	r3, [r0, r2]
 8005d02:	2001      	movs	r0, #1
 8005d04:	bd10      	pop	{r4, pc}
 8005d06:	290b      	cmp	r1, #11
 8005d08:	d00b      	beq.n	8005d22 <HAL_UART_RegisterCallback+0x3e>
 8005d0a:	290c      	cmp	r1, #12
 8005d0c:	d1f4      	bne.n	8005cf8 <HAL_UART_RegisterCallback+0x14>
 8005d0e:	23c8      	movs	r3, #200	@ 0xc8
 8005d10:	50c2      	str	r2, [r0, r3]
 8005d12:	2000      	movs	r0, #0
 8005d14:	e7f6      	b.n	8005d04 <HAL_UART_RegisterCallback+0x20>
 8005d16:	290c      	cmp	r1, #12
 8005d18:	d8ee      	bhi.n	8005cf8 <HAL_UART_RegisterCallback+0x14>
 8005d1a:	4b1a      	ldr	r3, [pc, #104]	@ (8005d84 <HAL_UART_RegisterCallback+0xa0>)
 8005d1c:	0089      	lsls	r1, r1, #2
 8005d1e:	585b      	ldr	r3, [r3, r1]
 8005d20:	469f      	mov	pc, r3
 8005d22:	23c4      	movs	r3, #196	@ 0xc4
 8005d24:	50c2      	str	r2, [r0, r3]
 8005d26:	2000      	movs	r0, #0
 8005d28:	e7ec      	b.n	8005d04 <HAL_UART_RegisterCallback+0x20>
 8005d2a:	2394      	movs	r3, #148	@ 0x94
 8005d2c:	50c2      	str	r2, [r0, r3]
 8005d2e:	2000      	movs	r0, #0
 8005d30:	e7e8      	b.n	8005d04 <HAL_UART_RegisterCallback+0x20>
 8005d32:	2398      	movs	r3, #152	@ 0x98
 8005d34:	50c2      	str	r2, [r0, r3]
 8005d36:	2000      	movs	r0, #0
 8005d38:	e7e4      	b.n	8005d04 <HAL_UART_RegisterCallback+0x20>
 8005d3a:	239c      	movs	r3, #156	@ 0x9c
 8005d3c:	50c2      	str	r2, [r0, r3]
 8005d3e:	2000      	movs	r0, #0
 8005d40:	e7e0      	b.n	8005d04 <HAL_UART_RegisterCallback+0x20>
 8005d42:	23a0      	movs	r3, #160	@ 0xa0
 8005d44:	50c2      	str	r2, [r0, r3]
 8005d46:	2000      	movs	r0, #0
 8005d48:	e7dc      	b.n	8005d04 <HAL_UART_RegisterCallback+0x20>
 8005d4a:	23a4      	movs	r3, #164	@ 0xa4
 8005d4c:	50c2      	str	r2, [r0, r3]
 8005d4e:	2000      	movs	r0, #0
 8005d50:	e7d8      	b.n	8005d04 <HAL_UART_RegisterCallback+0x20>
 8005d52:	23a8      	movs	r3, #168	@ 0xa8
 8005d54:	50c2      	str	r2, [r0, r3]
 8005d56:	2000      	movs	r0, #0
 8005d58:	e7d4      	b.n	8005d04 <HAL_UART_RegisterCallback+0x20>
 8005d5a:	23ac      	movs	r3, #172	@ 0xac
 8005d5c:	50c2      	str	r2, [r0, r3]
 8005d5e:	2000      	movs	r0, #0
 8005d60:	e7d0      	b.n	8005d04 <HAL_UART_RegisterCallback+0x20>
 8005d62:	23b0      	movs	r3, #176	@ 0xb0
 8005d64:	50c2      	str	r2, [r0, r3]
 8005d66:	2000      	movs	r0, #0
 8005d68:	e7cc      	b.n	8005d04 <HAL_UART_RegisterCallback+0x20>
 8005d6a:	23b4      	movs	r3, #180	@ 0xb4
 8005d6c:	50c2      	str	r2, [r0, r3]
 8005d6e:	2000      	movs	r0, #0
 8005d70:	e7c8      	b.n	8005d04 <HAL_UART_RegisterCallback+0x20>
 8005d72:	23b8      	movs	r3, #184	@ 0xb8
 8005d74:	50c2      	str	r2, [r0, r3]
 8005d76:	2000      	movs	r0, #0
 8005d78:	e7c4      	b.n	8005d04 <HAL_UART_RegisterCallback+0x20>
 8005d7a:	23bc      	movs	r3, #188	@ 0xbc
 8005d7c:	50c2      	str	r2, [r0, r3]
 8005d7e:	2000      	movs	r0, #0
 8005d80:	e7c0      	b.n	8005d04 <HAL_UART_RegisterCallback+0x20>
 8005d82:	46c0      	nop			@ (mov r8, r8)
 8005d84:	08007488 	.word	0x08007488

08005d88 <HAL_UART_Receive_DMA>:
 8005d88:	b5f8      	push	{r3, r4, r5, r6, r7, lr}
 8005d8a:	000d      	movs	r5, r1
 8005d8c:	218c      	movs	r1, #140	@ 0x8c
 8005d8e:	5841      	ldr	r1, [r0, r1]
 8005d90:	0004      	movs	r4, r0
 8005d92:	2920      	cmp	r1, #32
 8005d94:	d160      	bne.n	8005e58 <HAL_UART_Receive_DMA+0xd0>
 8005d96:	2d00      	cmp	r5, #0
 8005d98:	d041      	beq.n	8005e1e <HAL_UART_Receive_DMA+0x96>
 8005d9a:	2a00      	cmp	r2, #0
 8005d9c:	d03f      	beq.n	8005e1e <HAL_UART_Receive_DMA+0x96>
 8005d9e:	2380      	movs	r3, #128	@ 0x80
 8005da0:	6881      	ldr	r1, [r0, #8]
 8005da2:	015b      	lsls	r3, r3, #5
 8005da4:	4299      	cmp	r1, r3
 8005da6:	d104      	bne.n	8005db2 <HAL_UART_Receive_DMA+0x2a>
 8005da8:	6903      	ldr	r3, [r0, #16]
 8005daa:	2b00      	cmp	r3, #0
 8005dac:	d101      	bne.n	8005db2 <HAL_UART_Receive_DMA+0x2a>
 8005dae:	07eb      	lsls	r3, r5, #31
 8005db0:	d435      	bmi.n	8005e1e <HAL_UART_Receive_DMA+0x96>
 8005db2:	2300      	movs	r3, #0
 8005db4:	4930      	ldr	r1, [pc, #192]	@ (8005e78 <HAL_UART_Receive_DMA+0xf0>)
 8005db6:	66e3      	str	r3, [r4, #108]	@ 0x6c
 8005db8:	6823      	ldr	r3, [r4, #0]
 8005dba:	428b      	cmp	r3, r1
 8005dbc:	d00f      	beq.n	8005dde <HAL_UART_Receive_DMA+0x56>
 8005dbe:	685b      	ldr	r3, [r3, #4]
 8005dc0:	021b      	lsls	r3, r3, #8
 8005dc2:	d50c      	bpl.n	8005dde <HAL_UART_Receive_DMA+0x56>
 8005dc4:	f3ef 8010 	mrs	r0, PRIMASK
 8005dc8:	2301      	movs	r3, #1
 8005dca:	f383 8810 	msr	PRIMASK, r3
 8005dce:	2380      	movs	r3, #128	@ 0x80
 8005dd0:	6821      	ldr	r1, [r4, #0]
 8005dd2:	04db      	lsls	r3, r3, #19
 8005dd4:	680e      	ldr	r6, [r1, #0]
 8005dd6:	4333      	orrs	r3, r6
 8005dd8:	600b      	str	r3, [r1, #0]
 8005dda:	f380 8810 	msr	PRIMASK, r0
 8005dde:	235c      	movs	r3, #92	@ 0x5c
 8005de0:	65a5      	str	r5, [r4, #88]	@ 0x58
 8005de2:	2122      	movs	r1, #34	@ 0x22
 8005de4:	52e2      	strh	r2, [r4, r3]
 8005de6:	2790      	movs	r7, #144	@ 0x90
 8005de8:	2300      	movs	r3, #0
 8005dea:	268c      	movs	r6, #140	@ 0x8c
 8005dec:	51e3      	str	r3, [r4, r7]
 8005dee:	51a1      	str	r1, [r4, r6]
 8005df0:	315e      	adds	r1, #94	@ 0x5e
 8005df2:	5860      	ldr	r0, [r4, r1]
 8005df4:	2800      	cmp	r0, #0
 8005df6:	d014      	beq.n	8005e22 <HAL_UART_Receive_DMA+0x9a>
 8005df8:	4920      	ldr	r1, [pc, #128]	@ (8005e7c <HAL_UART_Receive_DMA+0xf4>)
 8005dfa:	6383      	str	r3, [r0, #56]	@ 0x38
 8005dfc:	62c1      	str	r1, [r0, #44]	@ 0x2c
 8005dfe:	4920      	ldr	r1, [pc, #128]	@ (8005e80 <HAL_UART_Receive_DMA+0xf8>)
 8005e00:	0013      	movs	r3, r2
 8005e02:	6301      	str	r1, [r0, #48]	@ 0x30
 8005e04:	491f      	ldr	r1, [pc, #124]	@ (8005e84 <HAL_UART_Receive_DMA+0xfc>)
 8005e06:	002a      	movs	r2, r5
 8005e08:	6341      	str	r1, [r0, #52]	@ 0x34
 8005e0a:	6821      	ldr	r1, [r4, #0]
 8005e0c:	3124      	adds	r1, #36	@ 0x24
 8005e0e:	f7fd f8a7 	bl	8002f60 <HAL_DMA_Start_IT>
 8005e12:	2800      	cmp	r0, #0
 8005e14:	d005      	beq.n	8005e22 <HAL_UART_Receive_DMA+0x9a>
 8005e16:	2310      	movs	r3, #16
 8005e18:	51e3      	str	r3, [r4, r7]
 8005e1a:	3310      	adds	r3, #16
 8005e1c:	51a3      	str	r3, [r4, r6]
 8005e1e:	2001      	movs	r0, #1
 8005e20:	e019      	b.n	8005e56 <HAL_UART_Receive_DMA+0xce>
 8005e22:	6923      	ldr	r3, [r4, #16]
 8005e24:	2b00      	cmp	r3, #0
 8005e26:	d119      	bne.n	8005e5c <HAL_UART_Receive_DMA+0xd4>
 8005e28:	f3ef 8010 	mrs	r0, PRIMASK
 8005e2c:	2301      	movs	r3, #1
 8005e2e:	f383 8810 	msr	PRIMASK, r3
 8005e32:	6821      	ldr	r1, [r4, #0]
 8005e34:	688a      	ldr	r2, [r1, #8]
 8005e36:	431a      	orrs	r2, r3
 8005e38:	608a      	str	r2, [r1, #8]
 8005e3a:	f380 8810 	msr	PRIMASK, r0
 8005e3e:	f3ef 8110 	mrs	r1, PRIMASK
 8005e42:	f383 8810 	msr	PRIMASK, r3
 8005e46:	2040      	movs	r0, #64	@ 0x40
 8005e48:	6822      	ldr	r2, [r4, #0]
 8005e4a:	6893      	ldr	r3, [r2, #8]
 8005e4c:	4303      	orrs	r3, r0
 8005e4e:	6093      	str	r3, [r2, #8]
 8005e50:	f381 8810 	msr	PRIMASK, r1
 8005e54:	2000      	movs	r0, #0
 8005e56:	bdf8      	pop	{r3, r4, r5, r6, r7, pc}
 8005e58:	2002      	movs	r0, #2
 8005e5a:	e7fc      	b.n	8005e56 <HAL_UART_Receive_DMA+0xce>
 8005e5c:	f3ef 8110 	mrs	r1, PRIMASK
 8005e60:	2301      	movs	r3, #1
 8005e62:	f383 8810 	msr	PRIMASK, r3
 8005e66:	6822      	ldr	r2, [r4, #0]
 8005e68:	33ff      	adds	r3, #255	@ 0xff
 8005e6a:	6810      	ldr	r0, [r2, #0]
 8005e6c:	4303      	orrs	r3, r0
 8005e6e:	6013      	str	r3, [r2, #0]
 8005e70:	f381 8810 	msr	PRIMASK, r1
 8005e74:	e7d8      	b.n	8005e28 <HAL_UART_Receive_DMA+0xa0>
 8005e76:	46c0      	nop			@ (mov r8, r8)
 8005e78:	40008000 	.word	0x40008000
 8005e7c:	08005b0d 	.word	0x08005b0d
 8005e80:	08005bad 	.word	0x08005bad
 8005e84:	08005c09 	.word	0x08005c09

08005e88 <HAL_UART_IRQHandler>:
 8005e88:	b5f8      	push	{r3, r4, r5, r6, r7, lr}
 8005e8a:	4645      	mov	r5, r8
 8005e8c:	46de      	mov	lr, fp
 8005e8e:	4657      	mov	r7, sl
 8005e90:	464e      	mov	r6, r9
 8005e92:	6802      	ldr	r2, [r0, #0]
 8005e94:	49ae      	ldr	r1, [pc, #696]	@ (8006150 <HAL_UART_IRQHandler+0x2c8>)
 8005e96:	69d3      	ldr	r3, [r2, #28]
 8005e98:	0004      	movs	r4, r0
 8005e9a:	b5e0      	push	{r5, r6, r7, lr}
 8005e9c:	6810      	ldr	r0, [r2, #0]
 8005e9e:	6895      	ldr	r5, [r2, #8]
 8005ea0:	420b      	tst	r3, r1
 8005ea2:	d14e      	bne.n	8005f42 <HAL_UART_IRQHandler+0xba>
 8005ea4:	2120      	movs	r1, #32
 8005ea6:	4219      	tst	r1, r3
 8005ea8:	d006      	beq.n	8005eb8 <HAL_UART_IRQHandler+0x30>
 8005eaa:	2680      	movs	r6, #128	@ 0x80
 8005eac:	0576      	lsls	r6, r6, #21
 8005eae:	4001      	ands	r1, r0
 8005eb0:	402e      	ands	r6, r5
 8005eb2:	4331      	orrs	r1, r6
 8005eb4:	d000      	beq.n	8005eb8 <HAL_UART_IRQHandler+0x30>
 8005eb6:	e0e4      	b.n	8006082 <HAL_UART_IRQHandler+0x1fa>
 8005eb8:	6ee6      	ldr	r6, [r4, #108]	@ 0x6c
 8005eba:	2e01      	cmp	r6, #1
 8005ebc:	d100      	bne.n	8005ec0 <HAL_UART_IRQHandler+0x38>
 8005ebe:	e09b      	b.n	8005ff8 <HAL_UART_IRQHandler+0x170>
 8005ec0:	2180      	movs	r1, #128	@ 0x80
 8005ec2:	0349      	lsls	r1, r1, #13
 8005ec4:	420b      	tst	r3, r1
 8005ec6:	d128      	bne.n	8005f1a <HAL_UART_IRQHandler+0x92>
 8005ec8:	2280      	movs	r2, #128	@ 0x80
 8005eca:	421a      	tst	r2, r3
 8005ecc:	d006      	beq.n	8005edc <HAL_UART_IRQHandler+0x54>
 8005ece:	2180      	movs	r1, #128	@ 0x80
 8005ed0:	0409      	lsls	r1, r1, #16
 8005ed2:	4002      	ands	r2, r0
 8005ed4:	400d      	ands	r5, r1
 8005ed6:	432a      	orrs	r2, r5
 8005ed8:	d000      	beq.n	8005edc <HAL_UART_IRQHandler+0x54>
 8005eda:	e0d9      	b.n	8006090 <HAL_UART_IRQHandler+0x208>
 8005edc:	2240      	movs	r2, #64	@ 0x40
 8005ede:	421a      	tst	r2, r3
 8005ee0:	d023      	beq.n	8005f2a <HAL_UART_IRQHandler+0xa2>
 8005ee2:	4202      	tst	r2, r0
 8005ee4:	d021      	beq.n	8005f2a <HAL_UART_IRQHandler+0xa2>
 8005ee6:	f3ef 8010 	mrs	r0, PRIMASK
 8005eea:	2301      	movs	r3, #1
 8005eec:	f383 8810 	msr	PRIMASK, r3
 8005ef0:	6821      	ldr	r1, [r4, #0]
 8005ef2:	680b      	ldr	r3, [r1, #0]
 8005ef4:	4393      	bics	r3, r2
 8005ef6:	600b      	str	r3, [r1, #0]
 8005ef8:	f380 8810 	msr	PRIMASK, r0
 8005efc:	2388      	movs	r3, #136	@ 0x88
 8005efe:	3a20      	subs	r2, #32
 8005f00:	50e2      	str	r2, [r4, r3]
 8005f02:	2300      	movs	r3, #0
 8005f04:	67a3      	str	r3, [r4, #120]	@ 0x78
 8005f06:	3398      	adds	r3, #152	@ 0x98
 8005f08:	0020      	movs	r0, r4
 8005f0a:	58e3      	ldr	r3, [r4, r3]
 8005f0c:	4798      	blx	r3
 8005f0e:	bcf0      	pop	{r4, r5, r6, r7}
 8005f10:	46bb      	mov	fp, r7
 8005f12:	46b2      	mov	sl, r6
 8005f14:	46a9      	mov	r9, r5
 8005f16:	46a0      	mov	r8, r4
 8005f18:	bdf8      	pop	{r3, r4, r5, r6, r7, pc}
 8005f1a:	026e      	lsls	r6, r5, #9
 8005f1c:	d5d4      	bpl.n	8005ec8 <HAL_UART_IRQHandler+0x40>
 8005f1e:	23b4      	movs	r3, #180	@ 0xb4
 8005f20:	0020      	movs	r0, r4
 8005f22:	58e3      	ldr	r3, [r4, r3]
 8005f24:	6211      	str	r1, [r2, #32]
 8005f26:	4798      	blx	r3
 8005f28:	e7f1      	b.n	8005f0e <HAL_UART_IRQHandler+0x86>
 8005f2a:	021a      	lsls	r2, r3, #8
 8005f2c:	d502      	bpl.n	8005f34 <HAL_UART_IRQHandler+0xac>
 8005f2e:	0042      	lsls	r2, r0, #1
 8005f30:	d500      	bpl.n	8005f34 <HAL_UART_IRQHandler+0xac>
 8005f32:	e107      	b.n	8006144 <HAL_UART_IRQHandler+0x2bc>
 8005f34:	01db      	lsls	r3, r3, #7
 8005f36:	d5ea      	bpl.n	8005f0e <HAL_UART_IRQHandler+0x86>
 8005f38:	2800      	cmp	r0, #0
 8005f3a:	dae8      	bge.n	8005f0e <HAL_UART_IRQHandler+0x86>
 8005f3c:	23b8      	movs	r3, #184	@ 0xb8
 8005f3e:	58e3      	ldr	r3, [r4, r3]
 8005f40:	e0a3      	b.n	800608a <HAL_UART_IRQHandler+0x202>
 8005f42:	4e84      	ldr	r6, [pc, #528]	@ (8006154 <HAL_UART_IRQHandler+0x2cc>)
 8005f44:	4984      	ldr	r1, [pc, #528]	@ (8006158 <HAL_UART_IRQHandler+0x2d0>)
 8005f46:	402e      	ands	r6, r5
 8005f48:	4001      	ands	r1, r0
 8005f4a:	4331      	orrs	r1, r6
 8005f4c:	d0b4      	beq.n	8005eb8 <HAL_UART_IRQHandler+0x30>
 8005f4e:	2101      	movs	r1, #1
 8005f50:	4219      	tst	r1, r3
 8005f52:	d008      	beq.n	8005f66 <HAL_UART_IRQHandler+0xde>
 8005f54:	05c7      	lsls	r7, r0, #23
 8005f56:	d506      	bpl.n	8005f66 <HAL_UART_IRQHandler+0xde>
 8005f58:	2790      	movs	r7, #144	@ 0x90
 8005f5a:	46bc      	mov	ip, r7
 8005f5c:	6211      	str	r1, [r2, #32]
 8005f5e:	59e7      	ldr	r7, [r4, r7]
 8005f60:	4339      	orrs	r1, r7
 8005f62:	4667      	mov	r7, ip
 8005f64:	51e1      	str	r1, [r4, r7]
 8005f66:	2104      	movs	r1, #4
 8005f68:	000f      	movs	r7, r1
 8005f6a:	401f      	ands	r7, r3
 8005f6c:	46bc      	mov	ip, r7
 8005f6e:	2702      	movs	r7, #2
 8005f70:	4689      	mov	r9, r1
 8005f72:	421f      	tst	r7, r3
 8005f74:	d073      	beq.n	800605e <HAL_UART_IRQHandler+0x1d6>
 8005f76:	07e9      	lsls	r1, r5, #31
 8005f78:	d50a      	bpl.n	8005f90 <HAL_UART_IRQHandler+0x108>
 8005f7a:	2190      	movs	r1, #144	@ 0x90
 8005f7c:	6217      	str	r7, [r2, #32]
 8005f7e:	5867      	ldr	r7, [r4, r1]
 8005f80:	4688      	mov	r8, r1
 8005f82:	4649      	mov	r1, r9
 8005f84:	4339      	orrs	r1, r7
 8005f86:	4647      	mov	r7, r8
 8005f88:	51e1      	str	r1, [r4, r7]
 8005f8a:	4661      	mov	r1, ip
 8005f8c:	2900      	cmp	r1, #0
 8005f8e:	d16b      	bne.n	8006068 <HAL_UART_IRQHandler+0x1e0>
 8005f90:	2708      	movs	r7, #8
 8005f92:	421f      	tst	r7, r3
 8005f94:	d008      	beq.n	8005fa8 <HAL_UART_IRQHandler+0x120>
 8005f96:	2120      	movs	r1, #32
 8005f98:	4001      	ands	r1, r0
 8005f9a:	4331      	orrs	r1, r6
 8005f9c:	d004      	beq.n	8005fa8 <HAL_UART_IRQHandler+0x120>
 8005f9e:	2690      	movs	r6, #144	@ 0x90
 8005fa0:	6217      	str	r7, [r2, #32]
 8005fa2:	59a1      	ldr	r1, [r4, r6]
 8005fa4:	4339      	orrs	r1, r7
 8005fa6:	51a1      	str	r1, [r4, r6]
 8005fa8:	2180      	movs	r1, #128	@ 0x80
 8005faa:	0109      	lsls	r1, r1, #4
 8005fac:	420b      	tst	r3, r1
 8005fae:	d007      	beq.n	8005fc0 <HAL_UART_IRQHandler+0x138>
 8005fb0:	0146      	lsls	r6, r0, #5
 8005fb2:	d505      	bpl.n	8005fc0 <HAL_UART_IRQHandler+0x138>
 8005fb4:	2690      	movs	r6, #144	@ 0x90
 8005fb6:	2720      	movs	r7, #32
 8005fb8:	6211      	str	r1, [r2, #32]
 8005fba:	59a1      	ldr	r1, [r4, r6]
 8005fbc:	4339      	orrs	r1, r7
 8005fbe:	51a1      	str	r1, [r4, r6]
 8005fc0:	2190      	movs	r1, #144	@ 0x90
 8005fc2:	5861      	ldr	r1, [r4, r1]
 8005fc4:	2900      	cmp	r1, #0
 8005fc6:	d0a2      	beq.n	8005f0e <HAL_UART_IRQHandler+0x86>
 8005fc8:	2120      	movs	r1, #32
 8005fca:	4219      	tst	r1, r3
 8005fcc:	d005      	beq.n	8005fda <HAL_UART_IRQHandler+0x152>
 8005fce:	2380      	movs	r3, #128	@ 0x80
 8005fd0:	055b      	lsls	r3, r3, #21
 8005fd2:	4001      	ands	r1, r0
 8005fd4:	402b      	ands	r3, r5
 8005fd6:	4319      	orrs	r1, r3
 8005fd8:	d15e      	bne.n	8006098 <HAL_UART_IRQHandler+0x210>
 8005fda:	2690      	movs	r6, #144	@ 0x90
 8005fdc:	2540      	movs	r5, #64	@ 0x40
 8005fde:	59a1      	ldr	r1, [r4, r6]
 8005fe0:	6893      	ldr	r3, [r2, #8]
 8005fe2:	401d      	ands	r5, r3
 8005fe4:	2328      	movs	r3, #40	@ 0x28
 8005fe6:	400b      	ands	r3, r1
 8005fe8:	431d      	orrs	r5, r3
 8005fea:	d15c      	bne.n	80060a6 <HAL_UART_IRQHandler+0x21e>
 8005fec:	23a4      	movs	r3, #164	@ 0xa4
 8005fee:	0020      	movs	r0, r4
 8005ff0:	58e3      	ldr	r3, [r4, r3]
 8005ff2:	4798      	blx	r3
 8005ff4:	51a5      	str	r5, [r4, r6]
 8005ff6:	e78a      	b.n	8005f0e <HAL_UART_IRQHandler+0x86>
 8005ff8:	2710      	movs	r7, #16
 8005ffa:	421f      	tst	r7, r3
 8005ffc:	d100      	bne.n	8006000 <HAL_UART_IRQHandler+0x178>
 8005ffe:	e75f      	b.n	8005ec0 <HAL_UART_IRQHandler+0x38>
 8006000:	4207      	tst	r7, r0
 8006002:	d100      	bne.n	8006006 <HAL_UART_IRQHandler+0x17e>
 8006004:	e75c      	b.n	8005ec0 <HAL_UART_IRQHandler+0x38>
 8006006:	2340      	movs	r3, #64	@ 0x40
 8006008:	0018      	movs	r0, r3
 800600a:	6217      	str	r7, [r2, #32]
 800600c:	6892      	ldr	r2, [r2, #8]
 800600e:	4010      	ands	r0, r2
 8006010:	4213      	tst	r3, r2
 8006012:	d100      	bne.n	8006016 <HAL_UART_IRQHandler+0x18e>
 8006014:	e0a8      	b.n	8006168 <HAL_UART_IRQHandler+0x2e0>
 8006016:	2280      	movs	r2, #128	@ 0x80
 8006018:	4694      	mov	ip, r2
 800601a:	58a2      	ldr	r2, [r4, r2]
 800601c:	6810      	ldr	r0, [r2, #0]
 800601e:	6842      	ldr	r2, [r0, #4]
 8006020:	b292      	uxth	r2, r2
 8006022:	2a00      	cmp	r2, #0
 8006024:	d100      	bne.n	8006028 <HAL_UART_IRQHandler+0x1a0>
 8006026:	e772      	b.n	8005f0e <HAL_UART_IRQHandler+0x86>
 8006028:	215c      	movs	r1, #92	@ 0x5c
 800602a:	468b      	mov	fp, r1
 800602c:	5a61      	ldrh	r1, [r4, r1]
 800602e:	4291      	cmp	r1, r2
 8006030:	d800      	bhi.n	8006034 <HAL_UART_IRQHandler+0x1ac>
 8006032:	e76c      	b.n	8005f0e <HAL_UART_IRQHandler+0x86>
 8006034:	255e      	movs	r5, #94	@ 0x5e
 8006036:	5362      	strh	r2, [r4, r5]
 8006038:	2220      	movs	r2, #32
 800603a:	0015      	movs	r5, r2
 800603c:	6800      	ldr	r0, [r0, #0]
 800603e:	4005      	ands	r5, r0
 8006040:	46a8      	mov	r8, r5
 8006042:	4202      	tst	r2, r0
 8006044:	d100      	bne.n	8006048 <HAL_UART_IRQHandler+0x1c0>
 8006046:	e0cb      	b.n	80061e0 <HAL_UART_IRQHandler+0x358>
 8006048:	2302      	movs	r3, #2
 800604a:	6723      	str	r3, [r4, #112]	@ 0x70
 800604c:	335c      	adds	r3, #92	@ 0x5c
 800604e:	5ae3      	ldrh	r3, [r4, r3]
 8006050:	0020      	movs	r0, r4
 8006052:	1ac9      	subs	r1, r1, r3
 8006054:	23c0      	movs	r3, #192	@ 0xc0
 8006056:	b289      	uxth	r1, r1
 8006058:	58e3      	ldr	r3, [r4, r3]
 800605a:	4798      	blx	r3
 800605c:	e757      	b.n	8005f0e <HAL_UART_IRQHandler+0x86>
 800605e:	4661      	mov	r1, ip
 8006060:	2900      	cmp	r1, #0
 8006062:	d095      	beq.n	8005f90 <HAL_UART_IRQHandler+0x108>
 8006064:	07e9      	lsls	r1, r5, #31
 8006066:	d593      	bpl.n	8005f90 <HAL_UART_IRQHandler+0x108>
 8006068:	2104      	movs	r1, #4
 800606a:	6211      	str	r1, [r2, #32]
 800606c:	318c      	adds	r1, #140	@ 0x8c
 800606e:	4689      	mov	r9, r1
 8006070:	5861      	ldr	r1, [r4, r1]
 8006072:	4688      	mov	r8, r1
 8006074:	2102      	movs	r1, #2
 8006076:	4647      	mov	r7, r8
 8006078:	430f      	orrs	r7, r1
 800607a:	0039      	movs	r1, r7
 800607c:	464f      	mov	r7, r9
 800607e:	51e1      	str	r1, [r4, r7]
 8006080:	e786      	b.n	8005f90 <HAL_UART_IRQHandler+0x108>
 8006082:	6f63      	ldr	r3, [r4, #116]	@ 0x74
 8006084:	2b00      	cmp	r3, #0
 8006086:	d100      	bne.n	800608a <HAL_UART_IRQHandler+0x202>
 8006088:	e741      	b.n	8005f0e <HAL_UART_IRQHandler+0x86>
 800608a:	0020      	movs	r0, r4
 800608c:	4798      	blx	r3
 800608e:	e73e      	b.n	8005f0e <HAL_UART_IRQHandler+0x86>
 8006090:	6fa3      	ldr	r3, [r4, #120]	@ 0x78
 8006092:	2b00      	cmp	r3, #0
 8006094:	d1f9      	bne.n	800608a <HAL_UART_IRQHandler+0x202>
 8006096:	e73a      	b.n	8005f0e <HAL_UART_IRQHandler+0x86>
 8006098:	6f63      	ldr	r3, [r4, #116]	@ 0x74
 800609a:	2b00      	cmp	r3, #0
 800609c:	d09d      	beq.n	8005fda <HAL_UART_IRQHandler+0x152>
 800609e:	0020      	movs	r0, r4
 80060a0:	4798      	blx	r3
 80060a2:	6822      	ldr	r2, [r4, #0]
 80060a4:	e799      	b.n	8005fda <HAL_UART_IRQHandler+0x152>
 80060a6:	f3ef 8010 	mrs	r0, PRIMASK
 80060aa:	2201      	movs	r2, #1
 80060ac:	f382 8810 	msr	PRIMASK, r2
 80060b0:	6821      	ldr	r1, [r4, #0]
 80060b2:	4d2a      	ldr	r5, [pc, #168]	@ (800615c <HAL_UART_IRQHandler+0x2d4>)
 80060b4:	680b      	ldr	r3, [r1, #0]
 80060b6:	402b      	ands	r3, r5
 80060b8:	600b      	str	r3, [r1, #0]
 80060ba:	f380 8810 	msr	PRIMASK, r0
 80060be:	f3ef 8110 	mrs	r1, PRIMASK
 80060c2:	f382 8810 	msr	PRIMASK, r2
 80060c6:	6822      	ldr	r2, [r4, #0]
 80060c8:	4825      	ldr	r0, [pc, #148]	@ (8006160 <HAL_UART_IRQHandler+0x2d8>)
 80060ca:	6893      	ldr	r3, [r2, #8]
 80060cc:	4003      	ands	r3, r0
 80060ce:	6093      	str	r3, [r2, #8]
 80060d0:	f381 8810 	msr	PRIMASK, r1
 80060d4:	6ee3      	ldr	r3, [r4, #108]	@ 0x6c
 80060d6:	2b01      	cmp	r3, #1
 80060d8:	d10a      	bne.n	80060f0 <HAL_UART_IRQHandler+0x268>
 80060da:	f3ef 8110 	mrs	r1, PRIMASK
 80060de:	f383 8810 	msr	PRIMASK, r3
 80060e2:	2010      	movs	r0, #16
 80060e4:	6822      	ldr	r2, [r4, #0]
 80060e6:	6813      	ldr	r3, [r2, #0]
 80060e8:	4383      	bics	r3, r0
 80060ea:	6013      	str	r3, [r2, #0]
 80060ec:	f381 8810 	msr	PRIMASK, r1
 80060f0:	238c      	movs	r3, #140	@ 0x8c
 80060f2:	2220      	movs	r2, #32
 80060f4:	50e2      	str	r2, [r4, r3]
 80060f6:	2300      	movs	r3, #0
 80060f8:	66e3      	str	r3, [r4, #108]	@ 0x6c
 80060fa:	6763      	str	r3, [r4, #116]	@ 0x74
 80060fc:	6823      	ldr	r3, [r4, #0]
 80060fe:	689a      	ldr	r2, [r3, #8]
 8006100:	2340      	movs	r3, #64	@ 0x40
 8006102:	4213      	tst	r3, r2
 8006104:	d019      	beq.n	800613a <HAL_UART_IRQHandler+0x2b2>
 8006106:	f3ef 8010 	mrs	r0, PRIMASK
 800610a:	2201      	movs	r2, #1
 800610c:	f382 8810 	msr	PRIMASK, r2
 8006110:	6821      	ldr	r1, [r4, #0]
 8006112:	688a      	ldr	r2, [r1, #8]
 8006114:	439a      	bics	r2, r3
 8006116:	608a      	str	r2, [r1, #8]
 8006118:	f380 8810 	msr	PRIMASK, r0
 800611c:	2580      	movs	r5, #128	@ 0x80
 800611e:	5960      	ldr	r0, [r4, r5]
 8006120:	2800      	cmp	r0, #0
 8006122:	d00a      	beq.n	800613a <HAL_UART_IRQHandler+0x2b2>
 8006124:	4b0f      	ldr	r3, [pc, #60]	@ (8006164 <HAL_UART_IRQHandler+0x2dc>)
 8006126:	6383      	str	r3, [r0, #56]	@ 0x38
 8006128:	f7fc ffbe 	bl	80030a8 <HAL_DMA_Abort_IT>
 800612c:	2800      	cmp	r0, #0
 800612e:	d100      	bne.n	8006132 <HAL_UART_IRQHandler+0x2aa>
 8006130:	e6ed      	b.n	8005f0e <HAL_UART_IRQHandler+0x86>
 8006132:	5960      	ldr	r0, [r4, r5]
 8006134:	6b83      	ldr	r3, [r0, #56]	@ 0x38
 8006136:	4798      	blx	r3
 8006138:	e6e9      	b.n	8005f0e <HAL_UART_IRQHandler+0x86>
 800613a:	23a4      	movs	r3, #164	@ 0xa4
 800613c:	0020      	movs	r0, r4
 800613e:	58e3      	ldr	r3, [r4, r3]
 8006140:	4798      	blx	r3
 8006142:	e6e4      	b.n	8005f0e <HAL_UART_IRQHandler+0x86>
 8006144:	23bc      	movs	r3, #188	@ 0xbc
 8006146:	0020      	movs	r0, r4
 8006148:	58e3      	ldr	r3, [r4, r3]
 800614a:	4798      	blx	r3
 800614c:	e6df      	b.n	8005f0e <HAL_UART_IRQHandler+0x86>
 800614e:	46c0      	nop			@ (mov r8, r8)
 8006150:	0000080f 	.word	0x0000080f
 8006154:	10000001 	.word	0x10000001
 8006158:	04000120 	.word	0x04000120
 800615c:	fffffedf 	.word	0xfffffedf
 8006160:	effffffe 	.word	0xeffffffe
 8006164:	08005bd1 	.word	0x08005bd1
 8006168:	235c      	movs	r3, #92	@ 0x5c
 800616a:	225e      	movs	r2, #94	@ 0x5e
 800616c:	5ae1      	ldrh	r1, [r4, r3]
 800616e:	5aa3      	ldrh	r3, [r4, r2]
 8006170:	5aa2      	ldrh	r2, [r4, r2]
 8006172:	b29b      	uxth	r3, r3
 8006174:	2a00      	cmp	r2, #0
 8006176:	d100      	bne.n	800617a <HAL_UART_IRQHandler+0x2f2>
 8006178:	e6c9      	b.n	8005f0e <HAL_UART_IRQHandler+0x86>
 800617a:	1ac9      	subs	r1, r1, r3
 800617c:	b28b      	uxth	r3, r1
 800617e:	4698      	mov	r8, r3
 8006180:	2b00      	cmp	r3, #0
 8006182:	d100      	bne.n	8006186 <HAL_UART_IRQHandler+0x2fe>
 8006184:	e6c3      	b.n	8005f0e <HAL_UART_IRQHandler+0x86>
 8006186:	f3ef 8510 	mrs	r5, PRIMASK
 800618a:	f386 8810 	msr	PRIMASK, r6
 800618e:	6822      	ldr	r2, [r4, #0]
 8006190:	492d      	ldr	r1, [pc, #180]	@ (8006248 <HAL_UART_IRQHandler+0x3c0>)
 8006192:	6813      	ldr	r3, [r2, #0]
 8006194:	400b      	ands	r3, r1
 8006196:	6013      	str	r3, [r2, #0]
 8006198:	f385 8810 	msr	PRIMASK, r5
 800619c:	f3ef 8510 	mrs	r5, PRIMASK
 80061a0:	f386 8810 	msr	PRIMASK, r6
 80061a4:	6822      	ldr	r2, [r4, #0]
 80061a6:	4929      	ldr	r1, [pc, #164]	@ (800624c <HAL_UART_IRQHandler+0x3c4>)
 80061a8:	6893      	ldr	r3, [r2, #8]
 80061aa:	400b      	ands	r3, r1
 80061ac:	6093      	str	r3, [r2, #8]
 80061ae:	f385 8810 	msr	PRIMASK, r5
 80061b2:	238c      	movs	r3, #140	@ 0x8c
 80061b4:	2220      	movs	r2, #32
 80061b6:	50e2      	str	r2, [r4, r3]
 80061b8:	66e0      	str	r0, [r4, #108]	@ 0x6c
 80061ba:	6760      	str	r0, [r4, #116]	@ 0x74
 80061bc:	f3ef 8010 	mrs	r0, PRIMASK
 80061c0:	f386 8810 	msr	PRIMASK, r6
 80061c4:	6822      	ldr	r2, [r4, #0]
 80061c6:	6813      	ldr	r3, [r2, #0]
 80061c8:	43bb      	bics	r3, r7
 80061ca:	6013      	str	r3, [r2, #0]
 80061cc:	f380 8810 	msr	PRIMASK, r0
 80061d0:	2302      	movs	r3, #2
 80061d2:	6723      	str	r3, [r4, #112]	@ 0x70
 80061d4:	33be      	adds	r3, #190	@ 0xbe
 80061d6:	4641      	mov	r1, r8
 80061d8:	0020      	movs	r0, r4
 80061da:	58e3      	ldr	r3, [r4, r3]
 80061dc:	4798      	blx	r3
 80061de:	e696      	b.n	8005f0e <HAL_UART_IRQHandler+0x86>
 80061e0:	f3ef 8910 	mrs	r9, PRIMASK
 80061e4:	f386 8810 	msr	PRIMASK, r6
 80061e8:	6820      	ldr	r0, [r4, #0]
 80061ea:	4d19      	ldr	r5, [pc, #100]	@ (8006250 <HAL_UART_IRQHandler+0x3c8>)
 80061ec:	6801      	ldr	r1, [r0, #0]
 80061ee:	4029      	ands	r1, r5
 80061f0:	6001      	str	r1, [r0, #0]
 80061f2:	f389 8810 	msr	PRIMASK, r9
 80061f6:	f3ef 8910 	mrs	r9, PRIMASK
 80061fa:	f386 8810 	msr	PRIMASK, r6
 80061fe:	6820      	ldr	r0, [r4, #0]
 8006200:	6881      	ldr	r1, [r0, #8]
 8006202:	43b1      	bics	r1, r6
 8006204:	6081      	str	r1, [r0, #8]
 8006206:	f389 8810 	msr	PRIMASK, r9
 800620a:	f3ef 8910 	mrs	r9, PRIMASK
 800620e:	f386 8810 	msr	PRIMASK, r6
 8006212:	6820      	ldr	r0, [r4, #0]
 8006214:	6881      	ldr	r1, [r0, #8]
 8006216:	4399      	bics	r1, r3
 8006218:	6081      	str	r1, [r0, #8]
 800621a:	f389 8810 	msr	PRIMASK, r9
 800621e:	334c      	adds	r3, #76	@ 0x4c
 8006220:	50e2      	str	r2, [r4, r3]
 8006222:	4643      	mov	r3, r8
 8006224:	66e3      	str	r3, [r4, #108]	@ 0x6c
 8006226:	f3ef 8110 	mrs	r1, PRIMASK
 800622a:	f386 8810 	msr	PRIMASK, r6
 800622e:	6822      	ldr	r2, [r4, #0]
 8006230:	6813      	ldr	r3, [r2, #0]
 8006232:	43bb      	bics	r3, r7
 8006234:	6013      	str	r3, [r2, #0]
 8006236:	f381 8810 	msr	PRIMASK, r1
 800623a:	4663      	mov	r3, ip
 800623c:	58e0      	ldr	r0, [r4, r3]
 800623e:	f7fc fef7 	bl	8003030 <HAL_DMA_Abort>
 8006242:	465b      	mov	r3, fp
 8006244:	5ae1      	ldrh	r1, [r4, r3]
 8006246:	e6ff      	b.n	8006048 <HAL_UART_IRQHandler+0x1c0>
 8006248:	fffffedf 	.word	0xfffffedf
 800624c:	effffffe 	.word	0xeffffffe
 8006250:	fffffeff 	.word	0xfffffeff

08006254 <UART_AdvFeatureConfig>:
 8006254:	6a83      	ldr	r3, [r0, #40]	@ 0x28
 8006256:	b530      	push	{r4, r5, lr}
 8006258:	071a      	lsls	r2, r3, #28
 800625a:	d506      	bpl.n	800626a <UART_AdvFeatureConfig+0x16>
 800625c:	6801      	ldr	r1, [r0, #0]
 800625e:	4c28      	ldr	r4, [pc, #160]	@ (8006300 <UART_AdvFeatureConfig+0xac>)
 8006260:	684a      	ldr	r2, [r1, #4]
 8006262:	4022      	ands	r2, r4
 8006264:	6b84      	ldr	r4, [r0, #56]	@ 0x38
 8006266:	4322      	orrs	r2, r4
 8006268:	604a      	str	r2, [r1, #4]
 800626a:	07da      	lsls	r2, r3, #31
 800626c:	d506      	bpl.n	800627c <UART_AdvFeatureConfig+0x28>
 800626e:	6801      	ldr	r1, [r0, #0]
 8006270:	4c24      	ldr	r4, [pc, #144]	@ (8006304 <UART_AdvFeatureConfig+0xb0>)
 8006272:	684a      	ldr	r2, [r1, #4]
 8006274:	4022      	ands	r2, r4
 8006276:	6ac4      	ldr	r4, [r0, #44]	@ 0x2c
 8006278:	4322      	orrs	r2, r4
 800627a:	604a      	str	r2, [r1, #4]
 800627c:	079a      	lsls	r2, r3, #30
 800627e:	d506      	bpl.n	800628e <UART_AdvFeatureConfig+0x3a>
 8006280:	6801      	ldr	r1, [r0, #0]
 8006282:	4c21      	ldr	r4, [pc, #132]	@ (8006308 <UART_AdvFeatureConfig+0xb4>)
 8006284:	684a      	ldr	r2, [r1, #4]
 8006286:	4022      	ands	r2, r4
 8006288:	6b04      	ldr	r4, [r0, #48]	@ 0x30
 800628a:	4322      	orrs	r2, r4
 800628c:	604a      	str	r2, [r1, #4]
 800628e:	075a      	lsls	r2, r3, #29
 8006290:	d506      	bpl.n	80062a0 <UART_AdvFeatureConfig+0x4c>
 8006292:	6801      	ldr	r1, [r0, #0]
 8006294:	4c1d      	ldr	r4, [pc, #116]	@ (800630c <UART_AdvFeatureConfig+0xb8>)
 8006296:	684a      	ldr	r2, [r1, #4]
 8006298:	4022      	ands	r2, r4
 800629a:	6b44      	ldr	r4, [r0, #52]	@ 0x34
 800629c:	4322      	orrs	r2, r4
 800629e:	604a      	str	r2, [r1, #4]
 80062a0:	06da      	lsls	r2, r3, #27
 80062a2:	d506      	bpl.n	80062b2 <UART_AdvFeatureConfig+0x5e>
 80062a4:	6801      	ldr	r1, [r0, #0]
 80062a6:	4c1a      	ldr	r4, [pc, #104]	@ (8006310 <UART_AdvFeatureConfig+0xbc>)
 80062a8:	688a      	ldr	r2, [r1, #8]
 80062aa:	4022      	ands	r2, r4
 80062ac:	6bc4      	ldr	r4, [r0, #60]	@ 0x3c
 80062ae:	4322      	orrs	r2, r4
 80062b0:	608a      	str	r2, [r1, #8]
 80062b2:	069a      	lsls	r2, r3, #26
 80062b4:	d506      	bpl.n	80062c4 <UART_AdvFeatureConfig+0x70>
 80062b6:	6801      	ldr	r1, [r0, #0]
 80062b8:	4c16      	ldr	r4, [pc, #88]	@ (8006314 <UART_AdvFeatureConfig+0xc0>)
 80062ba:	688a      	ldr	r2, [r1, #8]
 80062bc:	4022      	ands	r2, r4
 80062be:	6c04      	ldr	r4, [r0, #64]	@ 0x40
 80062c0:	4322      	orrs	r2, r4
 80062c2:	608a      	str	r2, [r1, #8]
 80062c4:	065a      	lsls	r2, r3, #25
 80062c6:	d50a      	bpl.n	80062de <UART_AdvFeatureConfig+0x8a>
 80062c8:	6801      	ldr	r1, [r0, #0]
 80062ca:	4d13      	ldr	r5, [pc, #76]	@ (8006318 <UART_AdvFeatureConfig+0xc4>)
 80062cc:	684a      	ldr	r2, [r1, #4]
 80062ce:	6c44      	ldr	r4, [r0, #68]	@ 0x44
 80062d0:	402a      	ands	r2, r5
 80062d2:	4322      	orrs	r2, r4
 80062d4:	604a      	str	r2, [r1, #4]
 80062d6:	2280      	movs	r2, #128	@ 0x80
 80062d8:	0352      	lsls	r2, r2, #13
 80062da:	4294      	cmp	r4, r2
 80062dc:	d009      	beq.n	80062f2 <UART_AdvFeatureConfig+0x9e>
 80062de:	061b      	lsls	r3, r3, #24
 80062e0:	d506      	bpl.n	80062f0 <UART_AdvFeatureConfig+0x9c>
 80062e2:	6802      	ldr	r2, [r0, #0]
 80062e4:	490d      	ldr	r1, [pc, #52]	@ (800631c <UART_AdvFeatureConfig+0xc8>)
 80062e6:	6853      	ldr	r3, [r2, #4]
 80062e8:	400b      	ands	r3, r1
 80062ea:	6cc1      	ldr	r1, [r0, #76]	@ 0x4c
 80062ec:	430b      	orrs	r3, r1
 80062ee:	6053      	str	r3, [r2, #4]
 80062f0:	bd30      	pop	{r4, r5, pc}
 80062f2:	684a      	ldr	r2, [r1, #4]
 80062f4:	4c0a      	ldr	r4, [pc, #40]	@ (8006320 <UART_AdvFeatureConfig+0xcc>)
 80062f6:	4022      	ands	r2, r4
 80062f8:	6c84      	ldr	r4, [r0, #72]	@ 0x48
 80062fa:	4322      	orrs	r2, r4
 80062fc:	604a      	str	r2, [r1, #4]
 80062fe:	e7ee      	b.n	80062de <UART_AdvFeatureConfig+0x8a>
 8006300:	ffff7fff 	.word	0xffff7fff
 8006304:	fffdffff 	.word	0xfffdffff
 8006308:	fffeffff 	.word	0xfffeffff
 800630c:	fffbffff 	.word	0xfffbffff
 8006310:	ffffefff 	.word	0xffffefff
 8006314:	ffffdfff 	.word	0xffffdfff
 8006318:	ffefffff 	.word	0xffefffff
 800631c:	fff7ffff 	.word	0xfff7ffff
 8006320:	ff9fffff 	.word	0xff9fffff

08006324 <UART_CheckIdleState>:
 8006324:	b5f0      	push	{r4, r5, r6, r7, lr}
 8006326:	2390      	movs	r3, #144	@ 0x90
 8006328:	2200      	movs	r2, #0
 800632a:	46c6      	mov	lr, r8
 800632c:	0004      	movs	r4, r0
 800632e:	b500      	push	{lr}
 8006330:	50c2      	str	r2, [r0, r3]
 8006332:	f7fb ffc9 	bl	80022c8 <HAL_GetTick>
 8006336:	6823      	ldr	r3, [r4, #0]
 8006338:	0005      	movs	r5, r0
 800633a:	681a      	ldr	r2, [r3, #0]
 800633c:	0712      	lsls	r2, r2, #28
 800633e:	d411      	bmi.n	8006364 <UART_CheckIdleState+0x40>
 8006340:	681a      	ldr	r2, [r3, #0]
 8006342:	0752      	lsls	r2, r2, #29
 8006344:	d43e      	bmi.n	80063c4 <UART_CheckIdleState+0xa0>
 8006346:	2320      	movs	r3, #32
 8006348:	2288      	movs	r2, #136	@ 0x88
 800634a:	50a3      	str	r3, [r4, r2]
 800634c:	3204      	adds	r2, #4
 800634e:	50a3      	str	r3, [r4, r2]
 8006350:	2300      	movs	r3, #0
 8006352:	2000      	movs	r0, #0
 8006354:	66e3      	str	r3, [r4, #108]	@ 0x6c
 8006356:	6723      	str	r3, [r4, #112]	@ 0x70
 8006358:	2384      	movs	r3, #132	@ 0x84
 800635a:	2200      	movs	r2, #0
 800635c:	54e2      	strb	r2, [r4, r3]
 800635e:	bc80      	pop	{r7}
 8006360:	46b8      	mov	r8, r7
 8006362:	bdf0      	pop	{r4, r5, r6, r7, pc}
 8006364:	69da      	ldr	r2, [r3, #28]
 8006366:	0292      	lsls	r2, r2, #10
 8006368:	d4ea      	bmi.n	8006340 <UART_CheckIdleState+0x1c>
 800636a:	2680      	movs	r6, #128	@ 0x80
 800636c:	2308      	movs	r3, #8
 800636e:	2704      	movs	r7, #4
 8006370:	4698      	mov	r8, r3
 8006372:	04b6      	lsls	r6, r6, #18
 8006374:	e010      	b.n	8006398 <UART_CheckIdleState+0x74>
 8006376:	6823      	ldr	r3, [r4, #0]
 8006378:	681a      	ldr	r2, [r3, #0]
 800637a:	4217      	tst	r7, r2
 800637c:	d009      	beq.n	8006392 <UART_CheckIdleState+0x6e>
 800637e:	4641      	mov	r1, r8
 8006380:	69da      	ldr	r2, [r3, #28]
 8006382:	4211      	tst	r1, r2
 8006384:	d159      	bne.n	800643a <UART_CheckIdleState+0x116>
 8006386:	2280      	movs	r2, #128	@ 0x80
 8006388:	69d9      	ldr	r1, [r3, #28]
 800638a:	0112      	lsls	r2, r2, #4
 800638c:	4211      	tst	r1, r2
 800638e:	d000      	beq.n	8006392 <UART_CheckIdleState+0x6e>
 8006390:	e085      	b.n	800649e <UART_CheckIdleState+0x17a>
 8006392:	69da      	ldr	r2, [r3, #28]
 8006394:	0292      	lsls	r2, r2, #10
 8006396:	d4d3      	bmi.n	8006340 <UART_CheckIdleState+0x1c>
 8006398:	f7fb ff96 	bl	80022c8 <HAL_GetTick>
 800639c:	1b40      	subs	r0, r0, r5
 800639e:	42b0      	cmp	r0, r6
 80063a0:	d3e9      	bcc.n	8006376 <UART_CheckIdleState+0x52>
 80063a2:	f3ef 8110 	mrs	r1, PRIMASK
 80063a6:	2301      	movs	r3, #1
 80063a8:	f383 8810 	msr	PRIMASK, r3
 80063ac:	2080      	movs	r0, #128	@ 0x80
 80063ae:	6822      	ldr	r2, [r4, #0]
 80063b0:	6813      	ldr	r3, [r2, #0]
 80063b2:	4383      	bics	r3, r0
 80063b4:	6013      	str	r3, [r2, #0]
 80063b6:	f381 8810 	msr	PRIMASK, r1
 80063ba:	2388      	movs	r3, #136	@ 0x88
 80063bc:	2220      	movs	r2, #32
 80063be:	2003      	movs	r0, #3
 80063c0:	50e2      	str	r2, [r4, r3]
 80063c2:	e7c9      	b.n	8006358 <UART_CheckIdleState+0x34>
 80063c4:	69db      	ldr	r3, [r3, #28]
 80063c6:	025b      	lsls	r3, r3, #9
 80063c8:	d4bd      	bmi.n	8006346 <UART_CheckIdleState+0x22>
 80063ca:	2680      	movs	r6, #128	@ 0x80
 80063cc:	2308      	movs	r3, #8
 80063ce:	2704      	movs	r7, #4
 80063d0:	4698      	mov	r8, r3
 80063d2:	04b6      	lsls	r6, r6, #18
 80063d4:	e011      	b.n	80063fa <UART_CheckIdleState+0xd6>
 80063d6:	6823      	ldr	r3, [r4, #0]
 80063d8:	681a      	ldr	r2, [r3, #0]
 80063da:	4217      	tst	r7, r2
 80063dc:	d00a      	beq.n	80063f4 <UART_CheckIdleState+0xd0>
 80063de:	4641      	mov	r1, r8
 80063e0:	69da      	ldr	r2, [r3, #28]
 80063e2:	4211      	tst	r1, r2
 80063e4:	d000      	beq.n	80063e8 <UART_CheckIdleState+0xc4>
 80063e6:	e08b      	b.n	8006500 <UART_CheckIdleState+0x1dc>
 80063e8:	2280      	movs	r2, #128	@ 0x80
 80063ea:	69d9      	ldr	r1, [r3, #28]
 80063ec:	0112      	lsls	r2, r2, #4
 80063ee:	4211      	tst	r1, r2
 80063f0:	d000      	beq.n	80063f4 <UART_CheckIdleState+0xd0>
 80063f2:	e0b7      	b.n	8006564 <UART_CheckIdleState+0x240>
 80063f4:	69db      	ldr	r3, [r3, #28]
 80063f6:	025b      	lsls	r3, r3, #9
 80063f8:	d4a5      	bmi.n	8006346 <UART_CheckIdleState+0x22>
 80063fa:	f7fb ff65 	bl	80022c8 <HAL_GetTick>
 80063fe:	1b40      	subs	r0, r0, r5
 8006400:	42b0      	cmp	r0, r6
 8006402:	d3e8      	bcc.n	80063d6 <UART_CheckIdleState+0xb2>
 8006404:	f3ef 8010 	mrs	r0, PRIMASK
 8006408:	2201      	movs	r2, #1
 800640a:	f382 8810 	msr	PRIMASK, r2
 800640e:	6821      	ldr	r1, [r4, #0]
 8006410:	4d6d      	ldr	r5, [pc, #436]	@ (80065c8 <UART_CheckIdleState+0x2a4>)
 8006412:	680b      	ldr	r3, [r1, #0]
 8006414:	402b      	ands	r3, r5
 8006416:	600b      	str	r3, [r1, #0]
 8006418:	f380 8810 	msr	PRIMASK, r0
 800641c:	f3ef 8010 	mrs	r0, PRIMASK
 8006420:	f382 8810 	msr	PRIMASK, r2
 8006424:	6821      	ldr	r1, [r4, #0]
 8006426:	688b      	ldr	r3, [r1, #8]
 8006428:	4393      	bics	r3, r2
 800642a:	608b      	str	r3, [r1, #8]
 800642c:	f380 8810 	msr	PRIMASK, r0
 8006430:	238c      	movs	r3, #140	@ 0x8c
 8006432:	321f      	adds	r2, #31
 8006434:	2003      	movs	r0, #3
 8006436:	50e2      	str	r2, [r4, r3]
 8006438:	e78e      	b.n	8006358 <UART_CheckIdleState+0x34>
 800643a:	6219      	str	r1, [r3, #32]
 800643c:	f3ef 8010 	mrs	r0, PRIMASK
 8006440:	2201      	movs	r2, #1
 8006442:	f382 8810 	msr	PRIMASK, r2
 8006446:	6821      	ldr	r1, [r4, #0]
 8006448:	4d5f      	ldr	r5, [pc, #380]	@ (80065c8 <UART_CheckIdleState+0x2a4>)
 800644a:	680b      	ldr	r3, [r1, #0]
 800644c:	402b      	ands	r3, r5
 800644e:	600b      	str	r3, [r1, #0]
 8006450:	f380 8810 	msr	PRIMASK, r0
 8006454:	f3ef 8110 	mrs	r1, PRIMASK
 8006458:	f382 8810 	msr	PRIMASK, r2
 800645c:	6822      	ldr	r2, [r4, #0]
 800645e:	485b      	ldr	r0, [pc, #364]	@ (80065cc <UART_CheckIdleState+0x2a8>)
 8006460:	6893      	ldr	r3, [r2, #8]
 8006462:	4003      	ands	r3, r0
 8006464:	6093      	str	r3, [r2, #8]
 8006466:	f381 8810 	msr	PRIMASK, r1
 800646a:	6ee3      	ldr	r3, [r4, #108]	@ 0x6c
 800646c:	2b01      	cmp	r3, #1
 800646e:	d10a      	bne.n	8006486 <UART_CheckIdleState+0x162>
 8006470:	f3ef 8110 	mrs	r1, PRIMASK
 8006474:	f383 8810 	msr	PRIMASK, r3
 8006478:	2010      	movs	r0, #16
 800647a:	6822      	ldr	r2, [r4, #0]
 800647c:	6813      	ldr	r3, [r2, #0]
 800647e:	4383      	bics	r3, r0
 8006480:	6013      	str	r3, [r2, #0]
 8006482:	f381 8810 	msr	PRIMASK, r1
 8006486:	238c      	movs	r3, #140	@ 0x8c
 8006488:	2220      	movs	r2, #32
 800648a:	2108      	movs	r1, #8
 800648c:	50e2      	str	r2, [r4, r3]
 800648e:	2300      	movs	r3, #0
 8006490:	3270      	adds	r2, #112	@ 0x70
 8006492:	66e3      	str	r3, [r4, #108]	@ 0x6c
 8006494:	6763      	str	r3, [r4, #116]	@ 0x74
 8006496:	50a1      	str	r1, [r4, r2]
 8006498:	3a0c      	subs	r2, #12
 800649a:	54a3      	strb	r3, [r4, r2]
 800649c:	e781      	b.n	80063a2 <UART_CheckIdleState+0x7e>
 800649e:	621a      	str	r2, [r3, #32]
 80064a0:	f3ef 8010 	mrs	r0, PRIMASK
 80064a4:	2201      	movs	r2, #1
 80064a6:	f382 8810 	msr	PRIMASK, r2
 80064aa:	6821      	ldr	r1, [r4, #0]
 80064ac:	4d46      	ldr	r5, [pc, #280]	@ (80065c8 <UART_CheckIdleState+0x2a4>)
 80064ae:	680b      	ldr	r3, [r1, #0]
 80064b0:	402b      	ands	r3, r5
 80064b2:	600b      	str	r3, [r1, #0]
 80064b4:	f380 8810 	msr	PRIMASK, r0
 80064b8:	f3ef 8110 	mrs	r1, PRIMASK
 80064bc:	f382 8810 	msr	PRIMASK, r2
 80064c0:	6822      	ldr	r2, [r4, #0]
 80064c2:	4842      	ldr	r0, [pc, #264]	@ (80065cc <UART_CheckIdleState+0x2a8>)
 80064c4:	6893      	ldr	r3, [r2, #8]
 80064c6:	4003      	ands	r3, r0
 80064c8:	6093      	str	r3, [r2, #8]
 80064ca:	f381 8810 	msr	PRIMASK, r1
 80064ce:	6ee3      	ldr	r3, [r4, #108]	@ 0x6c
 80064d0:	2b01      	cmp	r3, #1
 80064d2:	d10a      	bne.n	80064ea <UART_CheckIdleState+0x1c6>
 80064d4:	f3ef 8110 	mrs	r1, PRIMASK
 80064d8:	f383 8810 	msr	PRIMASK, r3
 80064dc:	2010      	movs	r0, #16
 80064de:	6822      	ldr	r2, [r4, #0]
 80064e0:	6813      	ldr	r3, [r2, #0]
 80064e2:	4383      	bics	r3, r0
 80064e4:	6013      	str	r3, [r2, #0]
 80064e6:	f381 8810 	msr	PRIMASK, r1
 80064ea:	2220      	movs	r2, #32
 80064ec:	238c      	movs	r3, #140	@ 0x8c
 80064ee:	2190      	movs	r1, #144	@ 0x90
 80064f0:	50e2      	str	r2, [r4, r3]
 80064f2:	2300      	movs	r3, #0
 80064f4:	66e3      	str	r3, [r4, #108]	@ 0x6c
 80064f6:	6763      	str	r3, [r4, #116]	@ 0x74
 80064f8:	5062      	str	r2, [r4, r1]
 80064fa:	3264      	adds	r2, #100	@ 0x64
 80064fc:	54a3      	strb	r3, [r4, r2]
 80064fe:	e750      	b.n	80063a2 <UART_CheckIdleState+0x7e>
 8006500:	6219      	str	r1, [r3, #32]
 8006502:	f3ef 8010 	mrs	r0, PRIMASK
 8006506:	2201      	movs	r2, #1
 8006508:	f382 8810 	msr	PRIMASK, r2
 800650c:	6821      	ldr	r1, [r4, #0]
 800650e:	4d2e      	ldr	r5, [pc, #184]	@ (80065c8 <UART_CheckIdleState+0x2a4>)
 8006510:	680b      	ldr	r3, [r1, #0]
 8006512:	402b      	ands	r3, r5
 8006514:	600b      	str	r3, [r1, #0]
 8006516:	f380 8810 	msr	PRIMASK, r0
 800651a:	f3ef 8110 	mrs	r1, PRIMASK
 800651e:	f382 8810 	msr	PRIMASK, r2
 8006522:	6822      	ldr	r2, [r4, #0]
 8006524:	4829      	ldr	r0, [pc, #164]	@ (80065cc <UART_CheckIdleState+0x2a8>)
 8006526:	6893      	ldr	r3, [r2, #8]
 8006528:	4003      	ands	r3, r0
 800652a:	6093      	str	r3, [r2, #8]
 800652c:	f381 8810 	msr	PRIMASK, r1
 8006530:	6ee3      	ldr	r3, [r4, #108]	@ 0x6c
 8006532:	2b01      	cmp	r3, #1
 8006534:	d10a      	bne.n	800654c <UART_CheckIdleState+0x228>
 8006536:	f3ef 8110 	mrs	r1, PRIMASK
 800653a:	f383 8810 	msr	PRIMASK, r3
 800653e:	2010      	movs	r0, #16
 8006540:	6822      	ldr	r2, [r4, #0]
 8006542:	6813      	ldr	r3, [r2, #0]
 8006544:	4383      	bics	r3, r0
 8006546:	6013      	str	r3, [r2, #0]
 8006548:	f381 8810 	msr	PRIMASK, r1
 800654c:	238c      	movs	r3, #140	@ 0x8c
 800654e:	2220      	movs	r2, #32
 8006550:	2108      	movs	r1, #8
 8006552:	50e2      	str	r2, [r4, r3]
 8006554:	2300      	movs	r3, #0
 8006556:	3270      	adds	r2, #112	@ 0x70
 8006558:	66e3      	str	r3, [r4, #108]	@ 0x6c
 800655a:	6763      	str	r3, [r4, #116]	@ 0x74
 800655c:	50a1      	str	r1, [r4, r2]
 800655e:	3a0c      	subs	r2, #12
 8006560:	54a3      	strb	r3, [r4, r2]
 8006562:	e74f      	b.n	8006404 <UART_CheckIdleState+0xe0>
 8006564:	621a      	str	r2, [r3, #32]
 8006566:	f3ef 8010 	mrs	r0, PRIMASK
 800656a:	2201      	movs	r2, #1
 800656c:	f382 8810 	msr	PRIMASK, r2
 8006570:	6821      	ldr	r1, [r4, #0]
 8006572:	4d15      	ldr	r5, [pc, #84]	@ (80065c8 <UART_CheckIdleState+0x2a4>)
 8006574:	680b      	ldr	r3, [r1, #0]
 8006576:	402b      	ands	r3, r5
 8006578:	600b      	str	r3, [r1, #0]
 800657a:	f380 8810 	msr	PRIMASK, r0
 800657e:	f3ef 8110 	mrs	r1, PRIMASK
 8006582:	f382 8810 	msr	PRIMASK, r2
 8006586:	6822      	ldr	r2, [r4, #0]
 8006588:	4810      	ldr	r0, [pc, #64]	@ (80065cc <UART_CheckIdleState+0x2a8>)
 800658a:	6893      	ldr	r3, [r2, #8]
 800658c:	4003      	ands	r3, r0
 800658e:	6093      	str	r3, [r2, #8]
 8006590:	f381 8810 	msr	PRIMASK, r1
 8006594:	6ee3      	ldr	r3, [r4, #108]	@ 0x6c
 8006596:	2b01      	cmp	r3, #1
 8006598:	d10a      	bne.n	80065b0 <UART_CheckIdleState+0x28c>
 800659a:	f3ef 8110 	mrs	r1, PRIMASK
 800659e:	f383 8810 	msr	PRIMASK, r3
 80065a2:	2010      	movs	r0, #16
 80065a4:	6822      	ldr	r2, [r4, #0]
 80065a6:	6813      	ldr	r3, [r2, #0]
 80065a8:	4383      	bics	r3, r0
 80065aa:	6013      	str	r3, [r2, #0]
 80065ac:	f381 8810 	msr	PRIMASK, r1
 80065b0:	2220      	movs	r2, #32
 80065b2:	238c      	movs	r3, #140	@ 0x8c
 80065b4:	2190      	movs	r1, #144	@ 0x90
 80065b6:	50e2      	str	r2, [r4, r3]
 80065b8:	2300      	movs	r3, #0
 80065ba:	66e3      	str	r3, [r4, #108]	@ 0x6c
 80065bc:	6763      	str	r3, [r4, #116]	@ 0x74
 80065be:	5062      	str	r2, [r4, r1]
 80065c0:	3264      	adds	r2, #100	@ 0x64
 80065c2:	54a3      	strb	r3, [r4, r2]
 80065c4:	e71e      	b.n	8006404 <UART_CheckIdleState+0xe0>
 80065c6:	46c0      	nop			@ (mov r8, r8)
 80065c8:	fffffedf 	.word	0xfffffedf
 80065cc:	effffffe 	.word	0xeffffffe

080065d0 <HAL_UART_Init>:
 80065d0:	b5f8      	push	{r3, r4, r5, r6, r7, lr}
 80065d2:	1e04      	subs	r4, r0, #0
 80065d4:	d03e      	beq.n	8006654 <HAL_UART_Init+0x84>
 80065d6:	2388      	movs	r3, #136	@ 0x88
 80065d8:	58c3      	ldr	r3, [r0, r3]
 80065da:	2b00      	cmp	r3, #0
 80065dc:	d03c      	beq.n	8006658 <HAL_UART_Init+0x88>
 80065de:	2388      	movs	r3, #136	@ 0x88
 80065e0:	2224      	movs	r2, #36	@ 0x24
 80065e2:	6825      	ldr	r5, [r4, #0]
 80065e4:	50e2      	str	r2, [r4, r3]
 80065e6:	682b      	ldr	r3, [r5, #0]
 80065e8:	3a23      	subs	r2, #35	@ 0x23
 80065ea:	4393      	bics	r3, r2
 80065ec:	602b      	str	r3, [r5, #0]
 80065ee:	6aa3      	ldr	r3, [r4, #40]	@ 0x28
 80065f0:	2b00      	cmp	r3, #0
 80065f2:	d000      	beq.n	80065f6 <HAL_UART_Init+0x26>
 80065f4:	e09b      	b.n	800672e <HAL_UART_Init+0x15e>
 80065f6:	6921      	ldr	r1, [r4, #16]
 80065f8:	68a3      	ldr	r3, [r4, #8]
 80065fa:	682a      	ldr	r2, [r5, #0]
 80065fc:	430b      	orrs	r3, r1
 80065fe:	6961      	ldr	r1, [r4, #20]
 8006600:	69e0      	ldr	r0, [r4, #28]
 8006602:	430b      	orrs	r3, r1
 8006604:	499f      	ldr	r1, [pc, #636]	@ (8006884 <HAL_UART_Init+0x2b4>)
 8006606:	4303      	orrs	r3, r0
 8006608:	400a      	ands	r2, r1
 800660a:	4313      	orrs	r3, r2
 800660c:	602b      	str	r3, [r5, #0]
 800660e:	686b      	ldr	r3, [r5, #4]
 8006610:	4a9d      	ldr	r2, [pc, #628]	@ (8006888 <HAL_UART_Init+0x2b8>)
 8006612:	499e      	ldr	r1, [pc, #632]	@ (800688c <HAL_UART_Init+0x2bc>)
 8006614:	4013      	ands	r3, r2
 8006616:	68e2      	ldr	r2, [r4, #12]
 8006618:	4313      	orrs	r3, r2
 800661a:	606b      	str	r3, [r5, #4]
 800661c:	6a62      	ldr	r2, [r4, #36]	@ 0x24
 800661e:	69a3      	ldr	r3, [r4, #24]
 8006620:	428d      	cmp	r5, r1
 8006622:	d100      	bne.n	8006626 <HAL_UART_Init+0x56>
 8006624:	e091      	b.n	800674a <HAL_UART_Init+0x17a>
 8006626:	6a26      	ldr	r6, [r4, #32]
 8006628:	68a9      	ldr	r1, [r5, #8]
 800662a:	4333      	orrs	r3, r6
 800662c:	4e98      	ldr	r6, [pc, #608]	@ (8006890 <HAL_UART_Init+0x2c0>)
 800662e:	4031      	ands	r1, r6
 8006630:	430b      	orrs	r3, r1
 8006632:	210f      	movs	r1, #15
 8006634:	60ab      	str	r3, [r5, #8]
 8006636:	6aeb      	ldr	r3, [r5, #44]	@ 0x2c
 8006638:	438b      	bics	r3, r1
 800663a:	4313      	orrs	r3, r2
 800663c:	62eb      	str	r3, [r5, #44]	@ 0x2c
 800663e:	4b95      	ldr	r3, [pc, #596]	@ (8006894 <HAL_UART_Init+0x2c4>)
 8006640:	429d      	cmp	r5, r3
 8006642:	d036      	beq.n	80066b2 <HAL_UART_Init+0xe2>
 8006644:	4b94      	ldr	r3, [pc, #592]	@ (8006898 <HAL_UART_Init+0x2c8>)
 8006646:	429d      	cmp	r5, r3
 8006648:	d03f      	beq.n	80066ca <HAL_UART_Init+0xfa>
 800664a:	4b94      	ldr	r3, [pc, #592]	@ (800689c <HAL_UART_Init+0x2cc>)
 800664c:	66a3      	str	r3, [r4, #104]	@ 0x68
 800664e:	2300      	movs	r3, #0
 8006650:	6763      	str	r3, [r4, #116]	@ 0x74
 8006652:	67a3      	str	r3, [r4, #120]	@ 0x78
 8006654:	2001      	movs	r0, #1
 8006656:	bdf8      	pop	{r3, r4, r5, r6, r7, pc}
 8006658:	2284      	movs	r2, #132	@ 0x84
 800665a:	5483      	strb	r3, [r0, r2]
 800665c:	4b90      	ldr	r3, [pc, #576]	@ (80068a0 <HAL_UART_Init+0x2d0>)
 800665e:	3210      	adds	r2, #16
 8006660:	5083      	str	r3, [r0, r2]
 8006662:	4b90      	ldr	r3, [pc, #576]	@ (80068a4 <HAL_UART_Init+0x2d4>)
 8006664:	3204      	adds	r2, #4
 8006666:	5083      	str	r3, [r0, r2]
 8006668:	4b8f      	ldr	r3, [pc, #572]	@ (80068a8 <HAL_UART_Init+0x2d8>)
 800666a:	3204      	adds	r2, #4
 800666c:	5083      	str	r3, [r0, r2]
 800666e:	4b8f      	ldr	r3, [pc, #572]	@ (80068ac <HAL_UART_Init+0x2dc>)
 8006670:	3204      	adds	r2, #4
 8006672:	5083      	str	r3, [r0, r2]
 8006674:	4b8e      	ldr	r3, [pc, #568]	@ (80068b0 <HAL_UART_Init+0x2e0>)
 8006676:	3204      	adds	r2, #4
 8006678:	5083      	str	r3, [r0, r2]
 800667a:	4b8e      	ldr	r3, [pc, #568]	@ (80068b4 <HAL_UART_Init+0x2e4>)
 800667c:	3204      	adds	r2, #4
 800667e:	5083      	str	r3, [r0, r2]
 8006680:	4b8d      	ldr	r3, [pc, #564]	@ (80068b8 <HAL_UART_Init+0x2e8>)
 8006682:	3204      	adds	r2, #4
 8006684:	5083      	str	r3, [r0, r2]
 8006686:	4b8d      	ldr	r3, [pc, #564]	@ (80068bc <HAL_UART_Init+0x2ec>)
 8006688:	3204      	adds	r2, #4
 800668a:	5083      	str	r3, [r0, r2]
 800668c:	4b8c      	ldr	r3, [pc, #560]	@ (80068c0 <HAL_UART_Init+0x2f0>)
 800668e:	3204      	adds	r2, #4
 8006690:	5083      	str	r3, [r0, r2]
 8006692:	4b8c      	ldr	r3, [pc, #560]	@ (80068c4 <HAL_UART_Init+0x2f4>)
 8006694:	3204      	adds	r2, #4
 8006696:	5083      	str	r3, [r0, r2]
 8006698:	4b8b      	ldr	r3, [pc, #556]	@ (80068c8 <HAL_UART_Init+0x2f8>)
 800669a:	3204      	adds	r2, #4
 800669c:	5083      	str	r3, [r0, r2]
 800669e:	4b8b      	ldr	r3, [pc, #556]	@ (80068cc <HAL_UART_Init+0x2fc>)
 80066a0:	3204      	adds	r2, #4
 80066a2:	5083      	str	r3, [r0, r2]
 80066a4:	3204      	adds	r2, #4
 80066a6:	5883      	ldr	r3, [r0, r2]
 80066a8:	2b00      	cmp	r3, #0
 80066aa:	d04b      	beq.n	8006744 <HAL_UART_Init+0x174>
 80066ac:	0020      	movs	r0, r4
 80066ae:	4798      	blx	r3
 80066b0:	e795      	b.n	80065de <HAL_UART_Init+0xe>
 80066b2:	4b87      	ldr	r3, [pc, #540]	@ (80068d0 <HAL_UART_Init+0x300>)
 80066b4:	6d59      	ldr	r1, [r3, #84]	@ 0x54
 80066b6:	2303      	movs	r3, #3
 80066b8:	400b      	ands	r3, r1
 80066ba:	2b02      	cmp	r3, #2
 80066bc:	d03b      	beq.n	8006736 <HAL_UART_Init+0x166>
 80066be:	2b03      	cmp	r3, #3
 80066c0:	d100      	bne.n	80066c4 <HAL_UART_Init+0xf4>
 80066c2:	e0a2      	b.n	800680a <HAL_UART_Init+0x23a>
 80066c4:	2b01      	cmp	r3, #1
 80066c6:	d100      	bne.n	80066ca <HAL_UART_Init+0xfa>
 80066c8:	e0a5      	b.n	8006816 <HAL_UART_Init+0x246>
 80066ca:	2380      	movs	r3, #128	@ 0x80
 80066cc:	021b      	lsls	r3, r3, #8
 80066ce:	4298      	cmp	r0, r3
 80066d0:	d100      	bne.n	80066d4 <HAL_UART_Init+0x104>
 80066d2:	e0d2      	b.n	800687a <HAL_UART_Init+0x2aa>
 80066d4:	f7fd fcb4 	bl	8004040 <HAL_RCC_GetPCLK1Freq>
 80066d8:	2800      	cmp	r0, #0
 80066da:	d100      	bne.n	80066de <HAL_UART_Init+0x10e>
 80066dc:	e08f      	b.n	80067fe <HAL_UART_Init+0x22e>
 80066de:	6a62      	ldr	r2, [r4, #36]	@ 0x24
 80066e0:	4b7c      	ldr	r3, [pc, #496]	@ (80068d4 <HAL_UART_Init+0x304>)
 80066e2:	0052      	lsls	r2, r2, #1
 80066e4:	5ad1      	ldrh	r1, [r2, r3]
 80066e6:	f7f9 fd0d 	bl	8000104 <__udivsi3>
 80066ea:	6865      	ldr	r5, [r4, #4]
 80066ec:	086b      	lsrs	r3, r5, #1
 80066ee:	18c0      	adds	r0, r0, r3
 80066f0:	0029      	movs	r1, r5
 80066f2:	f7f9 fd07 	bl	8000104 <__udivsi3>
 80066f6:	0002      	movs	r2, r0
 80066f8:	4b77      	ldr	r3, [pc, #476]	@ (80068d8 <HAL_UART_Init+0x308>)
 80066fa:	3a10      	subs	r2, #16
 80066fc:	429a      	cmp	r2, r3
 80066fe:	d8a4      	bhi.n	800664a <HAL_UART_Init+0x7a>
 8006700:	6823      	ldr	r3, [r4, #0]
 8006702:	60d8      	str	r0, [r3, #12]
 8006704:	4a65      	ldr	r2, [pc, #404]	@ (800689c <HAL_UART_Init+0x2cc>)
 8006706:	66a2      	str	r2, [r4, #104]	@ 0x68
 8006708:	2200      	movs	r2, #0
 800670a:	6762      	str	r2, [r4, #116]	@ 0x74
 800670c:	67a2      	str	r2, [r4, #120]	@ 0x78
 800670e:	685a      	ldr	r2, [r3, #4]
 8006710:	4972      	ldr	r1, [pc, #456]	@ (80068dc <HAL_UART_Init+0x30c>)
 8006712:	0020      	movs	r0, r4
 8006714:	400a      	ands	r2, r1
 8006716:	212a      	movs	r1, #42	@ 0x2a
 8006718:	605a      	str	r2, [r3, #4]
 800671a:	689a      	ldr	r2, [r3, #8]
 800671c:	438a      	bics	r2, r1
 800671e:	609a      	str	r2, [r3, #8]
 8006720:	681a      	ldr	r2, [r3, #0]
 8006722:	3929      	subs	r1, #41	@ 0x29
 8006724:	430a      	orrs	r2, r1
 8006726:	601a      	str	r2, [r3, #0]
 8006728:	f7ff fdfc 	bl	8006324 <UART_CheckIdleState>
 800672c:	e793      	b.n	8006656 <HAL_UART_Init+0x86>
 800672e:	0020      	movs	r0, r4
 8006730:	f7ff fd90 	bl	8006254 <UART_AdvFeatureConfig>
 8006734:	e75f      	b.n	80065f6 <HAL_UART_Init+0x26>
 8006736:	2380      	movs	r3, #128	@ 0x80
 8006738:	021b      	lsls	r3, r3, #8
 800673a:	4298      	cmp	r0, r3
 800673c:	d100      	bne.n	8006740 <HAL_UART_Init+0x170>
 800673e:	e096      	b.n	800686e <HAL_UART_Init+0x29e>
 8006740:	4867      	ldr	r0, [pc, #412]	@ (80068e0 <HAL_UART_Init+0x310>)
 8006742:	e7cd      	b.n	80066e0 <HAL_UART_Init+0x110>
 8006744:	4b67      	ldr	r3, [pc, #412]	@ (80068e4 <HAL_UART_Init+0x314>)
 8006746:	5083      	str	r3, [r0, r2]
 8006748:	e7b0      	b.n	80066ac <HAL_UART_Init+0xdc>
 800674a:	68a9      	ldr	r1, [r5, #8]
 800674c:	4850      	ldr	r0, [pc, #320]	@ (8006890 <HAL_UART_Init+0x2c0>)
 800674e:	4001      	ands	r1, r0
 8006750:	430b      	orrs	r3, r1
 8006752:	210f      	movs	r1, #15
 8006754:	60ab      	str	r3, [r5, #8]
 8006756:	6aeb      	ldr	r3, [r5, #44]	@ 0x2c
 8006758:	2080      	movs	r0, #128	@ 0x80
 800675a:	438b      	bics	r3, r1
 800675c:	21c0      	movs	r1, #192	@ 0xc0
 800675e:	4313      	orrs	r3, r2
 8006760:	62eb      	str	r3, [r5, #44]	@ 0x2c
 8006762:	4b5b      	ldr	r3, [pc, #364]	@ (80068d0 <HAL_UART_Init+0x300>)
 8006764:	0109      	lsls	r1, r1, #4
 8006766:	6d5b      	ldr	r3, [r3, #84]	@ 0x54
 8006768:	0100      	lsls	r0, r0, #4
 800676a:	400b      	ands	r3, r1
 800676c:	4283      	cmp	r3, r0
 800676e:	d100      	bne.n	8006772 <HAL_UART_Init+0x1a2>
 8006770:	e086      	b.n	8006880 <HAL_UART_Init+0x2b0>
 8006772:	d80d      	bhi.n	8006790 <HAL_UART_Init+0x1c0>
 8006774:	2b00      	cmp	r3, #0
 8006776:	d07c      	beq.n	8006872 <HAL_UART_Init+0x2a2>
 8006778:	2280      	movs	r2, #128	@ 0x80
 800677a:	00d2      	lsls	r2, r2, #3
 800677c:	4293      	cmp	r3, r2
 800677e:	d000      	beq.n	8006782 <HAL_UART_Init+0x1b2>
 8006780:	e763      	b.n	800664a <HAL_UART_Init+0x7a>
 8006782:	f7fd fb47 	bl	8003e14 <HAL_RCC_GetSysClockFreq>
 8006786:	0005      	movs	r5, r0
 8006788:	2d00      	cmp	r5, #0
 800678a:	d06a      	beq.n	8006862 <HAL_UART_Init+0x292>
 800678c:	6a62      	ldr	r2, [r4, #36]	@ 0x24
 800678e:	e004      	b.n	800679a <HAL_UART_Init+0x1ca>
 8006790:	428b      	cmp	r3, r1
 8006792:	d000      	beq.n	8006796 <HAL_UART_Init+0x1c6>
 8006794:	e759      	b.n	800664a <HAL_UART_Init+0x7a>
 8006796:	2580      	movs	r5, #128	@ 0x80
 8006798:	022d      	lsls	r5, r5, #8
 800679a:	4b4e      	ldr	r3, [pc, #312]	@ (80068d4 <HAL_UART_Init+0x304>)
 800679c:	0052      	lsls	r2, r2, #1
 800679e:	5ad6      	ldrh	r6, [r2, r3]
 80067a0:	0028      	movs	r0, r5
 80067a2:	0031      	movs	r1, r6
 80067a4:	f7f9 fcae 	bl	8000104 <__udivsi3>
 80067a8:	6867      	ldr	r7, [r4, #4]
 80067aa:	007b      	lsls	r3, r7, #1
 80067ac:	19db      	adds	r3, r3, r7
 80067ae:	4298      	cmp	r0, r3
 80067b0:	d200      	bcs.n	80067b4 <HAL_UART_Init+0x1e4>
 80067b2:	e74a      	b.n	800664a <HAL_UART_Init+0x7a>
 80067b4:	033b      	lsls	r3, r7, #12
 80067b6:	4298      	cmp	r0, r3
 80067b8:	d900      	bls.n	80067bc <HAL_UART_Init+0x1ec>
 80067ba:	e746      	b.n	800664a <HAL_UART_Init+0x7a>
 80067bc:	0032      	movs	r2, r6
 80067be:	2300      	movs	r3, #0
 80067c0:	0028      	movs	r0, r5
 80067c2:	2100      	movs	r1, #0
 80067c4:	f7f9 fd2a 	bl	800021c <__aeabi_uldivmod>
 80067c8:	2600      	movs	r6, #0
 80067ca:	0e05      	lsrs	r5, r0, #24
 80067cc:	020b      	lsls	r3, r1, #8
 80067ce:	432b      	orrs	r3, r5
 80067d0:	0202      	lsls	r2, r0, #8
 80067d2:	087d      	lsrs	r5, r7, #1
 80067d4:	1952      	adds	r2, r2, r5
 80067d6:	4173      	adcs	r3, r6
 80067d8:	0010      	movs	r0, r2
 80067da:	0019      	movs	r1, r3
 80067dc:	003a      	movs	r2, r7
 80067de:	2300      	movs	r3, #0
 80067e0:	f7f9 fd1c 	bl	800021c <__aeabi_uldivmod>
 80067e4:	4b40      	ldr	r3, [pc, #256]	@ (80068e8 <HAL_UART_Init+0x318>)
 80067e6:	18c2      	adds	r2, r0, r3
 80067e8:	4b40      	ldr	r3, [pc, #256]	@ (80068ec <HAL_UART_Init+0x31c>)
 80067ea:	429a      	cmp	r2, r3
 80067ec:	d900      	bls.n	80067f0 <HAL_UART_Init+0x220>
 80067ee:	e72c      	b.n	800664a <HAL_UART_Init+0x7a>
 80067f0:	6823      	ldr	r3, [r4, #0]
 80067f2:	4a2a      	ldr	r2, [pc, #168]	@ (800689c <HAL_UART_Init+0x2cc>)
 80067f4:	60d8      	str	r0, [r3, #12]
 80067f6:	66a2      	str	r2, [r4, #104]	@ 0x68
 80067f8:	6766      	str	r6, [r4, #116]	@ 0x74
 80067fa:	67a6      	str	r6, [r4, #120]	@ 0x78
 80067fc:	e787      	b.n	800670e <HAL_UART_Init+0x13e>
 80067fe:	4b27      	ldr	r3, [pc, #156]	@ (800689c <HAL_UART_Init+0x2cc>)
 8006800:	6760      	str	r0, [r4, #116]	@ 0x74
 8006802:	66a3      	str	r3, [r4, #104]	@ 0x68
 8006804:	67a0      	str	r0, [r4, #120]	@ 0x78
 8006806:	6823      	ldr	r3, [r4, #0]
 8006808:	e781      	b.n	800670e <HAL_UART_Init+0x13e>
 800680a:	2380      	movs	r3, #128	@ 0x80
 800680c:	021b      	lsls	r3, r3, #8
 800680e:	4298      	cmp	r0, r3
 8006810:	d00a      	beq.n	8006828 <HAL_UART_Init+0x258>
 8006812:	0018      	movs	r0, r3
 8006814:	e764      	b.n	80066e0 <HAL_UART_Init+0x110>
 8006816:	2380      	movs	r3, #128	@ 0x80
 8006818:	021b      	lsls	r3, r3, #8
 800681a:	4298      	cmp	r0, r3
 800681c:	d11e      	bne.n	800685c <HAL_UART_Init+0x28c>
 800681e:	f7fd faf9 	bl	8003e14 <HAL_RCC_GetSysClockFreq>
 8006822:	2800      	cmp	r0, #0
 8006824:	d0eb      	beq.n	80067fe <HAL_UART_Init+0x22e>
 8006826:	6a62      	ldr	r2, [r4, #36]	@ 0x24
 8006828:	4b2a      	ldr	r3, [pc, #168]	@ (80068d4 <HAL_UART_Init+0x304>)
 800682a:	0052      	lsls	r2, r2, #1
 800682c:	5ad1      	ldrh	r1, [r2, r3]
 800682e:	f7f9 fc69 	bl	8000104 <__udivsi3>
 8006832:	6865      	ldr	r5, [r4, #4]
 8006834:	0040      	lsls	r0, r0, #1
 8006836:	086b      	lsrs	r3, r5, #1
 8006838:	18c0      	adds	r0, r0, r3
 800683a:	0029      	movs	r1, r5
 800683c:	f7f9 fc62 	bl	8000104 <__udivsi3>
 8006840:	0002      	movs	r2, r0
 8006842:	4b25      	ldr	r3, [pc, #148]	@ (80068d8 <HAL_UART_Init+0x308>)
 8006844:	3a10      	subs	r2, #16
 8006846:	429a      	cmp	r2, r3
 8006848:	d900      	bls.n	800684c <HAL_UART_Init+0x27c>
 800684a:	e6fe      	b.n	800664a <HAL_UART_Init+0x7a>
 800684c:	4a28      	ldr	r2, [pc, #160]	@ (80068f0 <HAL_UART_Init+0x320>)
 800684e:	6823      	ldr	r3, [r4, #0]
 8006850:	4002      	ands	r2, r0
 8006852:	0700      	lsls	r0, r0, #28
 8006854:	0f40      	lsrs	r0, r0, #29
 8006856:	4302      	orrs	r2, r0
 8006858:	60da      	str	r2, [r3, #12]
 800685a:	e753      	b.n	8006704 <HAL_UART_Init+0x134>
 800685c:	f7fd fada 	bl	8003e14 <HAL_RCC_GetSysClockFreq>
 8006860:	e73a      	b.n	80066d8 <HAL_UART_Init+0x108>
 8006862:	4b0e      	ldr	r3, [pc, #56]	@ (800689c <HAL_UART_Init+0x2cc>)
 8006864:	6765      	str	r5, [r4, #116]	@ 0x74
 8006866:	66a3      	str	r3, [r4, #104]	@ 0x68
 8006868:	67a5      	str	r5, [r4, #120]	@ 0x78
 800686a:	6823      	ldr	r3, [r4, #0]
 800686c:	e74f      	b.n	800670e <HAL_UART_Init+0x13e>
 800686e:	481c      	ldr	r0, [pc, #112]	@ (80068e0 <HAL_UART_Init+0x310>)
 8006870:	e7da      	b.n	8006828 <HAL_UART_Init+0x258>
 8006872:	f7fd fbe5 	bl	8004040 <HAL_RCC_GetPCLK1Freq>
 8006876:	0005      	movs	r5, r0
 8006878:	e786      	b.n	8006788 <HAL_UART_Init+0x1b8>
 800687a:	f7fd fbe1 	bl	8004040 <HAL_RCC_GetPCLK1Freq>
 800687e:	e7d0      	b.n	8006822 <HAL_UART_Init+0x252>
 8006880:	4d17      	ldr	r5, [pc, #92]	@ (80068e0 <HAL_UART_Init+0x310>)
 8006882:	e78a      	b.n	800679a <HAL_UART_Init+0x1ca>
 8006884:	cfff69f3 	.word	0xcfff69f3
 8006888:	ffffcfff 	.word	0xffffcfff
 800688c:	40008000 	.word	0x40008000
 8006890:	11fff4ff 	.word	0x11fff4ff
 8006894:	40013800 	.word	0x40013800
 8006898:	40004400 	.word	0x40004400
 800689c:	00010001 	.word	0x00010001
 80068a0:	08005bf1 	.word	0x08005bf1
 80068a4:	08005bed 	.word	0x08005bed
 80068a8:	08005bf9 	.word	0x08005bf9
 80068ac:	08005bf5 	.word	0x08005bf5
 80068b0:	08005bfd 	.word	0x08005bfd
 80068b4:	08005c01 	.word	0x08005c01
 80068b8:	08005c05 	.word	0x08005c05
 80068bc:	08005be9 	.word	0x08005be9
 80068c0:	080068f5 	.word	0x080068f5
 80068c4:	080068f9 	.word	0x080068f9
 80068c8:	080068fd 	.word	0x080068fd
 80068cc:	08005b09 	.word	0x08005b09
 80068d0:	40021000 	.word	0x40021000
 80068d4:	080074bc 	.word	0x080074bc
 80068d8:	0000ffef 	.word	0x0000ffef
 80068dc:	ffffb7ff 	.word	0xffffb7ff
 80068e0:	00f42400 	.word	0x00f42400
 80068e4:	08001d11 	.word	0x08001d11
 80068e8:	fffffd00 	.word	0xfffffd00
 80068ec:	000ffcff 	.word	0x000ffcff
 80068f0:	0000fff0 	.word	0x0000fff0

080068f4 <HAL_UARTEx_WakeupCallback>:
 80068f4:	4770      	bx	lr
 80068f6:	46c0      	nop			@ (mov r8, r8)

080068f8 <HAL_UARTEx_RxFifoFullCallback>:
 80068f8:	4770      	bx	lr
 80068fa:	46c0      	nop			@ (mov r8, r8)

080068fc <HAL_UARTEx_TxFifoEmptyCallback>:
 80068fc:	4770      	bx	lr
 80068fe:	46c0      	nop			@ (mov r8, r8)

08006900 <memset>:
 8006900:	0003      	movs	r3, r0
 8006902:	1882      	adds	r2, r0, r2
 8006904:	4293      	cmp	r3, r2
 8006906:	d100      	bne.n	800690a <memset+0xa>
 8006908:	4770      	bx	lr
 800690a:	7019      	strb	r1, [r3, #0]
 800690c:	3301      	adds	r3, #1
 800690e:	e7f9      	b.n	8006904 <memset+0x4>

08006910 <__libc_init_array>:
 8006910:	b570      	push	{r4, r5, r6, lr}
 8006912:	2600      	movs	r6, #0
 8006914:	4c0c      	ldr	r4, [pc, #48]	@ (8006948 <__libc_init_array+0x38>)
 8006916:	4d0d      	ldr	r5, [pc, #52]	@ (800694c <__libc_init_array+0x3c>)
 8006918:	1b64      	subs	r4, r4, r5
 800691a:	10a4      	asrs	r4, r4, #2
 800691c:	42a6      	cmp	r6, r4
 800691e:	d109      	bne.n	8006934 <__libc_init_array+0x24>
 8006920:	2600      	movs	r6, #0
 8006922:	f000 f823 	bl	800696c <_init>
 8006926:	4c0a      	ldr	r4, [pc, #40]	@ (8006950 <__libc_init_array+0x40>)
 8006928:	4d0a      	ldr	r5, [pc, #40]	@ (8006954 <__libc_init_array+0x44>)
 800692a:	1b64      	subs	r4, r4, r5
 800692c:	10a4      	asrs	r4, r4, #2
 800692e:	42a6      	cmp	r6, r4
 8006930:	d105      	bne.n	800693e <__libc_init_array+0x2e>
 8006932:	bd70      	pop	{r4, r5, r6, pc}
 8006934:	00b3      	lsls	r3, r6, #2
 8006936:	58eb      	ldr	r3, [r5, r3]
 8006938:	4798      	blx	r3
 800693a:	3601      	adds	r6, #1
 800693c:	e7ee      	b.n	800691c <__libc_init_array+0xc>
 800693e:	00b3      	lsls	r3, r6, #2
 8006940:	58eb      	ldr	r3, [r5, r3]
 8006942:	4798      	blx	r3
 8006944:	3601      	adds	r6, #1
 8006946:	e7f2      	b.n	800692e <__libc_init_array+0x1e>
 8006948:	080074dc 	.word	0x080074dc
 800694c:	080074dc 	.word	0x080074dc
 8006950:	080074e0 	.word	0x080074e0
 8006954:	080074dc 	.word	0x080074dc

08006958 <memcpy>:
 8006958:	2300      	movs	r3, #0
 800695a:	b510      	push	{r4, lr}
 800695c:	429a      	cmp	r2, r3
 800695e:	d100      	bne.n	8006962 <memcpy+0xa>
 8006960:	bd10      	pop	{r4, pc}
 8006962:	5ccc      	ldrb	r4, [r1, r3]
 8006964:	54c4      	strb	r4, [r0, r3]
 8006966:	3301      	adds	r3, #1
 8006968:	e7f8      	b.n	800695c <memcpy+0x4>
	...

0800696c <_init>:
 800696c:	b5f8      	push	{r3, r4, r5, r6, r7, lr}
 800696e:	46c0      	nop			@ (mov r8, r8)
 8006970:	bcf8      	pop	{r3, r4, r5, r6, r7}
 8006972:	bc08      	pop	{r3}
 8006974:	469e      	mov	lr, r3
 8006976:	4770      	bx	lr

08006978 <_fini>:
 8006978:	b5f8      	push	{r3, r4, r5, r6, r7, lr}
 800697a:	46c0      	nop			@ (mov r8, r8)
 800697c:	bcf8      	pop	{r3, r4, r5, r6, r7}
 800697e:	bc08      	pop	{r3}
 8006980:	469e      	mov	lr, r3
 8006982:	4770      	bx	lr
