
g031k8.elf:     file format elf32-littlearm

Sections:
Idx Name          Size      VMA       LMA       File off  Algn
  0 .isr_vector   000000bc  08000000  08000000  00001000  2**0
                  CONTENTS, ALLOC, LOAD, READONLY, DATA
  1 .text         00007db8  080000bc  080000bc  000010bc  2**2
                  CONTENTS, ALLOC, LOAD, READONLY, CODE
  2 .rodata       00000b50  08007e74  08007e74  00008e74  2**2
                  CONTENTS, ALLOC, LOAD, READONLY, DATA
  3 .ARM.extab    00000000  080089c4  080089c4  0000a44c  2**0
                  CONTENTS, READONLY
  4 .ARM          00000008  080089c4  080089c4  000099c4  2**2
                  CONTENTS, ALLOC, LOAD, READONLY, DATA
  5 .preinit_array 00000000  080089cc  080089cc  0000a44c  2**0
                  CONTENTS, ALLOC, LOAD, DATA
  6 .init_array   00000004  080089cc  080089cc  000099cc  2**2
                  CONTENTS, ALLOC, LOAD, READONLY, DATA
  7 .fini_array   00000004  080089d0  080089d0  000099d0  2**2
                  CONTENTS, ALLOC, LOAD, READONLY, DATA
  8 .data         0000044c  20000000  080089d4  0000a000  2**2
                  CONTENTS, ALLOC, LOAD, DATA
  9 .bss          00000884  20000450  08008e20  0000a450  2**3
                  ALLOC
 10 ._user_heap_stack 00000604  20000cd4  08008e20  0000acd4  2**0
                  ALLOC
 11 .ARM.attributes 00000028  00000000  00000000  0000a44c  2**0
                  CONTENTS, READONLY
 12 .debug_info   0002c166  00000000  00000000  0000a474  2**0
                  CONTENTS, READONLY, DEBUGGING, OCTETS
 13 .debug_abbrev 000056b2  00000000  00000000  000365da  2**0
                  CONTENTS, READONLY, DEBUGGING, OCTETS
 14 .debug_loclists 0001250c  00000000  00000000  0003bc8c  2**0
                  CONTENTS, READONLY, DEBUGGING, OCTETS
 15 .debug_aranges 00001560  00000000  00000000  0004e198  2**3
                  CONTENTS, READONLY, DEBUGGING, OCTETS
 16 .debug_rnglists 000020a9  00000000  00000000  0004f6f8  2**0
                  CONTENTS, READONLY, DEBUGGING, OCTETS
 17 .debug_macro  0001a62b  00000000  00000000  000517a1  2**0
                  CONTENTS, READONLY, DEBUGGING, OCTETS
 18 .debug_line   0002d195  00000000  00000000  0006bdcc  2**0
                  CONTENTS, READONLY, DEBUGGING, OCTETS
 19 .debug_str    000a11af  00000000  00000000  00098f61  2**0
                  CONTENTS, READONLY, DEBUGGING, OCTETS
 20 .comment      00000043  00000000  00000000  0013a110  2**0
                  CONTENTS, READONLY
 21 .debug_frame  00003834  00000000  00000000  0013a154  2**2
                  CONTENTS, READONLY, DEBUGGING, OCTETS
 22 .debug_line_str 00000054  00000000  00000000  0013d988  2**0
                  CONTENTS, READONLY, DEBUGGING, OCTETS

Disassembly of section .text:

080000bc <__do_global_dtors_aux>:
 80000bc:	b510      	push	{r4, lr}
 80000be:	4c06      	ldr	r4, [pc, #24]	@ (80000d8 <__do_global_dtors_aux+0x1c>)
 80000c0:	7823      	ldrb	r3, [r4, #0]
 80000c2:	2b00      	cmp	r3, #0
 80000c4:	d107      	bne.n	80000d6 <__do_global_dtors_aux+0x1a>
 80000c6:	4b05      	ldr	r3, [pc, #20]	@ (80000dc <__do_global_dtors_aux+0x20>)
 80000c8:	2b00      	cmp	r3, #0
 80000ca:	d002      	beq.n	80000d2 <__do_global_dtors_aux+0x16>
 80000cc:	4804      	ldr	r0, [pc, #16]	@ (80000e0 <__do_global_dtors_aux+0x24>)
 80000ce:	e000      	b.n	80000d2 <__do_global_dtors_aux+0x16>
 80000d0:	bf00      	nop
 80000d2:	2301      	movs	r3, #1
 80000d4:	7023      	strb	r3, [r4, #0]
 80000d6:	bd10      	pop	{r4, pc}
 80000d8:	20000450 	.word	0x20000450
 80000dc:	00000000 	.word	0x00000000
 80000e0:	08007e5c 	.word	0x08007e5c

080000e4 <frame_dummy>:
 80000e4:	4b04      	ldr	r3, [pc, #16]	@ (80000f8 <frame_dummy+0x14>)
 80000e6:	b510      	push	{r4, lr}
 80000e8:	2b00      	cmp	r3, #0
 80000ea:	d003      	beq.n	80000f4 <frame_dummy+0x10>
 80000ec:	4903      	ldr	r1, [pc, #12]	@ (80000fc <frame_dummy+0x18>)
 80000ee:	4804      	ldr	r0, [pc, #16]	@ (8000100 <frame_dummy+0x1c>)
 80000f0:	e000      	b.n	80000f4 <frame_dummy+0x10>
 80000f2:	bf00      	nop
 80000f4:	bd10      	pop	{r4, pc}
 80000f6:	46c0      	nop			@ (mov r8, r8)
 80000f8:	00000000 	.word	0x00000000
 80000fc:	20000454 	.word	0x20000454
 8000100:	08007e5c 	.word	0x08007e5c

08000104 <__udivsi3>:
 8000104:	2200      	movs	r2, #0
 8000106:	0843      	lsrs	r3, r0, #1
 8000108:	428b      	cmp	r3, r1
 800010a:	d374      	bcc.n	80001f6 <__udivsi3+0xf2>
 800010c:	0903      	lsrs	r3, r0, #4
 800010e:	428b      	cmp	r3, r1
 8000110:	d35f      	bcc.n	80001d2 <__udivsi3+0xce>
 8000112:	0a03      	lsrs	r3, r0, #8
 8000114:	428b      	cmp	r3, r1
 8000116:	d344      	bcc.n	80001a2 <__udivsi3+0x9e>
 8000118:	0b03      	lsrs	r3, r0, #12
 800011a:	428b      	cmp	r3, r1
 800011c:	d328      	bcc.n	8000170 <__udivsi3+0x6c>
 800011e:	0c03      	lsrs	r3, r0, #16
 8000120:	428b      	cmp	r3, r1
 8000122:	d30d      	bcc.n	8000140 <__udivsi3+0x3c>
 8000124:	22ff      	movs	r2, #255	@ 0xff
 8000126:	0209      	lsls	r1, r1, #8
 8000128:	ba12      	rev	r2, r2
 800012a:	0c03      	lsrs	r3, r0, #16
 800012c:	428b      	cmp	r3, r1
 800012e:	d302      	bcc.n	8000136 <__udivsi3+0x32>
 8000130:	1212      	asrs	r2, r2, #8
 8000132:	0209      	lsls	r1, r1, #8
 8000134:	d065      	beq.n	8000202 <__udivsi3+0xfe>
 8000136:	0b03      	lsrs	r3, r0, #12
 8000138:	428b      	cmp	r3, r1
 800013a:	d319      	bcc.n	8000170 <__udivsi3+0x6c>
 800013c:	e000      	b.n	8000140 <__udivsi3+0x3c>
 800013e:	0a09      	lsrs	r1, r1, #8
 8000140:	0bc3      	lsrs	r3, r0, #15
 8000142:	428b      	cmp	r3, r1
 8000144:	d301      	bcc.n	800014a <__udivsi3+0x46>
 8000146:	03cb      	lsls	r3, r1, #15
 8000148:	1ac0      	subs	r0, r0, r3
 800014a:	4152      	adcs	r2, r2
 800014c:	0b83      	lsrs	r3, r0, #14
 800014e:	428b      	cmp	r3, r1
 8000150:	d301      	bcc.n	8000156 <__udivsi3+0x52>
 8000152:	038b      	lsls	r3, r1, #14
 8000154:	1ac0      	subs	r0, r0, r3
 8000156:	4152      	adcs	r2, r2
 8000158:	0b43      	lsrs	r3, r0, #13
 800015a:	428b      	cmp	r3, r1
 800015c:	d301      	bcc.n	8000162 <__udivsi3+0x5e>
 800015e:	034b      	lsls	r3, r1, #13
 8000160:	1ac0      	subs	r0, r0, r3
 8000162:	4152      	adcs	r2, r2
 8000164:	0b03      	lsrs	r3, r0, #12
 8000166:	428b      	cmp	r3, r1
 8000168:	d301      	bcc.n	800016e <__udivsi3+0x6a>
 800016a:	030b      	lsls	r3, r1, #12
 800016c:	1ac0      	subs	r0, r0, r3
 800016e:	4152      	adcs	r2, r2
 8000170:	0ac3      	lsrs	r3, r0, #11
 8000172:	428b      	cmp	r3, r1
 8000174:	d301      	bcc.n	800017a <__udivsi3+0x76>
 8000176:	02cb      	lsls	r3, r1, #11
 8000178:	1ac0      	subs	r0, r0, r3
 800017a:	4152      	adcs	r2, r2
 800017c:	0a83      	lsrs	r3, r0, #10
 800017e:	428b      	cmp	r3, r1
 8000180:	d301      	bcc.n	8000186 <__udivsi3+0x82>
 8000182:	028b      	lsls	r3, r1, #10
 8000184:	1ac0      	subs	r0, r0, r3
 8000186:	4152      	adcs	r2, r2
 8000188:	0a43      	lsrs	r3, r0, #9
 800018a:	428b      	cmp	r3, r1
 800018c:	d301      	bcc.n	8000192 <__udivsi3+0x8e>
 800018e:	024b      	lsls	r3, r1, #9
 8000190:	1ac0      	subs	r0, r0, r3
 8000192:	4152      	adcs	r2, r2
 8000194:	0a03      	lsrs	r3, r0, #8
 8000196:	428b      	cmp	r3, r1
 8000198:	d301      	bcc.n	800019e <__udivsi3+0x9a>
 800019a:	020b      	lsls	r3, r1, #8
 800019c:	1ac0      	subs	r0, r0, r3
 800019e:	4152      	adcs	r2, r2
 80001a0:	d2cd      	bcs.n	800013e <__udivsi3+0x3a>
 80001a2:	09c3      	lsrs	r3, r0, #7
 80001a4:	428b      	cmp	r3, r1
 80001a6:	d301      	bcc.n	80001ac <__udivsi3+0xa8>
 80001a8:	01cb      	lsls	r3, r1, #7
 80001aa:	1ac0      	subs	r0, r0, r3
 80001ac:	4152      	adcs	r2, r2
 80001ae:	0983      	lsrs	r3, r0, #6
 80001b0:	428b      	cmp	r3, r1
 80001b2:	d301      	bcc.n	80001b8 <__udivsi3+0xb4>
 80001b4:	018b      	lsls	r3, r1, #6
 80001b6:	1ac0      	subs	r0, r0, r3
 80001b8:	4152      	adcs	r2, r2
 80001ba:	0943      	lsrs	r3, r0, #5
 80001bc:	428b      	cmp	r3, r1
 80001be:	d301      	bcc.n	80001c4 <__udivsi3+0xc0>
 80001c0:	014b      	lsls	r3, r1, #5
 80001c2:	1ac0      	subs	r0, r0, r3
 80001c4:	4152      	adcs	r2, r2
 80001c6:	0903      	lsrs	r3, r0, #4
 80001c8:	428b      	cmp	r3, r1
 80001ca:	d301      	bcc.n	80001d0 <__udivsi3+0xcc>
 80001cc:	010b      	lsls	r3, r1, #4
 80001ce:	1ac0      	subs	r0, r0, r3
 80001d0:	4152      	adcs	r2, r2
 80001d2:	08c3      	lsrs	r3, r0, #3
 80001d4:	428b      	cmp	r3, r1
 80001d6:	d301      	bcc.n	80001dc <__udivsi3+0xd8>
 80001d8:	00cb      	lsls	r3, r1, #3
 80001da:	1ac0      	subs	r0, r0, r3
 80001dc:	4152      	adcs	r2, r2
 80001de:	0883      	lsrs	r3, r0, #2
 80001e0:	428b      	cmp	r3, r1
 80001e2:	d301      	bcc.n	80001e8 <__udivsi3+0xe4>
 80001e4:	008b      	lsls	r3, r1, #2
 80001e6:	1ac0      	subs	r0, r0, r3
 80001e8:	4152      	adcs	r2, r2
 80001ea:	0843      	lsrs	r3, r0, #1
 80001ec:	428b      	cmp	r3, r1
 80001ee:	d301      	bcc.n	80001f4 <__udivsi3+0xf0>
 80001f0:	004b      	lsls	r3, r1, #1
 80001f2:	1ac0      	subs	r0, r0, r3
 80001f4:	4152      	adcs	r2, r2
 80001f6:	1a41      	subs	r1, r0, r1
 80001f8:	d200      	bcs.n	80001fc <__udivsi3+0xf8>
 80001fa:	4601      	mov	r1, r0
 80001fc:	4152      	adcs	r2, r2
 80001fe:	4610      	mov	r0, r2
 8000200:	4770      	bx	lr
 8000202:	e7ff      	b.n	8000204 <__udivsi3+0x100>
 8000204:	b501      	push	{r0, lr}
 8000206:	2000      	movs	r0, #0
 8000208:	f000 f806 	bl	8000218 <__aeabi_idiv0>
 800020c:	bd02      	pop	{r1, pc}
 800020e:	46c0      	nop			@ (mov r8, r8)

08000210 <__aeabi_uidivmod>:
 8000210:	2900      	cmp	r1, #0
 8000212:	d0f7      	beq.n	8000204 <__udivsi3+0x100>
 8000214:	e776      	b.n	8000104 <__udivsi3>
 8000216:	4770      	bx	lr

08000218 <__aeabi_idiv0>:
 8000218:	4770      	bx	lr
 800021a:	46c0      	nop			@ (mov r8, r8)

0800021c <__aeabi_uldivmod>:
 800021c:	2b00      	cmp	r3, #0
 800021e:	d111      	bne.n	8000244 <__aeabi_uldivmod+0x28>
 8000220:	2a00      	cmp	r2, #0
 8000222:	d10f      	bne.n	8000244 <__aeabi_uldivmod+0x28>
 8000224:	2900      	cmp	r1, #0
 8000226:	d100      	bne.n	800022a <__aeabi_uldivmod+0xe>
 8000228:	2800      	cmp	r0, #0
 800022a:	d002      	beq.n	8000232 <__aeabi_uldivmod+0x16>
 800022c:	2100      	movs	r1, #0
 800022e:	43c9      	mvns	r1, r1
 8000230:	0008      	movs	r0, r1
 8000232:	b407      	push	{r0, r1, r2}
 8000234:	4802      	ldr	r0, [pc, #8]	@ (8000240 <__aeabi_uldivmod+0x24>)
 8000236:	a102      	add	r1, pc, #8	@ (adr r1, 8000240 <__aeabi_uldivmod+0x24>)
 8000238:	1840      	adds	r0, r0, r1
 800023a:	9002      	str	r0, [sp, #8]
 800023c:	bd03      	pop	{r0, r1, pc}
 800023e:	46c0      	nop			@ (mov r8, r8)
 8000240:	ffffffd9 	.word	0xffffffd9
 8000244:	b403      	push	{r0, r1}
 8000246:	4668      	mov	r0, sp
 8000248:	b501      	push	{r0, lr}
 800024a:	9802      	ldr	r0, [sp, #8]
 800024c:	f000 f806 	bl	800025c <__udivmoddi4>
 8000250:	9b01      	ldr	r3, [sp, #4]
 8000252:	469e      	mov	lr, r3
 8000254:	b002      	add	sp, #8
 8000256:	bc0c      	pop	{r2, r3}
 8000258:	4770      	bx	lr
 800025a:	46c0      	nop			@ (mov r8, r8)

0800025c <__udivmoddi4>:
 800025c:	b5f0      	push	{r4, r5, r6, r7, lr}
 800025e:	4657      	mov	r7, sl
 8000260:	464e      	mov	r6, r9
 8000262:	4645      	mov	r5, r8
 8000264:	46de      	mov	lr, fp
 8000266:	b5e0      	push	{r5, r6, r7, lr}
 8000268:	0004      	movs	r4, r0
 800026a:	000d      	movs	r5, r1
 800026c:	4692      	mov	sl, r2
 800026e:	4699      	mov	r9, r3
 8000270:	b083      	sub	sp, #12
 8000272:	428b      	cmp	r3, r1
 8000274:	d830      	bhi.n	80002d8 <__udivmoddi4+0x7c>
 8000276:	d02d      	beq.n	80002d4 <__udivmoddi4+0x78>
 8000278:	4649      	mov	r1, r9
 800027a:	4650      	mov	r0, sl
 800027c:	f000 f8ba 	bl	80003f4 <__clzdi2>
 8000280:	0029      	movs	r1, r5
 8000282:	0006      	movs	r6, r0
 8000284:	0020      	movs	r0, r4
 8000286:	f000 f8b5 	bl	80003f4 <__clzdi2>
 800028a:	1a33      	subs	r3, r6, r0
 800028c:	4698      	mov	r8, r3
 800028e:	3b20      	subs	r3, #32
 8000290:	d434      	bmi.n	80002fc <__udivmoddi4+0xa0>
 8000292:	469b      	mov	fp, r3
 8000294:	4653      	mov	r3, sl
 8000296:	465a      	mov	r2, fp
 8000298:	4093      	lsls	r3, r2
 800029a:	4642      	mov	r2, r8
 800029c:	001f      	movs	r7, r3
 800029e:	4653      	mov	r3, sl
 80002a0:	4093      	lsls	r3, r2
 80002a2:	001e      	movs	r6, r3
 80002a4:	42af      	cmp	r7, r5
 80002a6:	d83b      	bhi.n	8000320 <__udivmoddi4+0xc4>
 80002a8:	42af      	cmp	r7, r5
 80002aa:	d100      	bne.n	80002ae <__udivmoddi4+0x52>
 80002ac:	e079      	b.n	80003a2 <__udivmoddi4+0x146>
 80002ae:	465b      	mov	r3, fp
 80002b0:	1ba4      	subs	r4, r4, r6
 80002b2:	41bd      	sbcs	r5, r7
 80002b4:	2b00      	cmp	r3, #0
 80002b6:	da00      	bge.n	80002ba <__udivmoddi4+0x5e>
 80002b8:	e076      	b.n	80003a8 <__udivmoddi4+0x14c>
 80002ba:	2200      	movs	r2, #0
 80002bc:	2300      	movs	r3, #0
 80002be:	9200      	str	r2, [sp, #0]
 80002c0:	9301      	str	r3, [sp, #4]
 80002c2:	2301      	movs	r3, #1
 80002c4:	465a      	mov	r2, fp
 80002c6:	4093      	lsls	r3, r2
 80002c8:	9301      	str	r3, [sp, #4]
 80002ca:	2301      	movs	r3, #1
 80002cc:	4642      	mov	r2, r8
 80002ce:	4093      	lsls	r3, r2
 80002d0:	9300      	str	r3, [sp, #0]
 80002d2:	e029      	b.n	8000328 <__udivmoddi4+0xcc>
 80002d4:	4282      	cmp	r2, r0
 80002d6:	d9cf      	bls.n	8000278 <__udivmoddi4+0x1c>
 80002d8:	2200      	movs	r2, #0
 80002da:	2300      	movs	r3, #0
 80002dc:	9200      	str	r2, [sp, #0]
 80002de:	9301      	str	r3, [sp, #4]
 80002e0:	9b0c      	ldr	r3, [sp, #48]	@ 0x30
 80002e2:	2b00      	cmp	r3, #0
 80002e4:	d001      	beq.n	80002ea <__udivmoddi4+0x8e>
 80002e6:	601c      	str	r4, [r3, #0]
 80002e8:	605d      	str	r5, [r3, #4]
 80002ea:	9800      	ldr	r0, [sp, #0]
 80002ec:	9901      	ldr	r1, [sp, #4]
 80002ee:	b003      	add	sp, #12
 80002f0:	bcf0      	pop	{r4, r5, r6, r7}
 80002f2:	46bb      	mov	fp, r7
 80002f4:	46b2      	mov	sl, r6
 80002f6:	46a9      	mov	r9, r5
 80002f8:	46a0      	mov	r8, r4
 80002fa:	bdf0      	pop	{r4, r5, r6, r7, pc}
 80002fc:	4642      	mov	r2, r8
 80002fe:	469b      	mov	fp, r3
 8000300:	2320      	movs	r3, #32
 8000302:	1a9b      	subs	r3, r3, r2
 8000304:	4652      	mov	r2, sl
 8000306:	40da      	lsrs	r2, r3
 8000308:	4641      	mov	r1, r8
 800030a:	0013      	movs	r3, r2
 800030c:	464a      	mov	r2, r9
 800030e:	408a      	lsls	r2, r1
 8000310:	0017      	movs	r7, r2
 8000312:	4642      	mov	r2, r8
 8000314:	431f      	orrs	r7, r3
 8000316:	4653      	mov	r3, sl
 8000318:	4093      	lsls	r3, r2
 800031a:	001e      	movs	r6, r3
 800031c:	42af      	cmp	r7, r5
 800031e:	d9c3      	bls.n	80002a8 <__udivmoddi4+0x4c>
 8000320:	2200      	movs	r2, #0
 8000322:	2300      	movs	r3, #0
 8000324:	9200      	str	r2, [sp, #0]
 8000326:	9301      	str	r3, [sp, #4]
 8000328:	4643      	mov	r3, r8
 800032a:	2b00      	cmp	r3, #0
 800032c:	d0d8      	beq.n	80002e0 <__udivmoddi4+0x84>
 800032e:	07fb      	lsls	r3, r7, #31
 8000330:	0872      	lsrs	r2, r6, #1
 8000332:	431a      	orrs	r2, r3
 8000334:	4646      	mov	r6, r8
 8000336:	087b      	lsrs	r3, r7, #1
 8000338:	e00e      	b.n	8000358 <__udivmoddi4+0xfc>
 800033a:	42ab      	cmp	r3, r5
 800033c:	d101      	bne.n	8000342 <__udivmoddi4+0xe6>
 800033e:	42a2      	cmp	r2, r4
 8000340:	d80c      	bhi.n	800035c <__udivmoddi4+0x100>
 8000342:	1aa4      	subs	r4, r4, r2
 8000344:	419d      	sbcs	r5, r3
 8000346:	2001      	movs	r0, #1
 8000348:	1924      	adds	r4, r4, r4
 800034a:	416d      	adcs	r5, r5
 800034c:	2100      	movs	r1, #0
 800034e:	3e01      	subs	r6, #1
 8000350:	1824      	adds	r4, r4, r0
 8000352:	414d      	adcs	r5, r1
 8000354:	2e00      	cmp	r6, #0
 8000356:	d006      	beq.n	8000366 <__udivmoddi4+0x10a>
 8000358:	42ab      	cmp	r3, r5
 800035a:	d9ee      	bls.n	800033a <__udivmoddi4+0xde>
 800035c:	3e01      	subs	r6, #1
 800035e:	1924      	adds	r4, r4, r4
 8000360:	416d      	adcs	r5, r5
 8000362:	2e00      	cmp	r6, #0
 8000364:	d1f8      	bne.n	8000358 <__udivmoddi4+0xfc>
 8000366:	9800      	ldr	r0, [sp, #0]
 8000368:	9901      	ldr	r1, [sp, #4]
 800036a:	465b      	mov	r3, fp
 800036c:	1900      	adds	r0, r0, r4
 800036e:	4169      	adcs	r1, r5
 8000370:	2b00      	cmp	r3, #0
 8000372:	db24      	blt.n	80003be <__udivmoddi4+0x162>
 8000374:	002b      	movs	r3, r5
 8000376:	465a      	mov	r2, fp
 8000378:	4644      	mov	r4, r8
 800037a:	40d3      	lsrs	r3, r2
 800037c:	002a      	movs	r2, r5
 800037e:	40e2      	lsrs	r2, r4
 8000380:	001c      	movs	r4, r3
 8000382:	465b      	mov	r3, fp
 8000384:	0015      	movs	r5, r2
 8000386:	2b00      	cmp	r3, #0
 8000388:	db2a      	blt.n	80003e0 <__udivmoddi4+0x184>
 800038a:	0026      	movs	r6, r4
 800038c:	409e      	lsls	r6, r3
 800038e:	0033      	movs	r3, r6
 8000390:	0026      	movs	r6, r4
 8000392:	4647      	mov	r7, r8
 8000394:	40be      	lsls	r6, r7
 8000396:	0032      	movs	r2, r6
 8000398:	1a80      	subs	r0, r0, r2
 800039a:	4199      	sbcs	r1, r3
 800039c:	9000      	str	r0, [sp, #0]
 800039e:	9101      	str	r1, [sp, #4]
 80003a0:	e79e      	b.n	80002e0 <__udivmoddi4+0x84>
 80003a2:	42a3      	cmp	r3, r4
 80003a4:	d8bc      	bhi.n	8000320 <__udivmoddi4+0xc4>
 80003a6:	e782      	b.n	80002ae <__udivmoddi4+0x52>
 80003a8:	4642      	mov	r2, r8
 80003aa:	2320      	movs	r3, #32
 80003ac:	2100      	movs	r1, #0
 80003ae:	1a9b      	subs	r3, r3, r2
 80003b0:	2200      	movs	r2, #0
 80003b2:	9100      	str	r1, [sp, #0]
 80003b4:	9201      	str	r2, [sp, #4]
 80003b6:	2201      	movs	r2, #1
 80003b8:	40da      	lsrs	r2, r3
 80003ba:	9201      	str	r2, [sp, #4]
 80003bc:	e785      	b.n	80002ca <__udivmoddi4+0x6e>
 80003be:	4642      	mov	r2, r8
 80003c0:	2320      	movs	r3, #32
 80003c2:	1a9b      	subs	r3, r3, r2
 80003c4:	002a      	movs	r2, r5
 80003c6:	4646      	mov	r6, r8
 80003c8:	409a      	lsls	r2, r3
 80003ca:	0023      	movs	r3, r4
 80003cc:	40f3      	lsrs	r3, r6
 80003ce:	4644      	mov	r4, r8
 80003d0:	4313      	orrs	r3, r2
 80003d2:	002a      	movs	r2, r5
 80003d4:	40e2      	lsrs	r2, r4
 80003d6:	001c      	movs	r4, r3
 80003d8:	465b      	mov	r3, fp
 80003da:	0015      	movs	r5, r2
 80003dc:	2b00      	cmp	r3, #0
 80003de:	dad4      	bge.n	800038a <__udivmoddi4+0x12e>
 80003e0:	4642      	mov	r2, r8
 80003e2:	002f      	movs	r7, r5
 80003e4:	2320      	movs	r3, #32
 80003e6:	0026      	movs	r6, r4
 80003e8:	4097      	lsls	r7, r2
 80003ea:	1a9b      	subs	r3, r3, r2
 80003ec:	40de      	lsrs	r6, r3
 80003ee:	003b      	movs	r3, r7
 80003f0:	4333      	orrs	r3, r6
 80003f2:	e7cd      	b.n	8000390 <__udivmoddi4+0x134>

080003f4 <__clzdi2>:
 80003f4:	b510      	push	{r4, lr}
 80003f6:	2900      	cmp	r1, #0
 80003f8:	d103      	bne.n	8000402 <__clzdi2+0xe>
 80003fa:	f000 f807 	bl	800040c <__clzsi2>
 80003fe:	3020      	adds	r0, #32
 8000400:	e002      	b.n	8000408 <__clzdi2+0x14>
 8000402:	0008      	movs	r0, r1
 8000404:	f000 f802 	bl	800040c <__clzsi2>
 8000408:	bd10      	pop	{r4, pc}
 800040a:	46c0      	nop			@ (mov r8, r8)

0800040c <__clzsi2>:
 800040c:	211c      	movs	r1, #28
 800040e:	2301      	movs	r3, #1
 8000410:	041b      	lsls	r3, r3, #16
 8000412:	4298      	cmp	r0, r3
 8000414:	d301      	bcc.n	800041a <__clzsi2+0xe>
 8000416:	0c00      	lsrs	r0, r0, #16
 8000418:	3910      	subs	r1, #16
 800041a:	0a1b      	lsrs	r3, r3, #8
 800041c:	4298      	cmp	r0, r3
 800041e:	d301      	bcc.n	8000424 <__clzsi2+0x18>
 8000420:	0a00      	lsrs	r0, r0, #8
 8000422:	3908      	subs	r1, #8
 8000424:	091b      	lsrs	r3, r3, #4
 8000426:	4298      	cmp	r0, r3
 8000428:	d301      	bcc.n	800042e <__clzsi2+0x22>
 800042a:	0900      	lsrs	r0, r0, #4
 800042c:	3904      	subs	r1, #4
 800042e:	a202      	add	r2, pc, #8	@ (adr r2, 8000438 <__clzsi2+0x2c>)
 8000430:	5c10      	ldrb	r0, [r2, r0]
 8000432:	1840      	adds	r0, r0, r1
 8000434:	4770      	bx	lr
 8000436:	46c0      	nop			@ (mov r8, r8)
 8000438:	02020304 	.word	0x02020304
 800043c:	01010101 	.word	0x01010101
	...

08000448 <Initialise_Preset_Arrays>:
 8000448:	4a09      	ldr	r2, [pc, #36]	@ (8000470 <Initialise_Preset_Arrays+0x28>)
 800044a:	4b0a      	ldr	r3, [pc, #40]	@ (8000474 <Initialise_Preset_Arrays+0x2c>)
 800044c:	490a      	ldr	r1, [pc, #40]	@ (8000478 <Initialise_Preset_Arrays+0x30>)
 800044e:	6013      	str	r3, [r2, #0]
 8000450:	4b0a      	ldr	r3, [pc, #40]	@ (800047c <Initialise_Preset_Arrays+0x34>)
 8000452:	2001      	movs	r0, #1
 8000454:	6019      	str	r1, [r3, #0]
 8000456:	490a      	ldr	r1, [pc, #40]	@ (8000480 <Initialise_Preset_Arrays+0x38>)
 8000458:	6051      	str	r1, [r2, #4]
 800045a:	490a      	ldr	r1, [pc, #40]	@ (8000484 <Initialise_Preset_Arrays+0x3c>)
 800045c:	6059      	str	r1, [r3, #4]
 800045e:	490a      	ldr	r1, [pc, #40]	@ (8000488 <Initialise_Preset_Arrays+0x40>)
 8000460:	6091      	str	r1, [r2, #8]
 8000462:	490a      	ldr	r1, [pc, #40]	@ (800048c <Initialise_Preset_Arrays+0x44>)
 8000464:	6099      	str	r1, [r3, #8]
 8000466:	490a      	ldr	r1, [pc, #40]	@ (8000490 <Initialise_Preset_Arrays+0x48>)
 8000468:	60d1      	str	r1, [r2, #12]
 800046a:	4a0a      	ldr	r2, [pc, #40]	@ (8000494 <Initialise_Preset_Arrays+0x4c>)
 800046c:	60da      	str	r2, [r3, #12]
 800046e:	4770      	bx	lr
 8000470:	200004b4 	.word	0x200004b4
 8000474:	08007e8c 	.word	0x08007e8c
 8000478:	20000018 	.word	0x20000018
 800047c:	200004a4 	.word	0x200004a4
 8000480:	08007e84 	.word	0x08007e84
 8000484:	20000010 	.word	0x20000010
 8000488:	08007e7c 	.word	0x08007e7c
 800048c:	20000008 	.word	0x20000008
 8000490:	08007e74 	.word	0x08007e74
 8000494:	20000000 	.word	0x20000000

08000498 <Update_Params_Based_On_Mode_Selected>:
 8000498:	b5f0      	push	{r4, r5, r6, r7, lr}
 800049a:	4c65      	ldr	r4, [pc, #404]	@ (8000630 <Update_Params_Based_On_Mode_Selected+0x198>)
 800049c:	7823      	ldrb	r3, [r4, #0]
 800049e:	2b01      	cmp	r3, #1
 80004a0:	d104      	bne.n	80004ac <Update_Params_Based_On_Mode_Selected+0x14>
 80004a2:	4b64      	ldr	r3, [pc, #400]	@ (8000634 <Update_Params_Based_On_Mode_Selected+0x19c>)
 80004a4:	4a64      	ldr	r2, [pc, #400]	@ (8000638 <Update_Params_Based_On_Mode_Selected+0x1a0>)
 80004a6:	799b      	ldrb	r3, [r3, #6]
 80004a8:	b2db      	uxtb	r3, r3
 80004aa:	7193      	strb	r3, [r2, #6]
 80004ac:	4863      	ldr	r0, [pc, #396]	@ (800063c <Update_Params_Based_On_Mode_Selected+0x1a4>)
 80004ae:	7803      	ldrb	r3, [r0, #0]
 80004b0:	2b01      	cmp	r3, #1
 80004b2:	d104      	bne.n	80004be <Update_Params_Based_On_Mode_Selected+0x26>
 80004b4:	4b5f      	ldr	r3, [pc, #380]	@ (8000634 <Update_Params_Based_On_Mode_Selected+0x19c>)
 80004b6:	4a60      	ldr	r2, [pc, #384]	@ (8000638 <Update_Params_Based_On_Mode_Selected+0x1a0>)
 80004b8:	891b      	ldrh	r3, [r3, #8]
 80004ba:	b29b      	uxth	r3, r3
 80004bc:	8113      	strh	r3, [r2, #8]
 80004be:	4960      	ldr	r1, [pc, #384]	@ (8000640 <Update_Params_Based_On_Mode_Selected+0x1a8>)
 80004c0:	780b      	ldrb	r3, [r1, #0]
 80004c2:	2b01      	cmp	r3, #1
 80004c4:	d104      	bne.n	80004d0 <Update_Params_Based_On_Mode_Selected+0x38>
 80004c6:	4b5b      	ldr	r3, [pc, #364]	@ (8000634 <Update_Params_Based_On_Mode_Selected+0x19c>)
 80004c8:	4a5b      	ldr	r2, [pc, #364]	@ (8000638 <Update_Params_Based_On_Mode_Selected+0x1a0>)
 80004ca:	7a9b      	ldrb	r3, [r3, #10]
 80004cc:	b2db      	uxtb	r3, r3
 80004ce:	7293      	strb	r3, [r2, #10]
 80004d0:	4a5c      	ldr	r2, [pc, #368]	@ (8000644 <Update_Params_Based_On_Mode_Selected+0x1ac>)
 80004d2:	7813      	ldrb	r3, [r2, #0]
 80004d4:	2b01      	cmp	r3, #1
 80004d6:	d104      	bne.n	80004e2 <Update_Params_Based_On_Mode_Selected+0x4a>
 80004d8:	4b56      	ldr	r3, [pc, #344]	@ (8000634 <Update_Params_Based_On_Mode_Selected+0x19c>)
 80004da:	4d57      	ldr	r5, [pc, #348]	@ (8000638 <Update_Params_Based_On_Mode_Selected+0x1a0>)
 80004dc:	899b      	ldrh	r3, [r3, #12]
 80004de:	b29b      	uxth	r3, r3
 80004e0:	81ab      	strh	r3, [r5, #12]
 80004e2:	4b59      	ldr	r3, [pc, #356]	@ (8000648 <Update_Params_Based_On_Mode_Selected+0x1b0>)
 80004e4:	781d      	ldrb	r5, [r3, #0]
 80004e6:	2d01      	cmp	r5, #1
 80004e8:	d104      	bne.n	80004f4 <Update_Params_Based_On_Mode_Selected+0x5c>
 80004ea:	4d52      	ldr	r5, [pc, #328]	@ (8000634 <Update_Params_Based_On_Mode_Selected+0x19c>)
 80004ec:	4e52      	ldr	r6, [pc, #328]	@ (8000638 <Update_Params_Based_On_Mode_Selected+0x1a0>)
 80004ee:	8c6d      	ldrh	r5, [r5, #34]	@ 0x22
 80004f0:	b2ad      	uxth	r5, r5
 80004f2:	8475      	strh	r5, [r6, #34]	@ 0x22
 80004f4:	7825      	ldrb	r5, [r4, #0]
 80004f6:	2d03      	cmp	r5, #3
 80004f8:	d100      	bne.n	80004fc <Update_Params_Based_On_Mode_Selected+0x64>
 80004fa:	e070      	b.n	80005de <Update_Params_Based_On_Mode_Selected+0x146>
 80004fc:	7805      	ldrb	r5, [r0, #0]
 80004fe:	2d03      	cmp	r5, #3
 8000500:	d10b      	bne.n	800051a <Update_Params_Based_On_Mode_Selected+0x82>
 8000502:	4d52      	ldr	r5, [pc, #328]	@ (800064c <Update_Params_Based_On_Mode_Selected+0x1b4>)
 8000504:	782f      	ldrb	r7, [r5, #0]
 8000506:	4d52      	ldr	r5, [pc, #328]	@ (8000650 <Update_Params_Based_On_Mode_Selected+0x1b8>)
 8000508:	3f01      	subs	r7, #1
 800050a:	00be      	lsls	r6, r7, #2
 800050c:	19f6      	adds	r6, r6, r7
 800050e:	0076      	lsls	r6, r6, #1
 8000510:	19ad      	adds	r5, r5, r6
 8000512:	886d      	ldrh	r5, [r5, #2]
 8000514:	4e48      	ldr	r6, [pc, #288]	@ (8000638 <Update_Params_Based_On_Mode_Selected+0x1a0>)
 8000516:	b2ad      	uxth	r5, r5
 8000518:	8135      	strh	r5, [r6, #8]
 800051a:	780d      	ldrb	r5, [r1, #0]
 800051c:	2d03      	cmp	r5, #3
 800051e:	d10b      	bne.n	8000538 <Update_Params_Based_On_Mode_Selected+0xa0>
 8000520:	4d4a      	ldr	r5, [pc, #296]	@ (800064c <Update_Params_Based_On_Mode_Selected+0x1b4>)
 8000522:	782f      	ldrb	r7, [r5, #0]
 8000524:	4d4a      	ldr	r5, [pc, #296]	@ (8000650 <Update_Params_Based_On_Mode_Selected+0x1b8>)
 8000526:	3f01      	subs	r7, #1
 8000528:	00be      	lsls	r6, r7, #2
 800052a:	19f6      	adds	r6, r6, r7
 800052c:	0076      	lsls	r6, r6, #1
 800052e:	19ad      	adds	r5, r5, r6
 8000530:	792d      	ldrb	r5, [r5, #4]
 8000532:	4e41      	ldr	r6, [pc, #260]	@ (8000638 <Update_Params_Based_On_Mode_Selected+0x1a0>)
 8000534:	b2ed      	uxtb	r5, r5
 8000536:	72b5      	strb	r5, [r6, #10]
 8000538:	7815      	ldrb	r5, [r2, #0]
 800053a:	2d03      	cmp	r5, #3
 800053c:	d10b      	bne.n	8000556 <Update_Params_Based_On_Mode_Selected+0xbe>
 800053e:	4d43      	ldr	r5, [pc, #268]	@ (800064c <Update_Params_Based_On_Mode_Selected+0x1b4>)
 8000540:	782f      	ldrb	r7, [r5, #0]
 8000542:	4d43      	ldr	r5, [pc, #268]	@ (8000650 <Update_Params_Based_On_Mode_Selected+0x1b8>)
 8000544:	3f01      	subs	r7, #1
 8000546:	00be      	lsls	r6, r7, #2
 8000548:	19f6      	adds	r6, r6, r7
 800054a:	0076      	lsls	r6, r6, #1
 800054c:	19ad      	adds	r5, r5, r6
 800054e:	88ed      	ldrh	r5, [r5, #6]
 8000550:	4e39      	ldr	r6, [pc, #228]	@ (8000638 <Update_Params_Based_On_Mode_Selected+0x1a0>)
 8000552:	b2ad      	uxth	r5, r5
 8000554:	81b5      	strh	r5, [r6, #12]
 8000556:	781d      	ldrb	r5, [r3, #0]
 8000558:	2d03      	cmp	r5, #3
 800055a:	d10b      	bne.n	8000574 <Update_Params_Based_On_Mode_Selected+0xdc>
 800055c:	4d3b      	ldr	r5, [pc, #236]	@ (800064c <Update_Params_Based_On_Mode_Selected+0x1b4>)
 800055e:	782f      	ldrb	r7, [r5, #0]
 8000560:	4d3b      	ldr	r5, [pc, #236]	@ (8000650 <Update_Params_Based_On_Mode_Selected+0x1b8>)
 8000562:	3f01      	subs	r7, #1
 8000564:	00be      	lsls	r6, r7, #2
 8000566:	19f6      	adds	r6, r6, r7
 8000568:	0076      	lsls	r6, r6, #1
 800056a:	19ad      	adds	r5, r5, r6
 800056c:	892d      	ldrh	r5, [r5, #8]
 800056e:	4e32      	ldr	r6, [pc, #200]	@ (8000638 <Update_Params_Based_On_Mode_Selected+0x1a0>)
 8000570:	b2ad      	uxth	r5, r5
 8000572:	8475      	strh	r5, [r6, #34]	@ 0x22
 8000574:	7824      	ldrb	r4, [r4, #0]
 8000576:	b2e5      	uxtb	r5, r4
 8000578:	2c02      	cmp	r4, #2
 800057a:	d025      	beq.n	80005c8 <Update_Params_Based_On_Mode_Selected+0x130>
 800057c:	7800      	ldrb	r0, [r0, #0]
 800057e:	2802      	cmp	r0, #2
 8000580:	d104      	bne.n	800058c <Update_Params_Based_On_Mode_Selected+0xf4>
 8000582:	4834      	ldr	r0, [pc, #208]	@ (8000654 <Update_Params_Based_On_Mode_Selected+0x1bc>)
 8000584:	4c2c      	ldr	r4, [pc, #176]	@ (8000638 <Update_Params_Based_On_Mode_Selected+0x1a0>)
 8000586:	7840      	ldrb	r0, [r0, #1]
 8000588:	00c0      	lsls	r0, r0, #3
 800058a:	8120      	strh	r0, [r4, #8]
 800058c:	7809      	ldrb	r1, [r1, #0]
 800058e:	2902      	cmp	r1, #2
 8000590:	d104      	bne.n	800059c <Update_Params_Based_On_Mode_Selected+0x104>
 8000592:	4930      	ldr	r1, [pc, #192]	@ (8000654 <Update_Params_Based_On_Mode_Selected+0x1bc>)
 8000594:	4828      	ldr	r0, [pc, #160]	@ (8000638 <Update_Params_Based_On_Mode_Selected+0x1a0>)
 8000596:	7889      	ldrb	r1, [r1, #2]
 8000598:	b2c9      	uxtb	r1, r1
 800059a:	7281      	strb	r1, [r0, #10]
 800059c:	7812      	ldrb	r2, [r2, #0]
 800059e:	2a02      	cmp	r2, #2
 80005a0:	d106      	bne.n	80005b0 <Update_Params_Based_On_Mode_Selected+0x118>
 80005a2:	4a2c      	ldr	r2, [pc, #176]	@ (8000654 <Update_Params_Based_On_Mode_Selected+0x1bc>)
 80005a4:	4924      	ldr	r1, [pc, #144]	@ (8000638 <Update_Params_Based_On_Mode_Selected+0x1a0>)
 80005a6:	78d2      	ldrb	r2, [r2, #3]
 80005a8:	0052      	lsls	r2, r2, #1
 80005aa:	b2d2      	uxtb	r2, r2
 80005ac:	b292      	uxth	r2, r2
 80005ae:	818a      	strh	r2, [r1, #12]
 80005b0:	781b      	ldrb	r3, [r3, #0]
 80005b2:	2b02      	cmp	r3, #2
 80005b4:	d106      	bne.n	80005c4 <Update_Params_Based_On_Mode_Selected+0x12c>
 80005b6:	4b27      	ldr	r3, [pc, #156]	@ (8000654 <Update_Params_Based_On_Mode_Selected+0x1bc>)
 80005b8:	4a1f      	ldr	r2, [pc, #124]	@ (8000638 <Update_Params_Based_On_Mode_Selected+0x1a0>)
 80005ba:	791b      	ldrb	r3, [r3, #4]
 80005bc:	009b      	lsls	r3, r3, #2
 80005be:	b2db      	uxtb	r3, r3
 80005c0:	b29b      	uxth	r3, r3
 80005c2:	8453      	strh	r3, [r2, #34]	@ 0x22
 80005c4:	2001      	movs	r0, #1
 80005c6:	bdf0      	pop	{r4, r5, r6, r7, pc}
 80005c8:	4c22      	ldr	r4, [pc, #136]	@ (8000654 <Update_Params_Based_On_Mode_Selected+0x1bc>)
 80005ca:	7826      	ldrb	r6, [r4, #0]
 80005cc:	2e2a      	cmp	r6, #42	@ 0x2a
 80005ce:	d91b      	bls.n	8000608 <Update_Params_Based_On_Mode_Selected+0x170>
 80005d0:	7826      	ldrb	r6, [r4, #0]
 80005d2:	2e55      	cmp	r6, #85	@ 0x55
 80005d4:	d824      	bhi.n	8000620 <Update_Params_Based_On_Mode_Selected+0x188>
 80005d6:	2501      	movs	r5, #1
 80005d8:	4c17      	ldr	r4, [pc, #92]	@ (8000638 <Update_Params_Based_On_Mode_Selected+0x1a0>)
 80005da:	71a5      	strb	r5, [r4, #6]
 80005dc:	e7ce      	b.n	800057c <Update_Params_Based_On_Mode_Selected+0xe4>
 80005de:	4d1b      	ldr	r5, [pc, #108]	@ (800064c <Update_Params_Based_On_Mode_Selected+0x1b4>)
 80005e0:	4e1b      	ldr	r6, [pc, #108]	@ (8000650 <Update_Params_Based_On_Mode_Selected+0x1b8>)
 80005e2:	782f      	ldrb	r7, [r5, #0]
 80005e4:	3f01      	subs	r7, #1
 80005e6:	00bd      	lsls	r5, r7, #2
 80005e8:	19ed      	adds	r5, r5, r7
 80005ea:	006d      	lsls	r5, r5, #1
 80005ec:	5dad      	ldrb	r5, [r5, r6]
 80005ee:	b2ee      	uxtb	r6, r5
 80005f0:	2d2a      	cmp	r5, #42	@ 0x2a
 80005f2:	d905      	bls.n	8000600 <Update_Params_Based_On_Mode_Selected+0x168>
 80005f4:	2e55      	cmp	r6, #85	@ 0x55
 80005f6:	d80b      	bhi.n	8000610 <Update_Params_Based_On_Mode_Selected+0x178>
 80005f8:	2601      	movs	r6, #1
 80005fa:	4d0f      	ldr	r5, [pc, #60]	@ (8000638 <Update_Params_Based_On_Mode_Selected+0x1a0>)
 80005fc:	71ae      	strb	r6, [r5, #6]
 80005fe:	e77d      	b.n	80004fc <Update_Params_Based_On_Mode_Selected+0x64>
 8000600:	2600      	movs	r6, #0
 8000602:	4d0d      	ldr	r5, [pc, #52]	@ (8000638 <Update_Params_Based_On_Mode_Selected+0x1a0>)
 8000604:	71ae      	strb	r6, [r5, #6]
 8000606:	e779      	b.n	80004fc <Update_Params_Based_On_Mode_Selected+0x64>
 8000608:	2500      	movs	r5, #0
 800060a:	4c0b      	ldr	r4, [pc, #44]	@ (8000638 <Update_Params_Based_On_Mode_Selected+0x1a0>)
 800060c:	71a5      	strb	r5, [r4, #6]
 800060e:	e7b5      	b.n	800057c <Update_Params_Based_On_Mode_Selected+0xe4>
 8000610:	b276      	sxtb	r6, r6
 8000612:	2e00      	cmp	r6, #0
 8000614:	da00      	bge.n	8000618 <Update_Params_Based_On_Mode_Selected+0x180>
 8000616:	e771      	b.n	80004fc <Update_Params_Based_On_Mode_Selected+0x64>
 8000618:	2602      	movs	r6, #2
 800061a:	4d07      	ldr	r5, [pc, #28]	@ (8000638 <Update_Params_Based_On_Mode_Selected+0x1a0>)
 800061c:	71ae      	strb	r6, [r5, #6]
 800061e:	e76d      	b.n	80004fc <Update_Params_Based_On_Mode_Selected+0x64>
 8000620:	7824      	ldrb	r4, [r4, #0]
 8000622:	b264      	sxtb	r4, r4
 8000624:	2c00      	cmp	r4, #0
 8000626:	dba9      	blt.n	800057c <Update_Params_Based_On_Mode_Selected+0xe4>
 8000628:	4c03      	ldr	r4, [pc, #12]	@ (8000638 <Update_Params_Based_On_Mode_Selected+0x1a0>)
 800062a:	71a5      	strb	r5, [r4, #6]
 800062c:	e7a6      	b.n	800057c <Update_Params_Based_On_Mode_Selected+0xe4>
 800062e:	46c0      	nop			@ (mov r8, r8)
 8000630:	20000434 	.word	0x20000434
 8000634:	20000c7c 	.word	0x20000c7c
 8000638:	20000ca0 	.word	0x20000ca0
 800063c:	2000043c 	.word	0x2000043c
 8000640:	20000438 	.word	0x20000438
 8000644:	20000430 	.word	0x20000430
 8000648:	2000042c 	.word	0x2000042c
 800064c:	20000478 	.word	0x20000478
 8000650:	2000047c 	.word	0x2000047c
 8000654:	2000046c 	.word	0x2000046c

08000658 <Read_and_Interpret_Misc_From_Flash>:
 8000658:	b5f0      	push	{r4, r5, r6, r7, lr}
 800065a:	4646      	mov	r6, r8
 800065c:	464f      	mov	r7, r9
 800065e:	46d6      	mov	lr, sl
 8000660:	b5c0      	push	{r6, r7, lr}
 8000662:	b082      	sub	sp, #8
 8000664:	469a      	mov	sl, r3
 8000666:	ab0a      	add	r3, sp, #40	@ 0x28
 8000668:	781f      	ldrb	r7, [r3, #0]
 800066a:	466b      	mov	r3, sp
 800066c:	1dde      	adds	r6, r3, #7
 800066e:	2300      	movs	r3, #0
 8000670:	4680      	mov	r8, r0
 8000672:	4691      	mov	r9, r2
 8000674:	7033      	strb	r3, [r6, #0]
 8000676:	2f00      	cmp	r7, #0
 8000678:	d014      	beq.n	80006a4 <Read_and_Interpret_Misc_From_Flash+0x4c>
 800067a:	1a42      	subs	r2, r0, r1
 800067c:	2400      	movs	r4, #0
 800067e:	2000      	movs	r0, #0
 8000680:	5c53      	ldrb	r3, [r2, r1]
 8000682:	7033      	strb	r3, [r6, #0]
 8000684:	7835      	ldrb	r5, [r6, #0]
 8000686:	b2eb      	uxtb	r3, r5
 8000688:	2d01      	cmp	r5, #1
 800068a:	d032      	beq.n	80006f2 <Read_and_Interpret_Misc_From_Flash+0x9a>
 800068c:	7833      	ldrb	r3, [r6, #0]
 800068e:	2bff      	cmp	r3, #255	@ 0xff
 8000690:	d002      	beq.n	8000698 <Read_and_Interpret_Misc_From_Flash+0x40>
 8000692:	7833      	ldrb	r3, [r6, #0]
 8000694:	2b00      	cmp	r3, #0
 8000696:	d100      	bne.n	800069a <Read_and_Interpret_Misc_From_Flash+0x42>
 8000698:	7008      	strb	r0, [r1, #0]
 800069a:	3401      	adds	r4, #1
 800069c:	b2e4      	uxtb	r4, r4
 800069e:	3101      	adds	r1, #1
 80006a0:	42a7      	cmp	r7, r4
 80006a2:	d1ed      	bne.n	8000680 <Read_and_Interpret_Misc_From_Flash+0x28>
 80006a4:	4643      	mov	r3, r8
 80006a6:	5ddb      	ldrb	r3, [r3, r7]
 80006a8:	7033      	strb	r3, [r6, #0]
 80006aa:	7833      	ldrb	r3, [r6, #0]
 80006ac:	2b00      	cmp	r3, #0
 80006ae:	d042      	beq.n	8000736 <Read_and_Interpret_Misc_From_Flash+0xde>
 80006b0:	7833      	ldrb	r3, [r6, #0]
 80006b2:	2b01      	cmp	r3, #1
 80006b4:	d02f      	beq.n	8000716 <Read_and_Interpret_Misc_From_Flash+0xbe>
 80006b6:	7833      	ldrb	r3, [r6, #0]
 80006b8:	2bff      	cmp	r3, #255	@ 0xff
 80006ba:	d02c      	beq.n	8000716 <Read_and_Interpret_Misc_From_Flash+0xbe>
 80006bc:	4447      	add	r7, r8
 80006be:	787b      	ldrb	r3, [r7, #1]
 80006c0:	7033      	strb	r3, [r6, #0]
 80006c2:	7833      	ldrb	r3, [r6, #0]
 80006c4:	2b00      	cmp	r3, #0
 80006c6:	d030      	beq.n	800072a <Read_and_Interpret_Misc_From_Flash+0xd2>
 80006c8:	7833      	ldrb	r3, [r6, #0]
 80006ca:	2b01      	cmp	r3, #1
 80006cc:	d01d      	beq.n	800070a <Read_and_Interpret_Misc_From_Flash+0xb2>
 80006ce:	7833      	ldrb	r3, [r6, #0]
 80006d0:	2bff      	cmp	r3, #255	@ 0xff
 80006d2:	d01a      	beq.n	800070a <Read_and_Interpret_Misc_From_Flash+0xb2>
 80006d4:	78bb      	ldrb	r3, [r7, #2]
 80006d6:	7033      	strb	r3, [r6, #0]
 80006d8:	7833      	ldrb	r3, [r6, #0]
 80006da:	2b0f      	cmp	r3, #15
 80006dc:	d910      	bls.n	8000700 <Read_and_Interpret_Misc_From_Flash+0xa8>
 80006de:	2300      	movs	r3, #0
 80006e0:	4652      	mov	r2, sl
 80006e2:	7013      	strb	r3, [r2, #0]
 80006e4:	2001      	movs	r0, #1
 80006e6:	b002      	add	sp, #8
 80006e8:	bce0      	pop	{r5, r6, r7}
 80006ea:	46ba      	mov	sl, r7
 80006ec:	46b1      	mov	r9, r6
 80006ee:	46a8      	mov	r8, r5
 80006f0:	bdf0      	pop	{r4, r5, r6, r7, pc}
 80006f2:	3401      	adds	r4, #1
 80006f4:	b2e4      	uxtb	r4, r4
 80006f6:	700b      	strb	r3, [r1, #0]
 80006f8:	3101      	adds	r1, #1
 80006fa:	42a7      	cmp	r7, r4
 80006fc:	d1c0      	bne.n	8000680 <Read_and_Interpret_Misc_From_Flash+0x28>
 80006fe:	e7d1      	b.n	80006a4 <Read_and_Interpret_Misc_From_Flash+0x4c>
 8000700:	4652      	mov	r2, sl
 8000702:	7833      	ldrb	r3, [r6, #0]
 8000704:	b2db      	uxtb	r3, r3
 8000706:	7013      	strb	r3, [r2, #0]
 8000708:	e7ec      	b.n	80006e4 <Read_and_Interpret_Misc_From_Flash+0x8c>
 800070a:	2180      	movs	r1, #128	@ 0x80
 800070c:	4648      	mov	r0, r9
 800070e:	00c9      	lsls	r1, r1, #3
 8000710:	f002 ff0a 	bl	8003528 <Set_Status_Bit>
 8000714:	e7de      	b.n	80006d4 <Read_and_Interpret_Misc_From_Flash+0x7c>
 8000716:	2180      	movs	r1, #128	@ 0x80
 8000718:	4648      	mov	r0, r9
 800071a:	4447      	add	r7, r8
 800071c:	f002 ff04 	bl	8003528 <Set_Status_Bit>
 8000720:	787b      	ldrb	r3, [r7, #1]
 8000722:	7033      	strb	r3, [r6, #0]
 8000724:	7833      	ldrb	r3, [r6, #0]
 8000726:	2b00      	cmp	r3, #0
 8000728:	d1ce      	bne.n	80006c8 <Read_and_Interpret_Misc_From_Flash+0x70>
 800072a:	2180      	movs	r1, #128	@ 0x80
 800072c:	4648      	mov	r0, r9
 800072e:	00c9      	lsls	r1, r1, #3
 8000730:	f002 fefe 	bl	8003530 <Clear_Status_Bit>
 8000734:	e7ce      	b.n	80006d4 <Read_and_Interpret_Misc_From_Flash+0x7c>
 8000736:	2180      	movs	r1, #128	@ 0x80
 8000738:	4648      	mov	r0, r9
 800073a:	f002 fef9 	bl	8003530 <Clear_Status_Bit>
 800073e:	e7bd      	b.n	80006bc <Read_and_Interpret_Misc_From_Flash+0x64>

08000740 <Update_Converted_Preset_Array_with_User_or_Factory_Presets>:
 8000740:	b5f0      	push	{r4, r5, r6, r7, lr}
 8000742:	469c      	mov	ip, r3
 8000744:	ab05      	add	r3, sp, #20
 8000746:	781b      	ldrb	r3, [r3, #0]
 8000748:	2b00      	cmp	r3, #0
 800074a:	d022      	beq.n	8000792 <Update_Converted_Preset_Array_with_User_or_Factory_Presets+0x52>
 800074c:	2500      	movs	r5, #0
 800074e:	2400      	movs	r4, #0
 8000750:	e018      	b.n	8000784 <Update_Converted_Preset_Array_with_User_or_Factory_Presets+0x44>
 8000752:	7836      	ldrb	r6, [r6, #0]
 8000754:	2e00      	cmp	r6, #0
 8000756:	d10f      	bne.n	8000778 <Update_Converted_Preset_Array_with_User_or_Factory_Presets+0x38>
 8000758:	5956      	ldr	r6, [r2, r5]
 800075a:	7837      	ldrb	r7, [r6, #0]
 800075c:	b2ff      	uxtb	r7, r7
 800075e:	7007      	strb	r7, [r0, #0]
 8000760:	7877      	ldrb	r7, [r6, #1]
 8000762:	00ff      	lsls	r7, r7, #3
 8000764:	8047      	strh	r7, [r0, #2]
 8000766:	78b7      	ldrb	r7, [r6, #2]
 8000768:	b2ff      	uxtb	r7, r7
 800076a:	7107      	strb	r7, [r0, #4]
 800076c:	78f7      	ldrb	r7, [r6, #3]
 800076e:	007f      	lsls	r7, r7, #1
 8000770:	80c7      	strh	r7, [r0, #6]
 8000772:	7936      	ldrb	r6, [r6, #4]
 8000774:	00b6      	lsls	r6, r6, #2
 8000776:	8106      	strh	r6, [r0, #8]
 8000778:	3401      	adds	r4, #1
 800077a:	b2e6      	uxtb	r6, r4
 800077c:	300a      	adds	r0, #10
 800077e:	3504      	adds	r5, #4
 8000780:	429e      	cmp	r6, r3
 8000782:	d206      	bcs.n	8000792 <Update_Converted_Preset_Array_with_User_or_Factory_Presets+0x52>
 8000784:	190e      	adds	r6, r1, r4
 8000786:	7837      	ldrb	r7, [r6, #0]
 8000788:	2f01      	cmp	r7, #1
 800078a:	d1e2      	bne.n	8000752 <Update_Converted_Preset_Array_with_User_or_Factory_Presets+0x12>
 800078c:	4666      	mov	r6, ip
 800078e:	5976      	ldr	r6, [r6, r5]
 8000790:	e7e3      	b.n	800075a <Update_Converted_Preset_Array_with_User_or_Factory_Presets+0x1a>
 8000792:	2001      	movs	r0, #1
 8000794:	bdf0      	pop	{r4, r5, r6, r7, pc}
 8000796:	46c0      	nop			@ (mov r8, r8)

08000798 <Read_and_Interpret_User_Presets_From_Flash>:
 8000798:	4a48      	ldr	r2, [pc, #288]	@ (80008bc <Read_and_Interpret_User_Presets_From_Flash+0x124>)
 800079a:	217f      	movs	r1, #127	@ 0x7f
 800079c:	7810      	ldrb	r0, [r2, #0]
 800079e:	4b48      	ldr	r3, [pc, #288]	@ (80008c0 <Read_and_Interpret_User_Presets_From_Flash+0x128>)
 80007a0:	287e      	cmp	r0, #126	@ 0x7e
 80007a2:	d800      	bhi.n	80007a6 <Read_and_Interpret_User_Presets_From_Flash+0xe>
 80007a4:	1c01      	adds	r1, r0, #0
 80007a6:	4a47      	ldr	r2, [pc, #284]	@ (80008c4 <Read_and_Interpret_User_Presets_From_Flash+0x12c>)
 80007a8:	7019      	strb	r1, [r3, #0]
 80007aa:	7810      	ldrb	r0, [r2, #0]
 80007ac:	217f      	movs	r1, #127	@ 0x7f
 80007ae:	287e      	cmp	r0, #126	@ 0x7e
 80007b0:	d800      	bhi.n	80007b4 <Read_and_Interpret_User_Presets_From_Flash+0x1c>
 80007b2:	1c01      	adds	r1, r0, #0
 80007b4:	4a44      	ldr	r2, [pc, #272]	@ (80008c8 <Read_and_Interpret_User_Presets_From_Flash+0x130>)
 80007b6:	7059      	strb	r1, [r3, #1]
 80007b8:	7810      	ldrb	r0, [r2, #0]
 80007ba:	217f      	movs	r1, #127	@ 0x7f
 80007bc:	287e      	cmp	r0, #126	@ 0x7e
 80007be:	d800      	bhi.n	80007c2 <Read_and_Interpret_User_Presets_From_Flash+0x2a>
 80007c0:	1c01      	adds	r1, r0, #0
 80007c2:	4a42      	ldr	r2, [pc, #264]	@ (80008cc <Read_and_Interpret_User_Presets_From_Flash+0x134>)
 80007c4:	7099      	strb	r1, [r3, #2]
 80007c6:	7810      	ldrb	r0, [r2, #0]
 80007c8:	217f      	movs	r1, #127	@ 0x7f
 80007ca:	287e      	cmp	r0, #126	@ 0x7e
 80007cc:	d800      	bhi.n	80007d0 <Read_and_Interpret_User_Presets_From_Flash+0x38>
 80007ce:	1c01      	adds	r1, r0, #0
 80007d0:	4a3f      	ldr	r2, [pc, #252]	@ (80008d0 <Read_and_Interpret_User_Presets_From_Flash+0x138>)
 80007d2:	70d9      	strb	r1, [r3, #3]
 80007d4:	7810      	ldrb	r0, [r2, #0]
 80007d6:	217f      	movs	r1, #127	@ 0x7f
 80007d8:	287e      	cmp	r0, #126	@ 0x7e
 80007da:	d800      	bhi.n	80007de <Read_and_Interpret_User_Presets_From_Flash+0x46>
 80007dc:	1c01      	adds	r1, r0, #0
 80007de:	4a3d      	ldr	r2, [pc, #244]	@ (80008d4 <Read_and_Interpret_User_Presets_From_Flash+0x13c>)
 80007e0:	7119      	strb	r1, [r3, #4]
 80007e2:	7810      	ldrb	r0, [r2, #0]
 80007e4:	217f      	movs	r1, #127	@ 0x7f
 80007e6:	4b3c      	ldr	r3, [pc, #240]	@ (80008d8 <Read_and_Interpret_User_Presets_From_Flash+0x140>)
 80007e8:	287e      	cmp	r0, #126	@ 0x7e
 80007ea:	d800      	bhi.n	80007ee <Read_and_Interpret_User_Presets_From_Flash+0x56>
 80007ec:	1c01      	adds	r1, r0, #0
 80007ee:	4a3b      	ldr	r2, [pc, #236]	@ (80008dc <Read_and_Interpret_User_Presets_From_Flash+0x144>)
 80007f0:	7019      	strb	r1, [r3, #0]
 80007f2:	7810      	ldrb	r0, [r2, #0]
 80007f4:	217f      	movs	r1, #127	@ 0x7f
 80007f6:	287e      	cmp	r0, #126	@ 0x7e
 80007f8:	d800      	bhi.n	80007fc <Read_and_Interpret_User_Presets_From_Flash+0x64>
 80007fa:	1c01      	adds	r1, r0, #0
 80007fc:	4a38      	ldr	r2, [pc, #224]	@ (80008e0 <Read_and_Interpret_User_Presets_From_Flash+0x148>)
 80007fe:	7059      	strb	r1, [r3, #1]
 8000800:	7810      	ldrb	r0, [r2, #0]
 8000802:	217f      	movs	r1, #127	@ 0x7f
 8000804:	287e      	cmp	r0, #126	@ 0x7e
 8000806:	d800      	bhi.n	800080a <Read_and_Interpret_User_Presets_From_Flash+0x72>
 8000808:	1c01      	adds	r1, r0, #0
 800080a:	4a36      	ldr	r2, [pc, #216]	@ (80008e4 <Read_and_Interpret_User_Presets_From_Flash+0x14c>)
 800080c:	7099      	strb	r1, [r3, #2]
 800080e:	7810      	ldrb	r0, [r2, #0]
 8000810:	217f      	movs	r1, #127	@ 0x7f
 8000812:	287e      	cmp	r0, #126	@ 0x7e
 8000814:	d800      	bhi.n	8000818 <Read_and_Interpret_User_Presets_From_Flash+0x80>
 8000816:	1c01      	adds	r1, r0, #0
 8000818:	4a33      	ldr	r2, [pc, #204]	@ (80008e8 <Read_and_Interpret_User_Presets_From_Flash+0x150>)
 800081a:	70d9      	strb	r1, [r3, #3]
 800081c:	7810      	ldrb	r0, [r2, #0]
 800081e:	217f      	movs	r1, #127	@ 0x7f
 8000820:	287e      	cmp	r0, #126	@ 0x7e
 8000822:	d800      	bhi.n	8000826 <Read_and_Interpret_User_Presets_From_Flash+0x8e>
 8000824:	1c01      	adds	r1, r0, #0
 8000826:	4a31      	ldr	r2, [pc, #196]	@ (80008ec <Read_and_Interpret_User_Presets_From_Flash+0x154>)
 8000828:	7119      	strb	r1, [r3, #4]
 800082a:	7810      	ldrb	r0, [r2, #0]
 800082c:	217f      	movs	r1, #127	@ 0x7f
 800082e:	4b30      	ldr	r3, [pc, #192]	@ (80008f0 <Read_and_Interpret_User_Presets_From_Flash+0x158>)
 8000830:	287e      	cmp	r0, #126	@ 0x7e
 8000832:	d800      	bhi.n	8000836 <Read_and_Interpret_User_Presets_From_Flash+0x9e>
 8000834:	1c01      	adds	r1, r0, #0
 8000836:	4a2f      	ldr	r2, [pc, #188]	@ (80008f4 <Read_and_Interpret_User_Presets_From_Flash+0x15c>)
 8000838:	7019      	strb	r1, [r3, #0]
 800083a:	7810      	ldrb	r0, [r2, #0]
 800083c:	217f      	movs	r1, #127	@ 0x7f
 800083e:	287e      	cmp	r0, #126	@ 0x7e
 8000840:	d800      	bhi.n	8000844 <Read_and_Interpret_User_Presets_From_Flash+0xac>
 8000842:	1c01      	adds	r1, r0, #0
 8000844:	4a2c      	ldr	r2, [pc, #176]	@ (80008f8 <Read_and_Interpret_User_Presets_From_Flash+0x160>)
 8000846:	7059      	strb	r1, [r3, #1]
 8000848:	7810      	ldrb	r0, [r2, #0]
 800084a:	217f      	movs	r1, #127	@ 0x7f
 800084c:	287e      	cmp	r0, #126	@ 0x7e
 800084e:	d800      	bhi.n	8000852 <Read_and_Interpret_User_Presets_From_Flash+0xba>
 8000850:	1c01      	adds	r1, r0, #0
 8000852:	4a2a      	ldr	r2, [pc, #168]	@ (80008fc <Read_and_Interpret_User_Presets_From_Flash+0x164>)
 8000854:	7099      	strb	r1, [r3, #2]
 8000856:	7810      	ldrb	r0, [r2, #0]
 8000858:	217f      	movs	r1, #127	@ 0x7f
 800085a:	287e      	cmp	r0, #126	@ 0x7e
 800085c:	d800      	bhi.n	8000860 <Read_and_Interpret_User_Presets_From_Flash+0xc8>
 800085e:	1c01      	adds	r1, r0, #0
 8000860:	4a27      	ldr	r2, [pc, #156]	@ (8000900 <Read_and_Interpret_User_Presets_From_Flash+0x168>)
 8000862:	70d9      	strb	r1, [r3, #3]
 8000864:	7810      	ldrb	r0, [r2, #0]
 8000866:	217f      	movs	r1, #127	@ 0x7f
 8000868:	287e      	cmp	r0, #126	@ 0x7e
 800086a:	d800      	bhi.n	800086e <Read_and_Interpret_User_Presets_From_Flash+0xd6>
 800086c:	1c01      	adds	r1, r0, #0
 800086e:	4a25      	ldr	r2, [pc, #148]	@ (8000904 <Read_and_Interpret_User_Presets_From_Flash+0x16c>)
 8000870:	7119      	strb	r1, [r3, #4]
 8000872:	7810      	ldrb	r0, [r2, #0]
 8000874:	217f      	movs	r1, #127	@ 0x7f
 8000876:	4b24      	ldr	r3, [pc, #144]	@ (8000908 <Read_and_Interpret_User_Presets_From_Flash+0x170>)
 8000878:	287e      	cmp	r0, #126	@ 0x7e
 800087a:	d800      	bhi.n	800087e <Read_and_Interpret_User_Presets_From_Flash+0xe6>
 800087c:	1c01      	adds	r1, r0, #0
 800087e:	4a23      	ldr	r2, [pc, #140]	@ (800090c <Read_and_Interpret_User_Presets_From_Flash+0x174>)
 8000880:	7019      	strb	r1, [r3, #0]
 8000882:	7810      	ldrb	r0, [r2, #0]
 8000884:	217f      	movs	r1, #127	@ 0x7f
 8000886:	287e      	cmp	r0, #126	@ 0x7e
 8000888:	d800      	bhi.n	800088c <Read_and_Interpret_User_Presets_From_Flash+0xf4>
 800088a:	1c01      	adds	r1, r0, #0
 800088c:	4a20      	ldr	r2, [pc, #128]	@ (8000910 <Read_and_Interpret_User_Presets_From_Flash+0x178>)
 800088e:	7059      	strb	r1, [r3, #1]
 8000890:	7810      	ldrb	r0, [r2, #0]
 8000892:	217f      	movs	r1, #127	@ 0x7f
 8000894:	287e      	cmp	r0, #126	@ 0x7e
 8000896:	d800      	bhi.n	800089a <Read_and_Interpret_User_Presets_From_Flash+0x102>
 8000898:	1c01      	adds	r1, r0, #0
 800089a:	4a1e      	ldr	r2, [pc, #120]	@ (8000914 <Read_and_Interpret_User_Presets_From_Flash+0x17c>)
 800089c:	7099      	strb	r1, [r3, #2]
 800089e:	7810      	ldrb	r0, [r2, #0]
 80008a0:	217f      	movs	r1, #127	@ 0x7f
 80008a2:	287e      	cmp	r0, #126	@ 0x7e
 80008a4:	d800      	bhi.n	80008a8 <Read_and_Interpret_User_Presets_From_Flash+0x110>
 80008a6:	1c01      	adds	r1, r0, #0
 80008a8:	4a1b      	ldr	r2, [pc, #108]	@ (8000918 <Read_and_Interpret_User_Presets_From_Flash+0x180>)
 80008aa:	70d9      	strb	r1, [r3, #3]
 80008ac:	7810      	ldrb	r0, [r2, #0]
 80008ae:	217f      	movs	r1, #127	@ 0x7f
 80008b0:	287e      	cmp	r0, #126	@ 0x7e
 80008b2:	d800      	bhi.n	80008b6 <Read_and_Interpret_User_Presets_From_Flash+0x11e>
 80008b4:	1c01      	adds	r1, r0, #0
 80008b6:	2001      	movs	r0, #1
 80008b8:	7119      	strb	r1, [r3, #4]
 80008ba:	4770      	bx	lr
 80008bc:	0800f800 	.word	0x0800f800
 80008c0:	20000018 	.word	0x20000018
 80008c4:	0800f801 	.word	0x0800f801
 80008c8:	0800f802 	.word	0x0800f802
 80008cc:	0800f803 	.word	0x0800f803
 80008d0:	0800f804 	.word	0x0800f804
 80008d4:	0800f808 	.word	0x0800f808
 80008d8:	20000010 	.word	0x20000010
 80008dc:	0800f809 	.word	0x0800f809
 80008e0:	0800f80a 	.word	0x0800f80a
 80008e4:	0800f80b 	.word	0x0800f80b
 80008e8:	0800f80c 	.word	0x0800f80c
 80008ec:	0800f810 	.word	0x0800f810
 80008f0:	20000008 	.word	0x20000008
 80008f4:	0800f811 	.word	0x0800f811
 80008f8:	0800f812 	.word	0x0800f812
 80008fc:	0800f813 	.word	0x0800f813
 8000900:	0800f814 	.word	0x0800f814
 8000904:	0800f818 	.word	0x0800f818
 8000908:	20000000 	.word	0x20000000
 800090c:	0800f819 	.word	0x0800f819
 8000910:	0800f81a 	.word	0x0800f81a
 8000914:	0800f81b 	.word	0x0800f81b
 8000918:	0800f81c 	.word	0x0800f81c

0800091c <Set_Waveshape_to_CC_Mode_and_Value>:
 800091c:	4b05      	ldr	r3, [pc, #20]	@ (8000934 <Set_Waveshape_to_CC_Mode_and_Value+0x18>)
 800091e:	781a      	ldrb	r2, [r3, #0]
 8000920:	b2d2      	uxtb	r2, r2
 8000922:	705a      	strb	r2, [r3, #1]
 8000924:	2202      	movs	r2, #2
 8000926:	701a      	strb	r2, [r3, #0]
 8000928:	7802      	ldrb	r2, [r0, #0]
 800092a:	4b03      	ldr	r3, [pc, #12]	@ (8000938 <Set_Waveshape_to_CC_Mode_and_Value+0x1c>)
 800092c:	2001      	movs	r0, #1
 800092e:	701a      	strb	r2, [r3, #0]
 8000930:	4770      	bx	lr
 8000932:	46c0      	nop			@ (mov r8, r8)
 8000934:	20000434 	.word	0x20000434
 8000938:	2000046c 	.word	0x2000046c

0800093c <Set_Speed_to_CC_Mode_and_Value>:
 800093c:	4b05      	ldr	r3, [pc, #20]	@ (8000954 <Set_Speed_to_CC_Mode_and_Value+0x18>)
 800093e:	781a      	ldrb	r2, [r3, #0]
 8000940:	b2d2      	uxtb	r2, r2
 8000942:	705a      	strb	r2, [r3, #1]
 8000944:	2202      	movs	r2, #2
 8000946:	701a      	strb	r2, [r3, #0]
 8000948:	7802      	ldrb	r2, [r0, #0]
 800094a:	4b03      	ldr	r3, [pc, #12]	@ (8000958 <Set_Speed_to_CC_Mode_and_Value+0x1c>)
 800094c:	2001      	movs	r0, #1
 800094e:	705a      	strb	r2, [r3, #1]
 8000950:	4770      	bx	lr
 8000952:	46c0      	nop			@ (mov r8, r8)
 8000954:	2000043c 	.word	0x2000043c
 8000958:	2000046c 	.word	0x2000046c

0800095c <Set_Depth_to_CC_Mode_and_Value>:
 800095c:	4b05      	ldr	r3, [pc, #20]	@ (8000974 <Set_Depth_to_CC_Mode_and_Value+0x18>)
 800095e:	781a      	ldrb	r2, [r3, #0]
 8000960:	b2d2      	uxtb	r2, r2
 8000962:	705a      	strb	r2, [r3, #1]
 8000964:	2202      	movs	r2, #2
 8000966:	701a      	strb	r2, [r3, #0]
 8000968:	7802      	ldrb	r2, [r0, #0]
 800096a:	4b03      	ldr	r3, [pc, #12]	@ (8000978 <Set_Depth_to_CC_Mode_and_Value+0x1c>)
 800096c:	2001      	movs	r0, #1
 800096e:	709a      	strb	r2, [r3, #2]
 8000970:	4770      	bx	lr
 8000972:	46c0      	nop			@ (mov r8, r8)
 8000974:	20000438 	.word	0x20000438
 8000978:	2000046c 	.word	0x2000046c

0800097c <Set_Symmetry_to_CC_Mode_and_Value>:
 800097c:	4b05      	ldr	r3, [pc, #20]	@ (8000994 <Set_Symmetry_to_CC_Mode_and_Value+0x18>)
 800097e:	781a      	ldrb	r2, [r3, #0]
 8000980:	b2d2      	uxtb	r2, r2
 8000982:	705a      	strb	r2, [r3, #1]
 8000984:	2202      	movs	r2, #2
 8000986:	701a      	strb	r2, [r3, #0]
 8000988:	7802      	ldrb	r2, [r0, #0]
 800098a:	4b03      	ldr	r3, [pc, #12]	@ (8000998 <Set_Symmetry_to_CC_Mode_and_Value+0x1c>)
 800098c:	2001      	movs	r0, #1
 800098e:	70da      	strb	r2, [r3, #3]
 8000990:	4770      	bx	lr
 8000992:	46c0      	nop			@ (mov r8, r8)
 8000994:	20000430 	.word	0x20000430
 8000998:	2000046c 	.word	0x2000046c

0800099c <Set_Phase_to_CC_Mode_and_Value>:
 800099c:	4b05      	ldr	r3, [pc, #20]	@ (80009b4 <Set_Phase_to_CC_Mode_and_Value+0x18>)
 800099e:	781a      	ldrb	r2, [r3, #0]
 80009a0:	b2d2      	uxtb	r2, r2
 80009a2:	705a      	strb	r2, [r3, #1]
 80009a4:	2202      	movs	r2, #2
 80009a6:	701a      	strb	r2, [r3, #0]
 80009a8:	7802      	ldrb	r2, [r0, #0]
 80009aa:	4b03      	ldr	r3, [pc, #12]	@ (80009b8 <Set_Phase_to_CC_Mode_and_Value+0x1c>)
 80009ac:	2001      	movs	r0, #1
 80009ae:	711a      	strb	r2, [r3, #4]
 80009b0:	4770      	bx	lr
 80009b2:	46c0      	nop			@ (mov r8, r8)
 80009b4:	2000042c 	.word	0x2000042c
 80009b8:	2000046c 	.word	0x2000046c

080009bc <Set_All_Pots_to_PC_Mode>:
 80009bc:	4a0d      	ldr	r2, [pc, #52]	@ (80009f4 <Set_All_Pots_to_PC_Mode+0x38>)
 80009be:	2001      	movs	r0, #1
 80009c0:	7813      	ldrb	r3, [r2, #0]
 80009c2:	b2db      	uxtb	r3, r3
 80009c4:	7053      	strb	r3, [r2, #1]
 80009c6:	2303      	movs	r3, #3
 80009c8:	7013      	strb	r3, [r2, #0]
 80009ca:	4a0b      	ldr	r2, [pc, #44]	@ (80009f8 <Set_All_Pots_to_PC_Mode+0x3c>)
 80009cc:	7811      	ldrb	r1, [r2, #0]
 80009ce:	b2c9      	uxtb	r1, r1
 80009d0:	7051      	strb	r1, [r2, #1]
 80009d2:	7013      	strb	r3, [r2, #0]
 80009d4:	4a09      	ldr	r2, [pc, #36]	@ (80009fc <Set_All_Pots_to_PC_Mode+0x40>)
 80009d6:	7811      	ldrb	r1, [r2, #0]
 80009d8:	b2c9      	uxtb	r1, r1
 80009da:	7051      	strb	r1, [r2, #1]
 80009dc:	7013      	strb	r3, [r2, #0]
 80009de:	4a08      	ldr	r2, [pc, #32]	@ (8000a00 <Set_All_Pots_to_PC_Mode+0x44>)
 80009e0:	7811      	ldrb	r1, [r2, #0]
 80009e2:	b2c9      	uxtb	r1, r1
 80009e4:	7051      	strb	r1, [r2, #1]
 80009e6:	7013      	strb	r3, [r2, #0]
 80009e8:	4a06      	ldr	r2, [pc, #24]	@ (8000a04 <Set_All_Pots_to_PC_Mode+0x48>)
 80009ea:	7811      	ldrb	r1, [r2, #0]
 80009ec:	b2c9      	uxtb	r1, r1
 80009ee:	7051      	strb	r1, [r2, #1]
 80009f0:	7013      	strb	r3, [r2, #0]
 80009f2:	4770      	bx	lr
 80009f4:	20000434 	.word	0x20000434
 80009f8:	2000043c 	.word	0x2000043c
 80009fc:	20000438 	.word	0x20000438
 8000a00:	20000430 	.word	0x20000430
 8000a04:	2000042c 	.word	0x2000042c

08000a08 <Is_Status_Byte>:
 8000a08:	7800      	ldrb	r0, [r0, #0]
 8000a0a:	09c0      	lsrs	r0, r0, #7
 8000a0c:	4770      	bx	lr
 8000a0e:	46c0      	nop			@ (mov r8, r8)

08000a10 <Is_Data_Byte>:
 8000a10:	2301      	movs	r3, #1
 8000a12:	7800      	ldrb	r0, [r0, #0]
 8000a14:	09c0      	lsrs	r0, r0, #7
 8000a16:	4058      	eors	r0, r3
 8000a18:	4770      	bx	lr
 8000a1a:	46c0      	nop			@ (mov r8, r8)

08000a1c <Is_PC_Status_Byte>:
 8000a1c:	7800      	ldrb	r0, [r0, #0]
 8000a1e:	0900      	lsrs	r0, r0, #4
 8000a20:	380c      	subs	r0, #12
 8000a22:	4243      	negs	r3, r0
 8000a24:	4158      	adcs	r0, r3
 8000a26:	b2c0      	uxtb	r0, r0
 8000a28:	4770      	bx	lr
 8000a2a:	46c0      	nop			@ (mov r8, r8)

08000a2c <Is_CC_Status_Byte>:
 8000a2c:	7800      	ldrb	r0, [r0, #0]
 8000a2e:	0900      	lsrs	r0, r0, #4
 8000a30:	380b      	subs	r0, #11
 8000a32:	4243      	negs	r3, r0
 8000a34:	4158      	adcs	r0, r3
 8000a36:	b2c0      	uxtb	r0, r0
 8000a38:	4770      	bx	lr
 8000a3a:	46c0      	nop			@ (mov r8, r8)

08000a3c <Is_Utilised_Channel_Mode_CC_First_Data_Byte>:
 8000a3c:	7803      	ldrb	r3, [r0, #0]
 8000a3e:	2b77      	cmp	r3, #119	@ 0x77
 8000a40:	d910      	bls.n	8000a64 <Is_Utilised_Channel_Mode_CC_First_Data_Byte+0x28>
 8000a42:	7803      	ldrb	r3, [r0, #0]
 8000a44:	2b79      	cmp	r3, #121	@ 0x79
 8000a46:	d00b      	beq.n	8000a60 <Is_Utilised_Channel_Mode_CC_First_Data_Byte+0x24>
 8000a48:	7803      	ldrb	r3, [r0, #0]
 8000a4a:	2b7a      	cmp	r3, #122	@ 0x7a
 8000a4c:	d008      	beq.n	8000a60 <Is_Utilised_Channel_Mode_CC_First_Data_Byte+0x24>
 8000a4e:	7803      	ldrb	r3, [r0, #0]
 8000a50:	2b7d      	cmp	r3, #125	@ 0x7d
 8000a52:	d005      	beq.n	8000a60 <Is_Utilised_Channel_Mode_CC_First_Data_Byte+0x24>
 8000a54:	7800      	ldrb	r0, [r0, #0]
 8000a56:	387c      	subs	r0, #124	@ 0x7c
 8000a58:	4243      	negs	r3, r0
 8000a5a:	4158      	adcs	r0, r3
 8000a5c:	b2c0      	uxtb	r0, r0
 8000a5e:	4770      	bx	lr
 8000a60:	2001      	movs	r0, #1
 8000a62:	e7fc      	b.n	8000a5e <Is_Utilised_Channel_Mode_CC_First_Data_Byte+0x22>
 8000a64:	2000      	movs	r0, #0
 8000a66:	e7fa      	b.n	8000a5e <Is_Utilised_Channel_Mode_CC_First_Data_Byte+0x22>

08000a68 <Is_Utilised_CC_First_Data_Byte>:
 8000a68:	7803      	ldrb	r3, [r0, #0]
 8000a6a:	2b77      	cmp	r3, #119	@ 0x77
 8000a6c:	d813      	bhi.n	8000a96 <Is_Utilised_CC_First_Data_Byte+0x2e>
 8000a6e:	7803      	ldrb	r3, [r0, #0]
 8000a70:	2b14      	cmp	r3, #20
 8000a72:	d00e      	beq.n	8000a92 <Is_Utilised_CC_First_Data_Byte+0x2a>
 8000a74:	7803      	ldrb	r3, [r0, #0]
 8000a76:	2b15      	cmp	r3, #21
 8000a78:	d00b      	beq.n	8000a92 <Is_Utilised_CC_First_Data_Byte+0x2a>
 8000a7a:	7803      	ldrb	r3, [r0, #0]
 8000a7c:	2b16      	cmp	r3, #22
 8000a7e:	d008      	beq.n	8000a92 <Is_Utilised_CC_First_Data_Byte+0x2a>
 8000a80:	7803      	ldrb	r3, [r0, #0]
 8000a82:	2b17      	cmp	r3, #23
 8000a84:	d005      	beq.n	8000a92 <Is_Utilised_CC_First_Data_Byte+0x2a>
 8000a86:	7800      	ldrb	r0, [r0, #0]
 8000a88:	3818      	subs	r0, #24
 8000a8a:	4243      	negs	r3, r0
 8000a8c:	4158      	adcs	r0, r3
 8000a8e:	b2c0      	uxtb	r0, r0
 8000a90:	4770      	bx	lr
 8000a92:	2001      	movs	r0, #1
 8000a94:	e7fc      	b.n	8000a90 <Is_Utilised_CC_First_Data_Byte+0x28>
 8000a96:	2000      	movs	r0, #0
 8000a98:	e7fa      	b.n	8000a90 <Is_Utilised_CC_First_Data_Byte+0x28>
 8000a9a:	46c0      	nop			@ (mov r8, r8)

08000a9c <Channel_Mode_CC_Second_Data_Byte_Is_Valid_Given_Utilised_First_Data_Byte>:
 8000a9c:	7803      	ldrb	r3, [r0, #0]
 8000a9e:	2b79      	cmp	r3, #121	@ 0x79
 8000aa0:	d009      	beq.n	8000ab6 <Channel_Mode_CC_Second_Data_Byte_Is_Valid_Given_Utilised_First_Data_Byte+0x1a>
 8000aa2:	7803      	ldrb	r3, [r0, #0]
 8000aa4:	2b7a      	cmp	r3, #122	@ 0x7a
 8000aa6:	d00b      	beq.n	8000ac0 <Channel_Mode_CC_Second_Data_Byte_Is_Valid_Given_Utilised_First_Data_Byte+0x24>
 8000aa8:	7803      	ldrb	r3, [r0, #0]
 8000aaa:	2b7c      	cmp	r3, #124	@ 0x7c
 8000aac:	d003      	beq.n	8000ab6 <Channel_Mode_CC_Second_Data_Byte_Is_Valid_Given_Utilised_First_Data_Byte+0x1a>
 8000aae:	7803      	ldrb	r3, [r0, #0]
 8000ab0:	2000      	movs	r0, #0
 8000ab2:	2b7d      	cmp	r3, #125	@ 0x7d
 8000ab4:	d103      	bne.n	8000abe <Channel_Mode_CC_Second_Data_Byte_Is_Valid_Given_Utilised_First_Data_Byte+0x22>
 8000ab6:	7808      	ldrb	r0, [r1, #0]
 8000ab8:	4243      	negs	r3, r0
 8000aba:	4158      	adcs	r0, r3
 8000abc:	b2c0      	uxtb	r0, r0
 8000abe:	4770      	bx	lr
 8000ac0:	780b      	ldrb	r3, [r1, #0]
 8000ac2:	2b00      	cmp	r3, #0
 8000ac4:	d005      	beq.n	8000ad2 <Channel_Mode_CC_Second_Data_Byte_Is_Valid_Given_Utilised_First_Data_Byte+0x36>
 8000ac6:	7808      	ldrb	r0, [r1, #0]
 8000ac8:	387f      	subs	r0, #127	@ 0x7f
 8000aca:	4243      	negs	r3, r0
 8000acc:	4158      	adcs	r0, r3
 8000ace:	b2c0      	uxtb	r0, r0
 8000ad0:	e7f5      	b.n	8000abe <Channel_Mode_CC_Second_Data_Byte_Is_Valid_Given_Utilised_First_Data_Byte+0x22>
 8000ad2:	2001      	movs	r0, #1
 8000ad4:	e7f3      	b.n	8000abe <Channel_Mode_CC_Second_Data_Byte_Is_Valid_Given_Utilised_First_Data_Byte+0x22>
 8000ad6:	46c0      	nop			@ (mov r8, r8)

08000ad8 <Is_Sysex_Start_Status_Byte>:
 8000ad8:	7800      	ldrb	r0, [r0, #0]
 8000ada:	38f0      	subs	r0, #240	@ 0xf0
 8000adc:	4243      	negs	r3, r0
 8000ade:	4158      	adcs	r0, r3
 8000ae0:	b2c0      	uxtb	r0, r0
 8000ae2:	4770      	bx	lr

08000ae4 <Is_Channelised_Status_Byte_On_Basic_Channel>:
 8000ae4:	b082      	sub	sp, #8
 8000ae6:	466b      	mov	r3, sp
 8000ae8:	71d9      	strb	r1, [r3, #7]
 8000aea:	7802      	ldrb	r2, [r0, #0]
 8000aec:	200f      	movs	r0, #15
 8000aee:	3307      	adds	r3, #7
 8000af0:	781b      	ldrb	r3, [r3, #0]
 8000af2:	4010      	ands	r0, r2
 8000af4:	1ac0      	subs	r0, r0, r3
 8000af6:	4243      	negs	r3, r0
 8000af8:	4158      	adcs	r0, r3
 8000afa:	b2c0      	uxtb	r0, r0
 8000afc:	b002      	add	sp, #8
 8000afe:	4770      	bx	lr

08000b00 <Is_Data_Buffer_Empty>:
 8000b00:	7802      	ldrb	r2, [r0, #0]
 8000b02:	7843      	ldrb	r3, [r0, #1]
 8000b04:	18d2      	adds	r2, r2, r3
 8000b06:	7883      	ldrb	r3, [r0, #2]
 8000b08:	189b      	adds	r3, r3, r2
 8000b0a:	78c2      	ldrb	r2, [r0, #3]
 8000b0c:	18d2      	adds	r2, r2, r3
 8000b0e:	7903      	ldrb	r3, [r0, #4]
 8000b10:	189b      	adds	r3, r3, r2
 8000b12:	7942      	ldrb	r2, [r0, #5]
 8000b14:	18d2      	adds	r2, r2, r3
 8000b16:	7983      	ldrb	r3, [r0, #6]
 8000b18:	189b      	adds	r3, r3, r2
 8000b1a:	79c2      	ldrb	r2, [r0, #7]
 8000b1c:	18d2      	adds	r2, r2, r3
 8000b1e:	7a03      	ldrb	r3, [r0, #8]
 8000b20:	7a40      	ldrb	r0, [r0, #9]
 8000b22:	189b      	adds	r3, r3, r2
 8000b24:	18c0      	adds	r0, r0, r3
 8000b26:	b280      	uxth	r0, r0
 8000b28:	4243      	negs	r3, r0
 8000b2a:	4158      	adcs	r0, r3
 8000b2c:	b2c0      	uxtb	r0, r0
 8000b2e:	4770      	bx	lr

08000b30 <Clear_Data_Buffer>:
 8000b30:	2300      	movs	r3, #0
 8000b32:	7003      	strb	r3, [r0, #0]
 8000b34:	7043      	strb	r3, [r0, #1]
 8000b36:	7083      	strb	r3, [r0, #2]
 8000b38:	70c3      	strb	r3, [r0, #3]
 8000b3a:	7103      	strb	r3, [r0, #4]
 8000b3c:	7143      	strb	r3, [r0, #5]
 8000b3e:	7183      	strb	r3, [r0, #6]
 8000b40:	71c3      	strb	r3, [r0, #7]
 8000b42:	7203      	strb	r3, [r0, #8]
 8000b44:	7243      	strb	r3, [r0, #9]
 8000b46:	2001      	movs	r0, #1
 8000b48:	4770      	bx	lr
 8000b4a:	46c0      	nop			@ (mov r8, r8)

08000b4c <Is_Program_Change_Data_Byte_In_Range>:
 8000b4c:	7800      	ldrb	r0, [r0, #0]
 8000b4e:	4288      	cmp	r0, r1
 8000b50:	4180      	sbcs	r0, r0
 8000b52:	4240      	negs	r0, r0
 8000b54:	4770      	bx	lr
 8000b56:	46c0      	nop			@ (mov r8, r8)

08000b58 <Is_System_Real_Time_Status_Byte>:
 8000b58:	7803      	ldrb	r3, [r0, #0]
 8000b5a:	2bf8      	cmp	r3, #248	@ 0xf8
 8000b5c:	d011      	beq.n	8000b82 <Is_System_Real_Time_Status_Byte+0x2a>
 8000b5e:	7803      	ldrb	r3, [r0, #0]
 8000b60:	2bfa      	cmp	r3, #250	@ 0xfa
 8000b62:	d00e      	beq.n	8000b82 <Is_System_Real_Time_Status_Byte+0x2a>
 8000b64:	7803      	ldrb	r3, [r0, #0]
 8000b66:	2bfb      	cmp	r3, #251	@ 0xfb
 8000b68:	d00b      	beq.n	8000b82 <Is_System_Real_Time_Status_Byte+0x2a>
 8000b6a:	7803      	ldrb	r3, [r0, #0]
 8000b6c:	2bfc      	cmp	r3, #252	@ 0xfc
 8000b6e:	d008      	beq.n	8000b82 <Is_System_Real_Time_Status_Byte+0x2a>
 8000b70:	7803      	ldrb	r3, [r0, #0]
 8000b72:	2bfe      	cmp	r3, #254	@ 0xfe
 8000b74:	d005      	beq.n	8000b82 <Is_System_Real_Time_Status_Byte+0x2a>
 8000b76:	7800      	ldrb	r0, [r0, #0]
 8000b78:	38ff      	subs	r0, #255	@ 0xff
 8000b7a:	4243      	negs	r3, r0
 8000b7c:	4158      	adcs	r0, r3
 8000b7e:	b2c0      	uxtb	r0, r0
 8000b80:	e000      	b.n	8000b84 <Is_System_Real_Time_Status_Byte+0x2c>
 8000b82:	2001      	movs	r0, #1
 8000b84:	4770      	bx	lr
 8000b86:	46c0      	nop			@ (mov r8, r8)

08000b88 <Is_OMNI_On>:
 8000b88:	2180      	movs	r1, #128	@ 0x80
 8000b8a:	b510      	push	{r4, lr}
 8000b8c:	00c9      	lsls	r1, r1, #3
 8000b8e:	f002 fcc5 	bl	800351c <Get_Status_Bit>
 8000b92:	3801      	subs	r0, #1
 8000b94:	4243      	negs	r3, r0
 8000b96:	4158      	adcs	r0, r3
 8000b98:	b2c0      	uxtb	r0, r0
 8000b9a:	bd10      	pop	{r4, pc}

08000b9c <Reset_and_Stop_MIDI_Software_Timer>:
 8000b9c:	b570      	push	{r4, r5, r6, lr}
 8000b9e:	000c      	movs	r4, r1
 8000ba0:	2180      	movs	r1, #128	@ 0x80
 8000ba2:	0005      	movs	r5, r0
 8000ba4:	0049      	lsls	r1, r1, #1
 8000ba6:	0020      	movs	r0, r4
 8000ba8:	f002 fcc2 	bl	8003530 <Clear_Status_Bit>
 8000bac:	2180      	movs	r1, #128	@ 0x80
 8000bae:	0020      	movs	r0, r4
 8000bb0:	0089      	lsls	r1, r1, #2
 8000bb2:	f002 fcbd 	bl	8003530 <Clear_Status_Bit>
 8000bb6:	2300      	movs	r3, #0
 8000bb8:	2001      	movs	r0, #1
 8000bba:	602b      	str	r3, [r5, #0]
 8000bbc:	bd70      	pop	{r4, r5, r6, pc}
 8000bbe:	46c0      	nop			@ (mov r8, r8)

08000bc0 <Reset_All_Controllers>:
 8000bc0:	b530      	push	{r4, r5, lr}
 8000bc2:	4d11      	ldr	r5, [pc, #68]	@ (8000c08 <Reset_All_Controllers+0x48>)
 8000bc4:	4c11      	ldr	r4, [pc, #68]	@ (8000c0c <Reset_All_Controllers+0x4c>)
 8000bc6:	782b      	ldrb	r3, [r5, #0]
 8000bc8:	4811      	ldr	r0, [pc, #68]	@ (8000c10 <Reset_All_Controllers+0x50>)
 8000bca:	b2db      	uxtb	r3, r3
 8000bcc:	706b      	strb	r3, [r5, #1]
 8000bce:	7823      	ldrb	r3, [r4, #0]
 8000bd0:	4910      	ldr	r1, [pc, #64]	@ (8000c14 <Reset_All_Controllers+0x54>)
 8000bd2:	b2db      	uxtb	r3, r3
 8000bd4:	7063      	strb	r3, [r4, #1]
 8000bd6:	7803      	ldrb	r3, [r0, #0]
 8000bd8:	4a0f      	ldr	r2, [pc, #60]	@ (8000c18 <Reset_All_Controllers+0x58>)
 8000bda:	b2db      	uxtb	r3, r3
 8000bdc:	7043      	strb	r3, [r0, #1]
 8000bde:	780b      	ldrb	r3, [r1, #0]
 8000be0:	b2db      	uxtb	r3, r3
 8000be2:	704b      	strb	r3, [r1, #1]
 8000be4:	7813      	ldrb	r3, [r2, #0]
 8000be6:	b2db      	uxtb	r3, r3
 8000be8:	7053      	strb	r3, [r2, #1]
 8000bea:	2302      	movs	r3, #2
 8000bec:	702b      	strb	r3, [r5, #0]
 8000bee:	7023      	strb	r3, [r4, #0]
 8000bf0:	7003      	strb	r3, [r0, #0]
 8000bf2:	700b      	strb	r3, [r1, #0]
 8000bf4:	7013      	strb	r3, [r2, #0]
 8000bf6:	223f      	movs	r2, #63	@ 0x3f
 8000bf8:	4b08      	ldr	r3, [pc, #32]	@ (8000c1c <Reset_All_Controllers+0x5c>)
 8000bfa:	2001      	movs	r0, #1
 8000bfc:	701a      	strb	r2, [r3, #0]
 8000bfe:	705a      	strb	r2, [r3, #1]
 8000c00:	709a      	strb	r2, [r3, #2]
 8000c02:	70da      	strb	r2, [r3, #3]
 8000c04:	711a      	strb	r2, [r3, #4]
 8000c06:	bd30      	pop	{r4, r5, pc}
 8000c08:	20000434 	.word	0x20000434
 8000c0c:	2000043c 	.word	0x2000043c
 8000c10:	20000438 	.word	0x20000438
 8000c14:	20000430 	.word	0x20000430
 8000c18:	2000042c 	.word	0x2000042c
 8000c1c:	2000046c 	.word	0x2000046c

08000c20 <Set_Local_Control>:
 8000c20:	b530      	push	{r4, r5, lr}
 8000c22:	4d0e      	ldr	r5, [pc, #56]	@ (8000c5c <Set_Local_Control+0x3c>)
 8000c24:	4c0e      	ldr	r4, [pc, #56]	@ (8000c60 <Set_Local_Control+0x40>)
 8000c26:	782b      	ldrb	r3, [r5, #0]
 8000c28:	480e      	ldr	r0, [pc, #56]	@ (8000c64 <Set_Local_Control+0x44>)
 8000c2a:	b2db      	uxtb	r3, r3
 8000c2c:	706b      	strb	r3, [r5, #1]
 8000c2e:	7823      	ldrb	r3, [r4, #0]
 8000c30:	490d      	ldr	r1, [pc, #52]	@ (8000c68 <Set_Local_Control+0x48>)
 8000c32:	b2db      	uxtb	r3, r3
 8000c34:	7063      	strb	r3, [r4, #1]
 8000c36:	7803      	ldrb	r3, [r0, #0]
 8000c38:	4a0c      	ldr	r2, [pc, #48]	@ (8000c6c <Set_Local_Control+0x4c>)
 8000c3a:	b2db      	uxtb	r3, r3
 8000c3c:	7043      	strb	r3, [r0, #1]
 8000c3e:	780b      	ldrb	r3, [r1, #0]
 8000c40:	b2db      	uxtb	r3, r3
 8000c42:	704b      	strb	r3, [r1, #1]
 8000c44:	7813      	ldrb	r3, [r2, #0]
 8000c46:	b2db      	uxtb	r3, r3
 8000c48:	7053      	strb	r3, [r2, #1]
 8000c4a:	2301      	movs	r3, #1
 8000c4c:	702b      	strb	r3, [r5, #0]
 8000c4e:	7023      	strb	r3, [r4, #0]
 8000c50:	7003      	strb	r3, [r0, #0]
 8000c52:	2001      	movs	r0, #1
 8000c54:	700b      	strb	r3, [r1, #0]
 8000c56:	7013      	strb	r3, [r2, #0]
 8000c58:	bd30      	pop	{r4, r5, pc}
 8000c5a:	46c0      	nop			@ (mov r8, r8)
 8000c5c:	20000434 	.word	0x20000434
 8000c60:	2000043c 	.word	0x2000043c
 8000c64:	20000438 	.word	0x20000438
 8000c68:	20000430 	.word	0x20000430
 8000c6c:	2000042c 	.word	0x2000042c

08000c70 <Set_OMNI_Off>:
 8000c70:	2180      	movs	r1, #128	@ 0x80
 8000c72:	b510      	push	{r4, lr}
 8000c74:	00c9      	lsls	r1, r1, #3
 8000c76:	f002 fc5b 	bl	8003530 <Clear_Status_Bit>
 8000c7a:	2001      	movs	r0, #1
 8000c7c:	bd10      	pop	{r4, pc}
 8000c7e:	46c0      	nop			@ (mov r8, r8)

08000c80 <Set_OMNI_On>:
 8000c80:	2180      	movs	r1, #128	@ 0x80
 8000c82:	b510      	push	{r4, lr}
 8000c84:	00c9      	lsls	r1, r1, #3
 8000c86:	f002 fc4f 	bl	8003528 <Set_Status_Bit>
 8000c8a:	2001      	movs	r0, #1
 8000c8c:	bd10      	pop	{r4, pc}
 8000c8e:	46c0      	nop			@ (mov r8, r8)

08000c90 <Start_UART_Receive>:
 8000c90:	b510      	push	{r4, lr}
 8000c92:	2201      	movs	r2, #1
 8000c94:	4902      	ldr	r1, [pc, #8]	@ (8000ca0 <Start_UART_Receive+0x10>)
 8000c96:	4803      	ldr	r0, [pc, #12]	@ (8000ca4 <Start_UART_Receive+0x14>)
 8000c98:	f006 fae8 	bl	800726c <HAL_UART_Receive_DMA>
 8000c9c:	2001      	movs	r0, #1
 8000c9e:	bd10      	pop	{r4, pc}
 8000ca0:	200004d4 	.word	0x200004d4
 8000ca4:	20000604 	.word	0x20000604

08000ca8 <Pot_Check>:
 8000ca8:	b5f8      	push	{r3, r4, r5, r6, r7, lr}
 8000caa:	2904      	cmp	r1, #4
 8000cac:	d900      	bls.n	8000cb0 <Pot_Check+0x8>
 8000cae:	e06f      	b.n	8000d90 <Pot_Check+0xe8>
 8000cb0:	4b39      	ldr	r3, [pc, #228]	@ (8000d98 <Pot_Check+0xf0>)
 8000cb2:	0089      	lsls	r1, r1, #2
 8000cb4:	585b      	ldr	r3, [r3, r1]
 8000cb6:	469f      	mov	pc, r3
 8000cb8:	2602      	movs	r6, #2
 8000cba:	2700      	movs	r7, #0
 8000cbc:	4d37      	ldr	r5, [pc, #220]	@ (8000d9c <Pot_Check+0xf4>)
 8000cbe:	4b38      	ldr	r3, [pc, #224]	@ (8000da0 <Pot_Check+0xf8>)
 8000cc0:	4c38      	ldr	r4, [pc, #224]	@ (8000da4 <Pot_Check+0xfc>)
 8000cc2:	4939      	ldr	r1, [pc, #228]	@ (8000da8 <Pot_Check+0x100>)
 8000cc4:	300c      	adds	r0, #12
 8000cc6:	781a      	ldrb	r2, [r3, #0]
 8000cc8:	2a00      	cmp	r2, #0
 8000cca:	d111      	bne.n	8000cf0 <Pot_Check+0x48>
 8000ccc:	8802      	ldrh	r2, [r0, #0]
 8000cce:	800a      	strh	r2, [r1, #0]
 8000cd0:	781a      	ldrb	r2, [r3, #0]
 8000cd2:	3201      	adds	r2, #1
 8000cd4:	b2d2      	uxtb	r2, r2
 8000cd6:	701a      	strb	r2, [r3, #0]
 8000cd8:	2001      	movs	r0, #1
 8000cda:	bdf8      	pop	{r3, r4, r5, r6, r7, pc}
 8000cdc:	4b33      	ldr	r3, [pc, #204]	@ (8000dac <Pot_Check+0x104>)
 8000cde:	2603      	movs	r6, #3
 8000ce0:	781a      	ldrb	r2, [r3, #0]
 8000ce2:	2700      	movs	r7, #0
 8000ce4:	4d32      	ldr	r5, [pc, #200]	@ (8000db0 <Pot_Check+0x108>)
 8000ce6:	4c33      	ldr	r4, [pc, #204]	@ (8000db4 <Pot_Check+0x10c>)
 8000ce8:	4933      	ldr	r1, [pc, #204]	@ (8000db8 <Pot_Check+0x110>)
 8000cea:	3022      	adds	r0, #34	@ 0x22
 8000cec:	2a00      	cmp	r2, #0
 8000cee:	d0ed      	beq.n	8000ccc <Pot_Check+0x24>
 8000cf0:	781a      	ldrb	r2, [r3, #0]
 8000cf2:	2a01      	cmp	r2, #1
 8000cf4:	d02c      	beq.n	8000d50 <Pot_Check+0xa8>
 8000cf6:	781a      	ldrb	r2, [r3, #0]
 8000cf8:	2a02      	cmp	r2, #2
 8000cfa:	d1ed      	bne.n	8000cd8 <Pot_Check+0x30>
 8000cfc:	2200      	movs	r2, #0
 8000cfe:	701a      	strb	r2, [r3, #0]
 8000d00:	880b      	ldrh	r3, [r1, #0]
 8000d02:	8822      	ldrh	r2, [r4, #0]
 8000d04:	4293      	cmp	r3, r2
 8000d06:	d92a      	bls.n	8000d5e <Pot_Check+0xb6>
 8000d08:	1a9b      	subs	r3, r3, r2
 8000d0a:	b29b      	uxth	r3, r3
 8000d0c:	42b3      	cmp	r3, r6
 8000d0e:	d9e3      	bls.n	8000cd8 <Pot_Check+0x30>
 8000d10:	2d00      	cmp	r5, #0
 8000d12:	d029      	beq.n	8000d68 <Pot_Check+0xc0>
 8000d14:	782b      	ldrb	r3, [r5, #0]
 8000d16:	b2db      	uxtb	r3, r3
 8000d18:	706b      	strb	r3, [r5, #1]
 8000d1a:	2301      	movs	r3, #1
 8000d1c:	702b      	strb	r3, [r5, #0]
 8000d1e:	e7db      	b.n	8000cd8 <Pot_Check+0x30>
 8000d20:	2606      	movs	r6, #6
 8000d22:	2500      	movs	r5, #0
 8000d24:	4f25      	ldr	r7, [pc, #148]	@ (8000dbc <Pot_Check+0x114>)
 8000d26:	4b26      	ldr	r3, [pc, #152]	@ (8000dc0 <Pot_Check+0x118>)
 8000d28:	4c26      	ldr	r4, [pc, #152]	@ (8000dc4 <Pot_Check+0x11c>)
 8000d2a:	4927      	ldr	r1, [pc, #156]	@ (8000dc8 <Pot_Check+0x120>)
 8000d2c:	3008      	adds	r0, #8
 8000d2e:	e7ca      	b.n	8000cc6 <Pot_Check+0x1e>
 8000d30:	2602      	movs	r6, #2
 8000d32:	2700      	movs	r7, #0
 8000d34:	4d25      	ldr	r5, [pc, #148]	@ (8000dcc <Pot_Check+0x124>)
 8000d36:	4b26      	ldr	r3, [pc, #152]	@ (8000dd0 <Pot_Check+0x128>)
 8000d38:	4c26      	ldr	r4, [pc, #152]	@ (8000dd4 <Pot_Check+0x12c>)
 8000d3a:	4927      	ldr	r1, [pc, #156]	@ (8000dd8 <Pot_Check+0x130>)
 8000d3c:	300a      	adds	r0, #10
 8000d3e:	e7c2      	b.n	8000cc6 <Pot_Check+0x1e>
 8000d40:	2602      	movs	r6, #2
 8000d42:	2700      	movs	r7, #0
 8000d44:	4d25      	ldr	r5, [pc, #148]	@ (8000ddc <Pot_Check+0x134>)
 8000d46:	4b26      	ldr	r3, [pc, #152]	@ (8000de0 <Pot_Check+0x138>)
 8000d48:	4c26      	ldr	r4, [pc, #152]	@ (8000de4 <Pot_Check+0x13c>)
 8000d4a:	4927      	ldr	r1, [pc, #156]	@ (8000de8 <Pot_Check+0x140>)
 8000d4c:	3006      	adds	r0, #6
 8000d4e:	e7ba      	b.n	8000cc6 <Pot_Check+0x1e>
 8000d50:	8802      	ldrh	r2, [r0, #0]
 8000d52:	8022      	strh	r2, [r4, #0]
 8000d54:	781a      	ldrb	r2, [r3, #0]
 8000d56:	3201      	adds	r2, #1
 8000d58:	b2d2      	uxtb	r2, r2
 8000d5a:	701a      	strb	r2, [r3, #0]
 8000d5c:	e7bc      	b.n	8000cd8 <Pot_Check+0x30>
 8000d5e:	4293      	cmp	r3, r2
 8000d60:	d2ba      	bcs.n	8000cd8 <Pot_Check+0x30>
 8000d62:	1ad3      	subs	r3, r2, r3
 8000d64:	b29b      	uxth	r3, r3
 8000d66:	e7d1      	b.n	8000d0c <Pot_Check+0x64>
 8000d68:	2f00      	cmp	r7, #0
 8000d6a:	d0b5      	beq.n	8000cd8 <Pot_Check+0x30>
 8000d6c:	783b      	ldrb	r3, [r7, #0]
 8000d6e:	4c1f      	ldr	r4, [pc, #124]	@ (8000dec <Pot_Check+0x144>)
 8000d70:	707b      	strb	r3, [r7, #1]
 8000d72:	2301      	movs	r3, #1
 8000d74:	0020      	movs	r0, r4
 8000d76:	703b      	strb	r3, [r7, #0]
 8000d78:	2120      	movs	r1, #32
 8000d7a:	f002 fbd9 	bl	8003530 <Clear_Status_Bit>
 8000d7e:	0020      	movs	r0, r4
 8000d80:	2140      	movs	r1, #64	@ 0x40
 8000d82:	f002 fbd5 	bl	8003530 <Clear_Status_Bit>
 8000d86:	2108      	movs	r1, #8
 8000d88:	0020      	movs	r0, r4
 8000d8a:	f002 fbd1 	bl	8003530 <Clear_Status_Bit>
 8000d8e:	e7a3      	b.n	8000cd8 <Pot_Check+0x30>
 8000d90:	2300      	movs	r3, #0
 8000d92:	781b      	ldrb	r3, [r3, #0]
 8000d94:	deff      	udf	#255	@ 0xff
 8000d96:	46c0      	nop			@ (mov r8, r8)
 8000d98:	08007e94 	.word	0x08007e94
 8000d9c:	20000430 	.word	0x20000430
 8000da0:	200004eb 	.word	0x200004eb
 8000da4:	200004da 	.word	0x200004da
 8000da8:	200004dc 	.word	0x200004dc
 8000dac:	200004ea 	.word	0x200004ea
 8000db0:	2000042c 	.word	0x2000042c
 8000db4:	200004d6 	.word	0x200004d6
 8000db8:	200004d8 	.word	0x200004d8
 8000dbc:	2000043c 	.word	0x2000043c
 8000dc0:	200004ed 	.word	0x200004ed
 8000dc4:	200004e2 	.word	0x200004e2
 8000dc8:	200004e4 	.word	0x200004e4
 8000dcc:	20000438 	.word	0x20000438
 8000dd0:	200004ec 	.word	0x200004ec
 8000dd4:	200004de 	.word	0x200004de
 8000dd8:	200004e0 	.word	0x200004e0
 8000ddc:	20000434 	.word	0x20000434
 8000de0:	200004ee 	.word	0x200004ee
 8000de4:	200004e6 	.word	0x200004e6
 8000de8:	200004e8 	.word	0x200004e8
 8000dec:	20000c30 	.word	0x20000c30

08000df0 <Check_Tap_Tempo_Switch_State>:
 8000df0:	b510      	push	{r4, lr}
 8000df2:	2180      	movs	r1, #128	@ 0x80
 8000df4:	0004      	movs	r4, r0
 8000df6:	20a0      	movs	r0, #160	@ 0xa0
 8000df8:	00c9      	lsls	r1, r1, #3
 8000dfa:	05c0      	lsls	r0, r0, #23
 8000dfc:	f003 fd44 	bl	8004888 <HAL_GPIO_ReadPin>
 8000e00:	2800      	cmp	r0, #0
 8000e02:	d10d      	bne.n	8000e20 <Check_Tap_Tempo_Switch_State+0x30>
 8000e04:	4a11      	ldr	r2, [pc, #68]	@ (8000e4c <Check_Tap_Tempo_Switch_State+0x5c>)
 8000e06:	7813      	ldrb	r3, [r2, #0]
 8000e08:	2b00      	cmp	r3, #0
 8000e0a:	d015      	beq.n	8000e38 <Check_Tap_Tempo_Switch_State+0x48>
 8000e0c:	3b01      	subs	r3, #1
 8000e0e:	b2db      	uxtb	r3, r3
 8000e10:	7013      	strb	r3, [r2, #0]
 8000e12:	2b00      	cmp	r3, #0
 8000e14:	d010      	beq.n	8000e38 <Check_Tap_Tempo_Switch_State+0x48>
 8000e16:	2b0e      	cmp	r3, #14
 8000e18:	d110      	bne.n	8000e3c <Check_Tap_Tempo_Switch_State+0x4c>
 8000e1a:	2300      	movs	r3, #0
 8000e1c:	7023      	strb	r3, [r4, #0]
 8000e1e:	e00d      	b.n	8000e3c <Check_Tap_Tempo_Switch_State+0x4c>
 8000e20:	490a      	ldr	r1, [pc, #40]	@ (8000e4c <Check_Tap_Tempo_Switch_State+0x5c>)
 8000e22:	780b      	ldrb	r3, [r1, #0]
 8000e24:	2b0e      	cmp	r3, #14
 8000e26:	d0f8      	beq.n	8000e1a <Check_Tap_Tempo_Switch_State+0x2a>
 8000e28:	4809      	ldr	r0, [pc, #36]	@ (8000e50 <Check_Tap_Tempo_Switch_State+0x60>)
 8000e2a:	7802      	ldrb	r2, [r0, #0]
 8000e2c:	2a04      	cmp	r2, #4
 8000e2e:	d007      	beq.n	8000e40 <Check_Tap_Tempo_Switch_State+0x50>
 8000e30:	3201      	adds	r2, #1
 8000e32:	7002      	strb	r2, [r0, #0]
 8000e34:	2b00      	cmp	r3, #0
 8000e36:	d101      	bne.n	8000e3c <Check_Tap_Tempo_Switch_State+0x4c>
 8000e38:	2301      	movs	r3, #1
 8000e3a:	7023      	strb	r3, [r4, #0]
 8000e3c:	2001      	movs	r0, #1
 8000e3e:	bd10      	pop	{r4, pc}
 8000e40:	2200      	movs	r2, #0
 8000e42:	3301      	adds	r3, #1
 8000e44:	b2db      	uxtb	r3, r3
 8000e46:	700b      	strb	r3, [r1, #0]
 8000e48:	7002      	strb	r2, [r0, #0]
 8000e4a:	e7e2      	b.n	8000e12 <Check_Tap_Tempo_Switch_State+0x22>
 8000e4c:	2000001d 	.word	0x2000001d
 8000e50:	200004d5 	.word	0x200004d5

08000e54 <SystemClock_Config>:
 8000e54:	b500      	push	{lr}
 8000e56:	b093      	sub	sp, #76	@ 0x4c
 8000e58:	2238      	movs	r2, #56	@ 0x38
 8000e5a:	2100      	movs	r1, #0
 8000e5c:	a804      	add	r0, sp, #16
 8000e5e:	f006 ffc7 	bl	8007df0 <memset>
 8000e62:	2210      	movs	r2, #16
 8000e64:	2100      	movs	r1, #0
 8000e66:	4668      	mov	r0, sp
 8000e68:	f006 ffc2 	bl	8007df0 <memset>
 8000e6c:	2080      	movs	r0, #128	@ 0x80
 8000e6e:	0080      	lsls	r0, r0, #2
 8000e70:	f003 ffac 	bl	8004dcc <HAL_PWREx_ControlVoltageScaling>
 8000e74:	2302      	movs	r3, #2
 8000e76:	9304      	str	r3, [sp, #16]
 8000e78:	930b      	str	r3, [sp, #44]	@ 0x2c
 8000e7a:	930c      	str	r3, [sp, #48]	@ 0x30
 8000e7c:	3306      	adds	r3, #6
 8000e7e:	930e      	str	r3, [sp, #56]	@ 0x38
 8000e80:	2380      	movs	r3, #128	@ 0x80
 8000e82:	029b      	lsls	r3, r3, #10
 8000e84:	930f      	str	r3, [sp, #60]	@ 0x3c
 8000e86:	23c0      	movs	r3, #192	@ 0xc0
 8000e88:	2280      	movs	r2, #128	@ 0x80
 8000e8a:	04db      	lsls	r3, r3, #19
 8000e8c:	0052      	lsls	r2, r2, #1
 8000e8e:	9310      	str	r3, [sp, #64]	@ 0x40
 8000e90:	2380      	movs	r3, #128	@ 0x80
 8000e92:	2140      	movs	r1, #64	@ 0x40
 8000e94:	9207      	str	r2, [sp, #28]
 8000e96:	2200      	movs	r2, #0
 8000e98:	059b      	lsls	r3, r3, #22
 8000e9a:	a804      	add	r0, sp, #16
 8000e9c:	9208      	str	r2, [sp, #32]
 8000e9e:	9109      	str	r1, [sp, #36]	@ 0x24
 8000ea0:	920d      	str	r2, [sp, #52]	@ 0x34
 8000ea2:	9311      	str	r3, [sp, #68]	@ 0x44
 8000ea4:	f003 ffc2 	bl	8004e2c <HAL_RCC_OscConfig>
 8000ea8:	2800      	cmp	r0, #0
 8000eaa:	d001      	beq.n	8000eb0 <SystemClock_Config+0x5c>
 8000eac:	b672      	cpsid	i
 8000eae:	e7fe      	b.n	8000eae <SystemClock_Config+0x5a>
 8000eb0:	2207      	movs	r2, #7
 8000eb2:	2302      	movs	r3, #2
 8000eb4:	9200      	str	r2, [sp, #0]
 8000eb6:	9301      	str	r3, [sp, #4]
 8000eb8:	2200      	movs	r2, #0
 8000eba:	2300      	movs	r3, #0
 8000ebc:	2102      	movs	r1, #2
 8000ebe:	4668      	mov	r0, sp
 8000ec0:	9202      	str	r2, [sp, #8]
 8000ec2:	9303      	str	r3, [sp, #12]
 8000ec4:	f004 fa68 	bl	8005398 <HAL_RCC_ClockConfig>
 8000ec8:	2800      	cmp	r0, #0
 8000eca:	d001      	beq.n	8000ed0 <SystemClock_Config+0x7c>
 8000ecc:	b672      	cpsid	i
 8000ece:	e7fe      	b.n	8000ece <SystemClock_Config+0x7a>
 8000ed0:	b013      	add	sp, #76	@ 0x4c
 8000ed2:	bd00      	pop	{pc}

08000ed4 <MX_ADC1_Init>:
 8000ed4:	b530      	push	{r4, r5, lr}
 8000ed6:	b085      	sub	sp, #20
 8000ed8:	220c      	movs	r2, #12
 8000eda:	2100      	movs	r1, #0
 8000edc:	a801      	add	r0, sp, #4
 8000ede:	f006 ff87 	bl	8007df0 <memset>
 8000ee2:	4c33      	ldr	r4, [pc, #204]	@ (8000fb0 <MX_ADC1_Init+0xdc>)
 8000ee4:	4b33      	ldr	r3, [pc, #204]	@ (8000fb4 <MX_ADC1_Init+0xe0>)
 8000ee6:	2280      	movs	r2, #128	@ 0x80
 8000ee8:	6023      	str	r3, [r4, #0]
 8000eea:	2380      	movs	r3, #128	@ 0x80
 8000eec:	2105      	movs	r1, #5
 8000eee:	0392      	lsls	r2, r2, #14
 8000ef0:	6122      	str	r2, [r4, #16]
 8000ef2:	2200      	movs	r2, #0
 8000ef4:	05db      	lsls	r3, r3, #23
 8000ef6:	2508      	movs	r5, #8
 8000ef8:	6063      	str	r3, [r4, #4]
 8000efa:	2300      	movs	r3, #0
 8000efc:	61e1      	str	r1, [r4, #28]
 8000efe:	311b      	adds	r1, #27
 8000f00:	5462      	strb	r2, [r4, r1]
 8000f02:	310c      	adds	r1, #12
 8000f04:	5462      	strb	r2, [r4, r1]
 8000f06:	0020      	movs	r0, r4
 8000f08:	3110      	adds	r1, #16
 8000f0a:	60a3      	str	r3, [r4, #8]
 8000f0c:	60e3      	str	r3, [r4, #12]
 8000f0e:	6165      	str	r5, [r4, #20]
 8000f10:	8323      	strh	r3, [r4, #24]
 8000f12:	76a2      	strb	r2, [r4, #26]
 8000f14:	6263      	str	r3, [r4, #36]	@ 0x24
 8000f16:	62a3      	str	r3, [r4, #40]	@ 0x28
 8000f18:	6323      	str	r3, [r4, #48]	@ 0x30
 8000f1a:	6363      	str	r3, [r4, #52]	@ 0x34
 8000f1c:	63a3      	str	r3, [r4, #56]	@ 0x38
 8000f1e:	5462      	strb	r2, [r4, r1]
 8000f20:	64e3      	str	r3, [r4, #76]	@ 0x4c
 8000f22:	f002 fbdb 	bl	80036dc <HAL_ADC_Init>
 8000f26:	2800      	cmp	r0, #0
 8000f28:	d001      	beq.n	8000f2e <MX_ADC1_Init+0x5a>
 8000f2a:	b672      	cpsid	i
 8000f2c:	e7fe      	b.n	8000f2c <MX_ADC1_Init+0x58>
 8000f2e:	2301      	movs	r3, #1
 8000f30:	9002      	str	r0, [sp, #8]
 8000f32:	9003      	str	r0, [sp, #12]
 8000f34:	a901      	add	r1, sp, #4
 8000f36:	0020      	movs	r0, r4
 8000f38:	9301      	str	r3, [sp, #4]
 8000f3a:	f002 fd49 	bl	80039d0 <HAL_ADC_ConfigChannel>
 8000f3e:	2800      	cmp	r0, #0
 8000f40:	d001      	beq.n	8000f46 <MX_ADC1_Init+0x72>
 8000f42:	b672      	cpsid	i
 8000f44:	e7fe      	b.n	8000f44 <MX_ADC1_Init+0x70>
 8000f46:	4b1c      	ldr	r3, [pc, #112]	@ (8000fb8 <MX_ADC1_Init+0xe4>)
 8000f48:	9003      	str	r0, [sp, #12]
 8000f4a:	9301      	str	r3, [sp, #4]
 8000f4c:	2304      	movs	r3, #4
 8000f4e:	0020      	movs	r0, r4
 8000f50:	a901      	add	r1, sp, #4
 8000f52:	9302      	str	r3, [sp, #8]
 8000f54:	f002 fd3c 	bl	80039d0 <HAL_ADC_ConfigChannel>
 8000f58:	2800      	cmp	r0, #0
 8000f5a:	d001      	beq.n	8000f60 <MX_ADC1_Init+0x8c>
 8000f5c:	b672      	cpsid	i
 8000f5e:	e7fe      	b.n	8000f5e <MX_ADC1_Init+0x8a>
 8000f60:	4b16      	ldr	r3, [pc, #88]	@ (8000fbc <MX_ADC1_Init+0xe8>)
 8000f62:	9003      	str	r0, [sp, #12]
 8000f64:	a901      	add	r1, sp, #4
 8000f66:	0020      	movs	r0, r4
 8000f68:	9301      	str	r3, [sp, #4]
 8000f6a:	9502      	str	r5, [sp, #8]
 8000f6c:	f002 fd30 	bl	80039d0 <HAL_ADC_ConfigChannel>
 8000f70:	2800      	cmp	r0, #0
 8000f72:	d001      	beq.n	8000f78 <MX_ADC1_Init+0xa4>
 8000f74:	b672      	cpsid	i
 8000f76:	e7fe      	b.n	8000f76 <MX_ADC1_Init+0xa2>
 8000f78:	4b11      	ldr	r3, [pc, #68]	@ (8000fc0 <MX_ADC1_Init+0xec>)
 8000f7a:	9003      	str	r0, [sp, #12]
 8000f7c:	9301      	str	r3, [sp, #4]
 8000f7e:	230c      	movs	r3, #12
 8000f80:	0020      	movs	r0, r4
 8000f82:	a901      	add	r1, sp, #4
 8000f84:	9302      	str	r3, [sp, #8]
 8000f86:	f002 fd23 	bl	80039d0 <HAL_ADC_ConfigChannel>
 8000f8a:	2800      	cmp	r0, #0
 8000f8c:	d001      	beq.n	8000f92 <MX_ADC1_Init+0xbe>
 8000f8e:	b672      	cpsid	i
 8000f90:	e7fe      	b.n	8000f90 <MX_ADC1_Init+0xbc>
 8000f92:	4b0c      	ldr	r3, [pc, #48]	@ (8000fc4 <MX_ADC1_Init+0xf0>)
 8000f94:	9003      	str	r0, [sp, #12]
 8000f96:	9301      	str	r3, [sp, #4]
 8000f98:	2310      	movs	r3, #16
 8000f9a:	0020      	movs	r0, r4
 8000f9c:	a901      	add	r1, sp, #4
 8000f9e:	9302      	str	r3, [sp, #8]
 8000fa0:	f002 fd16 	bl	80039d0 <HAL_ADC_ConfigChannel>
 8000fa4:	2800      	cmp	r0, #0
 8000fa6:	d001      	beq.n	8000fac <MX_ADC1_Init+0xd8>
 8000fa8:	b672      	cpsid	i
 8000faa:	e7fe      	b.n	8000faa <MX_ADC1_Init+0xd6>
 8000fac:	b005      	add	sp, #20
 8000fae:	bd30      	pop	{r4, r5, pc}
 8000fb0:	20000b94 	.word	0x20000b94
 8000fb4:	40012400 	.word	0x40012400
 8000fb8:	04000002 	.word	0x04000002
 8000fbc:	10000010 	.word	0x10000010
 8000fc0:	14000020 	.word	0x14000020
 8000fc4:	18000040 	.word	0x18000040

08000fc8 <MX_TIM16_Init>:
 8000fc8:	b530      	push	{r4, r5, lr}
 8000fca:	b097      	sub	sp, #92	@ 0x5c
 8000fcc:	221c      	movs	r2, #28
 8000fce:	2100      	movs	r1, #0
 8000fd0:	4668      	mov	r0, sp
 8000fd2:	f006 ff0d 	bl	8007df0 <memset>
 8000fd6:	2234      	movs	r2, #52	@ 0x34
 8000fd8:	2100      	movs	r1, #0
 8000fda:	a808      	add	r0, sp, #32
 8000fdc:	f006 ff08 	bl	8007df0 <memset>
 8000fe0:	4c23      	ldr	r4, [pc, #140]	@ (8001070 <MX_TIM16_Init+0xa8>)
 8000fe2:	4b24      	ldr	r3, [pc, #144]	@ (8001074 <MX_TIM16_Init+0xac>)
 8000fe4:	2280      	movs	r2, #128	@ 0x80
 8000fe6:	6023      	str	r3, [r4, #0]
 8000fe8:	2300      	movs	r3, #0
 8000fea:	25ff      	movs	r5, #255	@ 0xff
 8000fec:	6063      	str	r3, [r4, #4]
 8000fee:	60a3      	str	r3, [r4, #8]
 8000ff0:	0092      	lsls	r2, r2, #2
 8000ff2:	6163      	str	r3, [r4, #20]
 8000ff4:	0020      	movs	r0, r4
 8000ff6:	3380      	adds	r3, #128	@ 0x80
 8000ff8:	60e5      	str	r5, [r4, #12]
 8000ffa:	6122      	str	r2, [r4, #16]
 8000ffc:	61a3      	str	r3, [r4, #24]
 8000ffe:	f004 fbb7 	bl	8005770 <HAL_TIM_Base_Init>
 8001002:	2800      	cmp	r0, #0
 8001004:	d001      	beq.n	800100a <MX_TIM16_Init+0x42>
 8001006:	b672      	cpsid	i
 8001008:	e7fe      	b.n	8001008 <MX_TIM16_Init+0x40>
 800100a:	0020      	movs	r0, r4
 800100c:	f004 fce6 	bl	80059dc <HAL_TIM_OC_Init>
 8001010:	2800      	cmp	r0, #0
 8001012:	d001      	beq.n	8001018 <MX_TIM16_Init+0x50>
 8001014:	b672      	cpsid	i
 8001016:	e7fe      	b.n	8001016 <MX_TIM16_Init+0x4e>
 8001018:	2200      	movs	r2, #0
 800101a:	2300      	movs	r3, #0
 800101c:	9000      	str	r0, [sp, #0]
 800101e:	9002      	str	r0, [sp, #8]
 8001020:	9003      	str	r0, [sp, #12]
 8001022:	9006      	str	r0, [sp, #24]
 8001024:	4669      	mov	r1, sp
 8001026:	0020      	movs	r0, r4
 8001028:	9204      	str	r2, [sp, #16]
 800102a:	9305      	str	r3, [sp, #20]
 800102c:	9501      	str	r5, [sp, #4]
 800102e:	f005 fa15 	bl	800645c <HAL_TIM_OC_ConfigChannel>
 8001032:	2800      	cmp	r0, #0
 8001034:	d001      	beq.n	800103a <MX_TIM16_Init+0x72>
 8001036:	b672      	cpsid	i
 8001038:	e7fe      	b.n	8001038 <MX_TIM16_Init+0x70>
 800103a:	2108      	movs	r1, #8
 800103c:	6822      	ldr	r2, [r4, #0]
 800103e:	9008      	str	r0, [sp, #32]
 8001040:	6993      	ldr	r3, [r2, #24]
 8001042:	9009      	str	r0, [sp, #36]	@ 0x24
 8001044:	438b      	bics	r3, r1
 8001046:	6193      	str	r3, [r2, #24]
 8001048:	2380      	movs	r3, #128	@ 0x80
 800104a:	2200      	movs	r2, #0
 800104c:	900a      	str	r0, [sp, #40]	@ 0x28
 800104e:	900b      	str	r0, [sp, #44]	@ 0x2c
 8001050:	019b      	lsls	r3, r3, #6
 8001052:	900e      	str	r0, [sp, #56]	@ 0x38
 8001054:	9014      	str	r0, [sp, #80]	@ 0x50
 8001056:	a908      	add	r1, sp, #32
 8001058:	0020      	movs	r0, r4
 800105a:	920c      	str	r2, [sp, #48]	@ 0x30
 800105c:	930d      	str	r3, [sp, #52]	@ 0x34
 800105e:	f005 ff5d 	bl	8006f1c <HAL_TIMEx_ConfigBreakDeadTime>
 8001062:	2800      	cmp	r0, #0
 8001064:	d001      	beq.n	800106a <MX_TIM16_Init+0xa2>
 8001066:	b672      	cpsid	i
 8001068:	e7fe      	b.n	8001068 <MX_TIM16_Init+0xa0>
 800106a:	b017      	add	sp, #92	@ 0x5c
 800106c:	bd30      	pop	{r4, r5, pc}
 800106e:	46c0      	nop			@ (mov r8, r8)
 8001070:	20000904 	.word	0x20000904
 8001074:	40014400 	.word	0x40014400

08001078 <MX_TIM2_Init>:
 8001078:	b510      	push	{r4, lr}
 800107a:	b08c      	sub	sp, #48	@ 0x30
 800107c:	2210      	movs	r2, #16
 800107e:	2100      	movs	r1, #0
 8001080:	a808      	add	r0, sp, #32
 8001082:	f006 feb5 	bl	8007df0 <memset>
 8001086:	220c      	movs	r2, #12
 8001088:	2100      	movs	r1, #0
 800108a:	a801      	add	r0, sp, #4
 800108c:	f006 feb0 	bl	8007df0 <memset>
 8001090:	2210      	movs	r2, #16
 8001092:	2100      	movs	r1, #0
 8001094:	a804      	add	r0, sp, #16
 8001096:	f006 feab 	bl	8007df0 <memset>
 800109a:	2380      	movs	r3, #128	@ 0x80
 800109c:	4c22      	ldr	r4, [pc, #136]	@ (8001128 <MX_TIM2_Init+0xb0>)
 800109e:	05db      	lsls	r3, r3, #23
 80010a0:	6023      	str	r3, [r4, #0]
 80010a2:	233f      	movs	r3, #63	@ 0x3f
 80010a4:	6063      	str	r3, [r4, #4]
 80010a6:	2300      	movs	r3, #0
 80010a8:	60a3      	str	r3, [r4, #8]
 80010aa:	4b20      	ldr	r3, [pc, #128]	@ (800112c <MX_TIM2_Init+0xb4>)
 80010ac:	0020      	movs	r0, r4
 80010ae:	60e3      	str	r3, [r4, #12]
 80010b0:	2380      	movs	r3, #128	@ 0x80
 80010b2:	009b      	lsls	r3, r3, #2
 80010b4:	6123      	str	r3, [r4, #16]
 80010b6:	3b81      	subs	r3, #129	@ 0x81
 80010b8:	3bff      	subs	r3, #255	@ 0xff
 80010ba:	61a3      	str	r3, [r4, #24]
 80010bc:	f004 fb58 	bl	8005770 <HAL_TIM_Base_Init>
 80010c0:	2800      	cmp	r0, #0
 80010c2:	d001      	beq.n	80010c8 <MX_TIM2_Init+0x50>
 80010c4:	b672      	cpsid	i
 80010c6:	e7fe      	b.n	80010c6 <MX_TIM2_Init+0x4e>
 80010c8:	2380      	movs	r3, #128	@ 0x80
 80010ca:	0020      	movs	r0, r4
 80010cc:	015b      	lsls	r3, r3, #5
 80010ce:	a908      	add	r1, sp, #32
 80010d0:	9308      	str	r3, [sp, #32]
 80010d2:	f005 fd9f 	bl	8006c14 <HAL_TIM_ConfigClockSource>
 80010d6:	2800      	cmp	r0, #0
 80010d8:	d001      	beq.n	80010de <MX_TIM2_Init+0x66>
 80010da:	b672      	cpsid	i
 80010dc:	e7fe      	b.n	80010dc <MX_TIM2_Init+0x64>
 80010de:	0020      	movs	r0, r4
 80010e0:	f004 ff7c 	bl	8005fdc <HAL_TIM_IC_Init>
 80010e4:	2800      	cmp	r0, #0
 80010e6:	d001      	beq.n	80010ec <MX_TIM2_Init+0x74>
 80010e8:	b672      	cpsid	i
 80010ea:	e7fe      	b.n	80010ea <MX_TIM2_Init+0x72>
 80010ec:	9001      	str	r0, [sp, #4]
 80010ee:	9003      	str	r0, [sp, #12]
 80010f0:	a901      	add	r1, sp, #4
 80010f2:	0020      	movs	r0, r4
 80010f4:	f005 feda 	bl	8006eac <HAL_TIMEx_MasterConfigSynchronization>
 80010f8:	2800      	cmp	r0, #0
 80010fa:	d001      	beq.n	8001100 <MX_TIM2_Init+0x88>
 80010fc:	b672      	cpsid	i
 80010fe:	e7fe      	b.n	80010fe <MX_TIM2_Init+0x86>
 8001100:	2202      	movs	r2, #2
 8001102:	2301      	movs	r3, #1
 8001104:	9204      	str	r2, [sp, #16]
 8001106:	9305      	str	r3, [sp, #20]
 8001108:	2200      	movs	r2, #0
 800110a:	230f      	movs	r3, #15
 800110c:	0020      	movs	r0, r4
 800110e:	9206      	str	r2, [sp, #24]
 8001110:	9307      	str	r3, [sp, #28]
 8001112:	a904      	add	r1, sp, #16
 8001114:	2200      	movs	r2, #0
 8001116:	f005 faf7 	bl	8006708 <HAL_TIM_IC_ConfigChannel>
 800111a:	2800      	cmp	r0, #0
 800111c:	d001      	beq.n	8001122 <MX_TIM2_Init+0xaa>
 800111e:	b672      	cpsid	i
 8001120:	e7fe      	b.n	8001120 <MX_TIM2_Init+0xa8>
 8001122:	b00c      	add	sp, #48	@ 0x30
 8001124:	bd10      	pop	{r4, pc}
 8001126:	46c0      	nop			@ (mov r8, r8)
 8001128:	20000848 	.word	0x20000848
 800112c:	001fffff 	.word	0x001fffff

08001130 <MX_TIM3_Init>:
 8001130:	b510      	push	{r4, lr}
 8001132:	b090      	sub	sp, #64	@ 0x40
 8001134:	2210      	movs	r2, #16
 8001136:	2100      	movs	r1, #0
 8001138:	a804      	add	r0, sp, #16
 800113a:	f006 fe59 	bl	8007df0 <memset>
 800113e:	220c      	movs	r2, #12
 8001140:	2100      	movs	r1, #0
 8001142:	a801      	add	r0, sp, #4
 8001144:	f006 fe54 	bl	8007df0 <memset>
 8001148:	221c      	movs	r2, #28
 800114a:	2100      	movs	r1, #0
 800114c:	a808      	add	r0, sp, #32
 800114e:	f006 fe4f 	bl	8007df0 <memset>
 8001152:	4c23      	ldr	r4, [pc, #140]	@ (80011e0 <MX_TIM3_Init+0xb0>)
 8001154:	4b23      	ldr	r3, [pc, #140]	@ (80011e4 <MX_TIM3_Init+0xb4>)
 8001156:	0020      	movs	r0, r4
 8001158:	6023      	str	r3, [r4, #0]
 800115a:	4b23      	ldr	r3, [pc, #140]	@ (80011e8 <MX_TIM3_Init+0xb8>)
 800115c:	6063      	str	r3, [r4, #4]
 800115e:	2300      	movs	r3, #0
 8001160:	60a3      	str	r3, [r4, #8]
 8001162:	4b22      	ldr	r3, [pc, #136]	@ (80011ec <MX_TIM3_Init+0xbc>)
 8001164:	60e3      	str	r3, [r4, #12]
 8001166:	2380      	movs	r3, #128	@ 0x80
 8001168:	009b      	lsls	r3, r3, #2
 800116a:	6123      	str	r3, [r4, #16]
 800116c:	3b81      	subs	r3, #129	@ 0x81
 800116e:	3bff      	subs	r3, #255	@ 0xff
 8001170:	61a3      	str	r3, [r4, #24]
 8001172:	f004 fafd 	bl	8005770 <HAL_TIM_Base_Init>
 8001176:	2800      	cmp	r0, #0
 8001178:	d001      	beq.n	800117e <MX_TIM3_Init+0x4e>
 800117a:	b672      	cpsid	i
 800117c:	e7fe      	b.n	800117c <MX_TIM3_Init+0x4c>
 800117e:	2380      	movs	r3, #128	@ 0x80
 8001180:	0020      	movs	r0, r4
 8001182:	015b      	lsls	r3, r3, #5
 8001184:	a904      	add	r1, sp, #16
 8001186:	9304      	str	r3, [sp, #16]
 8001188:	f005 fd44 	bl	8006c14 <HAL_TIM_ConfigClockSource>
 800118c:	2800      	cmp	r0, #0
 800118e:	d001      	beq.n	8001194 <MX_TIM3_Init+0x64>
 8001190:	b672      	cpsid	i
 8001192:	e7fe      	b.n	8001192 <MX_TIM3_Init+0x62>
 8001194:	0020      	movs	r0, r4
 8001196:	f004 fc21 	bl	80059dc <HAL_TIM_OC_Init>
 800119a:	2800      	cmp	r0, #0
 800119c:	d001      	beq.n	80011a2 <MX_TIM3_Init+0x72>
 800119e:	b672      	cpsid	i
 80011a0:	e7fe      	b.n	80011a0 <MX_TIM3_Init+0x70>
 80011a2:	9001      	str	r0, [sp, #4]
 80011a4:	9003      	str	r0, [sp, #12]
 80011a6:	a901      	add	r1, sp, #4
 80011a8:	0020      	movs	r0, r4
 80011aa:	f005 fe7f 	bl	8006eac <HAL_TIMEx_MasterConfigSynchronization>
 80011ae:	2800      	cmp	r0, #0
 80011b0:	d001      	beq.n	80011b6 <MX_TIM3_Init+0x86>
 80011b2:	b672      	cpsid	i
 80011b4:	e7fe      	b.n	80011b4 <MX_TIM3_Init+0x84>
 80011b6:	2200      	movs	r2, #0
 80011b8:	2300      	movs	r3, #0
 80011ba:	900a      	str	r0, [sp, #40]	@ 0x28
 80011bc:	900c      	str	r0, [sp, #48]	@ 0x30
 80011be:	a908      	add	r1, sp, #32
 80011c0:	0020      	movs	r0, r4
 80011c2:	9208      	str	r2, [sp, #32]
 80011c4:	9309      	str	r3, [sp, #36]	@ 0x24
 80011c6:	f005 f949 	bl	800645c <HAL_TIM_OC_ConfigChannel>
 80011ca:	2800      	cmp	r0, #0
 80011cc:	d001      	beq.n	80011d2 <MX_TIM3_Init+0xa2>
 80011ce:	b672      	cpsid	i
 80011d0:	e7fe      	b.n	80011d0 <MX_TIM3_Init+0xa0>
 80011d2:	2108      	movs	r1, #8
 80011d4:	6822      	ldr	r2, [r4, #0]
 80011d6:	6993      	ldr	r3, [r2, #24]
 80011d8:	438b      	bics	r3, r1
 80011da:	6193      	str	r3, [r2, #24]
 80011dc:	b010      	add	sp, #64	@ 0x40
 80011de:	bd10      	pop	{r4, pc}
 80011e0:	2000078c 	.word	0x2000078c
 80011e4:	40000400 	.word	0x40000400
 80011e8:	00007fff 	.word	0x00007fff
 80011ec:	00000fff 	.word	0x00000fff

080011f0 <MX_TIM1_Init>:
 80011f0:	b5d0      	push	{r4, r6, r7, lr}
 80011f2:	b09c      	sub	sp, #112	@ 0x70
 80011f4:	2210      	movs	r2, #16
 80011f6:	2100      	movs	r1, #0
 80011f8:	a804      	add	r0, sp, #16
 80011fa:	f006 fdf9 	bl	8007df0 <memset>
 80011fe:	220c      	movs	r2, #12
 8001200:	2100      	movs	r1, #0
 8001202:	4668      	mov	r0, sp
 8001204:	f006 fdf4 	bl	8007df0 <memset>
 8001208:	221c      	movs	r2, #28
 800120a:	2100      	movs	r1, #0
 800120c:	a808      	add	r0, sp, #32
 800120e:	f006 fdef 	bl	8007df0 <memset>
 8001212:	2234      	movs	r2, #52	@ 0x34
 8001214:	2100      	movs	r1, #0
 8001216:	a80f      	add	r0, sp, #60	@ 0x3c
 8001218:	f006 fdea 	bl	8007df0 <memset>
 800121c:	4c3a      	ldr	r4, [pc, #232]	@ (8001308 <MX_TIM1_Init+0x118>)
 800121e:	4b3b      	ldr	r3, [pc, #236]	@ (800130c <MX_TIM1_Init+0x11c>)
 8001220:	4a3b      	ldr	r2, [pc, #236]	@ (8001310 <MX_TIM1_Init+0x120>)
 8001222:	6023      	str	r3, [r4, #0]
 8001224:	60e2      	str	r2, [r4, #12]
 8001226:	2300      	movs	r3, #0
 8001228:	2280      	movs	r2, #128	@ 0x80
 800122a:	6063      	str	r3, [r4, #4]
 800122c:	60a3      	str	r3, [r4, #8]
 800122e:	0052      	lsls	r2, r2, #1
 8001230:	6163      	str	r3, [r4, #20]
 8001232:	0020      	movs	r0, r4
 8001234:	3380      	adds	r3, #128	@ 0x80
 8001236:	6122      	str	r2, [r4, #16]
 8001238:	61a3      	str	r3, [r4, #24]
 800123a:	f004 fa99 	bl	8005770 <HAL_TIM_Base_Init>
 800123e:	2800      	cmp	r0, #0
 8001240:	d001      	beq.n	8001246 <MX_TIM1_Init+0x56>
 8001242:	b672      	cpsid	i
 8001244:	e7fe      	b.n	8001244 <MX_TIM1_Init+0x54>
 8001246:	2380      	movs	r3, #128	@ 0x80
 8001248:	0020      	movs	r0, r4
 800124a:	015b      	lsls	r3, r3, #5
 800124c:	a904      	add	r1, sp, #16
 800124e:	9304      	str	r3, [sp, #16]
 8001250:	f005 fce0 	bl	8006c14 <HAL_TIM_ConfigClockSource>
 8001254:	2800      	cmp	r0, #0
 8001256:	d001      	beq.n	800125c <MX_TIM1_Init+0x6c>
 8001258:	b672      	cpsid	i
 800125a:	e7fe      	b.n	800125a <MX_TIM1_Init+0x6a>
 800125c:	0020      	movs	r0, r4
 800125e:	f004 fd7f 	bl	8005d60 <HAL_TIM_PWM_Init>
 8001262:	2800      	cmp	r0, #0
 8001264:	d001      	beq.n	800126a <MX_TIM1_Init+0x7a>
 8001266:	b672      	cpsid	i
 8001268:	e7fe      	b.n	8001268 <MX_TIM1_Init+0x78>
 800126a:	2600      	movs	r6, #0
 800126c:	2700      	movs	r7, #0
 800126e:	9002      	str	r0, [sp, #8]
 8001270:	4669      	mov	r1, sp
 8001272:	0020      	movs	r0, r4
 8001274:	9600      	str	r6, [sp, #0]
 8001276:	9701      	str	r7, [sp, #4]
 8001278:	f005 fe18 	bl	8006eac <HAL_TIMEx_MasterConfigSynchronization>
 800127c:	2800      	cmp	r0, #0
 800127e:	d001      	beq.n	8001284 <MX_TIM1_Init+0x94>
 8001280:	b672      	cpsid	i
 8001282:	e7fe      	b.n	8001282 <MX_TIM1_Init+0x92>
 8001284:	2360      	movs	r3, #96	@ 0x60
 8001286:	9009      	str	r0, [sp, #36]	@ 0x24
 8001288:	900a      	str	r0, [sp, #40]	@ 0x28
 800128a:	900b      	str	r0, [sp, #44]	@ 0x2c
 800128c:	900e      	str	r0, [sp, #56]	@ 0x38
 800128e:	2204      	movs	r2, #4
 8001290:	0020      	movs	r0, r4
 8001292:	a908      	add	r1, sp, #32
 8001294:	960c      	str	r6, [sp, #48]	@ 0x30
 8001296:	970d      	str	r7, [sp, #52]	@ 0x34
 8001298:	9308      	str	r3, [sp, #32]
 800129a:	f005 fb13 	bl	80068c4 <HAL_TIM_PWM_ConfigChannel>
 800129e:	2800      	cmp	r0, #0
 80012a0:	d001      	beq.n	80012a6 <MX_TIM1_Init+0xb6>
 80012a2:	b672      	cpsid	i
 80012a4:	e7fe      	b.n	80012a4 <MX_TIM1_Init+0xb4>
 80012a6:	6822      	ldr	r2, [r4, #0]
 80012a8:	4e1a      	ldr	r6, [pc, #104]	@ (8001314 <MX_TIM1_Init+0x124>)
 80012aa:	6993      	ldr	r3, [r2, #24]
 80012ac:	0020      	movs	r0, r4
 80012ae:	4033      	ands	r3, r6
 80012b0:	6193      	str	r3, [r2, #24]
 80012b2:	a908      	add	r1, sp, #32
 80012b4:	220c      	movs	r2, #12
 80012b6:	f005 fb05 	bl	80068c4 <HAL_TIM_PWM_ConfigChannel>
 80012ba:	2800      	cmp	r0, #0
 80012bc:	d001      	beq.n	80012c2 <MX_TIM1_Init+0xd2>
 80012be:	b672      	cpsid	i
 80012c0:	e7fe      	b.n	80012c0 <MX_TIM1_Init+0xd0>
 80012c2:	6822      	ldr	r2, [r4, #0]
 80012c4:	900f      	str	r0, [sp, #60]	@ 0x3c
 80012c6:	69d3      	ldr	r3, [r2, #28]
 80012c8:	9010      	str	r0, [sp, #64]	@ 0x40
 80012ca:	4033      	ands	r3, r6
 80012cc:	61d3      	str	r3, [r2, #28]
 80012ce:	2380      	movs	r3, #128	@ 0x80
 80012d0:	019b      	lsls	r3, r3, #6
 80012d2:	9314      	str	r3, [sp, #80]	@ 0x50
 80012d4:	2380      	movs	r3, #128	@ 0x80
 80012d6:	9011      	str	r0, [sp, #68]	@ 0x44
 80012d8:	9012      	str	r0, [sp, #72]	@ 0x48
 80012da:	9013      	str	r0, [sp, #76]	@ 0x4c
 80012dc:	9015      	str	r0, [sp, #84]	@ 0x54
 80012de:	9016      	str	r0, [sp, #88]	@ 0x58
 80012e0:	9017      	str	r0, [sp, #92]	@ 0x5c
 80012e2:	049b      	lsls	r3, r3, #18
 80012e4:	9019      	str	r0, [sp, #100]	@ 0x64
 80012e6:	901a      	str	r0, [sp, #104]	@ 0x68
 80012e8:	901b      	str	r0, [sp, #108]	@ 0x6c
 80012ea:	a90f      	add	r1, sp, #60	@ 0x3c
 80012ec:	0020      	movs	r0, r4
 80012ee:	9318      	str	r3, [sp, #96]	@ 0x60
 80012f0:	f005 fe14 	bl	8006f1c <HAL_TIMEx_ConfigBreakDeadTime>
 80012f4:	2800      	cmp	r0, #0
 80012f6:	d001      	beq.n	80012fc <MX_TIM1_Init+0x10c>
 80012f8:	b672      	cpsid	i
 80012fa:	e7fe      	b.n	80012fa <MX_TIM1_Init+0x10a>
 80012fc:	0020      	movs	r0, r4
 80012fe:	f001 fe85 	bl	800300c <HAL_TIM_MspPostInit>
 8001302:	b01c      	add	sp, #112	@ 0x70
 8001304:	bdd0      	pop	{r4, r6, r7, pc}
 8001306:	46c0      	nop			@ (mov r8, r8)
 8001308:	200006d0 	.word	0x200006d0
 800130c:	40012c00 	.word	0x40012c00
 8001310:	000003ff 	.word	0x000003ff
 8001314:	fffff7ff 	.word	0xfffff7ff

08001318 <MX_TIM17_Init>:
 8001318:	b510      	push	{r4, lr}
 800131a:	b096      	sub	sp, #88	@ 0x58
 800131c:	221c      	movs	r2, #28
 800131e:	2100      	movs	r1, #0
 8001320:	4668      	mov	r0, sp
 8001322:	f006 fd65 	bl	8007df0 <memset>
 8001326:	2234      	movs	r2, #52	@ 0x34
 8001328:	2100      	movs	r1, #0
 800132a:	a808      	add	r0, sp, #32
 800132c:	f006 fd60 	bl	8007df0 <memset>
 8001330:	4c23      	ldr	r4, [pc, #140]	@ (80013c0 <MX_TIM17_Init+0xa8>)
 8001332:	4b24      	ldr	r3, [pc, #144]	@ (80013c4 <MX_TIM17_Init+0xac>)
 8001334:	2280      	movs	r2, #128	@ 0x80
 8001336:	6023      	str	r3, [r4, #0]
 8001338:	4b23      	ldr	r3, [pc, #140]	@ (80013c8 <MX_TIM17_Init+0xb0>)
 800133a:	0092      	lsls	r2, r2, #2
 800133c:	6063      	str	r3, [r4, #4]
 800133e:	2300      	movs	r3, #0
 8001340:	0020      	movs	r0, r4
 8001342:	60a3      	str	r3, [r4, #8]
 8001344:	60e3      	str	r3, [r4, #12]
 8001346:	6163      	str	r3, [r4, #20]
 8001348:	3380      	adds	r3, #128	@ 0x80
 800134a:	6122      	str	r2, [r4, #16]
 800134c:	61a3      	str	r3, [r4, #24]
 800134e:	f004 fa0f 	bl	8005770 <HAL_TIM_Base_Init>
 8001352:	2800      	cmp	r0, #0
 8001354:	d001      	beq.n	800135a <MX_TIM17_Init+0x42>
 8001356:	b672      	cpsid	i
 8001358:	e7fe      	b.n	8001358 <MX_TIM17_Init+0x40>
 800135a:	0020      	movs	r0, r4
 800135c:	f004 fb3e 	bl	80059dc <HAL_TIM_OC_Init>
 8001360:	2800      	cmp	r0, #0
 8001362:	d001      	beq.n	8001368 <MX_TIM17_Init+0x50>
 8001364:	b672      	cpsid	i
 8001366:	e7fe      	b.n	8001366 <MX_TIM17_Init+0x4e>
 8001368:	2200      	movs	r2, #0
 800136a:	2300      	movs	r3, #0
 800136c:	9000      	str	r0, [sp, #0]
 800136e:	9001      	str	r0, [sp, #4]
 8001370:	9002      	str	r0, [sp, #8]
 8001372:	9003      	str	r0, [sp, #12]
 8001374:	9006      	str	r0, [sp, #24]
 8001376:	4669      	mov	r1, sp
 8001378:	0020      	movs	r0, r4
 800137a:	9204      	str	r2, [sp, #16]
 800137c:	9305      	str	r3, [sp, #20]
 800137e:	f005 f86d 	bl	800645c <HAL_TIM_OC_ConfigChannel>
 8001382:	2800      	cmp	r0, #0
 8001384:	d001      	beq.n	800138a <MX_TIM17_Init+0x72>
 8001386:	b672      	cpsid	i
 8001388:	e7fe      	b.n	8001388 <MX_TIM17_Init+0x70>
 800138a:	2108      	movs	r1, #8
 800138c:	6822      	ldr	r2, [r4, #0]
 800138e:	9008      	str	r0, [sp, #32]
 8001390:	6993      	ldr	r3, [r2, #24]
 8001392:	9009      	str	r0, [sp, #36]	@ 0x24
 8001394:	430b      	orrs	r3, r1
 8001396:	6193      	str	r3, [r2, #24]
 8001398:	2380      	movs	r3, #128	@ 0x80
 800139a:	2200      	movs	r2, #0
 800139c:	900a      	str	r0, [sp, #40]	@ 0x28
 800139e:	900b      	str	r0, [sp, #44]	@ 0x2c
 80013a0:	019b      	lsls	r3, r3, #6
 80013a2:	900e      	str	r0, [sp, #56]	@ 0x38
 80013a4:	9014      	str	r0, [sp, #80]	@ 0x50
 80013a6:	a908      	add	r1, sp, #32
 80013a8:	0020      	movs	r0, r4
 80013aa:	920c      	str	r2, [sp, #48]	@ 0x30
 80013ac:	930d      	str	r3, [sp, #52]	@ 0x34
 80013ae:	f005 fdb5 	bl	8006f1c <HAL_TIMEx_ConfigBreakDeadTime>
 80013b2:	2800      	cmp	r0, #0
 80013b4:	d001      	beq.n	80013ba <MX_TIM17_Init+0xa2>
 80013b6:	b672      	cpsid	i
 80013b8:	e7fe      	b.n	80013b8 <MX_TIM17_Init+0xa0>
 80013ba:	b016      	add	sp, #88	@ 0x58
 80013bc:	bd10      	pop	{r4, pc}
 80013be:	46c0      	nop			@ (mov r8, r8)
 80013c0:	200009c0 	.word	0x200009c0
 80013c4:	40014800 	.word	0x40014800
 80013c8:	00007fff 	.word	0x00007fff

080013cc <MX_TIM14_Init>:
 80013cc:	b510      	push	{r4, lr}
 80013ce:	b088      	sub	sp, #32
 80013d0:	221c      	movs	r2, #28
 80013d2:	2100      	movs	r1, #0
 80013d4:	4668      	mov	r0, sp
 80013d6:	f006 fd0b 	bl	8007df0 <memset>
 80013da:	4c15      	ldr	r4, [pc, #84]	@ (8001430 <MX_TIM14_Init+0x64>)
 80013dc:	4b15      	ldr	r3, [pc, #84]	@ (8001434 <MX_TIM14_Init+0x68>)
 80013de:	2280      	movs	r2, #128	@ 0x80
 80013e0:	6023      	str	r3, [r4, #0]
 80013e2:	4b15      	ldr	r3, [pc, #84]	@ (8001438 <MX_TIM14_Init+0x6c>)
 80013e4:	0092      	lsls	r2, r2, #2
 80013e6:	6063      	str	r3, [r4, #4]
 80013e8:	2300      	movs	r3, #0
 80013ea:	0020      	movs	r0, r4
 80013ec:	60a3      	str	r3, [r4, #8]
 80013ee:	60e3      	str	r3, [r4, #12]
 80013f0:	6122      	str	r2, [r4, #16]
 80013f2:	61a3      	str	r3, [r4, #24]
 80013f4:	f004 f9bc 	bl	8005770 <HAL_TIM_Base_Init>
 80013f8:	2800      	cmp	r0, #0
 80013fa:	d001      	beq.n	8001400 <MX_TIM14_Init+0x34>
 80013fc:	b672      	cpsid	i
 80013fe:	e7fe      	b.n	80013fe <MX_TIM14_Init+0x32>
 8001400:	0020      	movs	r0, r4
 8001402:	f004 faeb 	bl	80059dc <HAL_TIM_OC_Init>
 8001406:	2800      	cmp	r0, #0
 8001408:	d001      	beq.n	800140e <MX_TIM14_Init+0x42>
 800140a:	b672      	cpsid	i
 800140c:	e7fe      	b.n	800140c <MX_TIM14_Init+0x40>
 800140e:	2200      	movs	r2, #0
 8001410:	2300      	movs	r3, #0
 8001412:	9002      	str	r0, [sp, #8]
 8001414:	9004      	str	r0, [sp, #16]
 8001416:	4669      	mov	r1, sp
 8001418:	0020      	movs	r0, r4
 800141a:	9200      	str	r2, [sp, #0]
 800141c:	9301      	str	r3, [sp, #4]
 800141e:	f005 f81d 	bl	800645c <HAL_TIM_OC_ConfigChannel>
 8001422:	2800      	cmp	r0, #0
 8001424:	d001      	beq.n	800142a <MX_TIM14_Init+0x5e>
 8001426:	b672      	cpsid	i
 8001428:	e7fe      	b.n	8001428 <MX_TIM14_Init+0x5c>
 800142a:	b008      	add	sp, #32
 800142c:	bd10      	pop	{r4, pc}
 800142e:	46c0      	nop			@ (mov r8, r8)
 8001430:	20000a7c 	.word	0x20000a7c
 8001434:	40002000 	.word	0x40002000
 8001438:	00007fff 	.word	0x00007fff

0800143c <MX_GPIO_Init>:
 800143c:	b5f0      	push	{r4, r5, r6, r7, lr}
 800143e:	46ce      	mov	lr, r9
 8001440:	4647      	mov	r7, r8
 8001442:	b580      	push	{r7, lr}
 8001444:	b08b      	sub	sp, #44	@ 0x2c
 8001446:	2214      	movs	r2, #20
 8001448:	2100      	movs	r1, #0
 800144a:	a804      	add	r0, sp, #16
 800144c:	f006 fcd0 	bl	8007df0 <memset>
 8001450:	2204      	movs	r2, #4
 8001452:	4b44      	ldr	r3, [pc, #272]	@ (8001564 <MX_GPIO_Init+0x128>)
 8001454:	2501      	movs	r5, #1
 8001456:	6b59      	ldr	r1, [r3, #52]	@ 0x34
 8001458:	2702      	movs	r7, #2
 800145a:	4311      	orrs	r1, r2
 800145c:	6359      	str	r1, [r3, #52]	@ 0x34
 800145e:	6b59      	ldr	r1, [r3, #52]	@ 0x34
 8001460:	2400      	movs	r4, #0
 8001462:	400a      	ands	r2, r1
 8001464:	9200      	str	r2, [sp, #0]
 8001466:	9a00      	ldr	r2, [sp, #0]
 8001468:	2220      	movs	r2, #32
 800146a:	6b59      	ldr	r1, [r3, #52]	@ 0x34
 800146c:	26a0      	movs	r6, #160	@ 0xa0
 800146e:	4311      	orrs	r1, r2
 8001470:	6359      	str	r1, [r3, #52]	@ 0x34
 8001472:	6b59      	ldr	r1, [r3, #52]	@ 0x34
 8001474:	05f6      	lsls	r6, r6, #23
 8001476:	400a      	ands	r2, r1
 8001478:	9201      	str	r2, [sp, #4]
 800147a:	9a01      	ldr	r2, [sp, #4]
 800147c:	6b5a      	ldr	r2, [r3, #52]	@ 0x34
 800147e:	2140      	movs	r1, #64	@ 0x40
 8001480:	432a      	orrs	r2, r5
 8001482:	635a      	str	r2, [r3, #52]	@ 0x34
 8001484:	6b5a      	ldr	r2, [r3, #52]	@ 0x34
 8001486:	402a      	ands	r2, r5
 8001488:	9202      	str	r2, [sp, #8]
 800148a:	9a02      	ldr	r2, [sp, #8]
 800148c:	6b5a      	ldr	r2, [r3, #52]	@ 0x34
 800148e:	433a      	orrs	r2, r7
 8001490:	635a      	str	r2, [r3, #52]	@ 0x34
 8001492:	6b5b      	ldr	r3, [r3, #52]	@ 0x34
 8001494:	2200      	movs	r2, #0
 8001496:	403b      	ands	r3, r7
 8001498:	9303      	str	r3, [sp, #12]
 800149a:	9b03      	ldr	r3, [sp, #12]
 800149c:	4b32      	ldr	r3, [pc, #200]	@ (8001568 <MX_GPIO_Init+0x12c>)
 800149e:	0018      	movs	r0, r3
 80014a0:	4699      	mov	r9, r3
 80014a2:	f003 f9f7 	bl	8004894 <HAL_GPIO_WritePin>
 80014a6:	2388      	movs	r3, #136	@ 0x88
 80014a8:	2204      	movs	r2, #4
 80014aa:	035b      	lsls	r3, r3, #13
 80014ac:	a904      	add	r1, sp, #16
 80014ae:	482f      	ldr	r0, [pc, #188]	@ (800156c <MX_GPIO_Init+0x130>)
 80014b0:	9204      	str	r2, [sp, #16]
 80014b2:	9305      	str	r3, [sp, #20]
 80014b4:	9406      	str	r4, [sp, #24]
 80014b6:	f003 f837 	bl	8004528 <HAL_GPIO_Init>
 80014ba:	2380      	movs	r3, #128	@ 0x80
 80014bc:	0030      	movs	r0, r6
 80014be:	009b      	lsls	r3, r3, #2
 80014c0:	a904      	add	r1, sp, #16
 80014c2:	9304      	str	r3, [sp, #16]
 80014c4:	9505      	str	r5, [sp, #20]
 80014c6:	9406      	str	r4, [sp, #24]
 80014c8:	9407      	str	r4, [sp, #28]
 80014ca:	f003 f82d 	bl	8004528 <HAL_GPIO_Init>
 80014ce:	2340      	movs	r3, #64	@ 0x40
 80014d0:	4648      	mov	r0, r9
 80014d2:	a904      	add	r1, sp, #16
 80014d4:	4698      	mov	r8, r3
 80014d6:	9304      	str	r3, [sp, #16]
 80014d8:	9505      	str	r5, [sp, #20]
 80014da:	9406      	str	r4, [sp, #24]
 80014dc:	9407      	str	r4, [sp, #28]
 80014de:	f003 f823 	bl	8004528 <HAL_GPIO_Init>
 80014e2:	2280      	movs	r2, #128	@ 0x80
 80014e4:	2300      	movs	r3, #0
 80014e6:	00d2      	lsls	r2, r2, #3
 80014e8:	0030      	movs	r0, r6
 80014ea:	a904      	add	r1, sp, #16
 80014ec:	9204      	str	r2, [sp, #16]
 80014ee:	9305      	str	r3, [sp, #20]
 80014f0:	9506      	str	r5, [sp, #24]
 80014f2:	f003 f819 	bl	8004528 <HAL_GPIO_Init>
 80014f6:	4643      	mov	r3, r8
 80014f8:	9304      	str	r3, [sp, #16]
 80014fa:	4b1d      	ldr	r3, [pc, #116]	@ (8001570 <MX_GPIO_Init+0x134>)
 80014fc:	a904      	add	r1, sp, #16
 80014fe:	0018      	movs	r0, r3
 8001500:	4699      	mov	r9, r3
 8001502:	9505      	str	r5, [sp, #20]
 8001504:	9406      	str	r4, [sp, #24]
 8001506:	9407      	str	r4, [sp, #28]
 8001508:	f003 f80e 	bl	8004528 <HAL_GPIO_Init>
 800150c:	2380      	movs	r3, #128	@ 0x80
 800150e:	4698      	mov	r8, r3
 8001510:	9304      	str	r3, [sp, #16]
 8001512:	23c4      	movs	r3, #196	@ 0xc4
 8001514:	4648      	mov	r0, r9
 8001516:	039b      	lsls	r3, r3, #14
 8001518:	a904      	add	r1, sp, #16
 800151a:	9305      	str	r3, [sp, #20]
 800151c:	9706      	str	r7, [sp, #24]
 800151e:	9407      	str	r4, [sp, #28]
 8001520:	f003 f802 	bl	8004528 <HAL_GPIO_Init>
 8001524:	2380      	movs	r3, #128	@ 0x80
 8001526:	0030      	movs	r0, r6
 8001528:	015b      	lsls	r3, r3, #5
 800152a:	a904      	add	r1, sp, #16
 800152c:	9304      	str	r3, [sp, #16]
 800152e:	9505      	str	r5, [sp, #20]
 8001530:	9406      	str	r4, [sp, #24]
 8001532:	9407      	str	r4, [sp, #28]
 8001534:	f002 fff8 	bl	8004528 <HAL_GPIO_Init>
 8001538:	4643      	mov	r3, r8
 800153a:	0030      	movs	r0, r6
 800153c:	a904      	add	r1, sp, #16
 800153e:	9304      	str	r3, [sp, #16]
 8001540:	9505      	str	r5, [sp, #20]
 8001542:	9406      	str	r4, [sp, #24]
 8001544:	9407      	str	r4, [sp, #28]
 8001546:	f002 ffef 	bl	8004528 <HAL_GPIO_Init>
 800154a:	2202      	movs	r2, #2
 800154c:	2102      	movs	r1, #2
 800154e:	2007      	movs	r0, #7
 8001550:	f002 fdd8 	bl	8004104 <HAL_NVIC_SetPriority>
 8001554:	2007      	movs	r0, #7
 8001556:	f002 fdff 	bl	8004158 <HAL_NVIC_EnableIRQ>
 800155a:	b00b      	add	sp, #44	@ 0x2c
 800155c:	bcc0      	pop	{r6, r7}
 800155e:	46b9      	mov	r9, r7
 8001560:	46b0      	mov	r8, r6
 8001562:	bdf0      	pop	{r4, r5, r6, r7, pc}
 8001564:	40021000 	.word	0x40021000
 8001568:	50000800 	.word	0x50000800
 800156c:	50001400 	.word	0x50001400
 8001570:	50000400 	.word	0x50000400

08001574 <Error_Handler>:
 8001574:	b672      	cpsid	i
 8001576:	e7fe      	b.n	8001576 <Error_Handler+0x2>

08001578 <System_Init>:
 8001578:	b570      	push	{r4, r5, r6, lr}
 800157a:	b082      	sub	sp, #8
 800157c:	f002 f82c 	bl	80035d8 <HAL_Init>
 8001580:	f7ff fc68 	bl	8000e54 <SystemClock_Config>
 8001584:	f7ff ff5a 	bl	800143c <MX_GPIO_Init>
 8001588:	2301      	movs	r3, #1
 800158a:	4a4c      	ldr	r2, [pc, #304]	@ (80016bc <System_Init+0x144>)
 800158c:	2009      	movs	r0, #9
 800158e:	6b91      	ldr	r1, [r2, #56]	@ 0x38
 8001590:	4319      	orrs	r1, r3
 8001592:	6391      	str	r1, [r2, #56]	@ 0x38
 8001594:	6b92      	ldr	r2, [r2, #56]	@ 0x38
 8001596:	2100      	movs	r1, #0
 8001598:	4013      	ands	r3, r2
 800159a:	9301      	str	r3, [sp, #4]
 800159c:	2200      	movs	r2, #0
 800159e:	9b01      	ldr	r3, [sp, #4]
 80015a0:	f002 fdb0 	bl	8004104 <HAL_NVIC_SetPriority>
 80015a4:	2009      	movs	r0, #9
 80015a6:	f002 fdd7 	bl	8004158 <HAL_NVIC_EnableIRQ>
 80015aa:	2202      	movs	r2, #2
 80015ac:	2102      	movs	r1, #2
 80015ae:	200a      	movs	r0, #10
 80015b0:	f002 fda8 	bl	8004104 <HAL_NVIC_SetPriority>
 80015b4:	200a      	movs	r0, #10
 80015b6:	f002 fdcf 	bl	8004158 <HAL_NVIC_EnableIRQ>
 80015ba:	4c41      	ldr	r4, [pc, #260]	@ (80016c0 <System_Init+0x148>)
 80015bc:	4b41      	ldr	r3, [pc, #260]	@ (80016c4 <System_Init+0x14c>)
 80015be:	220c      	movs	r2, #12
 80015c0:	6023      	str	r3, [r4, #0]
 80015c2:	4b41      	ldr	r3, [pc, #260]	@ (80016c8 <System_Init+0x150>)
 80015c4:	0020      	movs	r0, r4
 80015c6:	6063      	str	r3, [r4, #4]
 80015c8:	2300      	movs	r3, #0
 80015ca:	6162      	str	r2, [r4, #20]
 80015cc:	60a3      	str	r3, [r4, #8]
 80015ce:	60e3      	str	r3, [r4, #12]
 80015d0:	6123      	str	r3, [r4, #16]
 80015d2:	61a3      	str	r3, [r4, #24]
 80015d4:	61e3      	str	r3, [r4, #28]
 80015d6:	6223      	str	r3, [r4, #32]
 80015d8:	6263      	str	r3, [r4, #36]	@ 0x24
 80015da:	62a3      	str	r3, [r4, #40]	@ 0x28
 80015dc:	f006 fa74 	bl	8007ac8 <HAL_UART_Init>
 80015e0:	1e05      	subs	r5, r0, #0
 80015e2:	d001      	beq.n	80015e8 <System_Init+0x70>
 80015e4:	b672      	cpsid	i
 80015e6:	e7fe      	b.n	80015e6 <System_Init+0x6e>
 80015e8:	f7ff fc74 	bl	8000ed4 <MX_ADC1_Init>
 80015ec:	f7ff fcec 	bl	8000fc8 <MX_TIM16_Init>
 80015f0:	f7ff fd42 	bl	8001078 <MX_TIM2_Init>
 80015f4:	f7ff fd9c 	bl	8001130 <MX_TIM3_Init>
 80015f8:	f7ff fdfa 	bl	80011f0 <MX_TIM1_Init>
 80015fc:	f7ff fe8c 	bl	8001318 <MX_TIM17_Init>
 8001600:	f7ff fee4 	bl	80013cc <MX_TIM14_Init>
 8001604:	4e31      	ldr	r6, [pc, #196]	@ (80016cc <System_Init+0x154>)
 8001606:	4b32      	ldr	r3, [pc, #200]	@ (80016d0 <System_Init+0x158>)
 8001608:	2200      	movs	r2, #0
 800160a:	6033      	str	r3, [r6, #0]
 800160c:	23e0      	movs	r3, #224	@ 0xe0
 800160e:	011b      	lsls	r3, r3, #4
 8001610:	60b3      	str	r3, [r6, #8]
 8001612:	4b30      	ldr	r3, [pc, #192]	@ (80016d4 <System_Init+0x15c>)
 8001614:	0030      	movs	r0, r6
 8001616:	6173      	str	r3, [r6, #20]
 8001618:	2380      	movs	r3, #128	@ 0x80
 800161a:	03db      	lsls	r3, r3, #15
 800161c:	6232      	str	r2, [r6, #32]
 800161e:	6273      	str	r3, [r6, #36]	@ 0x24
 8001620:	2200      	movs	r2, #0
 8001622:	2300      	movs	r3, #0
 8001624:	6075      	str	r5, [r6, #4]
 8001626:	62b2      	str	r2, [r6, #40]	@ 0x28
 8001628:	62f3      	str	r3, [r6, #44]	@ 0x2c
 800162a:	6335      	str	r5, [r6, #48]	@ 0x30
 800162c:	f003 f960 	bl	80048f0 <HAL_LPTIM_Init>
 8001630:	2800      	cmp	r0, #0
 8001632:	d001      	beq.n	8001638 <System_Init+0xc0>
 8001634:	b672      	cpsid	i
 8001636:	e7fe      	b.n	8001636 <System_Init+0xbe>
 8001638:	2202      	movs	r2, #2
 800163a:	2102      	movs	r1, #2
 800163c:	2011      	movs	r0, #17
 800163e:	f002 fd61 	bl	8004104 <HAL_NVIC_SetPriority>
 8001642:	2011      	movs	r0, #17
 8001644:	f002 fd88 	bl	8004158 <HAL_NVIC_EnableIRQ>
 8001648:	4d23      	ldr	r5, [pc, #140]	@ (80016d8 <System_Init+0x160>)
 800164a:	0028      	movs	r0, r5
 800164c:	f002 fc86 	bl	8003f5c <HAL_ADCEx_Calibration_Start>
 8001650:	210e      	movs	r1, #14
 8001652:	4a22      	ldr	r2, [pc, #136]	@ (80016dc <System_Init+0x164>)
 8001654:	4822      	ldr	r0, [pc, #136]	@ (80016e0 <System_Init+0x168>)
 8001656:	f005 fba7 	bl	8006da8 <HAL_TIM_RegisterCallback>
 800165a:	2100      	movs	r1, #0
 800165c:	0028      	movs	r0, r5
 800165e:	4a21      	ldr	r2, [pc, #132]	@ (80016e4 <System_Init+0x16c>)
 8001660:	f002 f97e 	bl	8003960 <HAL_ADC_RegisterCallback>
 8001664:	4d20      	ldr	r5, [pc, #128]	@ (80016e8 <System_Init+0x170>)
 8001666:	2112      	movs	r1, #18
 8001668:	0028      	movs	r0, r5
 800166a:	4a20      	ldr	r2, [pc, #128]	@ (80016ec <System_Init+0x174>)
 800166c:	f005 fb9c 	bl	8006da8 <HAL_TIM_RegisterCallback>
 8001670:	210e      	movs	r1, #14
 8001672:	0028      	movs	r0, r5
 8001674:	4a1e      	ldr	r2, [pc, #120]	@ (80016f0 <System_Init+0x178>)
 8001676:	f005 fb97 	bl	8006da8 <HAL_TIM_RegisterCallback>
 800167a:	2114      	movs	r1, #20
 800167c:	4a1d      	ldr	r2, [pc, #116]	@ (80016f4 <System_Init+0x17c>)
 800167e:	481e      	ldr	r0, [pc, #120]	@ (80016f8 <System_Init+0x180>)
 8001680:	f005 fb92 	bl	8006da8 <HAL_TIM_RegisterCallback>
 8001684:	2101      	movs	r1, #1
 8001686:	0020      	movs	r0, r4
 8001688:	4a1c      	ldr	r2, [pc, #112]	@ (80016fc <System_Init+0x184>)
 800168a:	f005 fd9d 	bl	80071c8 <HAL_UART_RegisterCallback>
 800168e:	2103      	movs	r1, #3
 8001690:	0020      	movs	r0, r4
 8001692:	4a1b      	ldr	r2, [pc, #108]	@ (8001700 <System_Init+0x188>)
 8001694:	f005 fd98 	bl	80071c8 <HAL_UART_RegisterCallback>
 8001698:	2102      	movs	r1, #2
 800169a:	0030      	movs	r0, r6
 800169c:	4a19      	ldr	r2, [pc, #100]	@ (8001704 <System_Init+0x18c>)
 800169e:	f003 fa07 	bl	8004ab0 <HAL_LPTIM_RegisterCallback>
 80016a2:	2114      	movs	r1, #20
 80016a4:	4a18      	ldr	r2, [pc, #96]	@ (8001708 <System_Init+0x190>)
 80016a6:	4819      	ldr	r0, [pc, #100]	@ (800170c <System_Init+0x194>)
 80016a8:	f005 fb7e 	bl	8006da8 <HAL_TIM_RegisterCallback>
 80016ac:	2114      	movs	r1, #20
 80016ae:	4a18      	ldr	r2, [pc, #96]	@ (8001710 <System_Init+0x198>)
 80016b0:	4818      	ldr	r0, [pc, #96]	@ (8001714 <System_Init+0x19c>)
 80016b2:	f005 fb79 	bl	8006da8 <HAL_TIM_RegisterCallback>
 80016b6:	b002      	add	sp, #8
 80016b8:	bd70      	pop	{r4, r5, r6, pc}
 80016ba:	46c0      	nop			@ (mov r8, r8)
 80016bc:	40021000 	.word	0x40021000
 80016c0:	20000604 	.word	0x20000604
 80016c4:	40004400 	.word	0x40004400
 80016c8:	00007a12 	.word	0x00007a12
 80016cc:	200004f0 	.word	0x200004f0
 80016d0:	40007c00 	.word	0x40007c00
 80016d4:	0000ffff 	.word	0x0000ffff
 80016d8:	20000b94 	.word	0x20000b94
 80016dc:	08001719 	.word	0x08001719
 80016e0:	20000904 	.word	0x20000904
 80016e4:	08001755 	.word	0x08001755
 80016e8:	20000848 	.word	0x20000848
 80016ec:	080017c1 	.word	0x080017c1
 80016f0:	08001865 	.word	0x08001865
 80016f4:	080018e1 	.word	0x080018e1
 80016f8:	2000078c 	.word	0x2000078c
 80016fc:	080019c5 	.word	0x080019c5
 8001700:	080019c9 	.word	0x080019c9
 8001704:	080023c1 	.word	0x080023c1
 8001708:	08002645 	.word	0x08002645
 800170c:	200009c0 	.word	0x200009c0
 8001710:	08002649 	.word	0x08002649
 8001714:	20000a7c 	.word	0x20000a7c

08001718 <TIM16_callback>:
#include "custom_callbacks.h"

void TIM16_callback(TIM_HandleTypeDef *htim)
{
 8001718:	b510      	push	{r4, lr}
	//HAL_GPIO_WritePin(MONITOR_GPIO_Port, MONITOR_Pin, 1);

	Set_Oscillator_Values(&params);
 800171a:	4c09      	ldr	r4, [pc, #36]	@ (8001740 <TIM16_callback+0x28>)
 800171c:	0020      	movs	r0, r4
 800171e:	f001 f8cd 	bl	80028bc <Set_Oscillator_Values>
	Calculate_Next_Main_Oscillator_Values(&params, (enum Next_Values_Processing_Mode)REGULAR_MODE);
 8001722:	2100      	movs	r1, #0
 8001724:	0020      	movs	r0, r4
 8001726:	f001 f8e1 	bl	80028ec <Calculate_Next_Main_Oscillator_Values>
	Write_Next_Main_Oscillator_Values_to_Delay_Line(&params, &delay_line);
 800172a:	0020      	movs	r0, r4
 800172c:	4905      	ldr	r1, [pc, #20]	@ (8001744 <TIM16_callback+0x2c>)
 800172e:	f001 f96b 	bl	8002a08 <Write_Next_Main_Oscillator_Values_to_Delay_Line>
	HAL_ADC_Start_DMA(&hadc1, (uint32_t*)ADCResultsDMA, (uint32_t)num_ADC_conversions); //this function takes ages to execute!
 8001732:	4b05      	ldr	r3, [pc, #20]	@ (8001748 <TIM16_callback+0x30>)
 8001734:	4905      	ldr	r1, [pc, #20]	@ (800174c <TIM16_callback+0x34>)
 8001736:	781a      	ldrb	r2, [r3, #0]
 8001738:	4805      	ldr	r0, [pc, #20]	@ (8001750 <TIM16_callback+0x38>)
 800173a:	f002 fb2b 	bl	8003d94 <HAL_ADC_Start_DMA>

	//HAL_GPIO_WritePin(MONITOR_GPIO_Port, MONITOR_Pin, 0);
}
 800173e:	bd10      	pop	{r4, pc}
 8001740:	20000ca0 	.word	0x20000ca0
 8001744:	20000020 	.word	0x20000020
 8001748:	08007ea8 	.word	0x08007ea8
 800174c:	20000cc4 	.word	0x20000cc4
 8001750:	20000b94 	.word	0x20000b94

08001754 <ADC_DMA_conversion_complete_callback>:

void ADC_DMA_conversion_complete_callback(ADC_HandleTypeDef *hadc)
{
 8001754:	b570      	push	{r4, r5, r6, lr}
	//HAL_GPIO_WritePin(MONITOR_GPIO_Port, MONITOR_Pin, 1);

	HAL_ADC_Stop_DMA(hadc); //disable ADC DMA
 8001756:	f002 fbbb 	bl	8003ed0 <HAL_ADC_Stop_DMA>
	Process_ADC_Conversion_Values(&params_manual, ADCResultsDMA);
 800175a:	4914      	ldr	r1, [pc, #80]	@ (80017ac <ADC_DMA_conversion_complete_callback+0x58>)
 800175c:	4814      	ldr	r0, [pc, #80]	@ (80017b0 <ADC_DMA_conversion_complete_callback+0x5c>)
 800175e:	f001 f9ad 	bl	8002abc <Process_ADC_Conversion_Values>

	//copies into running params based on mode
	Update_Params_Based_On_Mode_Selected();
 8001762:	f7fe fe99 	bl	8000498 <Update_Params_Based_On_Mode_Selected>

	enum Validate first_sync_complete = Get_Status_Bit(&statuses, First_Sync_Complete);
 8001766:	4d13      	ldr	r5, [pc, #76]	@ (80017b4 <ADC_DMA_conversion_complete_callback+0x60>)
 8001768:	2108      	movs	r1, #8
 800176a:	0028      	movs	r0, r5
 800176c:	f001 fed6 	bl	800351c <Get_Status_Bit>

	//overwrites raw speed values if a sync has completed
	if(first_sync_complete == YES){
 8001770:	2801      	cmp	r0, #1
 8001772:	d111      	bne.n	8001798 <ADC_DMA_conversion_complete_callback+0x44>

		params.raw_start_value = params_working.raw_start_value;
 8001774:	4a10      	ldr	r2, [pc, #64]	@ (80017b8 <ADC_DMA_conversion_complete_callback+0x64>)
 8001776:	4c11      	ldr	r4, [pc, #68]	@ (80017bc <ADC_DMA_conversion_complete_callback+0x68>)
 8001778:	8a53      	ldrh	r3, [r2, #18]
 800177a:	b29b      	uxth	r3, r3
 800177c:	8263      	strh	r3, [r4, #18]
		params.raw_prescaler = params_working.raw_prescaler;
 800177e:	8b53      	ldrh	r3, [r2, #26]
 8001780:	b29b      	uxth	r3, r3
 8001782:	8363      	strh	r3, [r4, #26]
	else{

		Process_TIM16_Raw_Start_Value_and_Raw_Prescaler(&params);
	}

	Process_TIM16_Final_Start_Value_and_Final_Prescaler(&params);
 8001784:	0020      	movs	r0, r4
 8001786:	f001 fd51 	bl	800322c <Process_TIM16_Final_Start_Value_and_Final_Prescaler>

	//after initial conversion is complete, set the conversion complete flag - leave this after raw/final value processing rather than actually when ADC values are converted for startup routine reasons.
	if(Get_Status_Bit(&statuses, Initial_ADC_Conversion_Complete) == NO){
 800178a:	2110      	movs	r1, #16
 800178c:	0028      	movs	r0, r5
 800178e:	f001 fec5 	bl	800351c <Get_Status_Bit>
 8001792:	2800      	cmp	r0, #0
 8001794:	d005      	beq.n	80017a2 <ADC_DMA_conversion_complete_callback+0x4e>
		Set_Status_Bit(&statuses, Initial_ADC_Conversion_Complete);
	}

	//HAL_GPIO_WritePin(MONITOR_GPIO_Port, MONITOR_Pin, 0);
}
 8001796:	bd70      	pop	{r4, r5, r6, pc}
		Process_TIM16_Raw_Start_Value_and_Raw_Prescaler(&params);
 8001798:	4c08      	ldr	r4, [pc, #32]	@ (80017bc <ADC_DMA_conversion_complete_callback+0x68>)
 800179a:	0020      	movs	r0, r4
 800179c:	f001 f876 	bl	800288c <Process_TIM16_Raw_Start_Value_and_Raw_Prescaler>
 80017a0:	e7f0      	b.n	8001784 <ADC_DMA_conversion_complete_callback+0x30>
		Set_Status_Bit(&statuses, Initial_ADC_Conversion_Complete);
 80017a2:	2110      	movs	r1, #16
 80017a4:	0028      	movs	r0, r5
 80017a6:	f001 febf 	bl	8003528 <Set_Status_Bit>
}
 80017aa:	e7f4      	b.n	8001796 <ADC_DMA_conversion_complete_callback+0x42>
 80017ac:	20000cc4 	.word	0x20000cc4
 80017b0:	20000c7c 	.word	0x20000c7c
 80017b4:	20000c30 	.word	0x20000c30
 80017b8:	20000c34 	.word	0x20000c34
 80017bc:	20000ca0 	.word	0x20000ca0

080017c0 <TIM2_ch1_IP_capture_callback>:

void TIM2_ch1_IP_capture_callback(TIM_HandleTypeDef *htim){
 80017c0:	b570      	push	{r4, r5, r6, lr}

	TIM2_ch1_input_capture_value = HAL_TIM_ReadCapturedValue(htim, TIM_CHANNEL_1);
 80017c2:	2100      	movs	r1, #0
 80017c4:	f005 fad8 	bl	8006d78 <HAL_TIM_ReadCapturedValue>
 80017c8:	4b1f      	ldr	r3, [pc, #124]	@ (8001848 <TIM2_ch1_IP_capture_callback+0x88>)

	interrupt_period = TIM2_ch1_input_capture_value >> 9; //divided by 512
 80017ca:	4a20      	ldr	r2, [pc, #128]	@ (800184c <TIM2_ch1_IP_capture_callback+0x8c>)
	TIM2_ch1_input_capture_value = HAL_TIM_ReadCapturedValue(htim, TIM_CHANNEL_1);
 80017cc:	6018      	str	r0, [r3, #0]
	interrupt_period = TIM2_ch1_input_capture_value >> 9; //divided by 512
 80017ce:	681b      	ldr	r3, [r3, #0]

	//since the input capture measurement is z, and this is 512x the interrupt period, we just use the interrupt
	//period = z/512 as the 'elapse period value' if we also set the elapse timer prescaler to 512x less than the
	//input capture measurement timer

	if(IP_CAP_fsm.current_state == IDLE){
 80017d0:	4c1f      	ldr	r4, [pc, #124]	@ (8001850 <TIM2_ch1_IP_capture_callback+0x90>)
	interrupt_period = TIM2_ch1_input_capture_value >> 9; //divided by 512
 80017d2:	0a5b      	lsrs	r3, r3, #9
 80017d4:	b29b      	uxth	r3, r3
 80017d6:	8013      	strh	r3, [r2, #0]
	if(IP_CAP_fsm.current_state == IDLE){
 80017d8:	7823      	ldrb	r3, [r4, #0]
 80017da:	b2dd      	uxtb	r5, r3
 80017dc:	2b00      	cmp	r3, #0
 80017de:	d024      	beq.n	800182a <TIM2_ch1_IP_capture_callback+0x6a>
		Begin_Input_Capture_Measurement();
		IP_CAP_fsm.current_state = MEASUREMENT_PENDING;
		IP_CAP_fsm.prev_state = IDLE;
	}

	else if(IP_CAP_fsm.current_state == MEASUREMENT_PENDING){ //second edge
 80017e0:	7823      	ldrb	r3, [r4, #0]
 80017e2:	b2dd      	uxtb	r5, r3
 80017e4:	2b01      	cmp	r3, #1
 80017e6:	d008      	beq.n	80017fa <TIM2_ch1_IP_capture_callback+0x3a>
			IP_CAP_fsm.current_state = IDLE;
			IP_CAP_fsm.prev_state = MEASUREMENT_PENDING;
		}*/
	}

	else if(IP_CAP_fsm.current_state == MEASUREMENT_REELAPSE){ //first edge
 80017e8:	7823      	ldrb	r3, [r4, #0]
 80017ea:	b2dd      	uxtb	r5, r3
 80017ec:	2b02      	cmp	r3, #2
 80017ee:	d022      	beq.n	8001836 <TIM2_ch1_IP_capture_callback+0x76>

		IP_CAP_fsm.current_state = MEASUREMENT_REELAPSE_AND_MEASUREMENT_PENDING;
		IP_CAP_fsm.prev_state = MEASUREMENT_REELAPSE;
	}

	else if(IP_CAP_fsm.current_state == MEASUREMENT_REELAPSE_AND_MEASUREMENT_PENDING){ //second edge
 80017f0:	7823      	ldrb	r3, [r4, #0]
 80017f2:	b2dd      	uxtb	r5, r3
 80017f4:	2b03      	cmp	r3, #3
 80017f6:	d003      	beq.n	8001800 <TIM2_ch1_IP_capture_callback+0x40>
		//BEGIN PROCESSING
		Set_Status_Bit(&statuses, Input_Capture_Processing_Can_Be_Started);
	}

	//HAL_GPIO_WritePin(MONITOR_GPIO_Port, MONITOR_Pin, 0);
}
 80017f8:	bd70      	pop	{r4, r5, r6, pc}
		if(interrupt_period >= HIGHEST_PRESCALER_TOP_SPEED_PERIOD){ //if the captured value/512 is >= than 129
 80017fa:	8813      	ldrh	r3, [r2, #0]
 80017fc:	2b80      	cmp	r3, #128	@ 0x80
 80017fe:	d9fb      	bls.n	80017f8 <TIM2_ch1_IP_capture_callback+0x38>
			Start_Measurement_Reelapse_Timer();
 8001800:	f000 ff84 	bl	800270c <Start_Measurement_Reelapse_Timer>
		IP_CAP_fsm.current_state = MEASUREMENT_REELAPSE;
 8001804:	2302      	movs	r3, #2
		Copy_Params_Structs(&params, &params_to_be_loaded);
 8001806:	4913      	ldr	r1, [pc, #76]	@ (8001854 <TIM2_ch1_IP_capture_callback+0x94>)
		IP_CAP_fsm.current_state = MEASUREMENT_REELAPSE;
 8001808:	7023      	strb	r3, [r4, #0]
		Copy_Params_Structs(&params, &params_to_be_loaded);
 800180a:	4813      	ldr	r0, [pc, #76]	@ (8001858 <TIM2_ch1_IP_capture_callback+0x98>)
		IP_CAP_fsm.prev_state = MEASUREMENT_REELAPSE_AND_MEASUREMENT_PENDING;
 800180c:	7065      	strb	r5, [r4, #1]
		Copy_Params_Structs(&params, &params_to_be_loaded);
 800180e:	f000 ff73 	bl	80026f8 <Copy_Params_Structs>
		if((speed_fsm.current_state.speed_exclusive_state == TAP_PENDING_MODE) || (speed_fsm.current_state.speed_exclusive_state == CLK_IN_PENDING_MODE)){
 8001812:	4b12      	ldr	r3, [pc, #72]	@ (800185c <TIM2_ch1_IP_capture_callback+0x9c>)
 8001814:	781a      	ldrb	r2, [r3, #0]
 8001816:	2a05      	cmp	r2, #5
 8001818:	d013      	beq.n	8001842 <TIM2_ch1_IP_capture_callback+0x82>
			if((speed_fsm.current_state.speed_exclusive_state == TAP_PENDING_MODE) || (speed_fsm.current_state.speed_exclusive_state == CLK_IN_PENDING_MODE)){
 800181a:	781b      	ldrb	r3, [r3, #0]
 800181c:	2b07      	cmp	r3, #7
 800181e:	d010      	beq.n	8001842 <TIM2_ch1_IP_capture_callback+0x82>
			Set_Status_Bit(&statuses, Input_Capture_Processing_Can_Be_Started);
 8001820:	2104      	movs	r1, #4
 8001822:	480f      	ldr	r0, [pc, #60]	@ (8001860 <TIM2_ch1_IP_capture_callback+0xa0>)
 8001824:	f001 fe80 	bl	8003528 <Set_Status_Bit>
 8001828:	e7e6      	b.n	80017f8 <TIM2_ch1_IP_capture_callback+0x38>
		Begin_Input_Capture_Measurement();
 800182a:	f000 ff87 	bl	800273c <Begin_Input_Capture_Measurement>
		IP_CAP_fsm.current_state = MEASUREMENT_PENDING;
 800182e:	2301      	movs	r3, #1
 8001830:	7023      	strb	r3, [r4, #0]
		IP_CAP_fsm.prev_state = IDLE;
 8001832:	7065      	strb	r5, [r4, #1]
 8001834:	e7e0      	b.n	80017f8 <TIM2_ch1_IP_capture_callback+0x38>
		Begin_Input_Capture_Measurement();
 8001836:	f000 ff81 	bl	800273c <Begin_Input_Capture_Measurement>
		IP_CAP_fsm.current_state = MEASUREMENT_REELAPSE_AND_MEASUREMENT_PENDING;
 800183a:	2303      	movs	r3, #3
 800183c:	7023      	strb	r3, [r4, #0]
		IP_CAP_fsm.prev_state = MEASUREMENT_REELAPSE;
 800183e:	7065      	strb	r5, [r4, #1]
 8001840:	e7da      	b.n	80017f8 <TIM2_ch1_IP_capture_callback+0x38>
				Advance_Pending_States();
 8001842:	f001 fa33 	bl	8002cac <Advance_Pending_States>
 8001846:	e7eb      	b.n	8001820 <TIM2_ch1_IP_capture_callback+0x60>
 8001848:	20000c24 	.word	0x20000c24
 800184c:	20000c20 	.word	0x20000c20
 8001850:	20000428 	.word	0x20000428
 8001854:	20000c58 	.word	0x20000c58
 8001858:	20000ca0 	.word	0x20000ca0
 800185c:	2000043c 	.word	0x2000043c
 8001860:	20000c30 	.word	0x20000c30

08001864 <TIM2_ch1_overflow_callback>:


void TIM2_ch1_overflow_callback(TIM_HandleTypeDef *htim){
 8001864:	b570      	push	{r4, r5, r6, lr}

	union Speed_FSM_States previous = speed_fsm.prev_state;

	if(IP_CAP_fsm.current_state == MEASUREMENT_PENDING){
 8001866:	4b19      	ldr	r3, [pc, #100]	@ (80018cc <TIM2_ch1_overflow_callback+0x68>)
	union Speed_FSM_States previous = speed_fsm.prev_state;
 8001868:	4c19      	ldr	r4, [pc, #100]	@ (80018d0 <TIM2_ch1_overflow_callback+0x6c>)
 800186a:	7865      	ldrb	r5, [r4, #1]
	if(IP_CAP_fsm.current_state == MEASUREMENT_PENDING){
 800186c:	781a      	ldrb	r2, [r3, #0]
 800186e:	b2d1      	uxtb	r1, r2
 8001870:	2a01      	cmp	r2, #1
 8001872:	d004      	beq.n	800187e <TIM2_ch1_overflow_callback+0x1a>

			speed_fsm.prev_state = speed_fsm.current_state;
			speed_fsm.current_state = previous;
		}
	}
	else if(IP_CAP_fsm.current_state == MEASUREMENT_REELAPSE_AND_MEASUREMENT_PENDING){
 8001874:	781a      	ldrb	r2, [r3, #0]
 8001876:	b2d1      	uxtb	r1, r2
 8001878:	2a03      	cmp	r2, #3
 800187a:	d020      	beq.n	80018be <TIM2_ch1_overflow_callback+0x5a>

			speed_fsm.prev_state = speed_fsm.current_state;
			speed_fsm.current_state = previous;
		}
	}
}
 800187c:	bd70      	pop	{r4, r5, r6, pc}
		IP_CAP_fsm.current_state = IDLE;
 800187e:	2200      	movs	r2, #0
 8001880:	701a      	strb	r2, [r3, #0]
		IP_CAP_fsm.prev_state = MEASUREMENT_PENDING;
 8001882:	7059      	strb	r1, [r3, #1]
		MIDI_CLK_fsm = NOT_COMPILING;
 8001884:	4b13      	ldr	r3, [pc, #76]	@ (80018d4 <TIM2_ch1_overflow_callback+0x70>)
		HAL_GPIO_WritePin(SW_OUT_GPIO_Port, SW_OUT_Pin, 1);
 8001886:	2180      	movs	r1, #128	@ 0x80
 8001888:	20a0      	movs	r0, #160	@ 0xa0
		MIDI_CLK_fsm = NOT_COMPILING;
 800188a:	701a      	strb	r2, [r3, #0]
		MIDI_CLK_tag = 0;
 800188c:	4b12      	ldr	r3, [pc, #72]	@ (80018d8 <TIM2_ch1_overflow_callback+0x74>)
		HAL_GPIO_WritePin(SW_OUT_GPIO_Port, SW_OUT_Pin, 1);
 800188e:	0089      	lsls	r1, r1, #2
		MIDI_CLK_tag = 0;
 8001890:	701a      	strb	r2, [r3, #0]
		HAL_GPIO_WritePin(SW_OUT_GPIO_Port, SW_OUT_Pin, 1);
 8001892:	05c0      	lsls	r0, r0, #23
 8001894:	3201      	adds	r2, #1
 8001896:	f002 fffd 	bl	8004894 <HAL_GPIO_WritePin>
		HAL_GPIO_WritePin(LD3_GPIO_Port, LD3_Pin, 0);
 800189a:	2200      	movs	r2, #0
 800189c:	2140      	movs	r1, #64	@ 0x40
 800189e:	480f      	ldr	r0, [pc, #60]	@ (80018dc <TIM2_ch1_overflow_callback+0x78>)
 80018a0:	f002 fff8 	bl	8004894 <HAL_GPIO_WritePin>
		if(!((speed_fsm.current_state.speed_exclusive_state == TAP_MODE)
 80018a4:	7823      	ldrb	r3, [r4, #0]
 80018a6:	2b04      	cmp	r3, #4
 80018a8:	d0e8      	beq.n	800187c <TIM2_ch1_overflow_callback+0x18>
			|| (speed_fsm.current_state.speed_exclusive_state == CLK_IN_MODE) || (speed_fsm.current_state.speed_exclusive_state == MIDI_CLK_MODE))){
 80018aa:	7823      	ldrb	r3, [r4, #0]
 80018ac:	2b06      	cmp	r3, #6
 80018ae:	d0e5      	beq.n	800187c <TIM2_ch1_overflow_callback+0x18>
 80018b0:	7823      	ldrb	r3, [r4, #0]
		if(!((speed_fsm.current_state.speed_exclusive_state == TAP_MODE)
 80018b2:	2b08      	cmp	r3, #8
 80018b4:	d0e2      	beq.n	800187c <TIM2_ch1_overflow_callback+0x18>
			speed_fsm.prev_state = speed_fsm.current_state;
 80018b6:	7823      	ldrb	r3, [r4, #0]
 80018b8:	7063      	strb	r3, [r4, #1]
			speed_fsm.current_state = previous;
 80018ba:	7025      	strb	r5, [r4, #0]
}
 80018bc:	e7de      	b.n	800187c <TIM2_ch1_overflow_callback+0x18>
		IP_CAP_fsm.current_state = MEASUREMENT_REELAPSE;
 80018be:	3a01      	subs	r2, #1
 80018c0:	701a      	strb	r2, [r3, #0]
		IP_CAP_fsm.prev_state = MEASUREMENT_REELAPSE_AND_MEASUREMENT_PENDING;
 80018c2:	7059      	strb	r1, [r3, #1]
		MIDI_CLK_fsm = NOT_COMPILING;
 80018c4:	2200      	movs	r2, #0
 80018c6:	4b03      	ldr	r3, [pc, #12]	@ (80018d4 <TIM2_ch1_overflow_callback+0x70>)
 80018c8:	e7dd      	b.n	8001886 <TIM2_ch1_overflow_callback+0x22>
 80018ca:	46c0      	nop			@ (mov r8, r8)
 80018cc:	20000428 	.word	0x20000428
 80018d0:	2000043c 	.word	0x2000043c
 80018d4:	20000cce 	.word	0x20000cce
 80018d8:	20000c1e 	.word	0x20000c1e
 80018dc:	50000800 	.word	0x50000800

080018e0 <TIM3_ch1_IP_capture_measurement_reelapse_callback>:

void TIM3_ch1_IP_capture_measurement_reelapse_callback(TIM_HandleTypeDef *htim){
 80018e0:	b570      	push	{r4, r5, r6, lr}

	//HAL_GPIO_WritePin(MONITOR_GPIO_Port, MONITOR_Pin, 1);

	if(!((speed_fsm.current_state.speed_exclusive_state == MIDI_CLK_PENDING_B0_MODE)
 80018e2:	4c2d      	ldr	r4, [pc, #180]	@ (8001998 <TIM3_ch1_IP_capture_measurement_reelapse_callback+0xb8>)
 80018e4:	7823      	ldrb	r3, [r4, #0]
 80018e6:	2b0b      	cmp	r3, #11
 80018e8:	d011      	beq.n	800190e <TIM3_ch1_IP_capture_measurement_reelapse_callback+0x2e>
		|| (speed_fsm.current_state.speed_exclusive_state == MIDI_CLK_PENDING_B1_MODE)
 80018ea:	7823      	ldrb	r3, [r4, #0]
 80018ec:	2b0c      	cmp	r3, #12
 80018ee:	d00e      	beq.n	800190e <TIM3_ch1_IP_capture_measurement_reelapse_callback+0x2e>
		|| (speed_fsm.current_state.speed_exclusive_state == MIDI_CLK_PENDING_B2_MODE)
 80018f0:	7823      	ldrb	r3, [r4, #0]
 80018f2:	2b0d      	cmp	r3, #13
 80018f4:	d00b      	beq.n	800190e <TIM3_ch1_IP_capture_measurement_reelapse_callback+0x2e>
		|| (speed_fsm.current_state.speed_exclusive_state == MIDI_CLK_RESYNC_B0_MODE)
 80018f6:	7823      	ldrb	r3, [r4, #0]
 80018f8:	2b10      	cmp	r3, #16
 80018fa:	d008      	beq.n	800190e <TIM3_ch1_IP_capture_measurement_reelapse_callback+0x2e>
		|| (speed_fsm.current_state.speed_exclusive_state == MIDI_CLK_RESYNC_B1_MODE)
 80018fc:	7823      	ldrb	r3, [r4, #0]
 80018fe:	2b11      	cmp	r3, #17
 8001900:	d005      	beq.n	800190e <TIM3_ch1_IP_capture_measurement_reelapse_callback+0x2e>
		|| (speed_fsm.current_state.speed_exclusive_state == MIDI_CLK_RESYNC_B2_MODE))){
 8001902:	7823      	ldrb	r3, [r4, #0]
	if(!((speed_fsm.current_state.speed_exclusive_state == MIDI_CLK_PENDING_B0_MODE)
 8001904:	2b12      	cmp	r3, #18
 8001906:	d002      	beq.n	800190e <TIM3_ch1_IP_capture_measurement_reelapse_callback+0x2e>

		// @TODO //WRITE CODE TO LOAD CORRECT DUTY DELAYED VALUE TO SECONDARY OSCILLATOR
		Set_Oscillator_Values(&params_to_be_loaded);
 8001908:	4824      	ldr	r0, [pc, #144]	@ (800199c <TIM3_ch1_IP_capture_measurement_reelapse_callback+0xbc>)
 800190a:	f000 ffd7 	bl	80028bc <Set_Oscillator_Values>
	}

	Stop_OC_TIM(&htim3, TIM_CHANNEL_1);
 800190e:	2100      	movs	r1, #0
 8001910:	4823      	ldr	r0, [pc, #140]	@ (80019a0 <TIM3_ch1_IP_capture_measurement_reelapse_callback+0xc0>)
 8001912:	f001 fdd5 	bl	80034c0 <Stop_OC_TIM>

	if(IP_CAP_fsm.current_state == MEASUREMENT_REELAPSE){
 8001916:	4b23      	ldr	r3, [pc, #140]	@ (80019a4 <TIM3_ch1_IP_capture_measurement_reelapse_callback+0xc4>)
 8001918:	781a      	ldrb	r2, [r3, #0]
 800191a:	b2d1      	uxtb	r1, r2
 800191c:	2a02      	cmp	r2, #2
 800191e:	d036      	beq.n	800198e <TIM3_ch1_IP_capture_measurement_reelapse_callback+0xae>

		//UPDATE IP CAP FSM
		IP_CAP_fsm.current_state = IDLE;
		IP_CAP_fsm.prev_state = MEASUREMENT_REELAPSE;
	}
	else if(IP_CAP_fsm.current_state == MEASUREMENT_REELAPSE_AND_MEASUREMENT_PENDING){
 8001920:	781a      	ldrb	r2, [r3, #0]
 8001922:	b2d1      	uxtb	r1, r2
 8001924:	2a03      	cmp	r2, #3
 8001926:	d02e      	beq.n	8001986 <TIM3_ch1_IP_capture_measurement_reelapse_callback+0xa6>
		//UPDATE IP CAP FSM
		IP_CAP_fsm.current_state = MEASUREMENT_PENDING;
		IP_CAP_fsm.prev_state = MEASUREMENT_REELAPSE_AND_MEASUREMENT_PENDING;
	}

	if(!((speed_fsm.current_state.speed_exclusive_state == MIDI_CLK_PENDING_B0_MODE)
 8001928:	7823      	ldrb	r3, [r4, #0]
 800192a:	2b0b      	cmp	r3, #11
 800192c:	d02a      	beq.n	8001984 <TIM3_ch1_IP_capture_measurement_reelapse_callback+0xa4>
		|| (speed_fsm.current_state.speed_exclusive_state == MIDI_CLK_PENDING_B1_MODE)
 800192e:	7823      	ldrb	r3, [r4, #0]
 8001930:	2b0c      	cmp	r3, #12
 8001932:	d027      	beq.n	8001984 <TIM3_ch1_IP_capture_measurement_reelapse_callback+0xa4>
		|| (speed_fsm.current_state.speed_exclusive_state == MIDI_CLK_PENDING_B2_MODE)
 8001934:	7823      	ldrb	r3, [r4, #0]
 8001936:	2b0d      	cmp	r3, #13
 8001938:	d024      	beq.n	8001984 <TIM3_ch1_IP_capture_measurement_reelapse_callback+0xa4>
		|| (speed_fsm.current_state.speed_exclusive_state == MIDI_CLK_RESYNC_B0_MODE)
 800193a:	7823      	ldrb	r3, [r4, #0]
 800193c:	2b10      	cmp	r3, #16
 800193e:	d021      	beq.n	8001984 <TIM3_ch1_IP_capture_measurement_reelapse_callback+0xa4>
		|| (speed_fsm.current_state.speed_exclusive_state == MIDI_CLK_RESYNC_B1_MODE)
 8001940:	7823      	ldrb	r3, [r4, #0]
 8001942:	2b11      	cmp	r3, #17
 8001944:	d01e      	beq.n	8001984 <TIM3_ch1_IP_capture_measurement_reelapse_callback+0xa4>
		|| (speed_fsm.current_state.speed_exclusive_state == MIDI_CLK_RESYNC_B2_MODE))){
 8001946:	7823      	ldrb	r3, [r4, #0]
	if(!((speed_fsm.current_state.speed_exclusive_state == MIDI_CLK_PENDING_B0_MODE)
 8001948:	2b12      	cmp	r3, #18
 800194a:	d01b      	beq.n	8001984 <TIM3_ch1_IP_capture_measurement_reelapse_callback+0xa4>

		Copy_Params_Structs(&params_to_be_loaded, &params_working);
 800194c:	4c13      	ldr	r4, [pc, #76]	@ (800199c <TIM3_ch1_IP_capture_measurement_reelapse_callback+0xbc>)
 800194e:	4916      	ldr	r1, [pc, #88]	@ (80019a8 <TIM3_ch1_IP_capture_measurement_reelapse_callback+0xc8>)
 8001950:	0020      	movs	r0, r4
 8001952:	f000 fed1 	bl	80026f8 <Copy_Params_Structs>
		Copy_Params_Structs(&params_to_be_loaded, &params);
 8001956:	4d15      	ldr	r5, [pc, #84]	@ (80019ac <TIM3_ch1_IP_capture_measurement_reelapse_callback+0xcc>)
 8001958:	0020      	movs	r0, r4
 800195a:	0029      	movs	r1, r5
 800195c:	f000 fecc 	bl	80026f8 <Copy_Params_Structs>

		Set_Status_Bit(&statuses, First_Sync_Complete);
 8001960:	2108      	movs	r1, #8
 8001962:	4813      	ldr	r0, [pc, #76]	@ (80019b0 <TIM3_ch1_IP_capture_measurement_reelapse_callback+0xd0>)
 8001964:	f001 fde0 	bl	8003528 <Set_Status_Bit>

		Calculate_Next_Main_Oscillator_Values(&params, (enum Next_Values_Processing_Mode)REGULAR_MODE);
 8001968:	2100      	movs	r1, #0
 800196a:	0028      	movs	r0, r5
 800196c:	f000 ffbe 	bl	80028ec <Calculate_Next_Main_Oscillator_Values>
		Write_Next_Main_Oscillator_Values_to_Delay_Line(&params, &delay_line);
 8001970:	4910      	ldr	r1, [pc, #64]	@ (80019b4 <TIM3_ch1_IP_capture_measurement_reelapse_callback+0xd4>)
 8001972:	0028      	movs	r0, r5
 8001974:	f001 f848 	bl	8002a08 <Write_Next_Main_Oscillator_Values_to_Delay_Line>
		HAL_ADC_Start_DMA(&hadc1, (uint32_t*)ADCResultsDMA, (uint32_t)num_ADC_conversions); //this function takes ages to execute!
 8001978:	4b0f      	ldr	r3, [pc, #60]	@ (80019b8 <TIM3_ch1_IP_capture_measurement_reelapse_callback+0xd8>)
 800197a:	4910      	ldr	r1, [pc, #64]	@ (80019bc <TIM3_ch1_IP_capture_measurement_reelapse_callback+0xdc>)
 800197c:	781a      	ldrb	r2, [r3, #0]
 800197e:	4810      	ldr	r0, [pc, #64]	@ (80019c0 <TIM3_ch1_IP_capture_measurement_reelapse_callback+0xe0>)
 8001980:	f002 fa08 	bl	8003d94 <HAL_ADC_Start_DMA>

	}

	//HAL_GPIO_WritePin(MONITOR_GPIO_Port, MONITOR_Pin, 0);
}
 8001984:	bd70      	pop	{r4, r5, r6, pc}
		IP_CAP_fsm.current_state = MEASUREMENT_PENDING;
 8001986:	3a02      	subs	r2, #2
 8001988:	701a      	strb	r2, [r3, #0]
		IP_CAP_fsm.prev_state = MEASUREMENT_REELAPSE_AND_MEASUREMENT_PENDING;
 800198a:	7059      	strb	r1, [r3, #1]
 800198c:	e7cc      	b.n	8001928 <TIM3_ch1_IP_capture_measurement_reelapse_callback+0x48>
		IP_CAP_fsm.current_state = IDLE;
 800198e:	2200      	movs	r2, #0
 8001990:	701a      	strb	r2, [r3, #0]
		IP_CAP_fsm.prev_state = MEASUREMENT_REELAPSE;
 8001992:	7059      	strb	r1, [r3, #1]
 8001994:	e7c8      	b.n	8001928 <TIM3_ch1_IP_capture_measurement_reelapse_callback+0x48>
 8001996:	46c0      	nop			@ (mov r8, r8)
 8001998:	2000043c 	.word	0x2000043c
 800199c:	20000c58 	.word	0x20000c58
 80019a0:	2000078c 	.word	0x2000078c
 80019a4:	20000428 	.word	0x20000428
 80019a8:	20000c34 	.word	0x20000c34
 80019ac:	20000ca0 	.word	0x20000ca0
 80019b0:	20000c30 	.word	0x20000c30
 80019b4:	20000020 	.word	0x20000020
 80019b8:	08007ea8 	.word	0x08007ea8
 80019bc:	20000cc4 	.word	0x20000cc4
 80019c0:	20000b94 	.word	0x20000b94

080019c4 <UART2_TX_transfer_complete_callback>:

void UART2_TX_transfer_complete_callback(UART_HandleTypeDef *huart){
 80019c4:	4770      	bx	lr
 80019c6:	46c0      	nop			@ (mov r8, r8)

080019c8 <UART2_RX_transfer_complete_callback>:

	//UART_DMA_TX_is_complete = YES;
}

void UART2_RX_transfer_complete_callback(UART_HandleTypeDef *huart){
 80019c8:	b5f8      	push	{r3, r4, r5, r6, r7, lr}
 80019ca:	46ce      	mov	lr, r9
 80019cc:	4647      	mov	r7, r8

	if(Is_System_Real_Time_Status_Byte(rx_buffer) == YES){
 80019ce:	4cca      	ldr	r4, [pc, #808]	@ (8001cf8 <UART2_RX_transfer_complete_callback+0x330>)
void UART2_RX_transfer_complete_callback(UART_HandleTypeDef *huart){
 80019d0:	b580      	push	{r7, lr}
	if(Is_System_Real_Time_Status_Byte(rx_buffer) == YES){
 80019d2:	0020      	movs	r0, r4
 80019d4:	f7ff f8c0 	bl	8000b58 <Is_System_Real_Time_Status_Byte>
 80019d8:	2801      	cmp	r0, #1
 80019da:	d046      	beq.n	8001a6a <UART2_RX_transfer_complete_callback+0xa2>
		}
	}
	//not a realtime status byte
	else{

		if(active_status_byte == 0){
 80019dc:	4dc7      	ldr	r5, [pc, #796]	@ (8001cfc <UART2_RX_transfer_complete_callback+0x334>)
 80019de:	782b      	ldrb	r3, [r5, #0]
 80019e0:	b2da      	uxtb	r2, r3
 80019e2:	4690      	mov	r8, r2
 80019e4:	2b00      	cmp	r3, #0
 80019e6:	d131      	bne.n	8001a4c <UART2_RX_transfer_complete_callback+0x84>

			if(running_status_byte == 0){
 80019e8:	4ec5      	ldr	r6, [pc, #788]	@ (8001d00 <UART2_RX_transfer_complete_callback+0x338>)
 80019ea:	7833      	ldrb	r3, [r6, #0]
 80019ec:	b2df      	uxtb	r7, r3
 80019ee:	2b00      	cmp	r3, #0
 80019f0:	d100      	bne.n	80019f4 <UART2_RX_transfer_complete_callback+0x2c>
 80019f2:	e0c9      	b.n	8001b88 <UART2_RX_transfer_complete_callback+0x1c0>

						}
					}
				}
			}
			else if(running_status_byte != 0){
 80019f4:	7833      	ldrb	r3, [r6, #0]
 80019f6:	2b00      	cmp	r3, #0
 80019f8:	d02c      	beq.n	8001a54 <UART2_RX_transfer_complete_callback+0x8c>

				if(Is_Data_Byte(rx_buffer) == YES){
 80019fa:	0020      	movs	r0, r4
 80019fc:	f7ff f808 	bl	8000a10 <Is_Data_Byte>
 8001a00:	2801      	cmp	r0, #1
 8001a02:	d100      	bne.n	8001a06 <UART2_RX_transfer_complete_callback+0x3e>
 8001a04:	e1a2      	b.n	8001d4c <UART2_RX_transfer_complete_callback+0x384>
					}
					//don't need to check Sysex with running status, as not supported by MIDI
				}
				else{ // is a status byte -> status byte interrupts an active status byte (when data bytes should be being received)

					Clear_Data_Buffer(&MIDI_data);
 8001a06:	48bf      	ldr	r0, [pc, #764]	@ (8001d04 <UART2_RX_transfer_complete_callback+0x33c>)
 8001a08:	f7ff f892 	bl	8000b30 <Clear_Data_Buffer>
					Reset_and_Stop_MIDI_Software_Timer(&midi_counter, &statuses);
 8001a0c:	4fbe      	ldr	r7, [pc, #760]	@ (8001d08 <UART2_RX_transfer_complete_callback+0x340>)
 8001a0e:	48bf      	ldr	r0, [pc, #764]	@ (8001d0c <UART2_RX_transfer_complete_callback+0x344>)
 8001a10:	0039      	movs	r1, r7
 8001a12:	f7ff f8c3 	bl	8000b9c <Reset_and_Stop_MIDI_Software_Timer>

					if(Is_PC_Status_Byte(rx_buffer) == YES){
 8001a16:	0020      	movs	r0, r4
 8001a18:	f7ff f800 	bl	8000a1c <Is_PC_Status_Byte>
 8001a1c:	2801      	cmp	r0, #1
 8001a1e:	d100      	bne.n	8001a22 <UART2_RX_transfer_complete_callback+0x5a>
 8001a20:	e141      	b.n	8001ca6 <UART2_RX_transfer_complete_callback+0x2de>
								Set_Status_Bit(&statuses, Software_IP_CAP_Idle_Timer_Is_Running);

							}
						}
					}
					else if(Is_CC_Status_Byte(rx_buffer) == YES){
 8001a22:	0020      	movs	r0, r4
 8001a24:	f7ff f802 	bl	8000a2c <Is_CC_Status_Byte>
 8001a28:	2801      	cmp	r0, #1
 8001a2a:	d100      	bne.n	8001a2e <UART2_RX_transfer_complete_callback+0x66>
 8001a2c:	e13b      	b.n	8001ca6 <UART2_RX_transfer_complete_callback+0x2de>
								Set_Status_Bit(&statuses, Software_IP_CAP_Idle_Timer_Is_Running);

							}
						}
					}
					else if(Is_Sysex_Start_Status_Byte(rx_buffer) == YES){
 8001a2e:	0020      	movs	r0, r4
 8001a30:	f7ff f852 	bl	8000ad8 <Is_Sysex_Start_Status_Byte>
 8001a34:	2801      	cmp	r0, #1
 8001a36:	d10d      	bne.n	8001a54 <UART2_RX_transfer_complete_callback+0x8c>

						active_status_byte = (uint8_t)*rx_buffer;
 8001a38:	7823      	ldrb	r3, [r4, #0]
						running_status_byte = 0;
						Set_Status_Bit(&statuses, Software_IP_CAP_Idle_Timer_Is_Running);
 8001a3a:	2140      	movs	r1, #64	@ 0x40
						active_status_byte = (uint8_t)*rx_buffer;
 8001a3c:	b2db      	uxtb	r3, r3
 8001a3e:	702b      	strb	r3, [r5, #0]
						running_status_byte = 0;
 8001a40:	4643      	mov	r3, r8
						Set_Status_Bit(&statuses, Software_IP_CAP_Idle_Timer_Is_Running);
 8001a42:	0038      	movs	r0, r7
						running_status_byte = 0;
 8001a44:	7033      	strb	r3, [r6, #0]
						Set_Status_Bit(&statuses, Software_IP_CAP_Idle_Timer_Is_Running);
 8001a46:	f001 fd6f 	bl	8003528 <Set_Status_Bit>
 8001a4a:	e003      	b.n	8001a54 <UART2_RX_transfer_complete_callback+0x8c>

					}
				}
			}
		}
		else if(active_status_byte != 0){
 8001a4c:	782b      	ldrb	r3, [r5, #0]
 8001a4e:	2b00      	cmp	r3, #0
 8001a50:	d000      	beq.n	8001a54 <UART2_RX_transfer_complete_callback+0x8c>
 8001a52:	e0c0      	b.n	8001bd6 <UART2_RX_transfer_complete_callback+0x20e>
				}
			}
		}
	}

	*rx_buffer = 0;
 8001a54:	2300      	movs	r3, #0

	HAL_UART_Receive_DMA(&huart2, (uint8_t*)rx_buffer, sizeof(rx_buffer));
 8001a56:	2201      	movs	r2, #1
 8001a58:	0021      	movs	r1, r4
 8001a5a:	48ad      	ldr	r0, [pc, #692]	@ (8001d10 <UART2_RX_transfer_complete_callback+0x348>)
	*rx_buffer = 0;
 8001a5c:	7023      	strb	r3, [r4, #0]
	HAL_UART_Receive_DMA(&huart2, (uint8_t*)rx_buffer, sizeof(rx_buffer));
 8001a5e:	f005 fc05 	bl	800726c <HAL_UART_Receive_DMA>
}
 8001a62:	bcc0      	pop	{r6, r7}
 8001a64:	46b9      	mov	r9, r7
 8001a66:	46b0      	mov	r8, r6
 8001a68:	bdf8      	pop	{r3, r4, r5, r6, r7, pc}
		if(Get_Status_Bit(&statuses, Start_Required_Before_Sync_Mode) == YES){
 8001a6a:	4fa7      	ldr	r7, [pc, #668]	@ (8001d08 <UART2_RX_transfer_complete_callback+0x340>)
 8001a6c:	2180      	movs	r1, #128	@ 0x80
 8001a6e:	0038      	movs	r0, r7
 8001a70:	f001 fd54 	bl	800351c <Get_Status_Bit>
 8001a74:	2801      	cmp	r0, #1
 8001a76:	d1ed      	bne.n	8001a54 <UART2_RX_transfer_complete_callback+0x8c>
			if((MIDI_CLK_fsm == NOT_COMPILING) && (IP_CAP_fsm.current_state == IDLE)
 8001a78:	4ea6      	ldr	r6, [pc, #664]	@ (8001d14 <UART2_RX_transfer_complete_callback+0x34c>)
 8001a7a:	7833      	ldrb	r3, [r6, #0]
 8001a7c:	2b00      	cmp	r3, #0
 8001a7e:	d100      	bne.n	8001a82 <UART2_RX_transfer_complete_callback+0xba>
 8001a80:	e0d9      	b.n	8001c36 <UART2_RX_transfer_complete_callback+0x26e>
 8001a82:	4da5      	ldr	r5, [pc, #660]	@ (8001d18 <UART2_RX_transfer_complete_callback+0x350>)
			else if(speed_fsm.current_state.speed_exclusive_state == MIDI_CLK_PENDING_A0_MODE){
 8001a84:	782b      	ldrb	r3, [r5, #0]
 8001a86:	2b09      	cmp	r3, #9
 8001a88:	d100      	bne.n	8001a8c <UART2_RX_transfer_complete_callback+0xc4>
 8001a8a:	e191      	b.n	8001db0 <UART2_RX_transfer_complete_callback+0x3e8>
			else if(speed_fsm.current_state.speed_exclusive_state == MIDI_CLK_PENDING_A1_MODE){
 8001a8c:	782b      	ldrb	r3, [r5, #0]
 8001a8e:	b2da      	uxtb	r2, r3
 8001a90:	2b0a      	cmp	r3, #10
 8001a92:	d100      	bne.n	8001a96 <UART2_RX_transfer_complete_callback+0xce>
 8001a94:	e1a6      	b.n	8001de4 <UART2_RX_transfer_complete_callback+0x41c>
			else if(speed_fsm.current_state.speed_exclusive_state == MIDI_CLK_PENDING_B0_MODE){
 8001a96:	782b      	ldrb	r3, [r5, #0]
 8001a98:	2b0b      	cmp	r3, #11
 8001a9a:	d100      	bne.n	8001a9e <UART2_RX_transfer_complete_callback+0xd6>
 8001a9c:	e1e7      	b.n	8001e6e <UART2_RX_transfer_complete_callback+0x4a6>
			else if(speed_fsm.current_state.speed_exclusive_state == MIDI_CLK_PENDING_B1_MODE){
 8001a9e:	782b      	ldrb	r3, [r5, #0]
 8001aa0:	2b0c      	cmp	r3, #12
 8001aa2:	d100      	bne.n	8001aa6 <UART2_RX_transfer_complete_callback+0xde>
 8001aa4:	e206      	b.n	8001eb4 <UART2_RX_transfer_complete_callback+0x4ec>
			else if(speed_fsm.current_state.speed_exclusive_state == MIDI_CLK_PENDING_B2_MODE){
 8001aa6:	782b      	ldrb	r3, [r5, #0]
 8001aa8:	b2da      	uxtb	r2, r3
 8001aaa:	4690      	mov	r8, r2
 8001aac:	2b0d      	cmp	r3, #13
 8001aae:	d100      	bne.n	8001ab2 <UART2_RX_transfer_complete_callback+0xea>
 8001ab0:	e22a      	b.n	8001f08 <UART2_RX_transfer_complete_callback+0x540>
			else if((speed_fsm.current_state.speed_exclusive_state == MIDI_CLK_MODE) && (Get_Status_Bit(&statuses, Software_IP_CAP_Idle_Timer_Has_Timed_Out) == NO)){
 8001ab2:	782b      	ldrb	r3, [r5, #0]
 8001ab4:	2b08      	cmp	r3, #8
 8001ab6:	d100      	bne.n	8001aba <UART2_RX_transfer_complete_callback+0xf2>
 8001ab8:	e326      	b.n	8002108 <UART2_RX_transfer_complete_callback+0x740>
			else if((speed_fsm.current_state.speed_exclusive_state == MIDI_CLK_MODE) && (IP_CAP_fsm.current_state == IDLE) && (Get_Status_Bit(&statuses, Software_IP_CAP_Idle_Timer_Has_Timed_Out) == YES)){
 8001aba:	782b      	ldrb	r3, [r5, #0]
 8001abc:	b2da      	uxtb	r2, r3
 8001abe:	4690      	mov	r8, r2
 8001ac0:	2b08      	cmp	r3, #8
 8001ac2:	d100      	bne.n	8001ac6 <UART2_RX_transfer_complete_callback+0xfe>
 8001ac4:	e295      	b.n	8001ff2 <UART2_RX_transfer_complete_callback+0x62a>
			else if(speed_fsm.current_state.speed_exclusive_state == MIDI_CLK_RESYNC_A0_MODE){
 8001ac6:	782b      	ldrb	r3, [r5, #0]
 8001ac8:	2b0e      	cmp	r3, #14
 8001aca:	d100      	bne.n	8001ace <UART2_RX_transfer_complete_callback+0x106>
 8001acc:	e2b7      	b.n	800203e <UART2_RX_transfer_complete_callback+0x676>
			else if(speed_fsm.current_state.speed_exclusive_state == MIDI_CLK_RESYNC_A1_MODE){
 8001ace:	782b      	ldrb	r3, [r5, #0]
 8001ad0:	b2d9      	uxtb	r1, r3
 8001ad2:	2b0f      	cmp	r3, #15
 8001ad4:	d100      	bne.n	8001ad8 <UART2_RX_transfer_complete_callback+0x110>
 8001ad6:	e334      	b.n	8002142 <UART2_RX_transfer_complete_callback+0x77a>
			else if(speed_fsm.current_state.speed_exclusive_state == MIDI_CLK_RESYNC_B0_MODE){
 8001ad8:	782b      	ldrb	r3, [r5, #0]
 8001ada:	2b10      	cmp	r3, #16
 8001adc:	d100      	bne.n	8001ae0 <UART2_RX_transfer_complete_callback+0x118>
 8001ade:	e371      	b.n	80021c4 <UART2_RX_transfer_complete_callback+0x7fc>
			else if(speed_fsm.current_state.speed_exclusive_state == MIDI_CLK_RESYNC_B1_MODE){
 8001ae0:	782b      	ldrb	r3, [r5, #0]
 8001ae2:	2b11      	cmp	r3, #17
 8001ae4:	d100      	bne.n	8001ae8 <UART2_RX_transfer_complete_callback+0x120>
 8001ae6:	e383      	b.n	80021f0 <UART2_RX_transfer_complete_callback+0x828>
			else if(speed_fsm.current_state.speed_exclusive_state == MIDI_CLK_RESYNC_B2_MODE){
 8001ae8:	782b      	ldrb	r3, [r5, #0]
 8001aea:	b2da      	uxtb	r2, r3
 8001aec:	4690      	mov	r8, r2
 8001aee:	2b12      	cmp	r3, #18
 8001af0:	d1b0      	bne.n	8001a54 <UART2_RX_transfer_complete_callback+0x8c>
				if(*rx_buffer == SYSTEM_REAL_TIME_MIDI_CLOCK){
 8001af2:	7823      	ldrb	r3, [r4, #0]
 8001af4:	2bf8      	cmp	r3, #248	@ 0xf8
 8001af6:	d1ad      	bne.n	8001a54 <UART2_RX_transfer_complete_callback+0x8c>
					Set_Oscillator_Values(&params_to_be_loaded);
 8001af8:	4e88      	ldr	r6, [pc, #544]	@ (8001d1c <UART2_RX_transfer_complete_callback+0x354>)
 8001afa:	0030      	movs	r0, r6
 8001afc:	f000 fede 	bl	80028bc <Set_Oscillator_Values>
					HAL_GPIO_WritePin(SW_OUT_GPIO_Port, SW_OUT_Pin, 1);
 8001b00:	2180      	movs	r1, #128	@ 0x80
 8001b02:	20a0      	movs	r0, #160	@ 0xa0
 8001b04:	2201      	movs	r2, #1
 8001b06:	0089      	lsls	r1, r1, #2
 8001b08:	05c0      	lsls	r0, r0, #23
 8001b0a:	f002 fec3 	bl	8004894 <HAL_GPIO_WritePin>
					HAL_GPIO_WritePin(LD3_GPIO_Port, LD3_Pin, 0);
 8001b0e:	2200      	movs	r2, #0
 8001b10:	2140      	movs	r1, #64	@ 0x40
 8001b12:	4883      	ldr	r0, [pc, #524]	@ (8001d20 <UART2_RX_transfer_complete_callback+0x358>)
 8001b14:	f002 febe 	bl	8004894 <HAL_GPIO_WritePin>
					HAL_GPIO_WritePin(SW_OUT_GPIO_Port, SW_OUT_Pin, 0);
 8001b18:	2180      	movs	r1, #128	@ 0x80
 8001b1a:	20a0      	movs	r0, #160	@ 0xa0
 8001b1c:	2200      	movs	r2, #0
 8001b1e:	0089      	lsls	r1, r1, #2
 8001b20:	05c0      	lsls	r0, r0, #23
 8001b22:	f002 feb7 	bl	8004894 <HAL_GPIO_WritePin>
					HAL_GPIO_WritePin(LD3_GPIO_Port, LD3_Pin, 1);
 8001b26:	2201      	movs	r2, #1
 8001b28:	2140      	movs	r1, #64	@ 0x40
 8001b2a:	487d      	ldr	r0, [pc, #500]	@ (8001d20 <UART2_RX_transfer_complete_callback+0x358>)
 8001b2c:	f002 feb2 	bl	8004894 <HAL_GPIO_WritePin>
					speed_fsm.prev_state.speed_exclusive_state = MIDI_CLK_RESYNC_B2_MODE;
 8001b30:	4643      	mov	r3, r8
 8001b32:	706b      	strb	r3, [r5, #1]
					speed_fsm.current_state.speed_exclusive_state = MIDI_CLK_MODE;
 8001b34:	2308      	movs	r3, #8
					MIDI_CLK_tag = 1;
 8001b36:	2201      	movs	r2, #1
					speed_fsm.current_state.speed_exclusive_state = MIDI_CLK_MODE;
 8001b38:	702b      	strb	r3, [r5, #0]
 8001b3a:	4698      	mov	r8, r3
					MIDI_CLK_tag = 1;
 8001b3c:	4b79      	ldr	r3, [pc, #484]	@ (8001d24 <UART2_RX_transfer_complete_callback+0x35c>)
					Stop_OC_TIM(&htim3, TIM_CHANNEL_1); //do we need?
 8001b3e:	2100      	movs	r1, #0
 8001b40:	4879      	ldr	r0, [pc, #484]	@ (8001d28 <UART2_RX_transfer_complete_callback+0x360>)
					MIDI_CLK_tag = 1;
 8001b42:	701a      	strb	r2, [r3, #0]
					Stop_OC_TIM(&htim3, TIM_CHANNEL_1); //do we need?
 8001b44:	f001 fcbc 	bl	80034c0 <Stop_OC_TIM>
					IP_CAP_fsm.current_state = IDLE; //force idle so next edge is forced to be computed as first edge
 8001b48:	2200      	movs	r2, #0
 8001b4a:	4691      	mov	r9, r2
 8001b4c:	4b77      	ldr	r3, [pc, #476]	@ (8001d2c <UART2_RX_transfer_complete_callback+0x364>)
					Copy_Params_Structs(&params_to_be_loaded, &params_working);
 8001b4e:	4978      	ldr	r1, [pc, #480]	@ (8001d30 <UART2_RX_transfer_complete_callback+0x368>)
 8001b50:	0030      	movs	r0, r6
					IP_CAP_fsm.current_state = IDLE; //force idle so next edge is forced to be computed as first edge
 8001b52:	701a      	strb	r2, [r3, #0]
					Copy_Params_Structs(&params_to_be_loaded, &params_working);
 8001b54:	f000 fdd0 	bl	80026f8 <Copy_Params_Structs>
					Copy_Params_Structs(&params_to_be_loaded, &params);
 8001b58:	4d76      	ldr	r5, [pc, #472]	@ (8001d34 <UART2_RX_transfer_complete_callback+0x36c>)
 8001b5a:	0030      	movs	r0, r6
 8001b5c:	0029      	movs	r1, r5
 8001b5e:	f000 fdcb 	bl	80026f8 <Copy_Params_Structs>
					Set_Status_Bit(&statuses, First_Sync_Complete);
 8001b62:	4641      	mov	r1, r8
 8001b64:	0038      	movs	r0, r7
 8001b66:	f001 fcdf 	bl	8003528 <Set_Status_Bit>
					Calculate_Next_Main_Oscillator_Values(&params, (enum Next_Values_Processing_Mode)REGULAR_MODE);
 8001b6a:	4649      	mov	r1, r9
 8001b6c:	0028      	movs	r0, r5
 8001b6e:	f000 febd 	bl	80028ec <Calculate_Next_Main_Oscillator_Values>
					Write_Next_Main_Oscillator_Values_to_Delay_Line(&params, &delay_line);
 8001b72:	0028      	movs	r0, r5
 8001b74:	4970      	ldr	r1, [pc, #448]	@ (8001d38 <UART2_RX_transfer_complete_callback+0x370>)
 8001b76:	f000 ff47 	bl	8002a08 <Write_Next_Main_Oscillator_Values_to_Delay_Line>
					HAL_ADC_Start_DMA(&hadc1, (uint32_t*)ADCResultsDMA, (uint32_t)num_ADC_conversions); //this function takes ages to execute!
 8001b7a:	4b70      	ldr	r3, [pc, #448]	@ (8001d3c <UART2_RX_transfer_complete_callback+0x374>)
 8001b7c:	4970      	ldr	r1, [pc, #448]	@ (8001d40 <UART2_RX_transfer_complete_callback+0x378>)
 8001b7e:	781a      	ldrb	r2, [r3, #0]
 8001b80:	4870      	ldr	r0, [pc, #448]	@ (8001d44 <UART2_RX_transfer_complete_callback+0x37c>)
 8001b82:	f002 f907 	bl	8003d94 <HAL_ADC_Start_DMA>
 8001b86:	e765      	b.n	8001a54 <UART2_RX_transfer_complete_callback+0x8c>
				if(Is_Data_Buffer_Empty(&MIDI_data) == YES){
 8001b88:	485e      	ldr	r0, [pc, #376]	@ (8001d04 <UART2_RX_transfer_complete_callback+0x33c>)
 8001b8a:	f7fe ffb9 	bl	8000b00 <Is_Data_Buffer_Empty>
 8001b8e:	2801      	cmp	r0, #1
 8001b90:	d000      	beq.n	8001b94 <UART2_RX_transfer_complete_callback+0x1cc>
 8001b92:	e75f      	b.n	8001a54 <UART2_RX_transfer_complete_callback+0x8c>
					if(Is_Status_Byte(rx_buffer) == YES){
 8001b94:	0020      	movs	r0, r4
 8001b96:	f7fe ff37 	bl	8000a08 <Is_Status_Byte>
 8001b9a:	2801      	cmp	r0, #1
 8001b9c:	d000      	beq.n	8001ba0 <UART2_RX_transfer_complete_callback+0x1d8>
 8001b9e:	e759      	b.n	8001a54 <UART2_RX_transfer_complete_callback+0x8c>
						if(Is_PC_Status_Byte(rx_buffer) == YES){
 8001ba0:	0020      	movs	r0, r4
 8001ba2:	f7fe ff3b 	bl	8000a1c <Is_PC_Status_Byte>
 8001ba6:	2801      	cmp	r0, #1
 8001ba8:	d100      	bne.n	8001bac <UART2_RX_transfer_complete_callback+0x1e4>
 8001baa:	e1fa      	b.n	8001fa2 <UART2_RX_transfer_complete_callback+0x5da>
						else if(Is_CC_Status_Byte(rx_buffer) == YES){
 8001bac:	0020      	movs	r0, r4
 8001bae:	f7fe ff3d 	bl	8000a2c <Is_CC_Status_Byte>
 8001bb2:	2801      	cmp	r0, #1
 8001bb4:	d100      	bne.n	8001bb8 <UART2_RX_transfer_complete_callback+0x1f0>
 8001bb6:	e1f4      	b.n	8001fa2 <UART2_RX_transfer_complete_callback+0x5da>
						else if(Is_Sysex_Start_Status_Byte(rx_buffer) == YES){
 8001bb8:	0020      	movs	r0, r4
 8001bba:	f7fe ff8d 	bl	8000ad8 <Is_Sysex_Start_Status_Byte>
 8001bbe:	2801      	cmp	r0, #1
 8001bc0:	d000      	beq.n	8001bc4 <UART2_RX_transfer_complete_callback+0x1fc>
 8001bc2:	e747      	b.n	8001a54 <UART2_RX_transfer_complete_callback+0x8c>
							active_status_byte = (uint8_t)*rx_buffer;
 8001bc4:	7823      	ldrb	r3, [r4, #0]
							Set_Status_Bit(&statuses, Software_IP_CAP_Idle_Timer_Is_Running);
 8001bc6:	2140      	movs	r1, #64	@ 0x40
							active_status_byte = (uint8_t)*rx_buffer;
 8001bc8:	b2db      	uxtb	r3, r3
							Set_Status_Bit(&statuses, Software_IP_CAP_Idle_Timer_Is_Running);
 8001bca:	484f      	ldr	r0, [pc, #316]	@ (8001d08 <UART2_RX_transfer_complete_callback+0x340>)
							active_status_byte = (uint8_t)*rx_buffer;
 8001bcc:	702b      	strb	r3, [r5, #0]
							running_status_byte = 0;
 8001bce:	7037      	strb	r7, [r6, #0]
							Set_Status_Bit(&statuses, Software_IP_CAP_Idle_Timer_Is_Running);
 8001bd0:	f001 fcaa 	bl	8003528 <Set_Status_Bit>
 8001bd4:	e73e      	b.n	8001a54 <UART2_RX_transfer_complete_callback+0x8c>
			if(Get_Status_Bit(&statuses, Software_MIDI_Timer_Has_Timed_Out) == YES){
 8001bd6:	2180      	movs	r1, #128	@ 0x80
 8001bd8:	4f4b      	ldr	r7, [pc, #300]	@ (8001d08 <UART2_RX_transfer_complete_callback+0x340>)
 8001bda:	0089      	lsls	r1, r1, #2
 8001bdc:	0038      	movs	r0, r7
 8001bde:	f001 fc9d 	bl	800351c <Get_Status_Bit>
 8001be2:	2801      	cmp	r0, #1
 8001be4:	d07d      	beq.n	8001ce2 <UART2_RX_transfer_complete_callback+0x31a>
				if(Is_Data_Byte(rx_buffer) == YES){
 8001be6:	0020      	movs	r0, r4
 8001be8:	f7fe ff12 	bl	8000a10 <Is_Data_Byte>
 8001bec:	2801      	cmp	r0, #1
 8001bee:	d100      	bne.n	8001bf2 <UART2_RX_transfer_complete_callback+0x22a>
 8001bf0:	e0ca      	b.n	8001d88 <UART2_RX_transfer_complete_callback+0x3c0>
					Clear_Data_Buffer(&MIDI_data);
 8001bf2:	4844      	ldr	r0, [pc, #272]	@ (8001d04 <UART2_RX_transfer_complete_callback+0x33c>)
 8001bf4:	f7fe ff9c 	bl	8000b30 <Clear_Data_Buffer>
					Reset_and_Stop_MIDI_Software_Timer(&midi_counter, &statuses);
 8001bf8:	0039      	movs	r1, r7
 8001bfa:	4844      	ldr	r0, [pc, #272]	@ (8001d0c <UART2_RX_transfer_complete_callback+0x344>)
 8001bfc:	f7fe ffce 	bl	8000b9c <Reset_and_Stop_MIDI_Software_Timer>
					if(Is_PC_Status_Byte(rx_buffer) == YES){
 8001c00:	0020      	movs	r0, r4
 8001c02:	f7fe ff0b 	bl	8000a1c <Is_PC_Status_Byte>
 8001c06:	2801      	cmp	r0, #1
 8001c08:	d066      	beq.n	8001cd8 <UART2_RX_transfer_complete_callback+0x310>
					else if(Is_CC_Status_Byte(rx_buffer) == YES){
 8001c0a:	0020      	movs	r0, r4
 8001c0c:	f7fe ff0e 	bl	8000a2c <Is_CC_Status_Byte>
 8001c10:	2801      	cmp	r0, #1
 8001c12:	d061      	beq.n	8001cd8 <UART2_RX_transfer_complete_callback+0x310>
					else if(Is_Sysex_Start_Status_Byte(rx_buffer) == YES){
 8001c14:	0020      	movs	r0, r4
 8001c16:	f7fe ff5f 	bl	8000ad8 <Is_Sysex_Start_Status_Byte>
 8001c1a:	2801      	cmp	r0, #1
 8001c1c:	d000      	beq.n	8001c20 <UART2_RX_transfer_complete_callback+0x258>
 8001c1e:	e719      	b.n	8001a54 <UART2_RX_transfer_complete_callback+0x8c>
						running_status_byte = 0;
 8001c20:	2200      	movs	r2, #0
						active_status_byte = (uint8_t)*rx_buffer;
 8001c22:	7823      	ldrb	r3, [r4, #0]
						Set_Status_Bit(&statuses, Software_IP_CAP_Idle_Timer_Is_Running);
 8001c24:	2140      	movs	r1, #64	@ 0x40
						active_status_byte = (uint8_t)*rx_buffer;
 8001c26:	b2db      	uxtb	r3, r3
 8001c28:	702b      	strb	r3, [r5, #0]
						running_status_byte = 0;
 8001c2a:	4b35      	ldr	r3, [pc, #212]	@ (8001d00 <UART2_RX_transfer_complete_callback+0x338>)
						Set_Status_Bit(&statuses, Software_IP_CAP_Idle_Timer_Is_Running);
 8001c2c:	0038      	movs	r0, r7
						running_status_byte = 0;
 8001c2e:	701a      	strb	r2, [r3, #0]
						Set_Status_Bit(&statuses, Software_IP_CAP_Idle_Timer_Is_Running);
 8001c30:	f001 fc7a 	bl	8003528 <Set_Status_Bit>
 8001c34:	e70e      	b.n	8001a54 <UART2_RX_transfer_complete_callback+0x8c>
			if((MIDI_CLK_fsm == NOT_COMPILING) && (IP_CAP_fsm.current_state == IDLE)
 8001c36:	4b3d      	ldr	r3, [pc, #244]	@ (8001d2c <UART2_RX_transfer_complete_callback+0x364>)
					&& ((speed_fsm.current_state.speed_exclusive_state == TAP_MODE)
 8001c38:	4d37      	ldr	r5, [pc, #220]	@ (8001d18 <UART2_RX_transfer_complete_callback+0x350>)
			if((MIDI_CLK_fsm == NOT_COMPILING) && (IP_CAP_fsm.current_state == IDLE)
 8001c3a:	781b      	ldrb	r3, [r3, #0]
 8001c3c:	2b00      	cmp	r3, #0
 8001c3e:	d000      	beq.n	8001c42 <UART2_RX_transfer_complete_callback+0x27a>
 8001c40:	e720      	b.n	8001a84 <UART2_RX_transfer_complete_callback+0xbc>
					&& ((speed_fsm.current_state.speed_exclusive_state == TAP_MODE)
 8001c42:	782b      	ldrb	r3, [r5, #0]
 8001c44:	2b04      	cmp	r3, #4
 8001c46:	d00c      	beq.n	8001c62 <UART2_RX_transfer_complete_callback+0x29a>
					|| (speed_fsm.current_state.shared_state == MANUAL_MODE)
 8001c48:	782b      	ldrb	r3, [r5, #0]
 8001c4a:	2b01      	cmp	r3, #1
 8001c4c:	d009      	beq.n	8001c62 <UART2_RX_transfer_complete_callback+0x29a>
					|| (speed_fsm.current_state.speed_exclusive_state == CLK_IN_MODE)
 8001c4e:	782b      	ldrb	r3, [r5, #0]
 8001c50:	2b06      	cmp	r3, #6
 8001c52:	d006      	beq.n	8001c62 <UART2_RX_transfer_complete_callback+0x29a>
					|| (speed_fsm.current_state.shared_state == PC_MODE)
 8001c54:	782b      	ldrb	r3, [r5, #0]
 8001c56:	2b03      	cmp	r3, #3
 8001c58:	d003      	beq.n	8001c62 <UART2_RX_transfer_complete_callback+0x29a>
					|| (speed_fsm.current_state.shared_state == CC_MODE))){
 8001c5a:	782b      	ldrb	r3, [r5, #0]
 8001c5c:	2b02      	cmp	r3, #2
 8001c5e:	d000      	beq.n	8001c62 <UART2_RX_transfer_complete_callback+0x29a>
 8001c60:	e710      	b.n	8001a84 <UART2_RX_transfer_complete_callback+0xbc>
				if(*rx_buffer == SYSTEM_REAL_TIME_START){
 8001c62:	7823      	ldrb	r3, [r4, #0]
 8001c64:	2bfa      	cmp	r3, #250	@ 0xfa
 8001c66:	d100      	bne.n	8001c6a <UART2_RX_transfer_complete_callback+0x2a2>
 8001c68:	e146      	b.n	8001ef8 <UART2_RX_transfer_complete_callback+0x530>
				else if(*rx_buffer == SYSTEM_REAL_TIME_MIDI_CLOCK){
 8001c6a:	7823      	ldrb	r3, [r4, #0]
 8001c6c:	2bf8      	cmp	r3, #248	@ 0xf8
 8001c6e:	d000      	beq.n	8001c72 <UART2_RX_transfer_complete_callback+0x2aa>
 8001c70:	e6f0      	b.n	8001a54 <UART2_RX_transfer_complete_callback+0x8c>
					speed_fsm.prev_state = speed_fsm.current_state;
 8001c72:	782b      	ldrb	r3, [r5, #0]
					HAL_GPIO_WritePin(SW_OUT_GPIO_Port, SW_OUT_Pin, 0);
 8001c74:	2180      	movs	r1, #128	@ 0x80
					speed_fsm.prev_state = speed_fsm.current_state;
 8001c76:	706b      	strb	r3, [r5, #1]
					speed_fsm.current_state.speed_exclusive_state = MIDI_CLK_PENDING_B0_MODE;
 8001c78:	230b      	movs	r3, #11
					HAL_GPIO_WritePin(SW_OUT_GPIO_Port, SW_OUT_Pin, 0);
 8001c7a:	20a0      	movs	r0, #160	@ 0xa0
					speed_fsm.current_state.speed_exclusive_state = MIDI_CLK_PENDING_B0_MODE;
 8001c7c:	702b      	strb	r3, [r5, #0]
					MIDI_CLK_tag = 0; //just in case
 8001c7e:	2300      	movs	r3, #0
 8001c80:	4d28      	ldr	r5, [pc, #160]	@ (8001d24 <UART2_RX_transfer_complete_callback+0x35c>)
					HAL_GPIO_WritePin(SW_OUT_GPIO_Port, SW_OUT_Pin, 0);
 8001c82:	2200      	movs	r2, #0
 8001c84:	0089      	lsls	r1, r1, #2
 8001c86:	05c0      	lsls	r0, r0, #23
					MIDI_CLK_tag = 0; //just in case
 8001c88:	702b      	strb	r3, [r5, #0]
					HAL_GPIO_WritePin(SW_OUT_GPIO_Port, SW_OUT_Pin, 0);
 8001c8a:	f002 fe03 	bl	8004894 <HAL_GPIO_WritePin>
					HAL_GPIO_WritePin(LD3_GPIO_Port, LD3_Pin, 1);
 8001c8e:	2201      	movs	r2, #1
 8001c90:	2140      	movs	r1, #64	@ 0x40
 8001c92:	4823      	ldr	r0, [pc, #140]	@ (8001d20 <UART2_RX_transfer_complete_callback+0x358>)
 8001c94:	f002 fdfe 	bl	8004894 <HAL_GPIO_WritePin>
					MIDI_CLK_fsm = COMPILING;
 8001c98:	2301      	movs	r3, #1
 8001c9a:	7033      	strb	r3, [r6, #0]
					MIDI_CLK_tag++;
 8001c9c:	782b      	ldrb	r3, [r5, #0]
 8001c9e:	3301      	adds	r3, #1
 8001ca0:	b2db      	uxtb	r3, r3
 8001ca2:	702b      	strb	r3, [r5, #0]
 8001ca4:	e6d6      	b.n	8001a54 <UART2_RX_transfer_complete_callback+0x8c>
						running_status_byte = (uint8_t)*rx_buffer;
 8001ca6:	7823      	ldrb	r3, [r4, #0]
 8001ca8:	b2db      	uxtb	r3, r3
 8001caa:	7033      	strb	r3, [r6, #0]
						if(Is_Channelised_Status_Byte_On_Basic_Channel(rx_buffer, MIDI_basic_channel) == YES){
 8001cac:	4b26      	ldr	r3, [pc, #152]	@ (8001d48 <UART2_RX_transfer_complete_callback+0x380>)
 8001cae:	0020      	movs	r0, r4
 8001cb0:	7819      	ldrb	r1, [r3, #0]
 8001cb2:	b2c9      	uxtb	r1, r1
 8001cb4:	f7fe ff16 	bl	8000ae4 <Is_Channelised_Status_Byte_On_Basic_Channel>
 8001cb8:	2801      	cmp	r0, #1
 8001cba:	d005      	beq.n	8001cc8 <UART2_RX_transfer_complete_callback+0x300>
							if(Is_OMNI_On(&statuses) == YES){
 8001cbc:	0038      	movs	r0, r7
 8001cbe:	f7fe ff63 	bl	8000b88 <Is_OMNI_On>
 8001cc2:	2801      	cmp	r0, #1
 8001cc4:	d000      	beq.n	8001cc8 <UART2_RX_transfer_complete_callback+0x300>
 8001cc6:	e6c5      	b.n	8001a54 <UART2_RX_transfer_complete_callback+0x8c>
								active_status_byte = (uint8_t)*rx_buffer;
 8001cc8:	7823      	ldrb	r3, [r4, #0]
								Set_Status_Bit(&statuses, Software_IP_CAP_Idle_Timer_Is_Running);
 8001cca:	2140      	movs	r1, #64	@ 0x40
								active_status_byte = (uint8_t)*rx_buffer;
 8001ccc:	b2db      	uxtb	r3, r3
								Set_Status_Bit(&statuses, Software_IP_CAP_Idle_Timer_Is_Running);
 8001cce:	0038      	movs	r0, r7
								active_status_byte = (uint8_t)*rx_buffer;
 8001cd0:	702b      	strb	r3, [r5, #0]
								Set_Status_Bit(&statuses, Software_IP_CAP_Idle_Timer_Is_Running);
 8001cd2:	f001 fc29 	bl	8003528 <Set_Status_Bit>
 8001cd6:	e6bd      	b.n	8001a54 <UART2_RX_transfer_complete_callback+0x8c>
						running_status_byte = (uint8_t)*rx_buffer;
 8001cd8:	7823      	ldrb	r3, [r4, #0]
 8001cda:	4a09      	ldr	r2, [pc, #36]	@ (8001d00 <UART2_RX_transfer_complete_callback+0x338>)
 8001cdc:	b2db      	uxtb	r3, r3
 8001cde:	7013      	strb	r3, [r2, #0]
 8001ce0:	e7e4      	b.n	8001cac <UART2_RX_transfer_complete_callback+0x2e4>
				active_status_byte = 0;
 8001ce2:	2300      	movs	r3, #0
				Clear_Data_Buffer(&MIDI_data);
 8001ce4:	4807      	ldr	r0, [pc, #28]	@ (8001d04 <UART2_RX_transfer_complete_callback+0x33c>)
				active_status_byte = 0;
 8001ce6:	702b      	strb	r3, [r5, #0]
				Clear_Data_Buffer(&MIDI_data);
 8001ce8:	f7fe ff22 	bl	8000b30 <Clear_Data_Buffer>
				Clear_Status_Bit(&statuses, Software_MIDI_Timer_Has_Timed_Out);
 8001cec:	2180      	movs	r1, #128	@ 0x80
 8001cee:	0038      	movs	r0, r7
 8001cf0:	0089      	lsls	r1, r1, #2
 8001cf2:	f001 fc1d 	bl	8003530 <Clear_Status_Bit>
 8001cf6:	e6ad      	b.n	8001a54 <UART2_RX_transfer_complete_callback+0x8c>
 8001cf8:	200004d4 	.word	0x200004d4
 8001cfc:	200004cf 	.word	0x200004cf
 8001d00:	200004ce 	.word	0x200004ce
 8001d04:	200004c4 	.word	0x200004c4
 8001d08:	20000c30 	.word	0x20000c30
 8001d0c:	20000c28 	.word	0x20000c28
 8001d10:	20000604 	.word	0x20000604
 8001d14:	20000cce 	.word	0x20000cce
 8001d18:	2000043c 	.word	0x2000043c
 8001d1c:	20000c58 	.word	0x20000c58
 8001d20:	50000800 	.word	0x50000800
 8001d24:	20000c1e 	.word	0x20000c1e
 8001d28:	2000078c 	.word	0x2000078c
 8001d2c:	20000428 	.word	0x20000428
 8001d30:	20000c34 	.word	0x20000c34
 8001d34:	20000ca0 	.word	0x20000ca0
 8001d38:	20000020 	.word	0x20000020
 8001d3c:	08007ea8 	.word	0x08007ea8
 8001d40:	20000cc4 	.word	0x20000cc4
 8001d44:	20000b94 	.word	0x20000b94
 8001d48:	200004d0 	.word	0x200004d0
					Set_Status_Bit(&statuses, Software_IP_CAP_Idle_Timer_Is_Running);
 8001d4c:	4fd0      	ldr	r7, [pc, #832]	@ (8002090 <UART2_RX_transfer_complete_callback+0x6c8>)
 8001d4e:	2140      	movs	r1, #64	@ 0x40
 8001d50:	0038      	movs	r0, r7
 8001d52:	f001 fbe9 	bl	8003528 <Set_Status_Bit>
					if(Is_PC_Status_Byte(&running_status_byte) == YES){
 8001d56:	0030      	movs	r0, r6
 8001d58:	f7fe fe60 	bl	8000a1c <Is_PC_Status_Byte>
 8001d5c:	2801      	cmp	r0, #1
 8001d5e:	d059      	beq.n	8001e14 <UART2_RX_transfer_complete_callback+0x44c>
					else if(Is_CC_Status_Byte(&running_status_byte) == YES){
 8001d60:	0030      	movs	r0, r6
 8001d62:	f7fe fe63 	bl	8000a2c <Is_CC_Status_Byte>
 8001d66:	2801      	cmp	r0, #1
 8001d68:	d000      	beq.n	8001d6c <UART2_RX_transfer_complete_callback+0x3a4>
 8001d6a:	e673      	b.n	8001a54 <UART2_RX_transfer_complete_callback+0x8c>
						if(Is_Data_Buffer_Empty(&MIDI_data) == YES){
 8001d6c:	4ec9      	ldr	r6, [pc, #804]	@ (8002094 <UART2_RX_transfer_complete_callback+0x6cc>)
 8001d6e:	0030      	movs	r0, r6
 8001d70:	f7fe fec6 	bl	8000b00 <Is_Data_Buffer_Empty>
							MIDI_data.MIDI_data_buffer[0] = *rx_buffer;
 8001d74:	7823      	ldrb	r3, [r4, #0]
 8001d76:	b2db      	uxtb	r3, r3
						if(Is_Data_Buffer_Empty(&MIDI_data) == YES){
 8001d78:	2801      	cmp	r0, #1
 8001d7a:	d000      	beq.n	8001d7e <UART2_RX_transfer_complete_callback+0x3b6>
 8001d7c:	e0a5      	b.n	8001eca <UART2_RX_transfer_complete_callback+0x502>
							midi_counter = 0; //reset timer
 8001d7e:	4642      	mov	r2, r8
							MIDI_data.MIDI_data_buffer[0] = *rx_buffer;
 8001d80:	7033      	strb	r3, [r6, #0]
							midi_counter = 0; //reset timer
 8001d82:	4bc5      	ldr	r3, [pc, #788]	@ (8002098 <UART2_RX_transfer_complete_callback+0x6d0>)
 8001d84:	601a      	str	r2, [r3, #0]
 8001d86:	e665      	b.n	8001a54 <UART2_RX_transfer_complete_callback+0x8c>
					if(Is_PC_Status_Byte(&active_status_byte) == YES){
 8001d88:	0028      	movs	r0, r5
 8001d8a:	f7fe fe47 	bl	8000a1c <Is_PC_Status_Byte>
 8001d8e:	2801      	cmp	r0, #1
 8001d90:	d058      	beq.n	8001e44 <UART2_RX_transfer_complete_callback+0x47c>
					else if(Is_CC_Status_Byte(&active_status_byte) == YES){
 8001d92:	0028      	movs	r0, r5
 8001d94:	f7fe fe4a 	bl	8000a2c <Is_CC_Status_Byte>
 8001d98:	2801      	cmp	r0, #1
 8001d9a:	d07e      	beq.n	8001e9a <UART2_RX_transfer_complete_callback+0x4d2>
					else if(Is_Sysex_Start_Status_Byte(&active_status_byte) == YES){
 8001d9c:	0028      	movs	r0, r5
 8001d9e:	f7fe fe9b 	bl	8000ad8 <Is_Sysex_Start_Status_Byte>
 8001da2:	2801      	cmp	r0, #1
 8001da4:	d000      	beq.n	8001da8 <UART2_RX_transfer_complete_callback+0x3e0>
 8001da6:	e655      	b.n	8001a54 <UART2_RX_transfer_complete_callback+0x8c>
						if(Is_Data_Buffer_Empty(&MIDI_data) == YES){
 8001da8:	48ba      	ldr	r0, [pc, #744]	@ (8002094 <UART2_RX_transfer_complete_callback+0x6cc>)
 8001daa:	f7fe fea9 	bl	8000b00 <Is_Data_Buffer_Empty>
						}
 8001dae:	e651      	b.n	8001a54 <UART2_RX_transfer_complete_callback+0x8c>
				if(*rx_buffer == SYSTEM_REAL_TIME_MIDI_CLOCK){
 8001db0:	7823      	ldrb	r3, [r4, #0]
 8001db2:	2bf8      	cmp	r3, #248	@ 0xf8
 8001db4:	d000      	beq.n	8001db8 <UART2_RX_transfer_complete_callback+0x3f0>
 8001db6:	e64d      	b.n	8001a54 <UART2_RX_transfer_complete_callback+0x8c>
					HAL_GPIO_WritePin(SW_OUT_GPIO_Port, SW_OUT_Pin, 0);
 8001db8:	2180      	movs	r1, #128	@ 0x80
 8001dba:	20a0      	movs	r0, #160	@ 0xa0
 8001dbc:	2200      	movs	r2, #0
 8001dbe:	0089      	lsls	r1, r1, #2
 8001dc0:	05c0      	lsls	r0, r0, #23
 8001dc2:	f002 fd67 	bl	8004894 <HAL_GPIO_WritePin>
					HAL_GPIO_WritePin(LD3_GPIO_Port, LD3_Pin, 1);
 8001dc6:	2201      	movs	r2, #1
 8001dc8:	2140      	movs	r1, #64	@ 0x40
 8001dca:	48b4      	ldr	r0, [pc, #720]	@ (800209c <UART2_RX_transfer_complete_callback+0x6d4>)
 8001dcc:	f002 fd62 	bl	8004894 <HAL_GPIO_WritePin>
					MIDI_CLK_fsm = COMPILING;
 8001dd0:	2301      	movs	r3, #1
					MIDI_CLK_tag++;
 8001dd2:	4ab3      	ldr	r2, [pc, #716]	@ (80020a0 <UART2_RX_transfer_complete_callback+0x6d8>)
					MIDI_CLK_fsm = COMPILING;
 8001dd4:	7033      	strb	r3, [r6, #0]
					MIDI_CLK_tag++;
 8001dd6:	7813      	ldrb	r3, [r2, #0]
 8001dd8:	3301      	adds	r3, #1
 8001dda:	b2db      	uxtb	r3, r3
 8001ddc:	7013      	strb	r3, [r2, #0]
					speed_fsm.current_state.speed_exclusive_state = MIDI_CLK_PENDING_A1_MODE;
 8001dde:	230a      	movs	r3, #10
 8001de0:	702b      	strb	r3, [r5, #0]
 8001de2:	e637      	b.n	8001a54 <UART2_RX_transfer_complete_callback+0x8c>
				if(*rx_buffer == SYSTEM_REAL_TIME_MIDI_CLOCK){
 8001de4:	7823      	ldrb	r3, [r4, #0]
 8001de6:	2bf8      	cmp	r3, #248	@ 0xf8
 8001de8:	d000      	beq.n	8001dec <UART2_RX_transfer_complete_callback+0x424>
 8001dea:	e633      	b.n	8001a54 <UART2_RX_transfer_complete_callback+0x8c>
					MIDI_CLK_fsm = COMPILING; //just in case
 8001dec:	2001      	movs	r0, #1
					MIDI_CLK_tag++;
 8001dee:	49ac      	ldr	r1, [pc, #688]	@ (80020a0 <UART2_RX_transfer_complete_callback+0x6d8>)
					MIDI_CLK_fsm = COMPILING; //just in case
 8001df0:	7030      	strb	r0, [r6, #0]
					MIDI_CLK_tag++;
 8001df2:	780b      	ldrb	r3, [r1, #0]
 8001df4:	3301      	adds	r3, #1
 8001df6:	b2db      	uxtb	r3, r3
 8001df8:	700b      	strb	r3, [r1, #0]
					if(MIDI_CLK_tag < 12){
 8001dfa:	780b      	ldrb	r3, [r1, #0]
 8001dfc:	2b0b      	cmp	r3, #11
 8001dfe:	d800      	bhi.n	8001e02 <UART2_RX_transfer_complete_callback+0x43a>
 8001e00:	e0c2      	b.n	8001f88 <UART2_RX_transfer_complete_callback+0x5c0>
					else if(MIDI_CLK_tag < 25){
 8001e02:	780b      	ldrb	r3, [r1, #0]
 8001e04:	2b18      	cmp	r3, #24
 8001e06:	d800      	bhi.n	8001e0a <UART2_RX_transfer_complete_callback+0x442>
 8001e08:	e0e6      	b.n	8001fd8 <UART2_RX_transfer_complete_callback+0x610>
						speed_fsm.current_state.speed_exclusive_state = MIDI_CLK_MODE;
 8001e0a:	2308      	movs	r3, #8
						speed_fsm.prev_state.speed_exclusive_state = MIDI_CLK_PENDING_A1_MODE;
 8001e0c:	706a      	strb	r2, [r5, #1]
						speed_fsm.current_state.speed_exclusive_state = MIDI_CLK_MODE;
 8001e0e:	702b      	strb	r3, [r5, #0]
						MIDI_CLK_tag = 1;
 8001e10:	7008      	strb	r0, [r1, #0]
 8001e12:	e61f      	b.n	8001a54 <UART2_RX_transfer_complete_callback+0x8c>
						if(Is_Data_Buffer_Empty(&MIDI_data) == YES){
 8001e14:	4e9f      	ldr	r6, [pc, #636]	@ (8002094 <UART2_RX_transfer_complete_callback+0x6cc>)
 8001e16:	0030      	movs	r0, r6
 8001e18:	f7fe fe72 	bl	8000b00 <Is_Data_Buffer_Empty>
 8001e1c:	2801      	cmp	r0, #1
 8001e1e:	d000      	beq.n	8001e22 <UART2_RX_transfer_complete_callback+0x45a>
 8001e20:	e618      	b.n	8001a54 <UART2_RX_transfer_complete_callback+0x8c>
							if(Is_Program_Change_Data_Byte_In_Range(rx_buffer, NUM_PRESETS) == YES){
 8001e22:	2104      	movs	r1, #4
 8001e24:	0020      	movs	r0, r4
 8001e26:	f7fe fe91 	bl	8000b4c <Is_Program_Change_Data_Byte_In_Range>
 8001e2a:	2801      	cmp	r0, #1
 8001e2c:	d100      	bne.n	8001e30 <UART2_RX_transfer_complete_callback+0x468>
 8001e2e:	e1e9      	b.n	8002204 <UART2_RX_transfer_complete_callback+0x83c>
							Clear_Data_Buffer(&MIDI_data);
 8001e30:	0030      	movs	r0, r6
 8001e32:	f7fe fe7d 	bl	8000b30 <Clear_Data_Buffer>
							active_status_byte = 0;
 8001e36:	2300      	movs	r3, #0
							Reset_and_Stop_MIDI_Software_Timer(&midi_counter, &statuses);
 8001e38:	0039      	movs	r1, r7
 8001e3a:	4897      	ldr	r0, [pc, #604]	@ (8002098 <UART2_RX_transfer_complete_callback+0x6d0>)
							active_status_byte = 0;
 8001e3c:	702b      	strb	r3, [r5, #0]
							Reset_and_Stop_MIDI_Software_Timer(&midi_counter, &statuses);
 8001e3e:	f7fe fead 	bl	8000b9c <Reset_and_Stop_MIDI_Software_Timer>
 8001e42:	e607      	b.n	8001a54 <UART2_RX_transfer_complete_callback+0x8c>
						if(Is_Data_Buffer_Empty(&MIDI_data) == YES){
 8001e44:	4e93      	ldr	r6, [pc, #588]	@ (8002094 <UART2_RX_transfer_complete_callback+0x6cc>)
 8001e46:	0030      	movs	r0, r6
 8001e48:	f7fe fe5a 	bl	8000b00 <Is_Data_Buffer_Empty>
 8001e4c:	2801      	cmp	r0, #1
 8001e4e:	d000      	beq.n	8001e52 <UART2_RX_transfer_complete_callback+0x48a>
 8001e50:	e600      	b.n	8001a54 <UART2_RX_transfer_complete_callback+0x8c>
							if(Is_Program_Change_Data_Byte_In_Range(rx_buffer, NUM_PRESETS) == YES){
 8001e52:	2104      	movs	r1, #4
 8001e54:	0020      	movs	r0, r4
 8001e56:	f7fe fe79 	bl	8000b4c <Is_Program_Change_Data_Byte_In_Range>
 8001e5a:	2801      	cmp	r0, #1
 8001e5c:	d1e8      	bne.n	8001e30 <UART2_RX_transfer_complete_callback+0x468>
								Set_All_Pots_to_PC_Mode();
 8001e5e:	f7fe fdad 	bl	80009bc <Set_All_Pots_to_PC_Mode>
								preset_selected = (enum Preset_Selected)*rx_buffer + 1; //since 0 is no preset selected, we have to add 1
 8001e62:	7823      	ldrb	r3, [r4, #0]
 8001e64:	4a8f      	ldr	r2, [pc, #572]	@ (80020a4 <UART2_RX_transfer_complete_callback+0x6dc>)
 8001e66:	3301      	adds	r3, #1
 8001e68:	b2db      	uxtb	r3, r3
 8001e6a:	7013      	strb	r3, [r2, #0]
 8001e6c:	e7e0      	b.n	8001e30 <UART2_RX_transfer_complete_callback+0x468>
				if(*rx_buffer == SYSTEM_REAL_TIME_MIDI_CLOCK){
 8001e6e:	7823      	ldrb	r3, [r4, #0]
 8001e70:	2bf8      	cmp	r3, #248	@ 0xf8
 8001e72:	d000      	beq.n	8001e76 <UART2_RX_transfer_complete_callback+0x4ae>
 8001e74:	e5ee      	b.n	8001a54 <UART2_RX_transfer_complete_callback+0x8c>
					MIDI_CLK_fsm = COMPILING; //just in case
 8001e76:	2101      	movs	r1, #1
					MIDI_CLK_tag++;
 8001e78:	4a89      	ldr	r2, [pc, #548]	@ (80020a0 <UART2_RX_transfer_complete_callback+0x6d8>)
					MIDI_CLK_fsm = COMPILING; //just in case
 8001e7a:	7031      	strb	r1, [r6, #0]
					MIDI_CLK_tag++;
 8001e7c:	7813      	ldrb	r3, [r2, #0]
 8001e7e:	3301      	adds	r3, #1
 8001e80:	b2db      	uxtb	r3, r3
 8001e82:	7013      	strb	r3, [r2, #0]
					if(MIDI_CLK_tag < 12){
 8001e84:	7813      	ldrb	r3, [r2, #0]
 8001e86:	2b0b      	cmp	r3, #11
 8001e88:	d97e      	bls.n	8001f88 <UART2_RX_transfer_complete_callback+0x5c0>
					else if(MIDI_CLK_tag < 25){
 8001e8a:	7813      	ldrb	r3, [r2, #0]
 8001e8c:	2b18      	cmp	r3, #24
 8001e8e:	d800      	bhi.n	8001e92 <UART2_RX_transfer_complete_callback+0x4ca>
 8001e90:	e0a2      	b.n	8001fd8 <UART2_RX_transfer_complete_callback+0x610>
						speed_fsm.current_state.speed_exclusive_state = MIDI_CLK_PENDING_B1_MODE;
 8001e92:	230c      	movs	r3, #12
						MIDI_CLK_tag = 1;
 8001e94:	7011      	strb	r1, [r2, #0]
						speed_fsm.current_state.speed_exclusive_state = MIDI_CLK_PENDING_B1_MODE;
 8001e96:	702b      	strb	r3, [r5, #0]
 8001e98:	e5dc      	b.n	8001a54 <UART2_RX_transfer_complete_callback+0x8c>
						if(Is_Data_Buffer_Empty(&MIDI_data) == YES){
 8001e9a:	4e7e      	ldr	r6, [pc, #504]	@ (8002094 <UART2_RX_transfer_complete_callback+0x6cc>)
 8001e9c:	0030      	movs	r0, r6
 8001e9e:	f7fe fe2f 	bl	8000b00 <Is_Data_Buffer_Empty>
							MIDI_data.MIDI_data_buffer[0] = *rx_buffer;
 8001ea2:	7823      	ldrb	r3, [r4, #0]
 8001ea4:	b2db      	uxtb	r3, r3
						if(Is_Data_Buffer_Empty(&MIDI_data) == YES){
 8001ea6:	2801      	cmp	r0, #1
 8001ea8:	d10f      	bne.n	8001eca <UART2_RX_transfer_complete_callback+0x502>
							midi_counter = 0; //reset timer
 8001eaa:	2200      	movs	r2, #0
							MIDI_data.MIDI_data_buffer[0] = *rx_buffer;
 8001eac:	7033      	strb	r3, [r6, #0]
							midi_counter = 0; //reset timer
 8001eae:	4b7a      	ldr	r3, [pc, #488]	@ (8002098 <UART2_RX_transfer_complete_callback+0x6d0>)
 8001eb0:	601a      	str	r2, [r3, #0]
 8001eb2:	e5cf      	b.n	8001a54 <UART2_RX_transfer_complete_callback+0x8c>
				if(*rx_buffer == SYSTEM_REAL_TIME_MIDI_CLOCK){
 8001eb4:	7823      	ldrb	r3, [r4, #0]
 8001eb6:	2bf8      	cmp	r3, #248	@ 0xf8
 8001eb8:	d100      	bne.n	8001ebc <UART2_RX_transfer_complete_callback+0x4f4>
 8001eba:	e0da      	b.n	8002072 <UART2_RX_transfer_complete_callback+0x6aa>
				else if(*rx_buffer == SYSTEM_REAL_TIME_START){
 8001ebc:	7823      	ldrb	r3, [r4, #0]
 8001ebe:	2bfa      	cmp	r3, #250	@ 0xfa
 8001ec0:	d000      	beq.n	8001ec4 <UART2_RX_transfer_complete_callback+0x4fc>
 8001ec2:	e5c7      	b.n	8001a54 <UART2_RX_transfer_complete_callback+0x8c>
					speed_fsm.current_state.speed_exclusive_state = MIDI_CLK_PENDING_B2_MODE;
 8001ec4:	3bed      	subs	r3, #237	@ 0xed
 8001ec6:	702b      	strb	r3, [r5, #0]
 8001ec8:	e5c4      	b.n	8001a54 <UART2_RX_transfer_complete_callback+0x8c>
							Reset_and_Stop_MIDI_Software_Timer(&midi_counter, &statuses);
 8001eca:	0039      	movs	r1, r7
 8001ecc:	4872      	ldr	r0, [pc, #456]	@ (8002098 <UART2_RX_transfer_complete_callback+0x6d0>)
							MIDI_data.MIDI_data_buffer[1] = *rx_buffer;
 8001ece:	7073      	strb	r3, [r6, #1]
							Reset_and_Stop_MIDI_Software_Timer(&midi_counter, &statuses);
 8001ed0:	f7fe fe64 	bl	8000b9c <Reset_and_Stop_MIDI_Software_Timer>
							if(Is_Utilised_Channel_Mode_CC_First_Data_Byte(&MIDI_data.MIDI_data_buffer[0]) == YES){
 8001ed4:	0030      	movs	r0, r6
 8001ed6:	f7fe fdb1 	bl	8000a3c <Is_Utilised_Channel_Mode_CC_First_Data_Byte>
 8001eda:	2801      	cmp	r0, #1
 8001edc:	d100      	bne.n	8001ee0 <UART2_RX_transfer_complete_callback+0x518>
 8001ede:	e0ef      	b.n	80020c0 <UART2_RX_transfer_complete_callback+0x6f8>
							else if(Is_Utilised_CC_First_Data_Byte(&MIDI_data.MIDI_data_buffer[0]) == YES){
 8001ee0:	0030      	movs	r0, r6
 8001ee2:	f7fe fdc1 	bl	8000a68 <Is_Utilised_CC_First_Data_Byte>
 8001ee6:	2801      	cmp	r0, #1
 8001ee8:	d100      	bne.n	8001eec <UART2_RX_transfer_complete_callback+0x524>
 8001eea:	e141      	b.n	8002170 <UART2_RX_transfer_complete_callback+0x7a8>
								active_status_byte = 0;
 8001eec:	2300      	movs	r3, #0
								Clear_Data_Buffer(&MIDI_data);
 8001eee:	0030      	movs	r0, r6
								active_status_byte = 0;
 8001ef0:	702b      	strb	r3, [r5, #0]
								Clear_Data_Buffer(&MIDI_data);
 8001ef2:	f7fe fe1d 	bl	8000b30 <Clear_Data_Buffer>
 8001ef6:	e5ad      	b.n	8001a54 <UART2_RX_transfer_complete_callback+0x8c>
					speed_fsm.prev_state = speed_fsm.current_state;
 8001ef8:	782b      	ldrb	r3, [r5, #0]
					MIDI_CLK_tag = 0; //just in case
 8001efa:	2200      	movs	r2, #0
					speed_fsm.prev_state = speed_fsm.current_state;
 8001efc:	706b      	strb	r3, [r5, #1]
					speed_fsm.current_state.speed_exclusive_state = MIDI_CLK_PENDING_A0_MODE;
 8001efe:	2309      	movs	r3, #9
 8001f00:	702b      	strb	r3, [r5, #0]
					MIDI_CLK_tag = 0; //just in case
 8001f02:	4b67      	ldr	r3, [pc, #412]	@ (80020a0 <UART2_RX_transfer_complete_callback+0x6d8>)
 8001f04:	701a      	strb	r2, [r3, #0]
 8001f06:	e5a5      	b.n	8001a54 <UART2_RX_transfer_complete_callback+0x8c>
				if(*rx_buffer == SYSTEM_REAL_TIME_MIDI_CLOCK){
 8001f08:	7823      	ldrb	r3, [r4, #0]
 8001f0a:	2bf8      	cmp	r3, #248	@ 0xf8
 8001f0c:	d000      	beq.n	8001f10 <UART2_RX_transfer_complete_callback+0x548>
 8001f0e:	e5a1      	b.n	8001a54 <UART2_RX_transfer_complete_callback+0x8c>
					Set_Oscillator_Values(&params_to_be_loaded);
 8001f10:	4b65      	ldr	r3, [pc, #404]	@ (80020a8 <UART2_RX_transfer_complete_callback+0x6e0>)
 8001f12:	0018      	movs	r0, r3
 8001f14:	4699      	mov	r9, r3
 8001f16:	f000 fcd1 	bl	80028bc <Set_Oscillator_Values>
					HAL_GPIO_WritePin(SW_OUT_GPIO_Port, SW_OUT_Pin, 1);
 8001f1a:	2180      	movs	r1, #128	@ 0x80
 8001f1c:	20a0      	movs	r0, #160	@ 0xa0
 8001f1e:	2201      	movs	r2, #1
 8001f20:	0089      	lsls	r1, r1, #2
 8001f22:	05c0      	lsls	r0, r0, #23
 8001f24:	f002 fcb6 	bl	8004894 <HAL_GPIO_WritePin>
					HAL_GPIO_WritePin(LD3_GPIO_Port, LD3_Pin, 0);
 8001f28:	2200      	movs	r2, #0
 8001f2a:	2140      	movs	r1, #64	@ 0x40
 8001f2c:	485b      	ldr	r0, [pc, #364]	@ (800209c <UART2_RX_transfer_complete_callback+0x6d4>)
 8001f2e:	f002 fcb1 	bl	8004894 <HAL_GPIO_WritePin>
					HAL_GPIO_WritePin(SW_OUT_GPIO_Port, SW_OUT_Pin, 0);
 8001f32:	2180      	movs	r1, #128	@ 0x80
 8001f34:	20a0      	movs	r0, #160	@ 0xa0
 8001f36:	2200      	movs	r2, #0
 8001f38:	0089      	lsls	r1, r1, #2
 8001f3a:	05c0      	lsls	r0, r0, #23
 8001f3c:	f002 fcaa 	bl	8004894 <HAL_GPIO_WritePin>
					HAL_GPIO_WritePin(LD3_GPIO_Port, LD3_Pin, 1);
 8001f40:	2201      	movs	r2, #1
 8001f42:	2140      	movs	r1, #64	@ 0x40
 8001f44:	4855      	ldr	r0, [pc, #340]	@ (800209c <UART2_RX_transfer_complete_callback+0x6d4>)
 8001f46:	f002 fca5 	bl	8004894 <HAL_GPIO_WritePin>
					MIDI_CLK_fsm = COMPILING; //just in case
 8001f4a:	2301      	movs	r3, #1
					MIDI_CLK_tag = 1;
 8001f4c:	4a54      	ldr	r2, [pc, #336]	@ (80020a0 <UART2_RX_transfer_complete_callback+0x6d8>)
					MIDI_CLK_fsm = COMPILING; //just in case
 8001f4e:	7033      	strb	r3, [r6, #0]
					MIDI_CLK_tag = 1;
 8001f50:	7013      	strb	r3, [r2, #0]
					speed_fsm.current_state.speed_exclusive_state = MIDI_CLK_MODE;
 8001f52:	2608      	movs	r6, #8
					speed_fsm.prev_state.speed_exclusive_state = MIDI_CLK_PENDING_B2_MODE;
 8001f54:	4643      	mov	r3, r8
					Stop_OC_TIM(&htim3, TIM_CHANNEL_1); //do we need?
 8001f56:	2100      	movs	r1, #0
 8001f58:	4854      	ldr	r0, [pc, #336]	@ (80020ac <UART2_RX_transfer_complete_callback+0x6e4>)
					speed_fsm.prev_state.speed_exclusive_state = MIDI_CLK_PENDING_B2_MODE;
 8001f5a:	706b      	strb	r3, [r5, #1]
					speed_fsm.current_state.speed_exclusive_state = MIDI_CLK_MODE;
 8001f5c:	702e      	strb	r6, [r5, #0]
					Stop_OC_TIM(&htim3, TIM_CHANNEL_1); //do we need?
 8001f5e:	f001 faaf 	bl	80034c0 <Stop_OC_TIM>
					IP_CAP_fsm.current_state = IDLE; //force idle so next edge is forced to be computed as first edge
 8001f62:	2200      	movs	r2, #0
 8001f64:	4690      	mov	r8, r2
 8001f66:	4b52      	ldr	r3, [pc, #328]	@ (80020b0 <UART2_RX_transfer_complete_callback+0x6e8>)
					Copy_Params_Structs(&params_to_be_loaded, &params_working);
 8001f68:	4952      	ldr	r1, [pc, #328]	@ (80020b4 <UART2_RX_transfer_complete_callback+0x6ec>)
 8001f6a:	4648      	mov	r0, r9
					IP_CAP_fsm.current_state = IDLE; //force idle so next edge is forced to be computed as first edge
 8001f6c:	701a      	strb	r2, [r3, #0]
					Copy_Params_Structs(&params_to_be_loaded, &params_working);
 8001f6e:	f000 fbc3 	bl	80026f8 <Copy_Params_Structs>
					Copy_Params_Structs(&params_to_be_loaded, &params);
 8001f72:	4d51      	ldr	r5, [pc, #324]	@ (80020b8 <UART2_RX_transfer_complete_callback+0x6f0>)
 8001f74:	4648      	mov	r0, r9
 8001f76:	0029      	movs	r1, r5
 8001f78:	f000 fbbe 	bl	80026f8 <Copy_Params_Structs>
					Set_Status_Bit(&statuses, First_Sync_Complete);
 8001f7c:	0031      	movs	r1, r6
 8001f7e:	0038      	movs	r0, r7
 8001f80:	f001 fad2 	bl	8003528 <Set_Status_Bit>
					Calculate_Next_Main_Oscillator_Values(&params, (enum Next_Values_Processing_Mode)REGULAR_MODE);
 8001f84:	4641      	mov	r1, r8
 8001f86:	e5f1      	b.n	8001b6c <UART2_RX_transfer_complete_callback+0x1a4>
						HAL_GPIO_WritePin(SW_OUT_GPIO_Port, SW_OUT_Pin, 0);
 8001f88:	2180      	movs	r1, #128	@ 0x80
 8001f8a:	20a0      	movs	r0, #160	@ 0xa0
 8001f8c:	2200      	movs	r2, #0
 8001f8e:	0089      	lsls	r1, r1, #2
 8001f90:	05c0      	lsls	r0, r0, #23
 8001f92:	f002 fc7f 	bl	8004894 <HAL_GPIO_WritePin>
						HAL_GPIO_WritePin(LD3_GPIO_Port, LD3_Pin, 1);
 8001f96:	2201      	movs	r2, #1
 8001f98:	2140      	movs	r1, #64	@ 0x40
 8001f9a:	4840      	ldr	r0, [pc, #256]	@ (800209c <UART2_RX_transfer_complete_callback+0x6d4>)
 8001f9c:	f002 fc7a 	bl	8004894 <HAL_GPIO_WritePin>
 8001fa0:	e558      	b.n	8001a54 <UART2_RX_transfer_complete_callback+0x8c>
							running_status_byte = (uint8_t)*rx_buffer;
 8001fa2:	7823      	ldrb	r3, [r4, #0]
							if(Is_Channelised_Status_Byte_On_Basic_Channel(rx_buffer, MIDI_basic_channel) == YES){
 8001fa4:	0020      	movs	r0, r4
							running_status_byte = (uint8_t)*rx_buffer;
 8001fa6:	b2db      	uxtb	r3, r3
 8001fa8:	7033      	strb	r3, [r6, #0]
							if(Is_Channelised_Status_Byte_On_Basic_Channel(rx_buffer, MIDI_basic_channel) == YES){
 8001faa:	4b44      	ldr	r3, [pc, #272]	@ (80020bc <UART2_RX_transfer_complete_callback+0x6f4>)
 8001fac:	7819      	ldrb	r1, [r3, #0]
 8001fae:	b2c9      	uxtb	r1, r1
 8001fb0:	f7fe fd98 	bl	8000ae4 <Is_Channelised_Status_Byte_On_Basic_Channel>
 8001fb4:	2801      	cmp	r0, #1
 8001fb6:	d100      	bne.n	8001fba <UART2_RX_transfer_complete_callback+0x5f2>
 8001fb8:	e0fc      	b.n	80021b4 <UART2_RX_transfer_complete_callback+0x7ec>
								if(Is_OMNI_On(&statuses) == YES){
 8001fba:	4e35      	ldr	r6, [pc, #212]	@ (8002090 <UART2_RX_transfer_complete_callback+0x6c8>)
 8001fbc:	0030      	movs	r0, r6
 8001fbe:	f7fe fde3 	bl	8000b88 <Is_OMNI_On>
 8001fc2:	2801      	cmp	r0, #1
 8001fc4:	d000      	beq.n	8001fc8 <UART2_RX_transfer_complete_callback+0x600>
 8001fc6:	e545      	b.n	8001a54 <UART2_RX_transfer_complete_callback+0x8c>
									active_status_byte = (uint8_t)*rx_buffer;
 8001fc8:	7823      	ldrb	r3, [r4, #0]
									Set_Status_Bit(&statuses, Software_IP_CAP_Idle_Timer_Is_Running);
 8001fca:	2140      	movs	r1, #64	@ 0x40
									active_status_byte = (uint8_t)*rx_buffer;
 8001fcc:	b2db      	uxtb	r3, r3
									Set_Status_Bit(&statuses, Software_IP_CAP_Idle_Timer_Is_Running);
 8001fce:	0030      	movs	r0, r6
									active_status_byte = (uint8_t)*rx_buffer;
 8001fd0:	702b      	strb	r3, [r5, #0]
									Set_Status_Bit(&statuses, Software_IP_CAP_Idle_Timer_Is_Running);
 8001fd2:	f001 faa9 	bl	8003528 <Set_Status_Bit>
 8001fd6:	e53d      	b.n	8001a54 <UART2_RX_transfer_complete_callback+0x8c>
						HAL_GPIO_WritePin(SW_OUT_GPIO_Port, SW_OUT_Pin, 1);
 8001fd8:	2180      	movs	r1, #128	@ 0x80
 8001fda:	20a0      	movs	r0, #160	@ 0xa0
 8001fdc:	2201      	movs	r2, #1
 8001fde:	0089      	lsls	r1, r1, #2
 8001fe0:	05c0      	lsls	r0, r0, #23
 8001fe2:	f002 fc57 	bl	8004894 <HAL_GPIO_WritePin>
						HAL_GPIO_WritePin(LD3_GPIO_Port, LD3_Pin, 0);
 8001fe6:	2200      	movs	r2, #0
 8001fe8:	2140      	movs	r1, #64	@ 0x40
 8001fea:	482c      	ldr	r0, [pc, #176]	@ (800209c <UART2_RX_transfer_complete_callback+0x6d4>)
 8001fec:	f002 fc52 	bl	8004894 <HAL_GPIO_WritePin>
 8001ff0:	e530      	b.n	8001a54 <UART2_RX_transfer_complete_callback+0x8c>
			else if((speed_fsm.current_state.speed_exclusive_state == MIDI_CLK_MODE) && (IP_CAP_fsm.current_state == IDLE) && (Get_Status_Bit(&statuses, Software_IP_CAP_Idle_Timer_Has_Timed_Out) == YES)){
 8001ff2:	4b2f      	ldr	r3, [pc, #188]	@ (80020b0 <UART2_RX_transfer_complete_callback+0x6e8>)
 8001ff4:	781b      	ldrb	r3, [r3, #0]
 8001ff6:	b2da      	uxtb	r2, r3
 8001ff8:	4691      	mov	r9, r2
 8001ffa:	2b00      	cmp	r3, #0
 8001ffc:	d000      	beq.n	8002000 <UART2_RX_transfer_complete_callback+0x638>
 8001ffe:	e562      	b.n	8001ac6 <UART2_RX_transfer_complete_callback+0xfe>
 8002000:	2120      	movs	r1, #32
 8002002:	0038      	movs	r0, r7
 8002004:	f001 fa8a 	bl	800351c <Get_Status_Bit>
 8002008:	2801      	cmp	r0, #1
 800200a:	d000      	beq.n	800200e <UART2_RX_transfer_complete_callback+0x646>
 800200c:	e55b      	b.n	8001ac6 <UART2_RX_transfer_complete_callback+0xfe>
				if(*rx_buffer == SYSTEM_REAL_TIME_MIDI_CLOCK){
 800200e:	7823      	ldrb	r3, [r4, #0]
 8002010:	2bf8      	cmp	r3, #248	@ 0xf8
 8002012:	d100      	bne.n	8002016 <UART2_RX_transfer_complete_callback+0x64e>
 8002014:	e114      	b.n	8002240 <UART2_RX_transfer_complete_callback+0x878>
				else if(*rx_buffer == SYSTEM_REAL_TIME_START){
 8002016:	7823      	ldrb	r3, [r4, #0]
 8002018:	2bfa      	cmp	r3, #250	@ 0xfa
 800201a:	d000      	beq.n	800201e <UART2_RX_transfer_complete_callback+0x656>
 800201c:	e51a      	b.n	8001a54 <UART2_RX_transfer_complete_callback+0x8c>
					MIDI_CLK_tag = 0; //just in case
 800201e:	464a      	mov	r2, r9
 8002020:	4b1f      	ldr	r3, [pc, #124]	@ (80020a0 <UART2_RX_transfer_complete_callback+0x6d8>)
 8002022:	701a      	strb	r2, [r3, #0]
					speed_fsm.current_state.speed_exclusive_state = MIDI_CLK_RESYNC_A0_MODE;
 8002024:	230e      	movs	r3, #14
 8002026:	702b      	strb	r3, [r5, #0]
					speed_fsm.prev_state.speed_exclusive_state = MIDI_CLK_MODE;
 8002028:	4643      	mov	r3, r8
					Clear_Status_Bit(&statuses, Software_IP_CAP_Idle_Timer_Has_Timed_Out);
 800202a:	0038      	movs	r0, r7
 800202c:	2120      	movs	r1, #32
					speed_fsm.prev_state.speed_exclusive_state = MIDI_CLK_MODE;
 800202e:	706b      	strb	r3, [r5, #1]
					Clear_Status_Bit(&statuses, Software_IP_CAP_Idle_Timer_Has_Timed_Out);
 8002030:	f001 fa7e 	bl	8003530 <Clear_Status_Bit>
					Clear_Status_Bit(&statuses, Software_IP_CAP_Idle_Timer_Is_Running);
 8002034:	2140      	movs	r1, #64	@ 0x40
 8002036:	0038      	movs	r0, r7
 8002038:	f001 fa7a 	bl	8003530 <Clear_Status_Bit>
 800203c:	e50a      	b.n	8001a54 <UART2_RX_transfer_complete_callback+0x8c>
				if(*rx_buffer == SYSTEM_REAL_TIME_MIDI_CLOCK){
 800203e:	7823      	ldrb	r3, [r4, #0]
 8002040:	2bf8      	cmp	r3, #248	@ 0xf8
 8002042:	d000      	beq.n	8002046 <UART2_RX_transfer_complete_callback+0x67e>
 8002044:	e506      	b.n	8001a54 <UART2_RX_transfer_complete_callback+0x8c>
					HAL_GPIO_WritePin(SW_OUT_GPIO_Port, SW_OUT_Pin, 0);
 8002046:	2180      	movs	r1, #128	@ 0x80
 8002048:	20a0      	movs	r0, #160	@ 0xa0
 800204a:	2200      	movs	r2, #0
 800204c:	0089      	lsls	r1, r1, #2
 800204e:	05c0      	lsls	r0, r0, #23
 8002050:	f002 fc20 	bl	8004894 <HAL_GPIO_WritePin>
					HAL_GPIO_WritePin(LD3_GPIO_Port, LD3_Pin, 1);
 8002054:	2201      	movs	r2, #1
 8002056:	2140      	movs	r1, #64	@ 0x40
 8002058:	4810      	ldr	r0, [pc, #64]	@ (800209c <UART2_RX_transfer_complete_callback+0x6d4>)
 800205a:	f002 fc1b 	bl	8004894 <HAL_GPIO_WritePin>
					MIDI_CLK_fsm = COMPILING;
 800205e:	2301      	movs	r3, #1
					MIDI_CLK_tag++;
 8002060:	4a0f      	ldr	r2, [pc, #60]	@ (80020a0 <UART2_RX_transfer_complete_callback+0x6d8>)
					MIDI_CLK_fsm = COMPILING;
 8002062:	7033      	strb	r3, [r6, #0]
					MIDI_CLK_tag++;
 8002064:	7813      	ldrb	r3, [r2, #0]
 8002066:	3301      	adds	r3, #1
 8002068:	b2db      	uxtb	r3, r3
 800206a:	7013      	strb	r3, [r2, #0]
					speed_fsm.current_state.speed_exclusive_state = MIDI_CLK_RESYNC_A1_MODE;
 800206c:	230f      	movs	r3, #15
 800206e:	702b      	strb	r3, [r5, #0]
 8002070:	e4f0      	b.n	8001a54 <UART2_RX_transfer_complete_callback+0x8c>
					MIDI_CLK_fsm = COMPILING; //just in case
 8002072:	2101      	movs	r1, #1
					MIDI_CLK_tag++;
 8002074:	4b0a      	ldr	r3, [pc, #40]	@ (80020a0 <UART2_RX_transfer_complete_callback+0x6d8>)
					MIDI_CLK_fsm = COMPILING; //just in case
 8002076:	7031      	strb	r1, [r6, #0]
					MIDI_CLK_tag++;
 8002078:	781a      	ldrb	r2, [r3, #0]
 800207a:	3201      	adds	r2, #1
 800207c:	b2d2      	uxtb	r2, r2
 800207e:	701a      	strb	r2, [r3, #0]
					if(MIDI_CLK_tag < 12){
 8002080:	781a      	ldrb	r2, [r3, #0]
 8002082:	2a0b      	cmp	r2, #11
 8002084:	d980      	bls.n	8001f88 <UART2_RX_transfer_complete_callback+0x5c0>
					else if(MIDI_CLK_tag < 25){
 8002086:	781a      	ldrb	r2, [r3, #0]
 8002088:	2a18      	cmp	r2, #24
 800208a:	d9a5      	bls.n	8001fd8 <UART2_RX_transfer_complete_callback+0x610>
						MIDI_CLK_tag = 1;
 800208c:	7019      	strb	r1, [r3, #0]
 800208e:	e4e1      	b.n	8001a54 <UART2_RX_transfer_complete_callback+0x8c>
 8002090:	20000c30 	.word	0x20000c30
 8002094:	200004c4 	.word	0x200004c4
 8002098:	20000c28 	.word	0x20000c28
 800209c:	50000800 	.word	0x50000800
 80020a0:	20000c1e 	.word	0x20000c1e
 80020a4:	20000478 	.word	0x20000478
 80020a8:	20000c58 	.word	0x20000c58
 80020ac:	2000078c 	.word	0x2000078c
 80020b0:	20000428 	.word	0x20000428
 80020b4:	20000c34 	.word	0x20000c34
 80020b8:	20000ca0 	.word	0x20000ca0
 80020bc:	200004d0 	.word	0x200004d0
								if(Is_Channelised_Status_Byte_On_Basic_Channel(&active_status_byte, MIDI_basic_channel) == YES){
 80020c0:	4b68      	ldr	r3, [pc, #416]	@ (8002264 <UART2_RX_transfer_complete_callback+0x89c>)
 80020c2:	0028      	movs	r0, r5
 80020c4:	7819      	ldrb	r1, [r3, #0]
 80020c6:	b2c9      	uxtb	r1, r1
 80020c8:	f7fe fd0c 	bl	8000ae4 <Is_Channelised_Status_Byte_On_Basic_Channel>
 80020cc:	2801      	cmp	r0, #1
 80020ce:	d000      	beq.n	80020d2 <UART2_RX_transfer_complete_callback+0x70a>
 80020d0:	e70c      	b.n	8001eec <UART2_RX_transfer_complete_callback+0x524>
									if(Channel_Mode_CC_Second_Data_Byte_Is_Valid_Given_Utilised_First_Data_Byte(&MIDI_data.MIDI_data_buffer[0], &MIDI_data.MIDI_data_buffer[1]) == YES){
 80020d2:	0030      	movs	r0, r6
 80020d4:	4964      	ldr	r1, [pc, #400]	@ (8002268 <UART2_RX_transfer_complete_callback+0x8a0>)
 80020d6:	f7fe fce1 	bl	8000a9c <Channel_Mode_CC_Second_Data_Byte_Is_Valid_Given_Utilised_First_Data_Byte>
 80020da:	2801      	cmp	r0, #1
 80020dc:	d000      	beq.n	80020e0 <UART2_RX_transfer_complete_callback+0x718>
 80020de:	e705      	b.n	8001eec <UART2_RX_transfer_complete_callback+0x524>
										if(MIDI_data.MIDI_data_buffer[1] == RESET_ALL_CONTROLLERS){
 80020e0:	7873      	ldrb	r3, [r6, #1]
 80020e2:	2b79      	cmp	r3, #121	@ 0x79
 80020e4:	d100      	bne.n	80020e8 <UART2_RX_transfer_complete_callback+0x720>
 80020e6:	e0b8      	b.n	800225a <UART2_RX_transfer_complete_callback+0x892>
										else if(MIDI_data.MIDI_data_buffer[1] == LOCAL_CONTROL){
 80020e8:	7873      	ldrb	r3, [r6, #1]
 80020ea:	2b7a      	cmp	r3, #122	@ 0x7a
 80020ec:	d100      	bne.n	80020f0 <UART2_RX_transfer_complete_callback+0x728>
 80020ee:	e0b1      	b.n	8002254 <UART2_RX_transfer_complete_callback+0x88c>
										else if(MIDI_data.MIDI_data_buffer[1] == OMNI_MODE_OFF){
 80020f0:	7873      	ldrb	r3, [r6, #1]
 80020f2:	2b7c      	cmp	r3, #124	@ 0x7c
 80020f4:	d100      	bne.n	80020f8 <UART2_RX_transfer_complete_callback+0x730>
 80020f6:	e09f      	b.n	8002238 <UART2_RX_transfer_complete_callback+0x870>
										else if(MIDI_data.MIDI_data_buffer[1] == OMNI_MODE_ON){
 80020f8:	7873      	ldrb	r3, [r6, #1]
 80020fa:	2b7d      	cmp	r3, #125	@ 0x7d
 80020fc:	d000      	beq.n	8002100 <UART2_RX_transfer_complete_callback+0x738>
 80020fe:	e6f5      	b.n	8001eec <UART2_RX_transfer_complete_callback+0x524>
											Set_OMNI_On(&statuses);
 8002100:	0038      	movs	r0, r7
 8002102:	f7fe fdbd 	bl	8000c80 <Set_OMNI_On>
								active_status_byte = 0;
 8002106:	e6f1      	b.n	8001eec <UART2_RX_transfer_complete_callback+0x524>
			else if((speed_fsm.current_state.speed_exclusive_state == MIDI_CLK_MODE) && (Get_Status_Bit(&statuses, Software_IP_CAP_Idle_Timer_Has_Timed_Out) == NO)){
 8002108:	2120      	movs	r1, #32
 800210a:	0038      	movs	r0, r7
 800210c:	f001 fa06 	bl	800351c <Get_Status_Bit>
 8002110:	2800      	cmp	r0, #0
 8002112:	d000      	beq.n	8002116 <UART2_RX_transfer_complete_callback+0x74e>
 8002114:	e4d1      	b.n	8001aba <UART2_RX_transfer_complete_callback+0xf2>
				if(*rx_buffer == SYSTEM_REAL_TIME_MIDI_CLOCK){
 8002116:	7823      	ldrb	r3, [r4, #0]
 8002118:	2bf8      	cmp	r3, #248	@ 0xf8
 800211a:	d000      	beq.n	800211e <UART2_RX_transfer_complete_callback+0x756>
 800211c:	e49a      	b.n	8001a54 <UART2_RX_transfer_complete_callback+0x8c>
					MIDI_CLK_fsm = COMPILING; //just in case
 800211e:	3bf7      	subs	r3, #247	@ 0xf7
 8002120:	7033      	strb	r3, [r6, #0]
					MIDI_CLK_tag++;
 8002122:	4b52      	ldr	r3, [pc, #328]	@ (800226c <UART2_RX_transfer_complete_callback+0x8a4>)
 8002124:	781a      	ldrb	r2, [r3, #0]
 8002126:	3201      	adds	r2, #1
 8002128:	b2d2      	uxtb	r2, r2
 800212a:	701a      	strb	r2, [r3, #0]
					if(MIDI_CLK_tag < 12){
 800212c:	781a      	ldrb	r2, [r3, #0]
 800212e:	2a0b      	cmp	r2, #11
 8002130:	d800      	bhi.n	8002134 <UART2_RX_transfer_complete_callback+0x76c>
 8002132:	e729      	b.n	8001f88 <UART2_RX_transfer_complete_callback+0x5c0>
					else if(MIDI_CLK_tag < 25){
 8002134:	781a      	ldrb	r2, [r3, #0]
 8002136:	2a18      	cmp	r2, #24
 8002138:	d800      	bhi.n	800213c <UART2_RX_transfer_complete_callback+0x774>
 800213a:	e74d      	b.n	8001fd8 <UART2_RX_transfer_complete_callback+0x610>
						MIDI_CLK_tag = 1;
 800213c:	2201      	movs	r2, #1
 800213e:	701a      	strb	r2, [r3, #0]
 8002140:	e488      	b.n	8001a54 <UART2_RX_transfer_complete_callback+0x8c>
				if(*rx_buffer == SYSTEM_REAL_TIME_MIDI_CLOCK){
 8002142:	7823      	ldrb	r3, [r4, #0]
 8002144:	2bf8      	cmp	r3, #248	@ 0xf8
 8002146:	d000      	beq.n	800214a <UART2_RX_transfer_complete_callback+0x782>
 8002148:	e484      	b.n	8001a54 <UART2_RX_transfer_complete_callback+0x8c>
					MIDI_CLK_tag++;
 800214a:	4b48      	ldr	r3, [pc, #288]	@ (800226c <UART2_RX_transfer_complete_callback+0x8a4>)
 800214c:	781a      	ldrb	r2, [r3, #0]
 800214e:	3201      	adds	r2, #1
 8002150:	b2d2      	uxtb	r2, r2
 8002152:	701a      	strb	r2, [r3, #0]
					if(MIDI_CLK_tag < 12){
 8002154:	781a      	ldrb	r2, [r3, #0]
 8002156:	2a0b      	cmp	r2, #11
 8002158:	d800      	bhi.n	800215c <UART2_RX_transfer_complete_callback+0x794>
 800215a:	e715      	b.n	8001f88 <UART2_RX_transfer_complete_callback+0x5c0>
					else if(MIDI_CLK_tag < 25){
 800215c:	781a      	ldrb	r2, [r3, #0]
 800215e:	2a18      	cmp	r2, #24
 8002160:	d800      	bhi.n	8002164 <UART2_RX_transfer_complete_callback+0x79c>
 8002162:	e739      	b.n	8001fd8 <UART2_RX_transfer_complete_callback+0x610>
						speed_fsm.current_state.speed_exclusive_state = MIDI_CLK_MODE;
 8002164:	2208      	movs	r2, #8
						speed_fsm.prev_state.speed_exclusive_state = MIDI_CLK_RESYNC_A1_MODE;
 8002166:	7069      	strb	r1, [r5, #1]
						speed_fsm.current_state.speed_exclusive_state = MIDI_CLK_MODE;
 8002168:	702a      	strb	r2, [r5, #0]
						MIDI_CLK_tag = 1;
 800216a:	3a07      	subs	r2, #7
 800216c:	701a      	strb	r2, [r3, #0]
 800216e:	e471      	b.n	8001a54 <UART2_RX_transfer_complete_callback+0x8c>
								if((Is_Channelised_Status_Byte_On_Basic_Channel(&active_status_byte, MIDI_basic_channel) == YES)
 8002170:	4b3c      	ldr	r3, [pc, #240]	@ (8002264 <UART2_RX_transfer_complete_callback+0x89c>)
 8002172:	0028      	movs	r0, r5
 8002174:	7819      	ldrb	r1, [r3, #0]
 8002176:	b2c9      	uxtb	r1, r1
 8002178:	f7fe fcb4 	bl	8000ae4 <Is_Channelised_Status_Byte_On_Basic_Channel>
 800217c:	2801      	cmp	r0, #1
 800217e:	d005      	beq.n	800218c <UART2_RX_transfer_complete_callback+0x7c4>
										|| (Is_OMNI_On(&statuses) == YES)){
 8002180:	0038      	movs	r0, r7
 8002182:	f7fe fd01 	bl	8000b88 <Is_OMNI_On>
 8002186:	2801      	cmp	r0, #1
 8002188:	d000      	beq.n	800218c <UART2_RX_transfer_complete_callback+0x7c4>
 800218a:	e6af      	b.n	8001eec <UART2_RX_transfer_complete_callback+0x524>
									if(MIDI_data.MIDI_data_buffer[0] == WAVESHAPE_CC){
 800218c:	7833      	ldrb	r3, [r6, #0]
 800218e:	2b14      	cmp	r3, #20
 8002190:	d042      	beq.n	8002218 <UART2_RX_transfer_complete_callback+0x850>
									else if(MIDI_data.MIDI_data_buffer[0] == SPEED_CC){
 8002192:	7833      	ldrb	r3, [r6, #0]
 8002194:	2b15      	cmp	r3, #21
 8002196:	d043      	beq.n	8002220 <UART2_RX_transfer_complete_callback+0x858>
									else if(MIDI_data.MIDI_data_buffer[0] == DEPTH_CC){
 8002198:	7833      	ldrb	r3, [r6, #0]
 800219a:	2b16      	cmp	r3, #22
 800219c:	d048      	beq.n	8002230 <UART2_RX_transfer_complete_callback+0x868>
									else if(MIDI_data.MIDI_data_buffer[0] == SYMMETRY_CC){
 800219e:	7833      	ldrb	r3, [r6, #0]
 80021a0:	2b17      	cmp	r3, #23
 80021a2:	d041      	beq.n	8002228 <UART2_RX_transfer_complete_callback+0x860>
									else if(MIDI_data.MIDI_data_buffer[0] == PHASE_CC){
 80021a4:	7833      	ldrb	r3, [r6, #0]
 80021a6:	2b18      	cmp	r3, #24
 80021a8:	d000      	beq.n	80021ac <UART2_RX_transfer_complete_callback+0x7e4>
 80021aa:	e69f      	b.n	8001eec <UART2_RX_transfer_complete_callback+0x524>
										Set_Phase_to_CC_Mode_and_Value((uint8_t*)&MIDI_data.MIDI_data_buffer[1]);
 80021ac:	482e      	ldr	r0, [pc, #184]	@ (8002268 <UART2_RX_transfer_complete_callback+0x8a0>)
 80021ae:	f7fe fbf5 	bl	800099c <Set_Phase_to_CC_Mode_and_Value>
								active_status_byte = 0;
 80021b2:	e69b      	b.n	8001eec <UART2_RX_transfer_complete_callback+0x524>
								active_status_byte = (uint8_t)*rx_buffer;
 80021b4:	7823      	ldrb	r3, [r4, #0]
								Set_Status_Bit(&statuses, Software_IP_CAP_Idle_Timer_Is_Running);
 80021b6:	2140      	movs	r1, #64	@ 0x40
								active_status_byte = (uint8_t)*rx_buffer;
 80021b8:	b2db      	uxtb	r3, r3
								Set_Status_Bit(&statuses, Software_IP_CAP_Idle_Timer_Is_Running);
 80021ba:	482d      	ldr	r0, [pc, #180]	@ (8002270 <UART2_RX_transfer_complete_callback+0x8a8>)
								active_status_byte = (uint8_t)*rx_buffer;
 80021bc:	702b      	strb	r3, [r5, #0]
								Set_Status_Bit(&statuses, Software_IP_CAP_Idle_Timer_Is_Running);
 80021be:	f001 f9b3 	bl	8003528 <Set_Status_Bit>
 80021c2:	e447      	b.n	8001a54 <UART2_RX_transfer_complete_callback+0x8c>
				if(*rx_buffer == SYSTEM_REAL_TIME_MIDI_CLOCK){
 80021c4:	7823      	ldrb	r3, [r4, #0]
 80021c6:	2bf8      	cmp	r3, #248	@ 0xf8
 80021c8:	d000      	beq.n	80021cc <UART2_RX_transfer_complete_callback+0x804>
 80021ca:	e443      	b.n	8001a54 <UART2_RX_transfer_complete_callback+0x8c>
					MIDI_CLK_tag++;
 80021cc:	4b27      	ldr	r3, [pc, #156]	@ (800226c <UART2_RX_transfer_complete_callback+0x8a4>)
 80021ce:	781a      	ldrb	r2, [r3, #0]
 80021d0:	3201      	adds	r2, #1
 80021d2:	b2d2      	uxtb	r2, r2
 80021d4:	701a      	strb	r2, [r3, #0]
					if(MIDI_CLK_tag < 12){
 80021d6:	781a      	ldrb	r2, [r3, #0]
 80021d8:	2a0b      	cmp	r2, #11
 80021da:	d800      	bhi.n	80021de <UART2_RX_transfer_complete_callback+0x816>
 80021dc:	e6d4      	b.n	8001f88 <UART2_RX_transfer_complete_callback+0x5c0>
					else if(MIDI_CLK_tag < 25){
 80021de:	781a      	ldrb	r2, [r3, #0]
 80021e0:	2a18      	cmp	r2, #24
 80021e2:	d800      	bhi.n	80021e6 <UART2_RX_transfer_complete_callback+0x81e>
 80021e4:	e6f8      	b.n	8001fd8 <UART2_RX_transfer_complete_callback+0x610>
						speed_fsm.current_state.speed_exclusive_state = MIDI_CLK_RESYNC_B1_MODE;
 80021e6:	2211      	movs	r2, #17
 80021e8:	702a      	strb	r2, [r5, #0]
						MIDI_CLK_tag = 1;
 80021ea:	3a10      	subs	r2, #16
 80021ec:	701a      	strb	r2, [r3, #0]
 80021ee:	e431      	b.n	8001a54 <UART2_RX_transfer_complete_callback+0x8c>
				if(*rx_buffer == SYSTEM_REAL_TIME_MIDI_CLOCK){
 80021f0:	7823      	ldrb	r3, [r4, #0]
 80021f2:	2bf8      	cmp	r3, #248	@ 0xf8
 80021f4:	d095      	beq.n	8002122 <UART2_RX_transfer_complete_callback+0x75a>
				else if(*rx_buffer == SYSTEM_REAL_TIME_START){
 80021f6:	7823      	ldrb	r3, [r4, #0]
 80021f8:	2bfa      	cmp	r3, #250	@ 0xfa
 80021fa:	d000      	beq.n	80021fe <UART2_RX_transfer_complete_callback+0x836>
 80021fc:	e42a      	b.n	8001a54 <UART2_RX_transfer_complete_callback+0x8c>
					speed_fsm.current_state.speed_exclusive_state = MIDI_CLK_RESYNC_B2_MODE;
 80021fe:	3be8      	subs	r3, #232	@ 0xe8
 8002200:	702b      	strb	r3, [r5, #0]
 8002202:	e427      	b.n	8001a54 <UART2_RX_transfer_complete_callback+0x8c>
								Set_All_Pots_to_PC_Mode();
 8002204:	f7fe fbda 	bl	80009bc <Set_All_Pots_to_PC_Mode>
								preset_selected = (enum Preset_Selected)*rx_buffer + 1; //since 0 is no preset selected, we have to add 1
 8002208:	7823      	ldrb	r3, [r4, #0]
 800220a:	4a1a      	ldr	r2, [pc, #104]	@ (8002274 <UART2_RX_transfer_complete_callback+0x8ac>)
 800220c:	3301      	adds	r3, #1
 800220e:	b2db      	uxtb	r3, r3
 8002210:	7013      	strb	r3, [r2, #0]
								Update_Params_Based_On_Mode_Selected(); // Update parameters immediately with preset values
 8002212:	f7fe f941 	bl	8000498 <Update_Params_Based_On_Mode_Selected>
							Clear_Data_Buffer(&MIDI_data);
 8002216:	e60b      	b.n	8001e30 <UART2_RX_transfer_complete_callback+0x468>
										Set_Waveshape_to_CC_Mode_and_Value((uint8_t*)&MIDI_data.MIDI_data_buffer[1]);
 8002218:	4813      	ldr	r0, [pc, #76]	@ (8002268 <UART2_RX_transfer_complete_callback+0x8a0>)
 800221a:	f7fe fb7f 	bl	800091c <Set_Waveshape_to_CC_Mode_and_Value>
 800221e:	e665      	b.n	8001eec <UART2_RX_transfer_complete_callback+0x524>
										Set_Speed_to_CC_Mode_and_Value((uint8_t*)&MIDI_data.MIDI_data_buffer[1]);
 8002220:	4811      	ldr	r0, [pc, #68]	@ (8002268 <UART2_RX_transfer_complete_callback+0x8a0>)
 8002222:	f7fe fb8b 	bl	800093c <Set_Speed_to_CC_Mode_and_Value>
 8002226:	e661      	b.n	8001eec <UART2_RX_transfer_complete_callback+0x524>
										Set_Symmetry_to_CC_Mode_and_Value((uint8_t*)&MIDI_data.MIDI_data_buffer[1]);
 8002228:	480f      	ldr	r0, [pc, #60]	@ (8002268 <UART2_RX_transfer_complete_callback+0x8a0>)
 800222a:	f7fe fba7 	bl	800097c <Set_Symmetry_to_CC_Mode_and_Value>
 800222e:	e65d      	b.n	8001eec <UART2_RX_transfer_complete_callback+0x524>
										Set_Depth_to_CC_Mode_and_Value((uint8_t*)&MIDI_data.MIDI_data_buffer[1]);
 8002230:	480d      	ldr	r0, [pc, #52]	@ (8002268 <UART2_RX_transfer_complete_callback+0x8a0>)
 8002232:	f7fe fb93 	bl	800095c <Set_Depth_to_CC_Mode_and_Value>
 8002236:	e659      	b.n	8001eec <UART2_RX_transfer_complete_callback+0x524>
											Set_OMNI_Off(&statuses);
 8002238:	0038      	movs	r0, r7
 800223a:	f7fe fd19 	bl	8000c70 <Set_OMNI_Off>
 800223e:	e655      	b.n	8001eec <UART2_RX_transfer_complete_callback+0x524>
					MIDI_CLK_tag = 0; //just in case
 8002240:	464b      	mov	r3, r9
 8002242:	4a0a      	ldr	r2, [pc, #40]	@ (800226c <UART2_RX_transfer_complete_callback+0x8a4>)
 8002244:	7013      	strb	r3, [r2, #0]
					MIDI_CLK_tag++;
 8002246:	7813      	ldrb	r3, [r2, #0]
 8002248:	3301      	adds	r3, #1
 800224a:	b2db      	uxtb	r3, r3
 800224c:	7013      	strb	r3, [r2, #0]
					speed_fsm.current_state.speed_exclusive_state = MIDI_CLK_RESYNC_B0_MODE;
 800224e:	2310      	movs	r3, #16
					MIDI_CLK_fsm = COMPILING;
 8002250:	7030      	strb	r0, [r6, #0]
					speed_fsm.current_state.speed_exclusive_state = MIDI_CLK_RESYNC_B0_MODE;
 8002252:	e6e8      	b.n	8002026 <UART2_RX_transfer_complete_callback+0x65e>
											Set_Local_Control();
 8002254:	f7fe fce4 	bl	8000c20 <Set_Local_Control>
 8002258:	e648      	b.n	8001eec <UART2_RX_transfer_complete_callback+0x524>
											Reset_All_Controllers(&params, &delay_line);
 800225a:	4907      	ldr	r1, [pc, #28]	@ (8002278 <UART2_RX_transfer_complete_callback+0x8b0>)
 800225c:	4807      	ldr	r0, [pc, #28]	@ (800227c <UART2_RX_transfer_complete_callback+0x8b4>)
 800225e:	f7fe fcaf 	bl	8000bc0 <Reset_All_Controllers>
 8002262:	e643      	b.n	8001eec <UART2_RX_transfer_complete_callback+0x524>
 8002264:	200004d0 	.word	0x200004d0
 8002268:	200004c5 	.word	0x200004c5
 800226c:	20000c1e 	.word	0x20000c1e
 8002270:	20000c30 	.word	0x20000c30
 8002274:	20000478 	.word	0x20000478
 8002278:	20000020 	.word	0x20000020
 800227c:	20000ca0 	.word	0x20000ca0

08002280 <HAL_GPIO_EXTI_Falling_Callback>:

void HAL_GPIO_EXTI_Falling_Callback(uint16_t GPIO_Pin){
 8002280:	b510      	push	{r4, lr}

	if((GPIO_Pin == CLK_IN_Pin)){ //if specifically CLK IN pin with falling interrupt
 8002282:	2880      	cmp	r0, #128	@ 0x80
 8002284:	d000      	beq.n	8002288 <HAL_GPIO_EXTI_Falling_Callback+0x8>

			HAL_GPIO_WritePin(SW_OUT_GPIO_Port, SW_OUT_Pin, 1);
			HAL_GPIO_WritePin(LD3_GPIO_Port, LD3_Pin, 0);
		}
	}
}
 8002286:	bd10      	pop	{r4, pc}
		if((speed_fsm.current_state.speed_exclusive_state == CLK_IN_MODE) || (speed_fsm.current_state.speed_exclusive_state == CLK_IN_PENDING_MODE)){
 8002288:	4b09      	ldr	r3, [pc, #36]	@ (80022b0 <HAL_GPIO_EXTI_Falling_Callback+0x30>)
 800228a:	781a      	ldrb	r2, [r3, #0]
 800228c:	2a06      	cmp	r2, #6
 800228e:	d002      	beq.n	8002296 <HAL_GPIO_EXTI_Falling_Callback+0x16>
 8002290:	781b      	ldrb	r3, [r3, #0]
 8002292:	2b07      	cmp	r3, #7
 8002294:	d1f7      	bne.n	8002286 <HAL_GPIO_EXTI_Falling_Callback+0x6>
			HAL_GPIO_WritePin(SW_OUT_GPIO_Port, SW_OUT_Pin, 1);
 8002296:	2180      	movs	r1, #128	@ 0x80
 8002298:	20a0      	movs	r0, #160	@ 0xa0
 800229a:	2201      	movs	r2, #1
 800229c:	0089      	lsls	r1, r1, #2
 800229e:	05c0      	lsls	r0, r0, #23
 80022a0:	f002 faf8 	bl	8004894 <HAL_GPIO_WritePin>
			HAL_GPIO_WritePin(LD3_GPIO_Port, LD3_Pin, 0);
 80022a4:	2200      	movs	r2, #0
 80022a6:	2140      	movs	r1, #64	@ 0x40
 80022a8:	4802      	ldr	r0, [pc, #8]	@ (80022b4 <HAL_GPIO_EXTI_Falling_Callback+0x34>)
 80022aa:	f002 faf3 	bl	8004894 <HAL_GPIO_WritePin>
}
 80022ae:	e7ea      	b.n	8002286 <HAL_GPIO_EXTI_Falling_Callback+0x6>
 80022b0:	2000043c 	.word	0x2000043c
 80022b4:	50000800 	.word	0x50000800

080022b8 <HAL_GPIO_EXTI_Rising_Callback>:

void HAL_GPIO_EXTI_Rising_Callback(uint16_t GPIO_Pin){
 80022b8:	b570      	push	{r4, r5, r6, lr}

	//HAL_GPIO_WritePin(MONITOR_GPIO_Port, MONITOR_Pin, 1);

	if((GPIO_Pin == CLK_IN_Pin)){ //if specifically CLK IN pin with rising interrupt
 80022ba:	2880      	cmp	r0, #128	@ 0x80
 80022bc:	d000      	beq.n	80022c0 <HAL_GPIO_EXTI_Rising_Callback+0x8>
		}

	}

	//HAL_GPIO_WritePin(MONITOR_GPIO_Port, MONITOR_Pin, 0);
}
 80022be:	bd70      	pop	{r4, r5, r6, pc}
		if(speed_fsm.current_state.shared_state == MANUAL_MODE){
 80022c0:	4c3b      	ldr	r4, [pc, #236]	@ (80023b0 <HAL_GPIO_EXTI_Rising_Callback+0xf8>)
 80022c2:	7823      	ldrb	r3, [r4, #0]
 80022c4:	b2dd      	uxtb	r5, r3
 80022c6:	2b01      	cmp	r3, #1
 80022c8:	d023      	beq.n	8002312 <HAL_GPIO_EXTI_Rising_Callback+0x5a>
		else if(speed_fsm.current_state.shared_state == PC_MODE){
 80022ca:	7823      	ldrb	r3, [r4, #0]
 80022cc:	b2dd      	uxtb	r5, r3
 80022ce:	2b03      	cmp	r3, #3
 80022d0:	d01f      	beq.n	8002312 <HAL_GPIO_EXTI_Rising_Callback+0x5a>
		else if(speed_fsm.current_state.shared_state == CC_MODE){
 80022d2:	7823      	ldrb	r3, [r4, #0]
 80022d4:	b2dd      	uxtb	r5, r3
 80022d6:	2b02      	cmp	r3, #2
 80022d8:	d01b      	beq.n	8002312 <HAL_GPIO_EXTI_Rising_Callback+0x5a>
		else if((speed_fsm.current_state.speed_exclusive_state == TAP_MODE) && (IP_CAP_fsm.current_state == IDLE) && (Get_Status_Bit(&statuses, Software_IP_CAP_Idle_Timer_Has_Timed_Out) == YES)){
 80022da:	7823      	ldrb	r3, [r4, #0]
 80022dc:	b2dd      	uxtb	r5, r3
 80022de:	2b04      	cmp	r3, #4
 80022e0:	d027      	beq.n	8002332 <HAL_GPIO_EXTI_Rising_Callback+0x7a>
		else if((speed_fsm.current_state.speed_exclusive_state == MIDI_CLK_MODE) && (IP_CAP_fsm.current_state == IDLE) && (Get_Status_Bit(&statuses, Software_IP_CAP_Idle_Timer_Has_Timed_Out) == YES)){
 80022e2:	7823      	ldrb	r3, [r4, #0]
 80022e4:	b2dd      	uxtb	r5, r3
 80022e6:	2b08      	cmp	r3, #8
 80022e8:	d046      	beq.n	8002378 <HAL_GPIO_EXTI_Rising_Callback+0xc0>
		else if(speed_fsm.current_state.speed_exclusive_state == CLK_IN_PENDING_MODE){ //second edge
 80022ea:	7823      	ldrb	r3, [r4, #0]
 80022ec:	b2dd      	uxtb	r5, r3
 80022ee:	2b07      	cmp	r3, #7
 80022f0:	d04e      	beq.n	8002390 <HAL_GPIO_EXTI_Rising_Callback+0xd8>
		else if(speed_fsm.current_state.speed_exclusive_state == CLK_IN_MODE){
 80022f2:	7823      	ldrb	r3, [r4, #0]
 80022f4:	2b06      	cmp	r3, #6
 80022f6:	d1e2      	bne.n	80022be <HAL_GPIO_EXTI_Rising_Callback+0x6>
			HAL_GPIO_WritePin(SW_OUT_GPIO_Port, SW_OUT_Pin, 0);
 80022f8:	2180      	movs	r1, #128	@ 0x80
 80022fa:	20a0      	movs	r0, #160	@ 0xa0
 80022fc:	2200      	movs	r2, #0
 80022fe:	0089      	lsls	r1, r1, #2
 8002300:	05c0      	lsls	r0, r0, #23
 8002302:	f002 fac7 	bl	8004894 <HAL_GPIO_WritePin>
			HAL_GPIO_WritePin(LD3_GPIO_Port, LD3_Pin, 1);
 8002306:	2201      	movs	r2, #1
 8002308:	2140      	movs	r1, #64	@ 0x40
 800230a:	482a      	ldr	r0, [pc, #168]	@ (80023b4 <HAL_GPIO_EXTI_Rising_Callback+0xfc>)
 800230c:	f002 fac2 	bl	8004894 <HAL_GPIO_WritePin>
}
 8002310:	e7d5      	b.n	80022be <HAL_GPIO_EXTI_Rising_Callback+0x6>
			HAL_GPIO_WritePin(SW_OUT_GPIO_Port, SW_OUT_Pin, 0);
 8002312:	2180      	movs	r1, #128	@ 0x80
 8002314:	20a0      	movs	r0, #160	@ 0xa0
 8002316:	2200      	movs	r2, #0
 8002318:	0089      	lsls	r1, r1, #2
 800231a:	05c0      	lsls	r0, r0, #23
 800231c:	f002 faba 	bl	8004894 <HAL_GPIO_WritePin>
			HAL_GPIO_WritePin(LD3_GPIO_Port, LD3_Pin, 1);
 8002320:	2201      	movs	r2, #1
 8002322:	2140      	movs	r1, #64	@ 0x40
 8002324:	4823      	ldr	r0, [pc, #140]	@ (80023b4 <HAL_GPIO_EXTI_Rising_Callback+0xfc>)
 8002326:	f002 fab5 	bl	8004894 <HAL_GPIO_WritePin>
			speed_fsm.current_state.speed_exclusive_state = CLK_IN_PENDING_MODE;
 800232a:	2307      	movs	r3, #7
			speed_fsm.prev_state.shared_state = CC_MODE;
 800232c:	7065      	strb	r5, [r4, #1]
			speed_fsm.current_state.speed_exclusive_state = CLK_IN_PENDING_MODE;
 800232e:	7023      	strb	r3, [r4, #0]
 8002330:	e7c5      	b.n	80022be <HAL_GPIO_EXTI_Rising_Callback+0x6>
		else if((speed_fsm.current_state.speed_exclusive_state == TAP_MODE) && (IP_CAP_fsm.current_state == IDLE) && (Get_Status_Bit(&statuses, Software_IP_CAP_Idle_Timer_Has_Timed_Out) == YES)){
 8002332:	4b21      	ldr	r3, [pc, #132]	@ (80023b8 <HAL_GPIO_EXTI_Rising_Callback+0x100>)
 8002334:	781b      	ldrb	r3, [r3, #0]
 8002336:	2b00      	cmp	r3, #0
 8002338:	d1d3      	bne.n	80022e2 <HAL_GPIO_EXTI_Rising_Callback+0x2a>
 800233a:	4e20      	ldr	r6, [pc, #128]	@ (80023bc <HAL_GPIO_EXTI_Rising_Callback+0x104>)
 800233c:	2120      	movs	r1, #32
 800233e:	0030      	movs	r0, r6
 8002340:	f001 f8ec 	bl	800351c <Get_Status_Bit>
 8002344:	2801      	cmp	r0, #1
 8002346:	d1cc      	bne.n	80022e2 <HAL_GPIO_EXTI_Rising_Callback+0x2a>
			HAL_GPIO_WritePin(SW_OUT_GPIO_Port, SW_OUT_Pin, 0);
 8002348:	2180      	movs	r1, #128	@ 0x80
 800234a:	20a0      	movs	r0, #160	@ 0xa0
 800234c:	2200      	movs	r2, #0
 800234e:	0089      	lsls	r1, r1, #2
 8002350:	05c0      	lsls	r0, r0, #23
 8002352:	f002 fa9f 	bl	8004894 <HAL_GPIO_WritePin>
			HAL_GPIO_WritePin(LD3_GPIO_Port, LD3_Pin, 1);
 8002356:	2201      	movs	r2, #1
 8002358:	2140      	movs	r1, #64	@ 0x40
 800235a:	4816      	ldr	r0, [pc, #88]	@ (80023b4 <HAL_GPIO_EXTI_Rising_Callback+0xfc>)
 800235c:	f002 fa9a 	bl	8004894 <HAL_GPIO_WritePin>
			speed_fsm.current_state.speed_exclusive_state = CLK_IN_PENDING_MODE;
 8002360:	2307      	movs	r3, #7
			Clear_Status_Bit(&statuses, Software_IP_CAP_Idle_Timer_Has_Timed_Out);
 8002362:	0030      	movs	r0, r6
			speed_fsm.prev_state.speed_exclusive_state = MIDI_CLK_MODE;
 8002364:	7065      	strb	r5, [r4, #1]
			Clear_Status_Bit(&statuses, Software_IP_CAP_Idle_Timer_Has_Timed_Out);
 8002366:	2120      	movs	r1, #32
			speed_fsm.current_state.speed_exclusive_state = CLK_IN_PENDING_MODE;
 8002368:	7023      	strb	r3, [r4, #0]
			Clear_Status_Bit(&statuses, Software_IP_CAP_Idle_Timer_Has_Timed_Out);
 800236a:	f001 f8e1 	bl	8003530 <Clear_Status_Bit>
			Clear_Status_Bit(&statuses, Software_IP_CAP_Idle_Timer_Is_Running);
 800236e:	2140      	movs	r1, #64	@ 0x40
 8002370:	0030      	movs	r0, r6
 8002372:	f001 f8dd 	bl	8003530 <Clear_Status_Bit>
 8002376:	e7a2      	b.n	80022be <HAL_GPIO_EXTI_Rising_Callback+0x6>
		else if((speed_fsm.current_state.speed_exclusive_state == MIDI_CLK_MODE) && (IP_CAP_fsm.current_state == IDLE) && (Get_Status_Bit(&statuses, Software_IP_CAP_Idle_Timer_Has_Timed_Out) == YES)){
 8002378:	4b0f      	ldr	r3, [pc, #60]	@ (80023b8 <HAL_GPIO_EXTI_Rising_Callback+0x100>)
 800237a:	781b      	ldrb	r3, [r3, #0]
 800237c:	2b00      	cmp	r3, #0
 800237e:	d1b4      	bne.n	80022ea <HAL_GPIO_EXTI_Rising_Callback+0x32>
 8002380:	4e0e      	ldr	r6, [pc, #56]	@ (80023bc <HAL_GPIO_EXTI_Rising_Callback+0x104>)
 8002382:	2120      	movs	r1, #32
 8002384:	0030      	movs	r0, r6
 8002386:	f001 f8c9 	bl	800351c <Get_Status_Bit>
 800238a:	2801      	cmp	r0, #1
 800238c:	d1ad      	bne.n	80022ea <HAL_GPIO_EXTI_Rising_Callback+0x32>
 800238e:	e7db      	b.n	8002348 <HAL_GPIO_EXTI_Rising_Callback+0x90>
			HAL_GPIO_WritePin(SW_OUT_GPIO_Port, SW_OUT_Pin, 0);
 8002390:	2180      	movs	r1, #128	@ 0x80
 8002392:	20a0      	movs	r0, #160	@ 0xa0
 8002394:	2200      	movs	r2, #0
 8002396:	0089      	lsls	r1, r1, #2
 8002398:	05c0      	lsls	r0, r0, #23
 800239a:	f002 fa7b 	bl	8004894 <HAL_GPIO_WritePin>
			HAL_GPIO_WritePin(LD3_GPIO_Port, LD3_Pin, 1);
 800239e:	2201      	movs	r2, #1
 80023a0:	2140      	movs	r1, #64	@ 0x40
 80023a2:	4804      	ldr	r0, [pc, #16]	@ (80023b4 <HAL_GPIO_EXTI_Rising_Callback+0xfc>)
 80023a4:	f002 fa76 	bl	8004894 <HAL_GPIO_WritePin>
			speed_fsm.current_state.speed_exclusive_state = CLK_IN_MODE;
 80023a8:	2306      	movs	r3, #6
			speed_fsm.prev_state.speed_exclusive_state = CLK_IN_PENDING_MODE;
 80023aa:	7065      	strb	r5, [r4, #1]
			speed_fsm.current_state.speed_exclusive_state = CLK_IN_MODE;
 80023ac:	7023      	strb	r3, [r4, #0]
 80023ae:	e786      	b.n	80022be <HAL_GPIO_EXTI_Rising_Callback+0x6>
 80023b0:	2000043c 	.word	0x2000043c
 80023b4:	50000800 	.word	0x50000800
 80023b8:	20000428 	.word	0x20000428
 80023bc:	20000c30 	.word	0x20000c30

080023c0 <LPTIM1_callback>:

	static volatile struct Tap_Tempo_Switch_States tap_tempo_switch_states = {0};

	//CHECK IF NEED TO TAP_PENDING TRANSITION

	uint8_t pin_state = (uint8_t)HAL_GPIO_ReadPin(SW_IN_GPIO_Port, SW_IN_Pin);
 80023c0:	2180      	movs	r1, #128	@ 0x80
 80023c2:	20a0      	movs	r0, #160	@ 0xa0
void LPTIM1_callback(LPTIM_HandleTypeDef *hlptim){
 80023c4:	b5f8      	push	{r3, r4, r5, r6, r7, lr}
	uint8_t pin_state = (uint8_t)HAL_GPIO_ReadPin(SW_IN_GPIO_Port, SW_IN_Pin);
 80023c6:	00c9      	lsls	r1, r1, #3
 80023c8:	05c0      	lsls	r0, r0, #23
 80023ca:	f002 fa5d 	bl	8004888 <HAL_GPIO_ReadPin>

	if((speed_fsm.current_state.shared_state == MANUAL_MODE) && (pin_state == 0)){
 80023ce:	4c90      	ldr	r4, [pc, #576]	@ (8002610 <LPTIM1_callback+0x250>)
 80023d0:	7823      	ldrb	r3, [r4, #0]
 80023d2:	b2da      	uxtb	r2, r3
 80023d4:	2b01      	cmp	r3, #1
 80023d6:	d071      	beq.n	80024bc <LPTIM1_callback+0xfc>

		speed_fsm.current_state.speed_exclusive_state = TAP_PENDING_MODE;
		speed_fsm.prev_state.shared_state = MANUAL_MODE;
	}
	else if((speed_fsm.current_state.shared_state == CC_MODE) && (pin_state == 0)){
 80023d8:	7823      	ldrb	r3, [r4, #0]
 80023da:	b2da      	uxtb	r2, r3
 80023dc:	2b02      	cmp	r3, #2
 80023de:	d026      	beq.n	800242e <LPTIM1_callback+0x6e>

		speed_fsm.current_state.speed_exclusive_state = TAP_PENDING_MODE;
		speed_fsm.prev_state.shared_state = CC_MODE;
	}
	else if((speed_fsm.current_state.shared_state == PC_MODE) && (pin_state == 0)){
 80023e0:	7823      	ldrb	r3, [r4, #0]
 80023e2:	b2da      	uxtb	r2, r3
 80023e4:	2b03      	cmp	r3, #3
 80023e6:	d100      	bne.n	80023ea <LPTIM1_callback+0x2a>
 80023e8:	e0e4      	b.n	80025b4 <LPTIM1_callback+0x1f4>

		speed_fsm.current_state.speed_exclusive_state = TAP_PENDING_MODE;
		speed_fsm.prev_state.shared_state = PC_MODE;
	}
	else if((speed_fsm.current_state.speed_exclusive_state == CLK_IN_MODE) && (pin_state == 0) && (IP_CAP_fsm.current_state == IDLE) && (Get_Status_Bit(&statuses, Software_IP_CAP_Idle_Timer_Has_Timed_Out) == YES)){
 80023ea:	7823      	ldrb	r3, [r4, #0]
 80023ec:	b2de      	uxtb	r6, r3
 80023ee:	2b06      	cmp	r3, #6
 80023f0:	d100      	bne.n	80023f4 <LPTIM1_callback+0x34>
 80023f2:	e0a4      	b.n	800253e <LPTIM1_callback+0x17e>
		speed_fsm.prev_state.speed_exclusive_state = CLK_IN_MODE;

		Clear_Status_Bit(&statuses, Software_IP_CAP_Idle_Timer_Has_Timed_Out);
		Clear_Status_Bit(&statuses, Software_IP_CAP_Idle_Timer_Is_Running);
	}
	else if((speed_fsm.current_state.speed_exclusive_state == MIDI_CLK_MODE) && (pin_state == 0) && (IP_CAP_fsm.current_state == IDLE) && (Get_Status_Bit(&statuses, Software_IP_CAP_Idle_Timer_Has_Timed_Out) == YES)){
 80023f4:	7823      	ldrb	r3, [r4, #0]
 80023f6:	2b08      	cmp	r3, #8
 80023f8:	d166      	bne.n	80024c8 <LPTIM1_callback+0x108>
 80023fa:	2800      	cmp	r0, #0
 80023fc:	d164      	bne.n	80024c8 <LPTIM1_callback+0x108>
 80023fe:	4d85      	ldr	r5, [pc, #532]	@ (8002614 <LPTIM1_callback+0x254>)
 8002400:	782b      	ldrb	r3, [r5, #0]
 8002402:	2b00      	cmp	r3, #0
 8002404:	d160      	bne.n	80024c8 <LPTIM1_callback+0x108>
 8002406:	4d84      	ldr	r5, [pc, #528]	@ (8002618 <LPTIM1_callback+0x258>)
 8002408:	2120      	movs	r1, #32
 800240a:	0028      	movs	r0, r5
 800240c:	f001 f886 	bl	800351c <Get_Status_Bit>
 8002410:	2801      	cmp	r0, #1
 8002412:	d159      	bne.n	80024c8 <LPTIM1_callback+0x108>

		speed_fsm.current_state.speed_exclusive_state = TAP_PENDING_MODE;
 8002414:	2305      	movs	r3, #5
		speed_fsm.prev_state.speed_exclusive_state = MIDI_CLK_MODE;

		Clear_Status_Bit(&statuses, Software_IP_CAP_Idle_Timer_Has_Timed_Out);
 8002416:	0028      	movs	r0, r5
		speed_fsm.current_state.speed_exclusive_state = TAP_PENDING_MODE;
 8002418:	7023      	strb	r3, [r4, #0]
		Clear_Status_Bit(&statuses, Software_IP_CAP_Idle_Timer_Has_Timed_Out);
 800241a:	2120      	movs	r1, #32
		speed_fsm.prev_state.speed_exclusive_state = MIDI_CLK_MODE;
 800241c:	3303      	adds	r3, #3
 800241e:	7063      	strb	r3, [r4, #1]
		Clear_Status_Bit(&statuses, Software_IP_CAP_Idle_Timer_Has_Timed_Out);
 8002420:	f001 f886 	bl	8003530 <Clear_Status_Bit>
		Clear_Status_Bit(&statuses, Software_IP_CAP_Idle_Timer_Is_Running);
 8002424:	2140      	movs	r1, #64	@ 0x40
 8002426:	0028      	movs	r0, r5
 8002428:	f001 f882 	bl	8003530 <Clear_Status_Bit>
 800242c:	e04c      	b.n	80024c8 <LPTIM1_callback+0x108>
	else if((speed_fsm.current_state.shared_state == CC_MODE) && (pin_state == 0)){
 800242e:	2800      	cmp	r0, #0
 8002430:	d147      	bne.n	80024c2 <LPTIM1_callback+0x102>
		speed_fsm.current_state.speed_exclusive_state = TAP_PENDING_MODE;
 8002432:	3303      	adds	r3, #3
 8002434:	7023      	strb	r3, [r4, #0]
		speed_fsm.prev_state.shared_state = CC_MODE;
 8002436:	7062      	strb	r2, [r4, #1]
	}

	//CHECK TAP TEMPO STATE
	if((speed_fsm.current_state.speed_exclusive_state == TAP_PENDING_MODE) || (speed_fsm.current_state.speed_exclusive_state == TAP_MODE)){
 8002438:	7823      	ldrb	r3, [r4, #0]
 800243a:	2b05      	cmp	r3, #5
 800243c:	d147      	bne.n	80024ce <LPTIM1_callback+0x10e>

		Check_Tap_Tempo_Switch_State(&tap_tempo_switch_states);
 800243e:	4d77      	ldr	r5, [pc, #476]	@ (800261c <LPTIM1_callback+0x25c>)
 8002440:	0028      	movs	r0, r5
 8002442:	f7fe fcd5 	bl	8000df0 <Check_Tap_Tempo_Switch_State>

		if(tap_tempo_switch_states.tap_tempo_switch_state == DEPRESSED){
 8002446:	782b      	ldrb	r3, [r5, #0]
 8002448:	2b01      	cmp	r3, #1
 800244a:	d100      	bne.n	800244e <LPTIM1_callback+0x8e>
 800244c:	e0bf      	b.n	80025ce <LPTIM1_callback+0x20e>
			//HAL_GPIO_WritePin(MONITOR_GPIO_Port, MONITOR_Pin, 0);
			HAL_GPIO_WritePin(SW_OUT_GPIO_Port, SW_OUT_Pin, 0);
			HAL_GPIO_WritePin(LD3_GPIO_Port, LD3_Pin, 1);

		}
		else if(tap_tempo_switch_states.tap_tempo_switch_state == NOT_DEPRESSED){
 800244e:	782b      	ldrb	r3, [r5, #0]
 8002450:	2b00      	cmp	r3, #0
 8002452:	d13f      	bne.n	80024d4 <LPTIM1_callback+0x114>

			//HAL_GPIO_WritePin(MONITOR_GPIO_Port, MONITOR_Pin, 1);
			HAL_GPIO_WritePin(SW_OUT_GPIO_Port, SW_OUT_Pin, 1); //reset
 8002454:	2180      	movs	r1, #128	@ 0x80
 8002456:	20a0      	movs	r0, #160	@ 0xa0
 8002458:	2201      	movs	r2, #1
 800245a:	0089      	lsls	r1, r1, #2
 800245c:	05c0      	lsls	r0, r0, #23
 800245e:	f002 fa19 	bl	8004894 <HAL_GPIO_WritePin>
			HAL_GPIO_WritePin(LD3_GPIO_Port, LD3_Pin, 0);
 8002462:	2200      	movs	r2, #0
 8002464:	2140      	movs	r1, #64	@ 0x40
 8002466:	486e      	ldr	r0, [pc, #440]	@ (8002620 <LPTIM1_callback+0x260>)
 8002468:	f002 fa14 	bl	8004894 <HAL_GPIO_WritePin>
	//SET PREVIOUS STATE TO CURRENT STATE
	//tap_tempo_switch_states.tap_tempo_switch_prev_state = tap_tempo_switch_states.tap_tempo_switch_state;


	//PERFORM SPEED POT CHECKING
	if((speed_fsm.current_state.shared_state == PC_MODE) || (speed_fsm.current_state.shared_state == CC_MODE)){
 800246c:	7823      	ldrb	r3, [r4, #0]
 800246e:	2b03      	cmp	r3, #3
 8002470:	d133      	bne.n	80024da <LPTIM1_callback+0x11a>
			HAL_GPIO_WritePin(LD3_GPIO_Port, LD3_Pin, 0);

			MIDI_CLK_fsm = NOT_COMPILING;
			MIDI_CLK_tag = 0;

			Pot_Check(&params_manual, SPEED_POT);
 8002472:	2101      	movs	r1, #1
 8002474:	486b      	ldr	r0, [pc, #428]	@ (8002624 <LPTIM1_callback+0x264>)
 8002476:	f7fe fc17 	bl	8000ca8 <Pot_Check>

			Pot_Check(&params_manual, SPEED_POT);
		}
	}

	if((waveshape_fsm.current_state == PC_MODE) || (waveshape_fsm.current_state == CC_MODE)){
 800247a:	4b6b      	ldr	r3, [pc, #428]	@ (8002628 <LPTIM1_callback+0x268>)
 800247c:	781a      	ldrb	r2, [r3, #0]
 800247e:	2a03      	cmp	r2, #3
 8002480:	d13b      	bne.n	80024fa <LPTIM1_callback+0x13a>
		Pot_Check(&params_manual, WAVESHAPE_POT);
 8002482:	2100      	movs	r1, #0
 8002484:	4867      	ldr	r0, [pc, #412]	@ (8002624 <LPTIM1_callback+0x264>)
 8002486:	f7fe fc0f 	bl	8000ca8 <Pot_Check>
	}
	if((depth_fsm.current_state == PC_MODE) || (depth_fsm.current_state == CC_MODE)){
 800248a:	4b68      	ldr	r3, [pc, #416]	@ (800262c <LPTIM1_callback+0x26c>)
 800248c:	781a      	ldrb	r2, [r3, #0]
 800248e:	2a03      	cmp	r2, #3
 8002490:	d13a      	bne.n	8002508 <LPTIM1_callback+0x148>
		Pot_Check(&params_manual, DEPTH_POT);
 8002492:	2102      	movs	r1, #2
 8002494:	4863      	ldr	r0, [pc, #396]	@ (8002624 <LPTIM1_callback+0x264>)
 8002496:	f7fe fc07 	bl	8000ca8 <Pot_Check>
	}
	if((symmetry_fsm.current_state == PC_MODE) || (symmetry_fsm.current_state == CC_MODE)){
 800249a:	4b65      	ldr	r3, [pc, #404]	@ (8002630 <LPTIM1_callback+0x270>)
 800249c:	781a      	ldrb	r2, [r3, #0]
 800249e:	2a03      	cmp	r2, #3
 80024a0:	d139      	bne.n	8002516 <LPTIM1_callback+0x156>
		Pot_Check(&params_manual, SYMMETRY_POT);
 80024a2:	2103      	movs	r1, #3
 80024a4:	485f      	ldr	r0, [pc, #380]	@ (8002624 <LPTIM1_callback+0x264>)
 80024a6:	f7fe fbff 	bl	8000ca8 <Pot_Check>
	}
	if((phase_fsm.current_state == PC_MODE) || (phase_fsm.current_state == CC_MODE)){
 80024aa:	4b62      	ldr	r3, [pc, #392]	@ (8002634 <LPTIM1_callback+0x274>)
 80024ac:	781a      	ldrb	r2, [r3, #0]
 80024ae:	2a03      	cmp	r2, #3
 80024b0:	d138      	bne.n	8002524 <LPTIM1_callback+0x164>
		Pot_Check(&params_manual, PHASE_POT);
 80024b2:	2104      	movs	r1, #4
 80024b4:	485b      	ldr	r0, [pc, #364]	@ (8002624 <LPTIM1_callback+0x264>)
 80024b6:	f7fe fbf7 	bl	8000ca8 <Pot_Check>
 80024ba:	e036      	b.n	800252a <LPTIM1_callback+0x16a>
	if((speed_fsm.current_state.shared_state == MANUAL_MODE) && (pin_state == 0)){
 80024bc:	2800      	cmp	r0, #0
 80024be:	d03a      	beq.n	8002536 <LPTIM1_callback+0x176>
	else if((speed_fsm.current_state.shared_state == CC_MODE) && (pin_state == 0)){
 80024c0:	7823      	ldrb	r3, [r4, #0]
	else if((speed_fsm.current_state.shared_state == PC_MODE) && (pin_state == 0)){
 80024c2:	7823      	ldrb	r3, [r4, #0]
	else if((speed_fsm.current_state.speed_exclusive_state == CLK_IN_MODE) && (pin_state == 0) && (IP_CAP_fsm.current_state == IDLE) && (Get_Status_Bit(&statuses, Software_IP_CAP_Idle_Timer_Has_Timed_Out) == YES)){
 80024c4:	7823      	ldrb	r3, [r4, #0]
	else if((speed_fsm.current_state.speed_exclusive_state == MIDI_CLK_MODE) && (pin_state == 0) && (IP_CAP_fsm.current_state == IDLE) && (Get_Status_Bit(&statuses, Software_IP_CAP_Idle_Timer_Has_Timed_Out) == YES)){
 80024c6:	7823      	ldrb	r3, [r4, #0]
	if((speed_fsm.current_state.speed_exclusive_state == TAP_PENDING_MODE) || (speed_fsm.current_state.speed_exclusive_state == TAP_MODE)){
 80024c8:	7823      	ldrb	r3, [r4, #0]
 80024ca:	2b05      	cmp	r3, #5
 80024cc:	d0b7      	beq.n	800243e <LPTIM1_callback+0x7e>
 80024ce:	7823      	ldrb	r3, [r4, #0]
 80024d0:	2b04      	cmp	r3, #4
 80024d2:	d0b4      	beq.n	800243e <LPTIM1_callback+0x7e>
	if((speed_fsm.current_state.shared_state == PC_MODE) || (speed_fsm.current_state.shared_state == CC_MODE)){
 80024d4:	7823      	ldrb	r3, [r4, #0]
 80024d6:	2b03      	cmp	r3, #3
 80024d8:	d0cb      	beq.n	8002472 <LPTIM1_callback+0xb2>
 80024da:	7823      	ldrb	r3, [r4, #0]
 80024dc:	2b02      	cmp	r3, #2
 80024de:	d0c8      	beq.n	8002472 <LPTIM1_callback+0xb2>
	else if((speed_fsm.current_state.speed_exclusive_state == CLK_IN_MODE) && (IP_CAP_fsm.current_state == IDLE)){
 80024e0:	7823      	ldrb	r3, [r4, #0]
 80024e2:	2b06      	cmp	r3, #6
 80024e4:	d035      	beq.n	8002552 <LPTIM1_callback+0x192>
	else if((speed_fsm.current_state.speed_exclusive_state == MIDI_CLK_MODE) && (IP_CAP_fsm.current_state == IDLE)){
 80024e6:	7823      	ldrb	r3, [r4, #0]
 80024e8:	2b08      	cmp	r3, #8
 80024ea:	d042      	beq.n	8002572 <LPTIM1_callback+0x1b2>
	else if((speed_fsm.current_state.speed_exclusive_state == TAP_MODE) && (IP_CAP_fsm.current_state == IDLE)){
 80024ec:	7823      	ldrb	r3, [r4, #0]
 80024ee:	2b04      	cmp	r3, #4
 80024f0:	d067      	beq.n	80025c2 <LPTIM1_callback+0x202>
	if((waveshape_fsm.current_state == PC_MODE) || (waveshape_fsm.current_state == CC_MODE)){
 80024f2:	4b4d      	ldr	r3, [pc, #308]	@ (8002628 <LPTIM1_callback+0x268>)
 80024f4:	781a      	ldrb	r2, [r3, #0]
 80024f6:	2a03      	cmp	r2, #3
 80024f8:	d0c3      	beq.n	8002482 <LPTIM1_callback+0xc2>
 80024fa:	781b      	ldrb	r3, [r3, #0]
 80024fc:	2b02      	cmp	r3, #2
 80024fe:	d0c0      	beq.n	8002482 <LPTIM1_callback+0xc2>
	if((depth_fsm.current_state == PC_MODE) || (depth_fsm.current_state == CC_MODE)){
 8002500:	4b4a      	ldr	r3, [pc, #296]	@ (800262c <LPTIM1_callback+0x26c>)
 8002502:	781a      	ldrb	r2, [r3, #0]
 8002504:	2a03      	cmp	r2, #3
 8002506:	d0c4      	beq.n	8002492 <LPTIM1_callback+0xd2>
 8002508:	781b      	ldrb	r3, [r3, #0]
 800250a:	2b02      	cmp	r3, #2
 800250c:	d0c1      	beq.n	8002492 <LPTIM1_callback+0xd2>
	if((symmetry_fsm.current_state == PC_MODE) || (symmetry_fsm.current_state == CC_MODE)){
 800250e:	4b48      	ldr	r3, [pc, #288]	@ (8002630 <LPTIM1_callback+0x270>)
 8002510:	781a      	ldrb	r2, [r3, #0]
 8002512:	2a03      	cmp	r2, #3
 8002514:	d0c5      	beq.n	80024a2 <LPTIM1_callback+0xe2>
 8002516:	781b      	ldrb	r3, [r3, #0]
 8002518:	2b02      	cmp	r3, #2
 800251a:	d0c2      	beq.n	80024a2 <LPTIM1_callback+0xe2>
	if((phase_fsm.current_state == PC_MODE) || (phase_fsm.current_state == CC_MODE)){
 800251c:	4b45      	ldr	r3, [pc, #276]	@ (8002634 <LPTIM1_callback+0x274>)
 800251e:	781a      	ldrb	r2, [r3, #0]
 8002520:	2a03      	cmp	r2, #3
 8002522:	d0c6      	beq.n	80024b2 <LPTIM1_callback+0xf2>
 8002524:	781b      	ldrb	r3, [r3, #0]
 8002526:	2b02      	cmp	r3, #2
 8002528:	d0c3      	beq.n	80024b2 <LPTIM1_callback+0xf2>
	}

	//SET TIMER TRIGGER
	HAL_LPTIM_SetOnce_Start_IT(&hlptim1, LPTIM1_CCR_CHECK, LPTIM1_CCR_CHECK);
 800252a:	22fa      	movs	r2, #250	@ 0xfa
 800252c:	21fa      	movs	r1, #250	@ 0xfa
 800252e:	4842      	ldr	r0, [pc, #264]	@ (8002638 <LPTIM1_callback+0x278>)
 8002530:	f002 fbe8 	bl	8004d04 <HAL_LPTIM_SetOnce_Start_IT>

}
 8002534:	bdf8      	pop	{r3, r4, r5, r6, r7, pc}
		speed_fsm.current_state.speed_exclusive_state = TAP_PENDING_MODE;
 8002536:	3304      	adds	r3, #4
 8002538:	7023      	strb	r3, [r4, #0]
		speed_fsm.prev_state.shared_state = MANUAL_MODE;
 800253a:	7062      	strb	r2, [r4, #1]
 800253c:	e7c4      	b.n	80024c8 <LPTIM1_callback+0x108>
	else if((speed_fsm.current_state.speed_exclusive_state == CLK_IN_MODE) && (pin_state == 0) && (IP_CAP_fsm.current_state == IDLE) && (Get_Status_Bit(&statuses, Software_IP_CAP_Idle_Timer_Has_Timed_Out) == YES)){
 800253e:	2800      	cmp	r0, #0
 8002540:	d1c1      	bne.n	80024c6 <LPTIM1_callback+0x106>
 8002542:	4d34      	ldr	r5, [pc, #208]	@ (8002614 <LPTIM1_callback+0x254>)
 8002544:	782b      	ldrb	r3, [r5, #0]
 8002546:	2b00      	cmp	r3, #0
 8002548:	d04e      	beq.n	80025e8 <LPTIM1_callback+0x228>
	else if((speed_fsm.current_state.speed_exclusive_state == MIDI_CLK_MODE) && (pin_state == 0) && (IP_CAP_fsm.current_state == IDLE) && (Get_Status_Bit(&statuses, Software_IP_CAP_Idle_Timer_Has_Timed_Out) == YES)){
 800254a:	7823      	ldrb	r3, [r4, #0]
 800254c:	2b08      	cmp	r3, #8
 800254e:	d1bb      	bne.n	80024c8 <LPTIM1_callback+0x108>
 8002550:	e756      	b.n	8002400 <LPTIM1_callback+0x40>
	else if((speed_fsm.current_state.speed_exclusive_state == CLK_IN_MODE) && (IP_CAP_fsm.current_state == IDLE)){
 8002552:	4b30      	ldr	r3, [pc, #192]	@ (8002614 <LPTIM1_callback+0x254>)
 8002554:	781b      	ldrb	r3, [r3, #0]
 8002556:	2b00      	cmp	r3, #0
 8002558:	d1c5      	bne.n	80024e6 <LPTIM1_callback+0x126>
		Set_Status_Bit(&statuses, Software_IP_CAP_Idle_Timer_Is_Running);
 800255a:	4c2f      	ldr	r4, [pc, #188]	@ (8002618 <LPTIM1_callback+0x258>)
 800255c:	2140      	movs	r1, #64	@ 0x40
 800255e:	0020      	movs	r0, r4
 8002560:	f000 ffe2 	bl	8003528 <Set_Status_Bit>
		if(Get_Status_Bit(&statuses, Software_IP_CAP_Idle_Timer_Has_Timed_Out) == YES){
 8002564:	2120      	movs	r1, #32
 8002566:	0020      	movs	r0, r4
 8002568:	f000 ffd8 	bl	800351c <Get_Status_Bit>
 800256c:	2801      	cmp	r0, #1
 800256e:	d1c0      	bne.n	80024f2 <LPTIM1_callback+0x132>
 8002570:	e77f      	b.n	8002472 <LPTIM1_callback+0xb2>
	else if((speed_fsm.current_state.speed_exclusive_state == MIDI_CLK_MODE) && (IP_CAP_fsm.current_state == IDLE)){
 8002572:	4b28      	ldr	r3, [pc, #160]	@ (8002614 <LPTIM1_callback+0x254>)
 8002574:	781b      	ldrb	r3, [r3, #0]
 8002576:	b2dd      	uxtb	r5, r3
 8002578:	2b00      	cmp	r3, #0
 800257a:	d1b7      	bne.n	80024ec <LPTIM1_callback+0x12c>
		Set_Status_Bit(&statuses, Software_IP_CAP_Idle_Timer_Is_Running);
 800257c:	4c26      	ldr	r4, [pc, #152]	@ (8002618 <LPTIM1_callback+0x258>)
 800257e:	2140      	movs	r1, #64	@ 0x40
 8002580:	0020      	movs	r0, r4
 8002582:	f000 ffd1 	bl	8003528 <Set_Status_Bit>
		if(Get_Status_Bit(&statuses, Software_IP_CAP_Idle_Timer_Has_Timed_Out) == YES){
 8002586:	2120      	movs	r1, #32
 8002588:	0020      	movs	r0, r4
 800258a:	f000 ffc7 	bl	800351c <Get_Status_Bit>
 800258e:	2801      	cmp	r0, #1
 8002590:	d1af      	bne.n	80024f2 <LPTIM1_callback+0x132>
			HAL_GPIO_WritePin(SW_OUT_GPIO_Port, SW_OUT_Pin, 1); //reset
 8002592:	2180      	movs	r1, #128	@ 0x80
 8002594:	20a0      	movs	r0, #160	@ 0xa0
 8002596:	2201      	movs	r2, #1
 8002598:	0089      	lsls	r1, r1, #2
 800259a:	05c0      	lsls	r0, r0, #23
 800259c:	f002 f97a 	bl	8004894 <HAL_GPIO_WritePin>
			HAL_GPIO_WritePin(LD3_GPIO_Port, LD3_Pin, 0);
 80025a0:	2200      	movs	r2, #0
 80025a2:	2140      	movs	r1, #64	@ 0x40
 80025a4:	481e      	ldr	r0, [pc, #120]	@ (8002620 <LPTIM1_callback+0x260>)
 80025a6:	f002 f975 	bl	8004894 <HAL_GPIO_WritePin>
			MIDI_CLK_fsm = NOT_COMPILING;
 80025aa:	4b24      	ldr	r3, [pc, #144]	@ (800263c <LPTIM1_callback+0x27c>)
 80025ac:	701d      	strb	r5, [r3, #0]
			MIDI_CLK_tag = 0;
 80025ae:	4b24      	ldr	r3, [pc, #144]	@ (8002640 <LPTIM1_callback+0x280>)
 80025b0:	701d      	strb	r5, [r3, #0]
 80025b2:	e75e      	b.n	8002472 <LPTIM1_callback+0xb2>
	else if((speed_fsm.current_state.shared_state == PC_MODE) && (pin_state == 0)){
 80025b4:	2800      	cmp	r0, #0
 80025b6:	d000      	beq.n	80025ba <LPTIM1_callback+0x1fa>
 80025b8:	e784      	b.n	80024c4 <LPTIM1_callback+0x104>
		speed_fsm.current_state.speed_exclusive_state = TAP_PENDING_MODE;
 80025ba:	3302      	adds	r3, #2
 80025bc:	7023      	strb	r3, [r4, #0]
		speed_fsm.prev_state.shared_state = PC_MODE;
 80025be:	7062      	strb	r2, [r4, #1]
 80025c0:	e782      	b.n	80024c8 <LPTIM1_callback+0x108>
	else if((speed_fsm.current_state.speed_exclusive_state == TAP_MODE) && (IP_CAP_fsm.current_state == IDLE)){
 80025c2:	4b14      	ldr	r3, [pc, #80]	@ (8002614 <LPTIM1_callback+0x254>)
 80025c4:	781b      	ldrb	r3, [r3, #0]
 80025c6:	2b00      	cmp	r3, #0
 80025c8:	d000      	beq.n	80025cc <LPTIM1_callback+0x20c>
 80025ca:	e792      	b.n	80024f2 <LPTIM1_callback+0x132>
 80025cc:	e7c5      	b.n	800255a <LPTIM1_callback+0x19a>
			HAL_GPIO_WritePin(SW_OUT_GPIO_Port, SW_OUT_Pin, 0);
 80025ce:	2180      	movs	r1, #128	@ 0x80
 80025d0:	20a0      	movs	r0, #160	@ 0xa0
 80025d2:	2200      	movs	r2, #0
 80025d4:	0089      	lsls	r1, r1, #2
 80025d6:	05c0      	lsls	r0, r0, #23
 80025d8:	f002 f95c 	bl	8004894 <HAL_GPIO_WritePin>
			HAL_GPIO_WritePin(LD3_GPIO_Port, LD3_Pin, 1);
 80025dc:	2201      	movs	r2, #1
 80025de:	2140      	movs	r1, #64	@ 0x40
 80025e0:	480f      	ldr	r0, [pc, #60]	@ (8002620 <LPTIM1_callback+0x260>)
 80025e2:	f002 f957 	bl	8004894 <HAL_GPIO_WritePin>
 80025e6:	e775      	b.n	80024d4 <LPTIM1_callback+0x114>
	else if((speed_fsm.current_state.speed_exclusive_state == CLK_IN_MODE) && (pin_state == 0) && (IP_CAP_fsm.current_state == IDLE) && (Get_Status_Bit(&statuses, Software_IP_CAP_Idle_Timer_Has_Timed_Out) == YES)){
 80025e8:	4f0b      	ldr	r7, [pc, #44]	@ (8002618 <LPTIM1_callback+0x258>)
 80025ea:	2120      	movs	r1, #32
 80025ec:	0038      	movs	r0, r7
 80025ee:	f000 ff95 	bl	800351c <Get_Status_Bit>
 80025f2:	2801      	cmp	r0, #1
 80025f4:	d1a9      	bne.n	800254a <LPTIM1_callback+0x18a>
		speed_fsm.current_state.speed_exclusive_state = TAP_PENDING_MODE;
 80025f6:	2305      	movs	r3, #5
		Clear_Status_Bit(&statuses, Software_IP_CAP_Idle_Timer_Has_Timed_Out);
 80025f8:	0038      	movs	r0, r7
 80025fa:	2120      	movs	r1, #32
		speed_fsm.current_state.speed_exclusive_state = TAP_PENDING_MODE;
 80025fc:	7023      	strb	r3, [r4, #0]
		speed_fsm.prev_state.speed_exclusive_state = CLK_IN_MODE;
 80025fe:	7066      	strb	r6, [r4, #1]
		Clear_Status_Bit(&statuses, Software_IP_CAP_Idle_Timer_Has_Timed_Out);
 8002600:	f000 ff96 	bl	8003530 <Clear_Status_Bit>
		Clear_Status_Bit(&statuses, Software_IP_CAP_Idle_Timer_Is_Running);
 8002604:	2140      	movs	r1, #64	@ 0x40
 8002606:	0038      	movs	r0, r7
 8002608:	f000 ff92 	bl	8003530 <Clear_Status_Bit>
 800260c:	e75c      	b.n	80024c8 <LPTIM1_callback+0x108>
 800260e:	46c0      	nop			@ (mov r8, r8)
 8002610:	2000043c 	.word	0x2000043c
 8002614:	20000428 	.word	0x20000428
 8002618:	20000c30 	.word	0x20000c30
 800261c:	20000c1c 	.word	0x20000c1c
 8002620:	50000800 	.word	0x50000800
 8002624:	20000c7c 	.word	0x20000c7c
 8002628:	20000434 	.word	0x20000434
 800262c:	20000438 	.word	0x20000438
 8002630:	20000430 	.word	0x20000430
 8002634:	2000042c 	.word	0x2000042c
 8002638:	200004f0 	.word	0x200004f0
 800263c:	20000cce 	.word	0x20000cce
 8002640:	20000c1e 	.word	0x20000c1e

08002644 <TIM17_callback>:

void TIM17_callback(TIM_HandleTypeDef *htim){


}
 8002644:	4770      	bx	lr
 8002646:	46c0      	nop			@ (mov r8, r8)

08002648 <TIM14_callback>:

void TIM14_callback(TIM_HandleTypeDef *htim){
 8002648:	4770      	bx	lr
 800264a:	46c0      	nop			@ (mov r8, r8)

0800264c <Input_Capture_Processing>:
 800264c:	b5f0      	push	{r4, r5, r6, r7, lr}
 800264e:	b083      	sub	sp, #12
 8002650:	466b      	mov	r3, sp
 8002652:	000f      	movs	r7, r1
 8002654:	80d8      	strh	r0, [r3, #6]
 8002656:	2104      	movs	r1, #4
 8002658:	481a      	ldr	r0, [pc, #104]	@ (80026c4 <Input_Capture_Processing+0x78>)
 800265a:	1d9d      	adds	r5, r3, #6
 800265c:	f000 ff68 	bl	8003530 <Clear_Status_Bit>
 8002660:	8828      	ldrh	r0, [r5, #0]
 8002662:	b280      	uxth	r0, r0
 8002664:	f000 ff36 	bl	80034d4 <isPrime>
 8002668:	2801      	cmp	r0, #1
 800266a:	d103      	bne.n	8002674 <Input_Capture_Processing+0x28>
 800266c:	882b      	ldrh	r3, [r5, #0]
 800266e:	3301      	adds	r3, #1
 8002670:	b29b      	uxth	r3, r3
 8002672:	802b      	strh	r3, [r5, #0]
 8002674:	2480      	movs	r4, #128	@ 0x80
 8002676:	882e      	ldrh	r6, [r5, #0]
 8002678:	0064      	lsls	r4, r4, #1
 800267a:	01b6      	lsls	r6, r6, #6
 800267c:	e003      	b.n	8002686 <Input_Capture_Processing+0x3a>
 800267e:	3c01      	subs	r4, #1
 8002680:	b2a4      	uxth	r4, r4
 8002682:	2c7f      	cmp	r4, #127	@ 0x7f
 8002684:	d00e      	beq.n	80026a4 <Input_Capture_Processing+0x58>
 8002686:	802c      	strh	r4, [r5, #0]
 8002688:	8829      	ldrh	r1, [r5, #0]
 800268a:	0030      	movs	r0, r6
 800268c:	b289      	uxth	r1, r1
 800268e:	f7fd fdbf 	bl	8000210 <__aeabi_uidivmod>
 8002692:	2900      	cmp	r1, #0
 8002694:	d1f3      	bne.n	800267e <Input_Capture_Processing+0x32>
 8002696:	8829      	ldrh	r1, [r5, #0]
 8002698:	0030      	movs	r0, r6
 800269a:	b289      	uxth	r1, r1
 800269c:	f7fd fd32 	bl	8000104 <__udivsi3>
 80026a0:	b280      	uxth	r0, r0
 80026a2:	8378      	strh	r0, [r7, #26]
 80026a4:	2380      	movs	r3, #128	@ 0x80
 80026a6:	882a      	ldrh	r2, [r5, #0]
 80026a8:	005b      	lsls	r3, r3, #1
 80026aa:	1a9b      	subs	r3, r3, r2
 80026ac:	b29b      	uxth	r3, r3
 80026ae:	2101      	movs	r1, #1
 80026b0:	827b      	strh	r3, [r7, #18]
 80026b2:	0038      	movs	r0, r7
 80026b4:	f000 f91a 	bl	80028ec <Calculate_Next_Main_Oscillator_Values>
 80026b8:	0038      	movs	r0, r7
 80026ba:	f000 fdb7 	bl	800322c <Process_TIM16_Final_Start_Value_and_Final_Prescaler>
 80026be:	2001      	movs	r0, #1
 80026c0:	b003      	add	sp, #12
 80026c2:	bdf0      	pop	{r4, r5, r6, r7, pc}
 80026c4:	20000c30 	.word	0x20000c30

080026c8 <Start_Input_Capture_Timer>:
 80026c8:	b570      	push	{r4, r5, r6, lr}
 80026ca:	4d0a      	ldr	r5, [pc, #40]	@ (80026f4 <Start_Input_Capture_Timer+0x2c>)
 80026cc:	0028      	movs	r0, r5
 80026ce:	f003 f953 	bl	8005978 <HAL_TIM_Base_Start_IT>
 80026d2:	2100      	movs	r1, #0
 80026d4:	0004      	movs	r4, r0
 80026d6:	0028      	movs	r0, r5
 80026d8:	f003 fd56 	bl	8006188 <HAL_TIM_IC_Start_IT>
 80026dc:	4004      	ands	r4, r0
 80026de:	b2e4      	uxtb	r4, r4
 80026e0:	2c00      	cmp	r4, #0
 80026e2:	d101      	bne.n	80026e8 <Start_Input_Capture_Timer+0x20>
 80026e4:	0020      	movs	r0, r4
 80026e6:	bd70      	pop	{r4, r5, r6, pc}
 80026e8:	f7fe ff44 	bl	8001574 <Error_Handler>
 80026ec:	f7fe ff42 	bl	8001574 <Error_Handler>
 80026f0:	e7f8      	b.n	80026e4 <Start_Input_Capture_Timer+0x1c>
 80026f2:	46c0      	nop			@ (mov r8, r8)
 80026f4:	20000848 	.word	0x20000848

080026f8 <Copy_Params_Structs>:
 80026f8:	0003      	movs	r3, r0
 80026fa:	b510      	push	{r4, lr}
 80026fc:	0008      	movs	r0, r1
 80026fe:	2224      	movs	r2, #36	@ 0x24
 8002700:	0019      	movs	r1, r3
 8002702:	f005 fba1 	bl	8007e48 <memcpy>
 8002706:	2001      	movs	r0, #1
 8002708:	bd10      	pop	{r4, pc}
 800270a:	46c0      	nop			@ (mov r8, r8)

0800270c <Start_Measurement_Reelapse_Timer>:
 800270c:	b510      	push	{r4, lr}
 800270e:	4c09      	ldr	r4, [pc, #36]	@ (8002734 <Start_Measurement_Reelapse_Timer+0x28>)
 8002710:	2100      	movs	r1, #0
 8002712:	0020      	movs	r0, r4
 8002714:	f000 fed4 	bl	80034c0 <Stop_OC_TIM>
 8002718:	2300      	movs	r3, #0
 800271a:	6822      	ldr	r2, [r4, #0]
 800271c:	2100      	movs	r1, #0
 800271e:	6253      	str	r3, [r2, #36]	@ 0x24
 8002720:	4b05      	ldr	r3, [pc, #20]	@ (8002738 <Start_Measurement_Reelapse_Timer+0x2c>)
 8002722:	0020      	movs	r0, r4
 8002724:	881b      	ldrh	r3, [r3, #0]
 8002726:	b29b      	uxth	r3, r3
 8002728:	6353      	str	r3, [r2, #52]	@ 0x34
 800272a:	f000 febf 	bl	80034ac <Start_OC_TIM>
 800272e:	2001      	movs	r0, #1
 8002730:	bd10      	pop	{r4, pc}
 8002732:	46c0      	nop			@ (mov r8, r8)
 8002734:	2000078c 	.word	0x2000078c
 8002738:	20000c20 	.word	0x20000c20

0800273c <Begin_Input_Capture_Measurement>:
 800273c:	2200      	movs	r2, #0
 800273e:	4b02      	ldr	r3, [pc, #8]	@ (8002748 <Begin_Input_Capture_Measurement+0xc>)
 8002740:	2001      	movs	r0, #1
 8002742:	681b      	ldr	r3, [r3, #0]
 8002744:	625a      	str	r2, [r3, #36]	@ 0x24
 8002746:	4770      	bx	lr
 8002748:	20000848 	.word	0x20000848

0800274c <main>:
 800274c:	b5f8      	push	{r3, r4, r5, r6, r7, lr}
 800274e:	46de      	mov	lr, fp
 8002750:	4657      	mov	r7, sl
 8002752:	464e      	mov	r6, r9
 8002754:	4645      	mov	r5, r8
 8002756:	b5e0      	push	{r5, r6, r7, lr}
 8002758:	f7fe ff0e 	bl	8001578 <System_Init>
 800275c:	f000 f9d0 	bl	8002b00 <Startup>
 8002760:	4b30      	ldr	r3, [pc, #192]	@ (8002824 <main+0xd8>)
 8002762:	26fa      	movs	r6, #250	@ 0xfa
 8002764:	4699      	mov	r9, r3
 8002766:	4b30      	ldr	r3, [pc, #192]	@ (8002828 <main+0xdc>)
 8002768:	4c30      	ldr	r4, [pc, #192]	@ (800282c <main+0xe0>)
 800276a:	469b      	mov	fp, r3
 800276c:	4b30      	ldr	r3, [pc, #192]	@ (8002830 <main+0xe4>)
 800276e:	4d31      	ldr	r5, [pc, #196]	@ (8002834 <main+0xe8>)
 8002770:	469a      	mov	sl, r3
 8002772:	4f31      	ldr	r7, [pc, #196]	@ (8002838 <main+0xec>)
 8002774:	01f6      	lsls	r6, r6, #7
 8002776:	2300      	movs	r3, #0
 8002778:	4698      	mov	r8, r3
 800277a:	e006      	b.n	800278a <main+0x3e>
 800277c:	2180      	movs	r1, #128	@ 0x80
 800277e:	0020      	movs	r0, r4
 8002780:	0049      	lsls	r1, r1, #1
 8002782:	f000 fecb 	bl	800351c <Get_Status_Bit>
 8002786:	2801      	cmp	r0, #1
 8002788:	d01a      	beq.n	80027c0 <main+0x74>
 800278a:	2104      	movs	r1, #4
 800278c:	0020      	movs	r0, r4
 800278e:	f000 fec5 	bl	800351c <Get_Status_Bit>
 8002792:	2801      	cmp	r0, #1
 8002794:	d01c      	beq.n	80027d0 <main+0x84>
 8002796:	2140      	movs	r1, #64	@ 0x40
 8002798:	0020      	movs	r0, r4
 800279a:	f000 febf 	bl	800351c <Get_Status_Bit>
 800279e:	2801      	cmp	r0, #1
 80027a0:	d1ec      	bne.n	800277c <main+0x30>
 80027a2:	682b      	ldr	r3, [r5, #0]
 80027a4:	42b3      	cmp	r3, r6
 80027a6:	d21a      	bcs.n	80027de <main+0x92>
 80027a8:	783a      	ldrb	r2, [r7, #0]
 80027aa:	2a00      	cmp	r2, #0
 80027ac:	d122      	bne.n	80027f4 <main+0xa8>
 80027ae:	2180      	movs	r1, #128	@ 0x80
 80027b0:	3301      	adds	r3, #1
 80027b2:	0020      	movs	r0, r4
 80027b4:	0049      	lsls	r1, r1, #1
 80027b6:	602b      	str	r3, [r5, #0]
 80027b8:	f000 feb0 	bl	800351c <Get_Status_Bit>
 80027bc:	2801      	cmp	r0, #1
 80027be:	d1e4      	bne.n	800278a <main+0x3e>
 80027c0:	464b      	mov	r3, r9
 80027c2:	681b      	ldr	r3, [r3, #0]
 80027c4:	42b3      	cmp	r3, r6
 80027c6:	d220      	bcs.n	800280a <main+0xbe>
 80027c8:	3301      	adds	r3, #1
 80027ca:	464a      	mov	r2, r9
 80027cc:	6013      	str	r3, [r2, #0]
 80027ce:	e7d2      	b.n	8002776 <main+0x2a>
 80027d0:	465b      	mov	r3, fp
 80027d2:	8818      	ldrh	r0, [r3, #0]
 80027d4:	4651      	mov	r1, sl
 80027d6:	b280      	uxth	r0, r0
 80027d8:	f7ff ff38 	bl	800264c <Input_Capture_Processing>
 80027dc:	e7db      	b.n	8002796 <main+0x4a>
 80027de:	2140      	movs	r1, #64	@ 0x40
 80027e0:	0020      	movs	r0, r4
 80027e2:	f000 fea5 	bl	8003530 <Clear_Status_Bit>
 80027e6:	2120      	movs	r1, #32
 80027e8:	0020      	movs	r0, r4
 80027ea:	f000 fe9d 	bl	8003528 <Set_Status_Bit>
 80027ee:	4643      	mov	r3, r8
 80027f0:	602b      	str	r3, [r5, #0]
 80027f2:	e7c3      	b.n	800277c <main+0x30>
 80027f4:	2140      	movs	r1, #64	@ 0x40
 80027f6:	0020      	movs	r0, r4
 80027f8:	f000 fe9a 	bl	8003530 <Clear_Status_Bit>
 80027fc:	2120      	movs	r1, #32
 80027fe:	0020      	movs	r0, r4
 8002800:	f000 fe96 	bl	8003530 <Clear_Status_Bit>
 8002804:	2300      	movs	r3, #0
 8002806:	602b      	str	r3, [r5, #0]
 8002808:	e7b8      	b.n	800277c <main+0x30>
 800280a:	2180      	movs	r1, #128	@ 0x80
 800280c:	0020      	movs	r0, r4
 800280e:	0049      	lsls	r1, r1, #1
 8002810:	f000 fe8e 	bl	8003530 <Clear_Status_Bit>
 8002814:	2180      	movs	r1, #128	@ 0x80
 8002816:	0020      	movs	r0, r4
 8002818:	0089      	lsls	r1, r1, #2
 800281a:	f000 fe85 	bl	8003528 <Set_Status_Bit>
 800281e:	2300      	movs	r3, #0
 8002820:	e7d3      	b.n	80027ca <main+0x7e>
 8002822:	46c0      	nop			@ (mov r8, r8)
 8002824:	20000c28 	.word	0x20000c28
 8002828:	20000c20 	.word	0x20000c20
 800282c:	20000c30 	.word	0x20000c30
 8002830:	20000c58 	.word	0x20000c58
 8002834:	20000c2c 	.word	0x20000c2c
 8002838:	20000428 	.word	0x20000428

0800283c <Start_PWM_Gen_Timer_Main_and_Secondary_Oscillators>:
 800283c:	b5f8      	push	{r3, r4, r5, r6, r7, lr}
 800283e:	0016      	movs	r6, r2
 8002840:	0005      	movs	r5, r0
 8002842:	000f      	movs	r7, r1
 8002844:	f003 f86a 	bl	800591c <HAL_TIM_Base_Start>
 8002848:	0039      	movs	r1, r7
 800284a:	0004      	movs	r4, r0
 800284c:	0028      	movs	r0, r5
 800284e:	f003 fb5d 	bl	8005f0c <HAL_TIM_PWM_Start>
 8002852:	0031      	movs	r1, r6
 8002854:	4304      	orrs	r4, r0
 8002856:	0028      	movs	r0, r5
 8002858:	f003 fb58 	bl	8005f0c <HAL_TIM_PWM_Start>
 800285c:	b2e4      	uxtb	r4, r4
 800285e:	4304      	orrs	r4, r0
 8002860:	b2e4      	uxtb	r4, r4
 8002862:	2c00      	cmp	r4, #0
 8002864:	d101      	bne.n	800286a <Start_PWM_Gen_Timer_Main_and_Secondary_Oscillators+0x2e>
 8002866:	0020      	movs	r0, r4
 8002868:	bdf8      	pop	{r3, r4, r5, r6, r7, pc}
 800286a:	f7fe fe83 	bl	8001574 <Error_Handler>
 800286e:	e7fa      	b.n	8002866 <Start_PWM_Gen_Timer_Main_and_Secondary_Oscillators+0x2a>

08002870 <Start_Freq_Gen_Timer>:
 8002870:	b510      	push	{r4, lr}
 8002872:	2100      	movs	r1, #0
 8002874:	4804      	ldr	r0, [pc, #16]	@ (8002888 <Start_Freq_Gen_Timer+0x18>)
 8002876:	f000 fe19 	bl	80034ac <Start_OC_TIM>
 800287a:	1e04      	subs	r4, r0, #0
 800287c:	d101      	bne.n	8002882 <Start_Freq_Gen_Timer+0x12>
 800287e:	0020      	movs	r0, r4
 8002880:	bd10      	pop	{r4, pc}
 8002882:	f7fe fe77 	bl	8001574 <Error_Handler>
 8002886:	e7fa      	b.n	800287e <Start_Freq_Gen_Timer+0xe>
 8002888:	20000904 	.word	0x20000904

0800288c <Process_TIM16_Raw_Start_Value_and_Raw_Prescaler>:
 800288c:	8902      	ldrh	r2, [r0, #8]
 800288e:	0093      	lsls	r3, r2, #2
 8002890:	189b      	adds	r3, r3, r2
 8002892:	019b      	lsls	r3, r3, #6
 8002894:	189b      	adds	r3, r3, r2
 8002896:	005b      	lsls	r3, r3, #1
 8002898:	189b      	adds	r3, r3, r2
 800289a:	0c59      	lsrs	r1, r3, #17
 800289c:	b2ca      	uxtb	r2, r1
 800289e:	01d2      	lsls	r2, r2, #7
 80028a0:	0a9b      	lsrs	r3, r3, #10
 80028a2:	1a9b      	subs	r3, r3, r2
 80028a4:	b29b      	uxth	r3, r3
 80028a6:	8243      	strh	r3, [r0, #18]
 80028a8:	22ff      	movs	r2, #255	@ 0xff
 80028aa:	2380      	movs	r3, #128	@ 0x80
 80028ac:	400a      	ands	r2, r1
 80028ae:	00db      	lsls	r3, r3, #3
 80028b0:	4113      	asrs	r3, r2
 80028b2:	b29b      	uxth	r3, r3
 80028b4:	8343      	strh	r3, [r0, #26]
 80028b6:	2001      	movs	r0, #1
 80028b8:	4770      	bx	lr
 80028ba:	46c0      	nop			@ (mov r8, r8)

080028bc <Set_Oscillator_Values>:
 80028bc:	4909      	ldr	r1, [pc, #36]	@ (80028e4 <Set_Oscillator_Values+0x28>)
 80028be:	8b03      	ldrh	r3, [r0, #24]
 80028c0:	680a      	ldr	r2, [r1, #0]
 80028c2:	b29b      	uxth	r3, r3
 80028c4:	62d3      	str	r3, [r2, #44]	@ 0x2c
 80028c6:	8b03      	ldrh	r3, [r0, #24]
 80028c8:	60cb      	str	r3, [r1, #12]
 80028ca:	8bc3      	ldrh	r3, [r0, #30]
 80028cc:	b29b      	uxth	r3, r3
 80028ce:	6293      	str	r3, [r2, #40]	@ 0x28
 80028d0:	4a05      	ldr	r2, [pc, #20]	@ (80028e8 <Set_Oscillator_Values+0x2c>)
 80028d2:	8843      	ldrh	r3, [r0, #2]
 80028d4:	6812      	ldr	r2, [r2, #0]
 80028d6:	b29b      	uxth	r3, r3
 80028d8:	6393      	str	r3, [r2, #56]	@ 0x38
 80028da:	8883      	ldrh	r3, [r0, #4]
 80028dc:	2001      	movs	r0, #1
 80028de:	b29b      	uxth	r3, r3
 80028e0:	6413      	str	r3, [r2, #64]	@ 0x40
 80028e2:	4770      	bx	lr
 80028e4:	20000904 	.word	0x20000904
 80028e8:	200006d0 	.word	0x200006d0

080028ec <Calculate_Next_Main_Oscillator_Values>:
 80028ec:	2900      	cmp	r1, #0
 80028ee:	d11e      	bne.n	800292e <Calculate_Next_Main_Oscillator_Values+0x42>
 80028f0:	89c3      	ldrh	r3, [r0, #14]
 80028f2:	3301      	adds	r3, #1
 80028f4:	b29b      	uxth	r3, r3
 80028f6:	81c3      	strh	r3, [r0, #14]
 80028f8:	2380      	movs	r3, #128	@ 0x80
 80028fa:	89c2      	ldrh	r2, [r0, #14]
 80028fc:	009b      	lsls	r3, r3, #2
 80028fe:	429a      	cmp	r2, r3
 8002900:	d053      	beq.n	80029aa <Calculate_Next_Main_Oscillator_Values+0xbe>
 8002902:	89c3      	ldrh	r3, [r0, #14]
 8002904:	b29a      	uxth	r2, r3
 8002906:	2b00      	cmp	r3, #0
 8002908:	d04c      	beq.n	80029a4 <Calculate_Next_Main_Oscillator_Values+0xb8>
 800290a:	89c3      	ldrh	r3, [r0, #14]
 800290c:	2b80      	cmp	r3, #128	@ 0x80
 800290e:	d04e      	beq.n	80029ae <Calculate_Next_Main_Oscillator_Values+0xc2>
 8002910:	2380      	movs	r3, #128	@ 0x80
 8002912:	89c2      	ldrh	r2, [r0, #14]
 8002914:	005b      	lsls	r3, r3, #1
 8002916:	429a      	cmp	r2, r3
 8002918:	d051      	beq.n	80029be <Calculate_Next_Main_Oscillator_Values+0xd2>
 800291a:	23c0      	movs	r3, #192	@ 0xc0
 800291c:	89c2      	ldrh	r2, [r0, #14]
 800291e:	005b      	lsls	r3, r3, #1
 8002920:	429a      	cmp	r2, r3
 8002922:	d108      	bne.n	8002936 <Calculate_Next_Main_Oscillator_Values+0x4a>
 8002924:	3b80      	subs	r3, #128	@ 0x80
 8002926:	3bff      	subs	r3, #255	@ 0xff
 8002928:	7443      	strb	r3, [r0, #17]
 800292a:	7403      	strb	r3, [r0, #16]
 800292c:	e003      	b.n	8002936 <Calculate_Next_Main_Oscillator_Values+0x4a>
 800292e:	2901      	cmp	r1, #1
 8002930:	d050      	beq.n	80029d4 <Calculate_Next_Main_Oscillator_Values+0xe8>
 8002932:	2902      	cmp	r1, #2
 8002934:	d032      	beq.n	800299c <Calculate_Next_Main_Oscillator_Values+0xb0>
 8002936:	7983      	ldrb	r3, [r0, #6]
 8002938:	2b00      	cmp	r3, #0
 800293a:	d117      	bne.n	800296c <Calculate_Next_Main_Oscillator_Values+0x80>
 800293c:	89c2      	ldrh	r2, [r0, #14]
 800293e:	4b2f      	ldr	r3, [pc, #188]	@ (80029fc <Calculate_Next_Main_Oscillator_Values+0x110>)
 8002940:	0052      	lsls	r2, r2, #1
 8002942:	5ad3      	ldrh	r3, [r2, r3]
 8002944:	8003      	strh	r3, [r0, #0]
 8002946:	7a83      	ldrb	r3, [r0, #10]
 8002948:	2b7f      	cmp	r3, #127	@ 0x7f
 800294a:	d01e      	beq.n	800298a <Calculate_Next_Main_Oscillator_Values+0x9e>
 800294c:	7a83      	ldrb	r3, [r0, #10]
 800294e:	2b00      	cmp	r3, #0
 8002950:	d021      	beq.n	8002996 <Calculate_Next_Main_Oscillator_Values+0xaa>
 8002952:	8803      	ldrh	r3, [r0, #0]
 8002954:	7a82      	ldrb	r2, [r0, #10]
 8002956:	435a      	muls	r2, r3
 8002958:	4b29      	ldr	r3, [pc, #164]	@ (8002a00 <Calculate_Next_Main_Oscillator_Values+0x114>)
 800295a:	09d2      	lsrs	r2, r2, #7
 800295c:	1a9b      	subs	r3, r3, r2
 800295e:	b29b      	uxth	r3, r3
 8002960:	8003      	strh	r3, [r0, #0]
 8002962:	8803      	ldrh	r3, [r0, #0]
 8002964:	b29b      	uxth	r3, r3
 8002966:	8043      	strh	r3, [r0, #2]
 8002968:	2001      	movs	r0, #1
 800296a:	4770      	bx	lr
 800296c:	7983      	ldrb	r3, [r0, #6]
 800296e:	2b01      	cmp	r3, #1
 8002970:	d02a      	beq.n	80029c8 <Calculate_Next_Main_Oscillator_Values+0xdc>
 8002972:	7983      	ldrb	r3, [r0, #6]
 8002974:	2b02      	cmp	r3, #2
 8002976:	d03a      	beq.n	80029ee <Calculate_Next_Main_Oscillator_Values+0x102>
 8002978:	7983      	ldrb	r3, [r0, #6]
 800297a:	2b02      	cmp	r3, #2
 800297c:	d1e3      	bne.n	8002946 <Calculate_Next_Main_Oscillator_Values+0x5a>
 800297e:	89c3      	ldrh	r3, [r0, #14]
 8002980:	2bff      	cmp	r3, #255	@ 0xff
 8002982:	d9e0      	bls.n	8002946 <Calculate_Next_Main_Oscillator_Values+0x5a>
 8002984:	2300      	movs	r3, #0
 8002986:	8003      	strh	r3, [r0, #0]
 8002988:	e7dd      	b.n	8002946 <Calculate_Next_Main_Oscillator_Values+0x5a>
 800298a:	8802      	ldrh	r2, [r0, #0]
 800298c:	4b1c      	ldr	r3, [pc, #112]	@ (8002a00 <Calculate_Next_Main_Oscillator_Values+0x114>)
 800298e:	1a9b      	subs	r3, r3, r2
 8002990:	b29b      	uxth	r3, r3
 8002992:	8003      	strh	r3, [r0, #0]
 8002994:	e7e5      	b.n	8002962 <Calculate_Next_Main_Oscillator_Values+0x76>
 8002996:	4b1a      	ldr	r3, [pc, #104]	@ (8002a00 <Calculate_Next_Main_Oscillator_Values+0x114>)
 8002998:	8003      	strh	r3, [r0, #0]
 800299a:	e7e2      	b.n	8002962 <Calculate_Next_Main_Oscillator_Values+0x76>
 800299c:	89c3      	ldrh	r3, [r0, #14]
 800299e:	b29a      	uxth	r2, r3
 80029a0:	2b00      	cmp	r3, #0
 80029a2:	d1c8      	bne.n	8002936 <Calculate_Next_Main_Oscillator_Values+0x4a>
 80029a4:	7442      	strb	r2, [r0, #17]
 80029a6:	7402      	strb	r2, [r0, #16]
 80029a8:	e7c5      	b.n	8002936 <Calculate_Next_Main_Oscillator_Values+0x4a>
 80029aa:	81c1      	strh	r1, [r0, #14]
 80029ac:	e7a9      	b.n	8002902 <Calculate_Next_Main_Oscillator_Values+0x16>
 80029ae:	3b7f      	subs	r3, #127	@ 0x7f
 80029b0:	7443      	strb	r3, [r0, #17]
 80029b2:	2300      	movs	r3, #0
 80029b4:	7403      	strb	r3, [r0, #16]
 80029b6:	e7be      	b.n	8002936 <Calculate_Next_Main_Oscillator_Values+0x4a>
 80029b8:	23a7      	movs	r3, #167	@ 0xa7
 80029ba:	005b      	lsls	r3, r3, #1
 80029bc:	81c3      	strh	r3, [r0, #14]
 80029be:	2300      	movs	r3, #0
 80029c0:	7443      	strb	r3, [r0, #17]
 80029c2:	3301      	adds	r3, #1
 80029c4:	7403      	strb	r3, [r0, #16]
 80029c6:	e7b6      	b.n	8002936 <Calculate_Next_Main_Oscillator_Values+0x4a>
 80029c8:	89c2      	ldrh	r2, [r0, #14]
 80029ca:	4b0e      	ldr	r3, [pc, #56]	@ (8002a04 <Calculate_Next_Main_Oscillator_Values+0x118>)
 80029cc:	0052      	lsls	r2, r2, #1
 80029ce:	5ad3      	ldrh	r3, [r2, r3]
 80029d0:	8003      	strh	r3, [r0, #0]
 80029d2:	e7b8      	b.n	8002946 <Calculate_Next_Main_Oscillator_Values+0x5a>
 80029d4:	7983      	ldrb	r3, [r0, #6]
 80029d6:	2b01      	cmp	r3, #1
 80029d8:	d0ee      	beq.n	80029b8 <Calculate_Next_Main_Oscillator_Values+0xcc>
 80029da:	7983      	ldrb	r3, [r0, #6]
 80029dc:	2b00      	cmp	r3, #0
 80029de:	d0eb      	beq.n	80029b8 <Calculate_Next_Main_Oscillator_Values+0xcc>
 80029e0:	2380      	movs	r3, #128	@ 0x80
 80029e2:	005b      	lsls	r3, r3, #1
 80029e4:	81c3      	strh	r3, [r0, #14]
 80029e6:	2300      	movs	r3, #0
 80029e8:	7443      	strb	r3, [r0, #17]
 80029ea:	7401      	strb	r1, [r0, #16]
 80029ec:	e7a3      	b.n	8002936 <Calculate_Next_Main_Oscillator_Values+0x4a>
 80029ee:	89c3      	ldrh	r3, [r0, #14]
 80029f0:	2bff      	cmp	r3, #255	@ 0xff
 80029f2:	d8c1      	bhi.n	8002978 <Calculate_Next_Main_Oscillator_Values+0x8c>
 80029f4:	4b02      	ldr	r3, [pc, #8]	@ (8002a00 <Calculate_Next_Main_Oscillator_Values+0x114>)
 80029f6:	8003      	strh	r3, [r0, #0]
 80029f8:	e7a5      	b.n	8002946 <Calculate_Next_Main_Oscillator_Values+0x5a>
 80029fa:	46c0      	nop			@ (mov r8, r8)
 80029fc:	08007eac 	.word	0x08007eac
 8002a00:	000003ff 	.word	0x000003ff
 8002a04:	080082ac 	.word	0x080082ac

08002a08 <Write_Next_Main_Oscillator_Values_to_Delay_Line>:
 8002a08:	b510      	push	{r4, lr}
 8002a0a:	4b29      	ldr	r3, [pc, #164]	@ (8002ab0 <Write_Next_Main_Oscillator_Values_to_Delay_Line+0xa8>)
 8002a0c:	5aca      	ldrh	r2, [r1, r3]
 8002a0e:	2a00      	cmp	r2, #0
 8002a10:	d026      	beq.n	8002a60 <Write_Next_Main_Oscillator_Values_to_Delay_Line+0x58>
 8002a12:	5acb      	ldrh	r3, [r1, r3]
 8002a14:	8802      	ldrh	r2, [r0, #0]
 8002a16:	3b01      	subs	r3, #1
 8002a18:	b292      	uxth	r2, r2
 8002a1a:	005b      	lsls	r3, r3, #1
 8002a1c:	525a      	strh	r2, [r3, r1]
 8002a1e:	4b24      	ldr	r3, [pc, #144]	@ (8002ab0 <Write_Next_Main_Oscillator_Values_to_Delay_Line+0xa8>)
 8002a20:	5aca      	ldrh	r2, [r1, r3]
 8002a22:	2a00      	cmp	r2, #0
 8002a24:	d125      	bne.n	8002a72 <Write_Next_Main_Oscillator_Values_to_Delay_Line+0x6a>
 8002a26:	2280      	movs	r2, #128	@ 0x80
 8002a28:	0092      	lsls	r2, r2, #2
 8002a2a:	52ca      	strh	r2, [r1, r3]
 8002a2c:	4a21      	ldr	r2, [pc, #132]	@ (8002ab4 <Write_Next_Main_Oscillator_Values_to_Delay_Line+0xac>)
 8002a2e:	5a8b      	ldrh	r3, [r1, r2]
 8002a30:	3b01      	subs	r3, #1
 8002a32:	b29b      	uxth	r3, r3
 8002a34:	528b      	strh	r3, [r1, r2]
 8002a36:	4a1e      	ldr	r2, [pc, #120]	@ (8002ab0 <Write_Next_Main_Oscillator_Values_to_Delay_Line+0xa8>)
 8002a38:	5a8b      	ldrh	r3, [r1, r2]
 8002a3a:	8c44      	ldrh	r4, [r0, #34]	@ 0x22
 8002a3c:	191b      	adds	r3, r3, r4
 8002a3e:	2480      	movs	r4, #128	@ 0x80
 8002a40:	00a4      	lsls	r4, r4, #2
 8002a42:	42a3      	cmp	r3, r4
 8002a44:	dd21      	ble.n	8002a8a <Write_Next_Main_Oscillator_Values_to_Delay_Line+0x82>
 8002a46:	5a8b      	ldrh	r3, [r1, r2]
 8002a48:	8c42      	ldrh	r2, [r0, #34]	@ 0x22
 8002a4a:	189b      	adds	r3, r3, r2
 8002a4c:	4a1a      	ldr	r2, [pc, #104]	@ (8002ab8 <Write_Next_Main_Oscillator_Values_to_Delay_Line+0xb0>)
 8002a4e:	4694      	mov	ip, r2
 8002a50:	4463      	add	r3, ip
 8002a52:	005b      	lsls	r3, r3, #1
 8002a54:	18cb      	adds	r3, r1, r3
 8002a56:	881b      	ldrh	r3, [r3, #0]
 8002a58:	b29b      	uxth	r3, r3
 8002a5a:	8083      	strh	r3, [r0, #4]
 8002a5c:	2001      	movs	r0, #1
 8002a5e:	bd10      	pop	{r4, pc}
 8002a60:	2280      	movs	r2, #128	@ 0x80
 8002a62:	8803      	ldrh	r3, [r0, #0]
 8002a64:	00d2      	lsls	r2, r2, #3
 8002a66:	b29b      	uxth	r3, r3
 8002a68:	528b      	strh	r3, [r1, r2]
 8002a6a:	4b11      	ldr	r3, [pc, #68]	@ (8002ab0 <Write_Next_Main_Oscillator_Values_to_Delay_Line+0xa8>)
 8002a6c:	5aca      	ldrh	r2, [r1, r3]
 8002a6e:	2a00      	cmp	r2, #0
 8002a70:	d0d9      	beq.n	8002a26 <Write_Next_Main_Oscillator_Values_to_Delay_Line+0x1e>
 8002a72:	4a10      	ldr	r2, [pc, #64]	@ (8002ab4 <Write_Next_Main_Oscillator_Values_to_Delay_Line+0xac>)
 8002a74:	5a8c      	ldrh	r4, [r1, r2]
 8002a76:	2c00      	cmp	r4, #0
 8002a78:	d110      	bne.n	8002a9c <Write_Next_Main_Oscillator_Values_to_Delay_Line+0x94>
 8002a7a:	2480      	movs	r4, #128	@ 0x80
 8002a7c:	00a4      	lsls	r4, r4, #2
 8002a7e:	528c      	strh	r4, [r1, r2]
 8002a80:	5aca      	ldrh	r2, [r1, r3]
 8002a82:	3a01      	subs	r2, #1
 8002a84:	b292      	uxth	r2, r2
 8002a86:	52ca      	strh	r2, [r1, r3]
 8002a88:	e7d5      	b.n	8002a36 <Write_Next_Main_Oscillator_Values_to_Delay_Line+0x2e>
 8002a8a:	5a8b      	ldrh	r3, [r1, r2]
 8002a8c:	8c42      	ldrh	r2, [r0, #34]	@ 0x22
 8002a8e:	189b      	adds	r3, r3, r2
 8002a90:	005b      	lsls	r3, r3, #1
 8002a92:	18c9      	adds	r1, r1, r3
 8002a94:	880b      	ldrh	r3, [r1, #0]
 8002a96:	b29b      	uxth	r3, r3
 8002a98:	8083      	strh	r3, [r0, #4]
 8002a9a:	e7df      	b.n	8002a5c <Write_Next_Main_Oscillator_Values_to_Delay_Line+0x54>
 8002a9c:	5acc      	ldrh	r4, [r1, r3]
 8002a9e:	3c01      	subs	r4, #1
 8002aa0:	b2a4      	uxth	r4, r4
 8002aa2:	52cc      	strh	r4, [r1, r3]
 8002aa4:	5a8b      	ldrh	r3, [r1, r2]
 8002aa6:	3b01      	subs	r3, #1
 8002aa8:	b29b      	uxth	r3, r3
 8002aaa:	528b      	strh	r3, [r1, r2]
 8002aac:	e7c3      	b.n	8002a36 <Write_Next_Main_Oscillator_Values_to_Delay_Line+0x2e>
 8002aae:	46c0      	nop			@ (mov r8, r8)
 8002ab0:	00000402 	.word	0x00000402
 8002ab4:	00000404 	.word	0x00000404
 8002ab8:	7ffffe00 	.word	0x7ffffe00

08002abc <Process_ADC_Conversion_Values>:
 8002abc:	880b      	ldrh	r3, [r1, #0]
 8002abe:	095b      	lsrs	r3, r3, #5
 8002ac0:	2b2a      	cmp	r3, #42	@ 0x2a
 8002ac2:	d813      	bhi.n	8002aec <Process_ADC_Conversion_Values+0x30>
 8002ac4:	2300      	movs	r3, #0
 8002ac6:	7183      	strb	r3, [r0, #6]
 8002ac8:	884b      	ldrh	r3, [r1, #2]
 8002aca:	095b      	lsrs	r3, r3, #5
 8002acc:	00db      	lsls	r3, r3, #3
 8002ace:	8103      	strh	r3, [r0, #8]
 8002ad0:	888b      	ldrh	r3, [r1, #4]
 8002ad2:	095b      	lsrs	r3, r3, #5
 8002ad4:	b2db      	uxtb	r3, r3
 8002ad6:	7283      	strb	r3, [r0, #10]
 8002ad8:	88cb      	ldrh	r3, [r1, #6]
 8002ada:	095b      	lsrs	r3, r3, #5
 8002adc:	005b      	lsls	r3, r3, #1
 8002ade:	8183      	strh	r3, [r0, #12]
 8002ae0:	890b      	ldrh	r3, [r1, #8]
 8002ae2:	095b      	lsrs	r3, r3, #5
 8002ae4:	009b      	lsls	r3, r3, #2
 8002ae6:	8443      	strh	r3, [r0, #34]	@ 0x22
 8002ae8:	2001      	movs	r0, #1
 8002aea:	4770      	bx	lr
 8002aec:	2b55      	cmp	r3, #85	@ 0x55
 8002aee:	d802      	bhi.n	8002af6 <Process_ADC_Conversion_Values+0x3a>
 8002af0:	2301      	movs	r3, #1
 8002af2:	7183      	strb	r3, [r0, #6]
 8002af4:	e7e8      	b.n	8002ac8 <Process_ADC_Conversion_Values+0xc>
 8002af6:	2b7f      	cmp	r3, #127	@ 0x7f
 8002af8:	d8e6      	bhi.n	8002ac8 <Process_ADC_Conversion_Values+0xc>
 8002afa:	2302      	movs	r3, #2
 8002afc:	7183      	strb	r3, [r0, #6]
 8002afe:	e7e3      	b.n	8002ac8 <Process_ADC_Conversion_Values+0xc>

08002b00 <Startup>:
 8002b00:	b590      	push	{r4, r7, lr}
 8002b02:	b085      	sub	sp, #20
 8002b04:	af02      	add	r7, sp, #8
 8002b06:	2007      	movs	r0, #7
 8002b08:	f001 fb32 	bl	8004170 <HAL_NVIC_DisableIRQ>
 8002b0c:	4b56      	ldr	r3, [pc, #344]	@ (8002c68 <Startup+0x168>)
 8002b0e:	681b      	ldr	r3, [r3, #0]
 8002b10:	68da      	ldr	r2, [r3, #12]
 8002b12:	4b55      	ldr	r3, [pc, #340]	@ (8002c68 <Startup+0x168>)
 8002b14:	681b      	ldr	r3, [r3, #0]
 8002b16:	2101      	movs	r1, #1
 8002b18:	430a      	orrs	r2, r1
 8002b1a:	60da      	str	r2, [r3, #12]
 8002b1c:	4b53      	ldr	r3, [pc, #332]	@ (8002c6c <Startup+0x16c>)
 8002b1e:	681b      	ldr	r3, [r3, #0]
 8002b20:	68da      	ldr	r2, [r3, #12]
 8002b22:	4b52      	ldr	r3, [pc, #328]	@ (8002c6c <Startup+0x16c>)
 8002b24:	681b      	ldr	r3, [r3, #0]
 8002b26:	2101      	movs	r1, #1
 8002b28:	430a      	orrs	r2, r1
 8002b2a:	60da      	str	r2, [r3, #12]
 8002b2c:	2380      	movs	r3, #128	@ 0x80
 8002b2e:	0099      	lsls	r1, r3, #2
 8002b30:	23a0      	movs	r3, #160	@ 0xa0
 8002b32:	05db      	lsls	r3, r3, #23
 8002b34:	2201      	movs	r2, #1
 8002b36:	0018      	movs	r0, r3
 8002b38:	f001 feac 	bl	8004894 <HAL_GPIO_WritePin>
 8002b3c:	2380      	movs	r3, #128	@ 0x80
 8002b3e:	0159      	lsls	r1, r3, #5
 8002b40:	23a0      	movs	r3, #160	@ 0xa0
 8002b42:	05db      	lsls	r3, r3, #23
 8002b44:	2201      	movs	r2, #1
 8002b46:	0018      	movs	r0, r3
 8002b48:	f001 fea4 	bl	8004894 <HAL_GPIO_WritePin>
 8002b4c:	23a0      	movs	r3, #160	@ 0xa0
 8002b4e:	05db      	lsls	r3, r3, #23
 8002b50:	2200      	movs	r2, #0
 8002b52:	2180      	movs	r1, #128	@ 0x80
 8002b54:	0018      	movs	r0, r3
 8002b56:	f001 fe9d 	bl	8004894 <HAL_GPIO_WritePin>
 8002b5a:	f7fd fc75 	bl	8000448 <Initialise_Preset_Arrays>
 8002b5e:	f7fd fe1b 	bl	8000798 <Read_and_Interpret_User_Presets_From_Flash>
 8002b62:	4b43      	ldr	r3, [pc, #268]	@ (8002c70 <Startup+0x170>)
 8002b64:	4a43      	ldr	r2, [pc, #268]	@ (8002c74 <Startup+0x174>)
 8002b66:	4944      	ldr	r1, [pc, #272]	@ (8002c78 <Startup+0x178>)
 8002b68:	4c44      	ldr	r4, [pc, #272]	@ (8002c7c <Startup+0x17c>)
 8002b6a:	2004      	movs	r0, #4
 8002b6c:	9000      	str	r0, [sp, #0]
 8002b6e:	0020      	movs	r0, r4
 8002b70:	f7fd fd72 	bl	8000658 <Read_and_Interpret_Misc_From_Flash>
 8002b74:	4b42      	ldr	r3, [pc, #264]	@ (8002c80 <Startup+0x180>)
 8002b76:	4a43      	ldr	r2, [pc, #268]	@ (8002c84 <Startup+0x184>)
 8002b78:	493f      	ldr	r1, [pc, #252]	@ (8002c78 <Startup+0x178>)
 8002b7a:	4843      	ldr	r0, [pc, #268]	@ (8002c88 <Startup+0x188>)
 8002b7c:	2404      	movs	r4, #4
 8002b7e:	9400      	str	r4, [sp, #0]
 8002b80:	f7fd fdde 	bl	8000740 <Update_Converted_Preset_Array_with_User_or_Factory_Presets>
 8002b84:	4b41      	ldr	r3, [pc, #260]	@ (8002c8c <Startup+0x18c>)
 8002b86:	781b      	ldrb	r3, [r3, #0]
 8002b88:	001a      	movs	r2, r3
 8002b8a:	4941      	ldr	r1, [pc, #260]	@ (8002c90 <Startup+0x190>)
 8002b8c:	4b41      	ldr	r3, [pc, #260]	@ (8002c94 <Startup+0x194>)
 8002b8e:	0018      	movs	r0, r3
 8002b90:	f001 f900 	bl	8003d94 <HAL_ADC_Start_DMA>
 8002b94:	46c0      	nop			@ (mov r8, r8)
 8002b96:	4b37      	ldr	r3, [pc, #220]	@ (8002c74 <Startup+0x174>)
 8002b98:	2110      	movs	r1, #16
 8002b9a:	0018      	movs	r0, r3
 8002b9c:	f000 fcbe 	bl	800351c <Get_Status_Bit>
 8002ba0:	1e03      	subs	r3, r0, #0
 8002ba2:	d0f8      	beq.n	8002b96 <Startup+0x96>
 8002ba4:	1dbb      	adds	r3, r7, #6
 8002ba6:	2200      	movs	r2, #0
 8002ba8:	801a      	strh	r2, [r3, #0]
 8002baa:	e02c      	b.n	8002c06 <Startup+0x106>
 8002bac:	4b3a      	ldr	r3, [pc, #232]	@ (8002c98 <Startup+0x198>)
 8002bae:	799b      	ldrb	r3, [r3, #6]
 8002bb0:	b2db      	uxtb	r3, r3
 8002bb2:	2b02      	cmp	r3, #2
 8002bb4:	d111      	bne.n	8002bda <Startup+0xda>
 8002bb6:	4b38      	ldr	r3, [pc, #224]	@ (8002c98 <Startup+0x198>)
 8002bb8:	7a9b      	ldrb	r3, [r3, #10]
 8002bba:	b2db      	uxtb	r3, r3
 8002bbc:	001a      	movs	r2, r3
 8002bbe:	0013      	movs	r3, r2
 8002bc0:	029b      	lsls	r3, r3, #10
 8002bc2:	1a9b      	subs	r3, r3, r2
 8002bc4:	11db      	asrs	r3, r3, #7
 8002bc6:	b29b      	uxth	r3, r3
 8002bc8:	1dba      	adds	r2, r7, #6
 8002bca:	8812      	ldrh	r2, [r2, #0]
 8002bcc:	4933      	ldr	r1, [pc, #204]	@ (8002c9c <Startup+0x19c>)
 8002bce:	1acb      	subs	r3, r1, r3
 8002bd0:	b299      	uxth	r1, r3
 8002bd2:	4b33      	ldr	r3, [pc, #204]	@ (8002ca0 <Startup+0x1a0>)
 8002bd4:	0052      	lsls	r2, r2, #1
 8002bd6:	52d1      	strh	r1, [r2, r3]
 8002bd8:	e010      	b.n	8002bfc <Startup+0xfc>
 8002bda:	4b2f      	ldr	r3, [pc, #188]	@ (8002c98 <Startup+0x198>)
 8002bdc:	7a9b      	ldrb	r3, [r3, #10]
 8002bde:	b2db      	uxtb	r3, r3
 8002be0:	001a      	movs	r2, r3
 8002be2:	0013      	movs	r3, r2
 8002be4:	029b      	lsls	r3, r3, #10
 8002be6:	1a9b      	subs	r3, r3, r2
 8002be8:	121b      	asrs	r3, r3, #8
 8002bea:	b29b      	uxth	r3, r3
 8002bec:	1dba      	adds	r2, r7, #6
 8002bee:	8812      	ldrh	r2, [r2, #0]
 8002bf0:	492a      	ldr	r1, [pc, #168]	@ (8002c9c <Startup+0x19c>)
 8002bf2:	1acb      	subs	r3, r1, r3
 8002bf4:	b299      	uxth	r1, r3
 8002bf6:	4b2a      	ldr	r3, [pc, #168]	@ (8002ca0 <Startup+0x1a0>)
 8002bf8:	0052      	lsls	r2, r2, #1
 8002bfa:	52d1      	strh	r1, [r2, r3]
 8002bfc:	1dbb      	adds	r3, r7, #6
 8002bfe:	881a      	ldrh	r2, [r3, #0]
 8002c00:	1dbb      	adds	r3, r7, #6
 8002c02:	3201      	adds	r2, #1
 8002c04:	801a      	strh	r2, [r3, #0]
 8002c06:	1dbb      	adds	r3, r7, #6
 8002c08:	881a      	ldrh	r2, [r3, #0]
 8002c0a:	2380      	movs	r3, #128	@ 0x80
 8002c0c:	009b      	lsls	r3, r3, #2
 8002c0e:	429a      	cmp	r2, r3
 8002c10:	d9cc      	bls.n	8002bac <Startup+0xac>
 8002c12:	4b21      	ldr	r3, [pc, #132]	@ (8002c98 <Startup+0x198>)
 8002c14:	2102      	movs	r1, #2
 8002c16:	0018      	movs	r0, r3
 8002c18:	f7ff fe68 	bl	80028ec <Calculate_Next_Main_Oscillator_Values>
 8002c1c:	4a20      	ldr	r2, [pc, #128]	@ (8002ca0 <Startup+0x1a0>)
 8002c1e:	4b1e      	ldr	r3, [pc, #120]	@ (8002c98 <Startup+0x198>)
 8002c20:	0011      	movs	r1, r2
 8002c22:	0018      	movs	r0, r3
 8002c24:	f7ff fef0 	bl	8002a08 <Write_Next_Main_Oscillator_Values_to_Delay_Line>
 8002c28:	4b1b      	ldr	r3, [pc, #108]	@ (8002c98 <Startup+0x198>)
 8002c2a:	0018      	movs	r0, r3
 8002c2c:	f7ff fe46 	bl	80028bc <Set_Oscillator_Values>
 8002c30:	4b1c      	ldr	r3, [pc, #112]	@ (8002ca4 <Startup+0x1a4>)
 8002c32:	220c      	movs	r2, #12
 8002c34:	2104      	movs	r1, #4
 8002c36:	0018      	movs	r0, r3
 8002c38:	f7ff fe00 	bl	800283c <Start_PWM_Gen_Timer_Main_and_Secondary_Oscillators>
 8002c3c:	f7ff fe18 	bl	8002870 <Start_Freq_Gen_Timer>
 8002c40:	f7fe f826 	bl	8000c90 <Start_UART_Receive>
 8002c44:	f7ff fd40 	bl	80026c8 <Start_Input_Capture_Timer>
 8002c48:	f000 fc64 	bl	8003514 <Global_Interrupt_Enable>
 8002c4c:	4b16      	ldr	r3, [pc, #88]	@ (8002ca8 <Startup+0x1a8>)
 8002c4e:	22fa      	movs	r2, #250	@ 0xfa
 8002c50:	21fa      	movs	r1, #250	@ 0xfa
 8002c52:	0018      	movs	r0, r3
 8002c54:	f002 f856 	bl	8004d04 <HAL_LPTIM_SetOnce_Start_IT>
 8002c58:	2007      	movs	r0, #7
 8002c5a:	f001 fa7d 	bl	8004158 <HAL_NVIC_EnableIRQ>
 8002c5e:	2301      	movs	r3, #1
 8002c60:	0018      	movs	r0, r3
 8002c62:	46bd      	mov	sp, r7
 8002c64:	b003      	add	sp, #12
 8002c66:	bd90      	pop	{r4, r7, pc}
 8002c68:	20000848 	.word	0x20000848
 8002c6c:	20000904 	.word	0x20000904
 8002c70:	200004d0 	.word	0x200004d0
 8002c74:	20000c30 	.word	0x20000c30
 8002c78:	20000474 	.word	0x20000474
 8002c7c:	0800f820 	.word	0x0800f820
 8002c80:	200004a4 	.word	0x200004a4
 8002c84:	200004b4 	.word	0x200004b4
 8002c88:	2000047c 	.word	0x2000047c
 8002c8c:	08007ea8 	.word	0x08007ea8
 8002c90:	20000cc4 	.word	0x20000cc4
 8002c94:	20000b94 	.word	0x20000b94
 8002c98:	20000ca0 	.word	0x20000ca0
 8002c9c:	000003ff 	.word	0x000003ff
 8002ca0:	20000020 	.word	0x20000020
 8002ca4:	200006d0 	.word	0x200006d0
 8002ca8:	200004f0 	.word	0x200004f0

08002cac <Advance_Pending_States>:
 8002cac:	4b09      	ldr	r3, [pc, #36]	@ (8002cd4 <Advance_Pending_States+0x28>)
 8002cae:	781a      	ldrb	r2, [r3, #0]
 8002cb0:	7819      	ldrb	r1, [r3, #0]
 8002cb2:	b2d2      	uxtb	r2, r2
 8002cb4:	2905      	cmp	r1, #5
 8002cb6:	d00a      	beq.n	8002cce <Advance_Pending_States+0x22>
 8002cb8:	7819      	ldrb	r1, [r3, #0]
 8002cba:	2907      	cmp	r1, #7
 8002cbc:	d007      	beq.n	8002cce <Advance_Pending_States+0x22>
 8002cbe:	2102      	movs	r1, #2
 8002cc0:	0010      	movs	r0, r2
 8002cc2:	4388      	bics	r0, r1
 8002cc4:	2804      	cmp	r0, #4
 8002cc6:	d000      	beq.n	8002cca <Advance_Pending_States+0x1e>
 8002cc8:	705a      	strb	r2, [r3, #1]
 8002cca:	2001      	movs	r0, #1
 8002ccc:	4770      	bx	lr
 8002cce:	3901      	subs	r1, #1
 8002cd0:	7019      	strb	r1, [r3, #0]
 8002cd2:	e7f4      	b.n	8002cbe <Advance_Pending_States+0x12>
 8002cd4:	2000043c 	.word	0x2000043c

08002cd8 <HAL_MspInit>:
 8002cd8:	2201      	movs	r2, #1
 8002cda:	4b0a      	ldr	r3, [pc, #40]	@ (8002d04 <HAL_MspInit+0x2c>)
 8002cdc:	b082      	sub	sp, #8
 8002cde:	6c19      	ldr	r1, [r3, #64]	@ 0x40
 8002ce0:	4311      	orrs	r1, r2
 8002ce2:	6419      	str	r1, [r3, #64]	@ 0x40
 8002ce4:	6c19      	ldr	r1, [r3, #64]	@ 0x40
 8002ce6:	400a      	ands	r2, r1
 8002ce8:	2180      	movs	r1, #128	@ 0x80
 8002cea:	9200      	str	r2, [sp, #0]
 8002cec:	9a00      	ldr	r2, [sp, #0]
 8002cee:	6bda      	ldr	r2, [r3, #60]	@ 0x3c
 8002cf0:	0549      	lsls	r1, r1, #21
 8002cf2:	430a      	orrs	r2, r1
 8002cf4:	63da      	str	r2, [r3, #60]	@ 0x3c
 8002cf6:	6bdb      	ldr	r3, [r3, #60]	@ 0x3c
 8002cf8:	400b      	ands	r3, r1
 8002cfa:	9301      	str	r3, [sp, #4]
 8002cfc:	9b01      	ldr	r3, [sp, #4]
 8002cfe:	b002      	add	sp, #8
 8002d00:	4770      	bx	lr
 8002d02:	46c0      	nop			@ (mov r8, r8)
 8002d04:	40021000 	.word	0x40021000

08002d08 <HAL_ADC_MspInit>:
 8002d08:	b530      	push	{r4, r5, lr}
 8002d0a:	0004      	movs	r4, r0
 8002d0c:	b089      	sub	sp, #36	@ 0x24
 8002d0e:	2214      	movs	r2, #20
 8002d10:	2100      	movs	r1, #0
 8002d12:	a802      	add	r0, sp, #8
 8002d14:	f005 f86c 	bl	8007df0 <memset>
 8002d18:	4b1f      	ldr	r3, [pc, #124]	@ (8002d98 <HAL_ADC_MspInit+0x90>)
 8002d1a:	6822      	ldr	r2, [r4, #0]
 8002d1c:	429a      	cmp	r2, r3
 8002d1e:	d001      	beq.n	8002d24 <HAL_ADC_MspInit+0x1c>
 8002d20:	b009      	add	sp, #36	@ 0x24
 8002d22:	bd30      	pop	{r4, r5, pc}
 8002d24:	2180      	movs	r1, #128	@ 0x80
 8002d26:	4b1d      	ldr	r3, [pc, #116]	@ (8002d9c <HAL_ADC_MspInit+0x94>)
 8002d28:	0349      	lsls	r1, r1, #13
 8002d2a:	6c1a      	ldr	r2, [r3, #64]	@ 0x40
 8002d2c:	20a0      	movs	r0, #160	@ 0xa0
 8002d2e:	430a      	orrs	r2, r1
 8002d30:	641a      	str	r2, [r3, #64]	@ 0x40
 8002d32:	6c1a      	ldr	r2, [r3, #64]	@ 0x40
 8002d34:	05c0      	lsls	r0, r0, #23
 8002d36:	400a      	ands	r2, r1
 8002d38:	9200      	str	r2, [sp, #0]
 8002d3a:	9a00      	ldr	r2, [sp, #0]
 8002d3c:	2201      	movs	r2, #1
 8002d3e:	6b59      	ldr	r1, [r3, #52]	@ 0x34
 8002d40:	4311      	orrs	r1, r2
 8002d42:	6359      	str	r1, [r3, #52]	@ 0x34
 8002d44:	6b5b      	ldr	r3, [r3, #52]	@ 0x34
 8002d46:	a902      	add	r1, sp, #8
 8002d48:	401a      	ands	r2, r3
 8002d4a:	9201      	str	r2, [sp, #4]
 8002d4c:	9b01      	ldr	r3, [sp, #4]
 8002d4e:	2273      	movs	r2, #115	@ 0x73
 8002d50:	2303      	movs	r3, #3
 8002d52:	9202      	str	r2, [sp, #8]
 8002d54:	9303      	str	r3, [sp, #12]
 8002d56:	f001 fbe7 	bl	8004528 <HAL_GPIO_Init>
 8002d5a:	4d11      	ldr	r5, [pc, #68]	@ (8002da0 <HAL_ADC_MspInit+0x98>)
 8002d5c:	4b11      	ldr	r3, [pc, #68]	@ (8002da4 <HAL_ADC_MspInit+0x9c>)
 8002d5e:	2280      	movs	r2, #128	@ 0x80
 8002d60:	602b      	str	r3, [r5, #0]
 8002d62:	2305      	movs	r3, #5
 8002d64:	606b      	str	r3, [r5, #4]
 8002d66:	2300      	movs	r3, #0
 8002d68:	612a      	str	r2, [r5, #16]
 8002d6a:	3280      	adds	r2, #128	@ 0x80
 8002d6c:	60ab      	str	r3, [r5, #8]
 8002d6e:	60eb      	str	r3, [r5, #12]
 8002d70:	616a      	str	r2, [r5, #20]
 8002d72:	61eb      	str	r3, [r5, #28]
 8002d74:	2280      	movs	r2, #128	@ 0x80
 8002d76:	2380      	movs	r3, #128	@ 0x80
 8002d78:	00d2      	lsls	r2, r2, #3
 8002d7a:	019b      	lsls	r3, r3, #6
 8002d7c:	0028      	movs	r0, r5
 8002d7e:	61aa      	str	r2, [r5, #24]
 8002d80:	622b      	str	r3, [r5, #32]
 8002d82:	f001 fa1f 	bl	80041c4 <HAL_DMA_Init>
 8002d86:	2800      	cmp	r0, #0
 8002d88:	d102      	bne.n	8002d90 <HAL_ADC_MspInit+0x88>
 8002d8a:	6525      	str	r5, [r4, #80]	@ 0x50
 8002d8c:	62ac      	str	r4, [r5, #40]	@ 0x28
 8002d8e:	e7c7      	b.n	8002d20 <HAL_ADC_MspInit+0x18>
 8002d90:	f7fe fbf0 	bl	8001574 <Error_Handler>
 8002d94:	e7f9      	b.n	8002d8a <HAL_ADC_MspInit+0x82>
 8002d96:	46c0      	nop			@ (mov r8, r8)
 8002d98:	40012400 	.word	0x40012400
 8002d9c:	40021000 	.word	0x40021000
 8002da0:	20000b38 	.word	0x20000b38
 8002da4:	40020008 	.word	0x40020008

08002da8 <HAL_LPTIM_MspInit>:
 8002da8:	b510      	push	{r4, lr}
 8002daa:	0004      	movs	r4, r0
 8002dac:	b094      	sub	sp, #80	@ 0x50
 8002dae:	2214      	movs	r2, #20
 8002db0:	2100      	movs	r1, #0
 8002db2:	a804      	add	r0, sp, #16
 8002db4:	f005 f81c 	bl	8007df0 <memset>
 8002db8:	2228      	movs	r2, #40	@ 0x28
 8002dba:	2100      	movs	r1, #0
 8002dbc:	a80a      	add	r0, sp, #40	@ 0x28
 8002dbe:	f005 f817 	bl	8007df0 <memset>
 8002dc2:	6823      	ldr	r3, [r4, #0]
 8002dc4:	4a31      	ldr	r2, [pc, #196]	@ (8002e8c <HAL_LPTIM_MspInit+0xe4>)
 8002dc6:	4293      	cmp	r3, r2
 8002dc8:	d004      	beq.n	8002dd4 <HAL_LPTIM_MspInit+0x2c>
 8002dca:	4a31      	ldr	r2, [pc, #196]	@ (8002e90 <HAL_LPTIM_MspInit+0xe8>)
 8002dcc:	4293      	cmp	r3, r2
 8002dce:	d02b      	beq.n	8002e28 <HAL_LPTIM_MspInit+0x80>
 8002dd0:	b014      	add	sp, #80	@ 0x50
 8002dd2:	bd10      	pop	{r4, pc}
 8002dd4:	2380      	movs	r3, #128	@ 0x80
 8002dd6:	a80a      	add	r0, sp, #40	@ 0x28
 8002dd8:	009b      	lsls	r3, r3, #2
 8002dda:	930a      	str	r3, [sp, #40]	@ 0x28
 8002ddc:	f002 fbb8 	bl	8005550 <HAL_RCCEx_PeriphCLKConfig>
 8002de0:	2800      	cmp	r0, #0
 8002de2:	d14c      	bne.n	8002e7e <HAL_LPTIM_MspInit+0xd6>
 8002de4:	2280      	movs	r2, #128	@ 0x80
 8002de6:	4b2b      	ldr	r3, [pc, #172]	@ (8002e94 <HAL_LPTIM_MspInit+0xec>)
 8002de8:	0612      	lsls	r2, r2, #24
 8002dea:	6bd9      	ldr	r1, [r3, #60]	@ 0x3c
 8002dec:	482a      	ldr	r0, [pc, #168]	@ (8002e98 <HAL_LPTIM_MspInit+0xf0>)
 8002dee:	430a      	orrs	r2, r1
 8002df0:	63da      	str	r2, [r3, #60]	@ 0x3c
 8002df2:	6bda      	ldr	r2, [r3, #60]	@ 0x3c
 8002df4:	0fd2      	lsrs	r2, r2, #31
 8002df6:	07d2      	lsls	r2, r2, #31
 8002df8:	9200      	str	r2, [sp, #0]
 8002dfa:	9a00      	ldr	r2, [sp, #0]
 8002dfc:	2202      	movs	r2, #2
 8002dfe:	6b59      	ldr	r1, [r3, #52]	@ 0x34
 8002e00:	4311      	orrs	r1, r2
 8002e02:	6359      	str	r1, [r3, #52]	@ 0x34
 8002e04:	6b5b      	ldr	r3, [r3, #52]	@ 0x34
 8002e06:	a904      	add	r1, sp, #16
 8002e08:	401a      	ands	r2, r3
 8002e0a:	9201      	str	r2, [sp, #4]
 8002e0c:	9b01      	ldr	r3, [sp, #4]
 8002e0e:	2201      	movs	r2, #1
 8002e10:	2302      	movs	r3, #2
 8002e12:	9204      	str	r2, [sp, #16]
 8002e14:	9305      	str	r3, [sp, #20]
 8002e16:	2200      	movs	r2, #0
 8002e18:	2300      	movs	r3, #0
 8002e1a:	9206      	str	r2, [sp, #24]
 8002e1c:	9307      	str	r3, [sp, #28]
 8002e1e:	2305      	movs	r3, #5
 8002e20:	9308      	str	r3, [sp, #32]
 8002e22:	f001 fb81 	bl	8004528 <HAL_GPIO_Init>
 8002e26:	e7d3      	b.n	8002dd0 <HAL_LPTIM_MspInit+0x28>
 8002e28:	2380      	movs	r3, #128	@ 0x80
 8002e2a:	a80a      	add	r0, sp, #40	@ 0x28
 8002e2c:	00db      	lsls	r3, r3, #3
 8002e2e:	930a      	str	r3, [sp, #40]	@ 0x28
 8002e30:	f002 fb8e 	bl	8005550 <HAL_RCCEx_PeriphCLKConfig>
 8002e34:	2800      	cmp	r0, #0
 8002e36:	d125      	bne.n	8002e84 <HAL_LPTIM_MspInit+0xdc>
 8002e38:	2180      	movs	r1, #128	@ 0x80
 8002e3a:	4b16      	ldr	r3, [pc, #88]	@ (8002e94 <HAL_LPTIM_MspInit+0xec>)
 8002e3c:	05c9      	lsls	r1, r1, #23
 8002e3e:	6bda      	ldr	r2, [r3, #60]	@ 0x3c
 8002e40:	20a0      	movs	r0, #160	@ 0xa0
 8002e42:	430a      	orrs	r2, r1
 8002e44:	63da      	str	r2, [r3, #60]	@ 0x3c
 8002e46:	6bda      	ldr	r2, [r3, #60]	@ 0x3c
 8002e48:	05c0      	lsls	r0, r0, #23
 8002e4a:	400a      	ands	r2, r1
 8002e4c:	9202      	str	r2, [sp, #8]
 8002e4e:	9a02      	ldr	r2, [sp, #8]
 8002e50:	2201      	movs	r2, #1
 8002e52:	6b59      	ldr	r1, [r3, #52]	@ 0x34
 8002e54:	4311      	orrs	r1, r2
 8002e56:	6359      	str	r1, [r3, #52]	@ 0x34
 8002e58:	6b5b      	ldr	r3, [r3, #52]	@ 0x34
 8002e5a:	a904      	add	r1, sp, #16
 8002e5c:	401a      	ands	r2, r3
 8002e5e:	9203      	str	r2, [sp, #12]
 8002e60:	2280      	movs	r2, #128	@ 0x80
 8002e62:	9b03      	ldr	r3, [sp, #12]
 8002e64:	2302      	movs	r3, #2
 8002e66:	0052      	lsls	r2, r2, #1
 8002e68:	9204      	str	r2, [sp, #16]
 8002e6a:	9305      	str	r3, [sp, #20]
 8002e6c:	2200      	movs	r2, #0
 8002e6e:	2300      	movs	r3, #0
 8002e70:	9206      	str	r2, [sp, #24]
 8002e72:	9307      	str	r3, [sp, #28]
 8002e74:	2305      	movs	r3, #5
 8002e76:	9308      	str	r3, [sp, #32]
 8002e78:	f001 fb56 	bl	8004528 <HAL_GPIO_Init>
 8002e7c:	e7a8      	b.n	8002dd0 <HAL_LPTIM_MspInit+0x28>
 8002e7e:	f7fe fb79 	bl	8001574 <Error_Handler>
 8002e82:	e7af      	b.n	8002de4 <HAL_LPTIM_MspInit+0x3c>
 8002e84:	f7fe fb76 	bl	8001574 <Error_Handler>
 8002e88:	e7d6      	b.n	8002e38 <HAL_LPTIM_MspInit+0x90>
 8002e8a:	46c0      	nop			@ (mov r8, r8)
 8002e8c:	40007c00 	.word	0x40007c00
 8002e90:	40009400 	.word	0x40009400
 8002e94:	40021000 	.word	0x40021000
 8002e98:	50000400 	.word	0x50000400

08002e9c <HAL_TIM_Base_MspInit>:
 8002e9c:	b510      	push	{r4, lr}
 8002e9e:	0004      	movs	r4, r0
 8002ea0:	b098      	sub	sp, #96	@ 0x60
 8002ea2:	2214      	movs	r2, #20
 8002ea4:	2100      	movs	r1, #0
 8002ea6:	a808      	add	r0, sp, #32
 8002ea8:	f004 ffa2 	bl	8007df0 <memset>
 8002eac:	2228      	movs	r2, #40	@ 0x28
 8002eae:	2100      	movs	r1, #0
 8002eb0:	a80e      	add	r0, sp, #56	@ 0x38
 8002eb2:	f004 ff9d 	bl	8007df0 <memset>
 8002eb6:	6823      	ldr	r3, [r4, #0]
 8002eb8:	4a4e      	ldr	r2, [pc, #312]	@ (8002ff4 <HAL_TIM_Base_MspInit+0x158>)
 8002eba:	4293      	cmp	r3, r2
 8002ebc:	d025      	beq.n	8002f0a <HAL_TIM_Base_MspInit+0x6e>
 8002ebe:	2280      	movs	r2, #128	@ 0x80
 8002ec0:	05d2      	lsls	r2, r2, #23
 8002ec2:	4293      	cmp	r3, r2
 8002ec4:	d034      	beq.n	8002f30 <HAL_TIM_Base_MspInit+0x94>
 8002ec6:	4a4c      	ldr	r2, [pc, #304]	@ (8002ff8 <HAL_TIM_Base_MspInit+0x15c>)
 8002ec8:	4293      	cmp	r3, r2
 8002eca:	d057      	beq.n	8002f7c <HAL_TIM_Base_MspInit+0xe0>
 8002ecc:	4a4b      	ldr	r2, [pc, #300]	@ (8002ffc <HAL_TIM_Base_MspInit+0x160>)
 8002ece:	4293      	cmp	r3, r2
 8002ed0:	d008      	beq.n	8002ee4 <HAL_TIM_Base_MspInit+0x48>
 8002ed2:	4a4b      	ldr	r2, [pc, #300]	@ (8003000 <HAL_TIM_Base_MspInit+0x164>)
 8002ed4:	4293      	cmp	r3, r2
 8002ed6:	d063      	beq.n	8002fa0 <HAL_TIM_Base_MspInit+0x104>
 8002ed8:	4a4a      	ldr	r2, [pc, #296]	@ (8003004 <HAL_TIM_Base_MspInit+0x168>)
 8002eda:	4293      	cmp	r3, r2
 8002edc:	d100      	bne.n	8002ee0 <HAL_TIM_Base_MspInit+0x44>
 8002ede:	e072      	b.n	8002fc6 <HAL_TIM_Base_MspInit+0x12a>
 8002ee0:	b018      	add	sp, #96	@ 0x60
 8002ee2:	bd10      	pop	{r4, pc}
 8002ee4:	2180      	movs	r1, #128	@ 0x80
 8002ee6:	4b48      	ldr	r3, [pc, #288]	@ (8003008 <HAL_TIM_Base_MspInit+0x16c>)
 8002ee8:	0289      	lsls	r1, r1, #10
 8002eea:	6c1a      	ldr	r2, [r3, #64]	@ 0x40
 8002eec:	2015      	movs	r0, #21
 8002eee:	430a      	orrs	r2, r1
 8002ef0:	641a      	str	r2, [r3, #64]	@ 0x40
 8002ef2:	6c1b      	ldr	r3, [r3, #64]	@ 0x40
 8002ef4:	2200      	movs	r2, #0
 8002ef6:	400b      	ands	r3, r1
 8002ef8:	9305      	str	r3, [sp, #20]
 8002efa:	2100      	movs	r1, #0
 8002efc:	9b05      	ldr	r3, [sp, #20]
 8002efe:	f001 f901 	bl	8004104 <HAL_NVIC_SetPriority>
 8002f02:	2015      	movs	r0, #21
 8002f04:	f001 f928 	bl	8004158 <HAL_NVIC_EnableIRQ>
 8002f08:	e7ea      	b.n	8002ee0 <HAL_TIM_Base_MspInit+0x44>
 8002f0a:	2380      	movs	r3, #128	@ 0x80
 8002f0c:	a80e      	add	r0, sp, #56	@ 0x38
 8002f0e:	039b      	lsls	r3, r3, #14
 8002f10:	930e      	str	r3, [sp, #56]	@ 0x38
 8002f12:	f002 fb1d 	bl	8005550 <HAL_RCCEx_PeriphCLKConfig>
 8002f16:	2800      	cmp	r0, #0
 8002f18:	d168      	bne.n	8002fec <HAL_TIM_Base_MspInit+0x150>
 8002f1a:	2180      	movs	r1, #128	@ 0x80
 8002f1c:	4b3a      	ldr	r3, [pc, #232]	@ (8003008 <HAL_TIM_Base_MspInit+0x16c>)
 8002f1e:	0109      	lsls	r1, r1, #4
 8002f20:	6c1a      	ldr	r2, [r3, #64]	@ 0x40
 8002f22:	430a      	orrs	r2, r1
 8002f24:	641a      	str	r2, [r3, #64]	@ 0x40
 8002f26:	6c1b      	ldr	r3, [r3, #64]	@ 0x40
 8002f28:	400b      	ands	r3, r1
 8002f2a:	9301      	str	r3, [sp, #4]
 8002f2c:	9b01      	ldr	r3, [sp, #4]
 8002f2e:	e7d7      	b.n	8002ee0 <HAL_TIM_Base_MspInit+0x44>
 8002f30:	2201      	movs	r2, #1
 8002f32:	4b35      	ldr	r3, [pc, #212]	@ (8003008 <HAL_TIM_Base_MspInit+0x16c>)
 8002f34:	2080      	movs	r0, #128	@ 0x80
 8002f36:	6bd9      	ldr	r1, [r3, #60]	@ 0x3c
 8002f38:	0200      	lsls	r0, r0, #8
 8002f3a:	4311      	orrs	r1, r2
 8002f3c:	63d9      	str	r1, [r3, #60]	@ 0x3c
 8002f3e:	6bd9      	ldr	r1, [r3, #60]	@ 0x3c
 8002f40:	4011      	ands	r1, r2
 8002f42:	9102      	str	r1, [sp, #8]
 8002f44:	9902      	ldr	r1, [sp, #8]
 8002f46:	6b59      	ldr	r1, [r3, #52]	@ 0x34
 8002f48:	4311      	orrs	r1, r2
 8002f4a:	6359      	str	r1, [r3, #52]	@ 0x34
 8002f4c:	2102      	movs	r1, #2
 8002f4e:	6b5b      	ldr	r3, [r3, #52]	@ 0x34
 8002f50:	9008      	str	r0, [sp, #32]
 8002f52:	9109      	str	r1, [sp, #36]	@ 0x24
 8002f54:	4013      	ands	r3, r2
 8002f56:	9303      	str	r3, [sp, #12]
 8002f58:	20a0      	movs	r0, #160	@ 0xa0
 8002f5a:	9b03      	ldr	r3, [sp, #12]
 8002f5c:	2302      	movs	r3, #2
 8002f5e:	a908      	add	r1, sp, #32
 8002f60:	05c0      	lsls	r0, r0, #23
 8002f62:	920a      	str	r2, [sp, #40]	@ 0x28
 8002f64:	930c      	str	r3, [sp, #48]	@ 0x30
 8002f66:	f001 fadf 	bl	8004528 <HAL_GPIO_Init>
 8002f6a:	2202      	movs	r2, #2
 8002f6c:	2102      	movs	r1, #2
 8002f6e:	200f      	movs	r0, #15
 8002f70:	f001 f8c8 	bl	8004104 <HAL_NVIC_SetPriority>
 8002f74:	200f      	movs	r0, #15
 8002f76:	f001 f8ef 	bl	8004158 <HAL_NVIC_EnableIRQ>
 8002f7a:	e7b1      	b.n	8002ee0 <HAL_TIM_Base_MspInit+0x44>
 8002f7c:	2302      	movs	r3, #2
 8002f7e:	4a22      	ldr	r2, [pc, #136]	@ (8003008 <HAL_TIM_Base_MspInit+0x16c>)
 8002f80:	2010      	movs	r0, #16
 8002f82:	6bd1      	ldr	r1, [r2, #60]	@ 0x3c
 8002f84:	4319      	orrs	r1, r3
 8002f86:	63d1      	str	r1, [r2, #60]	@ 0x3c
 8002f88:	6bd2      	ldr	r2, [r2, #60]	@ 0x3c
 8002f8a:	2100      	movs	r1, #0
 8002f8c:	4013      	ands	r3, r2
 8002f8e:	9304      	str	r3, [sp, #16]
 8002f90:	2200      	movs	r2, #0
 8002f92:	9b04      	ldr	r3, [sp, #16]
 8002f94:	f001 f8b6 	bl	8004104 <HAL_NVIC_SetPriority>
 8002f98:	2010      	movs	r0, #16
 8002f9a:	f001 f8dd 	bl	8004158 <HAL_NVIC_EnableIRQ>
 8002f9e:	e79f      	b.n	8002ee0 <HAL_TIM_Base_MspInit+0x44>
 8002fa0:	2180      	movs	r1, #128	@ 0x80
 8002fa2:	4b19      	ldr	r3, [pc, #100]	@ (8003008 <HAL_TIM_Base_MspInit+0x16c>)
 8002fa4:	02c9      	lsls	r1, r1, #11
 8002fa6:	6c1a      	ldr	r2, [r3, #64]	@ 0x40
 8002fa8:	2016      	movs	r0, #22
 8002faa:	430a      	orrs	r2, r1
 8002fac:	641a      	str	r2, [r3, #64]	@ 0x40
 8002fae:	6c1b      	ldr	r3, [r3, #64]	@ 0x40
 8002fb0:	2203      	movs	r2, #3
 8002fb2:	400b      	ands	r3, r1
 8002fb4:	9306      	str	r3, [sp, #24]
 8002fb6:	2103      	movs	r1, #3
 8002fb8:	9b06      	ldr	r3, [sp, #24]
 8002fba:	f001 f8a3 	bl	8004104 <HAL_NVIC_SetPriority>
 8002fbe:	2016      	movs	r0, #22
 8002fc0:	f001 f8ca 	bl	8004158 <HAL_NVIC_EnableIRQ>
 8002fc4:	e78c      	b.n	8002ee0 <HAL_TIM_Base_MspInit+0x44>
 8002fc6:	2180      	movs	r1, #128	@ 0x80
 8002fc8:	4b0f      	ldr	r3, [pc, #60]	@ (8003008 <HAL_TIM_Base_MspInit+0x16c>)
 8002fca:	0209      	lsls	r1, r1, #8
 8002fcc:	6c1a      	ldr	r2, [r3, #64]	@ 0x40
 8002fce:	2013      	movs	r0, #19
 8002fd0:	430a      	orrs	r2, r1
 8002fd2:	641a      	str	r2, [r3, #64]	@ 0x40
 8002fd4:	6c1b      	ldr	r3, [r3, #64]	@ 0x40
 8002fd6:	2203      	movs	r2, #3
 8002fd8:	400b      	ands	r3, r1
 8002fda:	9307      	str	r3, [sp, #28]
 8002fdc:	2103      	movs	r1, #3
 8002fde:	9b07      	ldr	r3, [sp, #28]
 8002fe0:	f001 f890 	bl	8004104 <HAL_NVIC_SetPriority>
 8002fe4:	2013      	movs	r0, #19
 8002fe6:	f001 f8b7 	bl	8004158 <HAL_NVIC_EnableIRQ>
 8002fea:	e779      	b.n	8002ee0 <HAL_TIM_Base_MspInit+0x44>
 8002fec:	f7fe fac2 	bl	8001574 <Error_Handler>
 8002ff0:	e793      	b.n	8002f1a <HAL_TIM_Base_MspInit+0x7e>
 8002ff2:	46c0      	nop			@ (mov r8, r8)
 8002ff4:	40012c00 	.word	0x40012c00
 8002ff8:	40000400 	.word	0x40000400
 8002ffc:	40014400 	.word	0x40014400
 8003000:	40014800 	.word	0x40014800
 8003004:	40002000 	.word	0x40002000
 8003008:	40021000 	.word	0x40021000

0800300c <HAL_TIM_MspPostInit>:
 800300c:	b530      	push	{r4, r5, lr}
 800300e:	0004      	movs	r4, r0
 8003010:	b089      	sub	sp, #36	@ 0x24
 8003012:	2214      	movs	r2, #20
 8003014:	2100      	movs	r1, #0
 8003016:	a802      	add	r0, sp, #8
 8003018:	f004 feea 	bl	8007df0 <memset>
 800301c:	4b16      	ldr	r3, [pc, #88]	@ (8003078 <HAL_TIM_MspPostInit+0x6c>)
 800301e:	6822      	ldr	r2, [r4, #0]
 8003020:	429a      	cmp	r2, r3
 8003022:	d001      	beq.n	8003028 <HAL_TIM_MspPostInit+0x1c>
 8003024:	b009      	add	sp, #36	@ 0x24
 8003026:	bd30      	pop	{r4, r5, pc}
 8003028:	2501      	movs	r5, #1
 800302a:	2402      	movs	r4, #2
 800302c:	4b13      	ldr	r3, [pc, #76]	@ (800307c <HAL_TIM_MspPostInit+0x70>)
 800302e:	20a0      	movs	r0, #160	@ 0xa0
 8003030:	6b5a      	ldr	r2, [r3, #52]	@ 0x34
 8003032:	a902      	add	r1, sp, #8
 8003034:	432a      	orrs	r2, r5
 8003036:	635a      	str	r2, [r3, #52]	@ 0x34
 8003038:	6b5a      	ldr	r2, [r3, #52]	@ 0x34
 800303a:	05c0      	lsls	r0, r0, #23
 800303c:	402a      	ands	r2, r5
 800303e:	9200      	str	r2, [sp, #0]
 8003040:	9a00      	ldr	r2, [sp, #0]
 8003042:	6b5a      	ldr	r2, [r3, #52]	@ 0x34
 8003044:	4322      	orrs	r2, r4
 8003046:	635a      	str	r2, [r3, #52]	@ 0x34
 8003048:	6b5b      	ldr	r3, [r3, #52]	@ 0x34
 800304a:	2280      	movs	r2, #128	@ 0x80
 800304c:	4023      	ands	r3, r4
 800304e:	9301      	str	r3, [sp, #4]
 8003050:	9b01      	ldr	r3, [sp, #4]
 8003052:	2302      	movs	r3, #2
 8003054:	0112      	lsls	r2, r2, #4
 8003056:	9202      	str	r2, [sp, #8]
 8003058:	9303      	str	r3, [sp, #12]
 800305a:	9406      	str	r4, [sp, #24]
 800305c:	f001 fa64 	bl	8004528 <HAL_GPIO_Init>
 8003060:	2308      	movs	r3, #8
 8003062:	9302      	str	r3, [sp, #8]
 8003064:	2300      	movs	r3, #0
 8003066:	4806      	ldr	r0, [pc, #24]	@ (8003080 <HAL_TIM_MspPostInit+0x74>)
 8003068:	a902      	add	r1, sp, #8
 800306a:	9403      	str	r4, [sp, #12]
 800306c:	9304      	str	r3, [sp, #16]
 800306e:	9305      	str	r3, [sp, #20]
 8003070:	9506      	str	r5, [sp, #24]
 8003072:	f001 fa59 	bl	8004528 <HAL_GPIO_Init>
 8003076:	e7d5      	b.n	8003024 <HAL_TIM_MspPostInit+0x18>
 8003078:	40012c00 	.word	0x40012c00
 800307c:	40021000 	.word	0x40021000
 8003080:	50000400 	.word	0x50000400

08003084 <HAL_UART_MspInit>:
 8003084:	b530      	push	{r4, r5, lr}
 8003086:	0004      	movs	r4, r0
 8003088:	b089      	sub	sp, #36	@ 0x24
 800308a:	2214      	movs	r2, #20
 800308c:	2100      	movs	r1, #0
 800308e:	a802      	add	r0, sp, #8
 8003090:	f004 feae 	bl	8007df0 <memset>
 8003094:	4b30      	ldr	r3, [pc, #192]	@ (8003158 <HAL_UART_MspInit+0xd4>)
 8003096:	6822      	ldr	r2, [r4, #0]
 8003098:	429a      	cmp	r2, r3
 800309a:	d001      	beq.n	80030a0 <HAL_UART_MspInit+0x1c>
 800309c:	b009      	add	sp, #36	@ 0x24
 800309e:	bd30      	pop	{r4, r5, pc}
 80030a0:	2180      	movs	r1, #128	@ 0x80
 80030a2:	4b2e      	ldr	r3, [pc, #184]	@ (800315c <HAL_UART_MspInit+0xd8>)
 80030a4:	0289      	lsls	r1, r1, #10
 80030a6:	6bda      	ldr	r2, [r3, #60]	@ 0x3c
 80030a8:	200c      	movs	r0, #12
 80030aa:	430a      	orrs	r2, r1
 80030ac:	63da      	str	r2, [r3, #60]	@ 0x3c
 80030ae:	6bda      	ldr	r2, [r3, #60]	@ 0x3c
 80030b0:	400a      	ands	r2, r1
 80030b2:	9200      	str	r2, [sp, #0]
 80030b4:	9a00      	ldr	r2, [sp, #0]
 80030b6:	2201      	movs	r2, #1
 80030b8:	6b59      	ldr	r1, [r3, #52]	@ 0x34
 80030ba:	4311      	orrs	r1, r2
 80030bc:	6359      	str	r1, [r3, #52]	@ 0x34
 80030be:	2102      	movs	r1, #2
 80030c0:	6b5b      	ldr	r3, [r3, #52]	@ 0x34
 80030c2:	9002      	str	r0, [sp, #8]
 80030c4:	9103      	str	r1, [sp, #12]
 80030c6:	20a0      	movs	r0, #160	@ 0xa0
 80030c8:	4013      	ands	r3, r2
 80030ca:	9301      	str	r3, [sp, #4]
 80030cc:	05c0      	lsls	r0, r0, #23
 80030ce:	a902      	add	r1, sp, #8
 80030d0:	9b01      	ldr	r3, [sp, #4]
 80030d2:	9204      	str	r2, [sp, #16]
 80030d4:	9206      	str	r2, [sp, #24]
 80030d6:	f001 fa27 	bl	8004528 <HAL_GPIO_Init>
 80030da:	4d21      	ldr	r5, [pc, #132]	@ (8003160 <HAL_UART_MspInit+0xdc>)
 80030dc:	4b21      	ldr	r3, [pc, #132]	@ (8003164 <HAL_UART_MspInit+0xe0>)
 80030de:	2280      	movs	r2, #128	@ 0x80
 80030e0:	602b      	str	r3, [r5, #0]
 80030e2:	2334      	movs	r3, #52	@ 0x34
 80030e4:	606b      	str	r3, [r5, #4]
 80030e6:	2300      	movs	r3, #0
 80030e8:	60ab      	str	r3, [r5, #8]
 80030ea:	60eb      	str	r3, [r5, #12]
 80030ec:	616b      	str	r3, [r5, #20]
 80030ee:	61ab      	str	r3, [r5, #24]
 80030f0:	61eb      	str	r3, [r5, #28]
 80030f2:	2380      	movs	r3, #128	@ 0x80
 80030f4:	0028      	movs	r0, r5
 80030f6:	015b      	lsls	r3, r3, #5
 80030f8:	612a      	str	r2, [r5, #16]
 80030fa:	622b      	str	r3, [r5, #32]
 80030fc:	f001 f862 	bl	80041c4 <HAL_DMA_Init>
 8003100:	2800      	cmp	r0, #0
 8003102:	d122      	bne.n	800314a <HAL_UART_MspInit+0xc6>
 8003104:	2280      	movs	r2, #128	@ 0x80
 8003106:	4b18      	ldr	r3, [pc, #96]	@ (8003168 <HAL_UART_MspInit+0xe4>)
 8003108:	50a5      	str	r5, [r4, r2]
 800310a:	62ac      	str	r4, [r5, #40]	@ 0x28
 800310c:	4d17      	ldr	r5, [pc, #92]	@ (800316c <HAL_UART_MspInit+0xe8>)
 800310e:	602b      	str	r3, [r5, #0]
 8003110:	2335      	movs	r3, #53	@ 0x35
 8003112:	606b      	str	r3, [r5, #4]
 8003114:	3b25      	subs	r3, #37	@ 0x25
 8003116:	60ab      	str	r3, [r5, #8]
 8003118:	2300      	movs	r3, #0
 800311a:	60eb      	str	r3, [r5, #12]
 800311c:	616b      	str	r3, [r5, #20]
 800311e:	61ab      	str	r3, [r5, #24]
 8003120:	61eb      	str	r3, [r5, #28]
 8003122:	2380      	movs	r3, #128	@ 0x80
 8003124:	0028      	movs	r0, r5
 8003126:	015b      	lsls	r3, r3, #5
 8003128:	612a      	str	r2, [r5, #16]
 800312a:	622b      	str	r3, [r5, #32]
 800312c:	f001 f84a 	bl	80041c4 <HAL_DMA_Init>
 8003130:	2800      	cmp	r0, #0
 8003132:	d10d      	bne.n	8003150 <HAL_UART_MspInit+0xcc>
 8003134:	2201      	movs	r2, #1
 8003136:	2101      	movs	r1, #1
 8003138:	201c      	movs	r0, #28
 800313a:	67e5      	str	r5, [r4, #124]	@ 0x7c
 800313c:	62ac      	str	r4, [r5, #40]	@ 0x28
 800313e:	f000 ffe1 	bl	8004104 <HAL_NVIC_SetPriority>
 8003142:	201c      	movs	r0, #28
 8003144:	f001 f808 	bl	8004158 <HAL_NVIC_EnableIRQ>
 8003148:	e7a8      	b.n	800309c <HAL_UART_MspInit+0x18>
 800314a:	f7fe fa13 	bl	8001574 <Error_Handler>
 800314e:	e7d9      	b.n	8003104 <HAL_UART_MspInit+0x80>
 8003150:	f7fe fa10 	bl	8001574 <Error_Handler>
 8003154:	e7ee      	b.n	8003134 <HAL_UART_MspInit+0xb0>
 8003156:	46c0      	nop			@ (mov r8, r8)
 8003158:	40004400 	.word	0x40004400
 800315c:	40021000 	.word	0x40021000
 8003160:	200005a8 	.word	0x200005a8
 8003164:	4002001c 	.word	0x4002001c
 8003168:	40020030 	.word	0x40020030
 800316c:	2000054c 	.word	0x2000054c

08003170 <NMI_Handler>:
 8003170:	e7fe      	b.n	8003170 <NMI_Handler>
 8003172:	46c0      	nop			@ (mov r8, r8)

08003174 <HardFault_Handler>:
 8003174:	e7fe      	b.n	8003174 <HardFault_Handler>
 8003176:	46c0      	nop			@ (mov r8, r8)

08003178 <SVC_Handler>:
 8003178:	4770      	bx	lr
 800317a:	46c0      	nop			@ (mov r8, r8)

0800317c <PendSV_Handler>:
 800317c:	4770      	bx	lr
 800317e:	46c0      	nop			@ (mov r8, r8)

08003180 <SysTick_Handler>:
 8003180:	b510      	push	{r4, lr}
 8003182:	f000 fa3d 	bl	8003600 <HAL_IncTick>
 8003186:	bd10      	pop	{r4, pc}

08003188 <EXTI4_15_IRQHandler>:
 8003188:	b510      	push	{r4, lr}
 800318a:	2080      	movs	r0, #128	@ 0x80
 800318c:	f001 fb88 	bl	80048a0 <HAL_GPIO_EXTI_IRQHandler>
 8003190:	bd10      	pop	{r4, pc}
 8003192:	46c0      	nop			@ (mov r8, r8)

08003194 <DMA1_Channel1_IRQHandler>:
 8003194:	b510      	push	{r4, lr}
 8003196:	4802      	ldr	r0, [pc, #8]	@ (80031a0 <DMA1_Channel1_IRQHandler+0xc>)
 8003198:	f001 f96a 	bl	8004470 <HAL_DMA_IRQHandler>
 800319c:	bd10      	pop	{r4, pc}
 800319e:	46c0      	nop			@ (mov r8, r8)
 80031a0:	20000b38 	.word	0x20000b38

080031a4 <DMA1_Channel2_3_IRQHandler>:
 80031a4:	b510      	push	{r4, lr}
 80031a6:	4803      	ldr	r0, [pc, #12]	@ (80031b4 <DMA1_Channel2_3_IRQHandler+0x10>)
 80031a8:	f001 f962 	bl	8004470 <HAL_DMA_IRQHandler>
 80031ac:	4802      	ldr	r0, [pc, #8]	@ (80031b8 <DMA1_Channel2_3_IRQHandler+0x14>)
 80031ae:	f001 f95f 	bl	8004470 <HAL_DMA_IRQHandler>
 80031b2:	bd10      	pop	{r4, pc}
 80031b4:	200005a8 	.word	0x200005a8
 80031b8:	2000054c 	.word	0x2000054c

080031bc <TIM2_IRQHandler>:
 80031bc:	b510      	push	{r4, lr}
 80031be:	4802      	ldr	r0, [pc, #8]	@ (80031c8 <TIM2_IRQHandler+0xc>)
 80031c0:	f003 f878 	bl	80062b4 <HAL_TIM_IRQHandler>
 80031c4:	bd10      	pop	{r4, pc}
 80031c6:	46c0      	nop			@ (mov r8, r8)
 80031c8:	20000848 	.word	0x20000848

080031cc <TIM3_IRQHandler>:
 80031cc:	b510      	push	{r4, lr}
 80031ce:	4802      	ldr	r0, [pc, #8]	@ (80031d8 <TIM3_IRQHandler+0xc>)
 80031d0:	f003 f870 	bl	80062b4 <HAL_TIM_IRQHandler>
 80031d4:	bd10      	pop	{r4, pc}
 80031d6:	46c0      	nop			@ (mov r8, r8)
 80031d8:	2000078c 	.word	0x2000078c

080031dc <TIM16_IRQHandler>:
 80031dc:	b510      	push	{r4, lr}
 80031de:	4802      	ldr	r0, [pc, #8]	@ (80031e8 <TIM16_IRQHandler+0xc>)
 80031e0:	f003 f868 	bl	80062b4 <HAL_TIM_IRQHandler>
 80031e4:	bd10      	pop	{r4, pc}
 80031e6:	46c0      	nop			@ (mov r8, r8)
 80031e8:	20000904 	.word	0x20000904

080031ec <USART2_IRQHandler>:
 80031ec:	b510      	push	{r4, lr}
 80031ee:	4802      	ldr	r0, [pc, #8]	@ (80031f8 <USART2_IRQHandler+0xc>)
 80031f0:	f004 f8bc 	bl	800736c <HAL_UART_IRQHandler>
 80031f4:	bd10      	pop	{r4, pc}
 80031f6:	46c0      	nop			@ (mov r8, r8)
 80031f8:	20000604 	.word	0x20000604

080031fc <LPTIM1_IRQHandler>:
 80031fc:	b510      	push	{r4, lr}
 80031fe:	4802      	ldr	r0, [pc, #8]	@ (8003208 <LPTIM1_IRQHandler+0xc>)
 8003200:	f001 fbfa 	bl	80049f8 <HAL_LPTIM_IRQHandler>
 8003204:	bd10      	pop	{r4, pc}
 8003206:	46c0      	nop			@ (mov r8, r8)
 8003208:	200004f0 	.word	0x200004f0

0800320c <TIM17_IRQHandler>:
 800320c:	b510      	push	{r4, lr}
 800320e:	4802      	ldr	r0, [pc, #8]	@ (8003218 <TIM17_IRQHandler+0xc>)
 8003210:	f003 f850 	bl	80062b4 <HAL_TIM_IRQHandler>
 8003214:	bd10      	pop	{r4, pc}
 8003216:	46c0      	nop			@ (mov r8, r8)
 8003218:	200009c0 	.word	0x200009c0

0800321c <TIM14_IRQHandler>:
 800321c:	b510      	push	{r4, lr}
 800321e:	4802      	ldr	r0, [pc, #8]	@ (8003228 <TIM14_IRQHandler+0xc>)
 8003220:	f003 f848 	bl	80062b4 <HAL_TIM_IRQHandler>
 8003224:	bd10      	pop	{r4, pc}
 8003226:	46c0      	nop			@ (mov r8, r8)
 8003228:	20000a7c 	.word	0x20000a7c

0800322c <Process_TIM16_Final_Start_Value_and_Final_Prescaler>:
 800322c:	b5f0      	push	{r4, r5, r6, r7, lr}
 800322e:	46d6      	mov	lr, sl
 8003230:	464f      	mov	r7, r9
 8003232:	4646      	mov	r6, r8
 8003234:	b5c0      	push	{r6, r7, lr}
 8003236:	8982      	ldrh	r2, [r0, #12]
 8003238:	7983      	ldrb	r3, [r0, #6]
 800323a:	0004      	movs	r4, r0
 800323c:	b292      	uxth	r2, r2
 800323e:	2b01      	cmp	r3, #1
 8003240:	d050      	beq.n	80032e4 <Process_TIM16_Final_Start_Value_and_Final_Prescaler+0xb8>
 8003242:	7983      	ldrb	r3, [r0, #6]
 8003244:	2b00      	cmp	r3, #0
 8003246:	d04d      	beq.n	80032e4 <Process_TIM16_Final_Start_Value_and_Final_Prescaler+0xb8>
 8003248:	7983      	ldrb	r3, [r0, #6]
 800324a:	2b02      	cmp	r3, #2
 800324c:	d100      	bne.n	8003250 <Process_TIM16_Final_Start_Value_and_Final_Prescaler+0x24>
 800324e:	e0d3      	b.n	80033f8 <Process_TIM16_Final_Start_Value_and_Final_Prescaler+0x1cc>
 8003250:	2700      	movs	r7, #0
 8003252:	2a7f      	cmp	r2, #127	@ 0x7f
 8003254:	d850      	bhi.n	80032f8 <Process_TIM16_Final_Start_Value_and_Final_Prescaler+0xcc>
 8003256:	227f      	movs	r2, #127	@ 0x7f
 8003258:	89a3      	ldrh	r3, [r4, #12]
 800325a:	1ad2      	subs	r2, r2, r3
 800325c:	b2d2      	uxtb	r2, r2
 800325e:	8a65      	ldrh	r5, [r4, #18]
 8003260:	b2ab      	uxth	r3, r5
 8003262:	4698      	mov	r8, r3
 8003264:	2380      	movs	r3, #128	@ 0x80
 8003266:	005b      	lsls	r3, r3, #1
 8003268:	1b5d      	subs	r5, r3, r5
 800326a:	b2ad      	uxth	r5, r5
 800326c:	436a      	muls	r2, r5
 800326e:	0056      	lsls	r6, r2, #1
 8003270:	18b6      	adds	r6, r6, r2
 8003272:	1076      	asrs	r6, r6, #1
 8003274:	b2b2      	uxth	r2, r6
 8003276:	0a12      	lsrs	r2, r2, #8
 8003278:	4691      	mov	r9, r2
 800327a:	1aaa      	subs	r2, r5, r2
 800327c:	444d      	add	r5, r9
 800327e:	b292      	uxth	r2, r2
 8003280:	0436      	lsls	r6, r6, #16
 8003282:	b2ad      	uxth	r5, r5
 8003284:	4692      	mov	sl, r2
 8003286:	0c36      	lsrs	r6, r6, #16
 8003288:	2dff      	cmp	r5, #255	@ 0xff
 800328a:	d800      	bhi.n	800328e <Process_TIM16_Final_Start_Value_and_Final_Prescaler+0x62>
 800328c:	e082      	b.n	8003394 <Process_TIM16_Final_Start_Value_and_Final_Prescaler+0x168>
 800328e:	429d      	cmp	r5, r3
 8003290:	d100      	bne.n	8003294 <Process_TIM16_Final_Start_Value_and_Final_Prescaler+0x68>
 8003292:	e0ce      	b.n	8003432 <Process_TIM16_Final_Start_Value_and_Final_Prescaler+0x206>
 8003294:	2108      	movs	r1, #8
 8003296:	0030      	movs	r0, r6
 8003298:	f000 f936 	bl	8003508 <unsigned_bitwise_modulo>
 800329c:	2880      	cmp	r0, #128	@ 0x80
 800329e:	d044      	beq.n	800332a <Process_TIM16_Final_Start_Value_and_Final_Prescaler+0xfe>
 80032a0:	2108      	movs	r1, #8
 80032a2:	0030      	movs	r0, r6
 80032a4:	f000 f930 	bl	8003508 <unsigned_bitwise_modulo>
 80032a8:	2800      	cmp	r0, #0
 80032aa:	d044      	beq.n	8003336 <Process_TIM16_Final_Start_Value_and_Final_Prescaler+0x10a>
 80032ac:	2108      	movs	r1, #8
 80032ae:	0030      	movs	r0, r6
 80032b0:	f000 f92a 	bl	8003508 <unsigned_bitwise_modulo>
 80032b4:	287f      	cmp	r0, #127	@ 0x7f
 80032b6:	d93e      	bls.n	8003336 <Process_TIM16_Final_Start_Value_and_Final_Prescaler+0x10a>
 80032b8:	2108      	movs	r1, #8
 80032ba:	0030      	movs	r0, r6
 80032bc:	f000 f924 	bl	8003508 <unsigned_bitwise_modulo>
 80032c0:	2880      	cmp	r0, #128	@ 0x80
 80032c2:	d832      	bhi.n	800332a <Process_TIM16_Final_Start_Value_and_Final_Prescaler+0xfe>
 80032c4:	2f00      	cmp	r7, #0
 80032c6:	d041      	beq.n	800334c <Process_TIM16_Final_Start_Value_and_Final_Prescaler+0x120>
 80032c8:	2380      	movs	r3, #128	@ 0x80
 80032ca:	005b      	lsls	r3, r3, #1
 80032cc:	1b5b      	subs	r3, r3, r5
 80032ce:	b29b      	uxth	r3, r3
 80032d0:	82a3      	strh	r3, [r4, #20]
 80032d2:	2320      	movs	r3, #32
 80032d4:	5ce2      	ldrb	r2, [r4, r3]
 80032d6:	2a01      	cmp	r2, #1
 80032d8:	d142      	bne.n	8003360 <Process_TIM16_Final_Start_Value_and_Final_Prescaler+0x134>
 80032da:	8b63      	ldrh	r3, [r4, #26]
 80032dc:	005b      	lsls	r3, r3, #1
 80032de:	b29b      	uxth	r3, r3
 80032e0:	83a3      	strh	r3, [r4, #28]
 80032e2:	e043      	b.n	800336c <Process_TIM16_Final_Start_Value_and_Final_Prescaler+0x140>
 80032e4:	7c23      	ldrb	r3, [r4, #16]
 80032e6:	2b00      	cmp	r3, #0
 80032e8:	d10a      	bne.n	8003300 <Process_TIM16_Final_Start_Value_and_Final_Prescaler+0xd4>
 80032ea:	7c63      	ldrb	r3, [r4, #17]
 80032ec:	2b00      	cmp	r3, #0
 80032ee:	d107      	bne.n	8003300 <Process_TIM16_Final_Start_Value_and_Final_Prescaler+0xd4>
 80032f0:	2700      	movs	r7, #0
 80032f2:	2a7f      	cmp	r2, #127	@ 0x7f
 80032f4:	d800      	bhi.n	80032f8 <Process_TIM16_Final_Start_Value_and_Final_Prescaler+0xcc>
 80032f6:	e087      	b.n	8003408 <Process_TIM16_Final_Start_Value_and_Final_Prescaler+0x1dc>
 80032f8:	89a2      	ldrh	r2, [r4, #12]
 80032fa:	3a80      	subs	r2, #128	@ 0x80
 80032fc:	b2d2      	uxtb	r2, r2
 80032fe:	e7ae      	b.n	800325e <Process_TIM16_Final_Start_Value_and_Final_Prescaler+0x32>
 8003300:	7c23      	ldrb	r3, [r4, #16]
 8003302:	2b01      	cmp	r3, #1
 8003304:	d100      	bne.n	8003308 <Process_TIM16_Final_Start_Value_and_Final_Prescaler+0xdc>
 8003306:	e072      	b.n	80033ee <Process_TIM16_Final_Start_Value_and_Final_Prescaler+0x1c2>
 8003308:	7c23      	ldrb	r3, [r4, #16]
 800330a:	2b00      	cmp	r3, #0
 800330c:	d102      	bne.n	8003314 <Process_TIM16_Final_Start_Value_and_Final_Prescaler+0xe8>
 800330e:	7c63      	ldrb	r3, [r4, #17]
 8003310:	2b01      	cmp	r3, #1
 8003312:	d005      	beq.n	8003320 <Process_TIM16_Final_Start_Value_and_Final_Prescaler+0xf4>
 8003314:	7c23      	ldrb	r3, [r4, #16]
 8003316:	2b01      	cmp	r3, #1
 8003318:	d19a      	bne.n	8003250 <Process_TIM16_Final_Start_Value_and_Final_Prescaler+0x24>
 800331a:	7c63      	ldrb	r3, [r4, #17]
 800331c:	2b00      	cmp	r3, #0
 800331e:	d197      	bne.n	8003250 <Process_TIM16_Final_Start_Value_and_Final_Prescaler+0x24>
 8003320:	2701      	movs	r7, #1
 8003322:	2a7f      	cmp	r2, #127	@ 0x7f
 8003324:	d8e8      	bhi.n	80032f8 <Process_TIM16_Final_Start_Value_and_Final_Prescaler+0xcc>
 8003326:	2700      	movs	r7, #0
 8003328:	e795      	b.n	8003256 <Process_TIM16_Final_Start_Value_and_Final_Prescaler+0x2a>
 800332a:	4653      	mov	r3, sl
 800332c:	3b01      	subs	r3, #1
 800332e:	b29b      	uxth	r3, r3
 8003330:	469a      	mov	sl, r3
 8003332:	3501      	adds	r5, #1
 8003334:	b2ad      	uxth	r5, r5
 8003336:	0028      	movs	r0, r5
 8003338:	2101      	movs	r1, #1
 800333a:	f000 f8e5 	bl	8003508 <unsigned_bitwise_modulo>
 800333e:	086d      	lsrs	r5, r5, #1
 8003340:	2320      	movs	r3, #32
 8003342:	2800      	cmp	r0, #0
 8003344:	d142      	bne.n	80033cc <Process_TIM16_Final_Start_Value_and_Final_Prescaler+0x1a0>
 8003346:	2f00      	cmp	r7, #0
 8003348:	d160      	bne.n	800340c <Process_TIM16_Final_Start_Value_and_Final_Prescaler+0x1e0>
 800334a:	54e7      	strb	r7, [r4, r3]
 800334c:	2380      	movs	r3, #128	@ 0x80
 800334e:	4652      	mov	r2, sl
 8003350:	005b      	lsls	r3, r3, #1
 8003352:	1a9b      	subs	r3, r3, r2
 8003354:	b29b      	uxth	r3, r3
 8003356:	82a3      	strh	r3, [r4, #20]
 8003358:	2320      	movs	r3, #32
 800335a:	5ce2      	ldrb	r2, [r4, r3]
 800335c:	2a01      	cmp	r2, #1
 800335e:	d0bc      	beq.n	80032da <Process_TIM16_Final_Start_Value_and_Final_Prescaler+0xae>
 8003360:	5ce3      	ldrb	r3, [r4, r3]
 8003362:	2b00      	cmp	r3, #0
 8003364:	d102      	bne.n	800336c <Process_TIM16_Final_Start_Value_and_Final_Prescaler+0x140>
 8003366:	8b63      	ldrh	r3, [r4, #26]
 8003368:	b29b      	uxth	r3, r3
 800336a:	83a3      	strh	r3, [r4, #28]
 800336c:	2380      	movs	r3, #128	@ 0x80
 800336e:	8aa2      	ldrh	r2, [r4, #20]
 8003370:	005b      	lsls	r3, r3, #1
 8003372:	1a9b      	subs	r3, r3, r2
 8003374:	b29b      	uxth	r3, r3
 8003376:	82e3      	strh	r3, [r4, #22]
 8003378:	8ae3      	ldrh	r3, [r4, #22]
 800337a:	2001      	movs	r0, #1
 800337c:	3b01      	subs	r3, #1
 800337e:	b29b      	uxth	r3, r3
 8003380:	8323      	strh	r3, [r4, #24]
 8003382:	8ba3      	ldrh	r3, [r4, #28]
 8003384:	3b01      	subs	r3, #1
 8003386:	b29b      	uxth	r3, r3
 8003388:	83e3      	strh	r3, [r4, #30]
 800338a:	bce0      	pop	{r5, r6, r7}
 800338c:	46ba      	mov	sl, r7
 800338e:	46b1      	mov	r9, r6
 8003390:	46a8      	mov	r8, r5
 8003392:	bdf0      	pop	{r4, r5, r6, r7, pc}
 8003394:	2108      	movs	r1, #8
 8003396:	0030      	movs	r0, r6
 8003398:	f000 f8b6 	bl	8003508 <unsigned_bitwise_modulo>
 800339c:	2880      	cmp	r0, #128	@ 0x80
 800339e:	d13c      	bne.n	800341a <Process_TIM16_Final_Start_Value_and_Final_Prescaler+0x1ee>
 80033a0:	2320      	movs	r3, #32
 80033a2:	2200      	movs	r2, #0
 80033a4:	54e2      	strb	r2, [r4, r3]
 80033a6:	2f00      	cmp	r7, #0
 80033a8:	d114      	bne.n	80033d4 <Process_TIM16_Final_Start_Value_and_Final_Prescaler+0x1a8>
 80033aa:	89e0      	ldrh	r0, [r4, #14]
 80033ac:	2101      	movs	r1, #1
 80033ae:	b280      	uxth	r0, r0
 80033b0:	f000 f8aa 	bl	8003508 <unsigned_bitwise_modulo>
 80033b4:	4643      	mov	r3, r8
 80033b6:	3b01      	subs	r3, #1
 80033b8:	3bff      	subs	r3, #255	@ 0xff
 80033ba:	444b      	add	r3, r9
 80033bc:	b29b      	uxth	r3, r3
 80033be:	2800      	cmp	r0, #0
 80033c0:	d14a      	bne.n	8003458 <Process_TIM16_Final_Start_Value_and_Final_Prescaler+0x22c>
 80033c2:	3301      	adds	r3, #1
 80033c4:	33ff      	adds	r3, #255	@ 0xff
 80033c6:	b29b      	uxth	r3, r3
 80033c8:	82a3      	strh	r3, [r4, #20]
 80033ca:	e7c5      	b.n	8003358 <Process_TIM16_Final_Start_Value_and_Final_Prescaler+0x12c>
 80033cc:	2f00      	cmp	r7, #0
 80033ce:	d0bc      	beq.n	800334a <Process_TIM16_Final_Start_Value_and_Final_Prescaler+0x11e>
 80033d0:	2201      	movs	r2, #1
 80033d2:	54e2      	strb	r2, [r4, r3]
 80033d4:	89e0      	ldrh	r0, [r4, #14]
 80033d6:	2101      	movs	r1, #1
 80033d8:	b280      	uxth	r0, r0
 80033da:	f000 f895 	bl	8003508 <unsigned_bitwise_modulo>
 80033de:	2800      	cmp	r0, #0
 80033e0:	d14c      	bne.n	800347c <Process_TIM16_Final_Start_Value_and_Final_Prescaler+0x250>
 80033e2:	2380      	movs	r3, #128	@ 0x80
 80033e4:	005b      	lsls	r3, r3, #1
 80033e6:	1b5b      	subs	r3, r3, r5
 80033e8:	b29b      	uxth	r3, r3
 80033ea:	82a3      	strh	r3, [r4, #20]
 80033ec:	e7b4      	b.n	8003358 <Process_TIM16_Final_Start_Value_and_Final_Prescaler+0x12c>
 80033ee:	7c63      	ldrb	r3, [r4, #17]
 80033f0:	2b01      	cmp	r3, #1
 80033f2:	d000      	beq.n	80033f6 <Process_TIM16_Final_Start_Value_and_Final_Prescaler+0x1ca>
 80033f4:	e788      	b.n	8003308 <Process_TIM16_Final_Start_Value_and_Final_Prescaler+0xdc>
 80033f6:	e77b      	b.n	80032f0 <Process_TIM16_Final_Start_Value_and_Final_Prescaler+0xc4>
 80033f8:	7c03      	ldrb	r3, [r0, #16]
 80033fa:	b2df      	uxtb	r7, r3
 80033fc:	2b00      	cmp	r3, #0
 80033fe:	d000      	beq.n	8003402 <Process_TIM16_Final_Start_Value_and_Final_Prescaler+0x1d6>
 8003400:	e78e      	b.n	8003320 <Process_TIM16_Final_Start_Value_and_Final_Prescaler+0xf4>
 8003402:	2a7f      	cmp	r2, #127	@ 0x7f
 8003404:	d900      	bls.n	8003408 <Process_TIM16_Final_Start_Value_and_Final_Prescaler+0x1dc>
 8003406:	e777      	b.n	80032f8 <Process_TIM16_Final_Start_Value_and_Final_Prescaler+0xcc>
 8003408:	2701      	movs	r7, #1
 800340a:	e724      	b.n	8003256 <Process_TIM16_Final_Start_Value_and_Final_Prescaler+0x2a>
 800340c:	2201      	movs	r2, #1
 800340e:	54e2      	strb	r2, [r4, r3]
 8003410:	33e0      	adds	r3, #224	@ 0xe0
 8003412:	1b5b      	subs	r3, r3, r5
 8003414:	b29b      	uxth	r3, r3
 8003416:	82a3      	strh	r3, [r4, #20]
 8003418:	e75b      	b.n	80032d2 <Process_TIM16_Final_Start_Value_and_Final_Prescaler+0xa6>
 800341a:	2108      	movs	r1, #8
 800341c:	0030      	movs	r0, r6
 800341e:	f000 f873 	bl	8003508 <unsigned_bitwise_modulo>
 8003422:	2800      	cmp	r0, #0
 8003424:	d11d      	bne.n	8003462 <Process_TIM16_Final_Start_Value_and_Final_Prescaler+0x236>
 8003426:	2320      	movs	r3, #32
 8003428:	54e0      	strb	r0, [r4, r3]
 800342a:	2f00      	cmp	r7, #0
 800342c:	d000      	beq.n	8003430 <Process_TIM16_Final_Start_Value_and_Final_Prescaler+0x204>
 800342e:	e74b      	b.n	80032c8 <Process_TIM16_Final_Start_Value_and_Final_Prescaler+0x9c>
 8003430:	e78c      	b.n	800334c <Process_TIM16_Final_Start_Value_and_Final_Prescaler+0x120>
 8003432:	2108      	movs	r1, #8
 8003434:	0030      	movs	r0, r6
 8003436:	f000 f867 	bl	8003508 <unsigned_bitwise_modulo>
 800343a:	2800      	cmp	r0, #0
 800343c:	d0aa      	beq.n	8003394 <Process_TIM16_Final_Start_Value_and_Final_Prescaler+0x168>
 800343e:	2108      	movs	r1, #8
 8003440:	0030      	movs	r0, r6
 8003442:	f000 f861 	bl	8003508 <unsigned_bitwise_modulo>
 8003446:	2800      	cmp	r0, #0
 8003448:	d000      	beq.n	800344c <Process_TIM16_Final_Start_Value_and_Final_Prescaler+0x220>
 800344a:	e723      	b.n	8003294 <Process_TIM16_Final_Start_Value_and_Final_Prescaler+0x68>
 800344c:	2300      	movs	r3, #0
 800344e:	2f00      	cmp	r7, #0
 8003450:	d100      	bne.n	8003454 <Process_TIM16_Final_Start_Value_and_Final_Prescaler+0x228>
 8003452:	e77b      	b.n	800334c <Process_TIM16_Final_Start_Value_and_Final_Prescaler+0x120>
 8003454:	82a3      	strh	r3, [r4, #20]
 8003456:	e73c      	b.n	80032d2 <Process_TIM16_Final_Start_Value_and_Final_Prescaler+0xa6>
 8003458:	3302      	adds	r3, #2
 800345a:	33ff      	adds	r3, #255	@ 0xff
 800345c:	b29b      	uxth	r3, r3
 800345e:	82a3      	strh	r3, [r4, #20]
 8003460:	e77a      	b.n	8003358 <Process_TIM16_Final_Start_Value_and_Final_Prescaler+0x12c>
 8003462:	2108      	movs	r1, #8
 8003464:	0030      	movs	r0, r6
 8003466:	f000 f84f 	bl	8003508 <unsigned_bitwise_modulo>
 800346a:	287f      	cmp	r0, #127	@ 0x7f
 800346c:	d80b      	bhi.n	8003486 <Process_TIM16_Final_Start_Value_and_Final_Prescaler+0x25a>
 800346e:	2320      	movs	r3, #32
 8003470:	2200      	movs	r2, #0
 8003472:	54e2      	strb	r2, [r4, r3]
 8003474:	2f00      	cmp	r7, #0
 8003476:	d100      	bne.n	800347a <Process_TIM16_Final_Start_Value_and_Final_Prescaler+0x24e>
 8003478:	e768      	b.n	800334c <Process_TIM16_Final_Start_Value_and_Final_Prescaler+0x120>
 800347a:	e7c9      	b.n	8003410 <Process_TIM16_Final_Start_Value_and_Final_Prescaler+0x1e4>
 800347c:	23ff      	movs	r3, #255	@ 0xff
 800347e:	1b5b      	subs	r3, r3, r5
 8003480:	b29b      	uxth	r3, r3
 8003482:	82a3      	strh	r3, [r4, #20]
 8003484:	e725      	b.n	80032d2 <Process_TIM16_Final_Start_Value_and_Final_Prescaler+0xa6>
 8003486:	2108      	movs	r1, #8
 8003488:	0030      	movs	r0, r6
 800348a:	f000 f83d 	bl	8003508 <unsigned_bitwise_modulo>
 800348e:	2880      	cmp	r0, #128	@ 0x80
 8003490:	d800      	bhi.n	8003494 <Process_TIM16_Final_Start_Value_and_Final_Prescaler+0x268>
 8003492:	e717      	b.n	80032c4 <Process_TIM16_Final_Start_Value_and_Final_Prescaler+0x98>
 8003494:	2320      	movs	r3, #32
 8003496:	2200      	movs	r2, #0
 8003498:	54e2      	strb	r2, [r4, r3]
 800349a:	2f00      	cmp	r7, #0
 800349c:	d1ee      	bne.n	800347c <Process_TIM16_Final_Start_Value_and_Final_Prescaler+0x250>
 800349e:	4653      	mov	r3, sl
 80034a0:	3b01      	subs	r3, #1
 80034a2:	b29b      	uxth	r3, r3
 80034a4:	469a      	mov	sl, r3
 80034a6:	e751      	b.n	800334c <Process_TIM16_Final_Start_Value_and_Final_Prescaler+0x120>

080034a8 <SystemInit>:
 80034a8:	4770      	bx	lr
 80034aa:	46c0      	nop			@ (mov r8, r8)

080034ac <Start_OC_TIM>:
 80034ac:	b510      	push	{r4, lr}
 80034ae:	f002 fb6b 	bl	8005b88 <HAL_TIM_OC_Start_IT>
 80034b2:	1e04      	subs	r4, r0, #0
 80034b4:	d101      	bne.n	80034ba <Start_OC_TIM+0xe>
 80034b6:	0020      	movs	r0, r4
 80034b8:	bd10      	pop	{r4, pc}
 80034ba:	f7fe f85b 	bl	8001574 <Error_Handler>
 80034be:	e7fa      	b.n	80034b6 <Start_OC_TIM+0xa>

080034c0 <Stop_OC_TIM>:
 80034c0:	b510      	push	{r4, lr}
 80034c2:	f002 fbe1 	bl	8005c88 <HAL_TIM_OC_Stop_IT>
 80034c6:	1e04      	subs	r4, r0, #0
 80034c8:	d101      	bne.n	80034ce <Stop_OC_TIM+0xe>
 80034ca:	0020      	movs	r0, r4
 80034cc:	bd10      	pop	{r4, pc}
 80034ce:	f7fe f851 	bl	8001574 <Error_Handler>
 80034d2:	e7fa      	b.n	80034ca <Stop_OC_TIM+0xa>

080034d4 <isPrime>:
 80034d4:	b570      	push	{r4, r5, r6, lr}
 80034d6:	0005      	movs	r5, r0
 80034d8:	2803      	cmp	r0, #3
 80034da:	d910      	bls.n	80034fe <isPrime+0x2a>
 80034dc:	07c3      	lsls	r3, r0, #31
 80034de:	d510      	bpl.n	8003502 <isPrime+0x2e>
 80034e0:	2402      	movs	r4, #2
 80034e2:	e006      	b.n	80034f2 <isPrime+0x1e>
 80034e4:	0021      	movs	r1, r4
 80034e6:	0028      	movs	r0, r5
 80034e8:	f7fc fe92 	bl	8000210 <__aeabi_uidivmod>
 80034ec:	b289      	uxth	r1, r1
 80034ee:	2900      	cmp	r1, #0
 80034f0:	d007      	beq.n	8003502 <isPrime+0x2e>
 80034f2:	3401      	adds	r4, #1
 80034f4:	b2a4      	uxth	r4, r4
 80034f6:	0023      	movs	r3, r4
 80034f8:	4363      	muls	r3, r4
 80034fa:	42ab      	cmp	r3, r5
 80034fc:	ddf2      	ble.n	80034e4 <isPrime+0x10>
 80034fe:	2001      	movs	r0, #1
 8003500:	bd70      	pop	{r4, r5, r6, pc}
 8003502:	2000      	movs	r0, #0
 8003504:	e7fc      	b.n	8003500 <isPrime+0x2c>
 8003506:	46c0      	nop			@ (mov r8, r8)

08003508 <unsigned_bitwise_modulo>:
 8003508:	2301      	movs	r3, #1
 800350a:	408b      	lsls	r3, r1
 800350c:	3b01      	subs	r3, #1
 800350e:	4018      	ands	r0, r3
 8003510:	4770      	bx	lr
 8003512:	46c0      	nop			@ (mov r8, r8)

08003514 <Global_Interrupt_Enable>:
 8003514:	b662      	cpsie	i
 8003516:	2001      	movs	r0, #1
 8003518:	4770      	bx	lr
 800351a:	46c0      	nop			@ (mov r8, r8)

0800351c <Get_Status_Bit>:
 800351c:	6800      	ldr	r0, [r0, #0]
 800351e:	4008      	ands	r0, r1
 8003520:	1e43      	subs	r3, r0, #1
 8003522:	4198      	sbcs	r0, r3
 8003524:	b2c0      	uxtb	r0, r0
 8003526:	4770      	bx	lr

08003528 <Set_Status_Bit>:
 8003528:	6803      	ldr	r3, [r0, #0]
 800352a:	4319      	orrs	r1, r3
 800352c:	6001      	str	r1, [r0, #0]
 800352e:	4770      	bx	lr

08003530 <Clear_Status_Bit>:
 8003530:	6803      	ldr	r3, [r0, #0]
 8003532:	438b      	bics	r3, r1
 8003534:	6003      	str	r3, [r0, #0]
 8003536:	4770      	bx	lr

08003538 <Reset_Handler>:
 8003538:	480d      	ldr	r0, [pc, #52]	@ (8003570 <LoopForever+0x2>)
 800353a:	4685      	mov	sp, r0
 800353c:	f7ff ffb4 	bl	80034a8 <SystemInit>
 8003540:	480c      	ldr	r0, [pc, #48]	@ (8003574 <LoopForever+0x6>)
 8003542:	490d      	ldr	r1, [pc, #52]	@ (8003578 <LoopForever+0xa>)
 8003544:	4a0d      	ldr	r2, [pc, #52]	@ (800357c <LoopForever+0xe>)
 8003546:	2300      	movs	r3, #0
 8003548:	e002      	b.n	8003550 <LoopCopyDataInit>

0800354a <CopyDataInit>:
 800354a:	58d4      	ldr	r4, [r2, r3]
 800354c:	50c4      	str	r4, [r0, r3]
 800354e:	3304      	adds	r3, #4

08003550 <LoopCopyDataInit>:
 8003550:	18c4      	adds	r4, r0, r3
 8003552:	428c      	cmp	r4, r1
 8003554:	d3f9      	bcc.n	800354a <CopyDataInit>
 8003556:	4a0a      	ldr	r2, [pc, #40]	@ (8003580 <LoopForever+0x12>)
 8003558:	4c0a      	ldr	r4, [pc, #40]	@ (8003584 <LoopForever+0x16>)
 800355a:	2300      	movs	r3, #0
 800355c:	e001      	b.n	8003562 <LoopFillZerobss>

0800355e <FillZerobss>:
 800355e:	6013      	str	r3, [r2, #0]
 8003560:	3204      	adds	r2, #4

08003562 <LoopFillZerobss>:
 8003562:	42a2      	cmp	r2, r4
 8003564:	d3fb      	bcc.n	800355e <FillZerobss>
 8003566:	f004 fc4b 	bl	8007e00 <__libc_init_array>
 800356a:	f7ff f8ef 	bl	800274c <main>

0800356e <LoopForever>:
 800356e:	e7fe      	b.n	800356e <LoopForever>
 8003570:	20002000 	.word	0x20002000
 8003574:	20000000 	.word	0x20000000
 8003578:	2000044c 	.word	0x2000044c
 800357c:	080089d4 	.word	0x080089d4
 8003580:	20000450 	.word	0x20000450
 8003584:	20000cd4 	.word	0x20000cd4

08003588 <ADC1_IRQHandler>:
 8003588:	e7fe      	b.n	8003588 <ADC1_IRQHandler>
	...

0800358c <HAL_InitTick>:
 800358c:	b570      	push	{r4, r5, r6, lr}
 800358e:	4b0f      	ldr	r3, [pc, #60]	@ (80035cc <HAL_InitTick+0x40>)
 8003590:	0004      	movs	r4, r0
 8003592:	7819      	ldrb	r1, [r3, #0]
 8003594:	2900      	cmp	r1, #0
 8003596:	d101      	bne.n	800359c <HAL_InitTick+0x10>
 8003598:	2001      	movs	r0, #1
 800359a:	bd70      	pop	{r4, r5, r6, pc}
 800359c:	20fa      	movs	r0, #250	@ 0xfa
 800359e:	0080      	lsls	r0, r0, #2
 80035a0:	f7fc fdb0 	bl	8000104 <__udivsi3>
 80035a4:	4d0a      	ldr	r5, [pc, #40]	@ (80035d0 <HAL_InitTick+0x44>)
 80035a6:	0001      	movs	r1, r0
 80035a8:	6828      	ldr	r0, [r5, #0]
 80035aa:	f7fc fdab 	bl	8000104 <__udivsi3>
 80035ae:	f000 fdef 	bl	8004190 <HAL_SYSTICK_Config>
 80035b2:	2800      	cmp	r0, #0
 80035b4:	d1f0      	bne.n	8003598 <HAL_InitTick+0xc>
 80035b6:	2c03      	cmp	r4, #3
 80035b8:	d8ee      	bhi.n	8003598 <HAL_InitTick+0xc>
 80035ba:	3801      	subs	r0, #1
 80035bc:	2200      	movs	r2, #0
 80035be:	0021      	movs	r1, r4
 80035c0:	f000 fda0 	bl	8004104 <HAL_NVIC_SetPriority>
 80035c4:	4b03      	ldr	r3, [pc, #12]	@ (80035d4 <HAL_InitTick+0x48>)
 80035c6:	2000      	movs	r0, #0
 80035c8:	601c      	str	r4, [r3, #0]
 80035ca:	e7e6      	b.n	800359a <HAL_InitTick+0xe>
 80035cc:	20000444 	.word	0x20000444
 80035d0:	20000440 	.word	0x20000440
 80035d4:	20000448 	.word	0x20000448

080035d8 <HAL_Init>:
 80035d8:	2380      	movs	r3, #128	@ 0x80
 80035da:	4a08      	ldr	r2, [pc, #32]	@ (80035fc <HAL_Init+0x24>)
 80035dc:	005b      	lsls	r3, r3, #1
 80035de:	6811      	ldr	r1, [r2, #0]
 80035e0:	b510      	push	{r4, lr}
 80035e2:	430b      	orrs	r3, r1
 80035e4:	2000      	movs	r0, #0
 80035e6:	6013      	str	r3, [r2, #0]
 80035e8:	f7ff ffd0 	bl	800358c <HAL_InitTick>
 80035ec:	1e04      	subs	r4, r0, #0
 80035ee:	d002      	beq.n	80035f6 <HAL_Init+0x1e>
 80035f0:	2401      	movs	r4, #1
 80035f2:	0020      	movs	r0, r4
 80035f4:	bd10      	pop	{r4, pc}
 80035f6:	f7ff fb6f 	bl	8002cd8 <HAL_MspInit>
 80035fa:	e7fa      	b.n	80035f2 <HAL_Init+0x1a>
 80035fc:	40022000 	.word	0x40022000

08003600 <HAL_IncTick>:
 8003600:	4a03      	ldr	r2, [pc, #12]	@ (8003610 <HAL_IncTick+0x10>)
 8003602:	4b04      	ldr	r3, [pc, #16]	@ (8003614 <HAL_IncTick+0x14>)
 8003604:	6811      	ldr	r1, [r2, #0]
 8003606:	781b      	ldrb	r3, [r3, #0]
 8003608:	185b      	adds	r3, r3, r1
 800360a:	6013      	str	r3, [r2, #0]
 800360c:	4770      	bx	lr
 800360e:	46c0      	nop			@ (mov r8, r8)
 8003610:	20000cd0 	.word	0x20000cd0
 8003614:	20000444 	.word	0x20000444

08003618 <HAL_GetTick>:
 8003618:	4b01      	ldr	r3, [pc, #4]	@ (8003620 <HAL_GetTick+0x8>)
 800361a:	6818      	ldr	r0, [r3, #0]
 800361c:	4770      	bx	lr
 800361e:	46c0      	nop			@ (mov r8, r8)
 8003620:	20000cd0 	.word	0x20000cd0

08003624 <ADC_DMAConvCplt>:
 8003624:	2150      	movs	r1, #80	@ 0x50
 8003626:	0003      	movs	r3, r0
 8003628:	6a80      	ldr	r0, [r0, #40]	@ 0x28
 800362a:	b510      	push	{r4, lr}
 800362c:	6d82      	ldr	r2, [r0, #88]	@ 0x58
 800362e:	4211      	tst	r1, r2
 8003630:	d10d      	bne.n	800364e <ADC_DMAConvCplt+0x2a>
 8003632:	2380      	movs	r3, #128	@ 0x80
 8003634:	6d82      	ldr	r2, [r0, #88]	@ 0x58
 8003636:	009b      	lsls	r3, r3, #2
 8003638:	4313      	orrs	r3, r2
 800363a:	22c0      	movs	r2, #192	@ 0xc0
 800363c:	6583      	str	r3, [r0, #88]	@ 0x58
 800363e:	6803      	ldr	r3, [r0, #0]
 8003640:	0112      	lsls	r2, r2, #4
 8003642:	68d9      	ldr	r1, [r3, #12]
 8003644:	4211      	tst	r1, r2
 8003646:	d00d      	beq.n	8003664 <ADC_DMAConvCplt+0x40>
 8003648:	6e43      	ldr	r3, [r0, #100]	@ 0x64
 800364a:	4798      	blx	r3
 800364c:	bd10      	pop	{r4, pc}
 800364e:	6d82      	ldr	r2, [r0, #88]	@ 0x58
 8003650:	06d2      	lsls	r2, r2, #27
 8003652:	d502      	bpl.n	800365a <ADC_DMAConvCplt+0x36>
 8003654:	6f03      	ldr	r3, [r0, #112]	@ 0x70
 8003656:	4798      	blx	r3
 8003658:	e7f8      	b.n	800364c <ADC_DMAConvCplt+0x28>
 800365a:	6d02      	ldr	r2, [r0, #80]	@ 0x50
 800365c:	0018      	movs	r0, r3
 800365e:	6b52      	ldr	r2, [r2, #52]	@ 0x34
 8003660:	4790      	blx	r2
 8003662:	e7f3      	b.n	800364c <ADC_DMAConvCplt+0x28>
 8003664:	7e82      	ldrb	r2, [r0, #26]
 8003666:	2a00      	cmp	r2, #0
 8003668:	d1ee      	bne.n	8003648 <ADC_DMAConvCplt+0x24>
 800366a:	681a      	ldr	r2, [r3, #0]
 800366c:	0712      	lsls	r2, r2, #28
 800366e:	d5eb      	bpl.n	8003648 <ADC_DMAConvCplt+0x24>
 8003670:	689a      	ldr	r2, [r3, #8]
 8003672:	0752      	lsls	r2, r2, #29
 8003674:	d508      	bpl.n	8003688 <ADC_DMAConvCplt+0x64>
 8003676:	2220      	movs	r2, #32
 8003678:	6d83      	ldr	r3, [r0, #88]	@ 0x58
 800367a:	4313      	orrs	r3, r2
 800367c:	6583      	str	r3, [r0, #88]	@ 0x58
 800367e:	6dc3      	ldr	r3, [r0, #92]	@ 0x5c
 8003680:	3a1f      	subs	r2, #31
 8003682:	4313      	orrs	r3, r2
 8003684:	65c3      	str	r3, [r0, #92]	@ 0x5c
 8003686:	e7df      	b.n	8003648 <ADC_DMAConvCplt+0x24>
 8003688:	210c      	movs	r1, #12
 800368a:	685a      	ldr	r2, [r3, #4]
 800368c:	438a      	bics	r2, r1
 800368e:	605a      	str	r2, [r3, #4]
 8003690:	6d83      	ldr	r3, [r0, #88]	@ 0x58
 8003692:	4a03      	ldr	r2, [pc, #12]	@ (80036a0 <ADC_DMAConvCplt+0x7c>)
 8003694:	4013      	ands	r3, r2
 8003696:	3204      	adds	r2, #4
 8003698:	32ff      	adds	r2, #255	@ 0xff
 800369a:	4313      	orrs	r3, r2
 800369c:	6583      	str	r3, [r0, #88]	@ 0x58
 800369e:	e7d3      	b.n	8003648 <ADC_DMAConvCplt+0x24>
 80036a0:	fffffefe 	.word	0xfffffefe

080036a4 <ADC_DMAHalfConvCplt>:
 80036a4:	b510      	push	{r4, lr}
 80036a6:	6a80      	ldr	r0, [r0, #40]	@ 0x28
 80036a8:	6e83      	ldr	r3, [r0, #104]	@ 0x68
 80036aa:	4798      	blx	r3
 80036ac:	bd10      	pop	{r4, pc}
 80036ae:	46c0      	nop			@ (mov r8, r8)

080036b0 <ADC_DMAError>:
 80036b0:	2240      	movs	r2, #64	@ 0x40
 80036b2:	6a80      	ldr	r0, [r0, #40]	@ 0x28
 80036b4:	b510      	push	{r4, lr}
 80036b6:	6d83      	ldr	r3, [r0, #88]	@ 0x58
 80036b8:	4313      	orrs	r3, r2
 80036ba:	6583      	str	r3, [r0, #88]	@ 0x58
 80036bc:	6dc3      	ldr	r3, [r0, #92]	@ 0x5c
 80036be:	3a3c      	subs	r2, #60	@ 0x3c
 80036c0:	4313      	orrs	r3, r2
 80036c2:	65c3      	str	r3, [r0, #92]	@ 0x5c
 80036c4:	6f03      	ldr	r3, [r0, #112]	@ 0x70
 80036c6:	4798      	blx	r3
 80036c8:	bd10      	pop	{r4, pc}
 80036ca:	46c0      	nop			@ (mov r8, r8)

080036cc <HAL_ADC_ErrorCallback>:
 80036cc:	4770      	bx	lr
 80036ce:	46c0      	nop			@ (mov r8, r8)

080036d0 <HAL_ADC_ConvCpltCallback>:
 80036d0:	4770      	bx	lr
 80036d2:	46c0      	nop			@ (mov r8, r8)

080036d4 <HAL_ADC_ConvHalfCpltCallback>:
 80036d4:	4770      	bx	lr
 80036d6:	46c0      	nop			@ (mov r8, r8)

080036d8 <HAL_ADC_LevelOutOfWindowCallback>:
 80036d8:	4770      	bx	lr
 80036da:	46c0      	nop			@ (mov r8, r8)

080036dc <HAL_ADC_Init>:
 80036dc:	b5f0      	push	{r4, r5, r6, r7, lr}
 80036de:	46d6      	mov	lr, sl
 80036e0:	464f      	mov	r7, r9
 80036e2:	4646      	mov	r6, r8
 80036e4:	2300      	movs	r3, #0
 80036e6:	b5c0      	push	{r6, r7, lr}
 80036e8:	b082      	sub	sp, #8
 80036ea:	1e04      	subs	r4, r0, #0
 80036ec:	9301      	str	r3, [sp, #4]
 80036ee:	d044      	beq.n	800377a <HAL_ADC_Init+0x9e>
 80036f0:	6d83      	ldr	r3, [r0, #88]	@ 0x58
 80036f2:	2b00      	cmp	r3, #0
 80036f4:	d118      	bne.n	8003728 <HAL_ADC_Init+0x4c>
 80036f6:	2280      	movs	r2, #128	@ 0x80
 80036f8:	4b89      	ldr	r3, [pc, #548]	@ (8003920 <HAL_ADC_Init+0x244>)
 80036fa:	6643      	str	r3, [r0, #100]	@ 0x64
 80036fc:	4b89      	ldr	r3, [pc, #548]	@ (8003924 <HAL_ADC_Init+0x248>)
 80036fe:	6683      	str	r3, [r0, #104]	@ 0x68
 8003700:	4b89      	ldr	r3, [pc, #548]	@ (8003928 <HAL_ADC_Init+0x24c>)
 8003702:	66c3      	str	r3, [r0, #108]	@ 0x6c
 8003704:	4b89      	ldr	r3, [pc, #548]	@ (800392c <HAL_ADC_Init+0x250>)
 8003706:	6703      	str	r3, [r0, #112]	@ 0x70
 8003708:	4b89      	ldr	r3, [pc, #548]	@ (8003930 <HAL_ADC_Init+0x254>)
 800370a:	6743      	str	r3, [r0, #116]	@ 0x74
 800370c:	4b89      	ldr	r3, [pc, #548]	@ (8003934 <HAL_ADC_Init+0x258>)
 800370e:	6783      	str	r3, [r0, #120]	@ 0x78
 8003710:	4b89      	ldr	r3, [pc, #548]	@ (8003938 <HAL_ADC_Init+0x25c>)
 8003712:	67c3      	str	r3, [r0, #124]	@ 0x7c
 8003714:	5883      	ldr	r3, [r0, r2]
 8003716:	2b00      	cmp	r3, #0
 8003718:	d100      	bne.n	800371c <HAL_ADC_Init+0x40>
 800371a:	e0e3      	b.n	80038e4 <HAL_ADC_Init+0x208>
 800371c:	0020      	movs	r0, r4
 800371e:	4798      	blx	r3
 8003720:	2300      	movs	r3, #0
 8003722:	2254      	movs	r2, #84	@ 0x54
 8003724:	65e3      	str	r3, [r4, #92]	@ 0x5c
 8003726:	54a3      	strb	r3, [r4, r2]
 8003728:	2380      	movs	r3, #128	@ 0x80
 800372a:	6825      	ldr	r5, [r4, #0]
 800372c:	055b      	lsls	r3, r3, #21
 800372e:	68aa      	ldr	r2, [r5, #8]
 8003730:	421a      	tst	r2, r3
 8003732:	d115      	bne.n	8003760 <HAL_ADC_Init+0x84>
 8003734:	68aa      	ldr	r2, [r5, #8]
 8003736:	4981      	ldr	r1, [pc, #516]	@ (800393c <HAL_ADC_Init+0x260>)
 8003738:	400a      	ands	r2, r1
 800373a:	4313      	orrs	r3, r2
 800373c:	60ab      	str	r3, [r5, #8]
 800373e:	4b80      	ldr	r3, [pc, #512]	@ (8003940 <HAL_ADC_Init+0x264>)
 8003740:	4980      	ldr	r1, [pc, #512]	@ (8003944 <HAL_ADC_Init+0x268>)
 8003742:	6818      	ldr	r0, [r3, #0]
 8003744:	f7fc fcde 	bl	8000104 <__udivsi3>
 8003748:	3001      	adds	r0, #1
 800374a:	0040      	lsls	r0, r0, #1
 800374c:	9001      	str	r0, [sp, #4]
 800374e:	9b01      	ldr	r3, [sp, #4]
 8003750:	2b00      	cmp	r3, #0
 8003752:	d005      	beq.n	8003760 <HAL_ADC_Init+0x84>
 8003754:	9b01      	ldr	r3, [sp, #4]
 8003756:	3b01      	subs	r3, #1
 8003758:	9301      	str	r3, [sp, #4]
 800375a:	9b01      	ldr	r3, [sp, #4]
 800375c:	2b00      	cmp	r3, #0
 800375e:	d1f9      	bne.n	8003754 <HAL_ADC_Init+0x78>
 8003760:	68ab      	ldr	r3, [r5, #8]
 8003762:	2000      	movs	r0, #0
 8003764:	00db      	lsls	r3, r3, #3
 8003766:	d400      	bmi.n	800376a <HAL_ADC_Init+0x8e>
 8003768:	e09d      	b.n	80038a6 <HAL_ADC_Init+0x1ca>
 800376a:	68ab      	ldr	r3, [r5, #8]
 800376c:	075b      	lsls	r3, r3, #29
 800376e:	d50b      	bpl.n	8003788 <HAL_ADC_Init+0xac>
 8003770:	6da3      	ldr	r3, [r4, #88]	@ 0x58
 8003772:	2210      	movs	r2, #16
 8003774:	6da3      	ldr	r3, [r4, #88]	@ 0x58
 8003776:	4313      	orrs	r3, r2
 8003778:	65a3      	str	r3, [r4, #88]	@ 0x58
 800377a:	2001      	movs	r0, #1
 800377c:	b002      	add	sp, #8
 800377e:	bce0      	pop	{r5, r6, r7}
 8003780:	46ba      	mov	sl, r7
 8003782:	46b1      	mov	r9, r6
 8003784:	46a8      	mov	r8, r5
 8003786:	bdf0      	pop	{r4, r5, r6, r7, pc}
 8003788:	6da3      	ldr	r3, [r4, #88]	@ 0x58
 800378a:	06db      	lsls	r3, r3, #27
 800378c:	d4f1      	bmi.n	8003772 <HAL_ADC_Init+0x96>
 800378e:	6da3      	ldr	r3, [r4, #88]	@ 0x58
 8003790:	4a6d      	ldr	r2, [pc, #436]	@ (8003948 <HAL_ADC_Init+0x26c>)
 8003792:	6921      	ldr	r1, [r4, #16]
 8003794:	4013      	ands	r3, r2
 8003796:	3206      	adds	r2, #6
 8003798:	32ff      	adds	r2, #255	@ 0xff
 800379a:	4313      	orrs	r3, r2
 800379c:	65a3      	str	r3, [r4, #88]	@ 0x58
 800379e:	68ab      	ldr	r3, [r5, #8]
 80037a0:	07db      	lsls	r3, r3, #31
 80037a2:	d45c      	bmi.n	800385e <HAL_ADC_Init+0x182>
 80037a4:	6b27      	ldr	r7, [r4, #48]	@ 0x30
 80037a6:	68a2      	ldr	r2, [r4, #8]
 80037a8:	1e7b      	subs	r3, r7, #1
 80037aa:	419f      	sbcs	r7, r3
 80037ac:	68e3      	ldr	r3, [r4, #12]
 80037ae:	7ea6      	ldrb	r6, [r4, #26]
 80037b0:	431a      	orrs	r2, r3
 80037b2:	7e23      	ldrb	r3, [r4, #24]
 80037b4:	033f      	lsls	r7, r7, #12
 80037b6:	039b      	lsls	r3, r3, #14
 80037b8:	431a      	orrs	r2, r3
 80037ba:	7e63      	ldrb	r3, [r4, #25]
 80037bc:	03db      	lsls	r3, r3, #15
 80037be:	431a      	orrs	r2, r3
 80037c0:	0373      	lsls	r3, r6, #13
 80037c2:	431a      	orrs	r2, r3
 80037c4:	2900      	cmp	r1, #0
 80037c6:	da00      	bge.n	80037ca <HAL_ADC_Init+0xee>
 80037c8:	e098      	b.n	80038fc <HAL_ADC_Init+0x220>
 80037ca:	2380      	movs	r3, #128	@ 0x80
 80037cc:	039b      	lsls	r3, r3, #14
 80037ce:	469c      	mov	ip, r3
 80037d0:	232c      	movs	r3, #44	@ 0x2c
 80037d2:	5ce3      	ldrb	r3, [r4, r3]
 80037d4:	005b      	lsls	r3, r3, #1
 80037d6:	4313      	orrs	r3, r2
 80037d8:	433b      	orrs	r3, r7
 80037da:	4662      	mov	r2, ip
 80037dc:	2720      	movs	r7, #32
 80037de:	4313      	orrs	r3, r2
 80037e0:	5de2      	ldrb	r2, [r4, r7]
 80037e2:	2a01      	cmp	r2, #1
 80037e4:	d100      	bne.n	80037e8 <HAL_ADC_Init+0x10c>
 80037e6:	e08d      	b.n	8003904 <HAL_ADC_Init+0x228>
 80037e8:	6a62      	ldr	r2, [r4, #36]	@ 0x24
 80037ea:	2a00      	cmp	r2, #0
 80037ec:	d005      	beq.n	80037fa <HAL_ADC_Init+0x11e>
 80037ee:	26e0      	movs	r6, #224	@ 0xe0
 80037f0:	0076      	lsls	r6, r6, #1
 80037f2:	4032      	ands	r2, r6
 80037f4:	6aa6      	ldr	r6, [r4, #40]	@ 0x28
 80037f6:	4332      	orrs	r2, r6
 80037f8:	4313      	orrs	r3, r2
 80037fa:	273c      	movs	r7, #60	@ 0x3c
 80037fc:	68ea      	ldr	r2, [r5, #12]
 80037fe:	4e53      	ldr	r6, [pc, #332]	@ (800394c <HAL_ADC_Init+0x270>)
 8003800:	4032      	ands	r2, r6
 8003802:	4313      	orrs	r3, r2
 8003804:	6866      	ldr	r6, [r4, #4]
 8003806:	60eb      	str	r3, [r5, #12]
 8003808:	6ce2      	ldr	r2, [r4, #76]	@ 0x4c
 800380a:	5de7      	ldrb	r7, [r4, r7]
 800380c:	0fb3      	lsrs	r3, r6, #30
 800380e:	079b      	lsls	r3, r3, #30
 8003810:	469a      	mov	sl, r3
 8003812:	46bc      	mov	ip, r7
 8003814:	431a      	orrs	r2, r3
 8003816:	2f01      	cmp	r7, #1
 8003818:	d109      	bne.n	800382e <HAL_ADC_Init+0x152>
 800381a:	6c67      	ldr	r7, [r4, #68]	@ 0x44
 800381c:	6c23      	ldr	r3, [r4, #64]	@ 0x40
 800381e:	433b      	orrs	r3, r7
 8003820:	431a      	orrs	r2, r3
 8003822:	4653      	mov	r3, sl
 8003824:	6ca7      	ldr	r7, [r4, #72]	@ 0x48
 8003826:	433a      	orrs	r2, r7
 8003828:	431a      	orrs	r2, r3
 800382a:	4663      	mov	r3, ip
 800382c:	431a      	orrs	r2, r3
 800382e:	692b      	ldr	r3, [r5, #16]
 8003830:	4f47      	ldr	r7, [pc, #284]	@ (8003950 <HAL_ADC_Init+0x274>)
 8003832:	403b      	ands	r3, r7
 8003834:	4313      	orrs	r3, r2
 8003836:	2280      	movs	r2, #128	@ 0x80
 8003838:	612b      	str	r3, [r5, #16]
 800383a:	0073      	lsls	r3, r6, #1
 800383c:	085b      	lsrs	r3, r3, #1
 800383e:	05d2      	lsls	r2, r2, #23
 8003840:	4293      	cmp	r3, r2
 8003842:	d00c      	beq.n	800385e <HAL_ADC_Init+0x182>
 8003844:	2380      	movs	r3, #128	@ 0x80
 8003846:	061b      	lsls	r3, r3, #24
 8003848:	429e      	cmp	r6, r3
 800384a:	d008      	beq.n	800385e <HAL_ADC_Init+0x182>
 800384c:	4a41      	ldr	r2, [pc, #260]	@ (8003954 <HAL_ADC_Init+0x278>)
 800384e:	4f42      	ldr	r7, [pc, #264]	@ (8003958 <HAL_ADC_Init+0x27c>)
 8003850:	6813      	ldr	r3, [r2, #0]
 8003852:	403b      	ands	r3, r7
 8003854:	27f0      	movs	r7, #240	@ 0xf0
 8003856:	03bf      	lsls	r7, r7, #14
 8003858:	403e      	ands	r6, r7
 800385a:	4333      	orrs	r3, r6
 800385c:	6013      	str	r3, [r2, #0]
 800385e:	2607      	movs	r6, #7
 8003860:	2770      	movs	r7, #112	@ 0x70
 8003862:	696b      	ldr	r3, [r5, #20]
 8003864:	6b62      	ldr	r2, [r4, #52]	@ 0x34
 8003866:	43b3      	bics	r3, r6
 8003868:	4313      	orrs	r3, r2
 800386a:	616b      	str	r3, [r5, #20]
 800386c:	696e      	ldr	r6, [r5, #20]
 800386e:	6ba3      	ldr	r3, [r4, #56]	@ 0x38
 8003870:	43be      	bics	r6, r7
 8003872:	011b      	lsls	r3, r3, #4
 8003874:	4333      	orrs	r3, r6
 8003876:	616b      	str	r3, [r5, #20]
 8003878:	2900      	cmp	r1, #0
 800387a:	d122      	bne.n	80038c2 <HAL_ADC_Init+0x1e6>
 800387c:	2310      	movs	r3, #16
 800387e:	6aa9      	ldr	r1, [r5, #40]	@ 0x28
 8003880:	425b      	negs	r3, r3
 8003882:	430b      	orrs	r3, r1
 8003884:	62ab      	str	r3, [r5, #40]	@ 0x28
 8003886:	2307      	movs	r3, #7
 8003888:	6969      	ldr	r1, [r5, #20]
 800388a:	400b      	ands	r3, r1
 800388c:	429a      	cmp	r2, r3
 800388e:	d02c      	beq.n	80038ea <HAL_ADC_Init+0x20e>
 8003890:	2212      	movs	r2, #18
 8003892:	6da3      	ldr	r3, [r4, #88]	@ 0x58
 8003894:	4393      	bics	r3, r2
 8003896:	3a02      	subs	r2, #2
 8003898:	4313      	orrs	r3, r2
 800389a:	65a3      	str	r3, [r4, #88]	@ 0x58
 800389c:	6de3      	ldr	r3, [r4, #92]	@ 0x5c
 800389e:	3a0f      	subs	r2, #15
 80038a0:	4313      	orrs	r3, r2
 80038a2:	65e3      	str	r3, [r4, #92]	@ 0x5c
 80038a4:	e769      	b.n	800377a <HAL_ADC_Init+0x9e>
 80038a6:	2210      	movs	r2, #16
 80038a8:	6da3      	ldr	r3, [r4, #88]	@ 0x58
 80038aa:	2001      	movs	r0, #1
 80038ac:	4313      	orrs	r3, r2
 80038ae:	65a3      	str	r3, [r4, #88]	@ 0x58
 80038b0:	6de3      	ldr	r3, [r4, #92]	@ 0x5c
 80038b2:	3a0f      	subs	r2, #15
 80038b4:	4313      	orrs	r3, r2
 80038b6:	65e3      	str	r3, [r4, #92]	@ 0x5c
 80038b8:	68ab      	ldr	r3, [r5, #8]
 80038ba:	075b      	lsls	r3, r3, #29
 80038bc:	d400      	bmi.n	80038c0 <HAL_ADC_Init+0x1e4>
 80038be:	e763      	b.n	8003788 <HAL_ADC_Init+0xac>
 80038c0:	e756      	b.n	8003770 <HAL_ADC_Init+0x94>
 80038c2:	2380      	movs	r3, #128	@ 0x80
 80038c4:	039b      	lsls	r3, r3, #14
 80038c6:	4299      	cmp	r1, r3
 80038c8:	d1dd      	bne.n	8003886 <HAL_ADC_Init+0x1aa>
 80038ca:	211c      	movs	r1, #28
 80038cc:	6aab      	ldr	r3, [r5, #40]	@ 0x28
 80038ce:	69e3      	ldr	r3, [r4, #28]
 80038d0:	3b01      	subs	r3, #1
 80038d2:	009b      	lsls	r3, r3, #2
 80038d4:	4019      	ands	r1, r3
 80038d6:	2310      	movs	r3, #16
 80038d8:	425b      	negs	r3, r3
 80038da:	408b      	lsls	r3, r1
 80038dc:	6e21      	ldr	r1, [r4, #96]	@ 0x60
 80038de:	430b      	orrs	r3, r1
 80038e0:	62ab      	str	r3, [r5, #40]	@ 0x28
 80038e2:	e7d0      	b.n	8003886 <HAL_ADC_Init+0x1aa>
 80038e4:	4b1d      	ldr	r3, [pc, #116]	@ (800395c <HAL_ADC_Init+0x280>)
 80038e6:	5083      	str	r3, [r0, r2]
 80038e8:	e718      	b.n	800371c <HAL_ADC_Init+0x40>
 80038ea:	2300      	movs	r3, #0
 80038ec:	2203      	movs	r2, #3
 80038ee:	65e3      	str	r3, [r4, #92]	@ 0x5c
 80038f0:	6da3      	ldr	r3, [r4, #88]	@ 0x58
 80038f2:	4393      	bics	r3, r2
 80038f4:	3a02      	subs	r2, #2
 80038f6:	4313      	orrs	r3, r2
 80038f8:	65a3      	str	r3, [r4, #88]	@ 0x58
 80038fa:	e73f      	b.n	800377c <HAL_ADC_Init+0xa0>
 80038fc:	004b      	lsls	r3, r1, #1
 80038fe:	085b      	lsrs	r3, r3, #1
 8003900:	469c      	mov	ip, r3
 8003902:	e765      	b.n	80037d0 <HAL_ADC_Init+0xf4>
 8003904:	2e00      	cmp	r6, #0
 8003906:	d103      	bne.n	8003910 <HAL_ADC_Init+0x234>
 8003908:	2280      	movs	r2, #128	@ 0x80
 800390a:	0252      	lsls	r2, r2, #9
 800390c:	4313      	orrs	r3, r2
 800390e:	e76b      	b.n	80037e8 <HAL_ADC_Init+0x10c>
 8003910:	6da6      	ldr	r6, [r4, #88]	@ 0x58
 8003912:	433e      	orrs	r6, r7
 8003914:	65a6      	str	r6, [r4, #88]	@ 0x58
 8003916:	6de6      	ldr	r6, [r4, #92]	@ 0x5c
 8003918:	4332      	orrs	r2, r6
 800391a:	65e2      	str	r2, [r4, #92]	@ 0x5c
 800391c:	e764      	b.n	80037e8 <HAL_ADC_Init+0x10c>
 800391e:	46c0      	nop			@ (mov r8, r8)
 8003920:	080036d1 	.word	0x080036d1
 8003924:	080036d5 	.word	0x080036d5
 8003928:	080036d9 	.word	0x080036d9
 800392c:	080036cd 	.word	0x080036cd
 8003930:	080040f9 	.word	0x080040f9
 8003934:	080040fd 	.word	0x080040fd
 8003938:	08004101 	.word	0x08004101
 800393c:	6fffffe8 	.word	0x6fffffe8
 8003940:	20000440 	.word	0x20000440
 8003944:	00030d40 	.word	0x00030d40
 8003948:	fffffefd 	.word	0xfffffefd
 800394c:	ffde0201 	.word	0xffde0201
 8003950:	1ffffc02 	.word	0x1ffffc02
 8003954:	40012708 	.word	0x40012708
 8003958:	ffc3ffff 	.word	0xffc3ffff
 800395c:	08002d09 	.word	0x08002d09

08003960 <HAL_ADC_RegisterCallback>:
 8003960:	2a00      	cmp	r2, #0
 8003962:	d013      	beq.n	800398c <HAL_ADC_RegisterCallback+0x2c>
 8003964:	6d83      	ldr	r3, [r0, #88]	@ 0x58
 8003966:	07db      	lsls	r3, r3, #31
 8003968:	d505      	bpl.n	8003976 <HAL_ADC_RegisterCallback+0x16>
 800396a:	290a      	cmp	r1, #10
 800396c:	d80e      	bhi.n	800398c <HAL_ADC_RegisterCallback+0x2c>
 800396e:	4b17      	ldr	r3, [pc, #92]	@ (80039cc <HAL_ADC_RegisterCallback+0x6c>)
 8003970:	0089      	lsls	r1, r1, #2
 8003972:	585b      	ldr	r3, [r3, r1]
 8003974:	469f      	mov	pc, r3
 8003976:	6d83      	ldr	r3, [r0, #88]	@ 0x58
 8003978:	2b00      	cmp	r3, #0
 800397a:	d107      	bne.n	800398c <HAL_ADC_RegisterCallback+0x2c>
 800397c:	2909      	cmp	r1, #9
 800397e:	d00b      	beq.n	8003998 <HAL_ADC_RegisterCallback+0x38>
 8003980:	290a      	cmp	r1, #10
 8003982:	d103      	bne.n	800398c <HAL_ADC_RegisterCallback+0x2c>
 8003984:	2384      	movs	r3, #132	@ 0x84
 8003986:	50c2      	str	r2, [r0, r3]
 8003988:	2000      	movs	r0, #0
 800398a:	e004      	b.n	8003996 <HAL_ADC_RegisterCallback+0x36>
 800398c:	2210      	movs	r2, #16
 800398e:	6dc3      	ldr	r3, [r0, #92]	@ 0x5c
 8003990:	4313      	orrs	r3, r2
 8003992:	65c3      	str	r3, [r0, #92]	@ 0x5c
 8003994:	2001      	movs	r0, #1
 8003996:	4770      	bx	lr
 8003998:	2380      	movs	r3, #128	@ 0x80
 800399a:	50c2      	str	r2, [r0, r3]
 800399c:	2000      	movs	r0, #0
 800399e:	e7fa      	b.n	8003996 <HAL_ADC_RegisterCallback+0x36>
 80039a0:	6702      	str	r2, [r0, #112]	@ 0x70
 80039a2:	2000      	movs	r0, #0
 80039a4:	e7f7      	b.n	8003996 <HAL_ADC_RegisterCallback+0x36>
 80039a6:	6742      	str	r2, [r0, #116]	@ 0x74
 80039a8:	2000      	movs	r0, #0
 80039aa:	e7f4      	b.n	8003996 <HAL_ADC_RegisterCallback+0x36>
 80039ac:	6782      	str	r2, [r0, #120]	@ 0x78
 80039ae:	2000      	movs	r0, #0
 80039b0:	e7f1      	b.n	8003996 <HAL_ADC_RegisterCallback+0x36>
 80039b2:	67c2      	str	r2, [r0, #124]	@ 0x7c
 80039b4:	2000      	movs	r0, #0
 80039b6:	e7ee      	b.n	8003996 <HAL_ADC_RegisterCallback+0x36>
 80039b8:	6682      	str	r2, [r0, #104]	@ 0x68
 80039ba:	2000      	movs	r0, #0
 80039bc:	e7eb      	b.n	8003996 <HAL_ADC_RegisterCallback+0x36>
 80039be:	66c2      	str	r2, [r0, #108]	@ 0x6c
 80039c0:	2000      	movs	r0, #0
 80039c2:	e7e8      	b.n	8003996 <HAL_ADC_RegisterCallback+0x36>
 80039c4:	6642      	str	r2, [r0, #100]	@ 0x64
 80039c6:	2000      	movs	r0, #0
 80039c8:	e7e5      	b.n	8003996 <HAL_ADC_RegisterCallback+0x36>
 80039ca:	46c0      	nop			@ (mov r8, r8)
 80039cc:	0800870c 	.word	0x0800870c

080039d0 <HAL_ADC_ConfigChannel>:
 80039d0:	b5f0      	push	{r4, r5, r6, r7, lr}
 80039d2:	46de      	mov	lr, fp
 80039d4:	4657      	mov	r7, sl
 80039d6:	464e      	mov	r6, r9
 80039d8:	4645      	mov	r5, r8
 80039da:	2300      	movs	r3, #0
 80039dc:	0004      	movs	r4, r0
 80039de:	b5e0      	push	{r5, r6, r7, lr}
 80039e0:	b085      	sub	sp, #20
 80039e2:	9303      	str	r3, [sp, #12]
 80039e4:	3354      	adds	r3, #84	@ 0x54
 80039e6:	5ce2      	ldrb	r2, [r4, r3]
 80039e8:	6900      	ldr	r0, [r0, #16]
 80039ea:	2a01      	cmp	r2, #1
 80039ec:	d100      	bne.n	80039f0 <HAL_ADC_ConfigChannel+0x20>
 80039ee:	e09a      	b.n	8003b26 <HAL_ADC_ConfigChannel+0x156>
 80039f0:	2201      	movs	r2, #1
 80039f2:	54e2      	strb	r2, [r4, r3]
 80039f4:	6823      	ldr	r3, [r4, #0]
 80039f6:	3203      	adds	r2, #3
 80039f8:	689e      	ldr	r6, [r3, #8]
 80039fa:	4232      	tst	r2, r6
 80039fc:	d00e      	beq.n	8003a1c <HAL_ADC_ConfigChannel+0x4c>
 80039fe:	2001      	movs	r0, #1
 8003a00:	6da3      	ldr	r3, [r4, #88]	@ 0x58
 8003a02:	321c      	adds	r2, #28
 8003a04:	4313      	orrs	r3, r2
 8003a06:	65a3      	str	r3, [r4, #88]	@ 0x58
 8003a08:	2354      	movs	r3, #84	@ 0x54
 8003a0a:	2200      	movs	r2, #0
 8003a0c:	54e2      	strb	r2, [r4, r3]
 8003a0e:	b005      	add	sp, #20
 8003a10:	bcf0      	pop	{r4, r5, r6, r7}
 8003a12:	46bb      	mov	fp, r7
 8003a14:	46b2      	mov	sl, r6
 8003a16:	46a9      	mov	r9, r5
 8003a18:	46a0      	mov	r8, r4
 8003a1a:	bdf0      	pop	{r4, r5, r6, r7, pc}
 8003a1c:	684e      	ldr	r6, [r1, #4]
 8003a1e:	4390      	bics	r0, r2
 8003a20:	4684      	mov	ip, r0
 8003a22:	6808      	ldr	r0, [r1, #0]
 8003a24:	2e02      	cmp	r6, #2
 8003a26:	d05e      	beq.n	8003ae6 <HAL_ADC_ConfigChannel+0x116>
 8003a28:	0347      	lsls	r7, r0, #13
 8003a2a:	0b7d      	lsrs	r5, r7, #13
 8003a2c:	2780      	movs	r7, #128	@ 0x80
 8003a2e:	9500      	str	r5, [sp, #0]
 8003a30:	063f      	lsls	r7, r7, #24
 8003a32:	45bc      	cmp	ip, r7
 8003a34:	d053      	beq.n	8003ade <HAL_ADC_ConfigChannel+0x10e>
 8003a36:	6e27      	ldr	r7, [r4, #96]	@ 0x60
 8003a38:	46bb      	mov	fp, r7
 8003a3a:	271f      	movs	r7, #31
 8003a3c:	46b8      	mov	r8, r7
 8003a3e:	4037      	ands	r7, r6
 8003a40:	46ba      	mov	sl, r7
 8003a42:	270f      	movs	r7, #15
 8003a44:	4655      	mov	r5, sl
 8003a46:	40af      	lsls	r7, r5
 8003a48:	43fd      	mvns	r5, r7
 8003a4a:	46bc      	mov	ip, r7
 8003a4c:	9501      	str	r5, [sp, #4]
 8003a4e:	465f      	mov	r7, fp
 8003a50:	4665      	mov	r5, ip
 8003a52:	43af      	bics	r7, r5
 8003a54:	9d00      	ldr	r5, [sp, #0]
 8003a56:	46b9      	mov	r9, r7
 8003a58:	2d00      	cmp	r5, #0
 8003a5a:	d166      	bne.n	8003b2a <HAL_ADC_ConfigChannel+0x15a>
 8003a5c:	4645      	mov	r5, r8
 8003a5e:	0e82      	lsrs	r2, r0, #26
 8003a60:	4015      	ands	r5, r2
 8003a62:	002a      	movs	r2, r5
 8003a64:	4655      	mov	r5, sl
 8003a66:	40aa      	lsls	r2, r5
 8003a68:	464d      	mov	r5, r9
 8003a6a:	4315      	orrs	r5, r2
 8003a6c:	46a9      	mov	r9, r5
 8003a6e:	464a      	mov	r2, r9
 8003a70:	08b6      	lsrs	r6, r6, #2
 8003a72:	6622      	str	r2, [r4, #96]	@ 0x60
 8003a74:	69e2      	ldr	r2, [r4, #28]
 8003a76:	3601      	adds	r6, #1
 8003a78:	4296      	cmp	r6, r2
 8003a7a:	d808      	bhi.n	8003a8e <HAL_ADC_ConfigChannel+0xbe>
 8003a7c:	4656      	mov	r6, sl
 8003a7e:	0082      	lsls	r2, r0, #2
 8003a80:	0f12      	lsrs	r2, r2, #28
 8003a82:	40b2      	lsls	r2, r6
 8003a84:	6a9d      	ldr	r5, [r3, #40]	@ 0x28
 8003a86:	9e01      	ldr	r6, [sp, #4]
 8003a88:	4035      	ands	r5, r6
 8003a8a:	432a      	orrs	r2, r5
 8003a8c:	629a      	str	r2, [r3, #40]	@ 0x28
 8003a8e:	0205      	lsls	r5, r0, #8
 8003a90:	688a      	ldr	r2, [r1, #8]
 8003a92:	0029      	movs	r1, r5
 8003a94:	695e      	ldr	r6, [r3, #20]
 8003a96:	402a      	ands	r2, r5
 8003a98:	4d66      	ldr	r5, [pc, #408]	@ (8003c34 <HAL_ADC_ConfigChannel+0x264>)
 8003a9a:	438e      	bics	r6, r1
 8003a9c:	402a      	ands	r2, r5
 8003a9e:	4332      	orrs	r2, r6
 8003aa0:	615a      	str	r2, [r3, #20]
 8003aa2:	2800      	cmp	r0, #0
 8003aa4:	db01      	blt.n	8003aaa <HAL_ADC_ConfigChannel+0xda>
 8003aa6:	2000      	movs	r0, #0
 8003aa8:	e7ae      	b.n	8003a08 <HAL_ADC_ConfigChannel+0x38>
 8003aaa:	21e0      	movs	r1, #224	@ 0xe0
 8003aac:	4d62      	ldr	r5, [pc, #392]	@ (8003c38 <HAL_ADC_ConfigChannel+0x268>)
 8003aae:	4a63      	ldr	r2, [pc, #396]	@ (8003c3c <HAL_ADC_ConfigChannel+0x26c>)
 8003ab0:	682b      	ldr	r3, [r5, #0]
 8003ab2:	0449      	lsls	r1, r1, #17
 8003ab4:	4019      	ands	r1, r3
 8003ab6:	4290      	cmp	r0, r2
 8003ab8:	d04c      	beq.n	8003b54 <HAL_ADC_ConfigChannel+0x184>
 8003aba:	4a61      	ldr	r2, [pc, #388]	@ (8003c40 <HAL_ADC_ConfigChannel+0x270>)
 8003abc:	4290      	cmp	r0, r2
 8003abe:	d040      	beq.n	8003b42 <HAL_ADC_ConfigChannel+0x172>
 8003ac0:	4a60      	ldr	r2, [pc, #384]	@ (8003c44 <HAL_ADC_ConfigChannel+0x274>)
 8003ac2:	4290      	cmp	r0, r2
 8003ac4:	d1ef      	bne.n	8003aa6 <HAL_ADC_ConfigChannel+0xd6>
 8003ac6:	2280      	movs	r2, #128	@ 0x80
 8003ac8:	03d2      	lsls	r2, r2, #15
 8003aca:	4213      	tst	r3, r2
 8003acc:	d1eb      	bne.n	8003aa6 <HAL_ADC_ConfigChannel+0xd6>
 8003ace:	682b      	ldr	r3, [r5, #0]
 8003ad0:	485d      	ldr	r0, [pc, #372]	@ (8003c48 <HAL_ADC_ConfigChannel+0x278>)
 8003ad2:	4003      	ands	r3, r0
 8003ad4:	430b      	orrs	r3, r1
 8003ad6:	431a      	orrs	r2, r3
 8003ad8:	2000      	movs	r0, #0
 8003ada:	602a      	str	r2, [r5, #0]
 8003adc:	e794      	b.n	8003a08 <HAL_ADC_ConfigChannel+0x38>
 8003ade:	6a9a      	ldr	r2, [r3, #40]	@ 0x28
 8003ae0:	432a      	orrs	r2, r5
 8003ae2:	629a      	str	r2, [r3, #40]	@ 0x28
 8003ae4:	e7d3      	b.n	8003a8e <HAL_ADC_ConfigChannel+0xbe>
 8003ae6:	2280      	movs	r2, #128	@ 0x80
 8003ae8:	0612      	lsls	r2, r2, #24
 8003aea:	4594      	cmp	ip, r2
 8003aec:	d104      	bne.n	8003af8 <HAL_ADC_ConfigChannel+0x128>
 8003aee:	6a9a      	ldr	r2, [r3, #40]	@ 0x28
 8003af0:	0341      	lsls	r1, r0, #13
 8003af2:	0b49      	lsrs	r1, r1, #13
 8003af4:	438a      	bics	r2, r1
 8003af6:	629a      	str	r2, [r3, #40]	@ 0x28
 8003af8:	2800      	cmp	r0, #0
 8003afa:	dad4      	bge.n	8003aa6 <HAL_ADC_ConfigChannel+0xd6>
 8003afc:	4a4e      	ldr	r2, [pc, #312]	@ (8003c38 <HAL_ADC_ConfigChannel+0x268>)
 8003afe:	494f      	ldr	r1, [pc, #316]	@ (8003c3c <HAL_ADC_ConfigChannel+0x26c>)
 8003b00:	6813      	ldr	r3, [r2, #0]
 8003b02:	4288      	cmp	r0, r1
 8003b04:	d023      	beq.n	8003b4e <HAL_ADC_ConfigChannel+0x17e>
 8003b06:	494e      	ldr	r1, [pc, #312]	@ (8003c40 <HAL_ADC_ConfigChannel+0x270>)
 8003b08:	4288      	cmp	r0, r1
 8003b0a:	d04a      	beq.n	8003ba2 <HAL_ADC_ConfigChannel+0x1d2>
 8003b0c:	494d      	ldr	r1, [pc, #308]	@ (8003c44 <HAL_ADC_ConfigChannel+0x274>)
 8003b0e:	4288      	cmp	r0, r1
 8003b10:	d1c9      	bne.n	8003aa6 <HAL_ADC_ConfigChannel+0xd6>
 8003b12:	20c0      	movs	r0, #192	@ 0xc0
 8003b14:	6811      	ldr	r1, [r2, #0]
 8003b16:	0440      	lsls	r0, r0, #17
 8003b18:	4003      	ands	r3, r0
 8003b1a:	484b      	ldr	r0, [pc, #300]	@ (8003c48 <HAL_ADC_ConfigChannel+0x278>)
 8003b1c:	4001      	ands	r1, r0
 8003b1e:	430b      	orrs	r3, r1
 8003b20:	2000      	movs	r0, #0
 8003b22:	6013      	str	r3, [r2, #0]
 8003b24:	e770      	b.n	8003a08 <HAL_ADC_ConfigChannel+0x38>
 8003b26:	2002      	movs	r0, #2
 8003b28:	e771      	b.n	8003a0e <HAL_ADC_ConfigChannel+0x3e>
 8003b2a:	2501      	movs	r5, #1
 8003b2c:	4205      	tst	r5, r0
 8003b2e:	d19e      	bne.n	8003a6e <HAL_ADC_ConfigChannel+0x9e>
 8003b30:	2702      	movs	r7, #2
 8003b32:	4207      	tst	r7, r0
 8003b34:	d02d      	beq.n	8003b92 <HAL_ADC_ConfigChannel+0x1c2>
 8003b36:	4652      	mov	r2, sl
 8003b38:	4095      	lsls	r5, r2
 8003b3a:	464a      	mov	r2, r9
 8003b3c:	432a      	orrs	r2, r5
 8003b3e:	4691      	mov	r9, r2
 8003b40:	e795      	b.n	8003a6e <HAL_ADC_ConfigChannel+0x9e>
 8003b42:	2280      	movs	r2, #128	@ 0x80
 8003b44:	0452      	lsls	r2, r2, #17
 8003b46:	4213      	tst	r3, r2
 8003b48:	d0c1      	beq.n	8003ace <HAL_ADC_ConfigChannel+0xfe>
 8003b4a:	2000      	movs	r0, #0
 8003b4c:	e75c      	b.n	8003a08 <HAL_ADC_ConfigChannel+0x38>
 8003b4e:	20a0      	movs	r0, #160	@ 0xa0
 8003b50:	6811      	ldr	r1, [r2, #0]
 8003b52:	e7e0      	b.n	8003b16 <HAL_ADC_ConfigChannel+0x146>
 8003b54:	2280      	movs	r2, #128	@ 0x80
 8003b56:	0412      	lsls	r2, r2, #16
 8003b58:	4213      	tst	r3, r2
 8003b5a:	d1a4      	bne.n	8003aa6 <HAL_ADC_ConfigChannel+0xd6>
 8003b5c:	682b      	ldr	r3, [r5, #0]
 8003b5e:	483a      	ldr	r0, [pc, #232]	@ (8003c48 <HAL_ADC_ConfigChannel+0x278>)
 8003b60:	4003      	ands	r3, r0
 8003b62:	430b      	orrs	r3, r1
 8003b64:	431a      	orrs	r2, r3
 8003b66:	4b39      	ldr	r3, [pc, #228]	@ (8003c4c <HAL_ADC_ConfigChannel+0x27c>)
 8003b68:	602a      	str	r2, [r5, #0]
 8003b6a:	6818      	ldr	r0, [r3, #0]
 8003b6c:	4938      	ldr	r1, [pc, #224]	@ (8003c50 <HAL_ADC_ConfigChannel+0x280>)
 8003b6e:	f7fc fac9 	bl	8000104 <__udivsi3>
 8003b72:	3001      	adds	r0, #1
 8003b74:	0043      	lsls	r3, r0, #1
 8003b76:	181b      	adds	r3, r3, r0
 8003b78:	009b      	lsls	r3, r3, #2
 8003b7a:	9303      	str	r3, [sp, #12]
 8003b7c:	9b03      	ldr	r3, [sp, #12]
 8003b7e:	2b00      	cmp	r3, #0
 8003b80:	d091      	beq.n	8003aa6 <HAL_ADC_ConfigChannel+0xd6>
 8003b82:	9b03      	ldr	r3, [sp, #12]
 8003b84:	3b01      	subs	r3, #1
 8003b86:	9303      	str	r3, [sp, #12]
 8003b88:	9b03      	ldr	r3, [sp, #12]
 8003b8a:	2b00      	cmp	r3, #0
 8003b8c:	d1f9      	bne.n	8003b82 <HAL_ADC_ConfigChannel+0x1b2>
 8003b8e:	2000      	movs	r0, #0
 8003b90:	e73a      	b.n	8003a08 <HAL_ADC_ConfigChannel+0x38>
 8003b92:	4202      	tst	r2, r0
 8003b94:	d009      	beq.n	8003baa <HAL_ADC_ConfigChannel+0x1da>
 8003b96:	4652      	mov	r2, sl
 8003b98:	4097      	lsls	r7, r2
 8003b9a:	464a      	mov	r2, r9
 8003b9c:	433a      	orrs	r2, r7
 8003b9e:	4691      	mov	r9, r2
 8003ba0:	e765      	b.n	8003a6e <HAL_ADC_ConfigChannel+0x9e>
 8003ba2:	20c0      	movs	r0, #192	@ 0xc0
 8003ba4:	6811      	ldr	r1, [r2, #0]
 8003ba6:	0400      	lsls	r0, r0, #16
 8003ba8:	e7b6      	b.n	8003b18 <HAL_ADC_ConfigChannel+0x148>
 8003baa:	0702      	lsls	r2, r0, #28
 8003bac:	d501      	bpl.n	8003bb2 <HAL_ADC_ConfigChannel+0x1e2>
 8003bae:	2203      	movs	r2, #3
 8003bb0:	e758      	b.n	8003a64 <HAL_ADC_ConfigChannel+0x94>
 8003bb2:	06c2      	lsls	r2, r0, #27
 8003bb4:	d501      	bpl.n	8003bba <HAL_ADC_ConfigChannel+0x1ea>
 8003bb6:	2204      	movs	r2, #4
 8003bb8:	e754      	b.n	8003a64 <HAL_ADC_ConfigChannel+0x94>
 8003bba:	0682      	lsls	r2, r0, #26
 8003bbc:	d501      	bpl.n	8003bc2 <HAL_ADC_ConfigChannel+0x1f2>
 8003bbe:	2205      	movs	r2, #5
 8003bc0:	e750      	b.n	8003a64 <HAL_ADC_ConfigChannel+0x94>
 8003bc2:	0642      	lsls	r2, r0, #25
 8003bc4:	d501      	bpl.n	8003bca <HAL_ADC_ConfigChannel+0x1fa>
 8003bc6:	2206      	movs	r2, #6
 8003bc8:	e74c      	b.n	8003a64 <HAL_ADC_ConfigChannel+0x94>
 8003bca:	0602      	lsls	r2, r0, #24
 8003bcc:	d501      	bpl.n	8003bd2 <HAL_ADC_ConfigChannel+0x202>
 8003bce:	2207      	movs	r2, #7
 8003bd0:	e748      	b.n	8003a64 <HAL_ADC_ConfigChannel+0x94>
 8003bd2:	05c2      	lsls	r2, r0, #23
 8003bd4:	d501      	bpl.n	8003bda <HAL_ADC_ConfigChannel+0x20a>
 8003bd6:	2208      	movs	r2, #8
 8003bd8:	e744      	b.n	8003a64 <HAL_ADC_ConfigChannel+0x94>
 8003bda:	0582      	lsls	r2, r0, #22
 8003bdc:	d501      	bpl.n	8003be2 <HAL_ADC_ConfigChannel+0x212>
 8003bde:	2209      	movs	r2, #9
 8003be0:	e740      	b.n	8003a64 <HAL_ADC_ConfigChannel+0x94>
 8003be2:	0542      	lsls	r2, r0, #21
 8003be4:	d501      	bpl.n	8003bea <HAL_ADC_ConfigChannel+0x21a>
 8003be6:	220a      	movs	r2, #10
 8003be8:	e73c      	b.n	8003a64 <HAL_ADC_ConfigChannel+0x94>
 8003bea:	0502      	lsls	r2, r0, #20
 8003bec:	d501      	bpl.n	8003bf2 <HAL_ADC_ConfigChannel+0x222>
 8003bee:	220b      	movs	r2, #11
 8003bf0:	e738      	b.n	8003a64 <HAL_ADC_ConfigChannel+0x94>
 8003bf2:	04c2      	lsls	r2, r0, #19
 8003bf4:	d501      	bpl.n	8003bfa <HAL_ADC_ConfigChannel+0x22a>
 8003bf6:	220c      	movs	r2, #12
 8003bf8:	e734      	b.n	8003a64 <HAL_ADC_ConfigChannel+0x94>
 8003bfa:	0482      	lsls	r2, r0, #18
 8003bfc:	d501      	bpl.n	8003c02 <HAL_ADC_ConfigChannel+0x232>
 8003bfe:	220d      	movs	r2, #13
 8003c00:	e730      	b.n	8003a64 <HAL_ADC_ConfigChannel+0x94>
 8003c02:	0442      	lsls	r2, r0, #17
 8003c04:	d501      	bpl.n	8003c0a <HAL_ADC_ConfigChannel+0x23a>
 8003c06:	220e      	movs	r2, #14
 8003c08:	e72c      	b.n	8003a64 <HAL_ADC_ConfigChannel+0x94>
 8003c0a:	0402      	lsls	r2, r0, #16
 8003c0c:	d504      	bpl.n	8003c18 <HAL_ADC_ConfigChannel+0x248>
 8003c0e:	465a      	mov	r2, fp
 8003c10:	4665      	mov	r5, ip
 8003c12:	432a      	orrs	r2, r5
 8003c14:	4691      	mov	r9, r2
 8003c16:	e72a      	b.n	8003a6e <HAL_ADC_ConfigChannel+0x9e>
 8003c18:	03c2      	lsls	r2, r0, #15
 8003c1a:	d501      	bpl.n	8003c20 <HAL_ADC_ConfigChannel+0x250>
 8003c1c:	2210      	movs	r2, #16
 8003c1e:	e721      	b.n	8003a64 <HAL_ADC_ConfigChannel+0x94>
 8003c20:	0382      	lsls	r2, r0, #14
 8003c22:	d501      	bpl.n	8003c28 <HAL_ADC_ConfigChannel+0x258>
 8003c24:	2211      	movs	r2, #17
 8003c26:	e71d      	b.n	8003a64 <HAL_ADC_ConfigChannel+0x94>
 8003c28:	0342      	lsls	r2, r0, #13
 8003c2a:	d400      	bmi.n	8003c2e <HAL_ADC_ConfigChannel+0x25e>
 8003c2c:	e71f      	b.n	8003a6e <HAL_ADC_ConfigChannel+0x9e>
 8003c2e:	2212      	movs	r2, #18
 8003c30:	e718      	b.n	8003a64 <HAL_ADC_ConfigChannel+0x94>
 8003c32:	46c0      	nop			@ (mov r8, r8)
 8003c34:	07ffff00 	.word	0x07ffff00
 8003c38:	40012708 	.word	0x40012708
 8003c3c:	b0001000 	.word	0xb0001000
 8003c40:	b8004000 	.word	0xb8004000
 8003c44:	b4002000 	.word	0xb4002000
 8003c48:	fe3fffff 	.word	0xfe3fffff
 8003c4c:	20000440 	.word	0x20000440
 8003c50:	00030d40 	.word	0x00030d40

08003c54 <ADC_ConversionStop>:
 8003c54:	6802      	ldr	r2, [r0, #0]
 8003c56:	b570      	push	{r4, r5, r6, lr}
 8003c58:	6893      	ldr	r3, [r2, #8]
 8003c5a:	0004      	movs	r4, r0
 8003c5c:	075b      	lsls	r3, r3, #29
 8003c5e:	d516      	bpl.n	8003c8e <ADC_ConversionStop+0x3a>
 8003c60:	6893      	ldr	r3, [r2, #8]
 8003c62:	079b      	lsls	r3, r3, #30
 8003c64:	d515      	bpl.n	8003c92 <ADC_ConversionStop+0x3e>
 8003c66:	f7ff fcd7 	bl	8003618 <HAL_GetTick>
 8003c6a:	6823      	ldr	r3, [r4, #0]
 8003c6c:	0006      	movs	r6, r0
 8003c6e:	689b      	ldr	r3, [r3, #8]
 8003c70:	075b      	lsls	r3, r3, #29
 8003c72:	d50c      	bpl.n	8003c8e <ADC_ConversionStop+0x3a>
 8003c74:	2504      	movs	r5, #4
 8003c76:	f7ff fccf 	bl	8003618 <HAL_GetTick>
 8003c7a:	6823      	ldr	r3, [r4, #0]
 8003c7c:	1b80      	subs	r0, r0, r6
 8003c7e:	2802      	cmp	r0, #2
 8003c80:	d902      	bls.n	8003c88 <ADC_ConversionStop+0x34>
 8003c82:	689a      	ldr	r2, [r3, #8]
 8003c84:	4215      	tst	r5, r2
 8003c86:	d112      	bne.n	8003cae <ADC_ConversionStop+0x5a>
 8003c88:	689b      	ldr	r3, [r3, #8]
 8003c8a:	421d      	tst	r5, r3
 8003c8c:	d1f3      	bne.n	8003c76 <ADC_ConversionStop+0x22>
 8003c8e:	2000      	movs	r0, #0
 8003c90:	bd70      	pop	{r4, r5, r6, pc}
 8003c92:	6893      	ldr	r3, [r2, #8]
 8003c94:	490b      	ldr	r1, [pc, #44]	@ (8003cc4 <ADC_ConversionStop+0x70>)
 8003c96:	400b      	ands	r3, r1
 8003c98:	2110      	movs	r1, #16
 8003c9a:	430b      	orrs	r3, r1
 8003c9c:	6093      	str	r3, [r2, #8]
 8003c9e:	f7ff fcbb 	bl	8003618 <HAL_GetTick>
 8003ca2:	6823      	ldr	r3, [r4, #0]
 8003ca4:	0006      	movs	r6, r0
 8003ca6:	689b      	ldr	r3, [r3, #8]
 8003ca8:	075b      	lsls	r3, r3, #29
 8003caa:	d4e3      	bmi.n	8003c74 <ADC_ConversionStop+0x20>
 8003cac:	e7ef      	b.n	8003c8e <ADC_ConversionStop+0x3a>
 8003cae:	2210      	movs	r2, #16
 8003cb0:	6da3      	ldr	r3, [r4, #88]	@ 0x58
 8003cb2:	2001      	movs	r0, #1
 8003cb4:	4313      	orrs	r3, r2
 8003cb6:	65a3      	str	r3, [r4, #88]	@ 0x58
 8003cb8:	6de3      	ldr	r3, [r4, #92]	@ 0x5c
 8003cba:	3a0f      	subs	r2, #15
 8003cbc:	4313      	orrs	r3, r2
 8003cbe:	65e3      	str	r3, [r4, #92]	@ 0x5c
 8003cc0:	e7e6      	b.n	8003c90 <ADC_ConversionStop+0x3c>
 8003cc2:	46c0      	nop			@ (mov r8, r8)
 8003cc4:	7fffffe8 	.word	0x7fffffe8

08003cc8 <ADC_Enable>:
 8003cc8:	2300      	movs	r3, #0
 8003cca:	2201      	movs	r2, #1
 8003ccc:	b5f0      	push	{r4, r5, r6, r7, lr}
 8003cce:	b083      	sub	sp, #12
 8003cd0:	9301      	str	r3, [sp, #4]
 8003cd2:	6803      	ldr	r3, [r0, #0]
 8003cd4:	0004      	movs	r4, r0
 8003cd6:	6899      	ldr	r1, [r3, #8]
 8003cd8:	420a      	tst	r2, r1
 8003cda:	d11f      	bne.n	8003d1c <ADC_Enable+0x54>
 8003cdc:	6898      	ldr	r0, [r3, #8]
 8003cde:	4928      	ldr	r1, [pc, #160]	@ (8003d80 <ADC_Enable+0xb8>)
 8003ce0:	4208      	tst	r0, r1
 8003ce2:	d11e      	bne.n	8003d22 <ADC_Enable+0x5a>
 8003ce4:	6899      	ldr	r1, [r3, #8]
 8003ce6:	4827      	ldr	r0, [pc, #156]	@ (8003d84 <ADC_Enable+0xbc>)
 8003ce8:	4001      	ands	r1, r0
 8003cea:	430a      	orrs	r2, r1
 8003cec:	609a      	str	r2, [r3, #8]
 8003cee:	4b26      	ldr	r3, [pc, #152]	@ (8003d88 <ADC_Enable+0xc0>)
 8003cf0:	681b      	ldr	r3, [r3, #0]
 8003cf2:	021b      	lsls	r3, r3, #8
 8003cf4:	d50f      	bpl.n	8003d16 <ADC_Enable+0x4e>
 8003cf6:	4b25      	ldr	r3, [pc, #148]	@ (8003d8c <ADC_Enable+0xc4>)
 8003cf8:	4925      	ldr	r1, [pc, #148]	@ (8003d90 <ADC_Enable+0xc8>)
 8003cfa:	6818      	ldr	r0, [r3, #0]
 8003cfc:	f7fc fa02 	bl	8000104 <__udivsi3>
 8003d00:	3001      	adds	r0, #1
 8003d02:	9001      	str	r0, [sp, #4]
 8003d04:	9b01      	ldr	r3, [sp, #4]
 8003d06:	2b00      	cmp	r3, #0
 8003d08:	d005      	beq.n	8003d16 <ADC_Enable+0x4e>
 8003d0a:	9b01      	ldr	r3, [sp, #4]
 8003d0c:	3b01      	subs	r3, #1
 8003d0e:	9301      	str	r3, [sp, #4]
 8003d10:	9b01      	ldr	r3, [sp, #4]
 8003d12:	2b00      	cmp	r3, #0
 8003d14:	d1f9      	bne.n	8003d0a <ADC_Enable+0x42>
 8003d16:	7e63      	ldrb	r3, [r4, #25]
 8003d18:	2b01      	cmp	r3, #1
 8003d1a:	d10b      	bne.n	8003d34 <ADC_Enable+0x6c>
 8003d1c:	2000      	movs	r0, #0
 8003d1e:	b003      	add	sp, #12
 8003d20:	bdf0      	pop	{r4, r5, r6, r7, pc}
 8003d22:	2110      	movs	r1, #16
 8003d24:	6da3      	ldr	r3, [r4, #88]	@ 0x58
 8003d26:	2001      	movs	r0, #1
 8003d28:	430b      	orrs	r3, r1
 8003d2a:	65a3      	str	r3, [r4, #88]	@ 0x58
 8003d2c:	6de3      	ldr	r3, [r4, #92]	@ 0x5c
 8003d2e:	4313      	orrs	r3, r2
 8003d30:	65e3      	str	r3, [r4, #92]	@ 0x5c
 8003d32:	e7f4      	b.n	8003d1e <ADC_Enable+0x56>
 8003d34:	f7ff fc70 	bl	8003618 <HAL_GetTick>
 8003d38:	6823      	ldr	r3, [r4, #0]
 8003d3a:	0006      	movs	r6, r0
 8003d3c:	681a      	ldr	r2, [r3, #0]
 8003d3e:	07d2      	lsls	r2, r2, #31
 8003d40:	d4ec      	bmi.n	8003d1c <ADC_Enable+0x54>
 8003d42:	2501      	movs	r5, #1
 8003d44:	4f0f      	ldr	r7, [pc, #60]	@ (8003d84 <ADC_Enable+0xbc>)
 8003d46:	689a      	ldr	r2, [r3, #8]
 8003d48:	4215      	tst	r5, r2
 8003d4a:	d103      	bne.n	8003d54 <ADC_Enable+0x8c>
 8003d4c:	689a      	ldr	r2, [r3, #8]
 8003d4e:	403a      	ands	r2, r7
 8003d50:	432a      	orrs	r2, r5
 8003d52:	609a      	str	r2, [r3, #8]
 8003d54:	f7ff fc60 	bl	8003618 <HAL_GetTick>
 8003d58:	6823      	ldr	r3, [r4, #0]
 8003d5a:	1b80      	subs	r0, r0, r6
 8003d5c:	2802      	cmp	r0, #2
 8003d5e:	d902      	bls.n	8003d66 <ADC_Enable+0x9e>
 8003d60:	681a      	ldr	r2, [r3, #0]
 8003d62:	4215      	tst	r5, r2
 8003d64:	d003      	beq.n	8003d6e <ADC_Enable+0xa6>
 8003d66:	681a      	ldr	r2, [r3, #0]
 8003d68:	4215      	tst	r5, r2
 8003d6a:	d0ec      	beq.n	8003d46 <ADC_Enable+0x7e>
 8003d6c:	e7d6      	b.n	8003d1c <ADC_Enable+0x54>
 8003d6e:	2210      	movs	r2, #16
 8003d70:	6da3      	ldr	r3, [r4, #88]	@ 0x58
 8003d72:	2001      	movs	r0, #1
 8003d74:	4313      	orrs	r3, r2
 8003d76:	65a3      	str	r3, [r4, #88]	@ 0x58
 8003d78:	6de3      	ldr	r3, [r4, #92]	@ 0x5c
 8003d7a:	432b      	orrs	r3, r5
 8003d7c:	65e3      	str	r3, [r4, #92]	@ 0x5c
 8003d7e:	e7ce      	b.n	8003d1e <ADC_Enable+0x56>
 8003d80:	80000017 	.word	0x80000017
 8003d84:	7fffffe8 	.word	0x7fffffe8
 8003d88:	40012708 	.word	0x40012708
 8003d8c:	20000440 	.word	0x20000440
 8003d90:	00030d40 	.word	0x00030d40

08003d94 <HAL_ADC_Start_DMA>:
 8003d94:	b5f0      	push	{r4, r5, r6, r7, lr}
 8003d96:	46c6      	mov	lr, r8
 8003d98:	6805      	ldr	r5, [r0, #0]
 8003d9a:	0004      	movs	r4, r0
 8003d9c:	68ae      	ldr	r6, [r5, #8]
 8003d9e:	4688      	mov	r8, r1
 8003da0:	0017      	movs	r7, r2
 8003da2:	2002      	movs	r0, #2
 8003da4:	b500      	push	{lr}
 8003da6:	0776      	lsls	r6, r6, #29
 8003da8:	d414      	bmi.n	8003dd4 <HAL_ADC_Start_DMA+0x40>
 8003daa:	2254      	movs	r2, #84	@ 0x54
 8003dac:	5ca3      	ldrb	r3, [r4, r2]
 8003dae:	2b01      	cmp	r3, #1
 8003db0:	d010      	beq.n	8003dd4 <HAL_ADC_Start_DMA+0x40>
 8003db2:	2301      	movs	r3, #1
 8003db4:	54a3      	strb	r3, [r4, r2]
 8003db6:	68ea      	ldr	r2, [r5, #12]
 8003db8:	4213      	tst	r3, r2
 8003dba:	d106      	bne.n	8003dca <HAL_ADC_Start_DMA+0x36>
 8003dbc:	68aa      	ldr	r2, [r5, #8]
 8003dbe:	4213      	tst	r3, r2
 8003dc0:	d131      	bne.n	8003e26 <HAL_ADC_Start_DMA+0x92>
 8003dc2:	2201      	movs	r2, #1
 8003dc4:	68eb      	ldr	r3, [r5, #12]
 8003dc6:	4313      	orrs	r3, r2
 8003dc8:	60eb      	str	r3, [r5, #12]
 8003dca:	0020      	movs	r0, r4
 8003dcc:	f7ff ff7c 	bl	8003cc8 <ADC_Enable>
 8003dd0:	2800      	cmp	r0, #0
 8003dd2:	d002      	beq.n	8003dda <HAL_ADC_Start_DMA+0x46>
 8003dd4:	bc80      	pop	{r7}
 8003dd6:	46b8      	mov	r8, r7
 8003dd8:	bdf0      	pop	{r4, r5, r6, r7, pc}
 8003dda:	6da2      	ldr	r2, [r4, #88]	@ 0x58
 8003ddc:	4b15      	ldr	r3, [pc, #84]	@ (8003e34 <HAL_ADC_Start_DMA+0xa0>)
 8003dde:	6d25      	ldr	r5, [r4, #80]	@ 0x50
 8003de0:	401a      	ands	r2, r3
 8003de2:	2380      	movs	r3, #128	@ 0x80
 8003de4:	005b      	lsls	r3, r3, #1
 8003de6:	4313      	orrs	r3, r2
 8003de8:	65a3      	str	r3, [r4, #88]	@ 0x58
 8003dea:	4b13      	ldr	r3, [pc, #76]	@ (8003e38 <HAL_ADC_Start_DMA+0xa4>)
 8003dec:	65e0      	str	r0, [r4, #92]	@ 0x5c
 8003dee:	62eb      	str	r3, [r5, #44]	@ 0x2c
 8003df0:	4b12      	ldr	r3, [pc, #72]	@ (8003e3c <HAL_ADC_Start_DMA+0xa8>)
 8003df2:	2210      	movs	r2, #16
 8003df4:	632b      	str	r3, [r5, #48]	@ 0x30
 8003df6:	4b12      	ldr	r3, [pc, #72]	@ (8003e40 <HAL_ADC_Start_DMA+0xac>)
 8003df8:	6821      	ldr	r1, [r4, #0]
 8003dfa:	636b      	str	r3, [r5, #52]	@ 0x34
 8003dfc:	231c      	movs	r3, #28
 8003dfe:	600b      	str	r3, [r1, #0]
 8003e00:	3338      	adds	r3, #56	@ 0x38
 8003e02:	54e0      	strb	r0, [r4, r3]
 8003e04:	684b      	ldr	r3, [r1, #4]
 8003e06:	0028      	movs	r0, r5
 8003e08:	4313      	orrs	r3, r2
 8003e0a:	604b      	str	r3, [r1, #4]
 8003e0c:	4642      	mov	r2, r8
 8003e0e:	003b      	movs	r3, r7
 8003e10:	3140      	adds	r1, #64	@ 0x40
 8003e12:	f000 fa4d 	bl	80042b0 <HAL_DMA_Start_IT>
 8003e16:	6822      	ldr	r2, [r4, #0]
 8003e18:	490a      	ldr	r1, [pc, #40]	@ (8003e44 <HAL_ADC_Start_DMA+0xb0>)
 8003e1a:	6893      	ldr	r3, [r2, #8]
 8003e1c:	400b      	ands	r3, r1
 8003e1e:	2104      	movs	r1, #4
 8003e20:	430b      	orrs	r3, r1
 8003e22:	6093      	str	r3, [r2, #8]
 8003e24:	e7d6      	b.n	8003dd4 <HAL_ADC_Start_DMA+0x40>
 8003e26:	68ab      	ldr	r3, [r5, #8]
 8003e28:	4a06      	ldr	r2, [pc, #24]	@ (8003e44 <HAL_ADC_Start_DMA+0xb0>)
 8003e2a:	4013      	ands	r3, r2
 8003e2c:	4303      	orrs	r3, r0
 8003e2e:	60ab      	str	r3, [r5, #8]
 8003e30:	e7c7      	b.n	8003dc2 <HAL_ADC_Start_DMA+0x2e>
 8003e32:	46c0      	nop			@ (mov r8, r8)
 8003e34:	fffff0fe 	.word	0xfffff0fe
 8003e38:	08003625 	.word	0x08003625
 8003e3c:	080036a5 	.word	0x080036a5
 8003e40:	080036b1 	.word	0x080036b1
 8003e44:	7fffffe8 	.word	0x7fffffe8

08003e48 <ADC_Disable>:
 8003e48:	2202      	movs	r2, #2
 8003e4a:	b5f8      	push	{r3, r4, r5, r6, r7, lr}
 8003e4c:	6803      	ldr	r3, [r0, #0]
 8003e4e:	0004      	movs	r4, r0
 8003e50:	6899      	ldr	r1, [r3, #8]
 8003e52:	420a      	tst	r2, r1
 8003e54:	d002      	beq.n	8003e5c <ADC_Disable+0x14>
 8003e56:	689b      	ldr	r3, [r3, #8]
 8003e58:	2000      	movs	r0, #0
 8003e5a:	bdf8      	pop	{r3, r4, r5, r6, r7, pc}
 8003e5c:	2101      	movs	r1, #1
 8003e5e:	6898      	ldr	r0, [r3, #8]
 8003e60:	4201      	tst	r1, r0
 8003e62:	d0f9      	beq.n	8003e58 <ADC_Disable+0x10>
 8003e64:	2705      	movs	r7, #5
 8003e66:	6898      	ldr	r0, [r3, #8]
 8003e68:	4007      	ands	r7, r0
 8003e6a:	2f01      	cmp	r7, #1
 8003e6c:	d008      	beq.n	8003e80 <ADC_Disable+0x38>
 8003e6e:	2210      	movs	r2, #16
 8003e70:	6da3      	ldr	r3, [r4, #88]	@ 0x58
 8003e72:	2001      	movs	r0, #1
 8003e74:	4313      	orrs	r3, r2
 8003e76:	65a3      	str	r3, [r4, #88]	@ 0x58
 8003e78:	6de3      	ldr	r3, [r4, #92]	@ 0x5c
 8003e7a:	430b      	orrs	r3, r1
 8003e7c:	65e3      	str	r3, [r4, #92]	@ 0x5c
 8003e7e:	e7ec      	b.n	8003e5a <ADC_Disable+0x12>
 8003e80:	6899      	ldr	r1, [r3, #8]
 8003e82:	4812      	ldr	r0, [pc, #72]	@ (8003ecc <ADC_Disable+0x84>)
 8003e84:	2501      	movs	r5, #1
 8003e86:	4001      	ands	r1, r0
 8003e88:	430a      	orrs	r2, r1
 8003e8a:	609a      	str	r2, [r3, #8]
 8003e8c:	2203      	movs	r2, #3
 8003e8e:	601a      	str	r2, [r3, #0]
 8003e90:	f7ff fbc2 	bl	8003618 <HAL_GetTick>
 8003e94:	6823      	ldr	r3, [r4, #0]
 8003e96:	0006      	movs	r6, r0
 8003e98:	689b      	ldr	r3, [r3, #8]
 8003e9a:	421f      	tst	r7, r3
 8003e9c:	d0dc      	beq.n	8003e58 <ADC_Disable+0x10>
 8003e9e:	f7ff fbbb 	bl	8003618 <HAL_GetTick>
 8003ea2:	6823      	ldr	r3, [r4, #0]
 8003ea4:	1b80      	subs	r0, r0, r6
 8003ea6:	2802      	cmp	r0, #2
 8003ea8:	d902      	bls.n	8003eb0 <ADC_Disable+0x68>
 8003eaa:	689a      	ldr	r2, [r3, #8]
 8003eac:	4215      	tst	r5, r2
 8003eae:	d103      	bne.n	8003eb8 <ADC_Disable+0x70>
 8003eb0:	689b      	ldr	r3, [r3, #8]
 8003eb2:	421d      	tst	r5, r3
 8003eb4:	d1f3      	bne.n	8003e9e <ADC_Disable+0x56>
 8003eb6:	e7cf      	b.n	8003e58 <ADC_Disable+0x10>
 8003eb8:	2210      	movs	r2, #16
 8003eba:	6da3      	ldr	r3, [r4, #88]	@ 0x58
 8003ebc:	2001      	movs	r0, #1
 8003ebe:	4313      	orrs	r3, r2
 8003ec0:	65a3      	str	r3, [r4, #88]	@ 0x58
 8003ec2:	6de3      	ldr	r3, [r4, #92]	@ 0x5c
 8003ec4:	432b      	orrs	r3, r5
 8003ec6:	65e3      	str	r3, [r4, #92]	@ 0x5c
 8003ec8:	e7c7      	b.n	8003e5a <ADC_Disable+0x12>
 8003eca:	46c0      	nop			@ (mov r8, r8)
 8003ecc:	7fffffe8 	.word	0x7fffffe8

08003ed0 <HAL_ADC_Stop_DMA>:
 8003ed0:	2354      	movs	r3, #84	@ 0x54
 8003ed2:	b570      	push	{r4, r5, r6, lr}
 8003ed4:	5cc2      	ldrb	r2, [r0, r3]
 8003ed6:	0004      	movs	r4, r0
 8003ed8:	2a01      	cmp	r2, #1
 8003eda:	d025      	beq.n	8003f28 <HAL_ADC_Stop_DMA+0x58>
 8003edc:	2201      	movs	r2, #1
 8003ede:	54c2      	strb	r2, [r0, r3]
 8003ee0:	f7ff feb8 	bl	8003c54 <ADC_ConversionStop>
 8003ee4:	1e05      	subs	r5, r0, #0
 8003ee6:	d11a      	bne.n	8003f1e <HAL_ADC_Stop_DMA+0x4e>
 8003ee8:	2325      	movs	r3, #37	@ 0x25
 8003eea:	6d20      	ldr	r0, [r4, #80]	@ 0x50
 8003eec:	5cc3      	ldrb	r3, [r0, r3]
 8003eee:	2b02      	cmp	r3, #2
 8003ef0:	d01c      	beq.n	8003f2c <HAL_ADC_Stop_DMA+0x5c>
 8003ef2:	2110      	movs	r1, #16
 8003ef4:	6822      	ldr	r2, [r4, #0]
 8003ef6:	0020      	movs	r0, r4
 8003ef8:	6853      	ldr	r3, [r2, #4]
 8003efa:	438b      	bics	r3, r1
 8003efc:	6053      	str	r3, [r2, #4]
 8003efe:	f7ff ffa3 	bl	8003e48 <ADC_Disable>
 8003f02:	1e05      	subs	r5, r0, #0
 8003f04:	d106      	bne.n	8003f14 <HAL_ADC_Stop_DMA+0x44>
 8003f06:	6da3      	ldr	r3, [r4, #88]	@ 0x58
 8003f08:	4a13      	ldr	r2, [pc, #76]	@ (8003f58 <HAL_ADC_Stop_DMA+0x88>)
 8003f0a:	4013      	ands	r3, r2
 8003f0c:	3204      	adds	r2, #4
 8003f0e:	32ff      	adds	r2, #255	@ 0xff
 8003f10:	4313      	orrs	r3, r2
 8003f12:	65a3      	str	r3, [r4, #88]	@ 0x58
 8003f14:	2101      	movs	r1, #1
 8003f16:	6822      	ldr	r2, [r4, #0]
 8003f18:	68d3      	ldr	r3, [r2, #12]
 8003f1a:	438b      	bics	r3, r1
 8003f1c:	60d3      	str	r3, [r2, #12]
 8003f1e:	2354      	movs	r3, #84	@ 0x54
 8003f20:	2200      	movs	r2, #0
 8003f22:	54e2      	strb	r2, [r4, r3]
 8003f24:	0028      	movs	r0, r5
 8003f26:	bd70      	pop	{r4, r5, r6, pc}
 8003f28:	2502      	movs	r5, #2
 8003f2a:	e7fb      	b.n	8003f24 <HAL_ADC_Stop_DMA+0x54>
 8003f2c:	f000 fa28 	bl	8004380 <HAL_DMA_Abort>
 8003f30:	1e05      	subs	r5, r0, #0
 8003f32:	d0de      	beq.n	8003ef2 <HAL_ADC_Stop_DMA+0x22>
 8003f34:	2240      	movs	r2, #64	@ 0x40
 8003f36:	2110      	movs	r1, #16
 8003f38:	6da3      	ldr	r3, [r4, #88]	@ 0x58
 8003f3a:	0020      	movs	r0, r4
 8003f3c:	4313      	orrs	r3, r2
 8003f3e:	6822      	ldr	r2, [r4, #0]
 8003f40:	65a3      	str	r3, [r4, #88]	@ 0x58
 8003f42:	6853      	ldr	r3, [r2, #4]
 8003f44:	438b      	bics	r3, r1
 8003f46:	6053      	str	r3, [r2, #4]
 8003f48:	f7ff ff7e 	bl	8003e48 <ADC_Disable>
 8003f4c:	2101      	movs	r1, #1
 8003f4e:	6822      	ldr	r2, [r4, #0]
 8003f50:	68d3      	ldr	r3, [r2, #12]
 8003f52:	438b      	bics	r3, r1
 8003f54:	60d3      	str	r3, [r2, #12]
 8003f56:	e7e2      	b.n	8003f1e <HAL_ADC_Stop_DMA+0x4e>
 8003f58:	fffffefe 	.word	0xfffffefe

08003f5c <HAL_ADCEx_Calibration_Start>:
 8003f5c:	b5f0      	push	{r4, r5, r6, r7, lr}
 8003f5e:	46de      	mov	lr, fp
 8003f60:	4657      	mov	r7, sl
 8003f62:	464e      	mov	r6, r9
 8003f64:	4645      	mov	r5, r8
 8003f66:	2300      	movs	r3, #0
 8003f68:	b5e0      	push	{r5, r6, r7, lr}
 8003f6a:	b085      	sub	sp, #20
 8003f6c:	9302      	str	r3, [sp, #8]
 8003f6e:	3354      	adds	r3, #84	@ 0x54
 8003f70:	5cc2      	ldrb	r2, [r0, r3]
 8003f72:	0004      	movs	r4, r0
 8003f74:	2a01      	cmp	r2, #1
 8003f76:	d100      	bne.n	8003f7a <HAL_ADCEx_Calibration_Start+0x1e>
 8003f78:	e0af      	b.n	80040da <HAL_ADCEx_Calibration_Start+0x17e>
 8003f7a:	2701      	movs	r7, #1
 8003f7c:	54c7      	strb	r7, [r0, r3]
 8003f7e:	f7ff ff63 	bl	8003e48 <ADC_Disable>
 8003f82:	003d      	movs	r5, r7
 8003f84:	6823      	ldr	r3, [r4, #0]
 8003f86:	9001      	str	r0, [sp, #4]
 8003f88:	689a      	ldr	r2, [r3, #8]
 8003f8a:	4015      	ands	r5, r2
 8003f8c:	4217      	tst	r7, r2
 8003f8e:	d136      	bne.n	8003ffe <HAL_ADCEx_Calibration_Start+0xa2>
 8003f90:	6da2      	ldr	r2, [r4, #88]	@ 0x58
 8003f92:	4953      	ldr	r1, [pc, #332]	@ (80040e0 <HAL_ADCEx_Calibration_Start+0x184>)
 8003f94:	2080      	movs	r0, #128	@ 0x80
 8003f96:	400a      	ands	r2, r1
 8003f98:	3106      	adds	r1, #6
 8003f9a:	31ff      	adds	r1, #255	@ 0xff
 8003f9c:	430a      	orrs	r2, r1
 8003f9e:	65a2      	str	r2, [r4, #88]	@ 0x58
 8003fa0:	68da      	ldr	r2, [r3, #12]
 8003fa2:	4950      	ldr	r1, [pc, #320]	@ (80040e4 <HAL_ADCEx_Calibration_Start+0x188>)
 8003fa4:	4693      	mov	fp, r2
 8003fa6:	68da      	ldr	r2, [r3, #12]
 8003fa8:	277f      	movs	r7, #127	@ 0x7f
 8003faa:	400a      	ands	r2, r1
 8003fac:	60da      	str	r2, [r3, #12]
 8003fae:	4a4e      	ldr	r2, [pc, #312]	@ (80040e8 <HAL_ADCEx_Calibration_Start+0x18c>)
 8003fb0:	2108      	movs	r1, #8
 8003fb2:	4694      	mov	ip, r2
 8003fb4:	4a4d      	ldr	r2, [pc, #308]	@ (80040ec <HAL_ADCEx_Calibration_Start+0x190>)
 8003fb6:	0600      	lsls	r0, r0, #24
 8003fb8:	4692      	mov	sl, r2
 8003fba:	22b4      	movs	r2, #180	@ 0xb4
 8003fbc:	4691      	mov	r9, r2
 8003fbe:	e006      	b.n	8003fce <HAL_ADCEx_Calibration_Start+0x72>
 8003fc0:	464a      	mov	r2, r9
 8003fc2:	589a      	ldr	r2, [r3, r2]
 8003fc4:	3901      	subs	r1, #1
 8003fc6:	403a      	ands	r2, r7
 8003fc8:	18ad      	adds	r5, r5, r2
 8003fca:	2900      	cmp	r1, #0
 8003fcc:	d026      	beq.n	800401c <HAL_ADCEx_Calibration_Start+0xc0>
 8003fce:	4666      	mov	r6, ip
 8003fd0:	689a      	ldr	r2, [r3, #8]
 8003fd2:	4032      	ands	r2, r6
 8003fd4:	4302      	orrs	r2, r0
 8003fd6:	609a      	str	r2, [r3, #8]
 8003fd8:	689a      	ldr	r2, [r3, #8]
 8003fda:	2a00      	cmp	r2, #0
 8003fdc:	daf0      	bge.n	8003fc0 <HAL_ADCEx_Calibration_Start+0x64>
 8003fde:	9a02      	ldr	r2, [sp, #8]
 8003fe0:	3201      	adds	r2, #1
 8003fe2:	9202      	str	r2, [sp, #8]
 8003fe4:	9a02      	ldr	r2, [sp, #8]
 8003fe6:	4552      	cmp	r2, sl
 8003fe8:	d9f6      	bls.n	8003fd8 <HAL_ADCEx_Calibration_Start+0x7c>
 8003fea:	2212      	movs	r2, #18
 8003fec:	6da3      	ldr	r3, [r4, #88]	@ 0x58
 8003fee:	4393      	bics	r3, r2
 8003ff0:	3a02      	subs	r2, #2
 8003ff2:	4313      	orrs	r3, r2
 8003ff4:	65a3      	str	r3, [r4, #88]	@ 0x58
 8003ff6:	2200      	movs	r2, #0
 8003ff8:	2354      	movs	r3, #84	@ 0x54
 8003ffa:	54e2      	strb	r2, [r4, r3]
 8003ffc:	e059      	b.n	80040b2 <HAL_ADCEx_Calibration_Start+0x156>
 8003ffe:	2210      	movs	r2, #16
 8004000:	6da3      	ldr	r3, [r4, #88]	@ 0x58
 8004002:	4313      	orrs	r3, r2
 8004004:	65a3      	str	r3, [r4, #88]	@ 0x58
 8004006:	2354      	movs	r3, #84	@ 0x54
 8004008:	2200      	movs	r2, #0
 800400a:	54e2      	strb	r2, [r4, r3]
 800400c:	9801      	ldr	r0, [sp, #4]
 800400e:	b005      	add	sp, #20
 8004010:	bcf0      	pop	{r4, r5, r6, r7}
 8004012:	46bb      	mov	fp, r7
 8004014:	46b2      	mov	sl, r6
 8004016:	46a9      	mov	r9, r5
 8004018:	46a0      	mov	r8, r4
 800401a:	bdf0      	pop	{r4, r5, r6, r7, pc}
 800401c:	689a      	ldr	r2, [r3, #8]
 800401e:	4832      	ldr	r0, [pc, #200]	@ (80040e8 <HAL_ADCEx_Calibration_Start+0x18c>)
 8004020:	08e9      	lsrs	r1, r5, #3
 8004022:	4002      	ands	r2, r0
 8004024:	2001      	movs	r0, #1
 8004026:	4302      	orrs	r2, r0
 8004028:	609a      	str	r2, [r3, #8]
 800402a:	2280      	movs	r2, #128	@ 0x80
 800402c:	691d      	ldr	r5, [r3, #16]
 800402e:	05d2      	lsls	r2, r2, #23
 8004030:	4295      	cmp	r5, r2
 8004032:	d218      	bcs.n	8004066 <HAL_ADCEx_Calibration_Start+0x10a>
 8004034:	25f0      	movs	r5, #240	@ 0xf0
 8004036:	4a2e      	ldr	r2, [pc, #184]	@ (80040f0 <HAL_ADCEx_Calibration_Start+0x194>)
 8004038:	03ad      	lsls	r5, r5, #14
 800403a:	6812      	ldr	r2, [r2, #0]
 800403c:	402a      	ands	r2, r5
 800403e:	25e0      	movs	r5, #224	@ 0xe0
 8004040:	036d      	lsls	r5, r5, #13
 8004042:	42aa      	cmp	r2, r5
 8004044:	d30f      	bcc.n	8004066 <HAL_ADCEx_Calibration_Start+0x10a>
 8004046:	0c92      	lsrs	r2, r2, #18
 8004048:	3a03      	subs	r2, #3
 800404a:	4090      	lsls	r0, r2
 800404c:	9003      	str	r0, [sp, #12]
 800404e:	9a03      	ldr	r2, [sp, #12]
 8004050:	0852      	lsrs	r2, r2, #1
 8004052:	9203      	str	r2, [sp, #12]
 8004054:	9a03      	ldr	r2, [sp, #12]
 8004056:	2a00      	cmp	r2, #0
 8004058:	d005      	beq.n	8004066 <HAL_ADCEx_Calibration_Start+0x10a>
 800405a:	9a03      	ldr	r2, [sp, #12]
 800405c:	3a01      	subs	r2, #1
 800405e:	9203      	str	r2, [sp, #12]
 8004060:	9a03      	ldr	r2, [sp, #12]
 8004062:	2a00      	cmp	r2, #0
 8004064:	d1f9      	bne.n	800405a <HAL_ADCEx_Calibration_Start+0xfe>
 8004066:	22b4      	movs	r2, #180	@ 0xb4
 8004068:	207f      	movs	r0, #127	@ 0x7f
 800406a:	589d      	ldr	r5, [r3, r2]
 800406c:	4385      	bics	r5, r0
 800406e:	430d      	orrs	r5, r1
 8004070:	509d      	str	r5, [r3, r2]
 8004072:	689a      	ldr	r2, [r3, #8]
 8004074:	491c      	ldr	r1, [pc, #112]	@ (80040e8 <HAL_ADCEx_Calibration_Start+0x18c>)
 8004076:	400a      	ands	r2, r1
 8004078:	2102      	movs	r1, #2
 800407a:	430a      	orrs	r2, r1
 800407c:	609a      	str	r2, [r3, #8]
 800407e:	f7ff facb 	bl	8003618 <HAL_GetTick>
 8004082:	6823      	ldr	r3, [r4, #0]
 8004084:	0005      	movs	r5, r0
 8004086:	689a      	ldr	r2, [r3, #8]
 8004088:	07d2      	lsls	r2, r2, #31
 800408a:	d519      	bpl.n	80040c0 <HAL_ADCEx_Calibration_Start+0x164>
 800408c:	2301      	movs	r3, #1
 800408e:	4698      	mov	r8, r3
 8004090:	f7ff fac2 	bl	8003618 <HAL_GetTick>
 8004094:	6823      	ldr	r3, [r4, #0]
 8004096:	1b40      	subs	r0, r0, r5
 8004098:	2802      	cmp	r0, #2
 800409a:	d90d      	bls.n	80040b8 <HAL_ADCEx_Calibration_Start+0x15c>
 800409c:	2201      	movs	r2, #1
 800409e:	6899      	ldr	r1, [r3, #8]
 80040a0:	420a      	tst	r2, r1
 80040a2:	d009      	beq.n	80040b8 <HAL_ADCEx_Calibration_Start+0x15c>
 80040a4:	2110      	movs	r1, #16
 80040a6:	6da3      	ldr	r3, [r4, #88]	@ 0x58
 80040a8:	430b      	orrs	r3, r1
 80040aa:	65a3      	str	r3, [r4, #88]	@ 0x58
 80040ac:	6de3      	ldr	r3, [r4, #92]	@ 0x5c
 80040ae:	4313      	orrs	r3, r2
 80040b0:	65e3      	str	r3, [r4, #92]	@ 0x5c
 80040b2:	2301      	movs	r3, #1
 80040b4:	9301      	str	r3, [sp, #4]
 80040b6:	e7a9      	b.n	800400c <HAL_ADCEx_Calibration_Start+0xb0>
 80040b8:	4641      	mov	r1, r8
 80040ba:	689a      	ldr	r2, [r3, #8]
 80040bc:	4211      	tst	r1, r2
 80040be:	d1e7      	bne.n	8004090 <HAL_ADCEx_Calibration_Start+0x134>
 80040c0:	465f      	mov	r7, fp
 80040c2:	490c      	ldr	r1, [pc, #48]	@ (80040f4 <HAL_ADCEx_Calibration_Start+0x198>)
 80040c4:	68da      	ldr	r2, [r3, #12]
 80040c6:	400f      	ands	r7, r1
 80040c8:	4317      	orrs	r7, r2
 80040ca:	2203      	movs	r2, #3
 80040cc:	60df      	str	r7, [r3, #12]
 80040ce:	6da3      	ldr	r3, [r4, #88]	@ 0x58
 80040d0:	4393      	bics	r3, r2
 80040d2:	3a02      	subs	r2, #2
 80040d4:	4313      	orrs	r3, r2
 80040d6:	65a3      	str	r3, [r4, #88]	@ 0x58
 80040d8:	e795      	b.n	8004006 <HAL_ADCEx_Calibration_Start+0xaa>
 80040da:	2302      	movs	r3, #2
 80040dc:	9301      	str	r3, [sp, #4]
 80040de:	e795      	b.n	800400c <HAL_ADCEx_Calibration_Start+0xb0>
 80040e0:	fffffefd 	.word	0xfffffefd
 80040e4:	ffff7ffc 	.word	0xffff7ffc
 80040e8:	7fffffe8 	.word	0x7fffffe8
 80040ec:	0002f1ff 	.word	0x0002f1ff
 80040f0:	40012708 	.word	0x40012708
 80040f4:	00008003 	.word	0x00008003

080040f8 <HAL_ADCEx_LevelOutOfWindow2Callback>:
 80040f8:	4770      	bx	lr
 80040fa:	46c0      	nop			@ (mov r8, r8)

080040fc <HAL_ADCEx_LevelOutOfWindow3Callback>:
 80040fc:	4770      	bx	lr
 80040fe:	46c0      	nop			@ (mov r8, r8)

08004100 <HAL_ADCEx_EndOfSamplingCallback>:
 8004100:	4770      	bx	lr
 8004102:	46c0      	nop			@ (mov r8, r8)

08004104 <HAL_NVIC_SetPriority>:
 8004104:	22ff      	movs	r2, #255	@ 0xff
 8004106:	2303      	movs	r3, #3
 8004108:	b510      	push	{r4, lr}
 800410a:	0014      	movs	r4, r2
 800410c:	4003      	ands	r3, r0
 800410e:	00db      	lsls	r3, r3, #3
 8004110:	409c      	lsls	r4, r3
 8004112:	0189      	lsls	r1, r1, #6
 8004114:	400a      	ands	r2, r1
 8004116:	43e4      	mvns	r4, r4
 8004118:	409a      	lsls	r2, r3
 800411a:	2800      	cmp	r0, #0
 800411c:	db0b      	blt.n	8004136 <HAL_NVIC_SetPriority+0x32>
 800411e:	4b0c      	ldr	r3, [pc, #48]	@ (8004150 <HAL_NVIC_SetPriority+0x4c>)
 8004120:	21c0      	movs	r1, #192	@ 0xc0
 8004122:	469c      	mov	ip, r3
 8004124:	0880      	lsrs	r0, r0, #2
 8004126:	0080      	lsls	r0, r0, #2
 8004128:	4460      	add	r0, ip
 800412a:	0089      	lsls	r1, r1, #2
 800412c:	5843      	ldr	r3, [r0, r1]
 800412e:	4023      	ands	r3, r4
 8004130:	4313      	orrs	r3, r2
 8004132:	5043      	str	r3, [r0, r1]
 8004134:	bd10      	pop	{r4, pc}
 8004136:	230f      	movs	r3, #15
 8004138:	4906      	ldr	r1, [pc, #24]	@ (8004154 <HAL_NVIC_SetPriority+0x50>)
 800413a:	4003      	ands	r3, r0
 800413c:	468c      	mov	ip, r1
 800413e:	3b08      	subs	r3, #8
 8004140:	089b      	lsrs	r3, r3, #2
 8004142:	009b      	lsls	r3, r3, #2
 8004144:	4463      	add	r3, ip
 8004146:	69d9      	ldr	r1, [r3, #28]
 8004148:	400c      	ands	r4, r1
 800414a:	4314      	orrs	r4, r2
 800414c:	61dc      	str	r4, [r3, #28]
 800414e:	e7f1      	b.n	8004134 <HAL_NVIC_SetPriority+0x30>
 8004150:	e000e100 	.word	0xe000e100
 8004154:	e000ed00 	.word	0xe000ed00

08004158 <HAL_NVIC_EnableIRQ>:
 8004158:	2800      	cmp	r0, #0
 800415a:	db05      	blt.n	8004168 <HAL_NVIC_EnableIRQ+0x10>
 800415c:	221f      	movs	r2, #31
 800415e:	2301      	movs	r3, #1
 8004160:	4002      	ands	r2, r0
 8004162:	4093      	lsls	r3, r2
 8004164:	4a01      	ldr	r2, [pc, #4]	@ (800416c <HAL_NVIC_EnableIRQ+0x14>)
 8004166:	6013      	str	r3, [r2, #0]
 8004168:	4770      	bx	lr
 800416a:	46c0      	nop			@ (mov r8, r8)
 800416c:	e000e100 	.word	0xe000e100

08004170 <HAL_NVIC_DisableIRQ>:
 8004170:	2800      	cmp	r0, #0
 8004172:	db0a      	blt.n	800418a <HAL_NVIC_DisableIRQ+0x1a>
 8004174:	221f      	movs	r2, #31
 8004176:	2301      	movs	r3, #1
 8004178:	4002      	ands	r2, r0
 800417a:	4093      	lsls	r3, r2
 800417c:	2280      	movs	r2, #128	@ 0x80
 800417e:	4903      	ldr	r1, [pc, #12]	@ (800418c <HAL_NVIC_DisableIRQ+0x1c>)
 8004180:	508b      	str	r3, [r1, r2]
 8004182:	f3bf 8f4f 	dsb	sy
 8004186:	f3bf 8f6f 	isb	sy
 800418a:	4770      	bx	lr
 800418c:	e000e100 	.word	0xe000e100

08004190 <HAL_SYSTICK_Config>:
 8004190:	2280      	movs	r2, #128	@ 0x80
 8004192:	1e43      	subs	r3, r0, #1
 8004194:	0452      	lsls	r2, r2, #17
 8004196:	2001      	movs	r0, #1
 8004198:	4293      	cmp	r3, r2
 800419a:	d20e      	bcs.n	80041ba <HAL_SYSTICK_Config+0x2a>
 800419c:	21c0      	movs	r1, #192	@ 0xc0
 800419e:	4a07      	ldr	r2, [pc, #28]	@ (80041bc <HAL_SYSTICK_Config+0x2c>)
 80041a0:	4807      	ldr	r0, [pc, #28]	@ (80041c0 <HAL_SYSTICK_Config+0x30>)
 80041a2:	6053      	str	r3, [r2, #4]
 80041a4:	6a03      	ldr	r3, [r0, #32]
 80041a6:	0609      	lsls	r1, r1, #24
 80041a8:	021b      	lsls	r3, r3, #8
 80041aa:	0a1b      	lsrs	r3, r3, #8
 80041ac:	430b      	orrs	r3, r1
 80041ae:	6203      	str	r3, [r0, #32]
 80041b0:	2300      	movs	r3, #0
 80041b2:	2000      	movs	r0, #0
 80041b4:	6093      	str	r3, [r2, #8]
 80041b6:	3307      	adds	r3, #7
 80041b8:	6013      	str	r3, [r2, #0]
 80041ba:	4770      	bx	lr
 80041bc:	e000e010 	.word	0xe000e010
 80041c0:	e000ed00 	.word	0xe000ed00

080041c4 <HAL_DMA_Init>:
 80041c4:	b5f0      	push	{r4, r5, r6, r7, lr}
 80041c6:	46c6      	mov	lr, r8
 80041c8:	0004      	movs	r4, r0
 80041ca:	b500      	push	{lr}
 80041cc:	2800      	cmp	r0, #0
 80041ce:	d060      	beq.n	8004292 <HAL_DMA_Init+0xce>
 80041d0:	6805      	ldr	r5, [r0, #0]
 80041d2:	4b31      	ldr	r3, [pc, #196]	@ (8004298 <HAL_DMA_Init+0xd4>)
 80041d4:	2114      	movs	r1, #20
 80041d6:	18e8      	adds	r0, r5, r3
 80041d8:	f7fb ff94 	bl	8000104 <__udivsi3>
 80041dc:	0083      	lsls	r3, r0, #2
 80041de:	6423      	str	r3, [r4, #64]	@ 0x40
 80041e0:	2202      	movs	r2, #2
 80041e2:	2325      	movs	r3, #37	@ 0x25
 80041e4:	54e2      	strb	r2, [r4, r3]
 80041e6:	682b      	ldr	r3, [r5, #0]
 80041e8:	4a2c      	ldr	r2, [pc, #176]	@ (800429c <HAL_DMA_Init+0xd8>)
 80041ea:	68a6      	ldr	r6, [r4, #8]
 80041ec:	4013      	ands	r3, r2
 80041ee:	602b      	str	r3, [r5, #0]
 80041f0:	68e3      	ldr	r3, [r4, #12]
 80041f2:	6921      	ldr	r1, [r4, #16]
 80041f4:	4333      	orrs	r3, r6
 80041f6:	430b      	orrs	r3, r1
 80041f8:	6961      	ldr	r1, [r4, #20]
 80041fa:	682a      	ldr	r2, [r5, #0]
 80041fc:	430b      	orrs	r3, r1
 80041fe:	69a1      	ldr	r1, [r4, #24]
 8004200:	430b      	orrs	r3, r1
 8004202:	69e1      	ldr	r1, [r4, #28]
 8004204:	430b      	orrs	r3, r1
 8004206:	6a21      	ldr	r1, [r4, #32]
 8004208:	430b      	orrs	r3, r1
 800420a:	4313      	orrs	r3, r2
 800420c:	602b      	str	r3, [r5, #0]
 800420e:	4b24      	ldr	r3, [pc, #144]	@ (80042a0 <HAL_DMA_Init+0xdc>)
 8004210:	2114      	movs	r1, #20
 8004212:	469c      	mov	ip, r3
 8004214:	4460      	add	r0, ip
 8004216:	0087      	lsls	r7, r0, #2
 8004218:	20ff      	movs	r0, #255	@ 0xff
 800421a:	4b22      	ldr	r3, [pc, #136]	@ (80042a4 <HAL_DMA_Init+0xe0>)
 800421c:	4028      	ands	r0, r5
 800421e:	64a3      	str	r3, [r4, #72]	@ 0x48
 8004220:	6467      	str	r7, [r4, #68]	@ 0x44
 8004222:	3808      	subs	r0, #8
 8004224:	4698      	mov	r8, r3
 8004226:	f7fb ff6d 	bl	8000104 <__udivsi3>
 800422a:	231f      	movs	r3, #31
 800422c:	2201      	movs	r2, #1
 800422e:	4003      	ands	r3, r0
 8004230:	0010      	movs	r0, r2
 8004232:	4098      	lsls	r0, r3
 8004234:	2380      	movs	r3, #128	@ 0x80
 8004236:	64e0      	str	r0, [r4, #76]	@ 0x4c
 8004238:	01db      	lsls	r3, r3, #7
 800423a:	429e      	cmp	r6, r3
 800423c:	d01f      	beq.n	800427e <HAL_DMA_Init+0xba>
 800423e:	233f      	movs	r3, #63	@ 0x3f
 8004240:	4645      	mov	r5, r8
 8004242:	6861      	ldr	r1, [r4, #4]
 8004244:	400b      	ands	r3, r1
 8004246:	3901      	subs	r1, #1
 8004248:	603b      	str	r3, [r7, #0]
 800424a:	6068      	str	r0, [r5, #4]
 800424c:	2903      	cmp	r1, #3
 800424e:	d81b      	bhi.n	8004288 <HAL_DMA_Init+0xc4>
 8004250:	4915      	ldr	r1, [pc, #84]	@ (80042a8 <HAL_DMA_Init+0xe4>)
 8004252:	4816      	ldr	r0, [pc, #88]	@ (80042ac <HAL_DMA_Init+0xe8>)
 8004254:	1859      	adds	r1, r3, r1
 8004256:	3b01      	subs	r3, #1
 8004258:	409a      	lsls	r2, r3
 800425a:	2300      	movs	r3, #0
 800425c:	0089      	lsls	r1, r1, #2
 800425e:	6521      	str	r1, [r4, #80]	@ 0x50
 8004260:	6560      	str	r0, [r4, #84]	@ 0x54
 8004262:	65a2      	str	r2, [r4, #88]	@ 0x58
 8004264:	600b      	str	r3, [r1, #0]
 8004266:	6042      	str	r2, [r0, #4]
 8004268:	2300      	movs	r3, #0
 800426a:	2225      	movs	r2, #37	@ 0x25
 800426c:	2101      	movs	r1, #1
 800426e:	2000      	movs	r0, #0
 8004270:	63e3      	str	r3, [r4, #60]	@ 0x3c
 8004272:	54a1      	strb	r1, [r4, r2]
 8004274:	3a01      	subs	r2, #1
 8004276:	54a3      	strb	r3, [r4, r2]
 8004278:	bc80      	pop	{r7}
 800427a:	46b8      	mov	r8, r7
 800427c:	bdf0      	pop	{r4, r5, r6, r7, pc}
 800427e:	2300      	movs	r3, #0
 8004280:	6063      	str	r3, [r4, #4]
 8004282:	603b      	str	r3, [r7, #0]
 8004284:	4643      	mov	r3, r8
 8004286:	6058      	str	r0, [r3, #4]
 8004288:	2300      	movs	r3, #0
 800428a:	6523      	str	r3, [r4, #80]	@ 0x50
 800428c:	6563      	str	r3, [r4, #84]	@ 0x54
 800428e:	65a3      	str	r3, [r4, #88]	@ 0x58
 8004290:	e7ea      	b.n	8004268 <HAL_DMA_Init+0xa4>
 8004292:	2001      	movs	r0, #1
 8004294:	e7f0      	b.n	8004278 <HAL_DMA_Init+0xb4>
 8004296:	46c0      	nop			@ (mov r8, r8)
 8004298:	bffdfff8 	.word	0xbffdfff8
 800429c:	ffff800f 	.word	0xffff800f
 80042a0:	10008200 	.word	0x10008200
 80042a4:	40020880 	.word	0x40020880
 80042a8:	1000823f 	.word	0x1000823f
 80042ac:	40020940 	.word	0x40020940

080042b0 <HAL_DMA_Start_IT>:
 80042b0:	b5f0      	push	{r4, r5, r6, r7, lr}
 80042b2:	46c6      	mov	lr, r8
 80042b4:	2424      	movs	r4, #36	@ 0x24
 80042b6:	b500      	push	{lr}
 80042b8:	5d05      	ldrb	r5, [r0, r4]
 80042ba:	2d01      	cmp	r5, #1
 80042bc:	d04f      	beq.n	800435e <HAL_DMA_Start_IT+0xae>
 80042be:	2501      	movs	r5, #1
 80042c0:	2625      	movs	r6, #37	@ 0x25
 80042c2:	5505      	strb	r5, [r0, r4]
 80042c4:	5d85      	ldrb	r5, [r0, r6]
 80042c6:	b2ef      	uxtb	r7, r5
 80042c8:	2d01      	cmp	r5, #1
 80042ca:	d007      	beq.n	80042dc <HAL_DMA_Start_IT+0x2c>
 80042cc:	2380      	movs	r3, #128	@ 0x80
 80042ce:	63c3      	str	r3, [r0, #60]	@ 0x3c
 80042d0:	2300      	movs	r3, #0
 80042d2:	5503      	strb	r3, [r0, r4]
 80042d4:	2001      	movs	r0, #1
 80042d6:	bc80      	pop	{r7}
 80042d8:	46b8      	mov	r8, r7
 80042da:	bdf0      	pop	{r4, r5, r6, r7, pc}
 80042dc:	3c22      	subs	r4, #34	@ 0x22
 80042de:	5584      	strb	r4, [r0, r6]
 80042e0:	2400      	movs	r4, #0
 80042e2:	63c4      	str	r4, [r0, #60]	@ 0x3c
 80042e4:	6804      	ldr	r4, [r0, #0]
 80042e6:	6cc6      	ldr	r6, [r0, #76]	@ 0x4c
 80042e8:	6825      	ldr	r5, [r4, #0]
 80042ea:	43bd      	bics	r5, r7
 80042ec:	6025      	str	r5, [r4, #0]
 80042ee:	6c85      	ldr	r5, [r0, #72]	@ 0x48
 80042f0:	606e      	str	r6, [r5, #4]
 80042f2:	6d06      	ldr	r6, [r0, #80]	@ 0x50
 80042f4:	2e00      	cmp	r6, #0
 80042f6:	d002      	beq.n	80042fe <HAL_DMA_Start_IT+0x4e>
 80042f8:	6d45      	ldr	r5, [r0, #84]	@ 0x54
 80042fa:	6d87      	ldr	r7, [r0, #88]	@ 0x58
 80042fc:	606f      	str	r7, [r5, #4]
 80042fe:	4d1f      	ldr	r5, [pc, #124]	@ (800437c <HAL_DMA_Start_IT+0xcc>)
 8004300:	6c07      	ldr	r7, [r0, #64]	@ 0x40
 8004302:	46ac      	mov	ip, r5
 8004304:	686d      	ldr	r5, [r5, #4]
 8004306:	46a8      	mov	r8, r5
 8004308:	251c      	movs	r5, #28
 800430a:	402f      	ands	r7, r5
 800430c:	3d1b      	subs	r5, #27
 800430e:	40bd      	lsls	r5, r7
 8004310:	4647      	mov	r7, r8
 8004312:	433d      	orrs	r5, r7
 8004314:	4667      	mov	r7, ip
 8004316:	607d      	str	r5, [r7, #4]
 8004318:	6063      	str	r3, [r4, #4]
 800431a:	6883      	ldr	r3, [r0, #8]
 800431c:	2b10      	cmp	r3, #16
 800431e:	d020      	beq.n	8004362 <HAL_DMA_Start_IT+0xb2>
 8004320:	60a1      	str	r1, [r4, #8]
 8004322:	60e2      	str	r2, [r4, #12]
 8004324:	6b03      	ldr	r3, [r0, #48]	@ 0x30
 8004326:	2b00      	cmp	r3, #0
 8004328:	d01e      	beq.n	8004368 <HAL_DMA_Start_IT+0xb8>
 800432a:	220e      	movs	r2, #14
 800432c:	6823      	ldr	r3, [r4, #0]
 800432e:	4313      	orrs	r3, r2
 8004330:	6023      	str	r3, [r4, #0]
 8004332:	6c42      	ldr	r2, [r0, #68]	@ 0x44
 8004334:	6813      	ldr	r3, [r2, #0]
 8004336:	03db      	lsls	r3, r3, #15
 8004338:	d504      	bpl.n	8004344 <HAL_DMA_Start_IT+0x94>
 800433a:	2380      	movs	r3, #128	@ 0x80
 800433c:	6811      	ldr	r1, [r2, #0]
 800433e:	005b      	lsls	r3, r3, #1
 8004340:	430b      	orrs	r3, r1
 8004342:	6013      	str	r3, [r2, #0]
 8004344:	2e00      	cmp	r6, #0
 8004346:	d004      	beq.n	8004352 <HAL_DMA_Start_IT+0xa2>
 8004348:	2380      	movs	r3, #128	@ 0x80
 800434a:	6832      	ldr	r2, [r6, #0]
 800434c:	005b      	lsls	r3, r3, #1
 800434e:	4313      	orrs	r3, r2
 8004350:	6033      	str	r3, [r6, #0]
 8004352:	2201      	movs	r2, #1
 8004354:	6823      	ldr	r3, [r4, #0]
 8004356:	2000      	movs	r0, #0
 8004358:	4313      	orrs	r3, r2
 800435a:	6023      	str	r3, [r4, #0]
 800435c:	e7bb      	b.n	80042d6 <HAL_DMA_Start_IT+0x26>
 800435e:	2002      	movs	r0, #2
 8004360:	e7b9      	b.n	80042d6 <HAL_DMA_Start_IT+0x26>
 8004362:	60a2      	str	r2, [r4, #8]
 8004364:	60e1      	str	r1, [r4, #12]
 8004366:	e7dd      	b.n	8004324 <HAL_DMA_Start_IT+0x74>
 8004368:	2204      	movs	r2, #4
 800436a:	6823      	ldr	r3, [r4, #0]
 800436c:	4393      	bics	r3, r2
 800436e:	6023      	str	r3, [r4, #0]
 8004370:	6823      	ldr	r3, [r4, #0]
 8004372:	3206      	adds	r2, #6
 8004374:	4313      	orrs	r3, r2
 8004376:	6023      	str	r3, [r4, #0]
 8004378:	e7db      	b.n	8004332 <HAL_DMA_Start_IT+0x82>
 800437a:	46c0      	nop			@ (mov r8, r8)
 800437c:	40020000 	.word	0x40020000

08004380 <HAL_DMA_Abort>:
 8004380:	b570      	push	{r4, r5, r6, lr}
 8004382:	2800      	cmp	r0, #0
 8004384:	d032      	beq.n	80043ec <HAL_DMA_Abort+0x6c>
 8004386:	2325      	movs	r3, #37	@ 0x25
 8004388:	5cc3      	ldrb	r3, [r0, r3]
 800438a:	2b02      	cmp	r3, #2
 800438c:	d129      	bne.n	80043e2 <HAL_DMA_Abort+0x62>
 800438e:	210e      	movs	r1, #14
 8004390:	6802      	ldr	r2, [r0, #0]
 8004392:	4c17      	ldr	r4, [pc, #92]	@ (80043f0 <HAL_DMA_Abort+0x70>)
 8004394:	6813      	ldr	r3, [r2, #0]
 8004396:	261c      	movs	r6, #28
 8004398:	438b      	bics	r3, r1
 800439a:	6c41      	ldr	r1, [r0, #68]	@ 0x44
 800439c:	6013      	str	r3, [r2, #0]
 800439e:	680b      	ldr	r3, [r1, #0]
 80043a0:	4023      	ands	r3, r4
 80043a2:	600b      	str	r3, [r1, #0]
 80043a4:	2301      	movs	r3, #1
 80043a6:	6811      	ldr	r1, [r2, #0]
 80043a8:	4399      	bics	r1, r3
 80043aa:	6011      	str	r1, [r2, #0]
 80043ac:	6c02      	ldr	r2, [r0, #64]	@ 0x40
 80043ae:	4911      	ldr	r1, [pc, #68]	@ (80043f4 <HAL_DMA_Abort+0x74>)
 80043b0:	4032      	ands	r2, r6
 80043b2:	4093      	lsls	r3, r2
 80043b4:	684d      	ldr	r5, [r1, #4]
 80043b6:	432b      	orrs	r3, r5
 80043b8:	604b      	str	r3, [r1, #4]
 80043ba:	6cc2      	ldr	r2, [r0, #76]	@ 0x4c
 80043bc:	6c83      	ldr	r3, [r0, #72]	@ 0x48
 80043be:	605a      	str	r2, [r3, #4]
 80043c0:	6d03      	ldr	r3, [r0, #80]	@ 0x50
 80043c2:	2b00      	cmp	r3, #0
 80043c4:	d005      	beq.n	80043d2 <HAL_DMA_Abort+0x52>
 80043c6:	681a      	ldr	r2, [r3, #0]
 80043c8:	4022      	ands	r2, r4
 80043ca:	601a      	str	r2, [r3, #0]
 80043cc:	6d43      	ldr	r3, [r0, #84]	@ 0x54
 80043ce:	6d82      	ldr	r2, [r0, #88]	@ 0x58
 80043d0:	605a      	str	r2, [r3, #4]
 80043d2:	2325      	movs	r3, #37	@ 0x25
 80043d4:	2201      	movs	r2, #1
 80043d6:	54c2      	strb	r2, [r0, r3]
 80043d8:	2200      	movs	r2, #0
 80043da:	3b01      	subs	r3, #1
 80043dc:	54c2      	strb	r2, [r0, r3]
 80043de:	2000      	movs	r0, #0
 80043e0:	bd70      	pop	{r4, r5, r6, pc}
 80043e2:	2304      	movs	r3, #4
 80043e4:	2200      	movs	r2, #0
 80043e6:	63c3      	str	r3, [r0, #60]	@ 0x3c
 80043e8:	3320      	adds	r3, #32
 80043ea:	54c2      	strb	r2, [r0, r3]
 80043ec:	2001      	movs	r0, #1
 80043ee:	e7f7      	b.n	80043e0 <HAL_DMA_Abort+0x60>
 80043f0:	fffffeff 	.word	0xfffffeff
 80043f4:	40020000 	.word	0x40020000

080043f8 <HAL_DMA_Abort_IT>:
 80043f8:	2325      	movs	r3, #37	@ 0x25
 80043fa:	b570      	push	{r4, r5, r6, lr}
 80043fc:	5cc3      	ldrb	r3, [r0, r3]
 80043fe:	2b02      	cmp	r3, #2
 8004400:	d003      	beq.n	800440a <HAL_DMA_Abort_IT+0x12>
 8004402:	2304      	movs	r3, #4
 8004404:	63c3      	str	r3, [r0, #60]	@ 0x3c
 8004406:	2001      	movs	r0, #1
 8004408:	bd70      	pop	{r4, r5, r6, pc}
 800440a:	210e      	movs	r1, #14
 800440c:	6802      	ldr	r2, [r0, #0]
 800440e:	261c      	movs	r6, #28
 8004410:	6813      	ldr	r3, [r2, #0]
 8004412:	4c15      	ldr	r4, [pc, #84]	@ (8004468 <HAL_DMA_Abort_IT+0x70>)
 8004414:	438b      	bics	r3, r1
 8004416:	6013      	str	r3, [r2, #0]
 8004418:	2301      	movs	r3, #1
 800441a:	6811      	ldr	r1, [r2, #0]
 800441c:	4399      	bics	r1, r3
 800441e:	6011      	str	r1, [r2, #0]
 8004420:	6c41      	ldr	r1, [r0, #68]	@ 0x44
 8004422:	680a      	ldr	r2, [r1, #0]
 8004424:	4022      	ands	r2, r4
 8004426:	600a      	str	r2, [r1, #0]
 8004428:	6c02      	ldr	r2, [r0, #64]	@ 0x40
 800442a:	4910      	ldr	r1, [pc, #64]	@ (800446c <HAL_DMA_Abort_IT+0x74>)
 800442c:	4032      	ands	r2, r6
 800442e:	4093      	lsls	r3, r2
 8004430:	684d      	ldr	r5, [r1, #4]
 8004432:	432b      	orrs	r3, r5
 8004434:	604b      	str	r3, [r1, #4]
 8004436:	6cc2      	ldr	r2, [r0, #76]	@ 0x4c
 8004438:	6c83      	ldr	r3, [r0, #72]	@ 0x48
 800443a:	605a      	str	r2, [r3, #4]
 800443c:	6d03      	ldr	r3, [r0, #80]	@ 0x50
 800443e:	2b00      	cmp	r3, #0
 8004440:	d005      	beq.n	800444e <HAL_DMA_Abort_IT+0x56>
 8004442:	681a      	ldr	r2, [r3, #0]
 8004444:	4022      	ands	r2, r4
 8004446:	601a      	str	r2, [r3, #0]
 8004448:	6d43      	ldr	r3, [r0, #84]	@ 0x54
 800444a:	6d82      	ldr	r2, [r0, #88]	@ 0x58
 800444c:	605a      	str	r2, [r3, #4]
 800444e:	2325      	movs	r3, #37	@ 0x25
 8004450:	2201      	movs	r2, #1
 8004452:	54c2      	strb	r2, [r0, r3]
 8004454:	2200      	movs	r2, #0
 8004456:	3b01      	subs	r3, #1
 8004458:	54c2      	strb	r2, [r0, r3]
 800445a:	6b83      	ldr	r3, [r0, #56]	@ 0x38
 800445c:	2b00      	cmp	r3, #0
 800445e:	d000      	beq.n	8004462 <HAL_DMA_Abort_IT+0x6a>
 8004460:	4798      	blx	r3
 8004462:	2000      	movs	r0, #0
 8004464:	e7d0      	b.n	8004408 <HAL_DMA_Abort_IT+0x10>
 8004466:	46c0      	nop			@ (mov r8, r8)
 8004468:	fffffeff 	.word	0xfffffeff
 800446c:	40020000 	.word	0x40020000

08004470 <HAL_DMA_IRQHandler>:
 8004470:	b570      	push	{r4, r5, r6, lr}
 8004472:	211c      	movs	r1, #28
 8004474:	2404      	movs	r4, #4
 8004476:	4b2b      	ldr	r3, [pc, #172]	@ (8004524 <HAL_DMA_IRQHandler+0xb4>)
 8004478:	6806      	ldr	r6, [r0, #0]
 800447a:	681a      	ldr	r2, [r3, #0]
 800447c:	6c03      	ldr	r3, [r0, #64]	@ 0x40
 800447e:	6835      	ldr	r5, [r6, #0]
 8004480:	400b      	ands	r3, r1
 8004482:	0021      	movs	r1, r4
 8004484:	4099      	lsls	r1, r3
 8004486:	420a      	tst	r2, r1
 8004488:	d010      	beq.n	80044ac <HAL_DMA_IRQHandler+0x3c>
 800448a:	422c      	tst	r4, r5
 800448c:	d00e      	beq.n	80044ac <HAL_DMA_IRQHandler+0x3c>
 800448e:	6833      	ldr	r3, [r6, #0]
 8004490:	069b      	lsls	r3, r3, #26
 8004492:	d402      	bmi.n	800449a <HAL_DMA_IRQHandler+0x2a>
 8004494:	6833      	ldr	r3, [r6, #0]
 8004496:	43a3      	bics	r3, r4
 8004498:	6033      	str	r3, [r6, #0]
 800449a:	4b22      	ldr	r3, [pc, #136]	@ (8004524 <HAL_DMA_IRQHandler+0xb4>)
 800449c:	685a      	ldr	r2, [r3, #4]
 800449e:	4311      	orrs	r1, r2
 80044a0:	6059      	str	r1, [r3, #4]
 80044a2:	6b03      	ldr	r3, [r0, #48]	@ 0x30
 80044a4:	2b00      	cmp	r3, #0
 80044a6:	d000      	beq.n	80044aa <HAL_DMA_IRQHandler+0x3a>
 80044a8:	4798      	blx	r3
 80044aa:	bd70      	pop	{r4, r5, r6, pc}
 80044ac:	2402      	movs	r4, #2
 80044ae:	0021      	movs	r1, r4
 80044b0:	4099      	lsls	r1, r3
 80044b2:	420a      	tst	r2, r1
 80044b4:	d017      	beq.n	80044e6 <HAL_DMA_IRQHandler+0x76>
 80044b6:	422c      	tst	r4, r5
 80044b8:	d015      	beq.n	80044e6 <HAL_DMA_IRQHandler+0x76>
 80044ba:	6833      	ldr	r3, [r6, #0]
 80044bc:	069b      	lsls	r3, r3, #26
 80044be:	d406      	bmi.n	80044ce <HAL_DMA_IRQHandler+0x5e>
 80044c0:	220a      	movs	r2, #10
 80044c2:	6833      	ldr	r3, [r6, #0]
 80044c4:	4393      	bics	r3, r2
 80044c6:	6033      	str	r3, [r6, #0]
 80044c8:	2325      	movs	r3, #37	@ 0x25
 80044ca:	3a09      	subs	r2, #9
 80044cc:	54c2      	strb	r2, [r0, r3]
 80044ce:	4b15      	ldr	r3, [pc, #84]	@ (8004524 <HAL_DMA_IRQHandler+0xb4>)
 80044d0:	685a      	ldr	r2, [r3, #4]
 80044d2:	4311      	orrs	r1, r2
 80044d4:	6059      	str	r1, [r3, #4]
 80044d6:	2200      	movs	r2, #0
 80044d8:	2324      	movs	r3, #36	@ 0x24
 80044da:	54c2      	strb	r2, [r0, r3]
 80044dc:	6ac3      	ldr	r3, [r0, #44]	@ 0x2c
 80044de:	2b00      	cmp	r3, #0
 80044e0:	d0e3      	beq.n	80044aa <HAL_DMA_IRQHandler+0x3a>
 80044e2:	4798      	blx	r3
 80044e4:	e7e1      	b.n	80044aa <HAL_DMA_IRQHandler+0x3a>
 80044e6:	2108      	movs	r1, #8
 80044e8:	000c      	movs	r4, r1
 80044ea:	409c      	lsls	r4, r3
 80044ec:	4222      	tst	r2, r4
 80044ee:	d0dc      	beq.n	80044aa <HAL_DMA_IRQHandler+0x3a>
 80044f0:	4229      	tst	r1, r5
 80044f2:	d0da      	beq.n	80044aa <HAL_DMA_IRQHandler+0x3a>
 80044f4:	6832      	ldr	r2, [r6, #0]
 80044f6:	3106      	adds	r1, #6
 80044f8:	438a      	bics	r2, r1
 80044fa:	6032      	str	r2, [r6, #0]
 80044fc:	2201      	movs	r2, #1
 80044fe:	0015      	movs	r5, r2
 8004500:	409d      	lsls	r5, r3
 8004502:	002b      	movs	r3, r5
 8004504:	4907      	ldr	r1, [pc, #28]	@ (8004524 <HAL_DMA_IRQHandler+0xb4>)
 8004506:	684c      	ldr	r4, [r1, #4]
 8004508:	4323      	orrs	r3, r4
 800450a:	604b      	str	r3, [r1, #4]
 800450c:	2325      	movs	r3, #37	@ 0x25
 800450e:	63c2      	str	r2, [r0, #60]	@ 0x3c
 8004510:	54c2      	strb	r2, [r0, r3]
 8004512:	2200      	movs	r2, #0
 8004514:	3b01      	subs	r3, #1
 8004516:	54c2      	strb	r2, [r0, r3]
 8004518:	6b43      	ldr	r3, [r0, #52]	@ 0x34
 800451a:	2b00      	cmp	r3, #0
 800451c:	d0c5      	beq.n	80044aa <HAL_DMA_IRQHandler+0x3a>
 800451e:	4798      	blx	r3
 8004520:	e7c3      	b.n	80044aa <HAL_DMA_IRQHandler+0x3a>
 8004522:	46c0      	nop			@ (mov r8, r8)
 8004524:	40020000 	.word	0x40020000

08004528 <HAL_GPIO_Init>:
 8004528:	b5f0      	push	{r4, r5, r6, r7, lr}
 800452a:	46de      	mov	lr, fp
 800452c:	4657      	mov	r7, sl
 800452e:	464e      	mov	r6, r9
 8004530:	4645      	mov	r5, r8
 8004532:	b5e0      	push	{r5, r6, r7, lr}
 8004534:	680a      	ldr	r2, [r1, #0]
 8004536:	468b      	mov	fp, r1
 8004538:	b085      	sub	sp, #20
 800453a:	2a00      	cmp	r2, #0
 800453c:	d06a      	beq.n	8004614 <HAL_GPIO_Init+0xec>
 800453e:	21a0      	movs	r1, #160	@ 0xa0
 8004540:	2300      	movs	r3, #0
 8004542:	05c9      	lsls	r1, r1, #23
 8004544:	4288      	cmp	r0, r1
 8004546:	d100      	bne.n	800454a <HAL_GPIO_Init+0x22>
 8004548:	e0c5      	b.n	80046d6 <HAL_GPIO_Init+0x1ae>
 800454a:	2101      	movs	r1, #1
 800454c:	4099      	lsls	r1, r3
 800454e:	468c      	mov	ip, r1
 8004550:	4011      	ands	r1, r2
 8004552:	468a      	mov	sl, r1
 8004554:	4661      	mov	r1, ip
 8004556:	420a      	tst	r2, r1
 8004558:	d058      	beq.n	800460c <HAL_GPIO_Init+0xe4>
 800455a:	2503      	movs	r5, #3
 800455c:	4659      	mov	r1, fp
 800455e:	005e      	lsls	r6, r3, #1
 8004560:	40b5      	lsls	r5, r6
 8004562:	684c      	ldr	r4, [r1, #4]
 8004564:	2103      	movs	r1, #3
 8004566:	43ed      	mvns	r5, r5
 8004568:	4021      	ands	r1, r4
 800456a:	1e4f      	subs	r7, r1, #1
 800456c:	9501      	str	r5, [sp, #4]
 800456e:	2f01      	cmp	r7, #1
 8004570:	d957      	bls.n	8004622 <HAL_GPIO_Init+0xfa>
 8004572:	2903      	cmp	r1, #3
 8004574:	d000      	beq.n	8004578 <HAL_GPIO_Init+0x50>
 8004576:	e15f      	b.n	8004838 <HAL_GPIO_Init+0x310>
 8004578:	40b1      	lsls	r1, r6
 800457a:	6807      	ldr	r7, [r0, #0]
 800457c:	9d01      	ldr	r5, [sp, #4]
 800457e:	403d      	ands	r5, r7
 8004580:	4329      	orrs	r1, r5
 8004582:	6001      	str	r1, [r0, #0]
 8004584:	21c0      	movs	r1, #192	@ 0xc0
 8004586:	0289      	lsls	r1, r1, #10
 8004588:	420c      	tst	r4, r1
 800458a:	d03f      	beq.n	800460c <HAL_GPIO_Init+0xe4>
 800458c:	2603      	movs	r6, #3
 800458e:	270f      	movs	r7, #15
 8004590:	4db9      	ldr	r5, [pc, #740]	@ (8004878 <HAL_GPIO_Init+0x350>)
 8004592:	401e      	ands	r6, r3
 8004594:	46ac      	mov	ip, r5
 8004596:	00f6      	lsls	r6, r6, #3
 8004598:	40b7      	lsls	r7, r6
 800459a:	0899      	lsrs	r1, r3, #2
 800459c:	0089      	lsls	r1, r1, #2
 800459e:	4461      	add	r1, ip
 80045a0:	6e0d      	ldr	r5, [r1, #96]	@ 0x60
 80045a2:	43bd      	bics	r5, r7
 80045a4:	4fb5      	ldr	r7, [pc, #724]	@ (800487c <HAL_GPIO_Init+0x354>)
 80045a6:	42b8      	cmp	r0, r7
 80045a8:	d100      	bne.n	80045ac <HAL_GPIO_Init+0x84>
 80045aa:	e090      	b.n	80046ce <HAL_GPIO_Init+0x1a6>
 80045ac:	4fb4      	ldr	r7, [pc, #720]	@ (8004880 <HAL_GPIO_Init+0x358>)
 80045ae:	42b8      	cmp	r0, r7
 80045b0:	d100      	bne.n	80045b4 <HAL_GPIO_Init+0x8c>
 80045b2:	e07b      	b.n	80046ac <HAL_GPIO_Init+0x184>
 80045b4:	4fb3      	ldr	r7, [pc, #716]	@ (8004884 <HAL_GPIO_Init+0x35c>)
 80045b6:	42b8      	cmp	r0, r7
 80045b8:	d100      	bne.n	80045bc <HAL_GPIO_Init+0x94>
 80045ba:	e139      	b.n	8004830 <HAL_GPIO_Init+0x308>
 80045bc:	2705      	movs	r7, #5
 80045be:	40b7      	lsls	r7, r6
 80045c0:	433d      	orrs	r5, r7
 80045c2:	2680      	movs	r6, #128	@ 0x80
 80045c4:	660d      	str	r5, [r1, #96]	@ 0x60
 80045c6:	4655      	mov	r5, sl
 80045c8:	49ab      	ldr	r1, [pc, #684]	@ (8004878 <HAL_GPIO_Init+0x350>)
 80045ca:	0376      	lsls	r6, r6, #13
 80045cc:	43ed      	mvns	r5, r5
 80045ce:	6809      	ldr	r1, [r1, #0]
 80045d0:	4234      	tst	r4, r6
 80045d2:	d000      	beq.n	80045d6 <HAL_GPIO_Init+0xae>
 80045d4:	e078      	b.n	80046c8 <HAL_GPIO_Init+0x1a0>
 80045d6:	4029      	ands	r1, r5
 80045d8:	4ea7      	ldr	r6, [pc, #668]	@ (8004878 <HAL_GPIO_Init+0x350>)
 80045da:	6031      	str	r1, [r6, #0]
 80045dc:	6871      	ldr	r1, [r6, #4]
 80045de:	2680      	movs	r6, #128	@ 0x80
 80045e0:	03b6      	lsls	r6, r6, #14
 80045e2:	4234      	tst	r4, r6
 80045e4:	d16d      	bne.n	80046c2 <HAL_GPIO_Init+0x19a>
 80045e6:	4029      	ands	r1, r5
 80045e8:	4ea3      	ldr	r6, [pc, #652]	@ (8004878 <HAL_GPIO_Init+0x350>)
 80045ea:	6071      	str	r1, [r6, #4]
 80045ec:	2184      	movs	r1, #132	@ 0x84
 80045ee:	5871      	ldr	r1, [r6, r1]
 80045f0:	03a6      	lsls	r6, r4, #14
 80045f2:	d463      	bmi.n	80046bc <HAL_GPIO_Init+0x194>
 80045f4:	4029      	ands	r1, r5
 80045f6:	2684      	movs	r6, #132	@ 0x84
 80045f8:	4f9f      	ldr	r7, [pc, #636]	@ (8004878 <HAL_GPIO_Init+0x350>)
 80045fa:	51b9      	str	r1, [r7, r6]
 80045fc:	2180      	movs	r1, #128	@ 0x80
 80045fe:	5879      	ldr	r1, [r7, r1]
 8004600:	03e4      	lsls	r4, r4, #15
 8004602:	d457      	bmi.n	80046b4 <HAL_GPIO_Init+0x18c>
 8004604:	4029      	ands	r1, r5
 8004606:	2480      	movs	r4, #128	@ 0x80
 8004608:	4d9b      	ldr	r5, [pc, #620]	@ (8004878 <HAL_GPIO_Init+0x350>)
 800460a:	5129      	str	r1, [r5, r4]
 800460c:	0011      	movs	r1, r2
 800460e:	3301      	adds	r3, #1
 8004610:	40d9      	lsrs	r1, r3
 8004612:	d19a      	bne.n	800454a <HAL_GPIO_Init+0x22>
 8004614:	b005      	add	sp, #20
 8004616:	bcf0      	pop	{r4, r5, r6, r7}
 8004618:	46bb      	mov	fp, r7
 800461a:	46b2      	mov	sl, r6
 800461c:	46a9      	mov	r9, r5
 800461e:	46a0      	mov	r8, r4
 8004620:	bdf0      	pop	{r4, r5, r6, r7, pc}
 8004622:	6887      	ldr	r7, [r0, #8]
 8004624:	402f      	ands	r7, r5
 8004626:	46b9      	mov	r9, r7
 8004628:	465f      	mov	r7, fp
 800462a:	68ff      	ldr	r7, [r7, #12]
 800462c:	40b7      	lsls	r7, r6
 800462e:	46b8      	mov	r8, r7
 8004630:	464f      	mov	r7, r9
 8004632:	4645      	mov	r5, r8
 8004634:	432f      	orrs	r7, r5
 8004636:	6087      	str	r7, [r0, #8]
 8004638:	6845      	ldr	r5, [r0, #4]
 800463a:	002f      	movs	r7, r5
 800463c:	4665      	mov	r5, ip
 800463e:	43af      	bics	r7, r5
 8004640:	0925      	lsrs	r5, r4, #4
 8004642:	46b8      	mov	r8, r7
 8004644:	002f      	movs	r7, r5
 8004646:	2501      	movs	r5, #1
 8004648:	402f      	ands	r7, r5
 800464a:	409f      	lsls	r7, r3
 800464c:	46bc      	mov	ip, r7
 800464e:	4647      	mov	r7, r8
 8004650:	4665      	mov	r5, ip
 8004652:	432f      	orrs	r7, r5
 8004654:	6047      	str	r7, [r0, #4]
 8004656:	68c5      	ldr	r5, [r0, #12]
 8004658:	002f      	movs	r7, r5
 800465a:	9d01      	ldr	r5, [sp, #4]
 800465c:	402f      	ands	r7, r5
 800465e:	465d      	mov	r5, fp
 8004660:	68ad      	ldr	r5, [r5, #8]
 8004662:	46b8      	mov	r8, r7
 8004664:	002f      	movs	r7, r5
 8004666:	40b7      	lsls	r7, r6
 8004668:	46bc      	mov	ip, r7
 800466a:	4647      	mov	r7, r8
 800466c:	4665      	mov	r5, ip
 800466e:	432f      	orrs	r7, r5
 8004670:	60c7      	str	r7, [r0, #12]
 8004672:	2902      	cmp	r1, #2
 8004674:	d000      	beq.n	8004678 <HAL_GPIO_Init+0x150>
 8004676:	e77f      	b.n	8004578 <HAL_GPIO_Init+0x50>
 8004678:	08dd      	lsrs	r5, r3, #3
 800467a:	00ad      	lsls	r5, r5, #2
 800467c:	46ac      	mov	ip, r5
 800467e:	4484      	add	ip, r0
 8004680:	4665      	mov	r5, ip
 8004682:	6a2f      	ldr	r7, [r5, #32]
 8004684:	2507      	movs	r5, #7
 8004686:	401d      	ands	r5, r3
 8004688:	00ad      	lsls	r5, r5, #2
 800468a:	46a8      	mov	r8, r5
 800468c:	9702      	str	r7, [sp, #8]
 800468e:	250f      	movs	r5, #15
 8004690:	4647      	mov	r7, r8
 8004692:	40bd      	lsls	r5, r7
 8004694:	9f02      	ldr	r7, [sp, #8]
 8004696:	43af      	bics	r7, r5
 8004698:	465d      	mov	r5, fp
 800469a:	9702      	str	r7, [sp, #8]
 800469c:	4647      	mov	r7, r8
 800469e:	692d      	ldr	r5, [r5, #16]
 80046a0:	40bd      	lsls	r5, r7
 80046a2:	9f02      	ldr	r7, [sp, #8]
 80046a4:	432f      	orrs	r7, r5
 80046a6:	4665      	mov	r5, ip
 80046a8:	622f      	str	r7, [r5, #32]
 80046aa:	e765      	b.n	8004578 <HAL_GPIO_Init+0x50>
 80046ac:	2702      	movs	r7, #2
 80046ae:	40b7      	lsls	r7, r6
 80046b0:	433d      	orrs	r5, r7
 80046b2:	e786      	b.n	80045c2 <HAL_GPIO_Init+0x9a>
 80046b4:	4654      	mov	r4, sl
 80046b6:	430c      	orrs	r4, r1
 80046b8:	0021      	movs	r1, r4
 80046ba:	e7a4      	b.n	8004606 <HAL_GPIO_Init+0xde>
 80046bc:	4656      	mov	r6, sl
 80046be:	4331      	orrs	r1, r6
 80046c0:	e799      	b.n	80045f6 <HAL_GPIO_Init+0xce>
 80046c2:	4656      	mov	r6, sl
 80046c4:	4331      	orrs	r1, r6
 80046c6:	e78f      	b.n	80045e8 <HAL_GPIO_Init+0xc0>
 80046c8:	4656      	mov	r6, sl
 80046ca:	4331      	orrs	r1, r6
 80046cc:	e784      	b.n	80045d8 <HAL_GPIO_Init+0xb0>
 80046ce:	2701      	movs	r7, #1
 80046d0:	40b7      	lsls	r7, r6
 80046d2:	433d      	orrs	r5, r7
 80046d4:	e775      	b.n	80045c2 <HAL_GPIO_Init+0x9a>
 80046d6:	2101      	movs	r1, #1
 80046d8:	468a      	mov	sl, r1
 80046da:	4659      	mov	r1, fp
 80046dc:	9102      	str	r1, [sp, #8]
 80046de:	e040      	b.n	8004762 <HAL_GPIO_Init+0x23a>
 80046e0:	2903      	cmp	r1, #3
 80046e2:	d000      	beq.n	80046e6 <HAL_GPIO_Init+0x1be>
 80046e4:	e0b5      	b.n	8004852 <HAL_GPIO_Init+0x32a>
 80046e6:	40b1      	lsls	r1, r6
 80046e8:	6807      	ldr	r7, [r0, #0]
 80046ea:	9d01      	ldr	r5, [sp, #4]
 80046ec:	403d      	ands	r5, r7
 80046ee:	4329      	orrs	r1, r5
 80046f0:	6001      	str	r1, [r0, #0]
 80046f2:	21c0      	movs	r1, #192	@ 0xc0
 80046f4:	0289      	lsls	r1, r1, #10
 80046f6:	420c      	tst	r4, r1
 80046f8:	d02e      	beq.n	8004758 <HAL_GPIO_Init+0x230>
 80046fa:	2603      	movs	r6, #3
 80046fc:	270f      	movs	r7, #15
 80046fe:	4d5e      	ldr	r5, [pc, #376]	@ (8004878 <HAL_GPIO_Init+0x350>)
 8004700:	401e      	ands	r6, r3
 8004702:	46ac      	mov	ip, r5
 8004704:	00f6      	lsls	r6, r6, #3
 8004706:	40b7      	lsls	r7, r6
 8004708:	0899      	lsrs	r1, r3, #2
 800470a:	0089      	lsls	r1, r1, #2
 800470c:	4461      	add	r1, ip
 800470e:	6e0d      	ldr	r5, [r1, #96]	@ 0x60
 8004710:	2680      	movs	r6, #128	@ 0x80
 8004712:	43bd      	bics	r5, r7
 8004714:	660d      	str	r5, [r1, #96]	@ 0x60
 8004716:	4661      	mov	r1, ip
 8004718:	465d      	mov	r5, fp
 800471a:	0376      	lsls	r6, r6, #13
 800471c:	43ed      	mvns	r5, r5
 800471e:	6809      	ldr	r1, [r1, #0]
 8004720:	4234      	tst	r4, r6
 8004722:	d000      	beq.n	8004726 <HAL_GPIO_Init+0x1fe>
 8004724:	e081      	b.n	800482a <HAL_GPIO_Init+0x302>
 8004726:	4029      	ands	r1, r5
 8004728:	4e53      	ldr	r6, [pc, #332]	@ (8004878 <HAL_GPIO_Init+0x350>)
 800472a:	6031      	str	r1, [r6, #0]
 800472c:	6871      	ldr	r1, [r6, #4]
 800472e:	02a6      	lsls	r6, r4, #10
 8004730:	d478      	bmi.n	8004824 <HAL_GPIO_Init+0x2fc>
 8004732:	4029      	ands	r1, r5
 8004734:	4e50      	ldr	r6, [pc, #320]	@ (8004878 <HAL_GPIO_Init+0x350>)
 8004736:	6071      	str	r1, [r6, #4]
 8004738:	2184      	movs	r1, #132	@ 0x84
 800473a:	5871      	ldr	r1, [r6, r1]
 800473c:	03a6      	lsls	r6, r4, #14
 800473e:	d46e      	bmi.n	800481e <HAL_GPIO_Init+0x2f6>
 8004740:	4029      	ands	r1, r5
 8004742:	2684      	movs	r6, #132	@ 0x84
 8004744:	4f4c      	ldr	r7, [pc, #304]	@ (8004878 <HAL_GPIO_Init+0x350>)
 8004746:	51b9      	str	r1, [r7, r6]
 8004748:	2180      	movs	r1, #128	@ 0x80
 800474a:	5879      	ldr	r1, [r7, r1]
 800474c:	03e4      	lsls	r4, r4, #15
 800474e:	d463      	bmi.n	8004818 <HAL_GPIO_Init+0x2f0>
 8004750:	4029      	ands	r1, r5
 8004752:	2480      	movs	r4, #128	@ 0x80
 8004754:	4d48      	ldr	r5, [pc, #288]	@ (8004878 <HAL_GPIO_Init+0x350>)
 8004756:	5129      	str	r1, [r5, r4]
 8004758:	0011      	movs	r1, r2
 800475a:	3301      	adds	r3, #1
 800475c:	40d9      	lsrs	r1, r3
 800475e:	d100      	bne.n	8004762 <HAL_GPIO_Init+0x23a>
 8004760:	e758      	b.n	8004614 <HAL_GPIO_Init+0xec>
 8004762:	4651      	mov	r1, sl
 8004764:	4099      	lsls	r1, r3
 8004766:	468c      	mov	ip, r1
 8004768:	4011      	ands	r1, r2
 800476a:	468b      	mov	fp, r1
 800476c:	4661      	mov	r1, ip
 800476e:	4211      	tst	r1, r2
 8004770:	d0f2      	beq.n	8004758 <HAL_GPIO_Init+0x230>
 8004772:	2503      	movs	r5, #3
 8004774:	005e      	lsls	r6, r3, #1
 8004776:	40b5      	lsls	r5, r6
 8004778:	9902      	ldr	r1, [sp, #8]
 800477a:	43ed      	mvns	r5, r5
 800477c:	684c      	ldr	r4, [r1, #4]
 800477e:	2103      	movs	r1, #3
 8004780:	4021      	ands	r1, r4
 8004782:	1e4f      	subs	r7, r1, #1
 8004784:	9501      	str	r5, [sp, #4]
 8004786:	2f01      	cmp	r7, #1
 8004788:	d8aa      	bhi.n	80046e0 <HAL_GPIO_Init+0x1b8>
 800478a:	6887      	ldr	r7, [r0, #8]
 800478c:	402f      	ands	r7, r5
 800478e:	9d02      	ldr	r5, [sp, #8]
 8004790:	46b9      	mov	r9, r7
 8004792:	68ef      	ldr	r7, [r5, #12]
 8004794:	40b7      	lsls	r7, r6
 8004796:	46b8      	mov	r8, r7
 8004798:	464f      	mov	r7, r9
 800479a:	4645      	mov	r5, r8
 800479c:	432f      	orrs	r7, r5
 800479e:	6087      	str	r7, [r0, #8]
 80047a0:	6845      	ldr	r5, [r0, #4]
 80047a2:	002f      	movs	r7, r5
 80047a4:	4665      	mov	r5, ip
 80047a6:	43af      	bics	r7, r5
 80047a8:	0925      	lsrs	r5, r4, #4
 80047aa:	46b8      	mov	r8, r7
 80047ac:	002f      	movs	r7, r5
 80047ae:	4655      	mov	r5, sl
 80047b0:	402f      	ands	r7, r5
 80047b2:	409f      	lsls	r7, r3
 80047b4:	46bc      	mov	ip, r7
 80047b6:	4647      	mov	r7, r8
 80047b8:	4665      	mov	r5, ip
 80047ba:	432f      	orrs	r7, r5
 80047bc:	6047      	str	r7, [r0, #4]
 80047be:	68c5      	ldr	r5, [r0, #12]
 80047c0:	002f      	movs	r7, r5
 80047c2:	9d01      	ldr	r5, [sp, #4]
 80047c4:	402f      	ands	r7, r5
 80047c6:	9d02      	ldr	r5, [sp, #8]
 80047c8:	46b8      	mov	r8, r7
 80047ca:	68ad      	ldr	r5, [r5, #8]
 80047cc:	002f      	movs	r7, r5
 80047ce:	40b7      	lsls	r7, r6
 80047d0:	46bc      	mov	ip, r7
 80047d2:	4647      	mov	r7, r8
 80047d4:	4665      	mov	r5, ip
 80047d6:	432f      	orrs	r7, r5
 80047d8:	60c7      	str	r7, [r0, #12]
 80047da:	2902      	cmp	r1, #2
 80047dc:	d183      	bne.n	80046e6 <HAL_GPIO_Init+0x1be>
 80047de:	08dd      	lsrs	r5, r3, #3
 80047e0:	00ad      	lsls	r5, r5, #2
 80047e2:	46ac      	mov	ip, r5
 80047e4:	25a0      	movs	r5, #160	@ 0xa0
 80047e6:	05ed      	lsls	r5, r5, #23
 80047e8:	46a8      	mov	r8, r5
 80047ea:	44c4      	add	ip, r8
 80047ec:	4665      	mov	r5, ip
 80047ee:	6a2f      	ldr	r7, [r5, #32]
 80047f0:	2507      	movs	r5, #7
 80047f2:	401d      	ands	r5, r3
 80047f4:	00ad      	lsls	r5, r5, #2
 80047f6:	46a9      	mov	r9, r5
 80047f8:	9703      	str	r7, [sp, #12]
 80047fa:	250f      	movs	r5, #15
 80047fc:	464f      	mov	r7, r9
 80047fe:	40bd      	lsls	r5, r7
 8004800:	9f03      	ldr	r7, [sp, #12]
 8004802:	43af      	bics	r7, r5
 8004804:	9703      	str	r7, [sp, #12]
 8004806:	464f      	mov	r7, r9
 8004808:	9d02      	ldr	r5, [sp, #8]
 800480a:	692d      	ldr	r5, [r5, #16]
 800480c:	40bd      	lsls	r5, r7
 800480e:	9f03      	ldr	r7, [sp, #12]
 8004810:	432f      	orrs	r7, r5
 8004812:	4665      	mov	r5, ip
 8004814:	622f      	str	r7, [r5, #32]
 8004816:	e766      	b.n	80046e6 <HAL_GPIO_Init+0x1be>
 8004818:	465c      	mov	r4, fp
 800481a:	4321      	orrs	r1, r4
 800481c:	e799      	b.n	8004752 <HAL_GPIO_Init+0x22a>
 800481e:	465e      	mov	r6, fp
 8004820:	4331      	orrs	r1, r6
 8004822:	e78e      	b.n	8004742 <HAL_GPIO_Init+0x21a>
 8004824:	465e      	mov	r6, fp
 8004826:	4331      	orrs	r1, r6
 8004828:	e784      	b.n	8004734 <HAL_GPIO_Init+0x20c>
 800482a:	465e      	mov	r6, fp
 800482c:	4331      	orrs	r1, r6
 800482e:	e77b      	b.n	8004728 <HAL_GPIO_Init+0x200>
 8004830:	2703      	movs	r7, #3
 8004832:	40b7      	lsls	r7, r6
 8004834:	433d      	orrs	r5, r7
 8004836:	e6c4      	b.n	80045c2 <HAL_GPIO_Init+0x9a>
 8004838:	002f      	movs	r7, r5
 800483a:	68c5      	ldr	r5, [r0, #12]
 800483c:	403d      	ands	r5, r7
 800483e:	46a8      	mov	r8, r5
 8004840:	465d      	mov	r5, fp
 8004842:	68ad      	ldr	r5, [r5, #8]
 8004844:	40b5      	lsls	r5, r6
 8004846:	46ac      	mov	ip, r5
 8004848:	4645      	mov	r5, r8
 800484a:	4667      	mov	r7, ip
 800484c:	433d      	orrs	r5, r7
 800484e:	60c5      	str	r5, [r0, #12]
 8004850:	e692      	b.n	8004578 <HAL_GPIO_Init+0x50>
 8004852:	002f      	movs	r7, r5
 8004854:	25a0      	movs	r5, #160	@ 0xa0
 8004856:	05ed      	lsls	r5, r5, #23
 8004858:	46a8      	mov	r8, r5
 800485a:	68ed      	ldr	r5, [r5, #12]
 800485c:	403d      	ands	r5, r7
 800485e:	46a9      	mov	r9, r5
 8004860:	9d02      	ldr	r5, [sp, #8]
 8004862:	68ad      	ldr	r5, [r5, #8]
 8004864:	40b5      	lsls	r5, r6
 8004866:	46ac      	mov	ip, r5
 8004868:	464d      	mov	r5, r9
 800486a:	4667      	mov	r7, ip
 800486c:	433d      	orrs	r5, r7
 800486e:	46ac      	mov	ip, r5
 8004870:	4645      	mov	r5, r8
 8004872:	4667      	mov	r7, ip
 8004874:	60ef      	str	r7, [r5, #12]
 8004876:	e736      	b.n	80046e6 <HAL_GPIO_Init+0x1be>
 8004878:	40021800 	.word	0x40021800
 800487c:	50000400 	.word	0x50000400
 8004880:	50000800 	.word	0x50000800
 8004884:	50000c00 	.word	0x50000c00

08004888 <HAL_GPIO_ReadPin>:
 8004888:	6900      	ldr	r0, [r0, #16]
 800488a:	4008      	ands	r0, r1
 800488c:	1e43      	subs	r3, r0, #1
 800488e:	4198      	sbcs	r0, r3
 8004890:	b2c0      	uxtb	r0, r0
 8004892:	4770      	bx	lr

08004894 <HAL_GPIO_WritePin>:
 8004894:	2a00      	cmp	r2, #0
 8004896:	d001      	beq.n	800489c <HAL_GPIO_WritePin+0x8>
 8004898:	6181      	str	r1, [r0, #24]
 800489a:	4770      	bx	lr
 800489c:	6281      	str	r1, [r0, #40]	@ 0x28
 800489e:	e7fc      	b.n	800489a <HAL_GPIO_WritePin+0x6>

080048a0 <HAL_GPIO_EXTI_IRQHandler>:
 80048a0:	4b0b      	ldr	r3, [pc, #44]	@ (80048d0 <HAL_GPIO_EXTI_IRQHandler+0x30>)
 80048a2:	b510      	push	{r4, lr}
 80048a4:	68da      	ldr	r2, [r3, #12]
 80048a6:	0004      	movs	r4, r0
 80048a8:	4210      	tst	r0, r2
 80048aa:	d104      	bne.n	80048b6 <HAL_GPIO_EXTI_IRQHandler+0x16>
 80048ac:	4b08      	ldr	r3, [pc, #32]	@ (80048d0 <HAL_GPIO_EXTI_IRQHandler+0x30>)
 80048ae:	691a      	ldr	r2, [r3, #16]
 80048b0:	4222      	tst	r2, r4
 80048b2:	d107      	bne.n	80048c4 <HAL_GPIO_EXTI_IRQHandler+0x24>
 80048b4:	bd10      	pop	{r4, pc}
 80048b6:	60d8      	str	r0, [r3, #12]
 80048b8:	f7fd fcfe 	bl	80022b8 <HAL_GPIO_EXTI_Rising_Callback>
 80048bc:	4b04      	ldr	r3, [pc, #16]	@ (80048d0 <HAL_GPIO_EXTI_IRQHandler+0x30>)
 80048be:	691a      	ldr	r2, [r3, #16]
 80048c0:	4222      	tst	r2, r4
 80048c2:	d0f7      	beq.n	80048b4 <HAL_GPIO_EXTI_IRQHandler+0x14>
 80048c4:	0020      	movs	r0, r4
 80048c6:	611c      	str	r4, [r3, #16]
 80048c8:	f7fd fcda 	bl	8002280 <HAL_GPIO_EXTI_Falling_Callback>
 80048cc:	e7f2      	b.n	80048b4 <HAL_GPIO_EXTI_IRQHandler+0x14>
 80048ce:	46c0      	nop			@ (mov r8, r8)
 80048d0:	40021800 	.word	0x40021800

080048d4 <HAL_LPTIM_DirectionDownCallback>:
 80048d4:	4770      	bx	lr
 80048d6:	46c0      	nop			@ (mov r8, r8)

080048d8 <HAL_LPTIM_CompareMatchCallback>:
 80048d8:	4770      	bx	lr
 80048da:	46c0      	nop			@ (mov r8, r8)

080048dc <HAL_LPTIM_AutoReloadMatchCallback>:
 80048dc:	4770      	bx	lr
 80048de:	46c0      	nop			@ (mov r8, r8)

080048e0 <HAL_LPTIM_TriggerCallback>:
 80048e0:	4770      	bx	lr
 80048e2:	46c0      	nop			@ (mov r8, r8)

080048e4 <HAL_LPTIM_CompareWriteCallback>:
 80048e4:	4770      	bx	lr
 80048e6:	46c0      	nop			@ (mov r8, r8)

080048e8 <HAL_LPTIM_AutoReloadWriteCallback>:
 80048e8:	4770      	bx	lr
 80048ea:	46c0      	nop			@ (mov r8, r8)

080048ec <HAL_LPTIM_DirectionUpCallback>:
 80048ec:	4770      	bx	lr
 80048ee:	46c0      	nop			@ (mov r8, r8)

080048f0 <HAL_LPTIM_Init>:
 80048f0:	b5f8      	push	{r3, r4, r5, r6, r7, lr}
 80048f2:	1e04      	subs	r4, r0, #0
 80048f4:	d062      	beq.n	80049bc <HAL_LPTIM_Init+0xcc>
 80048f6:	2336      	movs	r3, #54	@ 0x36
 80048f8:	5cc3      	ldrb	r3, [r0, r3]
 80048fa:	b2da      	uxtb	r2, r3
 80048fc:	2b00      	cmp	r3, #0
 80048fe:	d114      	bne.n	800492a <HAL_LPTIM_Init+0x3a>
 8004900:	3335      	adds	r3, #53	@ 0x35
 8004902:	54c2      	strb	r2, [r0, r3]
 8004904:	4b30      	ldr	r3, [pc, #192]	@ (80049c8 <HAL_LPTIM_Init+0xd8>)
 8004906:	6403      	str	r3, [r0, #64]	@ 0x40
 8004908:	4b30      	ldr	r3, [pc, #192]	@ (80049cc <HAL_LPTIM_Init+0xdc>)
 800490a:	6443      	str	r3, [r0, #68]	@ 0x44
 800490c:	4b30      	ldr	r3, [pc, #192]	@ (80049d0 <HAL_LPTIM_Init+0xe0>)
 800490e:	6483      	str	r3, [r0, #72]	@ 0x48
 8004910:	4b30      	ldr	r3, [pc, #192]	@ (80049d4 <HAL_LPTIM_Init+0xe4>)
 8004912:	64c3      	str	r3, [r0, #76]	@ 0x4c
 8004914:	4b30      	ldr	r3, [pc, #192]	@ (80049d8 <HAL_LPTIM_Init+0xe8>)
 8004916:	6503      	str	r3, [r0, #80]	@ 0x50
 8004918:	4b30      	ldr	r3, [pc, #192]	@ (80049dc <HAL_LPTIM_Init+0xec>)
 800491a:	6543      	str	r3, [r0, #84]	@ 0x54
 800491c:	4b30      	ldr	r3, [pc, #192]	@ (80049e0 <HAL_LPTIM_Init+0xf0>)
 800491e:	6583      	str	r3, [r0, #88]	@ 0x58
 8004920:	6b83      	ldr	r3, [r0, #56]	@ 0x38
 8004922:	2b00      	cmp	r3, #0
 8004924:	d04c      	beq.n	80049c0 <HAL_LPTIM_Init+0xd0>
 8004926:	0020      	movs	r0, r4
 8004928:	4798      	blx	r3
 800492a:	2336      	movs	r3, #54	@ 0x36
 800492c:	2202      	movs	r2, #2
 800492e:	54e2      	strb	r2, [r4, r3]
 8004930:	6820      	ldr	r0, [r4, #0]
 8004932:	6865      	ldr	r5, [r4, #4]
 8004934:	68c3      	ldr	r3, [r0, #12]
 8004936:	6aa6      	ldr	r6, [r4, #40]	@ 0x28
 8004938:	2d01      	cmp	r5, #1
 800493a:	d038      	beq.n	80049ae <HAL_LPTIM_Init+0xbe>
 800493c:	2280      	movs	r2, #128	@ 0x80
 800493e:	0412      	lsls	r2, r2, #16
 8004940:	4296      	cmp	r6, r2
 8004942:	d034      	beq.n	80049ae <HAL_LPTIM_Init+0xbe>
 8004944:	6961      	ldr	r1, [r4, #20]
 8004946:	4a27      	ldr	r2, [pc, #156]	@ (80049e4 <HAL_LPTIM_Init+0xf4>)
 8004948:	4291      	cmp	r1, r2
 800494a:	d001      	beq.n	8004950 <HAL_LPTIM_Init+0x60>
 800494c:	4a26      	ldr	r2, [pc, #152]	@ (80049e8 <HAL_LPTIM_Init+0xf8>)
 800494e:	4013      	ands	r3, r2
 8004950:	4a26      	ldr	r2, [pc, #152]	@ (80049ec <HAL_LPTIM_Init+0xfc>)
 8004952:	68a7      	ldr	r7, [r4, #8]
 8004954:	401a      	ands	r2, r3
 8004956:	002b      	movs	r3, r5
 8004958:	4333      	orrs	r3, r6
 800495a:	433b      	orrs	r3, r7
 800495c:	6a27      	ldr	r7, [r4, #32]
 800495e:	433b      	orrs	r3, r7
 8004960:	6a67      	ldr	r7, [r4, #36]	@ 0x24
 8004962:	433b      	orrs	r3, r7
 8004964:	4313      	orrs	r3, r2
 8004966:	2d00      	cmp	r5, #0
 8004968:	d018      	beq.n	800499c <HAL_LPTIM_Init+0xac>
 800496a:	2d01      	cmp	r5, #1
 800496c:	d11a      	bne.n	80049a4 <HAL_LPTIM_Init+0xb4>
 800496e:	68e2      	ldr	r2, [r4, #12]
 8004970:	6925      	ldr	r5, [r4, #16]
 8004972:	432a      	orrs	r2, r5
 8004974:	4313      	orrs	r3, r2
 8004976:	4a1b      	ldr	r2, [pc, #108]	@ (80049e4 <HAL_LPTIM_Init+0xf4>)
 8004978:	4291      	cmp	r1, r2
 800497a:	d004      	beq.n	8004986 <HAL_LPTIM_Init+0x96>
 800497c:	69a2      	ldr	r2, [r4, #24]
 800497e:	4311      	orrs	r1, r2
 8004980:	69e2      	ldr	r2, [r4, #28]
 8004982:	4311      	orrs	r1, r2
 8004984:	430b      	orrs	r3, r1
 8004986:	4a1a      	ldr	r2, [pc, #104]	@ (80049f0 <HAL_LPTIM_Init+0x100>)
 8004988:	60c3      	str	r3, [r0, #12]
 800498a:	6ae3      	ldr	r3, [r4, #44]	@ 0x2c
 800498c:	4290      	cmp	r0, r2
 800498e:	d011      	beq.n	80049b4 <HAL_LPTIM_Init+0xc4>
 8004990:	6243      	str	r3, [r0, #36]	@ 0x24
 8004992:	2336      	movs	r3, #54	@ 0x36
 8004994:	2201      	movs	r2, #1
 8004996:	2000      	movs	r0, #0
 8004998:	54e2      	strb	r2, [r4, r3]
 800499a:	bdf8      	pop	{r3, r4, r5, r6, r7, pc}
 800499c:	69e2      	ldr	r2, [r4, #28]
 800499e:	6925      	ldr	r5, [r4, #16]
 80049a0:	432a      	orrs	r2, r5
 80049a2:	4313      	orrs	r3, r2
 80049a4:	2280      	movs	r2, #128	@ 0x80
 80049a6:	0412      	lsls	r2, r2, #16
 80049a8:	4296      	cmp	r6, r2
 80049aa:	d1e4      	bne.n	8004976 <HAL_LPTIM_Init+0x86>
 80049ac:	e7df      	b.n	800496e <HAL_LPTIM_Init+0x7e>
 80049ae:	221e      	movs	r2, #30
 80049b0:	4393      	bics	r3, r2
 80049b2:	e7c7      	b.n	8004944 <HAL_LPTIM_Init+0x54>
 80049b4:	6b22      	ldr	r2, [r4, #48]	@ 0x30
 80049b6:	4313      	orrs	r3, r2
 80049b8:	6243      	str	r3, [r0, #36]	@ 0x24
 80049ba:	e7ea      	b.n	8004992 <HAL_LPTIM_Init+0xa2>
 80049bc:	2001      	movs	r0, #1
 80049be:	e7ec      	b.n	800499a <HAL_LPTIM_Init+0xaa>
 80049c0:	4b0c      	ldr	r3, [pc, #48]	@ (80049f4 <HAL_LPTIM_Init+0x104>)
 80049c2:	6383      	str	r3, [r0, #56]	@ 0x38
 80049c4:	e7af      	b.n	8004926 <HAL_LPTIM_Init+0x36>
 80049c6:	46c0      	nop			@ (mov r8, r8)
 80049c8:	080048d9 	.word	0x080048d9
 80049cc:	080048dd 	.word	0x080048dd
 80049d0:	080048e1 	.word	0x080048e1
 80049d4:	080048e5 	.word	0x080048e5
 80049d8:	080048e9 	.word	0x080048e9
 80049dc:	080048ed 	.word	0x080048ed
 80049e0:	080048d5 	.word	0x080048d5
 80049e4:	0000ffff 	.word	0x0000ffff
 80049e8:	ffff1f3f 	.word	0xffff1f3f
 80049ec:	ff19f1fe 	.word	0xff19f1fe
 80049f0:	40007c00 	.word	0x40007c00
 80049f4:	08002da9 	.word	0x08002da9

080049f8 <HAL_LPTIM_IRQHandler>:
 80049f8:	2201      	movs	r2, #1
 80049fa:	6803      	ldr	r3, [r0, #0]
 80049fc:	b510      	push	{r4, lr}
 80049fe:	6819      	ldr	r1, [r3, #0]
 8004a00:	0004      	movs	r4, r0
 8004a02:	420a      	tst	r2, r1
 8004a04:	d002      	beq.n	8004a0c <HAL_LPTIM_IRQHandler+0x14>
 8004a06:	6899      	ldr	r1, [r3, #8]
 8004a08:	420a      	tst	r2, r1
 8004a0a:	d14c      	bne.n	8004aa6 <HAL_LPTIM_IRQHandler+0xae>
 8004a0c:	2202      	movs	r2, #2
 8004a0e:	6819      	ldr	r1, [r3, #0]
 8004a10:	420a      	tst	r2, r1
 8004a12:	d002      	beq.n	8004a1a <HAL_LPTIM_IRQHandler+0x22>
 8004a14:	6899      	ldr	r1, [r3, #8]
 8004a16:	420a      	tst	r2, r1
 8004a18:	d13f      	bne.n	8004a9a <HAL_LPTIM_IRQHandler+0xa2>
 8004a1a:	2204      	movs	r2, #4
 8004a1c:	6819      	ldr	r1, [r3, #0]
 8004a1e:	420a      	tst	r2, r1
 8004a20:	d002      	beq.n	8004a28 <HAL_LPTIM_IRQHandler+0x30>
 8004a22:	6899      	ldr	r1, [r3, #8]
 8004a24:	420a      	tst	r2, r1
 8004a26:	d132      	bne.n	8004a8e <HAL_LPTIM_IRQHandler+0x96>
 8004a28:	2208      	movs	r2, #8
 8004a2a:	6819      	ldr	r1, [r3, #0]
 8004a2c:	420a      	tst	r2, r1
 8004a2e:	d002      	beq.n	8004a36 <HAL_LPTIM_IRQHandler+0x3e>
 8004a30:	6899      	ldr	r1, [r3, #8]
 8004a32:	420a      	tst	r2, r1
 8004a34:	d125      	bne.n	8004a82 <HAL_LPTIM_IRQHandler+0x8a>
 8004a36:	2210      	movs	r2, #16
 8004a38:	6819      	ldr	r1, [r3, #0]
 8004a3a:	420a      	tst	r2, r1
 8004a3c:	d002      	beq.n	8004a44 <HAL_LPTIM_IRQHandler+0x4c>
 8004a3e:	6899      	ldr	r1, [r3, #8]
 8004a40:	420a      	tst	r2, r1
 8004a42:	d118      	bne.n	8004a76 <HAL_LPTIM_IRQHandler+0x7e>
 8004a44:	2220      	movs	r2, #32
 8004a46:	6819      	ldr	r1, [r3, #0]
 8004a48:	420a      	tst	r2, r1
 8004a4a:	d002      	beq.n	8004a52 <HAL_LPTIM_IRQHandler+0x5a>
 8004a4c:	6899      	ldr	r1, [r3, #8]
 8004a4e:	420a      	tst	r2, r1
 8004a50:	d10b      	bne.n	8004a6a <HAL_LPTIM_IRQHandler+0x72>
 8004a52:	2240      	movs	r2, #64	@ 0x40
 8004a54:	6819      	ldr	r1, [r3, #0]
 8004a56:	420a      	tst	r2, r1
 8004a58:	d006      	beq.n	8004a68 <HAL_LPTIM_IRQHandler+0x70>
 8004a5a:	6899      	ldr	r1, [r3, #8]
 8004a5c:	420a      	tst	r2, r1
 8004a5e:	d003      	beq.n	8004a68 <HAL_LPTIM_IRQHandler+0x70>
 8004a60:	605a      	str	r2, [r3, #4]
 8004a62:	0020      	movs	r0, r4
 8004a64:	6da3      	ldr	r3, [r4, #88]	@ 0x58
 8004a66:	4798      	blx	r3
 8004a68:	bd10      	pop	{r4, pc}
 8004a6a:	605a      	str	r2, [r3, #4]
 8004a6c:	0020      	movs	r0, r4
 8004a6e:	6d63      	ldr	r3, [r4, #84]	@ 0x54
 8004a70:	4798      	blx	r3
 8004a72:	6823      	ldr	r3, [r4, #0]
 8004a74:	e7ed      	b.n	8004a52 <HAL_LPTIM_IRQHandler+0x5a>
 8004a76:	605a      	str	r2, [r3, #4]
 8004a78:	0020      	movs	r0, r4
 8004a7a:	6d23      	ldr	r3, [r4, #80]	@ 0x50
 8004a7c:	4798      	blx	r3
 8004a7e:	6823      	ldr	r3, [r4, #0]
 8004a80:	e7e0      	b.n	8004a44 <HAL_LPTIM_IRQHandler+0x4c>
 8004a82:	605a      	str	r2, [r3, #4]
 8004a84:	0020      	movs	r0, r4
 8004a86:	6ce3      	ldr	r3, [r4, #76]	@ 0x4c
 8004a88:	4798      	blx	r3
 8004a8a:	6823      	ldr	r3, [r4, #0]
 8004a8c:	e7d3      	b.n	8004a36 <HAL_LPTIM_IRQHandler+0x3e>
 8004a8e:	605a      	str	r2, [r3, #4]
 8004a90:	0020      	movs	r0, r4
 8004a92:	6ca3      	ldr	r3, [r4, #72]	@ 0x48
 8004a94:	4798      	blx	r3
 8004a96:	6823      	ldr	r3, [r4, #0]
 8004a98:	e7c6      	b.n	8004a28 <HAL_LPTIM_IRQHandler+0x30>
 8004a9a:	605a      	str	r2, [r3, #4]
 8004a9c:	0020      	movs	r0, r4
 8004a9e:	6c63      	ldr	r3, [r4, #68]	@ 0x44
 8004aa0:	4798      	blx	r3
 8004aa2:	6823      	ldr	r3, [r4, #0]
 8004aa4:	e7b9      	b.n	8004a1a <HAL_LPTIM_IRQHandler+0x22>
 8004aa6:	605a      	str	r2, [r3, #4]
 8004aa8:	6c03      	ldr	r3, [r0, #64]	@ 0x40
 8004aaa:	4798      	blx	r3
 8004aac:	6823      	ldr	r3, [r4, #0]
 8004aae:	e7ad      	b.n	8004a0c <HAL_LPTIM_IRQHandler+0x14>

08004ab0 <HAL_LPTIM_RegisterCallback>:
 8004ab0:	0003      	movs	r3, r0
 8004ab2:	b530      	push	{r4, r5, lr}
 8004ab4:	2a00      	cmp	r2, #0
 8004ab6:	d019      	beq.n	8004aec <HAL_LPTIM_RegisterCallback+0x3c>
 8004ab8:	2536      	movs	r5, #54	@ 0x36
 8004aba:	5d44      	ldrb	r4, [r0, r5]
 8004abc:	b2e0      	uxtb	r0, r4
 8004abe:	2c01      	cmp	r4, #1
 8004ac0:	d008      	beq.n	8004ad4 <HAL_LPTIM_RegisterCallback+0x24>
 8004ac2:	5d5c      	ldrb	r4, [r3, r5]
 8004ac4:	2001      	movs	r0, #1
 8004ac6:	2c00      	cmp	r4, #0
 8004ac8:	d103      	bne.n	8004ad2 <HAL_LPTIM_RegisterCallback+0x22>
 8004aca:	2900      	cmp	r1, #0
 8004acc:	d00b      	beq.n	8004ae6 <HAL_LPTIM_RegisterCallback+0x36>
 8004ace:	2901      	cmp	r1, #1
 8004ad0:	d006      	beq.n	8004ae0 <HAL_LPTIM_RegisterCallback+0x30>
 8004ad2:	bd30      	pop	{r4, r5, pc}
 8004ad4:	2908      	cmp	r1, #8
 8004ad6:	d8fc      	bhi.n	8004ad2 <HAL_LPTIM_RegisterCallback+0x22>
 8004ad8:	4810      	ldr	r0, [pc, #64]	@ (8004b1c <HAL_LPTIM_RegisterCallback+0x6c>)
 8004ada:	0089      	lsls	r1, r1, #2
 8004adc:	5841      	ldr	r1, [r0, r1]
 8004ade:	468f      	mov	pc, r1
 8004ae0:	2000      	movs	r0, #0
 8004ae2:	63da      	str	r2, [r3, #60]	@ 0x3c
 8004ae4:	e7f5      	b.n	8004ad2 <HAL_LPTIM_RegisterCallback+0x22>
 8004ae6:	2000      	movs	r0, #0
 8004ae8:	639a      	str	r2, [r3, #56]	@ 0x38
 8004aea:	e7f2      	b.n	8004ad2 <HAL_LPTIM_RegisterCallback+0x22>
 8004aec:	2001      	movs	r0, #1
 8004aee:	e7f0      	b.n	8004ad2 <HAL_LPTIM_RegisterCallback+0x22>
 8004af0:	2000      	movs	r0, #0
 8004af2:	645a      	str	r2, [r3, #68]	@ 0x44
 8004af4:	e7ed      	b.n	8004ad2 <HAL_LPTIM_RegisterCallback+0x22>
 8004af6:	2000      	movs	r0, #0
 8004af8:	649a      	str	r2, [r3, #72]	@ 0x48
 8004afa:	e7ea      	b.n	8004ad2 <HAL_LPTIM_RegisterCallback+0x22>
 8004afc:	2000      	movs	r0, #0
 8004afe:	64da      	str	r2, [r3, #76]	@ 0x4c
 8004b00:	e7e7      	b.n	8004ad2 <HAL_LPTIM_RegisterCallback+0x22>
 8004b02:	2000      	movs	r0, #0
 8004b04:	651a      	str	r2, [r3, #80]	@ 0x50
 8004b06:	e7e4      	b.n	8004ad2 <HAL_LPTIM_RegisterCallback+0x22>
 8004b08:	2000      	movs	r0, #0
 8004b0a:	659a      	str	r2, [r3, #88]	@ 0x58
 8004b0c:	e7e1      	b.n	8004ad2 <HAL_LPTIM_RegisterCallback+0x22>
 8004b0e:	2000      	movs	r0, #0
 8004b10:	641a      	str	r2, [r3, #64]	@ 0x40
 8004b12:	e7de      	b.n	8004ad2 <HAL_LPTIM_RegisterCallback+0x22>
 8004b14:	2000      	movs	r0, #0
 8004b16:	655a      	str	r2, [r3, #84]	@ 0x54
 8004b18:	e7db      	b.n	8004ad2 <HAL_LPTIM_RegisterCallback+0x22>
 8004b1a:	46c0      	nop			@ (mov r8, r8)
 8004b1c:	08008738 	.word	0x08008738

08004b20 <LPTIM_Disable>:
 8004b20:	b5f0      	push	{r4, r5, r6, r7, lr}
 8004b22:	4645      	mov	r5, r8
 8004b24:	46de      	mov	lr, fp
 8004b26:	4657      	mov	r7, sl
 8004b28:	464e      	mov	r6, r9
 8004b2a:	b5e0      	push	{r5, r6, r7, lr}
 8004b2c:	0005      	movs	r5, r0
 8004b2e:	b083      	sub	sp, #12
 8004b30:	f3ef 8310 	mrs	r3, PRIMASK
 8004b34:	9301      	str	r3, [sp, #4]
 8004b36:	2301      	movs	r3, #1
 8004b38:	f383 8810 	msr	PRIMASK, r3
 8004b3c:	4b69      	ldr	r3, [pc, #420]	@ (8004ce4 <LPTIM_Disable+0x1c4>)
 8004b3e:	6804      	ldr	r4, [r0, #0]
 8004b40:	429c      	cmp	r4, r3
 8004b42:	d100      	bne.n	8004b46 <LPTIM_Disable+0x26>
 8004b44:	e079      	b.n	8004c3a <LPTIM_Disable+0x11a>
 8004b46:	4b68      	ldr	r3, [pc, #416]	@ (8004ce8 <LPTIM_Disable+0x1c8>)
 8004b48:	429c      	cmp	r4, r3
 8004b4a:	d02e      	beq.n	8004baa <LPTIM_Disable+0x8a>
 8004b4c:	68a3      	ldr	r3, [r4, #8]
 8004b4e:	469a      	mov	sl, r3
 8004b50:	68e3      	ldr	r3, [r4, #12]
 8004b52:	4699      	mov	r9, r3
 8004b54:	6963      	ldr	r3, [r4, #20]
 8004b56:	69a6      	ldr	r6, [r4, #24]
 8004b58:	6a62      	ldr	r2, [r4, #36]	@ 0x24
 8004b5a:	4690      	mov	r8, r2
 8004b5c:	001a      	movs	r2, r3
 8004b5e:	4332      	orrs	r2, r6
 8004b60:	d00f      	beq.n	8004b82 <LPTIM_Disable+0x62>
 8004b62:	2b00      	cmp	r3, #0
 8004b64:	d000      	beq.n	8004b68 <LPTIM_Disable+0x48>
 8004b66:	e093      	b.n	8004c90 <LPTIM_Disable+0x170>
 8004b68:	001f      	movs	r7, r3
 8004b6a:	2e00      	cmp	r6, #0
 8004b6c:	d000      	beq.n	8004b70 <LPTIM_Disable+0x50>
 8004b6e:	e0b6      	b.n	8004cde <LPTIM_Disable+0x1be>
 8004b70:	4b5d      	ldr	r3, [pc, #372]	@ (8004ce8 <LPTIM_Disable+0x1c8>)
 8004b72:	429c      	cmp	r4, r3
 8004b74:	d105      	bne.n	8004b82 <LPTIM_Disable+0x62>
 8004b76:	4a5d      	ldr	r2, [pc, #372]	@ (8004cec <LPTIM_Disable+0x1cc>)
 8004b78:	495d      	ldr	r1, [pc, #372]	@ (8004cf0 <LPTIM_Disable+0x1d0>)
 8004b7a:	6d53      	ldr	r3, [r2, #84]	@ 0x54
 8004b7c:	400b      	ands	r3, r1
 8004b7e:	433b      	orrs	r3, r7
 8004b80:	6553      	str	r3, [r2, #84]	@ 0x54
 8004b82:	2201      	movs	r2, #1
 8004b84:	6923      	ldr	r3, [r4, #16]
 8004b86:	4393      	bics	r3, r2
 8004b88:	6123      	str	r3, [r4, #16]
 8004b8a:	4653      	mov	r3, sl
 8004b8c:	60a3      	str	r3, [r4, #8]
 8004b8e:	464b      	mov	r3, r9
 8004b90:	60e3      	str	r3, [r4, #12]
 8004b92:	4643      	mov	r3, r8
 8004b94:	6263      	str	r3, [r4, #36]	@ 0x24
 8004b96:	9b01      	ldr	r3, [sp, #4]
 8004b98:	f383 8810 	msr	PRIMASK, r3
 8004b9c:	b003      	add	sp, #12
 8004b9e:	bcf0      	pop	{r4, r5, r6, r7}
 8004ba0:	46bb      	mov	fp, r7
 8004ba2:	46b2      	mov	sl, r6
 8004ba4:	46a9      	mov	r9, r5
 8004ba6:	46a0      	mov	r8, r4
 8004ba8:	bdf0      	pop	{r4, r5, r6, r7, pc}
 8004baa:	4a50      	ldr	r2, [pc, #320]	@ (8004cec <LPTIM_Disable+0x1cc>)
 8004bac:	6d50      	ldr	r0, [r2, #84]	@ 0x54
 8004bae:	68a3      	ldr	r3, [r4, #8]
 8004bb0:	469a      	mov	sl, r3
 8004bb2:	68e3      	ldr	r3, [r4, #12]
 8004bb4:	4699      	mov	r9, r3
 8004bb6:	6963      	ldr	r3, [r4, #20]
 8004bb8:	69a6      	ldr	r6, [r4, #24]
 8004bba:	6a61      	ldr	r1, [r4, #36]	@ 0x24
 8004bbc:	4688      	mov	r8, r1
 8004bbe:	6ad1      	ldr	r1, [r2, #44]	@ 0x2c
 8004bc0:	468c      	mov	ip, r1
 8004bc2:	2180      	movs	r1, #128	@ 0x80
 8004bc4:	4667      	mov	r7, ip
 8004bc6:	05c9      	lsls	r1, r1, #23
 8004bc8:	4339      	orrs	r1, r7
 8004bca:	62d1      	str	r1, [r2, #44]	@ 0x2c
 8004bcc:	6ad1      	ldr	r1, [r2, #44]	@ 0x2c
 8004bce:	4f49      	ldr	r7, [pc, #292]	@ (8004cf4 <LPTIM_Disable+0x1d4>)
 8004bd0:	4039      	ands	r1, r7
 8004bd2:	62d1      	str	r1, [r2, #44]	@ 0x2c
 8004bd4:	0019      	movs	r1, r3
 8004bd6:	4331      	orrs	r1, r6
 8004bd8:	d0d3      	beq.n	8004b82 <LPTIM_Disable+0x62>
 8004bda:	21c0      	movs	r1, #192	@ 0xc0
 8004bdc:	0389      	lsls	r1, r1, #14
 8004bde:	4008      	ands	r0, r1
 8004be0:	0007      	movs	r7, r0
 8004be2:	6d51      	ldr	r1, [r2, #84]	@ 0x54
 8004be4:	4842      	ldr	r0, [pc, #264]	@ (8004cf0 <LPTIM_Disable+0x1d0>)
 8004be6:	4001      	ands	r1, r0
 8004be8:	6551      	str	r1, [r2, #84]	@ 0x54
 8004bea:	2b00      	cmp	r3, #0
 8004bec:	d152      	bne.n	8004c94 <LPTIM_Disable+0x174>
 8004bee:	2e00      	cmp	r6, #0
 8004bf0:	d0c1      	beq.n	8004b76 <LPTIM_Disable+0x56>
 8004bf2:	4b41      	ldr	r3, [pc, #260]	@ (8004cf8 <LPTIM_Disable+0x1d8>)
 8004bf4:	469b      	mov	fp, r3
 8004bf6:	2201      	movs	r2, #1
 8004bf8:	6923      	ldr	r3, [r4, #16]
 8004bfa:	4940      	ldr	r1, [pc, #256]	@ (8004cfc <LPTIM_Disable+0x1dc>)
 8004bfc:	4313      	orrs	r3, r2
 8004bfe:	6123      	str	r3, [r4, #16]
 8004c00:	465b      	mov	r3, fp
 8004c02:	61a6      	str	r6, [r4, #24]
 8004c04:	6818      	ldr	r0, [r3, #0]
 8004c06:	f7fb fa7d 	bl	8000104 <__udivsi3>
 8004c0a:	2110      	movs	r1, #16
 8004c0c:	0143      	lsls	r3, r0, #5
 8004c0e:	1a1b      	subs	r3, r3, r0
 8004c10:	009b      	lsls	r3, r3, #2
 8004c12:	181b      	adds	r3, r3, r0
 8004c14:	00db      	lsls	r3, r3, #3
 8004c16:	3b01      	subs	r3, #1
 8004c18:	2b00      	cmp	r3, #0
 8004c1a:	d034      	beq.n	8004c86 <LPTIM_Disable+0x166>
 8004c1c:	6822      	ldr	r2, [r4, #0]
 8004c1e:	4211      	tst	r1, r2
 8004c20:	d0f9      	beq.n	8004c16 <LPTIM_Disable+0xf6>
 8004c22:	2310      	movs	r3, #16
 8004c24:	6063      	str	r3, [r4, #4]
 8004c26:	4b2f      	ldr	r3, [pc, #188]	@ (8004ce4 <LPTIM_Disable+0x1c4>)
 8004c28:	429c      	cmp	r4, r3
 8004c2a:	d1a1      	bne.n	8004b70 <LPTIM_Disable+0x50>
 8004c2c:	4a2f      	ldr	r2, [pc, #188]	@ (8004cec <LPTIM_Disable+0x1cc>)
 8004c2e:	4934      	ldr	r1, [pc, #208]	@ (8004d00 <LPTIM_Disable+0x1e0>)
 8004c30:	6d53      	ldr	r3, [r2, #84]	@ 0x54
 8004c32:	400b      	ands	r3, r1
 8004c34:	433b      	orrs	r3, r7
 8004c36:	6553      	str	r3, [r2, #84]	@ 0x54
 8004c38:	e7a3      	b.n	8004b82 <LPTIM_Disable+0x62>
 8004c3a:	4a2c      	ldr	r2, [pc, #176]	@ (8004cec <LPTIM_Disable+0x1cc>)
 8004c3c:	6d50      	ldr	r0, [r2, #84]	@ 0x54
 8004c3e:	68a3      	ldr	r3, [r4, #8]
 8004c40:	469a      	mov	sl, r3
 8004c42:	68e3      	ldr	r3, [r4, #12]
 8004c44:	4699      	mov	r9, r3
 8004c46:	6963      	ldr	r3, [r4, #20]
 8004c48:	69a6      	ldr	r6, [r4, #24]
 8004c4a:	6a61      	ldr	r1, [r4, #36]	@ 0x24
 8004c4c:	4688      	mov	r8, r1
 8004c4e:	6ad1      	ldr	r1, [r2, #44]	@ 0x2c
 8004c50:	468c      	mov	ip, r1
 8004c52:	2180      	movs	r1, #128	@ 0x80
 8004c54:	4667      	mov	r7, ip
 8004c56:	0609      	lsls	r1, r1, #24
 8004c58:	4339      	orrs	r1, r7
 8004c5a:	62d1      	str	r1, [r2, #44]	@ 0x2c
 8004c5c:	6ad1      	ldr	r1, [r2, #44]	@ 0x2c
 8004c5e:	0049      	lsls	r1, r1, #1
 8004c60:	0849      	lsrs	r1, r1, #1
 8004c62:	62d1      	str	r1, [r2, #44]	@ 0x2c
 8004c64:	0019      	movs	r1, r3
 8004c66:	4331      	orrs	r1, r6
 8004c68:	d100      	bne.n	8004c6c <LPTIM_Disable+0x14c>
 8004c6a:	e78a      	b.n	8004b82 <LPTIM_Disable+0x62>
 8004c6c:	21c0      	movs	r1, #192	@ 0xc0
 8004c6e:	0309      	lsls	r1, r1, #12
 8004c70:	4008      	ands	r0, r1
 8004c72:	0007      	movs	r7, r0
 8004c74:	6d51      	ldr	r1, [r2, #84]	@ 0x54
 8004c76:	4822      	ldr	r0, [pc, #136]	@ (8004d00 <LPTIM_Disable+0x1e0>)
 8004c78:	4001      	ands	r1, r0
 8004c7a:	6551      	str	r1, [r2, #84]	@ 0x54
 8004c7c:	2b00      	cmp	r3, #0
 8004c7e:	d109      	bne.n	8004c94 <LPTIM_Disable+0x174>
 8004c80:	2e00      	cmp	r6, #0
 8004c82:	d0d3      	beq.n	8004c2c <LPTIM_Disable+0x10c>
 8004c84:	e7b5      	b.n	8004bf2 <LPTIM_Disable+0xd2>
 8004c86:	6823      	ldr	r3, [r4, #0]
 8004c88:	2203      	movs	r2, #3
 8004c8a:	2336      	movs	r3, #54	@ 0x36
 8004c8c:	54ea      	strb	r2, [r5, r3]
 8004c8e:	e7c8      	b.n	8004c22 <LPTIM_Disable+0x102>
 8004c90:	2200      	movs	r2, #0
 8004c92:	0017      	movs	r7, r2
 8004c94:	2101      	movs	r1, #1
 8004c96:	6922      	ldr	r2, [r4, #16]
 8004c98:	430a      	orrs	r2, r1
 8004c9a:	6122      	str	r2, [r4, #16]
 8004c9c:	6163      	str	r3, [r4, #20]
 8004c9e:	4b16      	ldr	r3, [pc, #88]	@ (8004cf8 <LPTIM_Disable+0x1d8>)
 8004ca0:	4916      	ldr	r1, [pc, #88]	@ (8004cfc <LPTIM_Disable+0x1dc>)
 8004ca2:	6818      	ldr	r0, [r3, #0]
 8004ca4:	469b      	mov	fp, r3
 8004ca6:	f7fb fa2d 	bl	8000104 <__udivsi3>
 8004caa:	2108      	movs	r1, #8
 8004cac:	0143      	lsls	r3, r0, #5
 8004cae:	1a1b      	subs	r3, r3, r0
 8004cb0:	009b      	lsls	r3, r3, #2
 8004cb2:	181b      	adds	r3, r3, r0
 8004cb4:	00db      	lsls	r3, r3, #3
 8004cb6:	3b01      	subs	r3, #1
 8004cb8:	2b00      	cmp	r3, #0
 8004cba:	d007      	beq.n	8004ccc <LPTIM_Disable+0x1ac>
 8004cbc:	6822      	ldr	r2, [r4, #0]
 8004cbe:	4211      	tst	r1, r2
 8004cc0:	d0f9      	beq.n	8004cb6 <LPTIM_Disable+0x196>
 8004cc2:	2308      	movs	r3, #8
 8004cc4:	6063      	str	r3, [r4, #4]
 8004cc6:	2e00      	cmp	r6, #0
 8004cc8:	d0ad      	beq.n	8004c26 <LPTIM_Disable+0x106>
 8004cca:	e794      	b.n	8004bf6 <LPTIM_Disable+0xd6>
 8004ccc:	6823      	ldr	r3, [r4, #0]
 8004cce:	2203      	movs	r2, #3
 8004cd0:	2336      	movs	r3, #54	@ 0x36
 8004cd2:	54ea      	strb	r2, [r5, r3]
 8004cd4:	2308      	movs	r3, #8
 8004cd6:	6063      	str	r3, [r4, #4]
 8004cd8:	2e00      	cmp	r6, #0
 8004cda:	d0a4      	beq.n	8004c26 <LPTIM_Disable+0x106>
 8004cdc:	e78b      	b.n	8004bf6 <LPTIM_Disable+0xd6>
 8004cde:	2300      	movs	r3, #0
 8004ce0:	001f      	movs	r7, r3
 8004ce2:	e786      	b.n	8004bf2 <LPTIM_Disable+0xd2>
 8004ce4:	40007c00 	.word	0x40007c00
 8004ce8:	40009400 	.word	0x40009400
 8004cec:	40021000 	.word	0x40021000
 8004cf0:	ffcfffff 	.word	0xffcfffff
 8004cf4:	bfffffff 	.word	0xbfffffff
 8004cf8:	20000440 	.word	0x20000440
 8004cfc:	00004e20 	.word	0x00004e20
 8004d00:	fff3ffff 	.word	0xfff3ffff

08004d04 <HAL_LPTIM_SetOnce_Start_IT>:
 8004d04:	b570      	push	{r4, r5, r6, lr}
 8004d06:	2336      	movs	r3, #54	@ 0x36
 8004d08:	0016      	movs	r6, r2
 8004d0a:	2202      	movs	r2, #2
 8004d0c:	54c2      	strb	r2, [r0, r3]
 8004d0e:	2380      	movs	r3, #128	@ 0x80
 8004d10:	6804      	ldr	r4, [r0, #0]
 8004d12:	035b      	lsls	r3, r3, #13
 8004d14:	68e2      	ldr	r2, [r4, #12]
 8004d16:	0005      	movs	r5, r0
 8004d18:	4313      	orrs	r3, r2
 8004d1a:	2201      	movs	r2, #1
 8004d1c:	60e3      	str	r3, [r4, #12]
 8004d1e:	6923      	ldr	r3, [r4, #16]
 8004d20:	4313      	orrs	r3, r2
 8004d22:	6123      	str	r3, [r4, #16]
 8004d24:	2310      	movs	r3, #16
 8004d26:	6063      	str	r3, [r4, #4]
 8004d28:	4b25      	ldr	r3, [pc, #148]	@ (8004dc0 <HAL_LPTIM_SetOnce_Start_IT+0xbc>)
 8004d2a:	61a1      	str	r1, [r4, #24]
 8004d2c:	6818      	ldr	r0, [r3, #0]
 8004d2e:	4925      	ldr	r1, [pc, #148]	@ (8004dc4 <HAL_LPTIM_SetOnce_Start_IT+0xc0>)
 8004d30:	f7fb f9e8 	bl	8000104 <__udivsi3>
 8004d34:	0143      	lsls	r3, r0, #5
 8004d36:	1a1b      	subs	r3, r3, r0
 8004d38:	009b      	lsls	r3, r3, #2
 8004d3a:	181b      	adds	r3, r3, r0
 8004d3c:	00db      	lsls	r3, r3, #3
 8004d3e:	001a      	movs	r2, r3
 8004d40:	2010      	movs	r0, #16
 8004d42:	3a01      	subs	r2, #1
 8004d44:	2a00      	cmp	r2, #0
 8004d46:	d037      	beq.n	8004db8 <HAL_LPTIM_SetOnce_Start_IT+0xb4>
 8004d48:	6821      	ldr	r1, [r4, #0]
 8004d4a:	4208      	tst	r0, r1
 8004d4c:	d0f9      	beq.n	8004d42 <HAL_LPTIM_SetOnce_Start_IT+0x3e>
 8004d4e:	2208      	movs	r2, #8
 8004d50:	6062      	str	r2, [r4, #4]
 8004d52:	6166      	str	r6, [r4, #20]
 8004d54:	2608      	movs	r6, #8
 8004d56:	3b01      	subs	r3, #1
 8004d58:	2b00      	cmp	r3, #0
 8004d5a:	d02d      	beq.n	8004db8 <HAL_LPTIM_SetOnce_Start_IT+0xb4>
 8004d5c:	6822      	ldr	r2, [r4, #0]
 8004d5e:	4216      	tst	r6, r2
 8004d60:	d0f9      	beq.n	8004d56 <HAL_LPTIM_SetOnce_Start_IT+0x52>
 8004d62:	0028      	movs	r0, r5
 8004d64:	f7ff fedc 	bl	8004b20 <LPTIM_Disable>
 8004d68:	2336      	movs	r3, #54	@ 0x36
 8004d6a:	5ceb      	ldrb	r3, [r5, r3]
 8004d6c:	2b03      	cmp	r3, #3
 8004d6e:	d024      	beq.n	8004dba <HAL_LPTIM_SetOnce_Start_IT+0xb6>
 8004d70:	2110      	movs	r1, #16
 8004d72:	682b      	ldr	r3, [r5, #0]
 8004d74:	689a      	ldr	r2, [r3, #8]
 8004d76:	430a      	orrs	r2, r1
 8004d78:	609a      	str	r2, [r3, #8]
 8004d7a:	689a      	ldr	r2, [r3, #8]
 8004d7c:	390e      	subs	r1, #14
 8004d7e:	4332      	orrs	r2, r6
 8004d80:	609a      	str	r2, [r3, #8]
 8004d82:	689a      	ldr	r2, [r3, #8]
 8004d84:	430a      	orrs	r2, r1
 8004d86:	609a      	str	r2, [r3, #8]
 8004d88:	689a      	ldr	r2, [r3, #8]
 8004d8a:	3901      	subs	r1, #1
 8004d8c:	430a      	orrs	r2, r1
 8004d8e:	609a      	str	r2, [r3, #8]
 8004d90:	6969      	ldr	r1, [r5, #20]
 8004d92:	4a0d      	ldr	r2, [pc, #52]	@ (8004dc8 <HAL_LPTIM_SetOnce_Start_IT+0xc4>)
 8004d94:	4291      	cmp	r1, r2
 8004d96:	d003      	beq.n	8004da0 <HAL_LPTIM_SetOnce_Start_IT+0x9c>
 8004d98:	2104      	movs	r1, #4
 8004d9a:	689a      	ldr	r2, [r3, #8]
 8004d9c:	430a      	orrs	r2, r1
 8004d9e:	609a      	str	r2, [r3, #8]
 8004da0:	2101      	movs	r1, #1
 8004da2:	2002      	movs	r0, #2
 8004da4:	691a      	ldr	r2, [r3, #16]
 8004da6:	430a      	orrs	r2, r1
 8004da8:	611a      	str	r2, [r3, #16]
 8004daa:	691a      	ldr	r2, [r3, #16]
 8004dac:	4302      	orrs	r2, r0
 8004dae:	611a      	str	r2, [r3, #16]
 8004db0:	2336      	movs	r3, #54	@ 0x36
 8004db2:	2000      	movs	r0, #0
 8004db4:	54e9      	strb	r1, [r5, r3]
 8004db6:	bd70      	pop	{r4, r5, r6, pc}
 8004db8:	6823      	ldr	r3, [r4, #0]
 8004dba:	2003      	movs	r0, #3
 8004dbc:	e7fb      	b.n	8004db6 <HAL_LPTIM_SetOnce_Start_IT+0xb2>
 8004dbe:	46c0      	nop			@ (mov r8, r8)
 8004dc0:	20000440 	.word	0x20000440
 8004dc4:	00004e20 	.word	0x00004e20
 8004dc8:	0000ffff 	.word	0x0000ffff

08004dcc <HAL_PWREx_ControlVoltageScaling>:
 8004dcc:	b570      	push	{r4, r5, r6, lr}
 8004dce:	4c13      	ldr	r4, [pc, #76]	@ (8004e1c <HAL_PWREx_ControlVoltageScaling+0x50>)
 8004dd0:	4a13      	ldr	r2, [pc, #76]	@ (8004e20 <HAL_PWREx_ControlVoltageScaling+0x54>)
 8004dd2:	6823      	ldr	r3, [r4, #0]
 8004dd4:	2500      	movs	r5, #0
 8004dd6:	4013      	ands	r3, r2
 8004dd8:	4303      	orrs	r3, r0
 8004dda:	6023      	str	r3, [r4, #0]
 8004ddc:	2380      	movs	r3, #128	@ 0x80
 8004dde:	009b      	lsls	r3, r3, #2
 8004de0:	4298      	cmp	r0, r3
 8004de2:	d001      	beq.n	8004de8 <HAL_PWREx_ControlVoltageScaling+0x1c>
 8004de4:	0028      	movs	r0, r5
 8004de6:	bd70      	pop	{r4, r5, r6, pc}
 8004de8:	4b0e      	ldr	r3, [pc, #56]	@ (8004e24 <HAL_PWREx_ControlVoltageScaling+0x58>)
 8004dea:	490f      	ldr	r1, [pc, #60]	@ (8004e28 <HAL_PWREx_ControlVoltageScaling+0x5c>)
 8004dec:	681b      	ldr	r3, [r3, #0]
 8004dee:	0058      	lsls	r0, r3, #1
 8004df0:	18c0      	adds	r0, r0, r3
 8004df2:	0040      	lsls	r0, r0, #1
 8004df4:	f7fb f986 	bl	8000104 <__udivsi3>
 8004df8:	2280      	movs	r2, #128	@ 0x80
 8004dfa:	6963      	ldr	r3, [r4, #20]
 8004dfc:	00d2      	lsls	r2, r2, #3
 8004dfe:	3001      	adds	r0, #1
 8004e00:	4213      	tst	r3, r2
 8004e02:	d102      	bne.n	8004e0a <HAL_PWREx_ControlVoltageScaling+0x3e>
 8004e04:	e7ee      	b.n	8004de4 <HAL_PWREx_ControlVoltageScaling+0x18>
 8004e06:	2800      	cmp	r0, #0
 8004e08:	d005      	beq.n	8004e16 <HAL_PWREx_ControlVoltageScaling+0x4a>
 8004e0a:	6963      	ldr	r3, [r4, #20]
 8004e0c:	3801      	subs	r0, #1
 8004e0e:	4213      	tst	r3, r2
 8004e10:	d1f9      	bne.n	8004e06 <HAL_PWREx_ControlVoltageScaling+0x3a>
 8004e12:	2500      	movs	r5, #0
 8004e14:	e7e6      	b.n	8004de4 <HAL_PWREx_ControlVoltageScaling+0x18>
 8004e16:	2503      	movs	r5, #3
 8004e18:	e7e4      	b.n	8004de4 <HAL_PWREx_ControlVoltageScaling+0x18>
 8004e1a:	46c0      	nop			@ (mov r8, r8)
 8004e1c:	40007000 	.word	0x40007000
 8004e20:	fffff9ff 	.word	0xfffff9ff
 8004e24:	20000440 	.word	0x20000440
 8004e28:	000f4240 	.word	0x000f4240

08004e2c <HAL_RCC_OscConfig>:
 8004e2c:	b5f0      	push	{r4, r5, r6, r7, lr}
 8004e2e:	46ce      	mov	lr, r9
 8004e30:	4647      	mov	r7, r8
 8004e32:	b580      	push	{r7, lr}
 8004e34:	0004      	movs	r4, r0
 8004e36:	b083      	sub	sp, #12
 8004e38:	2800      	cmp	r0, #0
 8004e3a:	d027      	beq.n	8004e8c <HAL_RCC_OscConfig+0x60>
 8004e3c:	6803      	ldr	r3, [r0, #0]
 8004e3e:	07da      	lsls	r2, r3, #31
 8004e40:	d511      	bpl.n	8004e66 <HAL_RCC_OscConfig+0x3a>
 8004e42:	2238      	movs	r2, #56	@ 0x38
 8004e44:	49c0      	ldr	r1, [pc, #768]	@ (8005148 <HAL_RCC_OscConfig+0x31c>)
 8004e46:	6888      	ldr	r0, [r1, #8]
 8004e48:	68c9      	ldr	r1, [r1, #12]
 8004e4a:	4002      	ands	r2, r0
 8004e4c:	2a10      	cmp	r2, #16
 8004e4e:	d100      	bne.n	8004e52 <HAL_RCC_OscConfig+0x26>
 8004e50:	e0cc      	b.n	8004fec <HAL_RCC_OscConfig+0x1c0>
 8004e52:	2a08      	cmp	r2, #8
 8004e54:	d000      	beq.n	8004e58 <HAL_RCC_OscConfig+0x2c>
 8004e56:	e0cd      	b.n	8004ff4 <HAL_RCC_OscConfig+0x1c8>
 8004e58:	4abb      	ldr	r2, [pc, #748]	@ (8005148 <HAL_RCC_OscConfig+0x31c>)
 8004e5a:	6812      	ldr	r2, [r2, #0]
 8004e5c:	0392      	lsls	r2, r2, #14
 8004e5e:	d502      	bpl.n	8004e66 <HAL_RCC_OscConfig+0x3a>
 8004e60:	6862      	ldr	r2, [r4, #4]
 8004e62:	2a00      	cmp	r2, #0
 8004e64:	d012      	beq.n	8004e8c <HAL_RCC_OscConfig+0x60>
 8004e66:	079a      	lsls	r2, r3, #30
 8004e68:	d532      	bpl.n	8004ed0 <HAL_RCC_OscConfig+0xa4>
 8004e6a:	2338      	movs	r3, #56	@ 0x38
 8004e6c:	4ab6      	ldr	r2, [pc, #728]	@ (8005148 <HAL_RCC_OscConfig+0x31c>)
 8004e6e:	6891      	ldr	r1, [r2, #8]
 8004e70:	400b      	ands	r3, r1
 8004e72:	68d1      	ldr	r1, [r2, #12]
 8004e74:	2b10      	cmp	r3, #16
 8004e76:	d100      	bne.n	8004e7a <HAL_RCC_OscConfig+0x4e>
 8004e78:	e10b      	b.n	8005092 <HAL_RCC_OscConfig+0x266>
 8004e7a:	2b00      	cmp	r3, #0
 8004e7c:	d000      	beq.n	8004e80 <HAL_RCC_OscConfig+0x54>
 8004e7e:	e10d      	b.n	800509c <HAL_RCC_OscConfig+0x270>
 8004e80:	6813      	ldr	r3, [r2, #0]
 8004e82:	055b      	lsls	r3, r3, #21
 8004e84:	d508      	bpl.n	8004e98 <HAL_RCC_OscConfig+0x6c>
 8004e86:	68e3      	ldr	r3, [r4, #12]
 8004e88:	2b00      	cmp	r3, #0
 8004e8a:	d105      	bne.n	8004e98 <HAL_RCC_OscConfig+0x6c>
 8004e8c:	2001      	movs	r0, #1
 8004e8e:	b003      	add	sp, #12
 8004e90:	bcc0      	pop	{r6, r7}
 8004e92:	46b9      	mov	r9, r7
 8004e94:	46b0      	mov	r8, r6
 8004e96:	bdf0      	pop	{r4, r5, r6, r7, pc}
 8004e98:	6851      	ldr	r1, [r2, #4]
 8004e9a:	6963      	ldr	r3, [r4, #20]
 8004e9c:	48ab      	ldr	r0, [pc, #684]	@ (800514c <HAL_RCC_OscConfig+0x320>)
 8004e9e:	021b      	lsls	r3, r3, #8
 8004ea0:	4001      	ands	r1, r0
 8004ea2:	430b      	orrs	r3, r1
 8004ea4:	6053      	str	r3, [r2, #4]
 8004ea6:	4aa8      	ldr	r2, [pc, #672]	@ (8005148 <HAL_RCC_OscConfig+0x31c>)
 8004ea8:	49a9      	ldr	r1, [pc, #676]	@ (8005150 <HAL_RCC_OscConfig+0x324>)
 8004eaa:	6813      	ldr	r3, [r2, #0]
 8004eac:	400b      	ands	r3, r1
 8004eae:	6921      	ldr	r1, [r4, #16]
 8004eb0:	430b      	orrs	r3, r1
 8004eb2:	6013      	str	r3, [r2, #0]
 8004eb4:	6813      	ldr	r3, [r2, #0]
 8004eb6:	4aa7      	ldr	r2, [pc, #668]	@ (8005154 <HAL_RCC_OscConfig+0x328>)
 8004eb8:	049b      	lsls	r3, r3, #18
 8004eba:	0f5b      	lsrs	r3, r3, #29
 8004ebc:	40da      	lsrs	r2, r3
 8004ebe:	49a6      	ldr	r1, [pc, #664]	@ (8005158 <HAL_RCC_OscConfig+0x32c>)
 8004ec0:	600a      	str	r2, [r1, #0]
 8004ec2:	4ba6      	ldr	r3, [pc, #664]	@ (800515c <HAL_RCC_OscConfig+0x330>)
 8004ec4:	6818      	ldr	r0, [r3, #0]
 8004ec6:	f7fe fb61 	bl	800358c <HAL_InitTick>
 8004eca:	2800      	cmp	r0, #0
 8004ecc:	d1de      	bne.n	8004e8c <HAL_RCC_OscConfig+0x60>
 8004ece:	6823      	ldr	r3, [r4, #0]
 8004ed0:	071a      	lsls	r2, r3, #28
 8004ed2:	d46d      	bmi.n	8004fb0 <HAL_RCC_OscConfig+0x184>
 8004ed4:	075b      	lsls	r3, r3, #29
 8004ed6:	d545      	bpl.n	8004f64 <HAL_RCC_OscConfig+0x138>
 8004ed8:	2338      	movs	r3, #56	@ 0x38
 8004eda:	4a9b      	ldr	r2, [pc, #620]	@ (8005148 <HAL_RCC_OscConfig+0x31c>)
 8004edc:	6891      	ldr	r1, [r2, #8]
 8004ede:	400b      	ands	r3, r1
 8004ee0:	2b20      	cmp	r3, #32
 8004ee2:	d100      	bne.n	8004ee6 <HAL_RCC_OscConfig+0xba>
 8004ee4:	e0cc      	b.n	8005080 <HAL_RCC_OscConfig+0x254>
 8004ee6:	2380      	movs	r3, #128	@ 0x80
 8004ee8:	2000      	movs	r0, #0
 8004eea:	6bd1      	ldr	r1, [r2, #60]	@ 0x3c
 8004eec:	055b      	lsls	r3, r3, #21
 8004eee:	4681      	mov	r9, r0
 8004ef0:	4219      	tst	r1, r3
 8004ef2:	d108      	bne.n	8004f06 <HAL_RCC_OscConfig+0xda>
 8004ef4:	6bd1      	ldr	r1, [r2, #60]	@ 0x3c
 8004ef6:	4319      	orrs	r1, r3
 8004ef8:	63d1      	str	r1, [r2, #60]	@ 0x3c
 8004efa:	6bd2      	ldr	r2, [r2, #60]	@ 0x3c
 8004efc:	4013      	ands	r3, r2
 8004efe:	9301      	str	r3, [sp, #4]
 8004f00:	9b01      	ldr	r3, [sp, #4]
 8004f02:	2301      	movs	r3, #1
 8004f04:	4699      	mov	r9, r3
 8004f06:	2780      	movs	r7, #128	@ 0x80
 8004f08:	4e95      	ldr	r6, [pc, #596]	@ (8005160 <HAL_RCC_OscConfig+0x334>)
 8004f0a:	007f      	lsls	r7, r7, #1
 8004f0c:	6833      	ldr	r3, [r6, #0]
 8004f0e:	423b      	tst	r3, r7
 8004f10:	d100      	bne.n	8004f14 <HAL_RCC_OscConfig+0xe8>
 8004f12:	e0ff      	b.n	8005114 <HAL_RCC_OscConfig+0x2e8>
 8004f14:	68a3      	ldr	r3, [r4, #8]
 8004f16:	2b01      	cmp	r3, #1
 8004f18:	d100      	bne.n	8004f1c <HAL_RCC_OscConfig+0xf0>
 8004f1a:	e0e5      	b.n	80050e8 <HAL_RCC_OscConfig+0x2bc>
 8004f1c:	2b05      	cmp	r3, #5
 8004f1e:	d100      	bne.n	8004f22 <HAL_RCC_OscConfig+0xf6>
 8004f20:	e1d1      	b.n	80052c6 <HAL_RCC_OscConfig+0x49a>
 8004f22:	2101      	movs	r1, #1
 8004f24:	4e88      	ldr	r6, [pc, #544]	@ (8005148 <HAL_RCC_OscConfig+0x31c>)
 8004f26:	6df2      	ldr	r2, [r6, #92]	@ 0x5c
 8004f28:	438a      	bics	r2, r1
 8004f2a:	65f2      	str	r2, [r6, #92]	@ 0x5c
 8004f2c:	6df2      	ldr	r2, [r6, #92]	@ 0x5c
 8004f2e:	3103      	adds	r1, #3
 8004f30:	438a      	bics	r2, r1
 8004f32:	65f2      	str	r2, [r6, #92]	@ 0x5c
 8004f34:	2b00      	cmp	r3, #0
 8004f36:	d000      	beq.n	8004f3a <HAL_RCC_OscConfig+0x10e>
 8004f38:	e0da      	b.n	80050f0 <HAL_RCC_OscConfig+0x2c4>
 8004f3a:	f7fe fb6d 	bl	8003618 <HAL_GetTick>
 8004f3e:	2302      	movs	r3, #2
 8004f40:	0007      	movs	r7, r0
 8004f42:	4698      	mov	r8, r3
 8004f44:	4d87      	ldr	r5, [pc, #540]	@ (8005164 <HAL_RCC_OscConfig+0x338>)
 8004f46:	e005      	b.n	8004f54 <HAL_RCC_OscConfig+0x128>
 8004f48:	f7fe fb66 	bl	8003618 <HAL_GetTick>
 8004f4c:	1bc0      	subs	r0, r0, r7
 8004f4e:	42a8      	cmp	r0, r5
 8004f50:	d900      	bls.n	8004f54 <HAL_RCC_OscConfig+0x128>
 8004f52:	e0ee      	b.n	8005132 <HAL_RCC_OscConfig+0x306>
 8004f54:	4642      	mov	r2, r8
 8004f56:	6df3      	ldr	r3, [r6, #92]	@ 0x5c
 8004f58:	421a      	tst	r2, r3
 8004f5a:	d1f5      	bne.n	8004f48 <HAL_RCC_OscConfig+0x11c>
 8004f5c:	464b      	mov	r3, r9
 8004f5e:	2b01      	cmp	r3, #1
 8004f60:	d100      	bne.n	8004f64 <HAL_RCC_OscConfig+0x138>
 8004f62:	e16a      	b.n	800523a <HAL_RCC_OscConfig+0x40e>
 8004f64:	69e3      	ldr	r3, [r4, #28]
 8004f66:	2b00      	cmp	r3, #0
 8004f68:	d020      	beq.n	8004fac <HAL_RCC_OscConfig+0x180>
 8004f6a:	2238      	movs	r2, #56	@ 0x38
 8004f6c:	4d76      	ldr	r5, [pc, #472]	@ (8005148 <HAL_RCC_OscConfig+0x31c>)
 8004f6e:	68a9      	ldr	r1, [r5, #8]
 8004f70:	400a      	ands	r2, r1
 8004f72:	2a10      	cmp	r2, #16
 8004f74:	d100      	bne.n	8004f78 <HAL_RCC_OscConfig+0x14c>
 8004f76:	e11d      	b.n	80051b4 <HAL_RCC_OscConfig+0x388>
 8004f78:	2b02      	cmp	r3, #2
 8004f7a:	d100      	bne.n	8004f7e <HAL_RCC_OscConfig+0x152>
 8004f7c:	e163      	b.n	8005246 <HAL_RCC_OscConfig+0x41a>
 8004f7e:	682b      	ldr	r3, [r5, #0]
 8004f80:	4a79      	ldr	r2, [pc, #484]	@ (8005168 <HAL_RCC_OscConfig+0x33c>)
 8004f82:	2680      	movs	r6, #128	@ 0x80
 8004f84:	4013      	ands	r3, r2
 8004f86:	602b      	str	r3, [r5, #0]
 8004f88:	f7fe fb46 	bl	8003618 <HAL_GetTick>
 8004f8c:	04b6      	lsls	r6, r6, #18
 8004f8e:	0004      	movs	r4, r0
 8004f90:	e005      	b.n	8004f9e <HAL_RCC_OscConfig+0x172>
 8004f92:	f7fe fb41 	bl	8003618 <HAL_GetTick>
 8004f96:	1b00      	subs	r0, r0, r4
 8004f98:	2802      	cmp	r0, #2
 8004f9a:	d900      	bls.n	8004f9e <HAL_RCC_OscConfig+0x172>
 8004f9c:	e0c9      	b.n	8005132 <HAL_RCC_OscConfig+0x306>
 8004f9e:	682b      	ldr	r3, [r5, #0]
 8004fa0:	4233      	tst	r3, r6
 8004fa2:	d1f6      	bne.n	8004f92 <HAL_RCC_OscConfig+0x166>
 8004fa4:	68eb      	ldr	r3, [r5, #12]
 8004fa6:	4a71      	ldr	r2, [pc, #452]	@ (800516c <HAL_RCC_OscConfig+0x340>)
 8004fa8:	4013      	ands	r3, r2
 8004faa:	60eb      	str	r3, [r5, #12]
 8004fac:	2000      	movs	r0, #0
 8004fae:	e76e      	b.n	8004e8e <HAL_RCC_OscConfig+0x62>
 8004fb0:	2238      	movs	r2, #56	@ 0x38
 8004fb2:	4d65      	ldr	r5, [pc, #404]	@ (8005148 <HAL_RCC_OscConfig+0x31c>)
 8004fb4:	68a9      	ldr	r1, [r5, #8]
 8004fb6:	400a      	ands	r2, r1
 8004fb8:	2a18      	cmp	r2, #24
 8004fba:	d043      	beq.n	8005044 <HAL_RCC_OscConfig+0x218>
 8004fbc:	69a3      	ldr	r3, [r4, #24]
 8004fbe:	2b00      	cmp	r3, #0
 8004fc0:	d100      	bne.n	8004fc4 <HAL_RCC_OscConfig+0x198>
 8004fc2:	e0b8      	b.n	8005136 <HAL_RCC_OscConfig+0x30a>
 8004fc4:	2201      	movs	r2, #1
 8004fc6:	6e2b      	ldr	r3, [r5, #96]	@ 0x60
 8004fc8:	2702      	movs	r7, #2
 8004fca:	4313      	orrs	r3, r2
 8004fcc:	662b      	str	r3, [r5, #96]	@ 0x60
 8004fce:	f7fe fb23 	bl	8003618 <HAL_GetTick>
 8004fd2:	0006      	movs	r6, r0
 8004fd4:	e005      	b.n	8004fe2 <HAL_RCC_OscConfig+0x1b6>
 8004fd6:	f7fe fb1f 	bl	8003618 <HAL_GetTick>
 8004fda:	1b80      	subs	r0, r0, r6
 8004fdc:	2802      	cmp	r0, #2
 8004fde:	d900      	bls.n	8004fe2 <HAL_RCC_OscConfig+0x1b6>
 8004fe0:	e0a7      	b.n	8005132 <HAL_RCC_OscConfig+0x306>
 8004fe2:	6e2b      	ldr	r3, [r5, #96]	@ 0x60
 8004fe4:	421f      	tst	r7, r3
 8004fe6:	d0f6      	beq.n	8004fd6 <HAL_RCC_OscConfig+0x1aa>
 8004fe8:	6823      	ldr	r3, [r4, #0]
 8004fea:	e773      	b.n	8004ed4 <HAL_RCC_OscConfig+0xa8>
 8004fec:	43c9      	mvns	r1, r1
 8004fee:	0789      	lsls	r1, r1, #30
 8004ff0:	d100      	bne.n	8004ff4 <HAL_RCC_OscConfig+0x1c8>
 8004ff2:	e731      	b.n	8004e58 <HAL_RCC_OscConfig+0x2c>
 8004ff4:	2280      	movs	r2, #128	@ 0x80
 8004ff6:	6863      	ldr	r3, [r4, #4]
 8004ff8:	0252      	lsls	r2, r2, #9
 8004ffa:	4293      	cmp	r3, r2
 8004ffc:	d02b      	beq.n	8005056 <HAL_RCC_OscConfig+0x22a>
 8004ffe:	21a0      	movs	r1, #160	@ 0xa0
 8005000:	02c9      	lsls	r1, r1, #11
 8005002:	428b      	cmp	r3, r1
 8005004:	d100      	bne.n	8005008 <HAL_RCC_OscConfig+0x1dc>
 8005006:	e103      	b.n	8005210 <HAL_RCC_OscConfig+0x3e4>
 8005008:	4d4f      	ldr	r5, [pc, #316]	@ (8005148 <HAL_RCC_OscConfig+0x31c>)
 800500a:	4959      	ldr	r1, [pc, #356]	@ (8005170 <HAL_RCC_OscConfig+0x344>)
 800500c:	682a      	ldr	r2, [r5, #0]
 800500e:	400a      	ands	r2, r1
 8005010:	602a      	str	r2, [r5, #0]
 8005012:	682a      	ldr	r2, [r5, #0]
 8005014:	4957      	ldr	r1, [pc, #348]	@ (8005174 <HAL_RCC_OscConfig+0x348>)
 8005016:	400a      	ands	r2, r1
 8005018:	602a      	str	r2, [r5, #0]
 800501a:	2b00      	cmp	r3, #0
 800501c:	d11f      	bne.n	800505e <HAL_RCC_OscConfig+0x232>
 800501e:	f7fe fafb 	bl	8003618 <HAL_GetTick>
 8005022:	2780      	movs	r7, #128	@ 0x80
 8005024:	0006      	movs	r6, r0
 8005026:	02bf      	lsls	r7, r7, #10
 8005028:	e004      	b.n	8005034 <HAL_RCC_OscConfig+0x208>
 800502a:	f7fe faf5 	bl	8003618 <HAL_GetTick>
 800502e:	1b80      	subs	r0, r0, r6
 8005030:	2864      	cmp	r0, #100	@ 0x64
 8005032:	d87e      	bhi.n	8005132 <HAL_RCC_OscConfig+0x306>
 8005034:	682b      	ldr	r3, [r5, #0]
 8005036:	423b      	tst	r3, r7
 8005038:	d1f7      	bne.n	800502a <HAL_RCC_OscConfig+0x1fe>
 800503a:	6823      	ldr	r3, [r4, #0]
 800503c:	079a      	lsls	r2, r3, #30
 800503e:	d400      	bmi.n	8005042 <HAL_RCC_OscConfig+0x216>
 8005040:	e746      	b.n	8004ed0 <HAL_RCC_OscConfig+0xa4>
 8005042:	e712      	b.n	8004e6a <HAL_RCC_OscConfig+0x3e>
 8005044:	6e2a      	ldr	r2, [r5, #96]	@ 0x60
 8005046:	0792      	lsls	r2, r2, #30
 8005048:	d400      	bmi.n	800504c <HAL_RCC_OscConfig+0x220>
 800504a:	e743      	b.n	8004ed4 <HAL_RCC_OscConfig+0xa8>
 800504c:	69a2      	ldr	r2, [r4, #24]
 800504e:	2a00      	cmp	r2, #0
 8005050:	d000      	beq.n	8005054 <HAL_RCC_OscConfig+0x228>
 8005052:	e73f      	b.n	8004ed4 <HAL_RCC_OscConfig+0xa8>
 8005054:	e71a      	b.n	8004e8c <HAL_RCC_OscConfig+0x60>
 8005056:	4a3c      	ldr	r2, [pc, #240]	@ (8005148 <HAL_RCC_OscConfig+0x31c>)
 8005058:	6811      	ldr	r1, [r2, #0]
 800505a:	430b      	orrs	r3, r1
 800505c:	6013      	str	r3, [r2, #0]
 800505e:	f7fe fadb 	bl	8003618 <HAL_GetTick>
 8005062:	2680      	movs	r6, #128	@ 0x80
 8005064:	0005      	movs	r5, r0
 8005066:	4f38      	ldr	r7, [pc, #224]	@ (8005148 <HAL_RCC_OscConfig+0x31c>)
 8005068:	02b6      	lsls	r6, r6, #10
 800506a:	e004      	b.n	8005076 <HAL_RCC_OscConfig+0x24a>
 800506c:	f7fe fad4 	bl	8003618 <HAL_GetTick>
 8005070:	1b40      	subs	r0, r0, r5
 8005072:	2864      	cmp	r0, #100	@ 0x64
 8005074:	d85d      	bhi.n	8005132 <HAL_RCC_OscConfig+0x306>
 8005076:	683b      	ldr	r3, [r7, #0]
 8005078:	4233      	tst	r3, r6
 800507a:	d0f7      	beq.n	800506c <HAL_RCC_OscConfig+0x240>
 800507c:	6823      	ldr	r3, [r4, #0]
 800507e:	e7dd      	b.n	800503c <HAL_RCC_OscConfig+0x210>
 8005080:	6dd3      	ldr	r3, [r2, #92]	@ 0x5c
 8005082:	079b      	lsls	r3, r3, #30
 8005084:	d400      	bmi.n	8005088 <HAL_RCC_OscConfig+0x25c>
 8005086:	e76d      	b.n	8004f64 <HAL_RCC_OscConfig+0x138>
 8005088:	68a3      	ldr	r3, [r4, #8]
 800508a:	2b00      	cmp	r3, #0
 800508c:	d000      	beq.n	8005090 <HAL_RCC_OscConfig+0x264>
 800508e:	e769      	b.n	8004f64 <HAL_RCC_OscConfig+0x138>
 8005090:	e6fc      	b.n	8004e8c <HAL_RCC_OscConfig+0x60>
 8005092:	3b0d      	subs	r3, #13
 8005094:	400b      	ands	r3, r1
 8005096:	2b02      	cmp	r3, #2
 8005098:	d100      	bne.n	800509c <HAL_RCC_OscConfig+0x270>
 800509a:	e0c3      	b.n	8005224 <HAL_RCC_OscConfig+0x3f8>
 800509c:	68e3      	ldr	r3, [r4, #12]
 800509e:	4d2a      	ldr	r5, [pc, #168]	@ (8005148 <HAL_RCC_OscConfig+0x31c>)
 80050a0:	2b00      	cmp	r3, #0
 80050a2:	d073      	beq.n	800518c <HAL_RCC_OscConfig+0x360>
 80050a4:	682b      	ldr	r3, [r5, #0]
 80050a6:	4a2a      	ldr	r2, [pc, #168]	@ (8005150 <HAL_RCC_OscConfig+0x324>)
 80050a8:	2780      	movs	r7, #128	@ 0x80
 80050aa:	4013      	ands	r3, r2
 80050ac:	6922      	ldr	r2, [r4, #16]
 80050ae:	00ff      	lsls	r7, r7, #3
 80050b0:	4313      	orrs	r3, r2
 80050b2:	602b      	str	r3, [r5, #0]
 80050b4:	2380      	movs	r3, #128	@ 0x80
 80050b6:	682a      	ldr	r2, [r5, #0]
 80050b8:	005b      	lsls	r3, r3, #1
 80050ba:	4313      	orrs	r3, r2
 80050bc:	602b      	str	r3, [r5, #0]
 80050be:	f7fe faab 	bl	8003618 <HAL_GetTick>
 80050c2:	0006      	movs	r6, r0
 80050c4:	e004      	b.n	80050d0 <HAL_RCC_OscConfig+0x2a4>
 80050c6:	f7fe faa7 	bl	8003618 <HAL_GetTick>
 80050ca:	1b80      	subs	r0, r0, r6
 80050cc:	2802      	cmp	r0, #2
 80050ce:	d830      	bhi.n	8005132 <HAL_RCC_OscConfig+0x306>
 80050d0:	682b      	ldr	r3, [r5, #0]
 80050d2:	423b      	tst	r3, r7
 80050d4:	d0f7      	beq.n	80050c6 <HAL_RCC_OscConfig+0x29a>
 80050d6:	686a      	ldr	r2, [r5, #4]
 80050d8:	6963      	ldr	r3, [r4, #20]
 80050da:	491c      	ldr	r1, [pc, #112]	@ (800514c <HAL_RCC_OscConfig+0x320>)
 80050dc:	021b      	lsls	r3, r3, #8
 80050de:	400a      	ands	r2, r1
 80050e0:	4313      	orrs	r3, r2
 80050e2:	606b      	str	r3, [r5, #4]
 80050e4:	6823      	ldr	r3, [r4, #0]
 80050e6:	e6f3      	b.n	8004ed0 <HAL_RCC_OscConfig+0xa4>
 80050e8:	4917      	ldr	r1, [pc, #92]	@ (8005148 <HAL_RCC_OscConfig+0x31c>)
 80050ea:	6dca      	ldr	r2, [r1, #92]	@ 0x5c
 80050ec:	4313      	orrs	r3, r2
 80050ee:	65cb      	str	r3, [r1, #92]	@ 0x5c
 80050f0:	f7fe fa92 	bl	8003618 <HAL_GetTick>
 80050f4:	4b14      	ldr	r3, [pc, #80]	@ (8005148 <HAL_RCC_OscConfig+0x31c>)
 80050f6:	0006      	movs	r6, r0
 80050f8:	4698      	mov	r8, r3
 80050fa:	2702      	movs	r7, #2
 80050fc:	4d19      	ldr	r5, [pc, #100]	@ (8005164 <HAL_RCC_OscConfig+0x338>)
 80050fe:	e004      	b.n	800510a <HAL_RCC_OscConfig+0x2de>
 8005100:	f7fe fa8a 	bl	8003618 <HAL_GetTick>
 8005104:	1b80      	subs	r0, r0, r6
 8005106:	42a8      	cmp	r0, r5
 8005108:	d813      	bhi.n	8005132 <HAL_RCC_OscConfig+0x306>
 800510a:	4643      	mov	r3, r8
 800510c:	6ddb      	ldr	r3, [r3, #92]	@ 0x5c
 800510e:	421f      	tst	r7, r3
 8005110:	d0f6      	beq.n	8005100 <HAL_RCC_OscConfig+0x2d4>
 8005112:	e723      	b.n	8004f5c <HAL_RCC_OscConfig+0x130>
 8005114:	6833      	ldr	r3, [r6, #0]
 8005116:	433b      	orrs	r3, r7
 8005118:	6033      	str	r3, [r6, #0]
 800511a:	f7fe fa7d 	bl	8003618 <HAL_GetTick>
 800511e:	0005      	movs	r5, r0
 8005120:	6833      	ldr	r3, [r6, #0]
 8005122:	423b      	tst	r3, r7
 8005124:	d000      	beq.n	8005128 <HAL_RCC_OscConfig+0x2fc>
 8005126:	e6f5      	b.n	8004f14 <HAL_RCC_OscConfig+0xe8>
 8005128:	f7fe fa76 	bl	8003618 <HAL_GetTick>
 800512c:	1b40      	subs	r0, r0, r5
 800512e:	2802      	cmp	r0, #2
 8005130:	d9f6      	bls.n	8005120 <HAL_RCC_OscConfig+0x2f4>
 8005132:	2003      	movs	r0, #3
 8005134:	e6ab      	b.n	8004e8e <HAL_RCC_OscConfig+0x62>
 8005136:	2201      	movs	r2, #1
 8005138:	6e2b      	ldr	r3, [r5, #96]	@ 0x60
 800513a:	2702      	movs	r7, #2
 800513c:	4393      	bics	r3, r2
 800513e:	662b      	str	r3, [r5, #96]	@ 0x60
 8005140:	f7fe fa6a 	bl	8003618 <HAL_GetTick>
 8005144:	0006      	movs	r6, r0
 8005146:	e01c      	b.n	8005182 <HAL_RCC_OscConfig+0x356>
 8005148:	40021000 	.word	0x40021000
 800514c:	ffff80ff 	.word	0xffff80ff
 8005150:	ffffc7ff 	.word	0xffffc7ff
 8005154:	00f42400 	.word	0x00f42400
 8005158:	20000440 	.word	0x20000440
 800515c:	20000448 	.word	0x20000448
 8005160:	40007000 	.word	0x40007000
 8005164:	00001388 	.word	0x00001388
 8005168:	feffffff 	.word	0xfeffffff
 800516c:	eefefffc 	.word	0xeefefffc
 8005170:	fffeffff 	.word	0xfffeffff
 8005174:	fffbffff 	.word	0xfffbffff
 8005178:	f7fe fa4e 	bl	8003618 <HAL_GetTick>
 800517c:	1b80      	subs	r0, r0, r6
 800517e:	2802      	cmp	r0, #2
 8005180:	d8d7      	bhi.n	8005132 <HAL_RCC_OscConfig+0x306>
 8005182:	6e2b      	ldr	r3, [r5, #96]	@ 0x60
 8005184:	421f      	tst	r7, r3
 8005186:	d1f7      	bne.n	8005178 <HAL_RCC_OscConfig+0x34c>
 8005188:	6823      	ldr	r3, [r4, #0]
 800518a:	e6a3      	b.n	8004ed4 <HAL_RCC_OscConfig+0xa8>
 800518c:	682b      	ldr	r3, [r5, #0]
 800518e:	4a55      	ldr	r2, [pc, #340]	@ (80052e4 <HAL_RCC_OscConfig+0x4b8>)
 8005190:	2780      	movs	r7, #128	@ 0x80
 8005192:	4013      	ands	r3, r2
 8005194:	602b      	str	r3, [r5, #0]
 8005196:	f7fe fa3f 	bl	8003618 <HAL_GetTick>
 800519a:	00ff      	lsls	r7, r7, #3
 800519c:	0006      	movs	r6, r0
 800519e:	e004      	b.n	80051aa <HAL_RCC_OscConfig+0x37e>
 80051a0:	f7fe fa3a 	bl	8003618 <HAL_GetTick>
 80051a4:	1b80      	subs	r0, r0, r6
 80051a6:	2802      	cmp	r0, #2
 80051a8:	d8c3      	bhi.n	8005132 <HAL_RCC_OscConfig+0x306>
 80051aa:	682b      	ldr	r3, [r5, #0]
 80051ac:	423b      	tst	r3, r7
 80051ae:	d1f7      	bne.n	80051a0 <HAL_RCC_OscConfig+0x374>
 80051b0:	6823      	ldr	r3, [r4, #0]
 80051b2:	e68d      	b.n	8004ed0 <HAL_RCC_OscConfig+0xa4>
 80051b4:	2b01      	cmp	r3, #1
 80051b6:	d100      	bne.n	80051ba <HAL_RCC_OscConfig+0x38e>
 80051b8:	e668      	b.n	8004e8c <HAL_RCC_OscConfig+0x60>
 80051ba:	2203      	movs	r2, #3
 80051bc:	68e8      	ldr	r0, [r5, #12]
 80051be:	6a21      	ldr	r1, [r4, #32]
 80051c0:	4002      	ands	r2, r0
 80051c2:	428a      	cmp	r2, r1
 80051c4:	d000      	beq.n	80051c8 <HAL_RCC_OscConfig+0x39c>
 80051c6:	e661      	b.n	8004e8c <HAL_RCC_OscConfig+0x60>
 80051c8:	2270      	movs	r2, #112	@ 0x70
 80051ca:	6a61      	ldr	r1, [r4, #36]	@ 0x24
 80051cc:	4002      	ands	r2, r0
 80051ce:	428a      	cmp	r2, r1
 80051d0:	d000      	beq.n	80051d4 <HAL_RCC_OscConfig+0x3a8>
 80051d2:	e65b      	b.n	8004e8c <HAL_RCC_OscConfig+0x60>
 80051d4:	21fe      	movs	r1, #254	@ 0xfe
 80051d6:	6aa2      	ldr	r2, [r4, #40]	@ 0x28
 80051d8:	01c9      	lsls	r1, r1, #7
 80051da:	4001      	ands	r1, r0
 80051dc:	0212      	lsls	r2, r2, #8
 80051de:	4291      	cmp	r1, r2
 80051e0:	d000      	beq.n	80051e4 <HAL_RCC_OscConfig+0x3b8>
 80051e2:	e653      	b.n	8004e8c <HAL_RCC_OscConfig+0x60>
 80051e4:	22f8      	movs	r2, #248	@ 0xf8
 80051e6:	6ae1      	ldr	r1, [r4, #44]	@ 0x2c
 80051e8:	0392      	lsls	r2, r2, #14
 80051ea:	4002      	ands	r2, r0
 80051ec:	428a      	cmp	r2, r1
 80051ee:	d000      	beq.n	80051f2 <HAL_RCC_OscConfig+0x3c6>
 80051f0:	e64c      	b.n	8004e8c <HAL_RCC_OscConfig+0x60>
 80051f2:	22e0      	movs	r2, #224	@ 0xe0
 80051f4:	6b21      	ldr	r1, [r4, #48]	@ 0x30
 80051f6:	0512      	lsls	r2, r2, #20
 80051f8:	4002      	ands	r2, r0
 80051fa:	428a      	cmp	r2, r1
 80051fc:	d000      	beq.n	8005200 <HAL_RCC_OscConfig+0x3d4>
 80051fe:	e645      	b.n	8004e8c <HAL_RCC_OscConfig+0x60>
 8005200:	6b63      	ldr	r3, [r4, #52]	@ 0x34
 8005202:	0f40      	lsrs	r0, r0, #29
 8005204:	0740      	lsls	r0, r0, #29
 8005206:	1ac0      	subs	r0, r0, r3
 8005208:	1e43      	subs	r3, r0, #1
 800520a:	4198      	sbcs	r0, r3
 800520c:	b2c0      	uxtb	r0, r0
 800520e:	e63e      	b.n	8004e8e <HAL_RCC_OscConfig+0x62>
 8005210:	2180      	movs	r1, #128	@ 0x80
 8005212:	4b35      	ldr	r3, [pc, #212]	@ (80052e8 <HAL_RCC_OscConfig+0x4bc>)
 8005214:	02c9      	lsls	r1, r1, #11
 8005216:	6818      	ldr	r0, [r3, #0]
 8005218:	4301      	orrs	r1, r0
 800521a:	6019      	str	r1, [r3, #0]
 800521c:	6819      	ldr	r1, [r3, #0]
 800521e:	430a      	orrs	r2, r1
 8005220:	601a      	str	r2, [r3, #0]
 8005222:	e71c      	b.n	800505e <HAL_RCC_OscConfig+0x232>
 8005224:	6813      	ldr	r3, [r2, #0]
 8005226:	055b      	lsls	r3, r3, #21
 8005228:	d457      	bmi.n	80052da <HAL_RCC_OscConfig+0x4ae>
 800522a:	6851      	ldr	r1, [r2, #4]
 800522c:	6963      	ldr	r3, [r4, #20]
 800522e:	482f      	ldr	r0, [pc, #188]	@ (80052ec <HAL_RCC_OscConfig+0x4c0>)
 8005230:	021b      	lsls	r3, r3, #8
 8005232:	4001      	ands	r1, r0
 8005234:	430b      	orrs	r3, r1
 8005236:	6053      	str	r3, [r2, #4]
 8005238:	e643      	b.n	8004ec2 <HAL_RCC_OscConfig+0x96>
 800523a:	4a2b      	ldr	r2, [pc, #172]	@ (80052e8 <HAL_RCC_OscConfig+0x4bc>)
 800523c:	492c      	ldr	r1, [pc, #176]	@ (80052f0 <HAL_RCC_OscConfig+0x4c4>)
 800523e:	6bd3      	ldr	r3, [r2, #60]	@ 0x3c
 8005240:	400b      	ands	r3, r1
 8005242:	63d3      	str	r3, [r2, #60]	@ 0x3c
 8005244:	e68e      	b.n	8004f64 <HAL_RCC_OscConfig+0x138>
 8005246:	682b      	ldr	r3, [r5, #0]
 8005248:	4a2a      	ldr	r2, [pc, #168]	@ (80052f4 <HAL_RCC_OscConfig+0x4c8>)
 800524a:	2780      	movs	r7, #128	@ 0x80
 800524c:	4013      	ands	r3, r2
 800524e:	602b      	str	r3, [r5, #0]
 8005250:	f7fe f9e2 	bl	8003618 <HAL_GetTick>
 8005254:	04bf      	lsls	r7, r7, #18
 8005256:	0006      	movs	r6, r0
 8005258:	e005      	b.n	8005266 <HAL_RCC_OscConfig+0x43a>
 800525a:	f7fe f9dd 	bl	8003618 <HAL_GetTick>
 800525e:	1b80      	subs	r0, r0, r6
 8005260:	2802      	cmp	r0, #2
 8005262:	d900      	bls.n	8005266 <HAL_RCC_OscConfig+0x43a>
 8005264:	e765      	b.n	8005132 <HAL_RCC_OscConfig+0x306>
 8005266:	682b      	ldr	r3, [r5, #0]
 8005268:	423b      	tst	r3, r7
 800526a:	d1f6      	bne.n	800525a <HAL_RCC_OscConfig+0x42e>
 800526c:	6a61      	ldr	r1, [r4, #36]	@ 0x24
 800526e:	6a23      	ldr	r3, [r4, #32]
 8005270:	68ea      	ldr	r2, [r5, #12]
 8005272:	430b      	orrs	r3, r1
 8005274:	4920      	ldr	r1, [pc, #128]	@ (80052f8 <HAL_RCC_OscConfig+0x4cc>)
 8005276:	4e1c      	ldr	r6, [pc, #112]	@ (80052e8 <HAL_RCC_OscConfig+0x4bc>)
 8005278:	400a      	ands	r2, r1
 800527a:	4313      	orrs	r3, r2
 800527c:	6ae2      	ldr	r2, [r4, #44]	@ 0x2c
 800527e:	4313      	orrs	r3, r2
 8005280:	6b22      	ldr	r2, [r4, #48]	@ 0x30
 8005282:	4313      	orrs	r3, r2
 8005284:	6b62      	ldr	r2, [r4, #52]	@ 0x34
 8005286:	4313      	orrs	r3, r2
 8005288:	6aa2      	ldr	r2, [r4, #40]	@ 0x28
 800528a:	0212      	lsls	r2, r2, #8
 800528c:	4313      	orrs	r3, r2
 800528e:	60eb      	str	r3, [r5, #12]
 8005290:	2380      	movs	r3, #128	@ 0x80
 8005292:	682a      	ldr	r2, [r5, #0]
 8005294:	045b      	lsls	r3, r3, #17
 8005296:	4313      	orrs	r3, r2
 8005298:	602b      	str	r3, [r5, #0]
 800529a:	2380      	movs	r3, #128	@ 0x80
 800529c:	68ea      	ldr	r2, [r5, #12]
 800529e:	055b      	lsls	r3, r3, #21
 80052a0:	4313      	orrs	r3, r2
 80052a2:	60eb      	str	r3, [r5, #12]
 80052a4:	f7fe f9b8 	bl	8003618 <HAL_GetTick>
 80052a8:	2580      	movs	r5, #128	@ 0x80
 80052aa:	0004      	movs	r4, r0
 80052ac:	04ad      	lsls	r5, r5, #18
 80052ae:	e005      	b.n	80052bc <HAL_RCC_OscConfig+0x490>
 80052b0:	f7fe f9b2 	bl	8003618 <HAL_GetTick>
 80052b4:	1b00      	subs	r0, r0, r4
 80052b6:	2802      	cmp	r0, #2
 80052b8:	d900      	bls.n	80052bc <HAL_RCC_OscConfig+0x490>
 80052ba:	e73a      	b.n	8005132 <HAL_RCC_OscConfig+0x306>
 80052bc:	6833      	ldr	r3, [r6, #0]
 80052be:	422b      	tst	r3, r5
 80052c0:	d0f6      	beq.n	80052b0 <HAL_RCC_OscConfig+0x484>
 80052c2:	2000      	movs	r0, #0
 80052c4:	e5e3      	b.n	8004e8e <HAL_RCC_OscConfig+0x62>
 80052c6:	2104      	movs	r1, #4
 80052c8:	4b07      	ldr	r3, [pc, #28]	@ (80052e8 <HAL_RCC_OscConfig+0x4bc>)
 80052ca:	6dda      	ldr	r2, [r3, #92]	@ 0x5c
 80052cc:	430a      	orrs	r2, r1
 80052ce:	65da      	str	r2, [r3, #92]	@ 0x5c
 80052d0:	6dda      	ldr	r2, [r3, #92]	@ 0x5c
 80052d2:	3903      	subs	r1, #3
 80052d4:	430a      	orrs	r2, r1
 80052d6:	65da      	str	r2, [r3, #92]	@ 0x5c
 80052d8:	e70a      	b.n	80050f0 <HAL_RCC_OscConfig+0x2c4>
 80052da:	68e3      	ldr	r3, [r4, #12]
 80052dc:	2b00      	cmp	r3, #0
 80052de:	d1a4      	bne.n	800522a <HAL_RCC_OscConfig+0x3fe>
 80052e0:	e5d4      	b.n	8004e8c <HAL_RCC_OscConfig+0x60>
 80052e2:	46c0      	nop			@ (mov r8, r8)
 80052e4:	fffffeff 	.word	0xfffffeff
 80052e8:	40021000 	.word	0x40021000
 80052ec:	ffff80ff 	.word	0xffff80ff
 80052f0:	efffffff 	.word	0xefffffff
 80052f4:	feffffff 	.word	0xfeffffff
 80052f8:	11c1808c 	.word	0x11c1808c

080052fc <HAL_RCC_GetSysClockFreq>:
 80052fc:	2338      	movs	r3, #56	@ 0x38
 80052fe:	4a22      	ldr	r2, [pc, #136]	@ (8005388 <HAL_RCC_GetSysClockFreq+0x8c>)
 8005300:	b510      	push	{r4, lr}
 8005302:	6891      	ldr	r1, [r2, #8]
 8005304:	420b      	tst	r3, r1
 8005306:	d105      	bne.n	8005314 <HAL_RCC_GetSysClockFreq+0x18>
 8005308:	6813      	ldr	r3, [r2, #0]
 800530a:	4820      	ldr	r0, [pc, #128]	@ (800538c <HAL_RCC_GetSysClockFreq+0x90>)
 800530c:	049b      	lsls	r3, r3, #18
 800530e:	0f5b      	lsrs	r3, r3, #29
 8005310:	40d8      	lsrs	r0, r3
 8005312:	bd10      	pop	{r4, pc}
 8005314:	6891      	ldr	r1, [r2, #8]
 8005316:	4019      	ands	r1, r3
 8005318:	2908      	cmp	r1, #8
 800531a:	d014      	beq.n	8005346 <HAL_RCC_GetSysClockFreq+0x4a>
 800531c:	6891      	ldr	r1, [r2, #8]
 800531e:	4019      	ands	r1, r3
 8005320:	2910      	cmp	r1, #16
 8005322:	d012      	beq.n	800534a <HAL_RCC_GetSysClockFreq+0x4e>
 8005324:	6891      	ldr	r1, [r2, #8]
 8005326:	4019      	ands	r1, r3
 8005328:	2920      	cmp	r1, #32
 800532a:	d024      	beq.n	8005376 <HAL_RCC_GetSysClockFreq+0x7a>
 800532c:	6890      	ldr	r0, [r2, #8]
 800532e:	4018      	ands	r0, r3
 8005330:	3818      	subs	r0, #24
 8005332:	1e43      	subs	r3, r0, #1
 8005334:	4198      	sbcs	r0, r3
 8005336:	4b16      	ldr	r3, [pc, #88]	@ (8005390 <HAL_RCC_GetSysClockFreq+0x94>)
 8005338:	4240      	negs	r0, r0
 800533a:	4018      	ands	r0, r3
 800533c:	23fa      	movs	r3, #250	@ 0xfa
 800533e:	01db      	lsls	r3, r3, #7
 8005340:	469c      	mov	ip, r3
 8005342:	4460      	add	r0, ip
 8005344:	e7e5      	b.n	8005312 <HAL_RCC_GetSysClockFreq+0x16>
 8005346:	4813      	ldr	r0, [pc, #76]	@ (8005394 <HAL_RCC_GetSysClockFreq+0x98>)
 8005348:	e7e3      	b.n	8005312 <HAL_RCC_GetSysClockFreq+0x16>
 800534a:	68d3      	ldr	r3, [r2, #12]
 800534c:	68d1      	ldr	r1, [r2, #12]
 800534e:	43db      	mvns	r3, r3
 8005350:	68d4      	ldr	r4, [r2, #12]
 8005352:	0649      	lsls	r1, r1, #25
 8005354:	0f49      	lsrs	r1, r1, #29
 8005356:	0464      	lsls	r4, r4, #17
 8005358:	3101      	adds	r1, #1
 800535a:	0e64      	lsrs	r4, r4, #25
 800535c:	079b      	lsls	r3, r3, #30
 800535e:	d00d      	beq.n	800537c <HAL_RCC_GetSysClockFreq+0x80>
 8005360:	480a      	ldr	r0, [pc, #40]	@ (800538c <HAL_RCC_GetSysClockFreq+0x90>)
 8005362:	f7fa fecf 	bl	8000104 <__udivsi3>
 8005366:	4360      	muls	r0, r4
 8005368:	4b07      	ldr	r3, [pc, #28]	@ (8005388 <HAL_RCC_GetSysClockFreq+0x8c>)
 800536a:	68d9      	ldr	r1, [r3, #12]
 800536c:	0f49      	lsrs	r1, r1, #29
 800536e:	3101      	adds	r1, #1
 8005370:	f7fa fec8 	bl	8000104 <__udivsi3>
 8005374:	e7cd      	b.n	8005312 <HAL_RCC_GetSysClockFreq+0x16>
 8005376:	2080      	movs	r0, #128	@ 0x80
 8005378:	0200      	lsls	r0, r0, #8
 800537a:	e7ca      	b.n	8005312 <HAL_RCC_GetSysClockFreq+0x16>
 800537c:	4805      	ldr	r0, [pc, #20]	@ (8005394 <HAL_RCC_GetSysClockFreq+0x98>)
 800537e:	f7fa fec1 	bl	8000104 <__udivsi3>
 8005382:	4360      	muls	r0, r4
 8005384:	e7f0      	b.n	8005368 <HAL_RCC_GetSysClockFreq+0x6c>
 8005386:	46c0      	nop			@ (mov r8, r8)
 8005388:	40021000 	.word	0x40021000
 800538c:	00f42400 	.word	0x00f42400
 8005390:	ffff8300 	.word	0xffff8300
 8005394:	007a1200 	.word	0x007a1200

08005398 <HAL_RCC_ClockConfig>:
 8005398:	b5f8      	push	{r3, r4, r5, r6, r7, lr}
 800539a:	46ce      	mov	lr, r9
 800539c:	4647      	mov	r7, r8
 800539e:	0005      	movs	r5, r0
 80053a0:	000c      	movs	r4, r1
 80053a2:	b580      	push	{r7, lr}
 80053a4:	2800      	cmp	r0, #0
 80053a6:	d026      	beq.n	80053f6 <HAL_RCC_ClockConfig+0x5e>
 80053a8:	2207      	movs	r2, #7
 80053aa:	4e57      	ldr	r6, [pc, #348]	@ (8005508 <HAL_RCC_ClockConfig+0x170>)
 80053ac:	6833      	ldr	r3, [r6, #0]
 80053ae:	4013      	ands	r3, r2
 80053b0:	428b      	cmp	r3, r1
 80053b2:	d35e      	bcc.n	8005472 <HAL_RCC_ClockConfig+0xda>
 80053b4:	682b      	ldr	r3, [r5, #0]
 80053b6:	079a      	lsls	r2, r3, #30
 80053b8:	d50e      	bpl.n	80053d8 <HAL_RCC_ClockConfig+0x40>
 80053ba:	075a      	lsls	r2, r3, #29
 80053bc:	d505      	bpl.n	80053ca <HAL_RCC_ClockConfig+0x32>
 80053be:	22e0      	movs	r2, #224	@ 0xe0
 80053c0:	4952      	ldr	r1, [pc, #328]	@ (800550c <HAL_RCC_ClockConfig+0x174>)
 80053c2:	01d2      	lsls	r2, r2, #7
 80053c4:	6888      	ldr	r0, [r1, #8]
 80053c6:	4302      	orrs	r2, r0
 80053c8:	608a      	str	r2, [r1, #8]
 80053ca:	4950      	ldr	r1, [pc, #320]	@ (800550c <HAL_RCC_ClockConfig+0x174>)
 80053cc:	4850      	ldr	r0, [pc, #320]	@ (8005510 <HAL_RCC_ClockConfig+0x178>)
 80053ce:	688a      	ldr	r2, [r1, #8]
 80053d0:	4002      	ands	r2, r0
 80053d2:	68a8      	ldr	r0, [r5, #8]
 80053d4:	4302      	orrs	r2, r0
 80053d6:	608a      	str	r2, [r1, #8]
 80053d8:	07db      	lsls	r3, r3, #31
 80053da:	d52b      	bpl.n	8005434 <HAL_RCC_ClockConfig+0x9c>
 80053dc:	686b      	ldr	r3, [r5, #4]
 80053de:	4a4b      	ldr	r2, [pc, #300]	@ (800550c <HAL_RCC_ClockConfig+0x174>)
 80053e0:	2b01      	cmp	r3, #1
 80053e2:	d100      	bne.n	80053e6 <HAL_RCC_ClockConfig+0x4e>
 80053e4:	e07c      	b.n	80054e0 <HAL_RCC_ClockConfig+0x148>
 80053e6:	2b02      	cmp	r3, #2
 80053e8:	d007      	beq.n	80053fa <HAL_RCC_ClockConfig+0x62>
 80053ea:	2b00      	cmp	r3, #0
 80053ec:	d000      	beq.n	80053f0 <HAL_RCC_ClockConfig+0x58>
 80053ee:	e07d      	b.n	80054ec <HAL_RCC_ClockConfig+0x154>
 80053f0:	6812      	ldr	r2, [r2, #0]
 80053f2:	0552      	lsls	r2, r2, #21
 80053f4:	d404      	bmi.n	8005400 <HAL_RCC_ClockConfig+0x68>
 80053f6:	2001      	movs	r0, #1
 80053f8:	e037      	b.n	800546a <HAL_RCC_ClockConfig+0xd2>
 80053fa:	6812      	ldr	r2, [r2, #0]
 80053fc:	0192      	lsls	r2, r2, #6
 80053fe:	d5fa      	bpl.n	80053f6 <HAL_RCC_ClockConfig+0x5e>
 8005400:	2107      	movs	r1, #7
 8005402:	4e42      	ldr	r6, [pc, #264]	@ (800550c <HAL_RCC_ClockConfig+0x174>)
 8005404:	68b2      	ldr	r2, [r6, #8]
 8005406:	438a      	bics	r2, r1
 8005408:	4313      	orrs	r3, r2
 800540a:	60b3      	str	r3, [r6, #8]
 800540c:	f7fe f904 	bl	8003618 <HAL_GetTick>
 8005410:	2338      	movs	r3, #56	@ 0x38
 8005412:	4698      	mov	r8, r3
 8005414:	4b3f      	ldr	r3, [pc, #252]	@ (8005514 <HAL_RCC_ClockConfig+0x17c>)
 8005416:	0007      	movs	r7, r0
 8005418:	4699      	mov	r9, r3
 800541a:	e004      	b.n	8005426 <HAL_RCC_ClockConfig+0x8e>
 800541c:	f7fe f8fc 	bl	8003618 <HAL_GetTick>
 8005420:	1bc0      	subs	r0, r0, r7
 8005422:	4548      	cmp	r0, r9
 8005424:	d83b      	bhi.n	800549e <HAL_RCC_ClockConfig+0x106>
 8005426:	4643      	mov	r3, r8
 8005428:	68b2      	ldr	r2, [r6, #8]
 800542a:	401a      	ands	r2, r3
 800542c:	686b      	ldr	r3, [r5, #4]
 800542e:	00db      	lsls	r3, r3, #3
 8005430:	429a      	cmp	r2, r3
 8005432:	d1f3      	bne.n	800541c <HAL_RCC_ClockConfig+0x84>
 8005434:	2207      	movs	r2, #7
 8005436:	4e34      	ldr	r6, [pc, #208]	@ (8005508 <HAL_RCC_ClockConfig+0x170>)
 8005438:	6833      	ldr	r3, [r6, #0]
 800543a:	4013      	ands	r3, r2
 800543c:	42a3      	cmp	r3, r4
 800543e:	d838      	bhi.n	80054b2 <HAL_RCC_ClockConfig+0x11a>
 8005440:	682b      	ldr	r3, [r5, #0]
 8005442:	075b      	lsls	r3, r3, #29
 8005444:	d42d      	bmi.n	80054a2 <HAL_RCC_ClockConfig+0x10a>
 8005446:	f7ff ff59 	bl	80052fc <HAL_RCC_GetSysClockFreq>
 800544a:	4b30      	ldr	r3, [pc, #192]	@ (800550c <HAL_RCC_ClockConfig+0x174>)
 800544c:	4a32      	ldr	r2, [pc, #200]	@ (8005518 <HAL_RCC_ClockConfig+0x180>)
 800544e:	689b      	ldr	r3, [r3, #8]
 8005450:	4932      	ldr	r1, [pc, #200]	@ (800551c <HAL_RCC_ClockConfig+0x184>)
 8005452:	051b      	lsls	r3, r3, #20
 8005454:	0f1b      	lsrs	r3, r3, #28
 8005456:	009b      	lsls	r3, r3, #2
 8005458:	589b      	ldr	r3, [r3, r2]
 800545a:	221f      	movs	r2, #31
 800545c:	4013      	ands	r3, r2
 800545e:	40d8      	lsrs	r0, r3
 8005460:	4b2f      	ldr	r3, [pc, #188]	@ (8005520 <HAL_RCC_ClockConfig+0x188>)
 8005462:	6008      	str	r0, [r1, #0]
 8005464:	6818      	ldr	r0, [r3, #0]
 8005466:	f7fe f891 	bl	800358c <HAL_InitTick>
 800546a:	bcc0      	pop	{r6, r7}
 800546c:	46b9      	mov	r9, r7
 800546e:	46b0      	mov	r8, r6
 8005470:	bdf8      	pop	{r3, r4, r5, r6, r7, pc}
 8005472:	6833      	ldr	r3, [r6, #0]
 8005474:	4393      	bics	r3, r2
 8005476:	430b      	orrs	r3, r1
 8005478:	6033      	str	r3, [r6, #0]
 800547a:	f7fe f8cd 	bl	8003618 <HAL_GetTick>
 800547e:	2307      	movs	r3, #7
 8005480:	4698      	mov	r8, r3
 8005482:	4b24      	ldr	r3, [pc, #144]	@ (8005514 <HAL_RCC_ClockConfig+0x17c>)
 8005484:	0007      	movs	r7, r0
 8005486:	4699      	mov	r9, r3
 8005488:	4642      	mov	r2, r8
 800548a:	6833      	ldr	r3, [r6, #0]
 800548c:	4013      	ands	r3, r2
 800548e:	42a3      	cmp	r3, r4
 8005490:	d100      	bne.n	8005494 <HAL_RCC_ClockConfig+0xfc>
 8005492:	e78f      	b.n	80053b4 <HAL_RCC_ClockConfig+0x1c>
 8005494:	f7fe f8c0 	bl	8003618 <HAL_GetTick>
 8005498:	1bc0      	subs	r0, r0, r7
 800549a:	4548      	cmp	r0, r9
 800549c:	d9f4      	bls.n	8005488 <HAL_RCC_ClockConfig+0xf0>
 800549e:	2003      	movs	r0, #3
 80054a0:	e7e3      	b.n	800546a <HAL_RCC_ClockConfig+0xd2>
 80054a2:	4a1a      	ldr	r2, [pc, #104]	@ (800550c <HAL_RCC_ClockConfig+0x174>)
 80054a4:	491f      	ldr	r1, [pc, #124]	@ (8005524 <HAL_RCC_ClockConfig+0x18c>)
 80054a6:	6893      	ldr	r3, [r2, #8]
 80054a8:	400b      	ands	r3, r1
 80054aa:	68e9      	ldr	r1, [r5, #12]
 80054ac:	430b      	orrs	r3, r1
 80054ae:	6093      	str	r3, [r2, #8]
 80054b0:	e7c9      	b.n	8005446 <HAL_RCC_ClockConfig+0xae>
 80054b2:	6833      	ldr	r3, [r6, #0]
 80054b4:	4393      	bics	r3, r2
 80054b6:	4323      	orrs	r3, r4
 80054b8:	6033      	str	r3, [r6, #0]
 80054ba:	f7fe f8ad 	bl	8003618 <HAL_GetTick>
 80054be:	2307      	movs	r3, #7
 80054c0:	4698      	mov	r8, r3
 80054c2:	4b14      	ldr	r3, [pc, #80]	@ (8005514 <HAL_RCC_ClockConfig+0x17c>)
 80054c4:	0007      	movs	r7, r0
 80054c6:	4699      	mov	r9, r3
 80054c8:	4642      	mov	r2, r8
 80054ca:	6833      	ldr	r3, [r6, #0]
 80054cc:	4013      	ands	r3, r2
 80054ce:	42a3      	cmp	r3, r4
 80054d0:	d0b6      	beq.n	8005440 <HAL_RCC_ClockConfig+0xa8>
 80054d2:	f7fe f8a1 	bl	8003618 <HAL_GetTick>
 80054d6:	1bc0      	subs	r0, r0, r7
 80054d8:	4548      	cmp	r0, r9
 80054da:	d9f5      	bls.n	80054c8 <HAL_RCC_ClockConfig+0x130>
 80054dc:	2003      	movs	r0, #3
 80054de:	e7c4      	b.n	800546a <HAL_RCC_ClockConfig+0xd2>
 80054e0:	6812      	ldr	r2, [r2, #0]
 80054e2:	0392      	lsls	r2, r2, #14
 80054e4:	d500      	bpl.n	80054e8 <HAL_RCC_ClockConfig+0x150>
 80054e6:	e78b      	b.n	8005400 <HAL_RCC_ClockConfig+0x68>
 80054e8:	2001      	movs	r0, #1
 80054ea:	e7be      	b.n	800546a <HAL_RCC_ClockConfig+0xd2>
 80054ec:	2b03      	cmp	r3, #3
 80054ee:	d005      	beq.n	80054fc <HAL_RCC_ClockConfig+0x164>
 80054f0:	6dd2      	ldr	r2, [r2, #92]	@ 0x5c
 80054f2:	0792      	lsls	r2, r2, #30
 80054f4:	d500      	bpl.n	80054f8 <HAL_RCC_ClockConfig+0x160>
 80054f6:	e783      	b.n	8005400 <HAL_RCC_ClockConfig+0x68>
 80054f8:	2001      	movs	r0, #1
 80054fa:	e7b6      	b.n	800546a <HAL_RCC_ClockConfig+0xd2>
 80054fc:	6e12      	ldr	r2, [r2, #96]	@ 0x60
 80054fe:	0792      	lsls	r2, r2, #30
 8005500:	d500      	bpl.n	8005504 <HAL_RCC_ClockConfig+0x16c>
 8005502:	e77d      	b.n	8005400 <HAL_RCC_ClockConfig+0x68>
 8005504:	2001      	movs	r0, #1
 8005506:	e7b0      	b.n	800546a <HAL_RCC_ClockConfig+0xd2>
 8005508:	40022000 	.word	0x40022000
 800550c:	40021000 	.word	0x40021000
 8005510:	fffff0ff 	.word	0xfffff0ff
 8005514:	00001388 	.word	0x00001388
 8005518:	080086cc 	.word	0x080086cc
 800551c:	20000440 	.word	0x20000440
 8005520:	20000448 	.word	0x20000448
 8005524:	ffff8fff 	.word	0xffff8fff

08005528 <HAL_RCC_GetPCLK1Freq>:
 8005528:	4b06      	ldr	r3, [pc, #24]	@ (8005544 <HAL_RCC_GetPCLK1Freq+0x1c>)
 800552a:	4907      	ldr	r1, [pc, #28]	@ (8005548 <HAL_RCC_GetPCLK1Freq+0x20>)
 800552c:	689b      	ldr	r3, [r3, #8]
 800552e:	4a07      	ldr	r2, [pc, #28]	@ (800554c <HAL_RCC_GetPCLK1Freq+0x24>)
 8005530:	045b      	lsls	r3, r3, #17
 8005532:	0f5b      	lsrs	r3, r3, #29
 8005534:	009b      	lsls	r3, r3, #2
 8005536:	585b      	ldr	r3, [r3, r1]
 8005538:	211f      	movs	r1, #31
 800553a:	6810      	ldr	r0, [r2, #0]
 800553c:	400b      	ands	r3, r1
 800553e:	40d8      	lsrs	r0, r3
 8005540:	4770      	bx	lr
 8005542:	46c0      	nop			@ (mov r8, r8)
 8005544:	40021000 	.word	0x40021000
 8005548:	080086ac 	.word	0x080086ac
 800554c:	20000440 	.word	0x20000440

08005550 <HAL_RCCEx_PeriphCLKConfig>:
 8005550:	b5f0      	push	{r4, r5, r6, r7, lr}
 8005552:	46d6      	mov	lr, sl
 8005554:	464f      	mov	r7, r9
 8005556:	4646      	mov	r6, r8
 8005558:	b5c0      	push	{r6, r7, lr}
 800555a:	6803      	ldr	r3, [r0, #0]
 800555c:	0004      	movs	r4, r0
 800555e:	b082      	sub	sp, #8
 8005560:	2000      	movs	r0, #0
 8005562:	039a      	lsls	r2, r3, #14
 8005564:	d543      	bpl.n	80055ee <HAL_RCCEx_PeriphCLKConfig+0x9e>
 8005566:	2280      	movs	r2, #128	@ 0x80
 8005568:	4b68      	ldr	r3, [pc, #416]	@ (800570c <HAL_RCCEx_PeriphCLKConfig+0x1bc>)
 800556a:	0552      	lsls	r2, r2, #21
 800556c:	6bd9      	ldr	r1, [r3, #60]	@ 0x3c
 800556e:	4682      	mov	sl, r0
 8005570:	4211      	tst	r1, r2
 8005572:	d100      	bne.n	8005576 <HAL_RCCEx_PeriphCLKConfig+0x26>
 8005574:	e095      	b.n	80056a2 <HAL_RCCEx_PeriphCLKConfig+0x152>
 8005576:	2780      	movs	r7, #128	@ 0x80
 8005578:	4d65      	ldr	r5, [pc, #404]	@ (8005710 <HAL_RCCEx_PeriphCLKConfig+0x1c0>)
 800557a:	007f      	lsls	r7, r7, #1
 800557c:	682b      	ldr	r3, [r5, #0]
 800557e:	433b      	orrs	r3, r7
 8005580:	602b      	str	r3, [r5, #0]
 8005582:	f7fe f849 	bl	8003618 <HAL_GetTick>
 8005586:	0006      	movs	r6, r0
 8005588:	e004      	b.n	8005594 <HAL_RCCEx_PeriphCLKConfig+0x44>
 800558a:	f7fe f845 	bl	8003618 <HAL_GetTick>
 800558e:	1b80      	subs	r0, r0, r6
 8005590:	2802      	cmp	r0, #2
 8005592:	d827      	bhi.n	80055e4 <HAL_RCCEx_PeriphCLKConfig+0x94>
 8005594:	682b      	ldr	r3, [r5, #0]
 8005596:	423b      	tst	r3, r7
 8005598:	d0f7      	beq.n	800558a <HAL_RCCEx_PeriphCLKConfig+0x3a>
 800559a:	4d5c      	ldr	r5, [pc, #368]	@ (800570c <HAL_RCCEx_PeriphCLKConfig+0x1bc>)
 800559c:	23c0      	movs	r3, #192	@ 0xc0
 800559e:	6dea      	ldr	r2, [r5, #92]	@ 0x5c
 80055a0:	009b      	lsls	r3, r3, #2
 80055a2:	0010      	movs	r0, r2
 80055a4:	6a61      	ldr	r1, [r4, #36]	@ 0x24
 80055a6:	4018      	ands	r0, r3
 80055a8:	421a      	tst	r2, r3
 80055aa:	d100      	bne.n	80055ae <HAL_RCCEx_PeriphCLKConfig+0x5e>
 80055ac:	e0a6      	b.n	80056fc <HAL_RCCEx_PeriphCLKConfig+0x1ac>
 80055ae:	4288      	cmp	r0, r1
 80055b0:	d100      	bne.n	80055b4 <HAL_RCCEx_PeriphCLKConfig+0x64>
 80055b2:	e0a3      	b.n	80056fc <HAL_RCCEx_PeriphCLKConfig+0x1ac>
 80055b4:	2080      	movs	r0, #128	@ 0x80
 80055b6:	6deb      	ldr	r3, [r5, #92]	@ 0x5c
 80055b8:	6dee      	ldr	r6, [r5, #92]	@ 0x5c
 80055ba:	0240      	lsls	r0, r0, #9
 80055bc:	4330      	orrs	r0, r6
 80055be:	65e8      	str	r0, [r5, #92]	@ 0x5c
 80055c0:	6de8      	ldr	r0, [r5, #92]	@ 0x5c
 80055c2:	4a54      	ldr	r2, [pc, #336]	@ (8005714 <HAL_RCCEx_PeriphCLKConfig+0x1c4>)
 80055c4:	4e54      	ldr	r6, [pc, #336]	@ (8005718 <HAL_RCCEx_PeriphCLKConfig+0x1c8>)
 80055c6:	401a      	ands	r2, r3
 80055c8:	4030      	ands	r0, r6
 80055ca:	65e8      	str	r0, [r5, #92]	@ 0x5c
 80055cc:	65ea      	str	r2, [r5, #92]	@ 0x5c
 80055ce:	07db      	lsls	r3, r3, #31
 80055d0:	d400      	bmi.n	80055d4 <HAL_RCCEx_PeriphCLKConfig+0x84>
 80055d2:	e093      	b.n	80056fc <HAL_RCCEx_PeriphCLKConfig+0x1ac>
 80055d4:	f7fe f820 	bl	8003618 <HAL_GetTick>
 80055d8:	2302      	movs	r3, #2
 80055da:	4698      	mov	r8, r3
 80055dc:	4b4f      	ldr	r3, [pc, #316]	@ (800571c <HAL_RCCEx_PeriphCLKConfig+0x1cc>)
 80055de:	0006      	movs	r6, r0
 80055e0:	4699      	mov	r9, r3
 80055e2:	e086      	b.n	80056f2 <HAL_RCCEx_PeriphCLKConfig+0x1a2>
 80055e4:	2003      	movs	r0, #3
 80055e6:	4652      	mov	r2, sl
 80055e8:	6823      	ldr	r3, [r4, #0]
 80055ea:	2a01      	cmp	r2, #1
 80055ec:	d063      	beq.n	80056b6 <HAL_RCCEx_PeriphCLKConfig+0x166>
 80055ee:	07da      	lsls	r2, r3, #31
 80055f0:	d506      	bpl.n	8005600 <HAL_RCCEx_PeriphCLKConfig+0xb0>
 80055f2:	2503      	movs	r5, #3
 80055f4:	4945      	ldr	r1, [pc, #276]	@ (800570c <HAL_RCCEx_PeriphCLKConfig+0x1bc>)
 80055f6:	6d4a      	ldr	r2, [r1, #84]	@ 0x54
 80055f8:	43aa      	bics	r2, r5
 80055fa:	6865      	ldr	r5, [r4, #4]
 80055fc:	432a      	orrs	r2, r5
 80055fe:	654a      	str	r2, [r1, #84]	@ 0x54
 8005600:	06da      	lsls	r2, r3, #27
 8005602:	d506      	bpl.n	8005612 <HAL_RCCEx_PeriphCLKConfig+0xc2>
 8005604:	4941      	ldr	r1, [pc, #260]	@ (800570c <HAL_RCCEx_PeriphCLKConfig+0x1bc>)
 8005606:	4d46      	ldr	r5, [pc, #280]	@ (8005720 <HAL_RCCEx_PeriphCLKConfig+0x1d0>)
 8005608:	6d4a      	ldr	r2, [r1, #84]	@ 0x54
 800560a:	402a      	ands	r2, r5
 800560c:	68a5      	ldr	r5, [r4, #8]
 800560e:	432a      	orrs	r2, r5
 8005610:	654a      	str	r2, [r1, #84]	@ 0x54
 8005612:	059a      	lsls	r2, r3, #22
 8005614:	d506      	bpl.n	8005624 <HAL_RCCEx_PeriphCLKConfig+0xd4>
 8005616:	493d      	ldr	r1, [pc, #244]	@ (800570c <HAL_RCCEx_PeriphCLKConfig+0x1bc>)
 8005618:	4d42      	ldr	r5, [pc, #264]	@ (8005724 <HAL_RCCEx_PeriphCLKConfig+0x1d4>)
 800561a:	6d4a      	ldr	r2, [r1, #84]	@ 0x54
 800561c:	402a      	ands	r2, r5
 800561e:	6965      	ldr	r5, [r4, #20]
 8005620:	432a      	orrs	r2, r5
 8005622:	654a      	str	r2, [r1, #84]	@ 0x54
 8005624:	055a      	lsls	r2, r3, #21
 8005626:	d506      	bpl.n	8005636 <HAL_RCCEx_PeriphCLKConfig+0xe6>
 8005628:	4938      	ldr	r1, [pc, #224]	@ (800570c <HAL_RCCEx_PeriphCLKConfig+0x1bc>)
 800562a:	4d3f      	ldr	r5, [pc, #252]	@ (8005728 <HAL_RCCEx_PeriphCLKConfig+0x1d8>)
 800562c:	6d4a      	ldr	r2, [r1, #84]	@ 0x54
 800562e:	402a      	ands	r2, r5
 8005630:	69a5      	ldr	r5, [r4, #24]
 8005632:	432a      	orrs	r2, r5
 8005634:	654a      	str	r2, [r1, #84]	@ 0x54
 8005636:	069a      	lsls	r2, r3, #26
 8005638:	d506      	bpl.n	8005648 <HAL_RCCEx_PeriphCLKConfig+0xf8>
 800563a:	4934      	ldr	r1, [pc, #208]	@ (800570c <HAL_RCCEx_PeriphCLKConfig+0x1bc>)
 800563c:	4d3b      	ldr	r5, [pc, #236]	@ (800572c <HAL_RCCEx_PeriphCLKConfig+0x1dc>)
 800563e:	6d4a      	ldr	r2, [r1, #84]	@ 0x54
 8005640:	402a      	ands	r2, r5
 8005642:	68e5      	ldr	r5, [r4, #12]
 8005644:	432a      	orrs	r2, r5
 8005646:	654a      	str	r2, [r1, #84]	@ 0x54
 8005648:	045a      	lsls	r2, r3, #17
 800564a:	d50a      	bpl.n	8005662 <HAL_RCCEx_PeriphCLKConfig+0x112>
 800564c:	492f      	ldr	r1, [pc, #188]	@ (800570c <HAL_RCCEx_PeriphCLKConfig+0x1bc>)
 800564e:	69e5      	ldr	r5, [r4, #28]
 8005650:	6d4a      	ldr	r2, [r1, #84]	@ 0x54
 8005652:	0092      	lsls	r2, r2, #2
 8005654:	0892      	lsrs	r2, r2, #2
 8005656:	432a      	orrs	r2, r5
 8005658:	654a      	str	r2, [r1, #84]	@ 0x54
 800565a:	2280      	movs	r2, #128	@ 0x80
 800565c:	05d2      	lsls	r2, r2, #23
 800565e:	4295      	cmp	r5, r2
 8005660:	d02f      	beq.n	80056c2 <HAL_RCCEx_PeriphCLKConfig+0x172>
 8005662:	029a      	lsls	r2, r3, #10
 8005664:	d50a      	bpl.n	800567c <HAL_RCCEx_PeriphCLKConfig+0x12c>
 8005666:	4929      	ldr	r1, [pc, #164]	@ (800570c <HAL_RCCEx_PeriphCLKConfig+0x1bc>)
 8005668:	4e31      	ldr	r6, [pc, #196]	@ (8005730 <HAL_RCCEx_PeriphCLKConfig+0x1e0>)
 800566a:	6d4a      	ldr	r2, [r1, #84]	@ 0x54
 800566c:	6a25      	ldr	r5, [r4, #32]
 800566e:	4032      	ands	r2, r6
 8005670:	432a      	orrs	r2, r5
 8005672:	654a      	str	r2, [r1, #84]	@ 0x54
 8005674:	2280      	movs	r2, #128	@ 0x80
 8005676:	03d2      	lsls	r2, r2, #15
 8005678:	4295      	cmp	r5, r2
 800567a:	d028      	beq.n	80056ce <HAL_RCCEx_PeriphCLKConfig+0x17e>
 800567c:	051b      	lsls	r3, r3, #20
 800567e:	d50a      	bpl.n	8005696 <HAL_RCCEx_PeriphCLKConfig+0x146>
 8005680:	4a22      	ldr	r2, [pc, #136]	@ (800570c <HAL_RCCEx_PeriphCLKConfig+0x1bc>)
 8005682:	6921      	ldr	r1, [r4, #16]
 8005684:	6d53      	ldr	r3, [r2, #84]	@ 0x54
 8005686:	4c2b      	ldr	r4, [pc, #172]	@ (8005734 <HAL_RCCEx_PeriphCLKConfig+0x1e4>)
 8005688:	4023      	ands	r3, r4
 800568a:	430b      	orrs	r3, r1
 800568c:	6553      	str	r3, [r2, #84]	@ 0x54
 800568e:	2380      	movs	r3, #128	@ 0x80
 8005690:	01db      	lsls	r3, r3, #7
 8005692:	4299      	cmp	r1, r3
 8005694:	d021      	beq.n	80056da <HAL_RCCEx_PeriphCLKConfig+0x18a>
 8005696:	b002      	add	sp, #8
 8005698:	bce0      	pop	{r5, r6, r7}
 800569a:	46ba      	mov	sl, r7
 800569c:	46b1      	mov	r9, r6
 800569e:	46a8      	mov	r8, r5
 80056a0:	bdf0      	pop	{r4, r5, r6, r7, pc}
 80056a2:	6bd9      	ldr	r1, [r3, #60]	@ 0x3c
 80056a4:	4311      	orrs	r1, r2
 80056a6:	63d9      	str	r1, [r3, #60]	@ 0x3c
 80056a8:	6bdb      	ldr	r3, [r3, #60]	@ 0x3c
 80056aa:	4013      	ands	r3, r2
 80056ac:	9301      	str	r3, [sp, #4]
 80056ae:	9b01      	ldr	r3, [sp, #4]
 80056b0:	2301      	movs	r3, #1
 80056b2:	469a      	mov	sl, r3
 80056b4:	e75f      	b.n	8005576 <HAL_RCCEx_PeriphCLKConfig+0x26>
 80056b6:	4915      	ldr	r1, [pc, #84]	@ (800570c <HAL_RCCEx_PeriphCLKConfig+0x1bc>)
 80056b8:	4d1f      	ldr	r5, [pc, #124]	@ (8005738 <HAL_RCCEx_PeriphCLKConfig+0x1e8>)
 80056ba:	6bca      	ldr	r2, [r1, #60]	@ 0x3c
 80056bc:	402a      	ands	r2, r5
 80056be:	63ca      	str	r2, [r1, #60]	@ 0x3c
 80056c0:	e795      	b.n	80055ee <HAL_RCCEx_PeriphCLKConfig+0x9e>
 80056c2:	2280      	movs	r2, #128	@ 0x80
 80056c4:	68cd      	ldr	r5, [r1, #12]
 80056c6:	0252      	lsls	r2, r2, #9
 80056c8:	432a      	orrs	r2, r5
 80056ca:	60ca      	str	r2, [r1, #12]
 80056cc:	e7c9      	b.n	8005662 <HAL_RCCEx_PeriphCLKConfig+0x112>
 80056ce:	2280      	movs	r2, #128	@ 0x80
 80056d0:	68cd      	ldr	r5, [r1, #12]
 80056d2:	0452      	lsls	r2, r2, #17
 80056d4:	432a      	orrs	r2, r5
 80056d6:	60ca      	str	r2, [r1, #12]
 80056d8:	e7d0      	b.n	800567c <HAL_RCCEx_PeriphCLKConfig+0x12c>
 80056da:	2380      	movs	r3, #128	@ 0x80
 80056dc:	68d1      	ldr	r1, [r2, #12]
 80056de:	025b      	lsls	r3, r3, #9
 80056e0:	430b      	orrs	r3, r1
 80056e2:	60d3      	str	r3, [r2, #12]
 80056e4:	e7d7      	b.n	8005696 <HAL_RCCEx_PeriphCLKConfig+0x146>
 80056e6:	f7fd ff97 	bl	8003618 <HAL_GetTick>
 80056ea:	1b80      	subs	r0, r0, r6
 80056ec:	4548      	cmp	r0, r9
 80056ee:	d900      	bls.n	80056f2 <HAL_RCCEx_PeriphCLKConfig+0x1a2>
 80056f0:	e778      	b.n	80055e4 <HAL_RCCEx_PeriphCLKConfig+0x94>
 80056f2:	4642      	mov	r2, r8
 80056f4:	6deb      	ldr	r3, [r5, #92]	@ 0x5c
 80056f6:	421a      	tst	r2, r3
 80056f8:	d0f5      	beq.n	80056e6 <HAL_RCCEx_PeriphCLKConfig+0x196>
 80056fa:	6a61      	ldr	r1, [r4, #36]	@ 0x24
 80056fc:	4a03      	ldr	r2, [pc, #12]	@ (800570c <HAL_RCCEx_PeriphCLKConfig+0x1bc>)
 80056fe:	4805      	ldr	r0, [pc, #20]	@ (8005714 <HAL_RCCEx_PeriphCLKConfig+0x1c4>)
 8005700:	6dd3      	ldr	r3, [r2, #92]	@ 0x5c
 8005702:	4003      	ands	r3, r0
 8005704:	430b      	orrs	r3, r1
 8005706:	2000      	movs	r0, #0
 8005708:	65d3      	str	r3, [r2, #92]	@ 0x5c
 800570a:	e76c      	b.n	80055e6 <HAL_RCCEx_PeriphCLKConfig+0x96>
 800570c:	40021000 	.word	0x40021000
 8005710:	40007000 	.word	0x40007000
 8005714:	fffffcff 	.word	0xfffffcff
 8005718:	fffeffff 	.word	0xfffeffff
 800571c:	00001388 	.word	0x00001388
 8005720:	fffff3ff 	.word	0xfffff3ff
 8005724:	fff3ffff 	.word	0xfff3ffff
 8005728:	ffcfffff 	.word	0xffcfffff
 800572c:	ffffcfff 	.word	0xffffcfff
 8005730:	ffbfffff 	.word	0xffbfffff
 8005734:	ffff3fff 	.word	0xffff3fff
 8005738:	efffffff 	.word	0xefffffff

0800573c <HAL_TIM_OC_MspInit>:
 800573c:	4770      	bx	lr
 800573e:	46c0      	nop			@ (mov r8, r8)

08005740 <HAL_TIM_PWM_MspInit>:
 8005740:	4770      	bx	lr
 8005742:	46c0      	nop			@ (mov r8, r8)

08005744 <HAL_TIM_IC_MspInit>:
 8005744:	4770      	bx	lr
 8005746:	46c0      	nop			@ (mov r8, r8)

08005748 <HAL_TIM_PeriodElapsedCallback>:
 8005748:	4770      	bx	lr
 800574a:	46c0      	nop			@ (mov r8, r8)

0800574c <HAL_TIM_PeriodElapsedHalfCpltCallback>:
 800574c:	4770      	bx	lr
 800574e:	46c0      	nop			@ (mov r8, r8)

08005750 <HAL_TIM_OC_DelayElapsedCallback>:
 8005750:	4770      	bx	lr
 8005752:	46c0      	nop			@ (mov r8, r8)

08005754 <HAL_TIM_IC_CaptureCallback>:
 8005754:	4770      	bx	lr
 8005756:	46c0      	nop			@ (mov r8, r8)

08005758 <HAL_TIM_IC_CaptureHalfCpltCallback>:
 8005758:	4770      	bx	lr
 800575a:	46c0      	nop			@ (mov r8, r8)

0800575c <HAL_TIM_PWM_PulseFinishedCallback>:
 800575c:	4770      	bx	lr
 800575e:	46c0      	nop			@ (mov r8, r8)

08005760 <HAL_TIM_PWM_PulseFinishedHalfCpltCallback>:
 8005760:	4770      	bx	lr
 8005762:	46c0      	nop			@ (mov r8, r8)

08005764 <HAL_TIM_TriggerCallback>:
 8005764:	4770      	bx	lr
 8005766:	46c0      	nop			@ (mov r8, r8)

08005768 <HAL_TIM_TriggerHalfCpltCallback>:
 8005768:	4770      	bx	lr
 800576a:	46c0      	nop			@ (mov r8, r8)

0800576c <HAL_TIM_ErrorCallback>:
 800576c:	4770      	bx	lr
 800576e:	46c0      	nop			@ (mov r8, r8)

08005770 <HAL_TIM_Base_Init>:
 8005770:	b570      	push	{r4, r5, r6, lr}
 8005772:	1e04      	subs	r4, r0, #0
 8005774:	d100      	bne.n	8005778 <HAL_TIM_Base_Init+0x8>
 8005776:	e096      	b.n	80058a6 <HAL_TIM_Base_Init+0x136>
 8005778:	233d      	movs	r3, #61	@ 0x3d
 800577a:	5cc3      	ldrb	r3, [r0, r3]
 800577c:	b2da      	uxtb	r2, r3
 800577e:	2b00      	cmp	r3, #0
 8005780:	d130      	bne.n	80057e4 <HAL_TIM_Base_Init+0x74>
 8005782:	333c      	adds	r3, #60	@ 0x3c
 8005784:	54c2      	strb	r2, [r0, r3]
 8005786:	2284      	movs	r2, #132	@ 0x84
 8005788:	4b4f      	ldr	r3, [pc, #316]	@ (80058c8 <HAL_TIM_Base_Init+0x158>)
 800578a:	5083      	str	r3, [r0, r2]
 800578c:	4b4f      	ldr	r3, [pc, #316]	@ (80058cc <HAL_TIM_Base_Init+0x15c>)
 800578e:	3204      	adds	r2, #4
 8005790:	5083      	str	r3, [r0, r2]
 8005792:	4b4f      	ldr	r3, [pc, #316]	@ (80058d0 <HAL_TIM_Base_Init+0x160>)
 8005794:	3204      	adds	r2, #4
 8005796:	5083      	str	r3, [r0, r2]
 8005798:	4b4e      	ldr	r3, [pc, #312]	@ (80058d4 <HAL_TIM_Base_Init+0x164>)
 800579a:	3204      	adds	r2, #4
 800579c:	5083      	str	r3, [r0, r2]
 800579e:	4b4e      	ldr	r3, [pc, #312]	@ (80058d8 <HAL_TIM_Base_Init+0x168>)
 80057a0:	3204      	adds	r2, #4
 80057a2:	5083      	str	r3, [r0, r2]
 80057a4:	4b4d      	ldr	r3, [pc, #308]	@ (80058dc <HAL_TIM_Base_Init+0x16c>)
 80057a6:	3204      	adds	r2, #4
 80057a8:	5083      	str	r3, [r0, r2]
 80057aa:	4b4d      	ldr	r3, [pc, #308]	@ (80058e0 <HAL_TIM_Base_Init+0x170>)
 80057ac:	3204      	adds	r2, #4
 80057ae:	5083      	str	r3, [r0, r2]
 80057b0:	4b4c      	ldr	r3, [pc, #304]	@ (80058e4 <HAL_TIM_Base_Init+0x174>)
 80057b2:	3204      	adds	r2, #4
 80057b4:	5083      	str	r3, [r0, r2]
 80057b6:	4b4c      	ldr	r3, [pc, #304]	@ (80058e8 <HAL_TIM_Base_Init+0x178>)
 80057b8:	3204      	adds	r2, #4
 80057ba:	5083      	str	r3, [r0, r2]
 80057bc:	4b4b      	ldr	r3, [pc, #300]	@ (80058ec <HAL_TIM_Base_Init+0x17c>)
 80057be:	3204      	adds	r2, #4
 80057c0:	5083      	str	r3, [r0, r2]
 80057c2:	4b4b      	ldr	r3, [pc, #300]	@ (80058f0 <HAL_TIM_Base_Init+0x180>)
 80057c4:	3204      	adds	r2, #4
 80057c6:	5083      	str	r3, [r0, r2]
 80057c8:	4b4a      	ldr	r3, [pc, #296]	@ (80058f4 <HAL_TIM_Base_Init+0x184>)
 80057ca:	3204      	adds	r2, #4
 80057cc:	5083      	str	r3, [r0, r2]
 80057ce:	4b4a      	ldr	r3, [pc, #296]	@ (80058f8 <HAL_TIM_Base_Init+0x188>)
 80057d0:	3204      	adds	r2, #4
 80057d2:	5083      	str	r3, [r0, r2]
 80057d4:	4b49      	ldr	r3, [pc, #292]	@ (80058fc <HAL_TIM_Base_Init+0x18c>)
 80057d6:	3204      	adds	r2, #4
 80057d8:	5083      	str	r3, [r0, r2]
 80057da:	6cc3      	ldr	r3, [r0, #76]	@ 0x4c
 80057dc:	2b00      	cmp	r3, #0
 80057de:	d064      	beq.n	80058aa <HAL_TIM_Base_Init+0x13a>
 80057e0:	0020      	movs	r0, r4
 80057e2:	4798      	blx	r3
 80057e4:	233d      	movs	r3, #61	@ 0x3d
 80057e6:	2202      	movs	r2, #2
 80057e8:	54e2      	strb	r2, [r4, r3]
 80057ea:	6823      	ldr	r3, [r4, #0]
 80057ec:	4e44      	ldr	r6, [pc, #272]	@ (8005900 <HAL_TIM_Base_Init+0x190>)
 80057ee:	681a      	ldr	r2, [r3, #0]
 80057f0:	69a5      	ldr	r5, [r4, #24]
 80057f2:	68e0      	ldr	r0, [r4, #12]
 80057f4:	6861      	ldr	r1, [r4, #4]
 80057f6:	42b3      	cmp	r3, r6
 80057f8:	d016      	beq.n	8005828 <HAL_TIM_Base_Init+0xb8>
 80057fa:	2680      	movs	r6, #128	@ 0x80
 80057fc:	05f6      	lsls	r6, r6, #23
 80057fe:	42b3      	cmp	r3, r6
 8005800:	d012      	beq.n	8005828 <HAL_TIM_Base_Init+0xb8>
 8005802:	4e40      	ldr	r6, [pc, #256]	@ (8005904 <HAL_TIM_Base_Init+0x194>)
 8005804:	42b3      	cmp	r3, r6
 8005806:	d045      	beq.n	8005894 <HAL_TIM_Base_Init+0x124>
 8005808:	4e3f      	ldr	r6, [pc, #252]	@ (8005908 <HAL_TIM_Base_Init+0x198>)
 800580a:	42b3      	cmp	r3, r6
 800580c:	d046      	beq.n	800589c <HAL_TIM_Base_Init+0x12c>
 800580e:	4e3f      	ldr	r6, [pc, #252]	@ (800590c <HAL_TIM_Base_Init+0x19c>)
 8005810:	42b3      	cmp	r3, r6
 8005812:	d04d      	beq.n	80058b0 <HAL_TIM_Base_Init+0x140>
 8005814:	4e3e      	ldr	r6, [pc, #248]	@ (8005910 <HAL_TIM_Base_Init+0x1a0>)
 8005816:	42b3      	cmp	r3, r6
 8005818:	d04a      	beq.n	80058b0 <HAL_TIM_Base_Init+0x140>
 800581a:	2680      	movs	r6, #128	@ 0x80
 800581c:	43b2      	bics	r2, r6
 800581e:	432a      	orrs	r2, r5
 8005820:	601a      	str	r2, [r3, #0]
 8005822:	62d8      	str	r0, [r3, #44]	@ 0x2c
 8005824:	6299      	str	r1, [r3, #40]	@ 0x28
 8005826:	e012      	b.n	800584e <HAL_TIM_Base_Init+0xde>
 8005828:	2670      	movs	r6, #112	@ 0x70
 800582a:	43b2      	bics	r2, r6
 800582c:	68a6      	ldr	r6, [r4, #8]
 800582e:	4332      	orrs	r2, r6
 8005830:	4e38      	ldr	r6, [pc, #224]	@ (8005914 <HAL_TIM_Base_Init+0x1a4>)
 8005832:	4032      	ands	r2, r6
 8005834:	6926      	ldr	r6, [r4, #16]
 8005836:	4332      	orrs	r2, r6
 8005838:	2680      	movs	r6, #128	@ 0x80
 800583a:	43b2      	bics	r2, r6
 800583c:	432a      	orrs	r2, r5
 800583e:	601a      	str	r2, [r3, #0]
 8005840:	4a2f      	ldr	r2, [pc, #188]	@ (8005900 <HAL_TIM_Base_Init+0x190>)
 8005842:	62d8      	str	r0, [r3, #44]	@ 0x2c
 8005844:	6299      	str	r1, [r3, #40]	@ 0x28
 8005846:	4293      	cmp	r3, r2
 8005848:	d101      	bne.n	800584e <HAL_TIM_Base_Init+0xde>
 800584a:	6962      	ldr	r2, [r4, #20]
 800584c:	631a      	str	r2, [r3, #48]	@ 0x30
 800584e:	2201      	movs	r2, #1
 8005850:	615a      	str	r2, [r3, #20]
 8005852:	6919      	ldr	r1, [r3, #16]
 8005854:	420a      	tst	r2, r1
 8005856:	d002      	beq.n	800585e <HAL_TIM_Base_Init+0xee>
 8005858:	6919      	ldr	r1, [r3, #16]
 800585a:	4391      	bics	r1, r2
 800585c:	6119      	str	r1, [r3, #16]
 800585e:	2301      	movs	r3, #1
 8005860:	2248      	movs	r2, #72	@ 0x48
 8005862:	2000      	movs	r0, #0
 8005864:	54a3      	strb	r3, [r4, r2]
 8005866:	3a0a      	subs	r2, #10
 8005868:	54a3      	strb	r3, [r4, r2]
 800586a:	3201      	adds	r2, #1
 800586c:	54a3      	strb	r3, [r4, r2]
 800586e:	3201      	adds	r2, #1
 8005870:	54a3      	strb	r3, [r4, r2]
 8005872:	3201      	adds	r2, #1
 8005874:	54a3      	strb	r3, [r4, r2]
 8005876:	3201      	adds	r2, #1
 8005878:	54a3      	strb	r3, [r4, r2]
 800587a:	3201      	adds	r2, #1
 800587c:	54a3      	strb	r3, [r4, r2]
 800587e:	3201      	adds	r2, #1
 8005880:	54a3      	strb	r3, [r4, r2]
 8005882:	3201      	adds	r2, #1
 8005884:	54a3      	strb	r3, [r4, r2]
 8005886:	3201      	adds	r2, #1
 8005888:	54a3      	strb	r3, [r4, r2]
 800588a:	3201      	adds	r2, #1
 800588c:	54a3      	strb	r3, [r4, r2]
 800588e:	3a0a      	subs	r2, #10
 8005890:	54a3      	strb	r3, [r4, r2]
 8005892:	bd70      	pop	{r4, r5, r6, pc}
 8005894:	2670      	movs	r6, #112	@ 0x70
 8005896:	43b2      	bics	r2, r6
 8005898:	68a6      	ldr	r6, [r4, #8]
 800589a:	4332      	orrs	r2, r6
 800589c:	4e1d      	ldr	r6, [pc, #116]	@ (8005914 <HAL_TIM_Base_Init+0x1a4>)
 800589e:	4032      	ands	r2, r6
 80058a0:	6926      	ldr	r6, [r4, #16]
 80058a2:	4332      	orrs	r2, r6
 80058a4:	e7b9      	b.n	800581a <HAL_TIM_Base_Init+0xaa>
 80058a6:	2001      	movs	r0, #1
 80058a8:	e7f3      	b.n	8005892 <HAL_TIM_Base_Init+0x122>
 80058aa:	4b1b      	ldr	r3, [pc, #108]	@ (8005918 <HAL_TIM_Base_Init+0x1a8>)
 80058ac:	64c3      	str	r3, [r0, #76]	@ 0x4c
 80058ae:	e797      	b.n	80057e0 <HAL_TIM_Base_Init+0x70>
 80058b0:	4e18      	ldr	r6, [pc, #96]	@ (8005914 <HAL_TIM_Base_Init+0x1a4>)
 80058b2:	4032      	ands	r2, r6
 80058b4:	6926      	ldr	r6, [r4, #16]
 80058b6:	4332      	orrs	r2, r6
 80058b8:	2680      	movs	r6, #128	@ 0x80
 80058ba:	43b2      	bics	r2, r6
 80058bc:	432a      	orrs	r2, r5
 80058be:	601a      	str	r2, [r3, #0]
 80058c0:	62d8      	str	r0, [r3, #44]	@ 0x2c
 80058c2:	6299      	str	r1, [r3, #40]	@ 0x28
 80058c4:	e7c1      	b.n	800584a <HAL_TIM_Base_Init+0xda>
 80058c6:	46c0      	nop			@ (mov r8, r8)
 80058c8:	08005749 	.word	0x08005749
 80058cc:	0800574d 	.word	0x0800574d
 80058d0:	08005765 	.word	0x08005765
 80058d4:	08005769 	.word	0x08005769
 80058d8:	08005755 	.word	0x08005755
 80058dc:	08005759 	.word	0x08005759
 80058e0:	08005751 	.word	0x08005751
 80058e4:	0800575d 	.word	0x0800575d
 80058e8:	08005761 	.word	0x08005761
 80058ec:	0800576d 	.word	0x0800576d
 80058f0:	08006fdd 	.word	0x08006fdd
 80058f4:	08006fe1 	.word	0x08006fe1
 80058f8:	08006fe5 	.word	0x08006fe5
 80058fc:	08006fe9 	.word	0x08006fe9
 8005900:	40012c00 	.word	0x40012c00
 8005904:	40000400 	.word	0x40000400
 8005908:	40002000 	.word	0x40002000
 800590c:	40014400 	.word	0x40014400
 8005910:	40014800 	.word	0x40014800
 8005914:	fffffcff 	.word	0xfffffcff
 8005918:	08002e9d 	.word	0x08002e9d

0800591c <HAL_TIM_Base_Start>:
 800591c:	213d      	movs	r1, #61	@ 0x3d
 800591e:	b510      	push	{r4, lr}
 8005920:	5c42      	ldrb	r2, [r0, r1]
 8005922:	0003      	movs	r3, r0
 8005924:	b2d4      	uxtb	r4, r2
 8005926:	2001      	movs	r0, #1
 8005928:	2a01      	cmp	r2, #1
 800592a:	d110      	bne.n	800594e <HAL_TIM_Base_Start+0x32>
 800592c:	3201      	adds	r2, #1
 800592e:	545a      	strb	r2, [r3, r1]
 8005930:	681b      	ldr	r3, [r3, #0]
 8005932:	4a0e      	ldr	r2, [pc, #56]	@ (800596c <HAL_TIM_Base_Start+0x50>)
 8005934:	4293      	cmp	r3, r2
 8005936:	d00b      	beq.n	8005950 <HAL_TIM_Base_Start+0x34>
 8005938:	2280      	movs	r2, #128	@ 0x80
 800593a:	05d2      	lsls	r2, r2, #23
 800593c:	4293      	cmp	r3, r2
 800593e:	d007      	beq.n	8005950 <HAL_TIM_Base_Start+0x34>
 8005940:	4a0b      	ldr	r2, [pc, #44]	@ (8005970 <HAL_TIM_Base_Start+0x54>)
 8005942:	4293      	cmp	r3, r2
 8005944:	d004      	beq.n	8005950 <HAL_TIM_Base_Start+0x34>
 8005946:	681a      	ldr	r2, [r3, #0]
 8005948:	4322      	orrs	r2, r4
 800594a:	601a      	str	r2, [r3, #0]
 800594c:	2000      	movs	r0, #0
 800594e:	bd10      	pop	{r4, pc}
 8005950:	689a      	ldr	r2, [r3, #8]
 8005952:	4908      	ldr	r1, [pc, #32]	@ (8005974 <HAL_TIM_Base_Start+0x58>)
 8005954:	400a      	ands	r2, r1
 8005956:	2a06      	cmp	r2, #6
 8005958:	d0f8      	beq.n	800594c <HAL_TIM_Base_Start+0x30>
 800595a:	3907      	subs	r1, #7
 800595c:	428a      	cmp	r2, r1
 800595e:	d0f5      	beq.n	800594c <HAL_TIM_Base_Start+0x30>
 8005960:	2101      	movs	r1, #1
 8005962:	681a      	ldr	r2, [r3, #0]
 8005964:	2000      	movs	r0, #0
 8005966:	430a      	orrs	r2, r1
 8005968:	601a      	str	r2, [r3, #0]
 800596a:	e7f0      	b.n	800594e <HAL_TIM_Base_Start+0x32>
 800596c:	40012c00 	.word	0x40012c00
 8005970:	40000400 	.word	0x40000400
 8005974:	00010007 	.word	0x00010007

08005978 <HAL_TIM_Base_Start_IT>:
 8005978:	213d      	movs	r1, #61	@ 0x3d
 800597a:	b510      	push	{r4, lr}
 800597c:	5c42      	ldrb	r2, [r0, r1]
 800597e:	0003      	movs	r3, r0
 8005980:	b2d4      	uxtb	r4, r2
 8005982:	2001      	movs	r0, #1
 8005984:	2a01      	cmp	r2, #1
 8005986:	d113      	bne.n	80059b0 <HAL_TIM_Base_Start_IT+0x38>
 8005988:	3201      	adds	r2, #1
 800598a:	545a      	strb	r2, [r3, r1]
 800598c:	681b      	ldr	r3, [r3, #0]
 800598e:	68da      	ldr	r2, [r3, #12]
 8005990:	4322      	orrs	r2, r4
 8005992:	60da      	str	r2, [r3, #12]
 8005994:	4a0e      	ldr	r2, [pc, #56]	@ (80059d0 <HAL_TIM_Base_Start_IT+0x58>)
 8005996:	4293      	cmp	r3, r2
 8005998:	d00b      	beq.n	80059b2 <HAL_TIM_Base_Start_IT+0x3a>
 800599a:	2280      	movs	r2, #128	@ 0x80
 800599c:	05d2      	lsls	r2, r2, #23
 800599e:	4293      	cmp	r3, r2
 80059a0:	d007      	beq.n	80059b2 <HAL_TIM_Base_Start_IT+0x3a>
 80059a2:	4a0c      	ldr	r2, [pc, #48]	@ (80059d4 <HAL_TIM_Base_Start_IT+0x5c>)
 80059a4:	4293      	cmp	r3, r2
 80059a6:	d004      	beq.n	80059b2 <HAL_TIM_Base_Start_IT+0x3a>
 80059a8:	681a      	ldr	r2, [r3, #0]
 80059aa:	4322      	orrs	r2, r4
 80059ac:	601a      	str	r2, [r3, #0]
 80059ae:	2000      	movs	r0, #0
 80059b0:	bd10      	pop	{r4, pc}
 80059b2:	689a      	ldr	r2, [r3, #8]
 80059b4:	4908      	ldr	r1, [pc, #32]	@ (80059d8 <HAL_TIM_Base_Start_IT+0x60>)
 80059b6:	400a      	ands	r2, r1
 80059b8:	2a06      	cmp	r2, #6
 80059ba:	d0f8      	beq.n	80059ae <HAL_TIM_Base_Start_IT+0x36>
 80059bc:	3907      	subs	r1, #7
 80059be:	428a      	cmp	r2, r1
 80059c0:	d0f5      	beq.n	80059ae <HAL_TIM_Base_Start_IT+0x36>
 80059c2:	2101      	movs	r1, #1
 80059c4:	681a      	ldr	r2, [r3, #0]
 80059c6:	2000      	movs	r0, #0
 80059c8:	430a      	orrs	r2, r1
 80059ca:	601a      	str	r2, [r3, #0]
 80059cc:	e7f0      	b.n	80059b0 <HAL_TIM_Base_Start_IT+0x38>
 80059ce:	46c0      	nop			@ (mov r8, r8)
 80059d0:	40012c00 	.word	0x40012c00
 80059d4:	40000400 	.word	0x40000400
 80059d8:	00010007 	.word	0x00010007

080059dc <HAL_TIM_OC_Init>:
 80059dc:	b570      	push	{r4, r5, r6, lr}
 80059de:	1e04      	subs	r4, r0, #0
 80059e0:	d100      	bne.n	80059e4 <HAL_TIM_OC_Init+0x8>
 80059e2:	e096      	b.n	8005b12 <HAL_TIM_OC_Init+0x136>
 80059e4:	233d      	movs	r3, #61	@ 0x3d
 80059e6:	5cc3      	ldrb	r3, [r0, r3]
 80059e8:	b2da      	uxtb	r2, r3
 80059ea:	2b00      	cmp	r3, #0
 80059ec:	d130      	bne.n	8005a50 <HAL_TIM_OC_Init+0x74>
 80059ee:	333c      	adds	r3, #60	@ 0x3c
 80059f0:	54c2      	strb	r2, [r0, r3]
 80059f2:	2284      	movs	r2, #132	@ 0x84
 80059f4:	4b4f      	ldr	r3, [pc, #316]	@ (8005b34 <HAL_TIM_OC_Init+0x158>)
 80059f6:	5083      	str	r3, [r0, r2]
 80059f8:	4b4f      	ldr	r3, [pc, #316]	@ (8005b38 <HAL_TIM_OC_Init+0x15c>)
 80059fa:	3204      	adds	r2, #4
 80059fc:	5083      	str	r3, [r0, r2]
 80059fe:	4b4f      	ldr	r3, [pc, #316]	@ (8005b3c <HAL_TIM_OC_Init+0x160>)
 8005a00:	3204      	adds	r2, #4
 8005a02:	5083      	str	r3, [r0, r2]
 8005a04:	4b4e      	ldr	r3, [pc, #312]	@ (8005b40 <HAL_TIM_OC_Init+0x164>)
 8005a06:	3204      	adds	r2, #4
 8005a08:	5083      	str	r3, [r0, r2]
 8005a0a:	4b4e      	ldr	r3, [pc, #312]	@ (8005b44 <HAL_TIM_OC_Init+0x168>)
 8005a0c:	3204      	adds	r2, #4
 8005a0e:	5083      	str	r3, [r0, r2]
 8005a10:	4b4d      	ldr	r3, [pc, #308]	@ (8005b48 <HAL_TIM_OC_Init+0x16c>)
 8005a12:	3204      	adds	r2, #4
 8005a14:	5083      	str	r3, [r0, r2]
 8005a16:	4b4d      	ldr	r3, [pc, #308]	@ (8005b4c <HAL_TIM_OC_Init+0x170>)
 8005a18:	3204      	adds	r2, #4
 8005a1a:	5083      	str	r3, [r0, r2]
 8005a1c:	4b4c      	ldr	r3, [pc, #304]	@ (8005b50 <HAL_TIM_OC_Init+0x174>)
 8005a1e:	3204      	adds	r2, #4
 8005a20:	5083      	str	r3, [r0, r2]
 8005a22:	4b4c      	ldr	r3, [pc, #304]	@ (8005b54 <HAL_TIM_OC_Init+0x178>)
 8005a24:	3204      	adds	r2, #4
 8005a26:	5083      	str	r3, [r0, r2]
 8005a28:	4b4b      	ldr	r3, [pc, #300]	@ (8005b58 <HAL_TIM_OC_Init+0x17c>)
 8005a2a:	3204      	adds	r2, #4
 8005a2c:	5083      	str	r3, [r0, r2]
 8005a2e:	4b4b      	ldr	r3, [pc, #300]	@ (8005b5c <HAL_TIM_OC_Init+0x180>)
 8005a30:	3204      	adds	r2, #4
 8005a32:	5083      	str	r3, [r0, r2]
 8005a34:	4b4a      	ldr	r3, [pc, #296]	@ (8005b60 <HAL_TIM_OC_Init+0x184>)
 8005a36:	3204      	adds	r2, #4
 8005a38:	5083      	str	r3, [r0, r2]
 8005a3a:	4b4a      	ldr	r3, [pc, #296]	@ (8005b64 <HAL_TIM_OC_Init+0x188>)
 8005a3c:	3204      	adds	r2, #4
 8005a3e:	5083      	str	r3, [r0, r2]
 8005a40:	4b49      	ldr	r3, [pc, #292]	@ (8005b68 <HAL_TIM_OC_Init+0x18c>)
 8005a42:	3204      	adds	r2, #4
 8005a44:	5083      	str	r3, [r0, r2]
 8005a46:	6dc3      	ldr	r3, [r0, #92]	@ 0x5c
 8005a48:	2b00      	cmp	r3, #0
 8005a4a:	d064      	beq.n	8005b16 <HAL_TIM_OC_Init+0x13a>
 8005a4c:	0020      	movs	r0, r4
 8005a4e:	4798      	blx	r3
 8005a50:	233d      	movs	r3, #61	@ 0x3d
 8005a52:	2202      	movs	r2, #2
 8005a54:	54e2      	strb	r2, [r4, r3]
 8005a56:	6823      	ldr	r3, [r4, #0]
 8005a58:	4e44      	ldr	r6, [pc, #272]	@ (8005b6c <HAL_TIM_OC_Init+0x190>)
 8005a5a:	681a      	ldr	r2, [r3, #0]
 8005a5c:	69a5      	ldr	r5, [r4, #24]
 8005a5e:	68e0      	ldr	r0, [r4, #12]
 8005a60:	6861      	ldr	r1, [r4, #4]
 8005a62:	42b3      	cmp	r3, r6
 8005a64:	d016      	beq.n	8005a94 <HAL_TIM_OC_Init+0xb8>
 8005a66:	2680      	movs	r6, #128	@ 0x80
 8005a68:	05f6      	lsls	r6, r6, #23
 8005a6a:	42b3      	cmp	r3, r6
 8005a6c:	d012      	beq.n	8005a94 <HAL_TIM_OC_Init+0xb8>
 8005a6e:	4e40      	ldr	r6, [pc, #256]	@ (8005b70 <HAL_TIM_OC_Init+0x194>)
 8005a70:	42b3      	cmp	r3, r6
 8005a72:	d045      	beq.n	8005b00 <HAL_TIM_OC_Init+0x124>
 8005a74:	4e3f      	ldr	r6, [pc, #252]	@ (8005b74 <HAL_TIM_OC_Init+0x198>)
 8005a76:	42b3      	cmp	r3, r6
 8005a78:	d046      	beq.n	8005b08 <HAL_TIM_OC_Init+0x12c>
 8005a7a:	4e3f      	ldr	r6, [pc, #252]	@ (8005b78 <HAL_TIM_OC_Init+0x19c>)
 8005a7c:	42b3      	cmp	r3, r6
 8005a7e:	d04d      	beq.n	8005b1c <HAL_TIM_OC_Init+0x140>
 8005a80:	4e3e      	ldr	r6, [pc, #248]	@ (8005b7c <HAL_TIM_OC_Init+0x1a0>)
 8005a82:	42b3      	cmp	r3, r6
 8005a84:	d04a      	beq.n	8005b1c <HAL_TIM_OC_Init+0x140>
 8005a86:	2680      	movs	r6, #128	@ 0x80
 8005a88:	43b2      	bics	r2, r6
 8005a8a:	432a      	orrs	r2, r5
 8005a8c:	601a      	str	r2, [r3, #0]
 8005a8e:	62d8      	str	r0, [r3, #44]	@ 0x2c
 8005a90:	6299      	str	r1, [r3, #40]	@ 0x28
 8005a92:	e012      	b.n	8005aba <HAL_TIM_OC_Init+0xde>
 8005a94:	2670      	movs	r6, #112	@ 0x70
 8005a96:	43b2      	bics	r2, r6
 8005a98:	68a6      	ldr	r6, [r4, #8]
 8005a9a:	4332      	orrs	r2, r6
 8005a9c:	4e38      	ldr	r6, [pc, #224]	@ (8005b80 <HAL_TIM_OC_Init+0x1a4>)
 8005a9e:	4032      	ands	r2, r6
 8005aa0:	6926      	ldr	r6, [r4, #16]
 8005aa2:	4332      	orrs	r2, r6
 8005aa4:	2680      	movs	r6, #128	@ 0x80
 8005aa6:	43b2      	bics	r2, r6
 8005aa8:	432a      	orrs	r2, r5
 8005aaa:	601a      	str	r2, [r3, #0]
 8005aac:	4a2f      	ldr	r2, [pc, #188]	@ (8005b6c <HAL_TIM_OC_Init+0x190>)
 8005aae:	62d8      	str	r0, [r3, #44]	@ 0x2c
 8005ab0:	6299      	str	r1, [r3, #40]	@ 0x28
 8005ab2:	4293      	cmp	r3, r2
 8005ab4:	d101      	bne.n	8005aba <HAL_TIM_OC_Init+0xde>
 8005ab6:	6962      	ldr	r2, [r4, #20]
 8005ab8:	631a      	str	r2, [r3, #48]	@ 0x30
 8005aba:	2201      	movs	r2, #1
 8005abc:	615a      	str	r2, [r3, #20]
 8005abe:	6919      	ldr	r1, [r3, #16]
 8005ac0:	420a      	tst	r2, r1
 8005ac2:	d002      	beq.n	8005aca <HAL_TIM_OC_Init+0xee>
 8005ac4:	6919      	ldr	r1, [r3, #16]
 8005ac6:	4391      	bics	r1, r2
 8005ac8:	6119      	str	r1, [r3, #16]
 8005aca:	2301      	movs	r3, #1
 8005acc:	2248      	movs	r2, #72	@ 0x48
 8005ace:	2000      	movs	r0, #0
 8005ad0:	54a3      	strb	r3, [r4, r2]
 8005ad2:	3a0a      	subs	r2, #10
 8005ad4:	54a3      	strb	r3, [r4, r2]
 8005ad6:	3201      	adds	r2, #1
 8005ad8:	54a3      	strb	r3, [r4, r2]
 8005ada:	3201      	adds	r2, #1
 8005adc:	54a3      	strb	r3, [r4, r2]
 8005ade:	3201      	adds	r2, #1
 8005ae0:	54a3      	strb	r3, [r4, r2]
 8005ae2:	3201      	adds	r2, #1
 8005ae4:	54a3      	strb	r3, [r4, r2]
 8005ae6:	3201      	adds	r2, #1
 8005ae8:	54a3      	strb	r3, [r4, r2]
 8005aea:	3201      	adds	r2, #1
 8005aec:	54a3      	strb	r3, [r4, r2]
 8005aee:	3201      	adds	r2, #1
 8005af0:	54a3      	strb	r3, [r4, r2]
 8005af2:	3201      	adds	r2, #1
 8005af4:	54a3      	strb	r3, [r4, r2]
 8005af6:	3201      	adds	r2, #1
 8005af8:	54a3      	strb	r3, [r4, r2]
 8005afa:	3a0a      	subs	r2, #10
 8005afc:	54a3      	strb	r3, [r4, r2]
 8005afe:	bd70      	pop	{r4, r5, r6, pc}
 8005b00:	2670      	movs	r6, #112	@ 0x70
 8005b02:	43b2      	bics	r2, r6
 8005b04:	68a6      	ldr	r6, [r4, #8]
 8005b06:	4332      	orrs	r2, r6
 8005b08:	4e1d      	ldr	r6, [pc, #116]	@ (8005b80 <HAL_TIM_OC_Init+0x1a4>)
 8005b0a:	4032      	ands	r2, r6
 8005b0c:	6926      	ldr	r6, [r4, #16]
 8005b0e:	4332      	orrs	r2, r6
 8005b10:	e7b9      	b.n	8005a86 <HAL_TIM_OC_Init+0xaa>
 8005b12:	2001      	movs	r0, #1
 8005b14:	e7f3      	b.n	8005afe <HAL_TIM_OC_Init+0x122>
 8005b16:	4b1b      	ldr	r3, [pc, #108]	@ (8005b84 <HAL_TIM_OC_Init+0x1a8>)
 8005b18:	65c3      	str	r3, [r0, #92]	@ 0x5c
 8005b1a:	e797      	b.n	8005a4c <HAL_TIM_OC_Init+0x70>
 8005b1c:	4e18      	ldr	r6, [pc, #96]	@ (8005b80 <HAL_TIM_OC_Init+0x1a4>)
 8005b1e:	4032      	ands	r2, r6
 8005b20:	6926      	ldr	r6, [r4, #16]
 8005b22:	4332      	orrs	r2, r6
 8005b24:	2680      	movs	r6, #128	@ 0x80
 8005b26:	43b2      	bics	r2, r6
 8005b28:	432a      	orrs	r2, r5
 8005b2a:	601a      	str	r2, [r3, #0]
 8005b2c:	62d8      	str	r0, [r3, #44]	@ 0x2c
 8005b2e:	6299      	str	r1, [r3, #40]	@ 0x28
 8005b30:	e7c1      	b.n	8005ab6 <HAL_TIM_OC_Init+0xda>
 8005b32:	46c0      	nop			@ (mov r8, r8)
 8005b34:	08005749 	.word	0x08005749
 8005b38:	0800574d 	.word	0x0800574d
 8005b3c:	08005765 	.word	0x08005765
 8005b40:	08005769 	.word	0x08005769
 8005b44:	08005755 	.word	0x08005755
 8005b48:	08005759 	.word	0x08005759
 8005b4c:	08005751 	.word	0x08005751
 8005b50:	0800575d 	.word	0x0800575d
 8005b54:	08005761 	.word	0x08005761
 8005b58:	0800576d 	.word	0x0800576d
 8005b5c:	08006fdd 	.word	0x08006fdd
 8005b60:	08006fe1 	.word	0x08006fe1
 8005b64:	08006fe5 	.word	0x08006fe5
 8005b68:	08006fe9 	.word	0x08006fe9
 8005b6c:	40012c00 	.word	0x40012c00
 8005b70:	40000400 	.word	0x40000400
 8005b74:	40002000 	.word	0x40002000
 8005b78:	40014400 	.word	0x40014400
 8005b7c:	40014800 	.word	0x40014800
 8005b80:	fffffcff 	.word	0xfffffcff
 8005b84:	0800573d 	.word	0x0800573d

08005b88 <HAL_TIM_OC_Start_IT>:
 8005b88:	b510      	push	{r4, lr}
 8005b8a:	2910      	cmp	r1, #16
 8005b8c:	d803      	bhi.n	8005b96 <HAL_TIM_OC_Start_IT+0xe>
 8005b8e:	4a38      	ldr	r2, [pc, #224]	@ (8005c70 <HAL_TIM_OC_Start_IT+0xe8>)
 8005b90:	008b      	lsls	r3, r1, #2
 8005b92:	58d3      	ldr	r3, [r2, r3]
 8005b94:	469f      	mov	pc, r3
 8005b96:	2343      	movs	r3, #67	@ 0x43
 8005b98:	5cc2      	ldrb	r2, [r0, r3]
 8005b9a:	2a01      	cmp	r2, #1
 8005b9c:	d101      	bne.n	8005ba2 <HAL_TIM_OC_Start_IT+0x1a>
 8005b9e:	2202      	movs	r2, #2
 8005ba0:	54c2      	strb	r2, [r0, r3]
 8005ba2:	2001      	movs	r0, #1
 8005ba4:	bd10      	pop	{r4, pc}
 8005ba6:	233e      	movs	r3, #62	@ 0x3e
 8005ba8:	5cc2      	ldrb	r2, [r0, r3]
 8005baa:	2a01      	cmp	r2, #1
 8005bac:	d1f9      	bne.n	8005ba2 <HAL_TIM_OC_Start_IT+0x1a>
 8005bae:	2402      	movs	r4, #2
 8005bb0:	54c4      	strb	r4, [r0, r3]
 8005bb2:	6803      	ldr	r3, [r0, #0]
 8005bb4:	68da      	ldr	r2, [r3, #12]
 8005bb6:	4322      	orrs	r2, r4
 8005bb8:	60da      	str	r2, [r3, #12]
 8005bba:	2201      	movs	r2, #1
 8005bbc:	408a      	lsls	r2, r1
 8005bbe:	6a19      	ldr	r1, [r3, #32]
 8005bc0:	4391      	bics	r1, r2
 8005bc2:	6219      	str	r1, [r3, #32]
 8005bc4:	6a19      	ldr	r1, [r3, #32]
 8005bc6:	430a      	orrs	r2, r1
 8005bc8:	621a      	str	r2, [r3, #32]
 8005bca:	4a2a      	ldr	r2, [pc, #168]	@ (8005c74 <HAL_TIM_OC_Start_IT+0xec>)
 8005bcc:	4293      	cmp	r3, r2
 8005bce:	d049      	beq.n	8005c64 <HAL_TIM_OC_Start_IT+0xdc>
 8005bd0:	4a29      	ldr	r2, [pc, #164]	@ (8005c78 <HAL_TIM_OC_Start_IT+0xf0>)
 8005bd2:	4293      	cmp	r3, r2
 8005bd4:	d040      	beq.n	8005c58 <HAL_TIM_OC_Start_IT+0xd0>
 8005bd6:	4a29      	ldr	r2, [pc, #164]	@ (8005c7c <HAL_TIM_OC_Start_IT+0xf4>)
 8005bd8:	4293      	cmp	r3, r2
 8005bda:	d03d      	beq.n	8005c58 <HAL_TIM_OC_Start_IT+0xd0>
 8005bdc:	2280      	movs	r2, #128	@ 0x80
 8005bde:	05d2      	lsls	r2, r2, #23
 8005be0:	4293      	cmp	r3, r2
 8005be2:	d002      	beq.n	8005bea <HAL_TIM_OC_Start_IT+0x62>
 8005be4:	4a26      	ldr	r2, [pc, #152]	@ (8005c80 <HAL_TIM_OC_Start_IT+0xf8>)
 8005be6:	4293      	cmp	r3, r2
 8005be8:	d107      	bne.n	8005bfa <HAL_TIM_OC_Start_IT+0x72>
 8005bea:	689a      	ldr	r2, [r3, #8]
 8005bec:	4925      	ldr	r1, [pc, #148]	@ (8005c84 <HAL_TIM_OC_Start_IT+0xfc>)
 8005bee:	400a      	ands	r2, r1
 8005bf0:	2a06      	cmp	r2, #6
 8005bf2:	d006      	beq.n	8005c02 <HAL_TIM_OC_Start_IT+0x7a>
 8005bf4:	3907      	subs	r1, #7
 8005bf6:	428a      	cmp	r2, r1
 8005bf8:	d003      	beq.n	8005c02 <HAL_TIM_OC_Start_IT+0x7a>
 8005bfa:	2101      	movs	r1, #1
 8005bfc:	681a      	ldr	r2, [r3, #0]
 8005bfe:	430a      	orrs	r2, r1
 8005c00:	601a      	str	r2, [r3, #0]
 8005c02:	2000      	movs	r0, #0
 8005c04:	e7ce      	b.n	8005ba4 <HAL_TIM_OC_Start_IT+0x1c>
 8005c06:	233f      	movs	r3, #63	@ 0x3f
 8005c08:	5cc2      	ldrb	r2, [r0, r3]
 8005c0a:	2a01      	cmp	r2, #1
 8005c0c:	d1c9      	bne.n	8005ba2 <HAL_TIM_OC_Start_IT+0x1a>
 8005c0e:	2202      	movs	r2, #2
 8005c10:	54c2      	strb	r2, [r0, r3]
 8005c12:	6803      	ldr	r3, [r0, #0]
 8005c14:	2004      	movs	r0, #4
 8005c16:	68da      	ldr	r2, [r3, #12]
 8005c18:	4302      	orrs	r2, r0
 8005c1a:	60da      	str	r2, [r3, #12]
 8005c1c:	e7cd      	b.n	8005bba <HAL_TIM_OC_Start_IT+0x32>
 8005c1e:	2340      	movs	r3, #64	@ 0x40
 8005c20:	5cc2      	ldrb	r2, [r0, r3]
 8005c22:	2a01      	cmp	r2, #1
 8005c24:	d1bd      	bne.n	8005ba2 <HAL_TIM_OC_Start_IT+0x1a>
 8005c26:	2202      	movs	r2, #2
 8005c28:	54c2      	strb	r2, [r0, r3]
 8005c2a:	6803      	ldr	r3, [r0, #0]
 8005c2c:	2008      	movs	r0, #8
 8005c2e:	68da      	ldr	r2, [r3, #12]
 8005c30:	4302      	orrs	r2, r0
 8005c32:	60da      	str	r2, [r3, #12]
 8005c34:	e7c1      	b.n	8005bba <HAL_TIM_OC_Start_IT+0x32>
 8005c36:	2341      	movs	r3, #65	@ 0x41
 8005c38:	5cc2      	ldrb	r2, [r0, r3]
 8005c3a:	2a01      	cmp	r2, #1
 8005c3c:	d1b1      	bne.n	8005ba2 <HAL_TIM_OC_Start_IT+0x1a>
 8005c3e:	2202      	movs	r2, #2
 8005c40:	54c2      	strb	r2, [r0, r3]
 8005c42:	6803      	ldr	r3, [r0, #0]
 8005c44:	2010      	movs	r0, #16
 8005c46:	68da      	ldr	r2, [r3, #12]
 8005c48:	4302      	orrs	r2, r0
 8005c4a:	60da      	str	r2, [r3, #12]
 8005c4c:	e7b5      	b.n	8005bba <HAL_TIM_OC_Start_IT+0x32>
 8005c4e:	2342      	movs	r3, #66	@ 0x42
 8005c50:	5cc2      	ldrb	r2, [r0, r3]
 8005c52:	2a01      	cmp	r2, #1
 8005c54:	d0a3      	beq.n	8005b9e <HAL_TIM_OC_Start_IT+0x16>
 8005c56:	e7a4      	b.n	8005ba2 <HAL_TIM_OC_Start_IT+0x1a>
 8005c58:	2280      	movs	r2, #128	@ 0x80
 8005c5a:	6c59      	ldr	r1, [r3, #68]	@ 0x44
 8005c5c:	0212      	lsls	r2, r2, #8
 8005c5e:	430a      	orrs	r2, r1
 8005c60:	645a      	str	r2, [r3, #68]	@ 0x44
 8005c62:	e7ca      	b.n	8005bfa <HAL_TIM_OC_Start_IT+0x72>
 8005c64:	2280      	movs	r2, #128	@ 0x80
 8005c66:	6c59      	ldr	r1, [r3, #68]	@ 0x44
 8005c68:	0212      	lsls	r2, r2, #8
 8005c6a:	430a      	orrs	r2, r1
 8005c6c:	645a      	str	r2, [r3, #68]	@ 0x44
 8005c6e:	e7bc      	b.n	8005bea <HAL_TIM_OC_Start_IT+0x62>
 8005c70:	0800875c 	.word	0x0800875c
 8005c74:	40012c00 	.word	0x40012c00
 8005c78:	40014400 	.word	0x40014400
 8005c7c:	40014800 	.word	0x40014800
 8005c80:	40000400 	.word	0x40000400
 8005c84:	00010007 	.word	0x00010007

08005c88 <HAL_TIM_OC_Stop_IT>:
 8005c88:	b510      	push	{r4, lr}
 8005c8a:	2908      	cmp	r1, #8
 8005c8c:	d004      	beq.n	8005c98 <HAL_TIM_OC_Stop_IT+0x10>
 8005c8e:	d82a      	bhi.n	8005ce6 <HAL_TIM_OC_Stop_IT+0x5e>
 8005c90:	2900      	cmp	r1, #0
 8005c92:	d048      	beq.n	8005d26 <HAL_TIM_OC_Stop_IT+0x9e>
 8005c94:	2904      	cmp	r1, #4
 8005c96:	d12e      	bne.n	8005cf6 <HAL_TIM_OC_Stop_IT+0x6e>
 8005c98:	6803      	ldr	r3, [r0, #0]
 8005c9a:	68da      	ldr	r2, [r3, #12]
 8005c9c:	438a      	bics	r2, r1
 8005c9e:	60da      	str	r2, [r3, #12]
 8005ca0:	2401      	movs	r4, #1
 8005ca2:	408c      	lsls	r4, r1
 8005ca4:	6a1a      	ldr	r2, [r3, #32]
 8005ca6:	43a2      	bics	r2, r4
 8005ca8:	621a      	str	r2, [r3, #32]
 8005caa:	6a1a      	ldr	r2, [r3, #32]
 8005cac:	621a      	str	r2, [r3, #32]
 8005cae:	4a26      	ldr	r2, [pc, #152]	@ (8005d48 <HAL_TIM_OC_Stop_IT+0xc0>)
 8005cb0:	4293      	cmp	r3, r2
 8005cb2:	d022      	beq.n	8005cfa <HAL_TIM_OC_Stop_IT+0x72>
 8005cb4:	4a25      	ldr	r2, [pc, #148]	@ (8005d4c <HAL_TIM_OC_Stop_IT+0xc4>)
 8005cb6:	4293      	cmp	r3, r2
 8005cb8:	d01f      	beq.n	8005cfa <HAL_TIM_OC_Stop_IT+0x72>
 8005cba:	4a25      	ldr	r2, [pc, #148]	@ (8005d50 <HAL_TIM_OC_Stop_IT+0xc8>)
 8005cbc:	4293      	cmp	r3, r2
 8005cbe:	d01c      	beq.n	8005cfa <HAL_TIM_OC_Stop_IT+0x72>
 8005cc0:	6a1c      	ldr	r4, [r3, #32]
 8005cc2:	4a24      	ldr	r2, [pc, #144]	@ (8005d54 <HAL_TIM_OC_Stop_IT+0xcc>)
 8005cc4:	4214      	tst	r4, r2
 8005cc6:	d107      	bne.n	8005cd8 <HAL_TIM_OC_Stop_IT+0x50>
 8005cc8:	6a1c      	ldr	r4, [r3, #32]
 8005cca:	4a23      	ldr	r2, [pc, #140]	@ (8005d58 <HAL_TIM_OC_Stop_IT+0xd0>)
 8005ccc:	4214      	tst	r4, r2
 8005cce:	d103      	bne.n	8005cd8 <HAL_TIM_OC_Stop_IT+0x50>
 8005cd0:	2401      	movs	r4, #1
 8005cd2:	681a      	ldr	r2, [r3, #0]
 8005cd4:	43a2      	bics	r2, r4
 8005cd6:	601a      	str	r2, [r3, #0]
 8005cd8:	2900      	cmp	r1, #0
 8005cda:	d11b      	bne.n	8005d14 <HAL_TIM_OC_Stop_IT+0x8c>
 8005cdc:	233e      	movs	r3, #62	@ 0x3e
 8005cde:	2201      	movs	r2, #1
 8005ce0:	54c2      	strb	r2, [r0, r3]
 8005ce2:	2000      	movs	r0, #0
 8005ce4:	e008      	b.n	8005cf8 <HAL_TIM_OC_Stop_IT+0x70>
 8005ce6:	290c      	cmp	r1, #12
 8005ce8:	d105      	bne.n	8005cf6 <HAL_TIM_OC_Stop_IT+0x6e>
 8005cea:	2410      	movs	r4, #16
 8005cec:	6803      	ldr	r3, [r0, #0]
 8005cee:	68da      	ldr	r2, [r3, #12]
 8005cf0:	43a2      	bics	r2, r4
 8005cf2:	60da      	str	r2, [r3, #12]
 8005cf4:	e7d4      	b.n	8005ca0 <HAL_TIM_OC_Stop_IT+0x18>
 8005cf6:	2001      	movs	r0, #1
 8005cf8:	bd10      	pop	{r4, pc}
 8005cfa:	6a1c      	ldr	r4, [r3, #32]
 8005cfc:	4a15      	ldr	r2, [pc, #84]	@ (8005d54 <HAL_TIM_OC_Stop_IT+0xcc>)
 8005cfe:	4214      	tst	r4, r2
 8005d00:	d1de      	bne.n	8005cc0 <HAL_TIM_OC_Stop_IT+0x38>
 8005d02:	6a1c      	ldr	r4, [r3, #32]
 8005d04:	4a14      	ldr	r2, [pc, #80]	@ (8005d58 <HAL_TIM_OC_Stop_IT+0xd0>)
 8005d06:	4214      	tst	r4, r2
 8005d08:	d1da      	bne.n	8005cc0 <HAL_TIM_OC_Stop_IT+0x38>
 8005d0a:	6c5a      	ldr	r2, [r3, #68]	@ 0x44
 8005d0c:	4c13      	ldr	r4, [pc, #76]	@ (8005d5c <HAL_TIM_OC_Stop_IT+0xd4>)
 8005d0e:	4022      	ands	r2, r4
 8005d10:	645a      	str	r2, [r3, #68]	@ 0x44
 8005d12:	e7d5      	b.n	8005cc0 <HAL_TIM_OC_Stop_IT+0x38>
 8005d14:	2904      	cmp	r1, #4
 8005d16:	d011      	beq.n	8005d3c <HAL_TIM_OC_Stop_IT+0xb4>
 8005d18:	2908      	cmp	r1, #8
 8005d1a:	d00a      	beq.n	8005d32 <HAL_TIM_OC_Stop_IT+0xaa>
 8005d1c:	2341      	movs	r3, #65	@ 0x41
 8005d1e:	2201      	movs	r2, #1
 8005d20:	54c2      	strb	r2, [r0, r3]
 8005d22:	2000      	movs	r0, #0
 8005d24:	e7e8      	b.n	8005cf8 <HAL_TIM_OC_Stop_IT+0x70>
 8005d26:	2402      	movs	r4, #2
 8005d28:	6803      	ldr	r3, [r0, #0]
 8005d2a:	68da      	ldr	r2, [r3, #12]
 8005d2c:	43a2      	bics	r2, r4
 8005d2e:	60da      	str	r2, [r3, #12]
 8005d30:	e7b6      	b.n	8005ca0 <HAL_TIM_OC_Stop_IT+0x18>
 8005d32:	2340      	movs	r3, #64	@ 0x40
 8005d34:	2201      	movs	r2, #1
 8005d36:	54c2      	strb	r2, [r0, r3]
 8005d38:	2000      	movs	r0, #0
 8005d3a:	e7dd      	b.n	8005cf8 <HAL_TIM_OC_Stop_IT+0x70>
 8005d3c:	233f      	movs	r3, #63	@ 0x3f
 8005d3e:	2201      	movs	r2, #1
 8005d40:	54c2      	strb	r2, [r0, r3]
 8005d42:	2000      	movs	r0, #0
 8005d44:	e7d8      	b.n	8005cf8 <HAL_TIM_OC_Stop_IT+0x70>
 8005d46:	46c0      	nop			@ (mov r8, r8)
 8005d48:	40012c00 	.word	0x40012c00
 8005d4c:	40014400 	.word	0x40014400
 8005d50:	40014800 	.word	0x40014800
 8005d54:	00001111 	.word	0x00001111
 8005d58:	00000444 	.word	0x00000444
 8005d5c:	ffff7fff 	.word	0xffff7fff

08005d60 <HAL_TIM_PWM_Init>:
 8005d60:	b570      	push	{r4, r5, r6, lr}
 8005d62:	1e04      	subs	r4, r0, #0
 8005d64:	d100      	bne.n	8005d68 <HAL_TIM_PWM_Init+0x8>
 8005d66:	e096      	b.n	8005e96 <HAL_TIM_PWM_Init+0x136>
 8005d68:	233d      	movs	r3, #61	@ 0x3d
 8005d6a:	5cc3      	ldrb	r3, [r0, r3]
 8005d6c:	b2da      	uxtb	r2, r3
 8005d6e:	2b00      	cmp	r3, #0
 8005d70:	d130      	bne.n	8005dd4 <HAL_TIM_PWM_Init+0x74>
 8005d72:	333c      	adds	r3, #60	@ 0x3c
 8005d74:	54c2      	strb	r2, [r0, r3]
 8005d76:	2284      	movs	r2, #132	@ 0x84
 8005d78:	4b4f      	ldr	r3, [pc, #316]	@ (8005eb8 <HAL_TIM_PWM_Init+0x158>)
 8005d7a:	5083      	str	r3, [r0, r2]
 8005d7c:	4b4f      	ldr	r3, [pc, #316]	@ (8005ebc <HAL_TIM_PWM_Init+0x15c>)
 8005d7e:	3204      	adds	r2, #4
 8005d80:	5083      	str	r3, [r0, r2]
 8005d82:	4b4f      	ldr	r3, [pc, #316]	@ (8005ec0 <HAL_TIM_PWM_Init+0x160>)
 8005d84:	3204      	adds	r2, #4
 8005d86:	5083      	str	r3, [r0, r2]
 8005d88:	4b4e      	ldr	r3, [pc, #312]	@ (8005ec4 <HAL_TIM_PWM_Init+0x164>)
 8005d8a:	3204      	adds	r2, #4
 8005d8c:	5083      	str	r3, [r0, r2]
 8005d8e:	4b4e      	ldr	r3, [pc, #312]	@ (8005ec8 <HAL_TIM_PWM_Init+0x168>)
 8005d90:	3204      	adds	r2, #4
 8005d92:	5083      	str	r3, [r0, r2]
 8005d94:	4b4d      	ldr	r3, [pc, #308]	@ (8005ecc <HAL_TIM_PWM_Init+0x16c>)
 8005d96:	3204      	adds	r2, #4
 8005d98:	5083      	str	r3, [r0, r2]
 8005d9a:	4b4d      	ldr	r3, [pc, #308]	@ (8005ed0 <HAL_TIM_PWM_Init+0x170>)
 8005d9c:	3204      	adds	r2, #4
 8005d9e:	5083      	str	r3, [r0, r2]
 8005da0:	4b4c      	ldr	r3, [pc, #304]	@ (8005ed4 <HAL_TIM_PWM_Init+0x174>)
 8005da2:	3204      	adds	r2, #4
 8005da4:	5083      	str	r3, [r0, r2]
 8005da6:	4b4c      	ldr	r3, [pc, #304]	@ (8005ed8 <HAL_TIM_PWM_Init+0x178>)
 8005da8:	3204      	adds	r2, #4
 8005daa:	5083      	str	r3, [r0, r2]
 8005dac:	4b4b      	ldr	r3, [pc, #300]	@ (8005edc <HAL_TIM_PWM_Init+0x17c>)
 8005dae:	3204      	adds	r2, #4
 8005db0:	5083      	str	r3, [r0, r2]
 8005db2:	4b4b      	ldr	r3, [pc, #300]	@ (8005ee0 <HAL_TIM_PWM_Init+0x180>)
 8005db4:	3204      	adds	r2, #4
 8005db6:	5083      	str	r3, [r0, r2]
 8005db8:	4b4a      	ldr	r3, [pc, #296]	@ (8005ee4 <HAL_TIM_PWM_Init+0x184>)
 8005dba:	3204      	adds	r2, #4
 8005dbc:	5083      	str	r3, [r0, r2]
 8005dbe:	4b4a      	ldr	r3, [pc, #296]	@ (8005ee8 <HAL_TIM_PWM_Init+0x188>)
 8005dc0:	3204      	adds	r2, #4
 8005dc2:	5083      	str	r3, [r0, r2]
 8005dc4:	4b49      	ldr	r3, [pc, #292]	@ (8005eec <HAL_TIM_PWM_Init+0x18c>)
 8005dc6:	3204      	adds	r2, #4
 8005dc8:	5083      	str	r3, [r0, r2]
 8005dca:	6e43      	ldr	r3, [r0, #100]	@ 0x64
 8005dcc:	2b00      	cmp	r3, #0
 8005dce:	d064      	beq.n	8005e9a <HAL_TIM_PWM_Init+0x13a>
 8005dd0:	0020      	movs	r0, r4
 8005dd2:	4798      	blx	r3
 8005dd4:	233d      	movs	r3, #61	@ 0x3d
 8005dd6:	2202      	movs	r2, #2
 8005dd8:	54e2      	strb	r2, [r4, r3]
 8005dda:	6823      	ldr	r3, [r4, #0]
 8005ddc:	4e44      	ldr	r6, [pc, #272]	@ (8005ef0 <HAL_TIM_PWM_Init+0x190>)
 8005dde:	681a      	ldr	r2, [r3, #0]
 8005de0:	69a5      	ldr	r5, [r4, #24]
 8005de2:	68e0      	ldr	r0, [r4, #12]
 8005de4:	6861      	ldr	r1, [r4, #4]
 8005de6:	42b3      	cmp	r3, r6
 8005de8:	d016      	beq.n	8005e18 <HAL_TIM_PWM_Init+0xb8>
 8005dea:	2680      	movs	r6, #128	@ 0x80
 8005dec:	05f6      	lsls	r6, r6, #23
 8005dee:	42b3      	cmp	r3, r6
 8005df0:	d012      	beq.n	8005e18 <HAL_TIM_PWM_Init+0xb8>
 8005df2:	4e40      	ldr	r6, [pc, #256]	@ (8005ef4 <HAL_TIM_PWM_Init+0x194>)
 8005df4:	42b3      	cmp	r3, r6
 8005df6:	d045      	beq.n	8005e84 <HAL_TIM_PWM_Init+0x124>
 8005df8:	4e3f      	ldr	r6, [pc, #252]	@ (8005ef8 <HAL_TIM_PWM_Init+0x198>)
 8005dfa:	42b3      	cmp	r3, r6
 8005dfc:	d046      	beq.n	8005e8c <HAL_TIM_PWM_Init+0x12c>
 8005dfe:	4e3f      	ldr	r6, [pc, #252]	@ (8005efc <HAL_TIM_PWM_Init+0x19c>)
 8005e00:	42b3      	cmp	r3, r6
 8005e02:	d04d      	beq.n	8005ea0 <HAL_TIM_PWM_Init+0x140>
 8005e04:	4e3e      	ldr	r6, [pc, #248]	@ (8005f00 <HAL_TIM_PWM_Init+0x1a0>)
 8005e06:	42b3      	cmp	r3, r6
 8005e08:	d04a      	beq.n	8005ea0 <HAL_TIM_PWM_Init+0x140>
 8005e0a:	2680      	movs	r6, #128	@ 0x80
 8005e0c:	43b2      	bics	r2, r6
 8005e0e:	432a      	orrs	r2, r5
 8005e10:	601a      	str	r2, [r3, #0]
 8005e12:	62d8      	str	r0, [r3, #44]	@ 0x2c
 8005e14:	6299      	str	r1, [r3, #40]	@ 0x28
 8005e16:	e012      	b.n	8005e3e <HAL_TIM_PWM_Init+0xde>
 8005e18:	2670      	movs	r6, #112	@ 0x70
 8005e1a:	43b2      	bics	r2, r6
 8005e1c:	68a6      	ldr	r6, [r4, #8]
 8005e1e:	4332      	orrs	r2, r6
 8005e20:	4e38      	ldr	r6, [pc, #224]	@ (8005f04 <HAL_TIM_PWM_Init+0x1a4>)
 8005e22:	4032      	ands	r2, r6
 8005e24:	6926      	ldr	r6, [r4, #16]
 8005e26:	4332      	orrs	r2, r6
 8005e28:	2680      	movs	r6, #128	@ 0x80
 8005e2a:	43b2      	bics	r2, r6
 8005e2c:	432a      	orrs	r2, r5
 8005e2e:	601a      	str	r2, [r3, #0]
 8005e30:	4a2f      	ldr	r2, [pc, #188]	@ (8005ef0 <HAL_TIM_PWM_Init+0x190>)
 8005e32:	62d8      	str	r0, [r3, #44]	@ 0x2c
 8005e34:	6299      	str	r1, [r3, #40]	@ 0x28
 8005e36:	4293      	cmp	r3, r2
 8005e38:	d101      	bne.n	8005e3e <HAL_TIM_PWM_Init+0xde>
 8005e3a:	6962      	ldr	r2, [r4, #20]
 8005e3c:	631a      	str	r2, [r3, #48]	@ 0x30
 8005e3e:	2201      	movs	r2, #1
 8005e40:	615a      	str	r2, [r3, #20]
 8005e42:	6919      	ldr	r1, [r3, #16]
 8005e44:	420a      	tst	r2, r1
 8005e46:	d002      	beq.n	8005e4e <HAL_TIM_PWM_Init+0xee>
 8005e48:	6919      	ldr	r1, [r3, #16]
 8005e4a:	4391      	bics	r1, r2
 8005e4c:	6119      	str	r1, [r3, #16]
 8005e4e:	2301      	movs	r3, #1
 8005e50:	2248      	movs	r2, #72	@ 0x48
 8005e52:	2000      	movs	r0, #0
 8005e54:	54a3      	strb	r3, [r4, r2]
 8005e56:	3a0a      	subs	r2, #10
 8005e58:	54a3      	strb	r3, [r4, r2]
 8005e5a:	3201      	adds	r2, #1
 8005e5c:	54a3      	strb	r3, [r4, r2]
 8005e5e:	3201      	adds	r2, #1
 8005e60:	54a3      	strb	r3, [r4, r2]
 8005e62:	3201      	adds	r2, #1
 8005e64:	54a3      	strb	r3, [r4, r2]
 8005e66:	3201      	adds	r2, #1
 8005e68:	54a3      	strb	r3, [r4, r2]
 8005e6a:	3201      	adds	r2, #1
 8005e6c:	54a3      	strb	r3, [r4, r2]
 8005e6e:	3201      	adds	r2, #1
 8005e70:	54a3      	strb	r3, [r4, r2]
 8005e72:	3201      	adds	r2, #1
 8005e74:	54a3      	strb	r3, [r4, r2]
 8005e76:	3201      	adds	r2, #1
 8005e78:	54a3      	strb	r3, [r4, r2]
 8005e7a:	3201      	adds	r2, #1
 8005e7c:	54a3      	strb	r3, [r4, r2]
 8005e7e:	3a0a      	subs	r2, #10
 8005e80:	54a3      	strb	r3, [r4, r2]
 8005e82:	bd70      	pop	{r4, r5, r6, pc}
 8005e84:	2670      	movs	r6, #112	@ 0x70
 8005e86:	43b2      	bics	r2, r6
 8005e88:	68a6      	ldr	r6, [r4, #8]
 8005e8a:	4332      	orrs	r2, r6
 8005e8c:	4e1d      	ldr	r6, [pc, #116]	@ (8005f04 <HAL_TIM_PWM_Init+0x1a4>)
 8005e8e:	4032      	ands	r2, r6
 8005e90:	6926      	ldr	r6, [r4, #16]
 8005e92:	4332      	orrs	r2, r6
 8005e94:	e7b9      	b.n	8005e0a <HAL_TIM_PWM_Init+0xaa>
 8005e96:	2001      	movs	r0, #1
 8005e98:	e7f3      	b.n	8005e82 <HAL_TIM_PWM_Init+0x122>
 8005e9a:	4b1b      	ldr	r3, [pc, #108]	@ (8005f08 <HAL_TIM_PWM_Init+0x1a8>)
 8005e9c:	6643      	str	r3, [r0, #100]	@ 0x64
 8005e9e:	e797      	b.n	8005dd0 <HAL_TIM_PWM_Init+0x70>
 8005ea0:	4e18      	ldr	r6, [pc, #96]	@ (8005f04 <HAL_TIM_PWM_Init+0x1a4>)
 8005ea2:	4032      	ands	r2, r6
 8005ea4:	6926      	ldr	r6, [r4, #16]
 8005ea6:	4332      	orrs	r2, r6
 8005ea8:	2680      	movs	r6, #128	@ 0x80
 8005eaa:	43b2      	bics	r2, r6
 8005eac:	432a      	orrs	r2, r5
 8005eae:	601a      	str	r2, [r3, #0]
 8005eb0:	62d8      	str	r0, [r3, #44]	@ 0x2c
 8005eb2:	6299      	str	r1, [r3, #40]	@ 0x28
 8005eb4:	e7c1      	b.n	8005e3a <HAL_TIM_PWM_Init+0xda>
 8005eb6:	46c0      	nop			@ (mov r8, r8)
 8005eb8:	08005749 	.word	0x08005749
 8005ebc:	0800574d 	.word	0x0800574d
 8005ec0:	08005765 	.word	0x08005765
 8005ec4:	08005769 	.word	0x08005769
 8005ec8:	08005755 	.word	0x08005755
 8005ecc:	08005759 	.word	0x08005759
 8005ed0:	08005751 	.word	0x08005751
 8005ed4:	0800575d 	.word	0x0800575d
 8005ed8:	08005761 	.word	0x08005761
 8005edc:	0800576d 	.word	0x0800576d
 8005ee0:	08006fdd 	.word	0x08006fdd
 8005ee4:	08006fe1 	.word	0x08006fe1
 8005ee8:	08006fe5 	.word	0x08006fe5
 8005eec:	08006fe9 	.word	0x08006fe9
 8005ef0:	40012c00 	.word	0x40012c00
 8005ef4:	40000400 	.word	0x40000400
 8005ef8:	40002000 	.word	0x40002000
 8005efc:	40014400 	.word	0x40014400
 8005f00:	40014800 	.word	0x40014800
 8005f04:	fffffcff 	.word	0xfffffcff
 8005f08:	08005741 	.word	0x08005741

08005f0c <HAL_TIM_PWM_Start>:
 8005f0c:	2910      	cmp	r1, #16
 8005f0e:	d803      	bhi.n	8005f18 <HAL_TIM_PWM_Start+0xc>
 8005f10:	4a2c      	ldr	r2, [pc, #176]	@ (8005fc4 <HAL_TIM_PWM_Start+0xb8>)
 8005f12:	008b      	lsls	r3, r1, #2
 8005f14:	58d3      	ldr	r3, [r2, r3]
 8005f16:	469f      	mov	pc, r3
 8005f18:	2343      	movs	r3, #67	@ 0x43
 8005f1a:	5cc2      	ldrb	r2, [r0, r3]
 8005f1c:	2a01      	cmp	r2, #1
 8005f1e:	d12e      	bne.n	8005f7e <HAL_TIM_PWM_Start+0x72>
 8005f20:	2202      	movs	r2, #2
 8005f22:	54c2      	strb	r2, [r0, r3]
 8005f24:	221f      	movs	r2, #31
 8005f26:	4011      	ands	r1, r2
 8005f28:	3a1e      	subs	r2, #30
 8005f2a:	408a      	lsls	r2, r1
 8005f2c:	6803      	ldr	r3, [r0, #0]
 8005f2e:	6a19      	ldr	r1, [r3, #32]
 8005f30:	4391      	bics	r1, r2
 8005f32:	6219      	str	r1, [r3, #32]
 8005f34:	6a19      	ldr	r1, [r3, #32]
 8005f36:	430a      	orrs	r2, r1
 8005f38:	621a      	str	r2, [r3, #32]
 8005f3a:	4a23      	ldr	r2, [pc, #140]	@ (8005fc8 <HAL_TIM_PWM_Start+0xbc>)
 8005f3c:	4293      	cmp	r3, r2
 8005f3e:	d03a      	beq.n	8005fb6 <HAL_TIM_PWM_Start+0xaa>
 8005f40:	4a22      	ldr	r2, [pc, #136]	@ (8005fcc <HAL_TIM_PWM_Start+0xc0>)
 8005f42:	4293      	cmp	r3, r2
 8005f44:	d031      	beq.n	8005faa <HAL_TIM_PWM_Start+0x9e>
 8005f46:	4a22      	ldr	r2, [pc, #136]	@ (8005fd0 <HAL_TIM_PWM_Start+0xc4>)
 8005f48:	4293      	cmp	r3, r2
 8005f4a:	d02e      	beq.n	8005faa <HAL_TIM_PWM_Start+0x9e>
 8005f4c:	2280      	movs	r2, #128	@ 0x80
 8005f4e:	05d2      	lsls	r2, r2, #23
 8005f50:	4293      	cmp	r3, r2
 8005f52:	d002      	beq.n	8005f5a <HAL_TIM_PWM_Start+0x4e>
 8005f54:	4a1f      	ldr	r2, [pc, #124]	@ (8005fd4 <HAL_TIM_PWM_Start+0xc8>)
 8005f56:	4293      	cmp	r3, r2
 8005f58:	d107      	bne.n	8005f6a <HAL_TIM_PWM_Start+0x5e>
 8005f5a:	689a      	ldr	r2, [r3, #8]
 8005f5c:	491e      	ldr	r1, [pc, #120]	@ (8005fd8 <HAL_TIM_PWM_Start+0xcc>)
 8005f5e:	400a      	ands	r2, r1
 8005f60:	2a06      	cmp	r2, #6
 8005f62:	d006      	beq.n	8005f72 <HAL_TIM_PWM_Start+0x66>
 8005f64:	3907      	subs	r1, #7
 8005f66:	428a      	cmp	r2, r1
 8005f68:	d003      	beq.n	8005f72 <HAL_TIM_PWM_Start+0x66>
 8005f6a:	2101      	movs	r1, #1
 8005f6c:	681a      	ldr	r2, [r3, #0]
 8005f6e:	430a      	orrs	r2, r1
 8005f70:	601a      	str	r2, [r3, #0]
 8005f72:	2000      	movs	r0, #0
 8005f74:	4770      	bx	lr
 8005f76:	233e      	movs	r3, #62	@ 0x3e
 8005f78:	5cc2      	ldrb	r2, [r0, r3]
 8005f7a:	2a01      	cmp	r2, #1
 8005f7c:	d0d0      	beq.n	8005f20 <HAL_TIM_PWM_Start+0x14>
 8005f7e:	2001      	movs	r0, #1
 8005f80:	e7f8      	b.n	8005f74 <HAL_TIM_PWM_Start+0x68>
 8005f82:	233f      	movs	r3, #63	@ 0x3f
 8005f84:	5cc2      	ldrb	r2, [r0, r3]
 8005f86:	2a01      	cmp	r2, #1
 8005f88:	d0ca      	beq.n	8005f20 <HAL_TIM_PWM_Start+0x14>
 8005f8a:	e7f8      	b.n	8005f7e <HAL_TIM_PWM_Start+0x72>
 8005f8c:	2340      	movs	r3, #64	@ 0x40
 8005f8e:	5cc2      	ldrb	r2, [r0, r3]
 8005f90:	2a01      	cmp	r2, #1
 8005f92:	d0c5      	beq.n	8005f20 <HAL_TIM_PWM_Start+0x14>
 8005f94:	e7f3      	b.n	8005f7e <HAL_TIM_PWM_Start+0x72>
 8005f96:	2341      	movs	r3, #65	@ 0x41
 8005f98:	5cc2      	ldrb	r2, [r0, r3]
 8005f9a:	2a01      	cmp	r2, #1
 8005f9c:	d0c0      	beq.n	8005f20 <HAL_TIM_PWM_Start+0x14>
 8005f9e:	e7ee      	b.n	8005f7e <HAL_TIM_PWM_Start+0x72>
 8005fa0:	2342      	movs	r3, #66	@ 0x42
 8005fa2:	5cc2      	ldrb	r2, [r0, r3]
 8005fa4:	2a01      	cmp	r2, #1
 8005fa6:	d0bb      	beq.n	8005f20 <HAL_TIM_PWM_Start+0x14>
 8005fa8:	e7e9      	b.n	8005f7e <HAL_TIM_PWM_Start+0x72>
 8005faa:	2280      	movs	r2, #128	@ 0x80
 8005fac:	6c59      	ldr	r1, [r3, #68]	@ 0x44
 8005fae:	0212      	lsls	r2, r2, #8
 8005fb0:	430a      	orrs	r2, r1
 8005fb2:	645a      	str	r2, [r3, #68]	@ 0x44
 8005fb4:	e7d9      	b.n	8005f6a <HAL_TIM_PWM_Start+0x5e>
 8005fb6:	2280      	movs	r2, #128	@ 0x80
 8005fb8:	6c59      	ldr	r1, [r3, #68]	@ 0x44
 8005fba:	0212      	lsls	r2, r2, #8
 8005fbc:	430a      	orrs	r2, r1
 8005fbe:	645a      	str	r2, [r3, #68]	@ 0x44
 8005fc0:	e7cb      	b.n	8005f5a <HAL_TIM_PWM_Start+0x4e>
 8005fc2:	46c0      	nop			@ (mov r8, r8)
 8005fc4:	080087a0 	.word	0x080087a0
 8005fc8:	40012c00 	.word	0x40012c00
 8005fcc:	40014400 	.word	0x40014400
 8005fd0:	40014800 	.word	0x40014800
 8005fd4:	40000400 	.word	0x40000400
 8005fd8:	00010007 	.word	0x00010007

08005fdc <HAL_TIM_IC_Init>:
 8005fdc:	b570      	push	{r4, r5, r6, lr}
 8005fde:	1e04      	subs	r4, r0, #0
 8005fe0:	d100      	bne.n	8005fe4 <HAL_TIM_IC_Init+0x8>
 8005fe2:	e096      	b.n	8006112 <HAL_TIM_IC_Init+0x136>
 8005fe4:	233d      	movs	r3, #61	@ 0x3d
 8005fe6:	5cc3      	ldrb	r3, [r0, r3]
 8005fe8:	b2da      	uxtb	r2, r3
 8005fea:	2b00      	cmp	r3, #0
 8005fec:	d130      	bne.n	8006050 <HAL_TIM_IC_Init+0x74>
 8005fee:	333c      	adds	r3, #60	@ 0x3c
 8005ff0:	54c2      	strb	r2, [r0, r3]
 8005ff2:	2284      	movs	r2, #132	@ 0x84
 8005ff4:	4b4f      	ldr	r3, [pc, #316]	@ (8006134 <HAL_TIM_IC_Init+0x158>)
 8005ff6:	5083      	str	r3, [r0, r2]
 8005ff8:	4b4f      	ldr	r3, [pc, #316]	@ (8006138 <HAL_TIM_IC_Init+0x15c>)
 8005ffa:	3204      	adds	r2, #4
 8005ffc:	5083      	str	r3, [r0, r2]
 8005ffe:	4b4f      	ldr	r3, [pc, #316]	@ (800613c <HAL_TIM_IC_Init+0x160>)
 8006000:	3204      	adds	r2, #4
 8006002:	5083      	str	r3, [r0, r2]
 8006004:	4b4e      	ldr	r3, [pc, #312]	@ (8006140 <HAL_TIM_IC_Init+0x164>)
 8006006:	3204      	adds	r2, #4
 8006008:	5083      	str	r3, [r0, r2]
 800600a:	4b4e      	ldr	r3, [pc, #312]	@ (8006144 <HAL_TIM_IC_Init+0x168>)
 800600c:	3204      	adds	r2, #4
 800600e:	5083      	str	r3, [r0, r2]
 8006010:	4b4d      	ldr	r3, [pc, #308]	@ (8006148 <HAL_TIM_IC_Init+0x16c>)
 8006012:	3204      	adds	r2, #4
 8006014:	5083      	str	r3, [r0, r2]
 8006016:	4b4d      	ldr	r3, [pc, #308]	@ (800614c <HAL_TIM_IC_Init+0x170>)
 8006018:	3204      	adds	r2, #4
 800601a:	5083      	str	r3, [r0, r2]
 800601c:	4b4c      	ldr	r3, [pc, #304]	@ (8006150 <HAL_TIM_IC_Init+0x174>)
 800601e:	3204      	adds	r2, #4
 8006020:	5083      	str	r3, [r0, r2]
 8006022:	4b4c      	ldr	r3, [pc, #304]	@ (8006154 <HAL_TIM_IC_Init+0x178>)
 8006024:	3204      	adds	r2, #4
 8006026:	5083      	str	r3, [r0, r2]
 8006028:	4b4b      	ldr	r3, [pc, #300]	@ (8006158 <HAL_TIM_IC_Init+0x17c>)
 800602a:	3204      	adds	r2, #4
 800602c:	5083      	str	r3, [r0, r2]
 800602e:	4b4b      	ldr	r3, [pc, #300]	@ (800615c <HAL_TIM_IC_Init+0x180>)
 8006030:	3204      	adds	r2, #4
 8006032:	5083      	str	r3, [r0, r2]
 8006034:	4b4a      	ldr	r3, [pc, #296]	@ (8006160 <HAL_TIM_IC_Init+0x184>)
 8006036:	3204      	adds	r2, #4
 8006038:	5083      	str	r3, [r0, r2]
 800603a:	4b4a      	ldr	r3, [pc, #296]	@ (8006164 <HAL_TIM_IC_Init+0x188>)
 800603c:	3204      	adds	r2, #4
 800603e:	5083      	str	r3, [r0, r2]
 8006040:	4b49      	ldr	r3, [pc, #292]	@ (8006168 <HAL_TIM_IC_Init+0x18c>)
 8006042:	3204      	adds	r2, #4
 8006044:	5083      	str	r3, [r0, r2]
 8006046:	6d43      	ldr	r3, [r0, #84]	@ 0x54
 8006048:	2b00      	cmp	r3, #0
 800604a:	d064      	beq.n	8006116 <HAL_TIM_IC_Init+0x13a>
 800604c:	0020      	movs	r0, r4
 800604e:	4798      	blx	r3
 8006050:	233d      	movs	r3, #61	@ 0x3d
 8006052:	2202      	movs	r2, #2
 8006054:	54e2      	strb	r2, [r4, r3]
 8006056:	6823      	ldr	r3, [r4, #0]
 8006058:	4e44      	ldr	r6, [pc, #272]	@ (800616c <HAL_TIM_IC_Init+0x190>)
 800605a:	681a      	ldr	r2, [r3, #0]
 800605c:	69a5      	ldr	r5, [r4, #24]
 800605e:	68e0      	ldr	r0, [r4, #12]
 8006060:	6861      	ldr	r1, [r4, #4]
 8006062:	42b3      	cmp	r3, r6
 8006064:	d016      	beq.n	8006094 <HAL_TIM_IC_Init+0xb8>
 8006066:	2680      	movs	r6, #128	@ 0x80
 8006068:	05f6      	lsls	r6, r6, #23
 800606a:	42b3      	cmp	r3, r6
 800606c:	d012      	beq.n	8006094 <HAL_TIM_IC_Init+0xb8>
 800606e:	4e40      	ldr	r6, [pc, #256]	@ (8006170 <HAL_TIM_IC_Init+0x194>)
 8006070:	42b3      	cmp	r3, r6
 8006072:	d045      	beq.n	8006100 <HAL_TIM_IC_Init+0x124>
 8006074:	4e3f      	ldr	r6, [pc, #252]	@ (8006174 <HAL_TIM_IC_Init+0x198>)
 8006076:	42b3      	cmp	r3, r6
 8006078:	d046      	beq.n	8006108 <HAL_TIM_IC_Init+0x12c>
 800607a:	4e3f      	ldr	r6, [pc, #252]	@ (8006178 <HAL_TIM_IC_Init+0x19c>)
 800607c:	42b3      	cmp	r3, r6
 800607e:	d04d      	beq.n	800611c <HAL_TIM_IC_Init+0x140>
 8006080:	4e3e      	ldr	r6, [pc, #248]	@ (800617c <HAL_TIM_IC_Init+0x1a0>)
 8006082:	42b3      	cmp	r3, r6
 8006084:	d04a      	beq.n	800611c <HAL_TIM_IC_Init+0x140>
 8006086:	2680      	movs	r6, #128	@ 0x80
 8006088:	43b2      	bics	r2, r6
 800608a:	432a      	orrs	r2, r5
 800608c:	601a      	str	r2, [r3, #0]
 800608e:	62d8      	str	r0, [r3, #44]	@ 0x2c
 8006090:	6299      	str	r1, [r3, #40]	@ 0x28
 8006092:	e012      	b.n	80060ba <HAL_TIM_IC_Init+0xde>
 8006094:	2670      	movs	r6, #112	@ 0x70
 8006096:	43b2      	bics	r2, r6
 8006098:	68a6      	ldr	r6, [r4, #8]
 800609a:	4332      	orrs	r2, r6
 800609c:	4e38      	ldr	r6, [pc, #224]	@ (8006180 <HAL_TIM_IC_Init+0x1a4>)
 800609e:	4032      	ands	r2, r6
 80060a0:	6926      	ldr	r6, [r4, #16]
 80060a2:	4332      	orrs	r2, r6
 80060a4:	2680      	movs	r6, #128	@ 0x80
 80060a6:	43b2      	bics	r2, r6
 80060a8:	432a      	orrs	r2, r5
 80060aa:	601a      	str	r2, [r3, #0]
 80060ac:	4a2f      	ldr	r2, [pc, #188]	@ (800616c <HAL_TIM_IC_Init+0x190>)
 80060ae:	62d8      	str	r0, [r3, #44]	@ 0x2c
 80060b0:	6299      	str	r1, [r3, #40]	@ 0x28
 80060b2:	4293      	cmp	r3, r2
 80060b4:	d101      	bne.n	80060ba <HAL_TIM_IC_Init+0xde>
 80060b6:	6962      	ldr	r2, [r4, #20]
 80060b8:	631a      	str	r2, [r3, #48]	@ 0x30
 80060ba:	2201      	movs	r2, #1
 80060bc:	615a      	str	r2, [r3, #20]
 80060be:	6919      	ldr	r1, [r3, #16]
 80060c0:	420a      	tst	r2, r1
 80060c2:	d002      	beq.n	80060ca <HAL_TIM_IC_Init+0xee>
 80060c4:	6919      	ldr	r1, [r3, #16]
 80060c6:	4391      	bics	r1, r2
 80060c8:	6119      	str	r1, [r3, #16]
 80060ca:	2301      	movs	r3, #1
 80060cc:	2248      	movs	r2, #72	@ 0x48
 80060ce:	2000      	movs	r0, #0
 80060d0:	54a3      	strb	r3, [r4, r2]
 80060d2:	3a0a      	subs	r2, #10
 80060d4:	54a3      	strb	r3, [r4, r2]
 80060d6:	3201      	adds	r2, #1
 80060d8:	54a3      	strb	r3, [r4, r2]
 80060da:	3201      	adds	r2, #1
 80060dc:	54a3      	strb	r3, [r4, r2]
 80060de:	3201      	adds	r2, #1
 80060e0:	54a3      	strb	r3, [r4, r2]
 80060e2:	3201      	adds	r2, #1
 80060e4:	54a3      	strb	r3, [r4, r2]
 80060e6:	3201      	adds	r2, #1
 80060e8:	54a3      	strb	r3, [r4, r2]
 80060ea:	3201      	adds	r2, #1
 80060ec:	54a3      	strb	r3, [r4, r2]
 80060ee:	3201      	adds	r2, #1
 80060f0:	54a3      	strb	r3, [r4, r2]
 80060f2:	3201      	adds	r2, #1
 80060f4:	54a3      	strb	r3, [r4, r2]
 80060f6:	3201      	adds	r2, #1
 80060f8:	54a3      	strb	r3, [r4, r2]
 80060fa:	3a0a      	subs	r2, #10
 80060fc:	54a3      	strb	r3, [r4, r2]
 80060fe:	bd70      	pop	{r4, r5, r6, pc}
 8006100:	2670      	movs	r6, #112	@ 0x70
 8006102:	43b2      	bics	r2, r6
 8006104:	68a6      	ldr	r6, [r4, #8]
 8006106:	4332      	orrs	r2, r6
 8006108:	4e1d      	ldr	r6, [pc, #116]	@ (8006180 <HAL_TIM_IC_Init+0x1a4>)
 800610a:	4032      	ands	r2, r6
 800610c:	6926      	ldr	r6, [r4, #16]
 800610e:	4332      	orrs	r2, r6
 8006110:	e7b9      	b.n	8006086 <HAL_TIM_IC_Init+0xaa>
 8006112:	2001      	movs	r0, #1
 8006114:	e7f3      	b.n	80060fe <HAL_TIM_IC_Init+0x122>
 8006116:	4b1b      	ldr	r3, [pc, #108]	@ (8006184 <HAL_TIM_IC_Init+0x1a8>)
 8006118:	6543      	str	r3, [r0, #84]	@ 0x54
 800611a:	e797      	b.n	800604c <HAL_TIM_IC_Init+0x70>
 800611c:	4e18      	ldr	r6, [pc, #96]	@ (8006180 <HAL_TIM_IC_Init+0x1a4>)
 800611e:	4032      	ands	r2, r6
 8006120:	6926      	ldr	r6, [r4, #16]
 8006122:	4332      	orrs	r2, r6
 8006124:	2680      	movs	r6, #128	@ 0x80
 8006126:	43b2      	bics	r2, r6
 8006128:	432a      	orrs	r2, r5
 800612a:	601a      	str	r2, [r3, #0]
 800612c:	62d8      	str	r0, [r3, #44]	@ 0x2c
 800612e:	6299      	str	r1, [r3, #40]	@ 0x28
 8006130:	e7c1      	b.n	80060b6 <HAL_TIM_IC_Init+0xda>
 8006132:	46c0      	nop			@ (mov r8, r8)
 8006134:	08005749 	.word	0x08005749
 8006138:	0800574d 	.word	0x0800574d
 800613c:	08005765 	.word	0x08005765
 8006140:	08005769 	.word	0x08005769
 8006144:	08005755 	.word	0x08005755
 8006148:	08005759 	.word	0x08005759
 800614c:	08005751 	.word	0x08005751
 8006150:	0800575d 	.word	0x0800575d
 8006154:	08005761 	.word	0x08005761
 8006158:	0800576d 	.word	0x0800576d
 800615c:	08006fdd 	.word	0x08006fdd
 8006160:	08006fe1 	.word	0x08006fe1
 8006164:	08006fe5 	.word	0x08006fe5
 8006168:	08006fe9 	.word	0x08006fe9
 800616c:	40012c00 	.word	0x40012c00
 8006170:	40000400 	.word	0x40000400
 8006174:	40002000 	.word	0x40002000
 8006178:	40014400 	.word	0x40014400
 800617c:	40014800 	.word	0x40014800
 8006180:	fffffcff 	.word	0xfffffcff
 8006184:	08005745 	.word	0x08005745

08006188 <HAL_TIM_IC_Start_IT>:
 8006188:	b530      	push	{r4, r5, lr}
 800618a:	2910      	cmp	r1, #16
 800618c:	d803      	bhi.n	8006196 <HAL_TIM_IC_Start_IT+0xe>
 800618e:	4a45      	ldr	r2, [pc, #276]	@ (80062a4 <HAL_TIM_IC_Start_IT+0x11c>)
 8006190:	008b      	lsls	r3, r1, #2
 8006192:	58d3      	ldr	r3, [r2, r3]
 8006194:	469f      	mov	pc, r3
 8006196:	2443      	movs	r4, #67	@ 0x43
 8006198:	2247      	movs	r2, #71	@ 0x47
 800619a:	5d05      	ldrb	r5, [r0, r4]
 800619c:	5c83      	ldrb	r3, [r0, r2]
 800619e:	b2db      	uxtb	r3, r3
 80061a0:	2d01      	cmp	r5, #1
 80061a2:	d104      	bne.n	80061ae <HAL_TIM_IC_Start_IT+0x26>
 80061a4:	2b01      	cmp	r3, #1
 80061a6:	d102      	bne.n	80061ae <HAL_TIM_IC_Start_IT+0x26>
 80061a8:	2302      	movs	r3, #2
 80061aa:	5503      	strb	r3, [r0, r4]
 80061ac:	5483      	strb	r3, [r0, r2]
 80061ae:	2001      	movs	r0, #1
 80061b0:	e027      	b.n	8006202 <HAL_TIM_IC_Start_IT+0x7a>
 80061b2:	243f      	movs	r4, #63	@ 0x3f
 80061b4:	2245      	movs	r2, #69	@ 0x45
 80061b6:	5d05      	ldrb	r5, [r0, r4]
 80061b8:	5c83      	ldrb	r3, [r0, r2]
 80061ba:	b2db      	uxtb	r3, r3
 80061bc:	2d01      	cmp	r5, #1
 80061be:	d1f6      	bne.n	80061ae <HAL_TIM_IC_Start_IT+0x26>
 80061c0:	2b01      	cmp	r3, #1
 80061c2:	d1f4      	bne.n	80061ae <HAL_TIM_IC_Start_IT+0x26>
 80061c4:	2302      	movs	r3, #2
 80061c6:	5503      	strb	r3, [r0, r4]
 80061c8:	5483      	strb	r3, [r0, r2]
 80061ca:	6803      	ldr	r3, [r0, #0]
 80061cc:	2004      	movs	r0, #4
 80061ce:	68da      	ldr	r2, [r3, #12]
 80061d0:	4302      	orrs	r2, r0
 80061d2:	60da      	str	r2, [r3, #12]
 80061d4:	2001      	movs	r0, #1
 80061d6:	0002      	movs	r2, r0
 80061d8:	408a      	lsls	r2, r1
 80061da:	6a19      	ldr	r1, [r3, #32]
 80061dc:	4391      	bics	r1, r2
 80061de:	6219      	str	r1, [r3, #32]
 80061e0:	6a19      	ldr	r1, [r3, #32]
 80061e2:	430a      	orrs	r2, r1
 80061e4:	621a      	str	r2, [r3, #32]
 80061e6:	4a30      	ldr	r2, [pc, #192]	@ (80062a8 <HAL_TIM_IC_Start_IT+0x120>)
 80061e8:	4293      	cmp	r3, r2
 80061ea:	d04e      	beq.n	800628a <HAL_TIM_IC_Start_IT+0x102>
 80061ec:	2280      	movs	r2, #128	@ 0x80
 80061ee:	05d2      	lsls	r2, r2, #23
 80061f0:	4293      	cmp	r3, r2
 80061f2:	d04a      	beq.n	800628a <HAL_TIM_IC_Start_IT+0x102>
 80061f4:	4a2d      	ldr	r2, [pc, #180]	@ (80062ac <HAL_TIM_IC_Start_IT+0x124>)
 80061f6:	4293      	cmp	r3, r2
 80061f8:	d047      	beq.n	800628a <HAL_TIM_IC_Start_IT+0x102>
 80061fa:	681a      	ldr	r2, [r3, #0]
 80061fc:	4302      	orrs	r2, r0
 80061fe:	601a      	str	r2, [r3, #0]
 8006200:	2000      	movs	r0, #0
 8006202:	bd30      	pop	{r4, r5, pc}
 8006204:	2440      	movs	r4, #64	@ 0x40
 8006206:	2246      	movs	r2, #70	@ 0x46
 8006208:	5d05      	ldrb	r5, [r0, r4]
 800620a:	5c83      	ldrb	r3, [r0, r2]
 800620c:	b2db      	uxtb	r3, r3
 800620e:	2d01      	cmp	r5, #1
 8006210:	d1cd      	bne.n	80061ae <HAL_TIM_IC_Start_IT+0x26>
 8006212:	2b01      	cmp	r3, #1
 8006214:	d1cb      	bne.n	80061ae <HAL_TIM_IC_Start_IT+0x26>
 8006216:	3301      	adds	r3, #1
 8006218:	5503      	strb	r3, [r0, r4]
 800621a:	5483      	strb	r3, [r0, r2]
 800621c:	6803      	ldr	r3, [r0, #0]
 800621e:	2008      	movs	r0, #8
 8006220:	68da      	ldr	r2, [r3, #12]
 8006222:	4302      	orrs	r2, r0
 8006224:	60da      	str	r2, [r3, #12]
 8006226:	e7d5      	b.n	80061d4 <HAL_TIM_IC_Start_IT+0x4c>
 8006228:	2441      	movs	r4, #65	@ 0x41
 800622a:	2247      	movs	r2, #71	@ 0x47
 800622c:	5d05      	ldrb	r5, [r0, r4]
 800622e:	5c83      	ldrb	r3, [r0, r2]
 8006230:	b2db      	uxtb	r3, r3
 8006232:	2d01      	cmp	r5, #1
 8006234:	d1bb      	bne.n	80061ae <HAL_TIM_IC_Start_IT+0x26>
 8006236:	2b01      	cmp	r3, #1
 8006238:	d1b9      	bne.n	80061ae <HAL_TIM_IC_Start_IT+0x26>
 800623a:	2302      	movs	r3, #2
 800623c:	5503      	strb	r3, [r0, r4]
 800623e:	5483      	strb	r3, [r0, r2]
 8006240:	6803      	ldr	r3, [r0, #0]
 8006242:	2010      	movs	r0, #16
 8006244:	68da      	ldr	r2, [r3, #12]
 8006246:	4302      	orrs	r2, r0
 8006248:	60da      	str	r2, [r3, #12]
 800624a:	e7c3      	b.n	80061d4 <HAL_TIM_IC_Start_IT+0x4c>
 800624c:	243e      	movs	r4, #62	@ 0x3e
 800624e:	2244      	movs	r2, #68	@ 0x44
 8006250:	5d05      	ldrb	r5, [r0, r4]
 8006252:	5c83      	ldrb	r3, [r0, r2]
 8006254:	b2db      	uxtb	r3, r3
 8006256:	2d01      	cmp	r5, #1
 8006258:	d1a9      	bne.n	80061ae <HAL_TIM_IC_Start_IT+0x26>
 800625a:	2b01      	cmp	r3, #1
 800625c:	d1a7      	bne.n	80061ae <HAL_TIM_IC_Start_IT+0x26>
 800625e:	2502      	movs	r5, #2
 8006260:	5505      	strb	r5, [r0, r4]
 8006262:	5485      	strb	r5, [r0, r2]
 8006264:	6803      	ldr	r3, [r0, #0]
 8006266:	68da      	ldr	r2, [r3, #12]
 8006268:	432a      	orrs	r2, r5
 800626a:	60da      	str	r2, [r3, #12]
 800626c:	e7b2      	b.n	80061d4 <HAL_TIM_IC_Start_IT+0x4c>
 800626e:	2142      	movs	r1, #66	@ 0x42
 8006270:	2247      	movs	r2, #71	@ 0x47
 8006272:	5c44      	ldrb	r4, [r0, r1]
 8006274:	5c83      	ldrb	r3, [r0, r2]
 8006276:	b2db      	uxtb	r3, r3
 8006278:	2c01      	cmp	r4, #1
 800627a:	d198      	bne.n	80061ae <HAL_TIM_IC_Start_IT+0x26>
 800627c:	2b01      	cmp	r3, #1
 800627e:	d196      	bne.n	80061ae <HAL_TIM_IC_Start_IT+0x26>
 8006280:	2302      	movs	r3, #2
 8006282:	5443      	strb	r3, [r0, r1]
 8006284:	5483      	strb	r3, [r0, r2]
 8006286:	2001      	movs	r0, #1
 8006288:	e7bb      	b.n	8006202 <HAL_TIM_IC_Start_IT+0x7a>
 800628a:	689a      	ldr	r2, [r3, #8]
 800628c:	4908      	ldr	r1, [pc, #32]	@ (80062b0 <HAL_TIM_IC_Start_IT+0x128>)
 800628e:	400a      	ands	r2, r1
 8006290:	2a06      	cmp	r2, #6
 8006292:	d0b5      	beq.n	8006200 <HAL_TIM_IC_Start_IT+0x78>
 8006294:	3907      	subs	r1, #7
 8006296:	428a      	cmp	r2, r1
 8006298:	d0b2      	beq.n	8006200 <HAL_TIM_IC_Start_IT+0x78>
 800629a:	2101      	movs	r1, #1
 800629c:	681a      	ldr	r2, [r3, #0]
 800629e:	430a      	orrs	r2, r1
 80062a0:	601a      	str	r2, [r3, #0]
 80062a2:	e7ad      	b.n	8006200 <HAL_TIM_IC_Start_IT+0x78>
 80062a4:	080087e4 	.word	0x080087e4
 80062a8:	40012c00 	.word	0x40012c00
 80062ac:	40000400 	.word	0x40000400
 80062b0:	00010007 	.word	0x00010007

080062b4 <HAL_TIM_IRQHandler>:
 80062b4:	2202      	movs	r2, #2
 80062b6:	6803      	ldr	r3, [r0, #0]
 80062b8:	b570      	push	{r4, r5, r6, lr}
 80062ba:	68de      	ldr	r6, [r3, #12]
 80062bc:	691d      	ldr	r5, [r3, #16]
 80062be:	0004      	movs	r4, r0
 80062c0:	422a      	tst	r2, r5
 80062c2:	d002      	beq.n	80062ca <HAL_TIM_IRQHandler+0x16>
 80062c4:	4232      	tst	r2, r6
 80062c6:	d000      	beq.n	80062ca <HAL_TIM_IRQHandler+0x16>
 80062c8:	e09f      	b.n	800640a <HAL_TIM_IRQHandler+0x156>
 80062ca:	2304      	movs	r3, #4
 80062cc:	422b      	tst	r3, r5
 80062ce:	d002      	beq.n	80062d6 <HAL_TIM_IRQHandler+0x22>
 80062d0:	4233      	tst	r3, r6
 80062d2:	d000      	beq.n	80062d6 <HAL_TIM_IRQHandler+0x22>
 80062d4:	e083      	b.n	80063de <HAL_TIM_IRQHandler+0x12a>
 80062d6:	2308      	movs	r3, #8
 80062d8:	422b      	tst	r3, r5
 80062da:	d001      	beq.n	80062e0 <HAL_TIM_IRQHandler+0x2c>
 80062dc:	4233      	tst	r3, r6
 80062de:	d16a      	bne.n	80063b6 <HAL_TIM_IRQHandler+0x102>
 80062e0:	2310      	movs	r3, #16
 80062e2:	422b      	tst	r3, r5
 80062e4:	d001      	beq.n	80062ea <HAL_TIM_IRQHandler+0x36>
 80062e6:	4233      	tst	r3, r6
 80062e8:	d14f      	bne.n	800638a <HAL_TIM_IRQHandler+0xd6>
 80062ea:	2301      	movs	r3, #1
 80062ec:	422b      	tst	r3, r5
 80062ee:	d001      	beq.n	80062f4 <HAL_TIM_IRQHandler+0x40>
 80062f0:	4233      	tst	r3, r6
 80062f2:	d132      	bne.n	800635a <HAL_TIM_IRQHandler+0xa6>
 80062f4:	2382      	movs	r3, #130	@ 0x82
 80062f6:	019b      	lsls	r3, r3, #6
 80062f8:	421d      	tst	r5, r3
 80062fa:	d03a      	beq.n	8006372 <HAL_TIM_IRQHandler+0xbe>
 80062fc:	0633      	lsls	r3, r6, #24
 80062fe:	d41b      	bmi.n	8006338 <HAL_TIM_IRQHandler+0x84>
 8006300:	2340      	movs	r3, #64	@ 0x40
 8006302:	422b      	tst	r3, r5
 8006304:	d001      	beq.n	800630a <HAL_TIM_IRQHandler+0x56>
 8006306:	4233      	tst	r3, r6
 8006308:	d10d      	bne.n	8006326 <HAL_TIM_IRQHandler+0x72>
 800630a:	2320      	movs	r3, #32
 800630c:	422b      	tst	r3, r5
 800630e:	d009      	beq.n	8006324 <HAL_TIM_IRQHandler+0x70>
 8006310:	4233      	tst	r3, r6
 8006312:	d007      	beq.n	8006324 <HAL_TIM_IRQHandler+0x70>
 8006314:	2221      	movs	r2, #33	@ 0x21
 8006316:	6823      	ldr	r3, [r4, #0]
 8006318:	4252      	negs	r2, r2
 800631a:	611a      	str	r2, [r3, #16]
 800631c:	23ac      	movs	r3, #172	@ 0xac
 800631e:	0020      	movs	r0, r4
 8006320:	58e3      	ldr	r3, [r4, r3]
 8006322:	4798      	blx	r3
 8006324:	bd70      	pop	{r4, r5, r6, pc}
 8006326:	2241      	movs	r2, #65	@ 0x41
 8006328:	6823      	ldr	r3, [r4, #0]
 800632a:	4252      	negs	r2, r2
 800632c:	611a      	str	r2, [r3, #16]
 800632e:	238c      	movs	r3, #140	@ 0x8c
 8006330:	0020      	movs	r0, r4
 8006332:	58e3      	ldr	r3, [r4, r3]
 8006334:	4798      	blx	r3
 8006336:	e7e8      	b.n	800630a <HAL_TIM_IRQHandler+0x56>
 8006338:	6823      	ldr	r3, [r4, #0]
 800633a:	4a46      	ldr	r2, [pc, #280]	@ (8006454 <HAL_TIM_IRQHandler+0x1a0>)
 800633c:	0020      	movs	r0, r4
 800633e:	611a      	str	r2, [r3, #16]
 8006340:	23b4      	movs	r3, #180	@ 0xb4
 8006342:	58e3      	ldr	r3, [r4, r3]
 8006344:	4798      	blx	r3
 8006346:	05eb      	lsls	r3, r5, #23
 8006348:	d5da      	bpl.n	8006300 <HAL_TIM_IRQHandler+0x4c>
 800634a:	6823      	ldr	r3, [r4, #0]
 800634c:	4a42      	ldr	r2, [pc, #264]	@ (8006458 <HAL_TIM_IRQHandler+0x1a4>)
 800634e:	0020      	movs	r0, r4
 8006350:	611a      	str	r2, [r3, #16]
 8006352:	23b8      	movs	r3, #184	@ 0xb8
 8006354:	58e3      	ldr	r3, [r4, r3]
 8006356:	4798      	blx	r3
 8006358:	e7d2      	b.n	8006300 <HAL_TIM_IRQHandler+0x4c>
 800635a:	2202      	movs	r2, #2
 800635c:	6823      	ldr	r3, [r4, #0]
 800635e:	4252      	negs	r2, r2
 8006360:	611a      	str	r2, [r3, #16]
 8006362:	2384      	movs	r3, #132	@ 0x84
 8006364:	0020      	movs	r0, r4
 8006366:	58e3      	ldr	r3, [r4, r3]
 8006368:	4798      	blx	r3
 800636a:	2382      	movs	r3, #130	@ 0x82
 800636c:	019b      	lsls	r3, r3, #6
 800636e:	421d      	tst	r5, r3
 8006370:	d1c4      	bne.n	80062fc <HAL_TIM_IRQHandler+0x48>
 8006372:	05eb      	lsls	r3, r5, #23
 8006374:	d5c4      	bpl.n	8006300 <HAL_TIM_IRQHandler+0x4c>
 8006376:	0633      	lsls	r3, r6, #24
 8006378:	d5c2      	bpl.n	8006300 <HAL_TIM_IRQHandler+0x4c>
 800637a:	6823      	ldr	r3, [r4, #0]
 800637c:	4a36      	ldr	r2, [pc, #216]	@ (8006458 <HAL_TIM_IRQHandler+0x1a4>)
 800637e:	0020      	movs	r0, r4
 8006380:	611a      	str	r2, [r3, #16]
 8006382:	23b8      	movs	r3, #184	@ 0xb8
 8006384:	58e3      	ldr	r3, [r4, r3]
 8006386:	4798      	blx	r3
 8006388:	e7ba      	b.n	8006300 <HAL_TIM_IRQHandler+0x4c>
 800638a:	2211      	movs	r2, #17
 800638c:	6823      	ldr	r3, [r4, #0]
 800638e:	4252      	negs	r2, r2
 8006390:	611a      	str	r2, [r3, #16]
 8006392:	3219      	adds	r2, #25
 8006394:	7722      	strb	r2, [r4, #28]
 8006396:	69da      	ldr	r2, [r3, #28]
 8006398:	23c0      	movs	r3, #192	@ 0xc0
 800639a:	009b      	lsls	r3, r3, #2
 800639c:	421a      	tst	r2, r3
 800639e:	d153      	bne.n	8006448 <HAL_TIM_IRQHandler+0x194>
 80063a0:	239c      	movs	r3, #156	@ 0x9c
 80063a2:	0020      	movs	r0, r4
 80063a4:	58e3      	ldr	r3, [r4, r3]
 80063a6:	4798      	blx	r3
 80063a8:	23a0      	movs	r3, #160	@ 0xa0
 80063aa:	0020      	movs	r0, r4
 80063ac:	58e3      	ldr	r3, [r4, r3]
 80063ae:	4798      	blx	r3
 80063b0:	2300      	movs	r3, #0
 80063b2:	7723      	strb	r3, [r4, #28]
 80063b4:	e799      	b.n	80062ea <HAL_TIM_IRQHandler+0x36>
 80063b6:	2209      	movs	r2, #9
 80063b8:	6823      	ldr	r3, [r4, #0]
 80063ba:	4252      	negs	r2, r2
 80063bc:	611a      	str	r2, [r3, #16]
 80063be:	320d      	adds	r2, #13
 80063c0:	7722      	strb	r2, [r4, #28]
 80063c2:	69db      	ldr	r3, [r3, #28]
 80063c4:	079b      	lsls	r3, r3, #30
 80063c6:	d13a      	bne.n	800643e <HAL_TIM_IRQHandler+0x18a>
 80063c8:	239c      	movs	r3, #156	@ 0x9c
 80063ca:	0020      	movs	r0, r4
 80063cc:	58e3      	ldr	r3, [r4, r3]
 80063ce:	4798      	blx	r3
 80063d0:	23a0      	movs	r3, #160	@ 0xa0
 80063d2:	0020      	movs	r0, r4
 80063d4:	58e3      	ldr	r3, [r4, r3]
 80063d6:	4798      	blx	r3
 80063d8:	2300      	movs	r3, #0
 80063da:	7723      	strb	r3, [r4, #28]
 80063dc:	e780      	b.n	80062e0 <HAL_TIM_IRQHandler+0x2c>
 80063de:	2205      	movs	r2, #5
 80063e0:	6823      	ldr	r3, [r4, #0]
 80063e2:	4252      	negs	r2, r2
 80063e4:	611a      	str	r2, [r3, #16]
 80063e6:	3207      	adds	r2, #7
 80063e8:	7722      	strb	r2, [r4, #28]
 80063ea:	699a      	ldr	r2, [r3, #24]
 80063ec:	23c0      	movs	r3, #192	@ 0xc0
 80063ee:	009b      	lsls	r3, r3, #2
 80063f0:	421a      	tst	r2, r3
 80063f2:	d11f      	bne.n	8006434 <HAL_TIM_IRQHandler+0x180>
 80063f4:	239c      	movs	r3, #156	@ 0x9c
 80063f6:	0020      	movs	r0, r4
 80063f8:	58e3      	ldr	r3, [r4, r3]
 80063fa:	4798      	blx	r3
 80063fc:	23a0      	movs	r3, #160	@ 0xa0
 80063fe:	0020      	movs	r0, r4
 8006400:	58e3      	ldr	r3, [r4, r3]
 8006402:	4798      	blx	r3
 8006404:	2300      	movs	r3, #0
 8006406:	7723      	strb	r3, [r4, #28]
 8006408:	e765      	b.n	80062d6 <HAL_TIM_IRQHandler+0x22>
 800640a:	3a05      	subs	r2, #5
 800640c:	611a      	str	r2, [r3, #16]
 800640e:	3204      	adds	r2, #4
 8006410:	7702      	strb	r2, [r0, #28]
 8006412:	699b      	ldr	r3, [r3, #24]
 8006414:	079b      	lsls	r3, r3, #30
 8006416:	d109      	bne.n	800642c <HAL_TIM_IRQHandler+0x178>
 8006418:	239c      	movs	r3, #156	@ 0x9c
 800641a:	58c3      	ldr	r3, [r0, r3]
 800641c:	4798      	blx	r3
 800641e:	23a0      	movs	r3, #160	@ 0xa0
 8006420:	0020      	movs	r0, r4
 8006422:	58e3      	ldr	r3, [r4, r3]
 8006424:	4798      	blx	r3
 8006426:	2300      	movs	r3, #0
 8006428:	7723      	strb	r3, [r4, #28]
 800642a:	e74e      	b.n	80062ca <HAL_TIM_IRQHandler+0x16>
 800642c:	2394      	movs	r3, #148	@ 0x94
 800642e:	58c3      	ldr	r3, [r0, r3]
 8006430:	4798      	blx	r3
 8006432:	e7f8      	b.n	8006426 <HAL_TIM_IRQHandler+0x172>
 8006434:	2394      	movs	r3, #148	@ 0x94
 8006436:	0020      	movs	r0, r4
 8006438:	58e3      	ldr	r3, [r4, r3]
 800643a:	4798      	blx	r3
 800643c:	e7e2      	b.n	8006404 <HAL_TIM_IRQHandler+0x150>
 800643e:	2394      	movs	r3, #148	@ 0x94
 8006440:	0020      	movs	r0, r4
 8006442:	58e3      	ldr	r3, [r4, r3]
 8006444:	4798      	blx	r3
 8006446:	e7c7      	b.n	80063d8 <HAL_TIM_IRQHandler+0x124>
 8006448:	2394      	movs	r3, #148	@ 0x94
 800644a:	0020      	movs	r0, r4
 800644c:	58e3      	ldr	r3, [r4, r3]
 800644e:	4798      	blx	r3
 8006450:	e7ae      	b.n	80063b0 <HAL_TIM_IRQHandler+0xfc>
 8006452:	46c0      	nop			@ (mov r8, r8)
 8006454:	ffffdf7f 	.word	0xffffdf7f
 8006458:	fffffeff 	.word	0xfffffeff

0800645c <HAL_TIM_OC_ConfigChannel>:
 800645c:	233c      	movs	r3, #60	@ 0x3c
 800645e:	b5f0      	push	{r4, r5, r6, r7, lr}
 8006460:	5cc3      	ldrb	r3, [r0, r3]
 8006462:	0004      	movs	r4, r0
 8006464:	2b01      	cmp	r3, #1
 8006466:	d100      	bne.n	800646a <HAL_TIM_OC_ConfigChannel+0xe>
 8006468:	e11d      	b.n	80066a6 <HAL_TIM_OC_ConfigChannel+0x24a>
 800646a:	2a14      	cmp	r2, #20
 800646c:	d803      	bhi.n	8006476 <HAL_TIM_OC_ConfigChannel+0x1a>
 800646e:	4b8f      	ldr	r3, [pc, #572]	@ (80066ac <HAL_TIM_OC_ConfigChannel+0x250>)
 8006470:	0092      	lsls	r2, r2, #2
 8006472:	589b      	ldr	r3, [r3, r2]
 8006474:	469f      	mov	pc, r3
 8006476:	2001      	movs	r0, #1
 8006478:	233c      	movs	r3, #60	@ 0x3c
 800647a:	2200      	movs	r2, #0
 800647c:	54e2      	strb	r2, [r4, r3]
 800647e:	bdf0      	pop	{r4, r5, r6, r7, pc}
 8006480:	6803      	ldr	r3, [r0, #0]
 8006482:	4d8b      	ldr	r5, [pc, #556]	@ (80066b0 <HAL_TIM_OC_ConfigChannel+0x254>)
 8006484:	6a18      	ldr	r0, [r3, #32]
 8006486:	6a1a      	ldr	r2, [r3, #32]
 8006488:	402a      	ands	r2, r5
 800648a:	621a      	str	r2, [r3, #32]
 800648c:	4d89      	ldr	r5, [pc, #548]	@ (80066b4 <HAL_TIM_OC_ConfigChannel+0x258>)
 800648e:	685e      	ldr	r6, [r3, #4]
 8006490:	6d5a      	ldr	r2, [r3, #84]	@ 0x54
 8006492:	402a      	ands	r2, r5
 8006494:	680d      	ldr	r5, [r1, #0]
 8006496:	022d      	lsls	r5, r5, #8
 8006498:	4315      	orrs	r5, r2
 800649a:	4a87      	ldr	r2, [pc, #540]	@ (80066b8 <HAL_TIM_OC_ConfigChannel+0x25c>)
 800649c:	4010      	ands	r0, r2
 800649e:	688a      	ldr	r2, [r1, #8]
 80064a0:	0512      	lsls	r2, r2, #20
 80064a2:	4302      	orrs	r2, r0
 80064a4:	4885      	ldr	r0, [pc, #532]	@ (80066bc <HAL_TIM_OC_ConfigChannel+0x260>)
 80064a6:	4283      	cmp	r3, r0
 80064a8:	d100      	bne.n	80064ac <HAL_TIM_OC_ConfigChannel+0x50>
 80064aa:	e0c2      	b.n	8006632 <HAL_TIM_OC_ConfigChannel+0x1d6>
 80064ac:	4884      	ldr	r0, [pc, #528]	@ (80066c0 <HAL_TIM_OC_ConfigChannel+0x264>)
 80064ae:	4283      	cmp	r3, r0
 80064b0:	d100      	bne.n	80064b4 <HAL_TIM_OC_ConfigChannel+0x58>
 80064b2:	e0be      	b.n	8006632 <HAL_TIM_OC_ConfigChannel+0x1d6>
 80064b4:	4883      	ldr	r0, [pc, #524]	@ (80066c4 <HAL_TIM_OC_ConfigChannel+0x268>)
 80064b6:	4283      	cmp	r3, r0
 80064b8:	d100      	bne.n	80064bc <HAL_TIM_OC_ConfigChannel+0x60>
 80064ba:	e0ba      	b.n	8006632 <HAL_TIM_OC_ConfigChannel+0x1d6>
 80064bc:	6849      	ldr	r1, [r1, #4]
 80064be:	605e      	str	r6, [r3, #4]
 80064c0:	2000      	movs	r0, #0
 80064c2:	655d      	str	r5, [r3, #84]	@ 0x54
 80064c4:	65d9      	str	r1, [r3, #92]	@ 0x5c
 80064c6:	621a      	str	r2, [r3, #32]
 80064c8:	e7d6      	b.n	8006478 <HAL_TIM_OC_ConfigChannel+0x1c>
 80064ca:	2501      	movs	r5, #1
 80064cc:	6803      	ldr	r3, [r0, #0]
 80064ce:	6a1a      	ldr	r2, [r3, #32]
 80064d0:	6a18      	ldr	r0, [r3, #32]
 80064d2:	43a8      	bics	r0, r5
 80064d4:	6218      	str	r0, [r3, #32]
 80064d6:	4d7c      	ldr	r5, [pc, #496]	@ (80066c8 <HAL_TIM_OC_ConfigChannel+0x26c>)
 80064d8:	685e      	ldr	r6, [r3, #4]
 80064da:	6998      	ldr	r0, [r3, #24]
 80064dc:	4028      	ands	r0, r5
 80064de:	680d      	ldr	r5, [r1, #0]
 80064e0:	4328      	orrs	r0, r5
 80064e2:	2502      	movs	r5, #2
 80064e4:	43aa      	bics	r2, r5
 80064e6:	688d      	ldr	r5, [r1, #8]
 80064e8:	432a      	orrs	r2, r5
 80064ea:	4d74      	ldr	r5, [pc, #464]	@ (80066bc <HAL_TIM_OC_ConfigChannel+0x260>)
 80064ec:	42ab      	cmp	r3, r5
 80064ee:	d100      	bne.n	80064f2 <HAL_TIM_OC_ConfigChannel+0x96>
 80064f0:	e0cc      	b.n	800668c <HAL_TIM_OC_ConfigChannel+0x230>
 80064f2:	4d73      	ldr	r5, [pc, #460]	@ (80066c0 <HAL_TIM_OC_ConfigChannel+0x264>)
 80064f4:	42ab      	cmp	r3, r5
 80064f6:	d100      	bne.n	80064fa <HAL_TIM_OC_ConfigChannel+0x9e>
 80064f8:	e0c8      	b.n	800668c <HAL_TIM_OC_ConfigChannel+0x230>
 80064fa:	4d72      	ldr	r5, [pc, #456]	@ (80066c4 <HAL_TIM_OC_ConfigChannel+0x268>)
 80064fc:	42ab      	cmp	r3, r5
 80064fe:	d100      	bne.n	8006502 <HAL_TIM_OC_ConfigChannel+0xa6>
 8006500:	e0c4      	b.n	800668c <HAL_TIM_OC_ConfigChannel+0x230>
 8006502:	6849      	ldr	r1, [r1, #4]
 8006504:	605e      	str	r6, [r3, #4]
 8006506:	6198      	str	r0, [r3, #24]
 8006508:	6359      	str	r1, [r3, #52]	@ 0x34
 800650a:	2000      	movs	r0, #0
 800650c:	621a      	str	r2, [r3, #32]
 800650e:	e7b3      	b.n	8006478 <HAL_TIM_OC_ConfigChannel+0x1c>
 8006510:	2510      	movs	r5, #16
 8006512:	6803      	ldr	r3, [r0, #0]
 8006514:	6a1a      	ldr	r2, [r3, #32]
 8006516:	6a18      	ldr	r0, [r3, #32]
 8006518:	43a8      	bics	r0, r5
 800651a:	6218      	str	r0, [r3, #32]
 800651c:	4d6b      	ldr	r5, [pc, #428]	@ (80066cc <HAL_TIM_OC_ConfigChannel+0x270>)
 800651e:	685f      	ldr	r7, [r3, #4]
 8006520:	6998      	ldr	r0, [r3, #24]
 8006522:	4028      	ands	r0, r5
 8006524:	680d      	ldr	r5, [r1, #0]
 8006526:	022d      	lsls	r5, r5, #8
 8006528:	4305      	orrs	r5, r0
 800652a:	2020      	movs	r0, #32
 800652c:	4382      	bics	r2, r0
 800652e:	6888      	ldr	r0, [r1, #8]
 8006530:	0100      	lsls	r0, r0, #4
 8006532:	4310      	orrs	r0, r2
 8006534:	4a61      	ldr	r2, [pc, #388]	@ (80066bc <HAL_TIM_OC_ConfigChannel+0x260>)
 8006536:	4293      	cmp	r3, r2
 8006538:	d100      	bne.n	800653c <HAL_TIM_OC_ConfigChannel+0xe0>
 800653a:	e098      	b.n	800666e <HAL_TIM_OC_ConfigChannel+0x212>
 800653c:	4a60      	ldr	r2, [pc, #384]	@ (80066c0 <HAL_TIM_OC_ConfigChannel+0x264>)
 800653e:	4293      	cmp	r3, r2
 8006540:	d100      	bne.n	8006544 <HAL_TIM_OC_ConfigChannel+0xe8>
 8006542:	e09b      	b.n	800667c <HAL_TIM_OC_ConfigChannel+0x220>
 8006544:	4a5f      	ldr	r2, [pc, #380]	@ (80066c4 <HAL_TIM_OC_ConfigChannel+0x268>)
 8006546:	4293      	cmp	r3, r2
 8006548:	d100      	bne.n	800654c <HAL_TIM_OC_ConfigChannel+0xf0>
 800654a:	e097      	b.n	800667c <HAL_TIM_OC_ConfigChannel+0x220>
 800654c:	684a      	ldr	r2, [r1, #4]
 800654e:	605f      	str	r7, [r3, #4]
 8006550:	619d      	str	r5, [r3, #24]
 8006552:	639a      	str	r2, [r3, #56]	@ 0x38
 8006554:	6218      	str	r0, [r3, #32]
 8006556:	2000      	movs	r0, #0
 8006558:	e78e      	b.n	8006478 <HAL_TIM_OC_ConfigChannel+0x1c>
 800655a:	6803      	ldr	r3, [r0, #0]
 800655c:	4d5c      	ldr	r5, [pc, #368]	@ (80066d0 <HAL_TIM_OC_ConfigChannel+0x274>)
 800655e:	6a1a      	ldr	r2, [r3, #32]
 8006560:	6a18      	ldr	r0, [r3, #32]
 8006562:	680f      	ldr	r7, [r1, #0]
 8006564:	4028      	ands	r0, r5
 8006566:	6218      	str	r0, [r3, #32]
 8006568:	6858      	ldr	r0, [r3, #4]
 800656a:	4d57      	ldr	r5, [pc, #348]	@ (80066c8 <HAL_TIM_OC_ConfigChannel+0x26c>)
 800656c:	4684      	mov	ip, r0
 800656e:	69d8      	ldr	r0, [r3, #28]
 8006570:	688e      	ldr	r6, [r1, #8]
 8006572:	4028      	ands	r0, r5
 8006574:	4307      	orrs	r7, r0
 8006576:	4857      	ldr	r0, [pc, #348]	@ (80066d4 <HAL_TIM_OC_ConfigChannel+0x278>)
 8006578:	0236      	lsls	r6, r6, #8
 800657a:	4002      	ands	r2, r0
 800657c:	4316      	orrs	r6, r2
 800657e:	4a4f      	ldr	r2, [pc, #316]	@ (80066bc <HAL_TIM_OC_ConfigChannel+0x260>)
 8006580:	4293      	cmp	r3, r2
 8006582:	d062      	beq.n	800664a <HAL_TIM_OC_ConfigChannel+0x1ee>
 8006584:	4a4e      	ldr	r2, [pc, #312]	@ (80066c0 <HAL_TIM_OC_ConfigChannel+0x264>)
 8006586:	4293      	cmp	r3, r2
 8006588:	d066      	beq.n	8006658 <HAL_TIM_OC_ConfigChannel+0x1fc>
 800658a:	4a4e      	ldr	r2, [pc, #312]	@ (80066c4 <HAL_TIM_OC_ConfigChannel+0x268>)
 800658c:	4293      	cmp	r3, r2
 800658e:	d063      	beq.n	8006658 <HAL_TIM_OC_ConfigChannel+0x1fc>
 8006590:	4662      	mov	r2, ip
 8006592:	605a      	str	r2, [r3, #4]
 8006594:	684a      	ldr	r2, [r1, #4]
 8006596:	61df      	str	r7, [r3, #28]
 8006598:	2000      	movs	r0, #0
 800659a:	63da      	str	r2, [r3, #60]	@ 0x3c
 800659c:	621e      	str	r6, [r3, #32]
 800659e:	e76b      	b.n	8006478 <HAL_TIM_OC_ConfigChannel+0x1c>
 80065a0:	6803      	ldr	r3, [r0, #0]
 80065a2:	4d4d      	ldr	r5, [pc, #308]	@ (80066d8 <HAL_TIM_OC_ConfigChannel+0x27c>)
 80065a4:	6a18      	ldr	r0, [r3, #32]
 80065a6:	6a1a      	ldr	r2, [r3, #32]
 80065a8:	402a      	ands	r2, r5
 80065aa:	621a      	str	r2, [r3, #32]
 80065ac:	4d47      	ldr	r5, [pc, #284]	@ (80066cc <HAL_TIM_OC_ConfigChannel+0x270>)
 80065ae:	685e      	ldr	r6, [r3, #4]
 80065b0:	69da      	ldr	r2, [r3, #28]
 80065b2:	402a      	ands	r2, r5
 80065b4:	680d      	ldr	r5, [r1, #0]
 80065b6:	022d      	lsls	r5, r5, #8
 80065b8:	4315      	orrs	r5, r2
 80065ba:	4a48      	ldr	r2, [pc, #288]	@ (80066dc <HAL_TIM_OC_ConfigChannel+0x280>)
 80065bc:	4010      	ands	r0, r2
 80065be:	688a      	ldr	r2, [r1, #8]
 80065c0:	0312      	lsls	r2, r2, #12
 80065c2:	4302      	orrs	r2, r0
 80065c4:	483d      	ldr	r0, [pc, #244]	@ (80066bc <HAL_TIM_OC_ConfigChannel+0x260>)
 80065c6:	4283      	cmp	r3, r0
 80065c8:	d039      	beq.n	800663e <HAL_TIM_OC_ConfigChannel+0x1e2>
 80065ca:	483d      	ldr	r0, [pc, #244]	@ (80066c0 <HAL_TIM_OC_ConfigChannel+0x264>)
 80065cc:	4283      	cmp	r3, r0
 80065ce:	d036      	beq.n	800663e <HAL_TIM_OC_ConfigChannel+0x1e2>
 80065d0:	483c      	ldr	r0, [pc, #240]	@ (80066c4 <HAL_TIM_OC_ConfigChannel+0x268>)
 80065d2:	4283      	cmp	r3, r0
 80065d4:	d033      	beq.n	800663e <HAL_TIM_OC_ConfigChannel+0x1e2>
 80065d6:	6849      	ldr	r1, [r1, #4]
 80065d8:	605e      	str	r6, [r3, #4]
 80065da:	2000      	movs	r0, #0
 80065dc:	61dd      	str	r5, [r3, #28]
 80065de:	6419      	str	r1, [r3, #64]	@ 0x40
 80065e0:	621a      	str	r2, [r3, #32]
 80065e2:	e749      	b.n	8006478 <HAL_TIM_OC_ConfigChannel+0x1c>
 80065e4:	6803      	ldr	r3, [r0, #0]
 80065e6:	4d3e      	ldr	r5, [pc, #248]	@ (80066e0 <HAL_TIM_OC_ConfigChannel+0x284>)
 80065e8:	6a18      	ldr	r0, [r3, #32]
 80065ea:	6a1a      	ldr	r2, [r3, #32]
 80065ec:	4e3d      	ldr	r6, [pc, #244]	@ (80066e4 <HAL_TIM_OC_ConfigChannel+0x288>)
 80065ee:	402a      	ands	r2, r5
 80065f0:	621a      	str	r2, [r3, #32]
 80065f2:	685d      	ldr	r5, [r3, #4]
 80065f4:	6d5a      	ldr	r2, [r3, #84]	@ 0x54
 80065f6:	4032      	ands	r2, r6
 80065f8:	680e      	ldr	r6, [r1, #0]
 80065fa:	4316      	orrs	r6, r2
 80065fc:	4a3a      	ldr	r2, [pc, #232]	@ (80066e8 <HAL_TIM_OC_ConfigChannel+0x28c>)
 80065fe:	4010      	ands	r0, r2
 8006600:	688a      	ldr	r2, [r1, #8]
 8006602:	0412      	lsls	r2, r2, #16
 8006604:	4302      	orrs	r2, r0
 8006606:	482d      	ldr	r0, [pc, #180]	@ (80066bc <HAL_TIM_OC_ConfigChannel+0x260>)
 8006608:	4283      	cmp	r3, r0
 800660a:	d00c      	beq.n	8006626 <HAL_TIM_OC_ConfigChannel+0x1ca>
 800660c:	482c      	ldr	r0, [pc, #176]	@ (80066c0 <HAL_TIM_OC_ConfigChannel+0x264>)
 800660e:	4283      	cmp	r3, r0
 8006610:	d009      	beq.n	8006626 <HAL_TIM_OC_ConfigChannel+0x1ca>
 8006612:	482c      	ldr	r0, [pc, #176]	@ (80066c4 <HAL_TIM_OC_ConfigChannel+0x268>)
 8006614:	4283      	cmp	r3, r0
 8006616:	d006      	beq.n	8006626 <HAL_TIM_OC_ConfigChannel+0x1ca>
 8006618:	6849      	ldr	r1, [r1, #4]
 800661a:	605d      	str	r5, [r3, #4]
 800661c:	2000      	movs	r0, #0
 800661e:	655e      	str	r6, [r3, #84]	@ 0x54
 8006620:	6599      	str	r1, [r3, #88]	@ 0x58
 8006622:	621a      	str	r2, [r3, #32]
 8006624:	e728      	b.n	8006478 <HAL_TIM_OC_ConfigChannel+0x1c>
 8006626:	482e      	ldr	r0, [pc, #184]	@ (80066e0 <HAL_TIM_OC_ConfigChannel+0x284>)
 8006628:	4028      	ands	r0, r5
 800662a:	694d      	ldr	r5, [r1, #20]
 800662c:	022d      	lsls	r5, r5, #8
 800662e:	4305      	orrs	r5, r0
 8006630:	e7f2      	b.n	8006618 <HAL_TIM_OC_ConfigChannel+0x1bc>
 8006632:	482e      	ldr	r0, [pc, #184]	@ (80066ec <HAL_TIM_OC_ConfigChannel+0x290>)
 8006634:	4030      	ands	r0, r6
 8006636:	694e      	ldr	r6, [r1, #20]
 8006638:	02b6      	lsls	r6, r6, #10
 800663a:	4306      	orrs	r6, r0
 800663c:	e73e      	b.n	80064bc <HAL_TIM_OC_ConfigChannel+0x60>
 800663e:	482c      	ldr	r0, [pc, #176]	@ (80066f0 <HAL_TIM_OC_ConfigChannel+0x294>)
 8006640:	4030      	ands	r0, r6
 8006642:	694e      	ldr	r6, [r1, #20]
 8006644:	01b6      	lsls	r6, r6, #6
 8006646:	4306      	orrs	r6, r0
 8006648:	e7c5      	b.n	80065d6 <HAL_TIM_OC_ConfigChannel+0x17a>
 800664a:	4a2a      	ldr	r2, [pc, #168]	@ (80066f4 <HAL_TIM_OC_ConfigChannel+0x298>)
 800664c:	68c8      	ldr	r0, [r1, #12]
 800664e:	4032      	ands	r2, r6
 8006650:	0200      	lsls	r0, r0, #8
 8006652:	4e29      	ldr	r6, [pc, #164]	@ (80066f8 <HAL_TIM_OC_ConfigChannel+0x29c>)
 8006654:	4310      	orrs	r0, r2
 8006656:	4006      	ands	r6, r0
 8006658:	4662      	mov	r2, ip
 800665a:	4d28      	ldr	r5, [pc, #160]	@ (80066fc <HAL_TIM_OC_ConfigChannel+0x2a0>)
 800665c:	6988      	ldr	r0, [r1, #24]
 800665e:	402a      	ands	r2, r5
 8006660:	0015      	movs	r5, r2
 8006662:	694a      	ldr	r2, [r1, #20]
 8006664:	4302      	orrs	r2, r0
 8006666:	0112      	lsls	r2, r2, #4
 8006668:	432a      	orrs	r2, r5
 800666a:	4694      	mov	ip, r2
 800666c:	e790      	b.n	8006590 <HAL_TIM_OC_ConfigChannel+0x134>
 800666e:	2280      	movs	r2, #128	@ 0x80
 8006670:	4390      	bics	r0, r2
 8006672:	68ca      	ldr	r2, [r1, #12]
 8006674:	0112      	lsls	r2, r2, #4
 8006676:	4310      	orrs	r0, r2
 8006678:	2240      	movs	r2, #64	@ 0x40
 800667a:	4390      	bics	r0, r2
 800667c:	4e20      	ldr	r6, [pc, #128]	@ (8006700 <HAL_TIM_OC_ConfigChannel+0x2a4>)
 800667e:	694a      	ldr	r2, [r1, #20]
 8006680:	403e      	ands	r6, r7
 8006682:	698f      	ldr	r7, [r1, #24]
 8006684:	4317      	orrs	r7, r2
 8006686:	00bf      	lsls	r7, r7, #2
 8006688:	4337      	orrs	r7, r6
 800668a:	e75f      	b.n	800654c <HAL_TIM_OC_ConfigChannel+0xf0>
 800668c:	2508      	movs	r5, #8
 800668e:	43aa      	bics	r2, r5
 8006690:	68cd      	ldr	r5, [r1, #12]
 8006692:	698f      	ldr	r7, [r1, #24]
 8006694:	432a      	orrs	r2, r5
 8006696:	2504      	movs	r5, #4
 8006698:	43aa      	bics	r2, r5
 800669a:	4d1a      	ldr	r5, [pc, #104]	@ (8006704 <HAL_TIM_OC_ConfigChannel+0x2a8>)
 800669c:	4035      	ands	r5, r6
 800669e:	694e      	ldr	r6, [r1, #20]
 80066a0:	433e      	orrs	r6, r7
 80066a2:	432e      	orrs	r6, r5
 80066a4:	e72d      	b.n	8006502 <HAL_TIM_OC_ConfigChannel+0xa6>
 80066a6:	2002      	movs	r0, #2
 80066a8:	e6e9      	b.n	800647e <HAL_TIM_OC_ConfigChannel+0x22>
 80066aa:	46c0      	nop			@ (mov r8, r8)
 80066ac:	08008828 	.word	0x08008828
 80066b0:	ffefffff 	.word	0xffefffff
 80066b4:	feff8fff 	.word	0xfeff8fff
 80066b8:	ffdfffff 	.word	0xffdfffff
 80066bc:	40012c00 	.word	0x40012c00
 80066c0:	40014400 	.word	0x40014400
 80066c4:	40014800 	.word	0x40014800
 80066c8:	fffeff8c 	.word	0xfffeff8c
 80066cc:	feff8cff 	.word	0xfeff8cff
 80066d0:	fffffeff 	.word	0xfffffeff
 80066d4:	fffffdff 	.word	0xfffffdff
 80066d8:	ffffefff 	.word	0xffffefff
 80066dc:	ffffdfff 	.word	0xffffdfff
 80066e0:	fffeffff 	.word	0xfffeffff
 80066e4:	fffeff8f 	.word	0xfffeff8f
 80066e8:	fffdffff 	.word	0xfffdffff
 80066ec:	fffbffff 	.word	0xfffbffff
 80066f0:	ffffbfff 	.word	0xffffbfff
 80066f4:	fffff7ff 	.word	0xfffff7ff
 80066f8:	fffffbff 	.word	0xfffffbff
 80066fc:	ffffcfff 	.word	0xffffcfff
 8006700:	fffff3ff 	.word	0xfffff3ff
 8006704:	fffffcff 	.word	0xfffffcff

08006708 <HAL_TIM_IC_ConfigChannel>:
 8006708:	0003      	movs	r3, r0
 800670a:	203c      	movs	r0, #60	@ 0x3c
 800670c:	b5f0      	push	{r4, r5, r6, r7, lr}
 800670e:	46ce      	mov	lr, r9
 8006710:	4647      	mov	r7, r8
 8006712:	5c1c      	ldrb	r4, [r3, r0]
 8006714:	b580      	push	{r7, lr}
 8006716:	2c01      	cmp	r4, #1
 8006718:	d100      	bne.n	800671c <HAL_TIM_IC_ConfigChannel+0x14>
 800671a:	e0bf      	b.n	800689c <HAL_TIM_IC_ConfigChannel+0x194>
 800671c:	2401      	movs	r4, #1
 800671e:	541c      	strb	r4, [r3, r0]
 8006720:	2a00      	cmp	r2, #0
 8006722:	d00e      	beq.n	8006742 <HAL_TIM_IC_ConfigChannel+0x3a>
 8006724:	2a04      	cmp	r2, #4
 8006726:	d039      	beq.n	800679c <HAL_TIM_IC_ConfigChannel+0x94>
 8006728:	2a08      	cmp	r2, #8
 800672a:	d100      	bne.n	800672e <HAL_TIM_IC_ConfigChannel+0x26>
 800672c:	e08d      	b.n	800684a <HAL_TIM_IC_ConfigChannel+0x142>
 800672e:	2001      	movs	r0, #1
 8006730:	2a0c      	cmp	r2, #12
 8006732:	d05a      	beq.n	80067ea <HAL_TIM_IC_ConfigChannel+0xe2>
 8006734:	223c      	movs	r2, #60	@ 0x3c
 8006736:	2100      	movs	r1, #0
 8006738:	5499      	strb	r1, [r3, r2]
 800673a:	bcc0      	pop	{r6, r7}
 800673c:	46b9      	mov	r9, r7
 800673e:	46b0      	mov	r8, r6
 8006740:	bdf0      	pop	{r4, r5, r6, r7, pc}
 8006742:	681a      	ldr	r2, [r3, #0]
 8006744:	6848      	ldr	r0, [r1, #4]
 8006746:	6a15      	ldr	r5, [r2, #32]
 8006748:	4681      	mov	r9, r0
 800674a:	6a10      	ldr	r0, [r2, #32]
 800674c:	680e      	ldr	r6, [r1, #0]
 800674e:	43a0      	bics	r0, r4
 8006750:	68cf      	ldr	r7, [r1, #12]
 8006752:	6210      	str	r0, [r2, #32]
 8006754:	6990      	ldr	r0, [r2, #24]
 8006756:	4684      	mov	ip, r0
 8006758:	4851      	ldr	r0, [pc, #324]	@ (80068a0 <HAL_TIM_IC_ConfigChannel+0x198>)
 800675a:	4282      	cmp	r2, r0
 800675c:	d06e      	beq.n	800683c <HAL_TIM_IC_ConfigChannel+0x134>
 800675e:	2080      	movs	r0, #128	@ 0x80
 8006760:	05c0      	lsls	r0, r0, #23
 8006762:	4282      	cmp	r2, r0
 8006764:	d06a      	beq.n	800683c <HAL_TIM_IC_ConfigChannel+0x134>
 8006766:	484f      	ldr	r0, [pc, #316]	@ (80068a4 <HAL_TIM_IC_ConfigChannel+0x19c>)
 8006768:	4282      	cmp	r2, r0
 800676a:	d067      	beq.n	800683c <HAL_TIM_IC_ConfigChannel+0x134>
 800676c:	4660      	mov	r0, ip
 800676e:	4320      	orrs	r0, r4
 8006770:	24f0      	movs	r4, #240	@ 0xf0
 8006772:	013f      	lsls	r7, r7, #4
 8006774:	43a0      	bics	r0, r4
 8006776:	340f      	adds	r4, #15
 8006778:	403c      	ands	r4, r7
 800677a:	4304      	orrs	r4, r0
 800677c:	200a      	movs	r0, #10
 800677e:	6194      	str	r4, [r2, #24]
 8006780:	240c      	movs	r4, #12
 8006782:	4385      	bics	r5, r0
 8006784:	4030      	ands	r0, r6
 8006786:	4328      	orrs	r0, r5
 8006788:	6210      	str	r0, [r2, #32]
 800678a:	6990      	ldr	r0, [r2, #24]
 800678c:	6889      	ldr	r1, [r1, #8]
 800678e:	43a0      	bics	r0, r4
 8006790:	6190      	str	r0, [r2, #24]
 8006792:	6990      	ldr	r0, [r2, #24]
 8006794:	4301      	orrs	r1, r0
 8006796:	6191      	str	r1, [r2, #24]
 8006798:	2000      	movs	r0, #0
 800679a:	e7cb      	b.n	8006734 <HAL_TIM_IC_ConfigChannel+0x2c>
 800679c:	68c8      	ldr	r0, [r1, #12]
 800679e:	681a      	ldr	r2, [r3, #0]
 80067a0:	4680      	mov	r8, r0
 80067a2:	2010      	movs	r0, #16
 80067a4:	6a15      	ldr	r5, [r2, #32]
 80067a6:	6a17      	ldr	r7, [r2, #32]
 80067a8:	680e      	ldr	r6, [r1, #0]
 80067aa:	4387      	bics	r7, r0
 80067ac:	684c      	ldr	r4, [r1, #4]
 80067ae:	6217      	str	r7, [r2, #32]
 80067b0:	6997      	ldr	r7, [r2, #24]
 80067b2:	483d      	ldr	r0, [pc, #244]	@ (80068a8 <HAL_TIM_IC_ConfigChannel+0x1a0>)
 80067b4:	0224      	lsls	r4, r4, #8
 80067b6:	4007      	ands	r7, r0
 80067b8:	4640      	mov	r0, r8
 80067ba:	433c      	orrs	r4, r7
 80067bc:	4f3b      	ldr	r7, [pc, #236]	@ (80068ac <HAL_TIM_IC_ConfigChannel+0x1a4>)
 80067be:	0700      	lsls	r0, r0, #28
 80067c0:	403c      	ands	r4, r7
 80067c2:	0c00      	lsrs	r0, r0, #16
 80067c4:	4320      	orrs	r0, r4
 80067c6:	24a0      	movs	r4, #160	@ 0xa0
 80067c8:	0136      	lsls	r6, r6, #4
 80067ca:	43a5      	bics	r5, r4
 80067cc:	4034      	ands	r4, r6
 80067ce:	432c      	orrs	r4, r5
 80067d0:	6190      	str	r0, [r2, #24]
 80067d2:	6214      	str	r4, [r2, #32]
 80067d4:	6990      	ldr	r0, [r2, #24]
 80067d6:	4c36      	ldr	r4, [pc, #216]	@ (80068b0 <HAL_TIM_IC_ConfigChannel+0x1a8>)
 80067d8:	6889      	ldr	r1, [r1, #8]
 80067da:	4020      	ands	r0, r4
 80067dc:	6190      	str	r0, [r2, #24]
 80067de:	6990      	ldr	r0, [r2, #24]
 80067e0:	0209      	lsls	r1, r1, #8
 80067e2:	4301      	orrs	r1, r0
 80067e4:	6191      	str	r1, [r2, #24]
 80067e6:	2000      	movs	r0, #0
 80067e8:	e7a4      	b.n	8006734 <HAL_TIM_IC_ConfigChannel+0x2c>
 80067ea:	6808      	ldr	r0, [r1, #0]
 80067ec:	681a      	ldr	r2, [r3, #0]
 80067ee:	4680      	mov	r8, r0
 80067f0:	6a16      	ldr	r6, [r2, #32]
 80067f2:	4830      	ldr	r0, [pc, #192]	@ (80068b4 <HAL_TIM_IC_ConfigChannel+0x1ac>)
 80067f4:	6a17      	ldr	r7, [r2, #32]
 80067f6:	684d      	ldr	r5, [r1, #4]
 80067f8:	4007      	ands	r7, r0
 80067fa:	68cc      	ldr	r4, [r1, #12]
 80067fc:	6217      	str	r7, [r2, #32]
 80067fe:	69d7      	ldr	r7, [r2, #28]
 8006800:	4829      	ldr	r0, [pc, #164]	@ (80068a8 <HAL_TIM_IC_ConfigChannel+0x1a0>)
 8006802:	022d      	lsls	r5, r5, #8
 8006804:	4007      	ands	r7, r0
 8006806:	433d      	orrs	r5, r7
 8006808:	4f28      	ldr	r7, [pc, #160]	@ (80068ac <HAL_TIM_IC_ConfigChannel+0x1a4>)
 800680a:	0724      	lsls	r4, r4, #28
 800680c:	403d      	ands	r5, r7
 800680e:	0c24      	lsrs	r4, r4, #16
 8006810:	432c      	orrs	r4, r5
 8006812:	4d29      	ldr	r5, [pc, #164]	@ (80068b8 <HAL_TIM_IC_ConfigChannel+0x1b0>)
 8006814:	4640      	mov	r0, r8
 8006816:	4035      	ands	r5, r6
 8006818:	26a0      	movs	r6, #160	@ 0xa0
 800681a:	0300      	lsls	r0, r0, #12
 800681c:	0236      	lsls	r6, r6, #8
 800681e:	4030      	ands	r0, r6
 8006820:	4328      	orrs	r0, r5
 8006822:	61d4      	str	r4, [r2, #28]
 8006824:	6210      	str	r0, [r2, #32]
 8006826:	69d0      	ldr	r0, [r2, #28]
 8006828:	4c21      	ldr	r4, [pc, #132]	@ (80068b0 <HAL_TIM_IC_ConfigChannel+0x1a8>)
 800682a:	6889      	ldr	r1, [r1, #8]
 800682c:	4020      	ands	r0, r4
 800682e:	61d0      	str	r0, [r2, #28]
 8006830:	69d0      	ldr	r0, [r2, #28]
 8006832:	0209      	lsls	r1, r1, #8
 8006834:	4301      	orrs	r1, r0
 8006836:	61d1      	str	r1, [r2, #28]
 8006838:	2000      	movs	r0, #0
 800683a:	e77b      	b.n	8006734 <HAL_TIM_IC_ConfigChannel+0x2c>
 800683c:	2403      	movs	r4, #3
 800683e:	4660      	mov	r0, ip
 8006840:	43a0      	bics	r0, r4
 8006842:	0004      	movs	r4, r0
 8006844:	4648      	mov	r0, r9
 8006846:	4320      	orrs	r0, r4
 8006848:	e792      	b.n	8006770 <HAL_TIM_IC_ConfigChannel+0x68>
 800684a:	681a      	ldr	r2, [r3, #0]
 800684c:	6808      	ldr	r0, [r1, #0]
 800684e:	6a16      	ldr	r6, [r2, #32]
 8006850:	4680      	mov	r8, r0
 8006852:	6a14      	ldr	r4, [r2, #32]
 8006854:	4819      	ldr	r0, [pc, #100]	@ (80068bc <HAL_TIM_IC_ConfigChannel+0x1b4>)
 8006856:	684d      	ldr	r5, [r1, #4]
 8006858:	4004      	ands	r4, r0
 800685a:	68cf      	ldr	r7, [r1, #12]
 800685c:	6214      	str	r4, [r2, #32]
 800685e:	69d4      	ldr	r4, [r2, #28]
 8006860:	3005      	adds	r0, #5
 8006862:	30ff      	adds	r0, #255	@ 0xff
 8006864:	4384      	bics	r4, r0
 8006866:	4325      	orrs	r5, r4
 8006868:	24f0      	movs	r4, #240	@ 0xf0
 800686a:	013f      	lsls	r7, r7, #4
 800686c:	43a5      	bics	r5, r4
 800686e:	340f      	adds	r4, #15
 8006870:	403c      	ands	r4, r7
 8006872:	432c      	orrs	r4, r5
 8006874:	4d12      	ldr	r5, [pc, #72]	@ (80068c0 <HAL_TIM_IC_ConfigChannel+0x1b8>)
 8006876:	4640      	mov	r0, r8
 8006878:	4035      	ands	r5, r6
 800687a:	26a0      	movs	r6, #160	@ 0xa0
 800687c:	61d4      	str	r4, [r2, #28]
 800687e:	240c      	movs	r4, #12
 8006880:	0200      	lsls	r0, r0, #8
 8006882:	0136      	lsls	r6, r6, #4
 8006884:	4030      	ands	r0, r6
 8006886:	4328      	orrs	r0, r5
 8006888:	6210      	str	r0, [r2, #32]
 800688a:	69d0      	ldr	r0, [r2, #28]
 800688c:	6889      	ldr	r1, [r1, #8]
 800688e:	43a0      	bics	r0, r4
 8006890:	61d0      	str	r0, [r2, #28]
 8006892:	69d0      	ldr	r0, [r2, #28]
 8006894:	4301      	orrs	r1, r0
 8006896:	61d1      	str	r1, [r2, #28]
 8006898:	2000      	movs	r0, #0
 800689a:	e74b      	b.n	8006734 <HAL_TIM_IC_ConfigChannel+0x2c>
 800689c:	2002      	movs	r0, #2
 800689e:	e74c      	b.n	800673a <HAL_TIM_IC_ConfigChannel+0x32>
 80068a0:	40012c00 	.word	0x40012c00
 80068a4:	40000400 	.word	0x40000400
 80068a8:	fffffcff 	.word	0xfffffcff
 80068ac:	ffff0fff 	.word	0xffff0fff
 80068b0:	fffff3ff 	.word	0xfffff3ff
 80068b4:	ffffefff 	.word	0xffffefff
 80068b8:	ffff5fff 	.word	0xffff5fff
 80068bc:	fffffeff 	.word	0xfffffeff
 80068c0:	fffff5ff 	.word	0xfffff5ff

080068c4 <HAL_TIM_PWM_ConfigChannel>:
 80068c4:	0003      	movs	r3, r0
 80068c6:	203c      	movs	r0, #60	@ 0x3c
 80068c8:	b5f0      	push	{r4, r5, r6, r7, lr}
 80068ca:	5c1c      	ldrb	r4, [r3, r0]
 80068cc:	2c01      	cmp	r4, #1
 80068ce:	d100      	bne.n	80068d2 <HAL_TIM_PWM_ConfigChannel+0xe>
 80068d0:	e170      	b.n	8006bb4 <HAL_TIM_PWM_ConfigChannel+0x2f0>
 80068d2:	2401      	movs	r4, #1
 80068d4:	541c      	strb	r4, [r3, r0]
 80068d6:	2a14      	cmp	r2, #20
 80068d8:	d803      	bhi.n	80068e2 <HAL_TIM_PWM_ConfigChannel+0x1e>
 80068da:	48b7      	ldr	r0, [pc, #732]	@ (8006bb8 <HAL_TIM_PWM_ConfigChannel+0x2f4>)
 80068dc:	0092      	lsls	r2, r2, #2
 80068de:	5882      	ldr	r2, [r0, r2]
 80068e0:	4697      	mov	pc, r2
 80068e2:	2001      	movs	r0, #1
 80068e4:	223c      	movs	r2, #60	@ 0x3c
 80068e6:	2100      	movs	r1, #0
 80068e8:	5499      	strb	r1, [r3, r2]
 80068ea:	bdf0      	pop	{r4, r5, r6, r7, pc}
 80068ec:	681a      	ldr	r2, [r3, #0]
 80068ee:	4db3      	ldr	r5, [pc, #716]	@ (8006bbc <HAL_TIM_PWM_ConfigChannel+0x2f8>)
 80068f0:	6a14      	ldr	r4, [r2, #32]
 80068f2:	6a10      	ldr	r0, [r2, #32]
 80068f4:	4028      	ands	r0, r5
 80068f6:	6210      	str	r0, [r2, #32]
 80068f8:	4db1      	ldr	r5, [pc, #708]	@ (8006bc0 <HAL_TIM_PWM_ConfigChannel+0x2fc>)
 80068fa:	6856      	ldr	r6, [r2, #4]
 80068fc:	6d50      	ldr	r0, [r2, #84]	@ 0x54
 80068fe:	4028      	ands	r0, r5
 8006900:	680d      	ldr	r5, [r1, #0]
 8006902:	022d      	lsls	r5, r5, #8
 8006904:	4305      	orrs	r5, r0
 8006906:	48af      	ldr	r0, [pc, #700]	@ (8006bc4 <HAL_TIM_PWM_ConfigChannel+0x300>)
 8006908:	4004      	ands	r4, r0
 800690a:	6888      	ldr	r0, [r1, #8]
 800690c:	0500      	lsls	r0, r0, #20
 800690e:	4320      	orrs	r0, r4
 8006910:	4cad      	ldr	r4, [pc, #692]	@ (8006bc8 <HAL_TIM_PWM_ConfigChannel+0x304>)
 8006912:	42a2      	cmp	r2, r4
 8006914:	d100      	bne.n	8006918 <HAL_TIM_PWM_ConfigChannel+0x54>
 8006916:	e113      	b.n	8006b40 <HAL_TIM_PWM_ConfigChannel+0x27c>
 8006918:	4cac      	ldr	r4, [pc, #688]	@ (8006bcc <HAL_TIM_PWM_ConfigChannel+0x308>)
 800691a:	42a2      	cmp	r2, r4
 800691c:	d100      	bne.n	8006920 <HAL_TIM_PWM_ConfigChannel+0x5c>
 800691e:	e10f      	b.n	8006b40 <HAL_TIM_PWM_ConfigChannel+0x27c>
 8006920:	4cab      	ldr	r4, [pc, #684]	@ (8006bd0 <HAL_TIM_PWM_ConfigChannel+0x30c>)
 8006922:	42a2      	cmp	r2, r4
 8006924:	d100      	bne.n	8006928 <HAL_TIM_PWM_ConfigChannel+0x64>
 8006926:	e10b      	b.n	8006b40 <HAL_TIM_PWM_ConfigChannel+0x27c>
 8006928:	684c      	ldr	r4, [r1, #4]
 800692a:	6056      	str	r6, [r2, #4]
 800692c:	6555      	str	r5, [r2, #84]	@ 0x54
 800692e:	65d4      	str	r4, [r2, #92]	@ 0x5c
 8006930:	6210      	str	r0, [r2, #32]
 8006932:	2080      	movs	r0, #128	@ 0x80
 8006934:	6d54      	ldr	r4, [r2, #84]	@ 0x54
 8006936:	0100      	lsls	r0, r0, #4
 8006938:	4320      	orrs	r0, r4
 800693a:	6550      	str	r0, [r2, #84]	@ 0x54
 800693c:	6d50      	ldr	r0, [r2, #84]	@ 0x54
 800693e:	4ca5      	ldr	r4, [pc, #660]	@ (8006bd4 <HAL_TIM_PWM_ConfigChannel+0x310>)
 8006940:	6909      	ldr	r1, [r1, #16]
 8006942:	4020      	ands	r0, r4
 8006944:	6550      	str	r0, [r2, #84]	@ 0x54
 8006946:	6d50      	ldr	r0, [r2, #84]	@ 0x54
 8006948:	0209      	lsls	r1, r1, #8
 800694a:	4301      	orrs	r1, r0
 800694c:	6551      	str	r1, [r2, #84]	@ 0x54
 800694e:	2000      	movs	r0, #0
 8006950:	e7c8      	b.n	80068e4 <HAL_TIM_PWM_ConfigChannel+0x20>
 8006952:	2501      	movs	r5, #1
 8006954:	681a      	ldr	r2, [r3, #0]
 8006956:	6a10      	ldr	r0, [r2, #32]
 8006958:	6a14      	ldr	r4, [r2, #32]
 800695a:	43ac      	bics	r4, r5
 800695c:	6214      	str	r4, [r2, #32]
 800695e:	4d9e      	ldr	r5, [pc, #632]	@ (8006bd8 <HAL_TIM_PWM_ConfigChannel+0x314>)
 8006960:	6856      	ldr	r6, [r2, #4]
 8006962:	6994      	ldr	r4, [r2, #24]
 8006964:	402c      	ands	r4, r5
 8006966:	680d      	ldr	r5, [r1, #0]
 8006968:	432c      	orrs	r4, r5
 800696a:	2502      	movs	r5, #2
 800696c:	43a8      	bics	r0, r5
 800696e:	688d      	ldr	r5, [r1, #8]
 8006970:	4328      	orrs	r0, r5
 8006972:	4d95      	ldr	r5, [pc, #596]	@ (8006bc8 <HAL_TIM_PWM_ConfigChannel+0x304>)
 8006974:	42aa      	cmp	r2, r5
 8006976:	d100      	bne.n	800697a <HAL_TIM_PWM_ConfigChannel+0xb6>
 8006978:	e10f      	b.n	8006b9a <HAL_TIM_PWM_ConfigChannel+0x2d6>
 800697a:	4d94      	ldr	r5, [pc, #592]	@ (8006bcc <HAL_TIM_PWM_ConfigChannel+0x308>)
 800697c:	42aa      	cmp	r2, r5
 800697e:	d100      	bne.n	8006982 <HAL_TIM_PWM_ConfigChannel+0xbe>
 8006980:	e10b      	b.n	8006b9a <HAL_TIM_PWM_ConfigChannel+0x2d6>
 8006982:	4d93      	ldr	r5, [pc, #588]	@ (8006bd0 <HAL_TIM_PWM_ConfigChannel+0x30c>)
 8006984:	42aa      	cmp	r2, r5
 8006986:	d100      	bne.n	800698a <HAL_TIM_PWM_ConfigChannel+0xc6>
 8006988:	e107      	b.n	8006b9a <HAL_TIM_PWM_ConfigChannel+0x2d6>
 800698a:	6056      	str	r6, [r2, #4]
 800698c:	6194      	str	r4, [r2, #24]
 800698e:	684c      	ldr	r4, [r1, #4]
 8006990:	6909      	ldr	r1, [r1, #16]
 8006992:	6354      	str	r4, [r2, #52]	@ 0x34
 8006994:	2408      	movs	r4, #8
 8006996:	6210      	str	r0, [r2, #32]
 8006998:	6990      	ldr	r0, [r2, #24]
 800699a:	4320      	orrs	r0, r4
 800699c:	6190      	str	r0, [r2, #24]
 800699e:	6990      	ldr	r0, [r2, #24]
 80069a0:	3c04      	subs	r4, #4
 80069a2:	43a0      	bics	r0, r4
 80069a4:	6190      	str	r0, [r2, #24]
 80069a6:	6990      	ldr	r0, [r2, #24]
 80069a8:	4301      	orrs	r1, r0
 80069aa:	6191      	str	r1, [r2, #24]
 80069ac:	2000      	movs	r0, #0
 80069ae:	e799      	b.n	80068e4 <HAL_TIM_PWM_ConfigChannel+0x20>
 80069b0:	2510      	movs	r5, #16
 80069b2:	681a      	ldr	r2, [r3, #0]
 80069b4:	6a10      	ldr	r0, [r2, #32]
 80069b6:	6a14      	ldr	r4, [r2, #32]
 80069b8:	43ac      	bics	r4, r5
 80069ba:	6214      	str	r4, [r2, #32]
 80069bc:	4d87      	ldr	r5, [pc, #540]	@ (8006bdc <HAL_TIM_PWM_ConfigChannel+0x318>)
 80069be:	6857      	ldr	r7, [r2, #4]
 80069c0:	6994      	ldr	r4, [r2, #24]
 80069c2:	402c      	ands	r4, r5
 80069c4:	680d      	ldr	r5, [r1, #0]
 80069c6:	022d      	lsls	r5, r5, #8
 80069c8:	4325      	orrs	r5, r4
 80069ca:	2420      	movs	r4, #32
 80069cc:	43a0      	bics	r0, r4
 80069ce:	688c      	ldr	r4, [r1, #8]
 80069d0:	0124      	lsls	r4, r4, #4
 80069d2:	4304      	orrs	r4, r0
 80069d4:	487c      	ldr	r0, [pc, #496]	@ (8006bc8 <HAL_TIM_PWM_ConfigChannel+0x304>)
 80069d6:	4282      	cmp	r2, r0
 80069d8:	d100      	bne.n	80069dc <HAL_TIM_PWM_ConfigChannel+0x118>
 80069da:	e0cf      	b.n	8006b7c <HAL_TIM_PWM_ConfigChannel+0x2b8>
 80069dc:	487b      	ldr	r0, [pc, #492]	@ (8006bcc <HAL_TIM_PWM_ConfigChannel+0x308>)
 80069de:	4282      	cmp	r2, r0
 80069e0:	d100      	bne.n	80069e4 <HAL_TIM_PWM_ConfigChannel+0x120>
 80069e2:	e0d2      	b.n	8006b8a <HAL_TIM_PWM_ConfigChannel+0x2c6>
 80069e4:	487a      	ldr	r0, [pc, #488]	@ (8006bd0 <HAL_TIM_PWM_ConfigChannel+0x30c>)
 80069e6:	4282      	cmp	r2, r0
 80069e8:	d100      	bne.n	80069ec <HAL_TIM_PWM_ConfigChannel+0x128>
 80069ea:	e0ce      	b.n	8006b8a <HAL_TIM_PWM_ConfigChannel+0x2c6>
 80069ec:	6848      	ldr	r0, [r1, #4]
 80069ee:	6057      	str	r7, [r2, #4]
 80069f0:	6195      	str	r5, [r2, #24]
 80069f2:	6390      	str	r0, [r2, #56]	@ 0x38
 80069f4:	2080      	movs	r0, #128	@ 0x80
 80069f6:	6214      	str	r4, [r2, #32]
 80069f8:	6994      	ldr	r4, [r2, #24]
 80069fa:	0100      	lsls	r0, r0, #4
 80069fc:	4320      	orrs	r0, r4
 80069fe:	6190      	str	r0, [r2, #24]
 8006a00:	6990      	ldr	r0, [r2, #24]
 8006a02:	4c74      	ldr	r4, [pc, #464]	@ (8006bd4 <HAL_TIM_PWM_ConfigChannel+0x310>)
 8006a04:	6909      	ldr	r1, [r1, #16]
 8006a06:	4020      	ands	r0, r4
 8006a08:	6190      	str	r0, [r2, #24]
 8006a0a:	6990      	ldr	r0, [r2, #24]
 8006a0c:	0209      	lsls	r1, r1, #8
 8006a0e:	4301      	orrs	r1, r0
 8006a10:	6191      	str	r1, [r2, #24]
 8006a12:	2000      	movs	r0, #0
 8006a14:	e766      	b.n	80068e4 <HAL_TIM_PWM_ConfigChannel+0x20>
 8006a16:	681a      	ldr	r2, [r3, #0]
 8006a18:	4d71      	ldr	r5, [pc, #452]	@ (8006be0 <HAL_TIM_PWM_ConfigChannel+0x31c>)
 8006a1a:	6a10      	ldr	r0, [r2, #32]
 8006a1c:	6a14      	ldr	r4, [r2, #32]
 8006a1e:	680f      	ldr	r7, [r1, #0]
 8006a20:	402c      	ands	r4, r5
 8006a22:	6214      	str	r4, [r2, #32]
 8006a24:	6854      	ldr	r4, [r2, #4]
 8006a26:	4d6c      	ldr	r5, [pc, #432]	@ (8006bd8 <HAL_TIM_PWM_ConfigChannel+0x314>)
 8006a28:	46a4      	mov	ip, r4
 8006a2a:	69d4      	ldr	r4, [r2, #28]
 8006a2c:	688e      	ldr	r6, [r1, #8]
 8006a2e:	402c      	ands	r4, r5
 8006a30:	4327      	orrs	r7, r4
 8006a32:	4c6c      	ldr	r4, [pc, #432]	@ (8006be4 <HAL_TIM_PWM_ConfigChannel+0x320>)
 8006a34:	0236      	lsls	r6, r6, #8
 8006a36:	4020      	ands	r0, r4
 8006a38:	4306      	orrs	r6, r0
 8006a3a:	4863      	ldr	r0, [pc, #396]	@ (8006bc8 <HAL_TIM_PWM_ConfigChannel+0x304>)
 8006a3c:	4282      	cmp	r2, r0
 8006a3e:	d100      	bne.n	8006a42 <HAL_TIM_PWM_ConfigChannel+0x17e>
 8006a40:	e08a      	b.n	8006b58 <HAL_TIM_PWM_ConfigChannel+0x294>
 8006a42:	4862      	ldr	r0, [pc, #392]	@ (8006bcc <HAL_TIM_PWM_ConfigChannel+0x308>)
 8006a44:	4282      	cmp	r2, r0
 8006a46:	d100      	bne.n	8006a4a <HAL_TIM_PWM_ConfigChannel+0x186>
 8006a48:	e08d      	b.n	8006b66 <HAL_TIM_PWM_ConfigChannel+0x2a2>
 8006a4a:	4861      	ldr	r0, [pc, #388]	@ (8006bd0 <HAL_TIM_PWM_ConfigChannel+0x30c>)
 8006a4c:	4282      	cmp	r2, r0
 8006a4e:	d100      	bne.n	8006a52 <HAL_TIM_PWM_ConfigChannel+0x18e>
 8006a50:	e089      	b.n	8006b66 <HAL_TIM_PWM_ConfigChannel+0x2a2>
 8006a52:	4660      	mov	r0, ip
 8006a54:	2408      	movs	r4, #8
 8006a56:	6050      	str	r0, [r2, #4]
 8006a58:	6848      	ldr	r0, [r1, #4]
 8006a5a:	61d7      	str	r7, [r2, #28]
 8006a5c:	63d0      	str	r0, [r2, #60]	@ 0x3c
 8006a5e:	6216      	str	r6, [r2, #32]
 8006a60:	69d0      	ldr	r0, [r2, #28]
 8006a62:	6909      	ldr	r1, [r1, #16]
 8006a64:	4320      	orrs	r0, r4
 8006a66:	61d0      	str	r0, [r2, #28]
 8006a68:	69d0      	ldr	r0, [r2, #28]
 8006a6a:	3c04      	subs	r4, #4
 8006a6c:	43a0      	bics	r0, r4
 8006a6e:	61d0      	str	r0, [r2, #28]
 8006a70:	69d0      	ldr	r0, [r2, #28]
 8006a72:	4301      	orrs	r1, r0
 8006a74:	61d1      	str	r1, [r2, #28]
 8006a76:	2000      	movs	r0, #0
 8006a78:	e734      	b.n	80068e4 <HAL_TIM_PWM_ConfigChannel+0x20>
 8006a7a:	681a      	ldr	r2, [r3, #0]
 8006a7c:	4d5a      	ldr	r5, [pc, #360]	@ (8006be8 <HAL_TIM_PWM_ConfigChannel+0x324>)
 8006a7e:	6a14      	ldr	r4, [r2, #32]
 8006a80:	6a10      	ldr	r0, [r2, #32]
 8006a82:	4028      	ands	r0, r5
 8006a84:	6210      	str	r0, [r2, #32]
 8006a86:	4d55      	ldr	r5, [pc, #340]	@ (8006bdc <HAL_TIM_PWM_ConfigChannel+0x318>)
 8006a88:	6856      	ldr	r6, [r2, #4]
 8006a8a:	69d0      	ldr	r0, [r2, #28]
 8006a8c:	4028      	ands	r0, r5
 8006a8e:	680d      	ldr	r5, [r1, #0]
 8006a90:	022d      	lsls	r5, r5, #8
 8006a92:	4305      	orrs	r5, r0
 8006a94:	4855      	ldr	r0, [pc, #340]	@ (8006bec <HAL_TIM_PWM_ConfigChannel+0x328>)
 8006a96:	4004      	ands	r4, r0
 8006a98:	6888      	ldr	r0, [r1, #8]
 8006a9a:	0300      	lsls	r0, r0, #12
 8006a9c:	4320      	orrs	r0, r4
 8006a9e:	4c4a      	ldr	r4, [pc, #296]	@ (8006bc8 <HAL_TIM_PWM_ConfigChannel+0x304>)
 8006aa0:	42a2      	cmp	r2, r4
 8006aa2:	d053      	beq.n	8006b4c <HAL_TIM_PWM_ConfigChannel+0x288>
 8006aa4:	4c49      	ldr	r4, [pc, #292]	@ (8006bcc <HAL_TIM_PWM_ConfigChannel+0x308>)
 8006aa6:	42a2      	cmp	r2, r4
 8006aa8:	d050      	beq.n	8006b4c <HAL_TIM_PWM_ConfigChannel+0x288>
 8006aaa:	4c49      	ldr	r4, [pc, #292]	@ (8006bd0 <HAL_TIM_PWM_ConfigChannel+0x30c>)
 8006aac:	42a2      	cmp	r2, r4
 8006aae:	d04d      	beq.n	8006b4c <HAL_TIM_PWM_ConfigChannel+0x288>
 8006ab0:	684c      	ldr	r4, [r1, #4]
 8006ab2:	6056      	str	r6, [r2, #4]
 8006ab4:	61d5      	str	r5, [r2, #28]
 8006ab6:	6414      	str	r4, [r2, #64]	@ 0x40
 8006ab8:	6210      	str	r0, [r2, #32]
 8006aba:	2080      	movs	r0, #128	@ 0x80
 8006abc:	69d4      	ldr	r4, [r2, #28]
 8006abe:	0100      	lsls	r0, r0, #4
 8006ac0:	4320      	orrs	r0, r4
 8006ac2:	61d0      	str	r0, [r2, #28]
 8006ac4:	69d0      	ldr	r0, [r2, #28]
 8006ac6:	4c43      	ldr	r4, [pc, #268]	@ (8006bd4 <HAL_TIM_PWM_ConfigChannel+0x310>)
 8006ac8:	6909      	ldr	r1, [r1, #16]
 8006aca:	4020      	ands	r0, r4
 8006acc:	61d0      	str	r0, [r2, #28]
 8006ace:	69d0      	ldr	r0, [r2, #28]
 8006ad0:	0209      	lsls	r1, r1, #8
 8006ad2:	4301      	orrs	r1, r0
 8006ad4:	61d1      	str	r1, [r2, #28]
 8006ad6:	2000      	movs	r0, #0
 8006ad8:	e704      	b.n	80068e4 <HAL_TIM_PWM_ConfigChannel+0x20>
 8006ada:	681a      	ldr	r2, [r3, #0]
 8006adc:	4d44      	ldr	r5, [pc, #272]	@ (8006bf0 <HAL_TIM_PWM_ConfigChannel+0x32c>)
 8006ade:	6a14      	ldr	r4, [r2, #32]
 8006ae0:	6a10      	ldr	r0, [r2, #32]
 8006ae2:	4e44      	ldr	r6, [pc, #272]	@ (8006bf4 <HAL_TIM_PWM_ConfigChannel+0x330>)
 8006ae4:	4028      	ands	r0, r5
 8006ae6:	6210      	str	r0, [r2, #32]
 8006ae8:	6855      	ldr	r5, [r2, #4]
 8006aea:	6d50      	ldr	r0, [r2, #84]	@ 0x54
 8006aec:	4030      	ands	r0, r6
 8006aee:	680e      	ldr	r6, [r1, #0]
 8006af0:	4306      	orrs	r6, r0
 8006af2:	4841      	ldr	r0, [pc, #260]	@ (8006bf8 <HAL_TIM_PWM_ConfigChannel+0x334>)
 8006af4:	4004      	ands	r4, r0
 8006af6:	6888      	ldr	r0, [r1, #8]
 8006af8:	0400      	lsls	r0, r0, #16
 8006afa:	4320      	orrs	r0, r4
 8006afc:	4c32      	ldr	r4, [pc, #200]	@ (8006bc8 <HAL_TIM_PWM_ConfigChannel+0x304>)
 8006afe:	42a2      	cmp	r2, r4
 8006b00:	d018      	beq.n	8006b34 <HAL_TIM_PWM_ConfigChannel+0x270>
 8006b02:	4c32      	ldr	r4, [pc, #200]	@ (8006bcc <HAL_TIM_PWM_ConfigChannel+0x308>)
 8006b04:	42a2      	cmp	r2, r4
 8006b06:	d015      	beq.n	8006b34 <HAL_TIM_PWM_ConfigChannel+0x270>
 8006b08:	4c31      	ldr	r4, [pc, #196]	@ (8006bd0 <HAL_TIM_PWM_ConfigChannel+0x30c>)
 8006b0a:	42a2      	cmp	r2, r4
 8006b0c:	d012      	beq.n	8006b34 <HAL_TIM_PWM_ConfigChannel+0x270>
 8006b0e:	684c      	ldr	r4, [r1, #4]
 8006b10:	6055      	str	r5, [r2, #4]
 8006b12:	6556      	str	r6, [r2, #84]	@ 0x54
 8006b14:	6594      	str	r4, [r2, #88]	@ 0x58
 8006b16:	2408      	movs	r4, #8
 8006b18:	6210      	str	r0, [r2, #32]
 8006b1a:	6d50      	ldr	r0, [r2, #84]	@ 0x54
 8006b1c:	6909      	ldr	r1, [r1, #16]
 8006b1e:	4320      	orrs	r0, r4
 8006b20:	6550      	str	r0, [r2, #84]	@ 0x54
 8006b22:	6d50      	ldr	r0, [r2, #84]	@ 0x54
 8006b24:	3c04      	subs	r4, #4
 8006b26:	43a0      	bics	r0, r4
 8006b28:	6550      	str	r0, [r2, #84]	@ 0x54
 8006b2a:	6d50      	ldr	r0, [r2, #84]	@ 0x54
 8006b2c:	4301      	orrs	r1, r0
 8006b2e:	6551      	str	r1, [r2, #84]	@ 0x54
 8006b30:	2000      	movs	r0, #0
 8006b32:	e6d7      	b.n	80068e4 <HAL_TIM_PWM_ConfigChannel+0x20>
 8006b34:	4c2e      	ldr	r4, [pc, #184]	@ (8006bf0 <HAL_TIM_PWM_ConfigChannel+0x32c>)
 8006b36:	402c      	ands	r4, r5
 8006b38:	694d      	ldr	r5, [r1, #20]
 8006b3a:	022d      	lsls	r5, r5, #8
 8006b3c:	4325      	orrs	r5, r4
 8006b3e:	e7e6      	b.n	8006b0e <HAL_TIM_PWM_ConfigChannel+0x24a>
 8006b40:	4c2e      	ldr	r4, [pc, #184]	@ (8006bfc <HAL_TIM_PWM_ConfigChannel+0x338>)
 8006b42:	4034      	ands	r4, r6
 8006b44:	694e      	ldr	r6, [r1, #20]
 8006b46:	02b6      	lsls	r6, r6, #10
 8006b48:	4326      	orrs	r6, r4
 8006b4a:	e6ed      	b.n	8006928 <HAL_TIM_PWM_ConfigChannel+0x64>
 8006b4c:	4c2c      	ldr	r4, [pc, #176]	@ (8006c00 <HAL_TIM_PWM_ConfigChannel+0x33c>)
 8006b4e:	4034      	ands	r4, r6
 8006b50:	694e      	ldr	r6, [r1, #20]
 8006b52:	01b6      	lsls	r6, r6, #6
 8006b54:	4326      	orrs	r6, r4
 8006b56:	e7ab      	b.n	8006ab0 <HAL_TIM_PWM_ConfigChannel+0x1ec>
 8006b58:	482a      	ldr	r0, [pc, #168]	@ (8006c04 <HAL_TIM_PWM_ConfigChannel+0x340>)
 8006b5a:	68cc      	ldr	r4, [r1, #12]
 8006b5c:	4030      	ands	r0, r6
 8006b5e:	0224      	lsls	r4, r4, #8
 8006b60:	4e1c      	ldr	r6, [pc, #112]	@ (8006bd4 <HAL_TIM_PWM_ConfigChannel+0x310>)
 8006b62:	4304      	orrs	r4, r0
 8006b64:	4026      	ands	r6, r4
 8006b66:	4660      	mov	r0, ip
 8006b68:	4d27      	ldr	r5, [pc, #156]	@ (8006c08 <HAL_TIM_PWM_ConfigChannel+0x344>)
 8006b6a:	698c      	ldr	r4, [r1, #24]
 8006b6c:	4028      	ands	r0, r5
 8006b6e:	0005      	movs	r5, r0
 8006b70:	6948      	ldr	r0, [r1, #20]
 8006b72:	4320      	orrs	r0, r4
 8006b74:	0100      	lsls	r0, r0, #4
 8006b76:	4328      	orrs	r0, r5
 8006b78:	4684      	mov	ip, r0
 8006b7a:	e76a      	b.n	8006a52 <HAL_TIM_PWM_ConfigChannel+0x18e>
 8006b7c:	2080      	movs	r0, #128	@ 0x80
 8006b7e:	4384      	bics	r4, r0
 8006b80:	68c8      	ldr	r0, [r1, #12]
 8006b82:	0100      	lsls	r0, r0, #4
 8006b84:	4304      	orrs	r4, r0
 8006b86:	2040      	movs	r0, #64	@ 0x40
 8006b88:	4384      	bics	r4, r0
 8006b8a:	4e20      	ldr	r6, [pc, #128]	@ (8006c0c <HAL_TIM_PWM_ConfigChannel+0x348>)
 8006b8c:	6948      	ldr	r0, [r1, #20]
 8006b8e:	403e      	ands	r6, r7
 8006b90:	698f      	ldr	r7, [r1, #24]
 8006b92:	4307      	orrs	r7, r0
 8006b94:	00bf      	lsls	r7, r7, #2
 8006b96:	4337      	orrs	r7, r6
 8006b98:	e728      	b.n	80069ec <HAL_TIM_PWM_ConfigChannel+0x128>
 8006b9a:	2508      	movs	r5, #8
 8006b9c:	43a8      	bics	r0, r5
 8006b9e:	68cd      	ldr	r5, [r1, #12]
 8006ba0:	698f      	ldr	r7, [r1, #24]
 8006ba2:	4328      	orrs	r0, r5
 8006ba4:	2504      	movs	r5, #4
 8006ba6:	43a8      	bics	r0, r5
 8006ba8:	4d19      	ldr	r5, [pc, #100]	@ (8006c10 <HAL_TIM_PWM_ConfigChannel+0x34c>)
 8006baa:	4035      	ands	r5, r6
 8006bac:	694e      	ldr	r6, [r1, #20]
 8006bae:	433e      	orrs	r6, r7
 8006bb0:	432e      	orrs	r6, r5
 8006bb2:	e6ea      	b.n	800698a <HAL_TIM_PWM_ConfigChannel+0xc6>
 8006bb4:	2002      	movs	r0, #2
 8006bb6:	e698      	b.n	80068ea <HAL_TIM_PWM_ConfigChannel+0x26>
 8006bb8:	0800887c 	.word	0x0800887c
 8006bbc:	ffefffff 	.word	0xffefffff
 8006bc0:	feff8fff 	.word	0xfeff8fff
 8006bc4:	ffdfffff 	.word	0xffdfffff
 8006bc8:	40012c00 	.word	0x40012c00
 8006bcc:	40014400 	.word	0x40014400
 8006bd0:	40014800 	.word	0x40014800
 8006bd4:	fffffbff 	.word	0xfffffbff
 8006bd8:	fffeff8c 	.word	0xfffeff8c
 8006bdc:	feff8cff 	.word	0xfeff8cff
 8006be0:	fffffeff 	.word	0xfffffeff
 8006be4:	fffffdff 	.word	0xfffffdff
 8006be8:	ffffefff 	.word	0xffffefff
 8006bec:	ffffdfff 	.word	0xffffdfff
 8006bf0:	fffeffff 	.word	0xfffeffff
 8006bf4:	fffeff8f 	.word	0xfffeff8f
 8006bf8:	fffdffff 	.word	0xfffdffff
 8006bfc:	fffbffff 	.word	0xfffbffff
 8006c00:	ffffbfff 	.word	0xffffbfff
 8006c04:	fffff7ff 	.word	0xfffff7ff
 8006c08:	ffffcfff 	.word	0xffffcfff
 8006c0c:	fffff3ff 	.word	0xfffff3ff
 8006c10:	fffffcff 	.word	0xfffffcff

08006c14 <HAL_TIM_ConfigClockSource>:
 8006c14:	223c      	movs	r2, #60	@ 0x3c
 8006c16:	b570      	push	{r4, r5, r6, lr}
 8006c18:	0003      	movs	r3, r0
 8006c1a:	5c80      	ldrb	r0, [r0, r2]
 8006c1c:	2801      	cmp	r0, #1
 8006c1e:	d100      	bne.n	8006c22 <HAL_TIM_ConfigClockSource+0xe>
 8006c20:	e06f      	b.n	8006d02 <HAL_TIM_ConfigClockSource+0xee>
 8006c22:	2401      	movs	r4, #1
 8006c24:	2002      	movs	r0, #2
 8006c26:	549c      	strb	r4, [r3, r2]
 8006c28:	3201      	adds	r2, #1
 8006c2a:	5498      	strb	r0, [r3, r2]
 8006c2c:	681a      	ldr	r2, [r3, #0]
 8006c2e:	4d4e      	ldr	r5, [pc, #312]	@ (8006d68 <HAL_TIM_ConfigClockSource+0x154>)
 8006c30:	6890      	ldr	r0, [r2, #8]
 8006c32:	4028      	ands	r0, r5
 8006c34:	6090      	str	r0, [r2, #8]
 8006c36:	6808      	ldr	r0, [r1, #0]
 8006c38:	2860      	cmp	r0, #96	@ 0x60
 8006c3a:	d100      	bne.n	8006c3e <HAL_TIM_ConfigClockSource+0x2a>
 8006c3c:	e07a      	b.n	8006d34 <HAL_TIM_ConfigClockSource+0x120>
 8006c3e:	d80b      	bhi.n	8006c58 <HAL_TIM_ConfigClockSource+0x44>
 8006c40:	2840      	cmp	r0, #64	@ 0x40
 8006c42:	d060      	beq.n	8006d06 <HAL_TIM_ConfigClockSource+0xf2>
 8006c44:	d829      	bhi.n	8006c9a <HAL_TIM_ConfigClockSource+0x86>
 8006c46:	2820      	cmp	r0, #32
 8006c48:	d053      	beq.n	8006cf2 <HAL_TIM_ConfigClockSource+0xde>
 8006c4a:	d850      	bhi.n	8006cee <HAL_TIM_ConfigClockSource+0xda>
 8006c4c:	2110      	movs	r1, #16
 8006c4e:	0004      	movs	r4, r0
 8006c50:	438c      	bics	r4, r1
 8006c52:	d04e      	beq.n	8006cf2 <HAL_TIM_ConfigClockSource+0xde>
 8006c54:	2001      	movs	r0, #1
 8006c56:	e019      	b.n	8006c8c <HAL_TIM_ConfigClockSource+0x78>
 8006c58:	2480      	movs	r4, #128	@ 0x80
 8006c5a:	0164      	lsls	r4, r4, #5
 8006c5c:	42a0      	cmp	r0, r4
 8006c5e:	d014      	beq.n	8006c8a <HAL_TIM_ConfigClockSource+0x76>
 8006c60:	2480      	movs	r4, #128	@ 0x80
 8006c62:	01a4      	lsls	r4, r4, #6
 8006c64:	42a0      	cmp	r0, r4
 8006c66:	d031      	beq.n	8006ccc <HAL_TIM_ConfigClockSource+0xb8>
 8006c68:	2870      	cmp	r0, #112	@ 0x70
 8006c6a:	d1f3      	bne.n	8006c54 <HAL_TIM_ConfigClockSource+0x40>
 8006c6c:	6894      	ldr	r4, [r2, #8]
 8006c6e:	483f      	ldr	r0, [pc, #252]	@ (8006d6c <HAL_TIM_ConfigClockSource+0x158>)
 8006c70:	684d      	ldr	r5, [r1, #4]
 8006c72:	4004      	ands	r4, r0
 8006c74:	6888      	ldr	r0, [r1, #8]
 8006c76:	68c9      	ldr	r1, [r1, #12]
 8006c78:	4328      	orrs	r0, r5
 8006c7a:	0209      	lsls	r1, r1, #8
 8006c7c:	4301      	orrs	r1, r0
 8006c7e:	2077      	movs	r0, #119	@ 0x77
 8006c80:	4321      	orrs	r1, r4
 8006c82:	6091      	str	r1, [r2, #8]
 8006c84:	6891      	ldr	r1, [r2, #8]
 8006c86:	4301      	orrs	r1, r0
 8006c88:	6091      	str	r1, [r2, #8]
 8006c8a:	2000      	movs	r0, #0
 8006c8c:	223d      	movs	r2, #61	@ 0x3d
 8006c8e:	2101      	movs	r1, #1
 8006c90:	5499      	strb	r1, [r3, r2]
 8006c92:	2100      	movs	r1, #0
 8006c94:	3a01      	subs	r2, #1
 8006c96:	5499      	strb	r1, [r3, r2]
 8006c98:	bd70      	pop	{r4, r5, r6, pc}
 8006c9a:	2850      	cmp	r0, #80	@ 0x50
 8006c9c:	d1da      	bne.n	8006c54 <HAL_TIM_ConfigClockSource+0x40>
 8006c9e:	6a15      	ldr	r5, [r2, #32]
 8006ca0:	6a16      	ldr	r6, [r2, #32]
 8006ca2:	6848      	ldr	r0, [r1, #4]
 8006ca4:	43a6      	bics	r6, r4
 8006ca6:	68c9      	ldr	r1, [r1, #12]
 8006ca8:	6216      	str	r6, [r2, #32]
 8006caa:	26f0      	movs	r6, #240	@ 0xf0
 8006cac:	6994      	ldr	r4, [r2, #24]
 8006cae:	0109      	lsls	r1, r1, #4
 8006cb0:	43b4      	bics	r4, r6
 8006cb2:	4321      	orrs	r1, r4
 8006cb4:	240a      	movs	r4, #10
 8006cb6:	43a5      	bics	r5, r4
 8006cb8:	4328      	orrs	r0, r5
 8006cba:	6191      	str	r1, [r2, #24]
 8006cbc:	6210      	str	r0, [r2, #32]
 8006cbe:	6891      	ldr	r1, [r2, #8]
 8006cc0:	482b      	ldr	r0, [pc, #172]	@ (8006d70 <HAL_TIM_ConfigClockSource+0x15c>)
 8006cc2:	4001      	ands	r1, r0
 8006cc4:	2057      	movs	r0, #87	@ 0x57
 8006cc6:	4301      	orrs	r1, r0
 8006cc8:	6091      	str	r1, [r2, #8]
 8006cca:	e7de      	b.n	8006c8a <HAL_TIM_ConfigClockSource+0x76>
 8006ccc:	6894      	ldr	r4, [r2, #8]
 8006cce:	4827      	ldr	r0, [pc, #156]	@ (8006d6c <HAL_TIM_ConfigClockSource+0x158>)
 8006cd0:	684d      	ldr	r5, [r1, #4]
 8006cd2:	4004      	ands	r4, r0
 8006cd4:	6888      	ldr	r0, [r1, #8]
 8006cd6:	68c9      	ldr	r1, [r1, #12]
 8006cd8:	4328      	orrs	r0, r5
 8006cda:	0209      	lsls	r1, r1, #8
 8006cdc:	4301      	orrs	r1, r0
 8006cde:	4321      	orrs	r1, r4
 8006ce0:	6091      	str	r1, [r2, #8]
 8006ce2:	2180      	movs	r1, #128	@ 0x80
 8006ce4:	6890      	ldr	r0, [r2, #8]
 8006ce6:	01c9      	lsls	r1, r1, #7
 8006ce8:	4301      	orrs	r1, r0
 8006cea:	6091      	str	r1, [r2, #8]
 8006cec:	e7cd      	b.n	8006c8a <HAL_TIM_ConfigClockSource+0x76>
 8006cee:	2830      	cmp	r0, #48	@ 0x30
 8006cf0:	d1b0      	bne.n	8006c54 <HAL_TIM_ConfigClockSource+0x40>
 8006cf2:	6891      	ldr	r1, [r2, #8]
 8006cf4:	4c1e      	ldr	r4, [pc, #120]	@ (8006d70 <HAL_TIM_ConfigClockSource+0x15c>)
 8006cf6:	4021      	ands	r1, r4
 8006cf8:	4301      	orrs	r1, r0
 8006cfa:	2007      	movs	r0, #7
 8006cfc:	4301      	orrs	r1, r0
 8006cfe:	6091      	str	r1, [r2, #8]
 8006d00:	e7c3      	b.n	8006c8a <HAL_TIM_ConfigClockSource+0x76>
 8006d02:	2002      	movs	r0, #2
 8006d04:	e7c8      	b.n	8006c98 <HAL_TIM_ConfigClockSource+0x84>
 8006d06:	6a15      	ldr	r5, [r2, #32]
 8006d08:	6a16      	ldr	r6, [r2, #32]
 8006d0a:	6848      	ldr	r0, [r1, #4]
 8006d0c:	43a6      	bics	r6, r4
 8006d0e:	68c9      	ldr	r1, [r1, #12]
 8006d10:	6216      	str	r6, [r2, #32]
 8006d12:	26f0      	movs	r6, #240	@ 0xf0
 8006d14:	6994      	ldr	r4, [r2, #24]
 8006d16:	0109      	lsls	r1, r1, #4
 8006d18:	43b4      	bics	r4, r6
 8006d1a:	4321      	orrs	r1, r4
 8006d1c:	240a      	movs	r4, #10
 8006d1e:	43a5      	bics	r5, r4
 8006d20:	4328      	orrs	r0, r5
 8006d22:	6191      	str	r1, [r2, #24]
 8006d24:	6210      	str	r0, [r2, #32]
 8006d26:	6891      	ldr	r1, [r2, #8]
 8006d28:	4811      	ldr	r0, [pc, #68]	@ (8006d70 <HAL_TIM_ConfigClockSource+0x15c>)
 8006d2a:	4001      	ands	r1, r0
 8006d2c:	2047      	movs	r0, #71	@ 0x47
 8006d2e:	4301      	orrs	r1, r0
 8006d30:	6091      	str	r1, [r2, #8]
 8006d32:	e7aa      	b.n	8006c8a <HAL_TIM_ConfigClockSource+0x76>
 8006d34:	2610      	movs	r6, #16
 8006d36:	6a15      	ldr	r5, [r2, #32]
 8006d38:	6848      	ldr	r0, [r1, #4]
 8006d3a:	68cc      	ldr	r4, [r1, #12]
 8006d3c:	6a11      	ldr	r1, [r2, #32]
 8006d3e:	0324      	lsls	r4, r4, #12
 8006d40:	43b1      	bics	r1, r6
 8006d42:	6211      	str	r1, [r2, #32]
 8006d44:	6991      	ldr	r1, [r2, #24]
 8006d46:	4e0b      	ldr	r6, [pc, #44]	@ (8006d74 <HAL_TIM_ConfigClockSource+0x160>)
 8006d48:	4031      	ands	r1, r6
 8006d4a:	430c      	orrs	r4, r1
 8006d4c:	21a0      	movs	r1, #160	@ 0xa0
 8006d4e:	438d      	bics	r5, r1
 8006d50:	0101      	lsls	r1, r0, #4
 8006d52:	4329      	orrs	r1, r5
 8006d54:	6194      	str	r4, [r2, #24]
 8006d56:	6211      	str	r1, [r2, #32]
 8006d58:	6891      	ldr	r1, [r2, #8]
 8006d5a:	4805      	ldr	r0, [pc, #20]	@ (8006d70 <HAL_TIM_ConfigClockSource+0x15c>)
 8006d5c:	4001      	ands	r1, r0
 8006d5e:	2067      	movs	r0, #103	@ 0x67
 8006d60:	4301      	orrs	r1, r0
 8006d62:	6091      	str	r1, [r2, #8]
 8006d64:	e791      	b.n	8006c8a <HAL_TIM_ConfigClockSource+0x76>
 8006d66:	46c0      	nop			@ (mov r8, r8)
 8006d68:	ffce0088 	.word	0xffce0088
 8006d6c:	ffff00ff 	.word	0xffff00ff
 8006d70:	ffcfff8f 	.word	0xffcfff8f
 8006d74:	ffff0fff 	.word	0xffff0fff

08006d78 <HAL_TIM_ReadCapturedValue>:
 8006d78:	2908      	cmp	r1, #8
 8006d7a:	d00e      	beq.n	8006d9a <HAL_TIM_ReadCapturedValue+0x22>
 8006d7c:	d806      	bhi.n	8006d8c <HAL_TIM_ReadCapturedValue+0x14>
 8006d7e:	2900      	cmp	r1, #0
 8006d80:	d00e      	beq.n	8006da0 <HAL_TIM_ReadCapturedValue+0x28>
 8006d82:	2904      	cmp	r1, #4
 8006d84:	d107      	bne.n	8006d96 <HAL_TIM_ReadCapturedValue+0x1e>
 8006d86:	6803      	ldr	r3, [r0, #0]
 8006d88:	6b98      	ldr	r0, [r3, #56]	@ 0x38
 8006d8a:	e003      	b.n	8006d94 <HAL_TIM_ReadCapturedValue+0x1c>
 8006d8c:	290c      	cmp	r1, #12
 8006d8e:	d102      	bne.n	8006d96 <HAL_TIM_ReadCapturedValue+0x1e>
 8006d90:	6803      	ldr	r3, [r0, #0]
 8006d92:	6c18      	ldr	r0, [r3, #64]	@ 0x40
 8006d94:	4770      	bx	lr
 8006d96:	2000      	movs	r0, #0
 8006d98:	e7fc      	b.n	8006d94 <HAL_TIM_ReadCapturedValue+0x1c>
 8006d9a:	6803      	ldr	r3, [r0, #0]
 8006d9c:	6bd8      	ldr	r0, [r3, #60]	@ 0x3c
 8006d9e:	e7f9      	b.n	8006d94 <HAL_TIM_ReadCapturedValue+0x1c>
 8006da0:	6803      	ldr	r3, [r0, #0]
 8006da2:	6b58      	ldr	r0, [r3, #52]	@ 0x34
 8006da4:	e7f6      	b.n	8006d94 <HAL_TIM_ReadCapturedValue+0x1c>
 8006da6:	46c0      	nop			@ (mov r8, r8)

08006da8 <HAL_TIM_RegisterCallback>:
 8006da8:	0003      	movs	r3, r0
 8006daa:	b530      	push	{r4, r5, lr}
 8006dac:	2a00      	cmp	r2, #0
 8006dae:	d00e      	beq.n	8006dce <HAL_TIM_RegisterCallback+0x26>
 8006db0:	253d      	movs	r5, #61	@ 0x3d
 8006db2:	5d44      	ldrb	r4, [r0, r5]
 8006db4:	b2e0      	uxtb	r0, r4
 8006db6:	2c01      	cmp	r4, #1
 8006db8:	d00b      	beq.n	8006dd2 <HAL_TIM_RegisterCallback+0x2a>
 8006dba:	5d5c      	ldrb	r4, [r3, r5]
 8006dbc:	2001      	movs	r0, #1
 8006dbe:	2c00      	cmp	r4, #0
 8006dc0:	d106      	bne.n	8006dd0 <HAL_TIM_RegisterCallback+0x28>
 8006dc2:	290d      	cmp	r1, #13
 8006dc4:	d804      	bhi.n	8006dd0 <HAL_TIM_RegisterCallback+0x28>
 8006dc6:	4837      	ldr	r0, [pc, #220]	@ (8006ea4 <HAL_TIM_RegisterCallback+0xfc>)
 8006dc8:	0089      	lsls	r1, r1, #2
 8006dca:	5841      	ldr	r1, [r0, r1]
 8006dcc:	468f      	mov	pc, r1
 8006dce:	2001      	movs	r0, #1
 8006dd0:	bd30      	pop	{r4, r5, pc}
 8006dd2:	291b      	cmp	r1, #27
 8006dd4:	d8fc      	bhi.n	8006dd0 <HAL_TIM_RegisterCallback+0x28>
 8006dd6:	4834      	ldr	r0, [pc, #208]	@ (8006ea8 <HAL_TIM_RegisterCallback+0x100>)
 8006dd8:	0089      	lsls	r1, r1, #2
 8006dda:	5841      	ldr	r1, [r0, r1]
 8006ddc:	468f      	mov	pc, r1
 8006dde:	2000      	movs	r0, #0
 8006de0:	67da      	str	r2, [r3, #124]	@ 0x7c
 8006de2:	e7f5      	b.n	8006dd0 <HAL_TIM_RegisterCallback+0x28>
 8006de4:	2180      	movs	r1, #128	@ 0x80
 8006de6:	2000      	movs	r0, #0
 8006de8:	505a      	str	r2, [r3, r1]
 8006dea:	e7f1      	b.n	8006dd0 <HAL_TIM_RegisterCallback+0x28>
 8006dec:	2000      	movs	r0, #0
 8006dee:	64da      	str	r2, [r3, #76]	@ 0x4c
 8006df0:	e7ee      	b.n	8006dd0 <HAL_TIM_RegisterCallback+0x28>
 8006df2:	2000      	movs	r0, #0
 8006df4:	651a      	str	r2, [r3, #80]	@ 0x50
 8006df6:	e7eb      	b.n	8006dd0 <HAL_TIM_RegisterCallback+0x28>
 8006df8:	2000      	movs	r0, #0
 8006dfa:	655a      	str	r2, [r3, #84]	@ 0x54
 8006dfc:	e7e8      	b.n	8006dd0 <HAL_TIM_RegisterCallback+0x28>
 8006dfe:	2000      	movs	r0, #0
 8006e00:	659a      	str	r2, [r3, #88]	@ 0x58
 8006e02:	e7e5      	b.n	8006dd0 <HAL_TIM_RegisterCallback+0x28>
 8006e04:	2000      	movs	r0, #0
 8006e06:	65da      	str	r2, [r3, #92]	@ 0x5c
 8006e08:	e7e2      	b.n	8006dd0 <HAL_TIM_RegisterCallback+0x28>
 8006e0a:	2000      	movs	r0, #0
 8006e0c:	661a      	str	r2, [r3, #96]	@ 0x60
 8006e0e:	e7df      	b.n	8006dd0 <HAL_TIM_RegisterCallback+0x28>
 8006e10:	2000      	movs	r0, #0
 8006e12:	665a      	str	r2, [r3, #100]	@ 0x64
 8006e14:	e7dc      	b.n	8006dd0 <HAL_TIM_RegisterCallback+0x28>
 8006e16:	2000      	movs	r0, #0
 8006e18:	669a      	str	r2, [r3, #104]	@ 0x68
 8006e1a:	e7d9      	b.n	8006dd0 <HAL_TIM_RegisterCallback+0x28>
 8006e1c:	2000      	movs	r0, #0
 8006e1e:	66da      	str	r2, [r3, #108]	@ 0x6c
 8006e20:	e7d6      	b.n	8006dd0 <HAL_TIM_RegisterCallback+0x28>
 8006e22:	2000      	movs	r0, #0
 8006e24:	671a      	str	r2, [r3, #112]	@ 0x70
 8006e26:	e7d3      	b.n	8006dd0 <HAL_TIM_RegisterCallback+0x28>
 8006e28:	2000      	movs	r0, #0
 8006e2a:	675a      	str	r2, [r3, #116]	@ 0x74
 8006e2c:	e7d0      	b.n	8006dd0 <HAL_TIM_RegisterCallback+0x28>
 8006e2e:	2000      	movs	r0, #0
 8006e30:	679a      	str	r2, [r3, #120]	@ 0x78
 8006e32:	e7cd      	b.n	8006dd0 <HAL_TIM_RegisterCallback+0x28>
 8006e34:	2184      	movs	r1, #132	@ 0x84
 8006e36:	2000      	movs	r0, #0
 8006e38:	505a      	str	r2, [r3, r1]
 8006e3a:	e7c9      	b.n	8006dd0 <HAL_TIM_RegisterCallback+0x28>
 8006e3c:	2188      	movs	r1, #136	@ 0x88
 8006e3e:	2000      	movs	r0, #0
 8006e40:	505a      	str	r2, [r3, r1]
 8006e42:	e7c5      	b.n	8006dd0 <HAL_TIM_RegisterCallback+0x28>
 8006e44:	21b8      	movs	r1, #184	@ 0xb8
 8006e46:	2000      	movs	r0, #0
 8006e48:	505a      	str	r2, [r3, r1]
 8006e4a:	e7c1      	b.n	8006dd0 <HAL_TIM_RegisterCallback+0x28>
 8006e4c:	21b4      	movs	r1, #180	@ 0xb4
 8006e4e:	2000      	movs	r0, #0
 8006e50:	505a      	str	r2, [r3, r1]
 8006e52:	e7bd      	b.n	8006dd0 <HAL_TIM_RegisterCallback+0x28>
 8006e54:	21ac      	movs	r1, #172	@ 0xac
 8006e56:	2000      	movs	r0, #0
 8006e58:	505a      	str	r2, [r3, r1]
 8006e5a:	e7b9      	b.n	8006dd0 <HAL_TIM_RegisterCallback+0x28>
 8006e5c:	21b0      	movs	r1, #176	@ 0xb0
 8006e5e:	2000      	movs	r0, #0
 8006e60:	505a      	str	r2, [r3, r1]
 8006e62:	e7b5      	b.n	8006dd0 <HAL_TIM_RegisterCallback+0x28>
 8006e64:	218c      	movs	r1, #140	@ 0x8c
 8006e66:	2000      	movs	r0, #0
 8006e68:	505a      	str	r2, [r3, r1]
 8006e6a:	e7b1      	b.n	8006dd0 <HAL_TIM_RegisterCallback+0x28>
 8006e6c:	2190      	movs	r1, #144	@ 0x90
 8006e6e:	2000      	movs	r0, #0
 8006e70:	505a      	str	r2, [r3, r1]
 8006e72:	e7ad      	b.n	8006dd0 <HAL_TIM_RegisterCallback+0x28>
 8006e74:	2194      	movs	r1, #148	@ 0x94
 8006e76:	2000      	movs	r0, #0
 8006e78:	505a      	str	r2, [r3, r1]
 8006e7a:	e7a9      	b.n	8006dd0 <HAL_TIM_RegisterCallback+0x28>
 8006e7c:	2198      	movs	r1, #152	@ 0x98
 8006e7e:	2000      	movs	r0, #0
 8006e80:	505a      	str	r2, [r3, r1]
 8006e82:	e7a5      	b.n	8006dd0 <HAL_TIM_RegisterCallback+0x28>
 8006e84:	219c      	movs	r1, #156	@ 0x9c
 8006e86:	2000      	movs	r0, #0
 8006e88:	505a      	str	r2, [r3, r1]
 8006e8a:	e7a1      	b.n	8006dd0 <HAL_TIM_RegisterCallback+0x28>
 8006e8c:	21a0      	movs	r1, #160	@ 0xa0
 8006e8e:	2000      	movs	r0, #0
 8006e90:	505a      	str	r2, [r3, r1]
 8006e92:	e79d      	b.n	8006dd0 <HAL_TIM_RegisterCallback+0x28>
 8006e94:	21a4      	movs	r1, #164	@ 0xa4
 8006e96:	2000      	movs	r0, #0
 8006e98:	505a      	str	r2, [r3, r1]
 8006e9a:	e799      	b.n	8006dd0 <HAL_TIM_RegisterCallback+0x28>
 8006e9c:	21a8      	movs	r1, #168	@ 0xa8
 8006e9e:	2000      	movs	r0, #0
 8006ea0:	505a      	str	r2, [r3, r1]
 8006ea2:	e795      	b.n	8006dd0 <HAL_TIM_RegisterCallback+0x28>
 8006ea4:	080088d0 	.word	0x080088d0
 8006ea8:	08008908 	.word	0x08008908

08006eac <HAL_TIMEx_MasterConfigSynchronization>:
 8006eac:	233c      	movs	r3, #60	@ 0x3c
 8006eae:	b570      	push	{r4, r5, r6, lr}
 8006eb0:	5cc3      	ldrb	r3, [r0, r3]
 8006eb2:	2b01      	cmp	r3, #1
 8006eb4:	d02a      	beq.n	8006f0c <HAL_TIMEx_MasterConfigSynchronization+0x60>
 8006eb6:	233d      	movs	r3, #61	@ 0x3d
 8006eb8:	2202      	movs	r2, #2
 8006eba:	54c2      	strb	r2, [r0, r3]
 8006ebc:	6803      	ldr	r3, [r0, #0]
 8006ebe:	4e14      	ldr	r6, [pc, #80]	@ (8006f10 <HAL_TIMEx_MasterConfigSynchronization+0x64>)
 8006ec0:	685a      	ldr	r2, [r3, #4]
 8006ec2:	680d      	ldr	r5, [r1, #0]
 8006ec4:	689c      	ldr	r4, [r3, #8]
 8006ec6:	42b3      	cmp	r3, r6
 8006ec8:	d017      	beq.n	8006efa <HAL_TIMEx_MasterConfigSynchronization+0x4e>
 8006eca:	2670      	movs	r6, #112	@ 0x70
 8006ecc:	43b2      	bics	r2, r6
 8006ece:	432a      	orrs	r2, r5
 8006ed0:	605a      	str	r2, [r3, #4]
 8006ed2:	2280      	movs	r2, #128	@ 0x80
 8006ed4:	05d2      	lsls	r2, r2, #23
 8006ed6:	4293      	cmp	r3, r2
 8006ed8:	d002      	beq.n	8006ee0 <HAL_TIMEx_MasterConfigSynchronization+0x34>
 8006eda:	4a0e      	ldr	r2, [pc, #56]	@ (8006f14 <HAL_TIMEx_MasterConfigSynchronization+0x68>)
 8006edc:	4293      	cmp	r3, r2
 8006ede:	d104      	bne.n	8006eea <HAL_TIMEx_MasterConfigSynchronization+0x3e>
 8006ee0:	2280      	movs	r2, #128	@ 0x80
 8006ee2:	4394      	bics	r4, r2
 8006ee4:	688a      	ldr	r2, [r1, #8]
 8006ee6:	4314      	orrs	r4, r2
 8006ee8:	609c      	str	r4, [r3, #8]
 8006eea:	233d      	movs	r3, #61	@ 0x3d
 8006eec:	2201      	movs	r2, #1
 8006eee:	54c2      	strb	r2, [r0, r3]
 8006ef0:	2200      	movs	r2, #0
 8006ef2:	3b01      	subs	r3, #1
 8006ef4:	54c2      	strb	r2, [r0, r3]
 8006ef6:	2000      	movs	r0, #0
 8006ef8:	bd70      	pop	{r4, r5, r6, pc}
 8006efa:	4e07      	ldr	r6, [pc, #28]	@ (8006f18 <HAL_TIMEx_MasterConfigSynchronization+0x6c>)
 8006efc:	4032      	ands	r2, r6
 8006efe:	684e      	ldr	r6, [r1, #4]
 8006f00:	4332      	orrs	r2, r6
 8006f02:	2670      	movs	r6, #112	@ 0x70
 8006f04:	43b2      	bics	r2, r6
 8006f06:	4315      	orrs	r5, r2
 8006f08:	605d      	str	r5, [r3, #4]
 8006f0a:	e7e9      	b.n	8006ee0 <HAL_TIMEx_MasterConfigSynchronization+0x34>
 8006f0c:	2002      	movs	r0, #2
 8006f0e:	e7f3      	b.n	8006ef8 <HAL_TIMEx_MasterConfigSynchronization+0x4c>
 8006f10:	40012c00 	.word	0x40012c00
 8006f14:	40000400 	.word	0x40000400
 8006f18:	ff0fffff 	.word	0xff0fffff

08006f1c <HAL_TIMEx_ConfigBreakDeadTime>:
 8006f1c:	233c      	movs	r3, #60	@ 0x3c
 8006f1e:	b510      	push	{r4, lr}
 8006f20:	5cc3      	ldrb	r3, [r0, r3]
 8006f22:	2b01      	cmp	r3, #1
 8006f24:	d03d      	beq.n	8006fa2 <HAL_TIMEx_ConfigBreakDeadTime+0x86>
 8006f26:	4a20      	ldr	r2, [pc, #128]	@ (8006fa8 <HAL_TIMEx_ConfigBreakDeadTime+0x8c>)
 8006f28:	68cb      	ldr	r3, [r1, #12]
 8006f2a:	6804      	ldr	r4, [r0, #0]
 8006f2c:	4013      	ands	r3, r2
 8006f2e:	688a      	ldr	r2, [r1, #8]
 8006f30:	4313      	orrs	r3, r2
 8006f32:	4a1e      	ldr	r2, [pc, #120]	@ (8006fac <HAL_TIMEx_ConfigBreakDeadTime+0x90>)
 8006f34:	4013      	ands	r3, r2
 8006f36:	684a      	ldr	r2, [r1, #4]
 8006f38:	4313      	orrs	r3, r2
 8006f3a:	4a1d      	ldr	r2, [pc, #116]	@ (8006fb0 <HAL_TIMEx_ConfigBreakDeadTime+0x94>)
 8006f3c:	4013      	ands	r3, r2
 8006f3e:	680a      	ldr	r2, [r1, #0]
 8006f40:	4313      	orrs	r3, r2
 8006f42:	4a1c      	ldr	r2, [pc, #112]	@ (8006fb4 <HAL_TIMEx_ConfigBreakDeadTime+0x98>)
 8006f44:	4013      	ands	r3, r2
 8006f46:	690a      	ldr	r2, [r1, #16]
 8006f48:	4313      	orrs	r3, r2
 8006f4a:	4a1b      	ldr	r2, [pc, #108]	@ (8006fb8 <HAL_TIMEx_ConfigBreakDeadTime+0x9c>)
 8006f4c:	4013      	ands	r3, r2
 8006f4e:	694a      	ldr	r2, [r1, #20]
 8006f50:	4313      	orrs	r3, r2
 8006f52:	4a1a      	ldr	r2, [pc, #104]	@ (8006fbc <HAL_TIMEx_ConfigBreakDeadTime+0xa0>)
 8006f54:	4013      	ands	r3, r2
 8006f56:	6b0a      	ldr	r2, [r1, #48]	@ 0x30
 8006f58:	4313      	orrs	r3, r2
 8006f5a:	4a19      	ldr	r2, [pc, #100]	@ (8006fc0 <HAL_TIMEx_ConfigBreakDeadTime+0xa4>)
 8006f5c:	4013      	ands	r3, r2
 8006f5e:	698a      	ldr	r2, [r1, #24]
 8006f60:	0412      	lsls	r2, r2, #16
 8006f62:	4313      	orrs	r3, r2
 8006f64:	4a17      	ldr	r2, [pc, #92]	@ (8006fc4 <HAL_TIMEx_ConfigBreakDeadTime+0xa8>)
 8006f66:	4013      	ands	r3, r2
 8006f68:	69ca      	ldr	r2, [r1, #28]
 8006f6a:	4313      	orrs	r3, r2
 8006f6c:	4a16      	ldr	r2, [pc, #88]	@ (8006fc8 <HAL_TIMEx_ConfigBreakDeadTime+0xac>)
 8006f6e:	4294      	cmp	r4, r2
 8006f70:	d005      	beq.n	8006f7e <HAL_TIMEx_ConfigBreakDeadTime+0x62>
 8006f72:	6463      	str	r3, [r4, #68]	@ 0x44
 8006f74:	2200      	movs	r2, #0
 8006f76:	233c      	movs	r3, #60	@ 0x3c
 8006f78:	54c2      	strb	r2, [r0, r3]
 8006f7a:	2000      	movs	r0, #0
 8006f7c:	bd10      	pop	{r4, pc}
 8006f7e:	4a13      	ldr	r2, [pc, #76]	@ (8006fcc <HAL_TIMEx_ConfigBreakDeadTime+0xb0>)
 8006f80:	4013      	ands	r3, r2
 8006f82:	6a8a      	ldr	r2, [r1, #40]	@ 0x28
 8006f84:	0512      	lsls	r2, r2, #20
 8006f86:	431a      	orrs	r2, r3
 8006f88:	4b11      	ldr	r3, [pc, #68]	@ (8006fd0 <HAL_TIMEx_ConfigBreakDeadTime+0xb4>)
 8006f8a:	401a      	ands	r2, r3
 8006f8c:	6a0b      	ldr	r3, [r1, #32]
 8006f8e:	431a      	orrs	r2, r3
 8006f90:	4b10      	ldr	r3, [pc, #64]	@ (8006fd4 <HAL_TIMEx_ConfigBreakDeadTime+0xb8>)
 8006f92:	401a      	ands	r2, r3
 8006f94:	6a4b      	ldr	r3, [r1, #36]	@ 0x24
 8006f96:	431a      	orrs	r2, r3
 8006f98:	4b0f      	ldr	r3, [pc, #60]	@ (8006fd8 <HAL_TIMEx_ConfigBreakDeadTime+0xbc>)
 8006f9a:	401a      	ands	r2, r3
 8006f9c:	6acb      	ldr	r3, [r1, #44]	@ 0x2c
 8006f9e:	4313      	orrs	r3, r2
 8006fa0:	e7e7      	b.n	8006f72 <HAL_TIMEx_ConfigBreakDeadTime+0x56>
 8006fa2:	2002      	movs	r0, #2
 8006fa4:	e7ea      	b.n	8006f7c <HAL_TIMEx_ConfigBreakDeadTime+0x60>
 8006fa6:	46c0      	nop			@ (mov r8, r8)
 8006fa8:	fffffcff 	.word	0xfffffcff
 8006fac:	fffffbff 	.word	0xfffffbff
 8006fb0:	fffff7ff 	.word	0xfffff7ff
 8006fb4:	ffffefff 	.word	0xffffefff
 8006fb8:	ffffdfff 	.word	0xffffdfff
 8006fbc:	ffffbfff 	.word	0xffffbfff
 8006fc0:	fff0ffff 	.word	0xfff0ffff
 8006fc4:	efffffff 	.word	0xefffffff
 8006fc8:	40012c00 	.word	0x40012c00
 8006fcc:	ff0fffff 	.word	0xff0fffff
 8006fd0:	feffffff 	.word	0xfeffffff
 8006fd4:	fdffffff 	.word	0xfdffffff
 8006fd8:	dfffffff 	.word	0xdfffffff

08006fdc <HAL_TIMEx_CommutCallback>:
 8006fdc:	4770      	bx	lr
 8006fde:	46c0      	nop			@ (mov r8, r8)

08006fe0 <HAL_TIMEx_CommutHalfCpltCallback>:
 8006fe0:	4770      	bx	lr
 8006fe2:	46c0      	nop			@ (mov r8, r8)

08006fe4 <HAL_TIMEx_BreakCallback>:
 8006fe4:	4770      	bx	lr
 8006fe6:	46c0      	nop			@ (mov r8, r8)

08006fe8 <HAL_TIMEx_Break2Callback>:
 8006fe8:	4770      	bx	lr
 8006fea:	46c0      	nop			@ (mov r8, r8)

08006fec <HAL_UARTEx_RxEventCallback>:
 8006fec:	4770      	bx	lr
 8006fee:	46c0      	nop			@ (mov r8, r8)

08006ff0 <UART_DMAReceiveCplt>:
 8006ff0:	0003      	movs	r3, r0
 8006ff2:	681b      	ldr	r3, [r3, #0]
 8006ff4:	b570      	push	{r4, r5, r6, lr}
 8006ff6:	681a      	ldr	r2, [r3, #0]
 8006ff8:	2320      	movs	r3, #32
 8006ffa:	0019      	movs	r1, r3
 8006ffc:	6a80      	ldr	r0, [r0, #40]	@ 0x28
 8006ffe:	4011      	ands	r1, r2
 8007000:	4213      	tst	r3, r2
 8007002:	d127      	bne.n	8007054 <UART_DMAReceiveCplt+0x64>
 8007004:	225e      	movs	r2, #94	@ 0x5e
 8007006:	5281      	strh	r1, [r0, r2]
 8007008:	f3ef 8510 	mrs	r5, PRIMASK
 800700c:	3a5d      	subs	r2, #93	@ 0x5d
 800700e:	f382 8810 	msr	PRIMASK, r2
 8007012:	6804      	ldr	r4, [r0, #0]
 8007014:	4e1d      	ldr	r6, [pc, #116]	@ (800708c <UART_DMAReceiveCplt+0x9c>)
 8007016:	6821      	ldr	r1, [r4, #0]
 8007018:	4031      	ands	r1, r6
 800701a:	6021      	str	r1, [r4, #0]
 800701c:	f385 8810 	msr	PRIMASK, r5
 8007020:	f3ef 8510 	mrs	r5, PRIMASK
 8007024:	f382 8810 	msr	PRIMASK, r2
 8007028:	6804      	ldr	r4, [r0, #0]
 800702a:	68a1      	ldr	r1, [r4, #8]
 800702c:	4391      	bics	r1, r2
 800702e:	60a1      	str	r1, [r4, #8]
 8007030:	f385 8810 	msr	PRIMASK, r5
 8007034:	f3ef 8410 	mrs	r4, PRIMASK
 8007038:	f382 8810 	msr	PRIMASK, r2
 800703c:	2540      	movs	r5, #64	@ 0x40
 800703e:	6801      	ldr	r1, [r0, #0]
 8007040:	688a      	ldr	r2, [r1, #8]
 8007042:	43aa      	bics	r2, r5
 8007044:	608a      	str	r2, [r1, #8]
 8007046:	f384 8810 	msr	PRIMASK, r4
 800704a:	228c      	movs	r2, #140	@ 0x8c
 800704c:	5083      	str	r3, [r0, r2]
 800704e:	6ec3      	ldr	r3, [r0, #108]	@ 0x6c
 8007050:	2b01      	cmp	r3, #1
 8007052:	d00e      	beq.n	8007072 <UART_DMAReceiveCplt+0x82>
 8007054:	2300      	movs	r3, #0
 8007056:	6703      	str	r3, [r0, #112]	@ 0x70
 8007058:	6ec3      	ldr	r3, [r0, #108]	@ 0x6c
 800705a:	2b01      	cmp	r3, #1
 800705c:	d003      	beq.n	8007066 <UART_DMAReceiveCplt+0x76>
 800705e:	23a0      	movs	r3, #160	@ 0xa0
 8007060:	58c3      	ldr	r3, [r0, r3]
 8007062:	4798      	blx	r3
 8007064:	bd70      	pop	{r4, r5, r6, pc}
 8007066:	335b      	adds	r3, #91	@ 0x5b
 8007068:	5ac1      	ldrh	r1, [r0, r3]
 800706a:	3364      	adds	r3, #100	@ 0x64
 800706c:	58c3      	ldr	r3, [r0, r3]
 800706e:	4798      	blx	r3
 8007070:	e7f8      	b.n	8007064 <UART_DMAReceiveCplt+0x74>
 8007072:	f3ef 8110 	mrs	r1, PRIMASK
 8007076:	f383 8810 	msr	PRIMASK, r3
 800707a:	2410      	movs	r4, #16
 800707c:	6802      	ldr	r2, [r0, #0]
 800707e:	6813      	ldr	r3, [r2, #0]
 8007080:	43a3      	bics	r3, r4
 8007082:	6013      	str	r3, [r2, #0]
 8007084:	f381 8810 	msr	PRIMASK, r1
 8007088:	e7e4      	b.n	8007054 <UART_DMAReceiveCplt+0x64>
 800708a:	46c0      	nop			@ (mov r8, r8)
 800708c:	fffffeff 	.word	0xfffffeff

08007090 <UART_DMARxHalfCplt>:
 8007090:	2301      	movs	r3, #1
 8007092:	6a80      	ldr	r0, [r0, #40]	@ 0x28
 8007094:	b510      	push	{r4, lr}
 8007096:	6703      	str	r3, [r0, #112]	@ 0x70
 8007098:	6ec3      	ldr	r3, [r0, #108]	@ 0x6c
 800709a:	2b01      	cmp	r3, #1
 800709c:	d003      	beq.n	80070a6 <UART_DMARxHalfCplt+0x16>
 800709e:	239c      	movs	r3, #156	@ 0x9c
 80070a0:	58c3      	ldr	r3, [r0, r3]
 80070a2:	4798      	blx	r3
 80070a4:	bd10      	pop	{r4, pc}
 80070a6:	335b      	adds	r3, #91	@ 0x5b
 80070a8:	5ac1      	ldrh	r1, [r0, r3]
 80070aa:	3364      	adds	r3, #100	@ 0x64
 80070ac:	58c3      	ldr	r3, [r0, r3]
 80070ae:	0849      	lsrs	r1, r1, #1
 80070b0:	4798      	blx	r3
 80070b2:	e7f7      	b.n	80070a4 <UART_DMARxHalfCplt+0x14>

080070b4 <UART_DMAAbortOnError>:
 80070b4:	2300      	movs	r3, #0
 80070b6:	225e      	movs	r2, #94	@ 0x5e
 80070b8:	b510      	push	{r4, lr}
 80070ba:	6a80      	ldr	r0, [r0, #40]	@ 0x28
 80070bc:	5283      	strh	r3, [r0, r2]
 80070be:	3a08      	subs	r2, #8
 80070c0:	5283      	strh	r3, [r0, r2]
 80070c2:	33a4      	adds	r3, #164	@ 0xa4
 80070c4:	58c3      	ldr	r3, [r0, r3]
 80070c6:	4798      	blx	r3
 80070c8:	bd10      	pop	{r4, pc}
 80070ca:	46c0      	nop			@ (mov r8, r8)

080070cc <HAL_UART_AbortReceiveCpltCallback>:
 80070cc:	4770      	bx	lr
 80070ce:	46c0      	nop			@ (mov r8, r8)

080070d0 <HAL_UART_TxCpltCallback>:
 80070d0:	4770      	bx	lr
 80070d2:	46c0      	nop			@ (mov r8, r8)

080070d4 <HAL_UART_TxHalfCpltCallback>:
 80070d4:	4770      	bx	lr
 80070d6:	46c0      	nop			@ (mov r8, r8)

080070d8 <HAL_UART_RxCpltCallback>:
 80070d8:	4770      	bx	lr
 80070da:	46c0      	nop			@ (mov r8, r8)

080070dc <HAL_UART_RxHalfCpltCallback>:
 80070dc:	4770      	bx	lr
 80070de:	46c0      	nop			@ (mov r8, r8)

080070e0 <HAL_UART_ErrorCallback>:
 80070e0:	4770      	bx	lr
 80070e2:	46c0      	nop			@ (mov r8, r8)

080070e4 <HAL_UART_AbortCpltCallback>:
 80070e4:	4770      	bx	lr
 80070e6:	46c0      	nop			@ (mov r8, r8)

080070e8 <HAL_UART_AbortTransmitCpltCallback>:
 80070e8:	4770      	bx	lr
 80070ea:	46c0      	nop			@ (mov r8, r8)

080070ec <UART_DMAError>:
 80070ec:	b5f8      	push	{r3, r4, r5, r6, r7, lr}
 80070ee:	2188      	movs	r1, #136	@ 0x88
 80070f0:	238c      	movs	r3, #140	@ 0x8c
 80070f2:	6a80      	ldr	r0, [r0, #40]	@ 0x28
 80070f4:	5845      	ldr	r5, [r0, r1]
 80070f6:	58c4      	ldr	r4, [r0, r3]
 80070f8:	6803      	ldr	r3, [r0, #0]
 80070fa:	689a      	ldr	r2, [r3, #8]
 80070fc:	0612      	lsls	r2, r2, #24
 80070fe:	d501      	bpl.n	8007104 <UART_DMAError+0x18>
 8007100:	2d21      	cmp	r5, #33	@ 0x21
 8007102:	d00d      	beq.n	8007120 <UART_DMAError+0x34>
 8007104:	689b      	ldr	r3, [r3, #8]
 8007106:	065b      	lsls	r3, r3, #25
 8007108:	d501      	bpl.n	800710e <UART_DMAError+0x22>
 800710a:	2c22      	cmp	r4, #34	@ 0x22
 800710c:	d026      	beq.n	800715c <UART_DMAError+0x70>
 800710e:	2290      	movs	r2, #144	@ 0x90
 8007110:	2110      	movs	r1, #16
 8007112:	5883      	ldr	r3, [r0, r2]
 8007114:	430b      	orrs	r3, r1
 8007116:	5083      	str	r3, [r0, r2]
 8007118:	23a4      	movs	r3, #164	@ 0xa4
 800711a:	58c3      	ldr	r3, [r0, r3]
 800711c:	4798      	blx	r3
 800711e:	bdf8      	pop	{r3, r4, r5, r6, r7, pc}
 8007120:	2356      	movs	r3, #86	@ 0x56
 8007122:	2200      	movs	r2, #0
 8007124:	52c2      	strh	r2, [r0, r3]
 8007126:	f3ef 8610 	mrs	r6, PRIMASK
 800712a:	3201      	adds	r2, #1
 800712c:	f382 8810 	msr	PRIMASK, r2
 8007130:	27c0      	movs	r7, #192	@ 0xc0
 8007132:	6805      	ldr	r5, [r0, #0]
 8007134:	682b      	ldr	r3, [r5, #0]
 8007136:	43bb      	bics	r3, r7
 8007138:	602b      	str	r3, [r5, #0]
 800713a:	f386 8810 	msr	PRIMASK, r6
 800713e:	f3ef 8510 	mrs	r5, PRIMASK
 8007142:	f382 8810 	msr	PRIMASK, r2
 8007146:	6802      	ldr	r2, [r0, #0]
 8007148:	4e1c      	ldr	r6, [pc, #112]	@ (80071bc <UART_DMAError+0xd0>)
 800714a:	6893      	ldr	r3, [r2, #8]
 800714c:	4033      	ands	r3, r6
 800714e:	6093      	str	r3, [r2, #8]
 8007150:	f385 8810 	msr	PRIMASK, r5
 8007154:	2320      	movs	r3, #32
 8007156:	5043      	str	r3, [r0, r1]
 8007158:	6803      	ldr	r3, [r0, #0]
 800715a:	e7d3      	b.n	8007104 <UART_DMAError+0x18>
 800715c:	235e      	movs	r3, #94	@ 0x5e
 800715e:	2200      	movs	r2, #0
 8007160:	52c2      	strh	r2, [r0, r3]
 8007162:	f3ef 8410 	mrs	r4, PRIMASK
 8007166:	3201      	adds	r2, #1
 8007168:	f382 8810 	msr	PRIMASK, r2
 800716c:	6801      	ldr	r1, [r0, #0]
 800716e:	4d14      	ldr	r5, [pc, #80]	@ (80071c0 <UART_DMAError+0xd4>)
 8007170:	680b      	ldr	r3, [r1, #0]
 8007172:	402b      	ands	r3, r5
 8007174:	600b      	str	r3, [r1, #0]
 8007176:	f384 8810 	msr	PRIMASK, r4
 800717a:	f3ef 8110 	mrs	r1, PRIMASK
 800717e:	f382 8810 	msr	PRIMASK, r2
 8007182:	6802      	ldr	r2, [r0, #0]
 8007184:	4c0f      	ldr	r4, [pc, #60]	@ (80071c4 <UART_DMAError+0xd8>)
 8007186:	6893      	ldr	r3, [r2, #8]
 8007188:	4023      	ands	r3, r4
 800718a:	6093      	str	r3, [r2, #8]
 800718c:	f381 8810 	msr	PRIMASK, r1
 8007190:	6ec3      	ldr	r3, [r0, #108]	@ 0x6c
 8007192:	2b01      	cmp	r3, #1
 8007194:	d10a      	bne.n	80071ac <UART_DMAError+0xc0>
 8007196:	f3ef 8110 	mrs	r1, PRIMASK
 800719a:	f383 8810 	msr	PRIMASK, r3
 800719e:	2410      	movs	r4, #16
 80071a0:	6802      	ldr	r2, [r0, #0]
 80071a2:	6813      	ldr	r3, [r2, #0]
 80071a4:	43a3      	bics	r3, r4
 80071a6:	6013      	str	r3, [r2, #0]
 80071a8:	f381 8810 	msr	PRIMASK, r1
 80071ac:	238c      	movs	r3, #140	@ 0x8c
 80071ae:	2220      	movs	r2, #32
 80071b0:	50c2      	str	r2, [r0, r3]
 80071b2:	2300      	movs	r3, #0
 80071b4:	66c3      	str	r3, [r0, #108]	@ 0x6c
 80071b6:	6743      	str	r3, [r0, #116]	@ 0x74
 80071b8:	e7a9      	b.n	800710e <UART_DMAError+0x22>
 80071ba:	46c0      	nop			@ (mov r8, r8)
 80071bc:	ff7fffff 	.word	0xff7fffff
 80071c0:	fffffedf 	.word	0xfffffedf
 80071c4:	effffffe 	.word	0xeffffffe

080071c8 <HAL_UART_RegisterCallback>:
 80071c8:	b510      	push	{r4, lr}
 80071ca:	2a00      	cmp	r2, #0
 80071cc:	d006      	beq.n	80071dc <HAL_UART_RegisterCallback+0x14>
 80071ce:	2388      	movs	r3, #136	@ 0x88
 80071d0:	58c4      	ldr	r4, [r0, r3]
 80071d2:	2c20      	cmp	r4, #32
 80071d4:	d011      	beq.n	80071fa <HAL_UART_RegisterCallback+0x32>
 80071d6:	58c3      	ldr	r3, [r0, r3]
 80071d8:	2b00      	cmp	r3, #0
 80071da:	d006      	beq.n	80071ea <HAL_UART_RegisterCallback+0x22>
 80071dc:	2290      	movs	r2, #144	@ 0x90
 80071de:	2140      	movs	r1, #64	@ 0x40
 80071e0:	5883      	ldr	r3, [r0, r2]
 80071e2:	430b      	orrs	r3, r1
 80071e4:	5083      	str	r3, [r0, r2]
 80071e6:	2001      	movs	r0, #1
 80071e8:	bd10      	pop	{r4, pc}
 80071ea:	290b      	cmp	r1, #11
 80071ec:	d00b      	beq.n	8007206 <HAL_UART_RegisterCallback+0x3e>
 80071ee:	290c      	cmp	r1, #12
 80071f0:	d1f4      	bne.n	80071dc <HAL_UART_RegisterCallback+0x14>
 80071f2:	23c8      	movs	r3, #200	@ 0xc8
 80071f4:	50c2      	str	r2, [r0, r3]
 80071f6:	2000      	movs	r0, #0
 80071f8:	e7f6      	b.n	80071e8 <HAL_UART_RegisterCallback+0x20>
 80071fa:	290c      	cmp	r1, #12
 80071fc:	d8ee      	bhi.n	80071dc <HAL_UART_RegisterCallback+0x14>
 80071fe:	4b1a      	ldr	r3, [pc, #104]	@ (8007268 <HAL_UART_RegisterCallback+0xa0>)
 8007200:	0089      	lsls	r1, r1, #2
 8007202:	585b      	ldr	r3, [r3, r1]
 8007204:	469f      	mov	pc, r3
 8007206:	23c4      	movs	r3, #196	@ 0xc4
 8007208:	50c2      	str	r2, [r0, r3]
 800720a:	2000      	movs	r0, #0
 800720c:	e7ec      	b.n	80071e8 <HAL_UART_RegisterCallback+0x20>
 800720e:	239c      	movs	r3, #156	@ 0x9c
 8007210:	50c2      	str	r2, [r0, r3]
 8007212:	2000      	movs	r0, #0
 8007214:	e7e8      	b.n	80071e8 <HAL_UART_RegisterCallback+0x20>
 8007216:	23a0      	movs	r3, #160	@ 0xa0
 8007218:	50c2      	str	r2, [r0, r3]
 800721a:	2000      	movs	r0, #0
 800721c:	e7e4      	b.n	80071e8 <HAL_UART_RegisterCallback+0x20>
 800721e:	23a4      	movs	r3, #164	@ 0xa4
 8007220:	50c2      	str	r2, [r0, r3]
 8007222:	2000      	movs	r0, #0
 8007224:	e7e0      	b.n	80071e8 <HAL_UART_RegisterCallback+0x20>
 8007226:	23a8      	movs	r3, #168	@ 0xa8
 8007228:	50c2      	str	r2, [r0, r3]
 800722a:	2000      	movs	r0, #0
 800722c:	e7dc      	b.n	80071e8 <HAL_UART_RegisterCallback+0x20>
 800722e:	23ac      	movs	r3, #172	@ 0xac
 8007230:	50c2      	str	r2, [r0, r3]
 8007232:	2000      	movs	r0, #0
 8007234:	e7d8      	b.n	80071e8 <HAL_UART_RegisterCallback+0x20>
 8007236:	23b0      	movs	r3, #176	@ 0xb0
 8007238:	50c2      	str	r2, [r0, r3]
 800723a:	2000      	movs	r0, #0
 800723c:	e7d4      	b.n	80071e8 <HAL_UART_RegisterCallback+0x20>
 800723e:	23b4      	movs	r3, #180	@ 0xb4
 8007240:	50c2      	str	r2, [r0, r3]
 8007242:	2000      	movs	r0, #0
 8007244:	e7d0      	b.n	80071e8 <HAL_UART_RegisterCallback+0x20>
 8007246:	23b8      	movs	r3, #184	@ 0xb8
 8007248:	50c2      	str	r2, [r0, r3]
 800724a:	2000      	movs	r0, #0
 800724c:	e7cc      	b.n	80071e8 <HAL_UART_RegisterCallback+0x20>
 800724e:	2394      	movs	r3, #148	@ 0x94
 8007250:	50c2      	str	r2, [r0, r3]
 8007252:	2000      	movs	r0, #0
 8007254:	e7c8      	b.n	80071e8 <HAL_UART_RegisterCallback+0x20>
 8007256:	2398      	movs	r3, #152	@ 0x98
 8007258:	50c2      	str	r2, [r0, r3]
 800725a:	2000      	movs	r0, #0
 800725c:	e7c4      	b.n	80071e8 <HAL_UART_RegisterCallback+0x20>
 800725e:	23bc      	movs	r3, #188	@ 0xbc
 8007260:	50c2      	str	r2, [r0, r3]
 8007262:	2000      	movs	r0, #0
 8007264:	e7c0      	b.n	80071e8 <HAL_UART_RegisterCallback+0x20>
 8007266:	46c0      	nop			@ (mov r8, r8)
 8007268:	08008978 	.word	0x08008978

0800726c <HAL_UART_Receive_DMA>:
 800726c:	b5f8      	push	{r3, r4, r5, r6, r7, lr}
 800726e:	000d      	movs	r5, r1
 8007270:	218c      	movs	r1, #140	@ 0x8c
 8007272:	5841      	ldr	r1, [r0, r1]
 8007274:	0004      	movs	r4, r0
 8007276:	2920      	cmp	r1, #32
 8007278:	d160      	bne.n	800733c <HAL_UART_Receive_DMA+0xd0>
 800727a:	2d00      	cmp	r5, #0
 800727c:	d041      	beq.n	8007302 <HAL_UART_Receive_DMA+0x96>
 800727e:	2a00      	cmp	r2, #0
 8007280:	d03f      	beq.n	8007302 <HAL_UART_Receive_DMA+0x96>
 8007282:	2380      	movs	r3, #128	@ 0x80
 8007284:	6881      	ldr	r1, [r0, #8]
 8007286:	015b      	lsls	r3, r3, #5
 8007288:	4299      	cmp	r1, r3
 800728a:	d104      	bne.n	8007296 <HAL_UART_Receive_DMA+0x2a>
 800728c:	6903      	ldr	r3, [r0, #16]
 800728e:	2b00      	cmp	r3, #0
 8007290:	d101      	bne.n	8007296 <HAL_UART_Receive_DMA+0x2a>
 8007292:	07eb      	lsls	r3, r5, #31
 8007294:	d435      	bmi.n	8007302 <HAL_UART_Receive_DMA+0x96>
 8007296:	2300      	movs	r3, #0
 8007298:	4930      	ldr	r1, [pc, #192]	@ (800735c <HAL_UART_Receive_DMA+0xf0>)
 800729a:	66e3      	str	r3, [r4, #108]	@ 0x6c
 800729c:	6823      	ldr	r3, [r4, #0]
 800729e:	428b      	cmp	r3, r1
 80072a0:	d00f      	beq.n	80072c2 <HAL_UART_Receive_DMA+0x56>
 80072a2:	685b      	ldr	r3, [r3, #4]
 80072a4:	021b      	lsls	r3, r3, #8
 80072a6:	d50c      	bpl.n	80072c2 <HAL_UART_Receive_DMA+0x56>
 80072a8:	f3ef 8010 	mrs	r0, PRIMASK
 80072ac:	2301      	movs	r3, #1
 80072ae:	f383 8810 	msr	PRIMASK, r3
 80072b2:	2380      	movs	r3, #128	@ 0x80
 80072b4:	6821      	ldr	r1, [r4, #0]
 80072b6:	04db      	lsls	r3, r3, #19
 80072b8:	680e      	ldr	r6, [r1, #0]
 80072ba:	4333      	orrs	r3, r6
 80072bc:	600b      	str	r3, [r1, #0]
 80072be:	f380 8810 	msr	PRIMASK, r0
 80072c2:	235c      	movs	r3, #92	@ 0x5c
 80072c4:	65a5      	str	r5, [r4, #88]	@ 0x58
 80072c6:	2122      	movs	r1, #34	@ 0x22
 80072c8:	52e2      	strh	r2, [r4, r3]
 80072ca:	2790      	movs	r7, #144	@ 0x90
 80072cc:	2300      	movs	r3, #0
 80072ce:	268c      	movs	r6, #140	@ 0x8c
 80072d0:	51e3      	str	r3, [r4, r7]
 80072d2:	51a1      	str	r1, [r4, r6]
 80072d4:	315e      	adds	r1, #94	@ 0x5e
 80072d6:	5860      	ldr	r0, [r4, r1]
 80072d8:	2800      	cmp	r0, #0
 80072da:	d014      	beq.n	8007306 <HAL_UART_Receive_DMA+0x9a>
 80072dc:	4920      	ldr	r1, [pc, #128]	@ (8007360 <HAL_UART_Receive_DMA+0xf4>)
 80072de:	6383      	str	r3, [r0, #56]	@ 0x38
 80072e0:	62c1      	str	r1, [r0, #44]	@ 0x2c
 80072e2:	4920      	ldr	r1, [pc, #128]	@ (8007364 <HAL_UART_Receive_DMA+0xf8>)
 80072e4:	0013      	movs	r3, r2
 80072e6:	6301      	str	r1, [r0, #48]	@ 0x30
 80072e8:	491f      	ldr	r1, [pc, #124]	@ (8007368 <HAL_UART_Receive_DMA+0xfc>)
 80072ea:	002a      	movs	r2, r5
 80072ec:	6341      	str	r1, [r0, #52]	@ 0x34
 80072ee:	6821      	ldr	r1, [r4, #0]
 80072f0:	3124      	adds	r1, #36	@ 0x24
 80072f2:	f7fc ffdd 	bl	80042b0 <HAL_DMA_Start_IT>
 80072f6:	2800      	cmp	r0, #0
 80072f8:	d005      	beq.n	8007306 <HAL_UART_Receive_DMA+0x9a>
 80072fa:	2310      	movs	r3, #16
 80072fc:	51e3      	str	r3, [r4, r7]
 80072fe:	3310      	adds	r3, #16
 8007300:	51a3      	str	r3, [r4, r6]
 8007302:	2001      	movs	r0, #1
 8007304:	e019      	b.n	800733a <HAL_UART_Receive_DMA+0xce>
 8007306:	6923      	ldr	r3, [r4, #16]
 8007308:	2b00      	cmp	r3, #0
 800730a:	d119      	bne.n	8007340 <HAL_UART_Receive_DMA+0xd4>
 800730c:	f3ef 8010 	mrs	r0, PRIMASK
 8007310:	2301      	movs	r3, #1
 8007312:	f383 8810 	msr	PRIMASK, r3
 8007316:	6821      	ldr	r1, [r4, #0]
 8007318:	688a      	ldr	r2, [r1, #8]
 800731a:	431a      	orrs	r2, r3
 800731c:	608a      	str	r2, [r1, #8]
 800731e:	f380 8810 	msr	PRIMASK, r0
 8007322:	f3ef 8110 	mrs	r1, PRIMASK
 8007326:	f383 8810 	msr	PRIMASK, r3
 800732a:	2040      	movs	r0, #64	@ 0x40
 800732c:	6822      	ldr	r2, [r4, #0]
 800732e:	6893      	ldr	r3, [r2, #8]
 8007330:	4303      	orrs	r3, r0
 8007332:	6093      	str	r3, [r2, #8]
 8007334:	f381 8810 	msr	PRIMASK, r1
 8007338:	2000      	movs	r0, #0
 800733a:	bdf8      	pop	{r3, r4, r5, r6, r7, pc}
 800733c:	2002      	movs	r0, #2
 800733e:	e7fc      	b.n	800733a <HAL_UART_Receive_DMA+0xce>
 8007340:	f3ef 8110 	mrs	r1, PRIMASK
 8007344:	2301      	movs	r3, #1
 8007346:	f383 8810 	msr	PRIMASK, r3
 800734a:	6822      	ldr	r2, [r4, #0]
 800734c:	33ff      	adds	r3, #255	@ 0xff
 800734e:	6810      	ldr	r0, [r2, #0]
 8007350:	4303      	orrs	r3, r0
 8007352:	6013      	str	r3, [r2, #0]
 8007354:	f381 8810 	msr	PRIMASK, r1
 8007358:	e7d8      	b.n	800730c <HAL_UART_Receive_DMA+0xa0>
 800735a:	46c0      	nop			@ (mov r8, r8)
 800735c:	40008000 	.word	0x40008000
 8007360:	08006ff1 	.word	0x08006ff1
 8007364:	08007091 	.word	0x08007091
 8007368:	080070ed 	.word	0x080070ed

0800736c <HAL_UART_IRQHandler>:
 800736c:	b5f8      	push	{r3, r4, r5, r6, r7, lr}
 800736e:	4645      	mov	r5, r8
 8007370:	46de      	mov	lr, fp
 8007372:	4657      	mov	r7, sl
 8007374:	464e      	mov	r6, r9
 8007376:	6802      	ldr	r2, [r0, #0]
 8007378:	b5e0      	push	{r5, r6, r7, lr}
 800737a:	69d3      	ldr	r3, [r2, #28]
 800737c:	4db2      	ldr	r5, [pc, #712]	@ (8007648 <HAL_UART_IRQHandler+0x2dc>)
 800737e:	0004      	movs	r4, r0
 8007380:	6810      	ldr	r0, [r2, #0]
 8007382:	6891      	ldr	r1, [r2, #8]
 8007384:	422b      	tst	r3, r5
 8007386:	d14e      	bne.n	8007426 <HAL_UART_IRQHandler+0xba>
 8007388:	2520      	movs	r5, #32
 800738a:	421d      	tst	r5, r3
 800738c:	d006      	beq.n	800739c <HAL_UART_IRQHandler+0x30>
 800738e:	2680      	movs	r6, #128	@ 0x80
 8007390:	0576      	lsls	r6, r6, #21
 8007392:	4005      	ands	r5, r0
 8007394:	400e      	ands	r6, r1
 8007396:	4335      	orrs	r5, r6
 8007398:	d000      	beq.n	800739c <HAL_UART_IRQHandler+0x30>
 800739a:	e0d5      	b.n	8007548 <HAL_UART_IRQHandler+0x1dc>
 800739c:	6ee5      	ldr	r5, [r4, #108]	@ 0x6c
 800739e:	2d01      	cmp	r5, #1
 80073a0:	d100      	bne.n	80073a4 <HAL_UART_IRQHandler+0x38>
 80073a2:	e09e      	b.n	80074e2 <HAL_UART_IRQHandler+0x176>
 80073a4:	2580      	movs	r5, #128	@ 0x80
 80073a6:	036d      	lsls	r5, r5, #13
 80073a8:	422b      	tst	r3, r5
 80073aa:	d128      	bne.n	80073fe <HAL_UART_IRQHandler+0x92>
 80073ac:	2280      	movs	r2, #128	@ 0x80
 80073ae:	421a      	tst	r2, r3
 80073b0:	d006      	beq.n	80073c0 <HAL_UART_IRQHandler+0x54>
 80073b2:	2580      	movs	r5, #128	@ 0x80
 80073b4:	042d      	lsls	r5, r5, #16
 80073b6:	4002      	ands	r2, r0
 80073b8:	4029      	ands	r1, r5
 80073ba:	430a      	orrs	r2, r1
 80073bc:	d000      	beq.n	80073c0 <HAL_UART_IRQHandler+0x54>
 80073be:	e0ca      	b.n	8007556 <HAL_UART_IRQHandler+0x1ea>
 80073c0:	2240      	movs	r2, #64	@ 0x40
 80073c2:	421a      	tst	r2, r3
 80073c4:	d023      	beq.n	800740e <HAL_UART_IRQHandler+0xa2>
 80073c6:	4202      	tst	r2, r0
 80073c8:	d021      	beq.n	800740e <HAL_UART_IRQHandler+0xa2>
 80073ca:	f3ef 8010 	mrs	r0, PRIMASK
 80073ce:	2301      	movs	r3, #1
 80073d0:	f383 8810 	msr	PRIMASK, r3
 80073d4:	6821      	ldr	r1, [r4, #0]
 80073d6:	680b      	ldr	r3, [r1, #0]
 80073d8:	4393      	bics	r3, r2
 80073da:	600b      	str	r3, [r1, #0]
 80073dc:	f380 8810 	msr	PRIMASK, r0
 80073e0:	2388      	movs	r3, #136	@ 0x88
 80073e2:	3a20      	subs	r2, #32
 80073e4:	50e2      	str	r2, [r4, r3]
 80073e6:	2300      	movs	r3, #0
 80073e8:	67a3      	str	r3, [r4, #120]	@ 0x78
 80073ea:	3398      	adds	r3, #152	@ 0x98
 80073ec:	0020      	movs	r0, r4
 80073ee:	58e3      	ldr	r3, [r4, r3]
 80073f0:	4798      	blx	r3
 80073f2:	bcf0      	pop	{r4, r5, r6, r7}
 80073f4:	46bb      	mov	fp, r7
 80073f6:	46b2      	mov	sl, r6
 80073f8:	46a9      	mov	r9, r5
 80073fa:	46a0      	mov	r8, r4
 80073fc:	bdf8      	pop	{r3, r4, r5, r6, r7, pc}
 80073fe:	024e      	lsls	r6, r1, #9
 8007400:	d5d4      	bpl.n	80073ac <HAL_UART_IRQHandler+0x40>
 8007402:	23b4      	movs	r3, #180	@ 0xb4
 8007404:	0020      	movs	r0, r4
 8007406:	58e3      	ldr	r3, [r4, r3]
 8007408:	6215      	str	r5, [r2, #32]
 800740a:	4798      	blx	r3
 800740c:	e7f1      	b.n	80073f2 <HAL_UART_IRQHandler+0x86>
 800740e:	021a      	lsls	r2, r3, #8
 8007410:	d502      	bpl.n	8007418 <HAL_UART_IRQHandler+0xac>
 8007412:	0042      	lsls	r2, r0, #1
 8007414:	d500      	bpl.n	8007418 <HAL_UART_IRQHandler+0xac>
 8007416:	e112      	b.n	800763e <HAL_UART_IRQHandler+0x2d2>
 8007418:	01db      	lsls	r3, r3, #7
 800741a:	d5ea      	bpl.n	80073f2 <HAL_UART_IRQHandler+0x86>
 800741c:	2800      	cmp	r0, #0
 800741e:	dae8      	bge.n	80073f2 <HAL_UART_IRQHandler+0x86>
 8007420:	23b8      	movs	r3, #184	@ 0xb8
 8007422:	58e3      	ldr	r3, [r4, r3]
 8007424:	e094      	b.n	8007550 <HAL_UART_IRQHandler+0x1e4>
 8007426:	000f      	movs	r7, r1
 8007428:	4d88      	ldr	r5, [pc, #544]	@ (800764c <HAL_UART_IRQHandler+0x2e0>)
 800742a:	402f      	ands	r7, r5
 800742c:	4229      	tst	r1, r5
 800742e:	d000      	beq.n	8007432 <HAL_UART_IRQHandler+0xc6>
 8007430:	e0af      	b.n	8007592 <HAL_UART_IRQHandler+0x226>
 8007432:	4d87      	ldr	r5, [pc, #540]	@ (8007650 <HAL_UART_IRQHandler+0x2e4>)
 8007434:	4228      	tst	r0, r5
 8007436:	d0b1      	beq.n	800739c <HAL_UART_IRQHandler+0x30>
 8007438:	07dd      	lsls	r5, r3, #31
 800743a:	d51e      	bpl.n	800747a <HAL_UART_IRQHandler+0x10e>
 800743c:	05c5      	lsls	r5, r0, #23
 800743e:	d400      	bmi.n	8007442 <HAL_UART_IRQHandler+0xd6>
 8007440:	e08d      	b.n	800755e <HAL_UART_IRQHandler+0x1f2>
 8007442:	2501      	movs	r5, #1
 8007444:	46ac      	mov	ip, r5
 8007446:	6215      	str	r5, [r2, #32]
 8007448:	358f      	adds	r5, #143	@ 0x8f
 800744a:	46a8      	mov	r8, r5
 800744c:	4666      	mov	r6, ip
 800744e:	5965      	ldr	r5, [r4, r5]
 8007450:	4335      	orrs	r5, r6
 8007452:	4646      	mov	r6, r8
 8007454:	51a5      	str	r5, [r4, r6]
 8007456:	2502      	movs	r5, #2
 8007458:	421d      	tst	r5, r3
 800745a:	d100      	bne.n	800745e <HAL_UART_IRQHandler+0xf2>
 800745c:	e081      	b.n	8007562 <HAL_UART_IRQHandler+0x1f6>
 800745e:	07ce      	lsls	r6, r1, #31
 8007460:	d50b      	bpl.n	800747a <HAL_UART_IRQHandler+0x10e>
 8007462:	6215      	str	r5, [r2, #32]
 8007464:	358e      	adds	r5, #142	@ 0x8e
 8007466:	2604      	movs	r6, #4
 8007468:	46ac      	mov	ip, r5
 800746a:	5965      	ldr	r5, [r4, r5]
 800746c:	46b0      	mov	r8, r6
 800746e:	4335      	orrs	r5, r6
 8007470:	4666      	mov	r6, ip
 8007472:	51a5      	str	r5, [r4, r6]
 8007474:	4645      	mov	r5, r8
 8007476:	421d      	tst	r5, r3
 8007478:	d177      	bne.n	800756a <HAL_UART_IRQHandler+0x1fe>
 800747a:	2608      	movs	r6, #8
 800747c:	421e      	tst	r6, r3
 800747e:	d008      	beq.n	8007492 <HAL_UART_IRQHandler+0x126>
 8007480:	2520      	movs	r5, #32
 8007482:	4005      	ands	r5, r0
 8007484:	433d      	orrs	r5, r7
 8007486:	d004      	beq.n	8007492 <HAL_UART_IRQHandler+0x126>
 8007488:	2790      	movs	r7, #144	@ 0x90
 800748a:	6216      	str	r6, [r2, #32]
 800748c:	59e5      	ldr	r5, [r4, r7]
 800748e:	4335      	orrs	r5, r6
 8007490:	51e5      	str	r5, [r4, r7]
 8007492:	2580      	movs	r5, #128	@ 0x80
 8007494:	012d      	lsls	r5, r5, #4
 8007496:	422b      	tst	r3, r5
 8007498:	d007      	beq.n	80074aa <HAL_UART_IRQHandler+0x13e>
 800749a:	0146      	lsls	r6, r0, #5
 800749c:	d505      	bpl.n	80074aa <HAL_UART_IRQHandler+0x13e>
 800749e:	2690      	movs	r6, #144	@ 0x90
 80074a0:	2720      	movs	r7, #32
 80074a2:	6215      	str	r5, [r2, #32]
 80074a4:	59a5      	ldr	r5, [r4, r6]
 80074a6:	433d      	orrs	r5, r7
 80074a8:	51a5      	str	r5, [r4, r6]
 80074aa:	2590      	movs	r5, #144	@ 0x90
 80074ac:	5965      	ldr	r5, [r4, r5]
 80074ae:	2d00      	cmp	r5, #0
 80074b0:	d09f      	beq.n	80073f2 <HAL_UART_IRQHandler+0x86>
 80074b2:	2520      	movs	r5, #32
 80074b4:	421d      	tst	r5, r3
 80074b6:	d005      	beq.n	80074c4 <HAL_UART_IRQHandler+0x158>
 80074b8:	2380      	movs	r3, #128	@ 0x80
 80074ba:	055b      	lsls	r3, r3, #21
 80074bc:	4005      	ands	r5, r0
 80074be:	400b      	ands	r3, r1
 80074c0:	431d      	orrs	r5, r3
 80074c2:	d15f      	bne.n	8007584 <HAL_UART_IRQHandler+0x218>
 80074c4:	2690      	movs	r6, #144	@ 0x90
 80074c6:	2540      	movs	r5, #64	@ 0x40
 80074c8:	59a1      	ldr	r1, [r4, r6]
 80074ca:	6893      	ldr	r3, [r2, #8]
 80074cc:	401d      	ands	r5, r3
 80074ce:	2328      	movs	r3, #40	@ 0x28
 80074d0:	400b      	ands	r3, r1
 80074d2:	431d      	orrs	r5, r3
 80074d4:	d164      	bne.n	80075a0 <HAL_UART_IRQHandler+0x234>
 80074d6:	23a4      	movs	r3, #164	@ 0xa4
 80074d8:	0020      	movs	r0, r4
 80074da:	58e3      	ldr	r3, [r4, r3]
 80074dc:	4798      	blx	r3
 80074de:	51a5      	str	r5, [r4, r6]
 80074e0:	e787      	b.n	80073f2 <HAL_UART_IRQHandler+0x86>
 80074e2:	2610      	movs	r6, #16
 80074e4:	421e      	tst	r6, r3
 80074e6:	d100      	bne.n	80074ea <HAL_UART_IRQHandler+0x17e>
 80074e8:	e75c      	b.n	80073a4 <HAL_UART_IRQHandler+0x38>
 80074ea:	4206      	tst	r6, r0
 80074ec:	d100      	bne.n	80074f0 <HAL_UART_IRQHandler+0x184>
 80074ee:	e759      	b.n	80073a4 <HAL_UART_IRQHandler+0x38>
 80074f0:	2340      	movs	r3, #64	@ 0x40
 80074f2:	0018      	movs	r0, r3
 80074f4:	6216      	str	r6, [r2, #32]
 80074f6:	6892      	ldr	r2, [r2, #8]
 80074f8:	4010      	ands	r0, r2
 80074fa:	4213      	tst	r3, r2
 80074fc:	d100      	bne.n	8007500 <HAL_UART_IRQHandler+0x194>
 80074fe:	e0af      	b.n	8007660 <HAL_UART_IRQHandler+0x2f4>
 8007500:	2280      	movs	r2, #128	@ 0x80
 8007502:	4694      	mov	ip, r2
 8007504:	58a2      	ldr	r2, [r4, r2]
 8007506:	6810      	ldr	r0, [r2, #0]
 8007508:	6842      	ldr	r2, [r0, #4]
 800750a:	b292      	uxth	r2, r2
 800750c:	2a00      	cmp	r2, #0
 800750e:	d100      	bne.n	8007512 <HAL_UART_IRQHandler+0x1a6>
 8007510:	e76f      	b.n	80073f2 <HAL_UART_IRQHandler+0x86>
 8007512:	215c      	movs	r1, #92	@ 0x5c
 8007514:	468b      	mov	fp, r1
 8007516:	5a61      	ldrh	r1, [r4, r1]
 8007518:	4291      	cmp	r1, r2
 800751a:	d800      	bhi.n	800751e <HAL_UART_IRQHandler+0x1b2>
 800751c:	e769      	b.n	80073f2 <HAL_UART_IRQHandler+0x86>
 800751e:	275e      	movs	r7, #94	@ 0x5e
 8007520:	53e2      	strh	r2, [r4, r7]
 8007522:	2220      	movs	r2, #32
 8007524:	0017      	movs	r7, r2
 8007526:	6800      	ldr	r0, [r0, #0]
 8007528:	4007      	ands	r7, r0
 800752a:	46b8      	mov	r8, r7
 800752c:	4202      	tst	r2, r0
 800752e:	d100      	bne.n	8007532 <HAL_UART_IRQHandler+0x1c6>
 8007530:	e0d2      	b.n	80076d8 <HAL_UART_IRQHandler+0x36c>
 8007532:	2302      	movs	r3, #2
 8007534:	6723      	str	r3, [r4, #112]	@ 0x70
 8007536:	335c      	adds	r3, #92	@ 0x5c
 8007538:	5ae3      	ldrh	r3, [r4, r3]
 800753a:	0020      	movs	r0, r4
 800753c:	1ac9      	subs	r1, r1, r3
 800753e:	23c0      	movs	r3, #192	@ 0xc0
 8007540:	b289      	uxth	r1, r1
 8007542:	58e3      	ldr	r3, [r4, r3]
 8007544:	4798      	blx	r3
 8007546:	e754      	b.n	80073f2 <HAL_UART_IRQHandler+0x86>
 8007548:	6f63      	ldr	r3, [r4, #116]	@ 0x74
 800754a:	2b00      	cmp	r3, #0
 800754c:	d100      	bne.n	8007550 <HAL_UART_IRQHandler+0x1e4>
 800754e:	e750      	b.n	80073f2 <HAL_UART_IRQHandler+0x86>
 8007550:	0020      	movs	r0, r4
 8007552:	4798      	blx	r3
 8007554:	e74d      	b.n	80073f2 <HAL_UART_IRQHandler+0x86>
 8007556:	6fa3      	ldr	r3, [r4, #120]	@ 0x78
 8007558:	2b00      	cmp	r3, #0
 800755a:	d1f9      	bne.n	8007550 <HAL_UART_IRQHandler+0x1e4>
 800755c:	e749      	b.n	80073f2 <HAL_UART_IRQHandler+0x86>
 800755e:	079d      	lsls	r5, r3, #30
 8007560:	d48b      	bmi.n	800747a <HAL_UART_IRQHandler+0x10e>
 8007562:	075d      	lsls	r5, r3, #29
 8007564:	d589      	bpl.n	800747a <HAL_UART_IRQHandler+0x10e>
 8007566:	07cd      	lsls	r5, r1, #31
 8007568:	d587      	bpl.n	800747a <HAL_UART_IRQHandler+0x10e>
 800756a:	2504      	movs	r5, #4
 800756c:	6215      	str	r5, [r2, #32]
 800756e:	358c      	adds	r5, #140	@ 0x8c
 8007570:	46a9      	mov	r9, r5
 8007572:	5965      	ldr	r5, [r4, r5]
 8007574:	46a8      	mov	r8, r5
 8007576:	2502      	movs	r5, #2
 8007578:	4646      	mov	r6, r8
 800757a:	432e      	orrs	r6, r5
 800757c:	0035      	movs	r5, r6
 800757e:	464e      	mov	r6, r9
 8007580:	51a5      	str	r5, [r4, r6]
 8007582:	e77a      	b.n	800747a <HAL_UART_IRQHandler+0x10e>
 8007584:	6f63      	ldr	r3, [r4, #116]	@ 0x74
 8007586:	2b00      	cmp	r3, #0
 8007588:	d09c      	beq.n	80074c4 <HAL_UART_IRQHandler+0x158>
 800758a:	0020      	movs	r0, r4
 800758c:	4798      	blx	r3
 800758e:	6822      	ldr	r2, [r4, #0]
 8007590:	e798      	b.n	80074c4 <HAL_UART_IRQHandler+0x158>
 8007592:	07dd      	lsls	r5, r3, #31
 8007594:	d400      	bmi.n	8007598 <HAL_UART_IRQHandler+0x22c>
 8007596:	e75e      	b.n	8007456 <HAL_UART_IRQHandler+0xea>
 8007598:	05c5      	lsls	r5, r0, #23
 800759a:	d400      	bmi.n	800759e <HAL_UART_IRQHandler+0x232>
 800759c:	e75b      	b.n	8007456 <HAL_UART_IRQHandler+0xea>
 800759e:	e750      	b.n	8007442 <HAL_UART_IRQHandler+0xd6>
 80075a0:	f3ef 8010 	mrs	r0, PRIMASK
 80075a4:	2201      	movs	r2, #1
 80075a6:	f382 8810 	msr	PRIMASK, r2
 80075aa:	6821      	ldr	r1, [r4, #0]
 80075ac:	4d29      	ldr	r5, [pc, #164]	@ (8007654 <HAL_UART_IRQHandler+0x2e8>)
 80075ae:	680b      	ldr	r3, [r1, #0]
 80075b0:	402b      	ands	r3, r5
 80075b2:	600b      	str	r3, [r1, #0]
 80075b4:	f380 8810 	msr	PRIMASK, r0
 80075b8:	f3ef 8110 	mrs	r1, PRIMASK
 80075bc:	f382 8810 	msr	PRIMASK, r2
 80075c0:	6822      	ldr	r2, [r4, #0]
 80075c2:	4825      	ldr	r0, [pc, #148]	@ (8007658 <HAL_UART_IRQHandler+0x2ec>)
 80075c4:	6893      	ldr	r3, [r2, #8]
 80075c6:	4003      	ands	r3, r0
 80075c8:	6093      	str	r3, [r2, #8]
 80075ca:	f381 8810 	msr	PRIMASK, r1
 80075ce:	6ee3      	ldr	r3, [r4, #108]	@ 0x6c
 80075d0:	2b01      	cmp	r3, #1
 80075d2:	d10a      	bne.n	80075ea <HAL_UART_IRQHandler+0x27e>
 80075d4:	f3ef 8110 	mrs	r1, PRIMASK
 80075d8:	f383 8810 	msr	PRIMASK, r3
 80075dc:	2010      	movs	r0, #16
 80075de:	6822      	ldr	r2, [r4, #0]
 80075e0:	6813      	ldr	r3, [r2, #0]
 80075e2:	4383      	bics	r3, r0
 80075e4:	6013      	str	r3, [r2, #0]
 80075e6:	f381 8810 	msr	PRIMASK, r1
 80075ea:	238c      	movs	r3, #140	@ 0x8c
 80075ec:	2220      	movs	r2, #32
 80075ee:	50e2      	str	r2, [r4, r3]
 80075f0:	2300      	movs	r3, #0
 80075f2:	66e3      	str	r3, [r4, #108]	@ 0x6c
 80075f4:	6763      	str	r3, [r4, #116]	@ 0x74
 80075f6:	6823      	ldr	r3, [r4, #0]
 80075f8:	689a      	ldr	r2, [r3, #8]
 80075fa:	2340      	movs	r3, #64	@ 0x40
 80075fc:	4213      	tst	r3, r2
 80075fe:	d019      	beq.n	8007634 <HAL_UART_IRQHandler+0x2c8>
 8007600:	f3ef 8010 	mrs	r0, PRIMASK
 8007604:	2201      	movs	r2, #1
 8007606:	f382 8810 	msr	PRIMASK, r2
 800760a:	6821      	ldr	r1, [r4, #0]
 800760c:	688a      	ldr	r2, [r1, #8]
 800760e:	439a      	bics	r2, r3
 8007610:	608a      	str	r2, [r1, #8]
 8007612:	f380 8810 	msr	PRIMASK, r0
 8007616:	2580      	movs	r5, #128	@ 0x80
 8007618:	5960      	ldr	r0, [r4, r5]
 800761a:	2800      	cmp	r0, #0
 800761c:	d00a      	beq.n	8007634 <HAL_UART_IRQHandler+0x2c8>
 800761e:	4b0f      	ldr	r3, [pc, #60]	@ (800765c <HAL_UART_IRQHandler+0x2f0>)
 8007620:	6383      	str	r3, [r0, #56]	@ 0x38
 8007622:	f7fc fee9 	bl	80043f8 <HAL_DMA_Abort_IT>
 8007626:	2800      	cmp	r0, #0
 8007628:	d100      	bne.n	800762c <HAL_UART_IRQHandler+0x2c0>
 800762a:	e6e2      	b.n	80073f2 <HAL_UART_IRQHandler+0x86>
 800762c:	5960      	ldr	r0, [r4, r5]
 800762e:	6b83      	ldr	r3, [r0, #56]	@ 0x38
 8007630:	4798      	blx	r3
 8007632:	e6de      	b.n	80073f2 <HAL_UART_IRQHandler+0x86>
 8007634:	23a4      	movs	r3, #164	@ 0xa4
 8007636:	0020      	movs	r0, r4
 8007638:	58e3      	ldr	r3, [r4, r3]
 800763a:	4798      	blx	r3
 800763c:	e6d9      	b.n	80073f2 <HAL_UART_IRQHandler+0x86>
 800763e:	23bc      	movs	r3, #188	@ 0xbc
 8007640:	0020      	movs	r0, r4
 8007642:	58e3      	ldr	r3, [r4, r3]
 8007644:	4798      	blx	r3
 8007646:	e6d4      	b.n	80073f2 <HAL_UART_IRQHandler+0x86>
 8007648:	0000080f 	.word	0x0000080f
 800764c:	10000001 	.word	0x10000001
 8007650:	04000120 	.word	0x04000120
 8007654:	fffffedf 	.word	0xfffffedf
 8007658:	effffffe 	.word	0xeffffffe
 800765c:	080070b5 	.word	0x080070b5
 8007660:	235c      	movs	r3, #92	@ 0x5c
 8007662:	225e      	movs	r2, #94	@ 0x5e
 8007664:	5ae1      	ldrh	r1, [r4, r3]
 8007666:	5aa3      	ldrh	r3, [r4, r2]
 8007668:	5aa2      	ldrh	r2, [r4, r2]
 800766a:	b29b      	uxth	r3, r3
 800766c:	2a00      	cmp	r2, #0
 800766e:	d100      	bne.n	8007672 <HAL_UART_IRQHandler+0x306>
 8007670:	e6bf      	b.n	80073f2 <HAL_UART_IRQHandler+0x86>
 8007672:	1ac9      	subs	r1, r1, r3
 8007674:	b28b      	uxth	r3, r1
 8007676:	4698      	mov	r8, r3
 8007678:	2b00      	cmp	r3, #0
 800767a:	d100      	bne.n	800767e <HAL_UART_IRQHandler+0x312>
 800767c:	e6b9      	b.n	80073f2 <HAL_UART_IRQHandler+0x86>
 800767e:	f3ef 8710 	mrs	r7, PRIMASK
 8007682:	f385 8810 	msr	PRIMASK, r5
 8007686:	6822      	ldr	r2, [r4, #0]
 8007688:	492d      	ldr	r1, [pc, #180]	@ (8007740 <HAL_UART_IRQHandler+0x3d4>)
 800768a:	6813      	ldr	r3, [r2, #0]
 800768c:	400b      	ands	r3, r1
 800768e:	6013      	str	r3, [r2, #0]
 8007690:	f387 8810 	msr	PRIMASK, r7
 8007694:	f3ef 8710 	mrs	r7, PRIMASK
 8007698:	f385 8810 	msr	PRIMASK, r5
 800769c:	6822      	ldr	r2, [r4, #0]
 800769e:	4929      	ldr	r1, [pc, #164]	@ (8007744 <HAL_UART_IRQHandler+0x3d8>)
 80076a0:	6893      	ldr	r3, [r2, #8]
 80076a2:	400b      	ands	r3, r1
 80076a4:	6093      	str	r3, [r2, #8]
 80076a6:	f387 8810 	msr	PRIMASK, r7
 80076aa:	238c      	movs	r3, #140	@ 0x8c
 80076ac:	2220      	movs	r2, #32
 80076ae:	50e2      	str	r2, [r4, r3]
 80076b0:	66e0      	str	r0, [r4, #108]	@ 0x6c
 80076b2:	6760      	str	r0, [r4, #116]	@ 0x74
 80076b4:	f3ef 8010 	mrs	r0, PRIMASK
 80076b8:	f385 8810 	msr	PRIMASK, r5
 80076bc:	6822      	ldr	r2, [r4, #0]
 80076be:	6813      	ldr	r3, [r2, #0]
 80076c0:	43b3      	bics	r3, r6
 80076c2:	6013      	str	r3, [r2, #0]
 80076c4:	f380 8810 	msr	PRIMASK, r0
 80076c8:	2302      	movs	r3, #2
 80076ca:	6723      	str	r3, [r4, #112]	@ 0x70
 80076cc:	33be      	adds	r3, #190	@ 0xbe
 80076ce:	4641      	mov	r1, r8
 80076d0:	0020      	movs	r0, r4
 80076d2:	58e3      	ldr	r3, [r4, r3]
 80076d4:	4798      	blx	r3
 80076d6:	e68c      	b.n	80073f2 <HAL_UART_IRQHandler+0x86>
 80076d8:	f3ef 8910 	mrs	r9, PRIMASK
 80076dc:	f385 8810 	msr	PRIMASK, r5
 80076e0:	6820      	ldr	r0, [r4, #0]
 80076e2:	4f19      	ldr	r7, [pc, #100]	@ (8007748 <HAL_UART_IRQHandler+0x3dc>)
 80076e4:	6801      	ldr	r1, [r0, #0]
 80076e6:	4039      	ands	r1, r7
 80076e8:	6001      	str	r1, [r0, #0]
 80076ea:	f389 8810 	msr	PRIMASK, r9
 80076ee:	f3ef 8910 	mrs	r9, PRIMASK
 80076f2:	f385 8810 	msr	PRIMASK, r5
 80076f6:	6820      	ldr	r0, [r4, #0]
 80076f8:	6881      	ldr	r1, [r0, #8]
 80076fa:	43a9      	bics	r1, r5
 80076fc:	6081      	str	r1, [r0, #8]
 80076fe:	f389 8810 	msr	PRIMASK, r9
 8007702:	f3ef 8910 	mrs	r9, PRIMASK
 8007706:	f385 8810 	msr	PRIMASK, r5
 800770a:	6820      	ldr	r0, [r4, #0]
 800770c:	6881      	ldr	r1, [r0, #8]
 800770e:	4399      	bics	r1, r3
 8007710:	6081      	str	r1, [r0, #8]
 8007712:	f389 8810 	msr	PRIMASK, r9
 8007716:	334c      	adds	r3, #76	@ 0x4c
 8007718:	50e2      	str	r2, [r4, r3]
 800771a:	4643      	mov	r3, r8
 800771c:	66e3      	str	r3, [r4, #108]	@ 0x6c
 800771e:	f3ef 8110 	mrs	r1, PRIMASK
 8007722:	f385 8810 	msr	PRIMASK, r5
 8007726:	6822      	ldr	r2, [r4, #0]
 8007728:	6813      	ldr	r3, [r2, #0]
 800772a:	43b3      	bics	r3, r6
 800772c:	6013      	str	r3, [r2, #0]
 800772e:	f381 8810 	msr	PRIMASK, r1
 8007732:	4663      	mov	r3, ip
 8007734:	58e0      	ldr	r0, [r4, r3]
 8007736:	f7fc fe23 	bl	8004380 <HAL_DMA_Abort>
 800773a:	465b      	mov	r3, fp
 800773c:	5ae1      	ldrh	r1, [r4, r3]
 800773e:	e6f8      	b.n	8007532 <HAL_UART_IRQHandler+0x1c6>
 8007740:	fffffedf 	.word	0xfffffedf
 8007744:	effffffe 	.word	0xeffffffe
 8007748:	fffffeff 	.word	0xfffffeff

0800774c <UART_AdvFeatureConfig>:
 800774c:	6a83      	ldr	r3, [r0, #40]	@ 0x28
 800774e:	b530      	push	{r4, r5, lr}
 8007750:	071a      	lsls	r2, r3, #28
 8007752:	d506      	bpl.n	8007762 <UART_AdvFeatureConfig+0x16>
 8007754:	6801      	ldr	r1, [r0, #0]
 8007756:	4c28      	ldr	r4, [pc, #160]	@ (80077f8 <UART_AdvFeatureConfig+0xac>)
 8007758:	684a      	ldr	r2, [r1, #4]
 800775a:	4022      	ands	r2, r4
 800775c:	6b84      	ldr	r4, [r0, #56]	@ 0x38
 800775e:	4322      	orrs	r2, r4
 8007760:	604a      	str	r2, [r1, #4]
 8007762:	07da      	lsls	r2, r3, #31
 8007764:	d506      	bpl.n	8007774 <UART_AdvFeatureConfig+0x28>
 8007766:	6801      	ldr	r1, [r0, #0]
 8007768:	4c24      	ldr	r4, [pc, #144]	@ (80077fc <UART_AdvFeatureConfig+0xb0>)
 800776a:	684a      	ldr	r2, [r1, #4]
 800776c:	4022      	ands	r2, r4
 800776e:	6ac4      	ldr	r4, [r0, #44]	@ 0x2c
 8007770:	4322      	orrs	r2, r4
 8007772:	604a      	str	r2, [r1, #4]
 8007774:	079a      	lsls	r2, r3, #30
 8007776:	d506      	bpl.n	8007786 <UART_AdvFeatureConfig+0x3a>
 8007778:	6801      	ldr	r1, [r0, #0]
 800777a:	4c21      	ldr	r4, [pc, #132]	@ (8007800 <UART_AdvFeatureConfig+0xb4>)
 800777c:	684a      	ldr	r2, [r1, #4]
 800777e:	4022      	ands	r2, r4
 8007780:	6b04      	ldr	r4, [r0, #48]	@ 0x30
 8007782:	4322      	orrs	r2, r4
 8007784:	604a      	str	r2, [r1, #4]
 8007786:	075a      	lsls	r2, r3, #29
 8007788:	d506      	bpl.n	8007798 <UART_AdvFeatureConfig+0x4c>
 800778a:	6801      	ldr	r1, [r0, #0]
 800778c:	4c1d      	ldr	r4, [pc, #116]	@ (8007804 <UART_AdvFeatureConfig+0xb8>)
 800778e:	684a      	ldr	r2, [r1, #4]
 8007790:	4022      	ands	r2, r4
 8007792:	6b44      	ldr	r4, [r0, #52]	@ 0x34
 8007794:	4322      	orrs	r2, r4
 8007796:	604a      	str	r2, [r1, #4]
 8007798:	06da      	lsls	r2, r3, #27
 800779a:	d506      	bpl.n	80077aa <UART_AdvFeatureConfig+0x5e>
 800779c:	6801      	ldr	r1, [r0, #0]
 800779e:	4c1a      	ldr	r4, [pc, #104]	@ (8007808 <UART_AdvFeatureConfig+0xbc>)
 80077a0:	688a      	ldr	r2, [r1, #8]
 80077a2:	4022      	ands	r2, r4
 80077a4:	6bc4      	ldr	r4, [r0, #60]	@ 0x3c
 80077a6:	4322      	orrs	r2, r4
 80077a8:	608a      	str	r2, [r1, #8]
 80077aa:	069a      	lsls	r2, r3, #26
 80077ac:	d506      	bpl.n	80077bc <UART_AdvFeatureConfig+0x70>
 80077ae:	6801      	ldr	r1, [r0, #0]
 80077b0:	4c16      	ldr	r4, [pc, #88]	@ (800780c <UART_AdvFeatureConfig+0xc0>)
 80077b2:	688a      	ldr	r2, [r1, #8]
 80077b4:	4022      	ands	r2, r4
 80077b6:	6c04      	ldr	r4, [r0, #64]	@ 0x40
 80077b8:	4322      	orrs	r2, r4
 80077ba:	608a      	str	r2, [r1, #8]
 80077bc:	065a      	lsls	r2, r3, #25
 80077be:	d50a      	bpl.n	80077d6 <UART_AdvFeatureConfig+0x8a>
 80077c0:	6801      	ldr	r1, [r0, #0]
 80077c2:	4d13      	ldr	r5, [pc, #76]	@ (8007810 <UART_AdvFeatureConfig+0xc4>)
 80077c4:	684a      	ldr	r2, [r1, #4]
 80077c6:	6c44      	ldr	r4, [r0, #68]	@ 0x44
 80077c8:	402a      	ands	r2, r5
 80077ca:	4322      	orrs	r2, r4
 80077cc:	604a      	str	r2, [r1, #4]
 80077ce:	2280      	movs	r2, #128	@ 0x80
 80077d0:	0352      	lsls	r2, r2, #13
 80077d2:	4294      	cmp	r4, r2
 80077d4:	d009      	beq.n	80077ea <UART_AdvFeatureConfig+0x9e>
 80077d6:	061b      	lsls	r3, r3, #24
 80077d8:	d506      	bpl.n	80077e8 <UART_AdvFeatureConfig+0x9c>
 80077da:	6802      	ldr	r2, [r0, #0]
 80077dc:	490d      	ldr	r1, [pc, #52]	@ (8007814 <UART_AdvFeatureConfig+0xc8>)
 80077de:	6853      	ldr	r3, [r2, #4]
 80077e0:	400b      	ands	r3, r1
 80077e2:	6cc1      	ldr	r1, [r0, #76]	@ 0x4c
 80077e4:	430b      	orrs	r3, r1
 80077e6:	6053      	str	r3, [r2, #4]
 80077e8:	bd30      	pop	{r4, r5, pc}
 80077ea:	684a      	ldr	r2, [r1, #4]
 80077ec:	4c0a      	ldr	r4, [pc, #40]	@ (8007818 <UART_AdvFeatureConfig+0xcc>)
 80077ee:	4022      	ands	r2, r4
 80077f0:	6c84      	ldr	r4, [r0, #72]	@ 0x48
 80077f2:	4322      	orrs	r2, r4
 80077f4:	604a      	str	r2, [r1, #4]
 80077f6:	e7ee      	b.n	80077d6 <UART_AdvFeatureConfig+0x8a>
 80077f8:	ffff7fff 	.word	0xffff7fff
 80077fc:	fffdffff 	.word	0xfffdffff
 8007800:	fffeffff 	.word	0xfffeffff
 8007804:	fffbffff 	.word	0xfffbffff
 8007808:	ffffefff 	.word	0xffffefff
 800780c:	ffffdfff 	.word	0xffffdfff
 8007810:	ffefffff 	.word	0xffefffff
 8007814:	fff7ffff 	.word	0xfff7ffff
 8007818:	ff9fffff 	.word	0xff9fffff

0800781c <UART_CheckIdleState>:
 800781c:	b5f0      	push	{r4, r5, r6, r7, lr}
 800781e:	2390      	movs	r3, #144	@ 0x90
 8007820:	2200      	movs	r2, #0
 8007822:	46c6      	mov	lr, r8
 8007824:	0004      	movs	r4, r0
 8007826:	b500      	push	{lr}
 8007828:	50c2      	str	r2, [r0, r3]
 800782a:	f7fb fef5 	bl	8003618 <HAL_GetTick>
 800782e:	6823      	ldr	r3, [r4, #0]
 8007830:	0005      	movs	r5, r0
 8007832:	681a      	ldr	r2, [r3, #0]
 8007834:	0712      	lsls	r2, r2, #28
 8007836:	d411      	bmi.n	800785c <UART_CheckIdleState+0x40>
 8007838:	681a      	ldr	r2, [r3, #0]
 800783a:	0752      	lsls	r2, r2, #29
 800783c:	d43e      	bmi.n	80078bc <UART_CheckIdleState+0xa0>
 800783e:	2320      	movs	r3, #32
 8007840:	2288      	movs	r2, #136	@ 0x88
 8007842:	50a3      	str	r3, [r4, r2]
 8007844:	3204      	adds	r2, #4
 8007846:	50a3      	str	r3, [r4, r2]
 8007848:	2300      	movs	r3, #0
 800784a:	2000      	movs	r0, #0
 800784c:	66e3      	str	r3, [r4, #108]	@ 0x6c
 800784e:	6723      	str	r3, [r4, #112]	@ 0x70
 8007850:	2384      	movs	r3, #132	@ 0x84
 8007852:	2200      	movs	r2, #0
 8007854:	54e2      	strb	r2, [r4, r3]
 8007856:	bc80      	pop	{r7}
 8007858:	46b8      	mov	r8, r7
 800785a:	bdf0      	pop	{r4, r5, r6, r7, pc}
 800785c:	69da      	ldr	r2, [r3, #28]
 800785e:	0292      	lsls	r2, r2, #10
 8007860:	d4ea      	bmi.n	8007838 <UART_CheckIdleState+0x1c>
 8007862:	2680      	movs	r6, #128	@ 0x80
 8007864:	2308      	movs	r3, #8
 8007866:	2704      	movs	r7, #4
 8007868:	4698      	mov	r8, r3
 800786a:	04b6      	lsls	r6, r6, #18
 800786c:	e010      	b.n	8007890 <UART_CheckIdleState+0x74>
 800786e:	6823      	ldr	r3, [r4, #0]
 8007870:	681a      	ldr	r2, [r3, #0]
 8007872:	4217      	tst	r7, r2
 8007874:	d009      	beq.n	800788a <UART_CheckIdleState+0x6e>
 8007876:	4641      	mov	r1, r8
 8007878:	69da      	ldr	r2, [r3, #28]
 800787a:	4211      	tst	r1, r2
 800787c:	d159      	bne.n	8007932 <UART_CheckIdleState+0x116>
 800787e:	2280      	movs	r2, #128	@ 0x80
 8007880:	69d9      	ldr	r1, [r3, #28]
 8007882:	0112      	lsls	r2, r2, #4
 8007884:	4211      	tst	r1, r2
 8007886:	d000      	beq.n	800788a <UART_CheckIdleState+0x6e>
 8007888:	e085      	b.n	8007996 <UART_CheckIdleState+0x17a>
 800788a:	69da      	ldr	r2, [r3, #28]
 800788c:	0292      	lsls	r2, r2, #10
 800788e:	d4d3      	bmi.n	8007838 <UART_CheckIdleState+0x1c>
 8007890:	f7fb fec2 	bl	8003618 <HAL_GetTick>
 8007894:	1b40      	subs	r0, r0, r5
 8007896:	42b0      	cmp	r0, r6
 8007898:	d3e9      	bcc.n	800786e <UART_CheckIdleState+0x52>
 800789a:	f3ef 8110 	mrs	r1, PRIMASK
 800789e:	2301      	movs	r3, #1
 80078a0:	f383 8810 	msr	PRIMASK, r3
 80078a4:	2080      	movs	r0, #128	@ 0x80
 80078a6:	6822      	ldr	r2, [r4, #0]
 80078a8:	6813      	ldr	r3, [r2, #0]
 80078aa:	4383      	bics	r3, r0
 80078ac:	6013      	str	r3, [r2, #0]
 80078ae:	f381 8810 	msr	PRIMASK, r1
 80078b2:	2388      	movs	r3, #136	@ 0x88
 80078b4:	2220      	movs	r2, #32
 80078b6:	2003      	movs	r0, #3
 80078b8:	50e2      	str	r2, [r4, r3]
 80078ba:	e7c9      	b.n	8007850 <UART_CheckIdleState+0x34>
 80078bc:	69db      	ldr	r3, [r3, #28]
 80078be:	025b      	lsls	r3, r3, #9
 80078c0:	d4bd      	bmi.n	800783e <UART_CheckIdleState+0x22>
 80078c2:	2680      	movs	r6, #128	@ 0x80
 80078c4:	2308      	movs	r3, #8
 80078c6:	2704      	movs	r7, #4
 80078c8:	4698      	mov	r8, r3
 80078ca:	04b6      	lsls	r6, r6, #18
 80078cc:	e011      	b.n	80078f2 <UART_CheckIdleState+0xd6>
 80078ce:	6823      	ldr	r3, [r4, #0]
 80078d0:	681a      	ldr	r2, [r3, #0]
 80078d2:	4217      	tst	r7, r2
 80078d4:	d00a      	beq.n	80078ec <UART_CheckIdleState+0xd0>
 80078d6:	4641      	mov	r1, r8
 80078d8:	69da      	ldr	r2, [r3, #28]
 80078da:	4211      	tst	r1, r2
 80078dc:	d000      	beq.n	80078e0 <UART_CheckIdleState+0xc4>
 80078de:	e08b      	b.n	80079f8 <UART_CheckIdleState+0x1dc>
 80078e0:	2280      	movs	r2, #128	@ 0x80
 80078e2:	69d9      	ldr	r1, [r3, #28]
 80078e4:	0112      	lsls	r2, r2, #4
 80078e6:	4211      	tst	r1, r2
 80078e8:	d000      	beq.n	80078ec <UART_CheckIdleState+0xd0>
 80078ea:	e0b7      	b.n	8007a5c <UART_CheckIdleState+0x240>
 80078ec:	69db      	ldr	r3, [r3, #28]
 80078ee:	025b      	lsls	r3, r3, #9
 80078f0:	d4a5      	bmi.n	800783e <UART_CheckIdleState+0x22>
 80078f2:	f7fb fe91 	bl	8003618 <HAL_GetTick>
 80078f6:	1b40      	subs	r0, r0, r5
 80078f8:	42b0      	cmp	r0, r6
 80078fa:	d3e8      	bcc.n	80078ce <UART_CheckIdleState+0xb2>
 80078fc:	f3ef 8010 	mrs	r0, PRIMASK
 8007900:	2201      	movs	r2, #1
 8007902:	f382 8810 	msr	PRIMASK, r2
 8007906:	6821      	ldr	r1, [r4, #0]
 8007908:	4d6d      	ldr	r5, [pc, #436]	@ (8007ac0 <UART_CheckIdleState+0x2a4>)
 800790a:	680b      	ldr	r3, [r1, #0]
 800790c:	402b      	ands	r3, r5
 800790e:	600b      	str	r3, [r1, #0]
 8007910:	f380 8810 	msr	PRIMASK, r0
 8007914:	f3ef 8010 	mrs	r0, PRIMASK
 8007918:	f382 8810 	msr	PRIMASK, r2
 800791c:	6821      	ldr	r1, [r4, #0]
 800791e:	688b      	ldr	r3, [r1, #8]
 8007920:	4393      	bics	r3, r2
 8007922:	608b      	str	r3, [r1, #8]
 8007924:	f380 8810 	msr	PRIMASK, r0
 8007928:	238c      	movs	r3, #140	@ 0x8c
 800792a:	321f      	adds	r2, #31
 800792c:	2003      	movs	r0, #3
 800792e:	50e2      	str	r2, [r4, r3]
 8007930:	e78e      	b.n	8007850 <UART_CheckIdleState+0x34>
 8007932:	6219      	str	r1, [r3, #32]
 8007934:	f3ef 8010 	mrs	r0, PRIMASK
 8007938:	2201      	movs	r2, #1
 800793a:	f382 8810 	msr	PRIMASK, r2
 800793e:	6821      	ldr	r1, [r4, #0]
 8007940:	4d5f      	ldr	r5, [pc, #380]	@ (8007ac0 <UART_CheckIdleState+0x2a4>)
 8007942:	680b      	ldr	r3, [r1, #0]
 8007944:	402b      	ands	r3, r5
 8007946:	600b      	str	r3, [r1, #0]
 8007948:	f380 8810 	msr	PRIMASK, r0
 800794c:	f3ef 8110 	mrs	r1, PRIMASK
 8007950:	f382 8810 	msr	PRIMASK, r2
 8007954:	6822      	ldr	r2, [r4, #0]
 8007956:	485b      	ldr	r0, [pc, #364]	@ (8007ac4 <UART_CheckIdleState+0x2a8>)
 8007958:	6893      	ldr	r3, [r2, #8]
 800795a:	4003      	ands	r3, r0
 800795c:	6093      	str	r3, [r2, #8]
 800795e:	f381 8810 	msr	PRIMASK, r1
 8007962:	6ee3      	ldr	r3, [r4, #108]	@ 0x6c
 8007964:	2b01      	cmp	r3, #1
 8007966:	d10a      	bne.n	800797e <UART_CheckIdleState+0x162>
 8007968:	f3ef 8110 	mrs	r1, PRIMASK
 800796c:	f383 8810 	msr	PRIMASK, r3
 8007970:	2010      	movs	r0, #16
 8007972:	6822      	ldr	r2, [r4, #0]
 8007974:	6813      	ldr	r3, [r2, #0]
 8007976:	4383      	bics	r3, r0
 8007978:	6013      	str	r3, [r2, #0]
 800797a:	f381 8810 	msr	PRIMASK, r1
 800797e:	238c      	movs	r3, #140	@ 0x8c
 8007980:	2220      	movs	r2, #32
 8007982:	2108      	movs	r1, #8
 8007984:	50e2      	str	r2, [r4, r3]
 8007986:	2300      	movs	r3, #0
 8007988:	3270      	adds	r2, #112	@ 0x70
 800798a:	66e3      	str	r3, [r4, #108]	@ 0x6c
 800798c:	6763      	str	r3, [r4, #116]	@ 0x74
 800798e:	50a1      	str	r1, [r4, r2]
 8007990:	3a0c      	subs	r2, #12
 8007992:	54a3      	strb	r3, [r4, r2]
 8007994:	e781      	b.n	800789a <UART_CheckIdleState+0x7e>
 8007996:	621a      	str	r2, [r3, #32]
 8007998:	f3ef 8010 	mrs	r0, PRIMASK
 800799c:	2201      	movs	r2, #1
 800799e:	f382 8810 	msr	PRIMASK, r2
 80079a2:	6821      	ldr	r1, [r4, #0]
 80079a4:	4d46      	ldr	r5, [pc, #280]	@ (8007ac0 <UART_CheckIdleState+0x2a4>)
 80079a6:	680b      	ldr	r3, [r1, #0]
 80079a8:	402b      	ands	r3, r5
 80079aa:	600b      	str	r3, [r1, #0]
 80079ac:	f380 8810 	msr	PRIMASK, r0
 80079b0:	f3ef 8110 	mrs	r1, PRIMASK
 80079b4:	f382 8810 	msr	PRIMASK, r2
 80079b8:	6822      	ldr	r2, [r4, #0]
 80079ba:	4842      	ldr	r0, [pc, #264]	@ (8007ac4 <UART_CheckIdleState+0x2a8>)
 80079bc:	6893      	ldr	r3, [r2, #8]
 80079be:	4003      	ands	r3, r0
 80079c0:	6093      	str	r3, [r2, #8]
 80079c2:	f381 8810 	msr	PRIMASK, r1
 80079c6:	6ee3      	ldr	r3, [r4, #108]	@ 0x6c
 80079c8:	2b01      	cmp	r3, #1
 80079ca:	d10a      	bne.n	80079e2 <UART_CheckIdleState+0x1c6>
 80079cc:	f3ef 8110 	mrs	r1, PRIMASK
 80079d0:	f383 8810 	msr	PRIMASK, r3
 80079d4:	2010      	movs	r0, #16
 80079d6:	6822      	ldr	r2, [r4, #0]
 80079d8:	6813      	ldr	r3, [r2, #0]
 80079da:	4383      	bics	r3, r0
 80079dc:	6013      	str	r3, [r2, #0]
 80079de:	f381 8810 	msr	PRIMASK, r1
 80079e2:	2220      	movs	r2, #32
 80079e4:	238c      	movs	r3, #140	@ 0x8c
 80079e6:	2190      	movs	r1, #144	@ 0x90
 80079e8:	50e2      	str	r2, [r4, r3]
 80079ea:	2300      	movs	r3, #0
 80079ec:	66e3      	str	r3, [r4, #108]	@ 0x6c
 80079ee:	6763      	str	r3, [r4, #116]	@ 0x74
 80079f0:	5062      	str	r2, [r4, r1]
 80079f2:	3264      	adds	r2, #100	@ 0x64
 80079f4:	54a3      	strb	r3, [r4, r2]
 80079f6:	e750      	b.n	800789a <UART_CheckIdleState+0x7e>
 80079f8:	6219      	str	r1, [r3, #32]
 80079fa:	f3ef 8010 	mrs	r0, PRIMASK
 80079fe:	2201      	movs	r2, #1
 8007a00:	f382 8810 	msr	PRIMASK, r2
 8007a04:	6821      	ldr	r1, [r4, #0]
 8007a06:	4d2e      	ldr	r5, [pc, #184]	@ (8007ac0 <UART_CheckIdleState+0x2a4>)
 8007a08:	680b      	ldr	r3, [r1, #0]
 8007a0a:	402b      	ands	r3, r5
 8007a0c:	600b      	str	r3, [r1, #0]
 8007a0e:	f380 8810 	msr	PRIMASK, r0
 8007a12:	f3ef 8110 	mrs	r1, PRIMASK
 8007a16:	f382 8810 	msr	PRIMASK, r2
 8007a1a:	6822      	ldr	r2, [r4, #0]
 8007a1c:	4829      	ldr	r0, [pc, #164]	@ (8007ac4 <UART_CheckIdleState+0x2a8>)
 8007a1e:	6893      	ldr	r3, [r2, #8]
 8007a20:	4003      	ands	r3, r0
 8007a22:	6093      	str	r3, [r2, #8]
 8007a24:	f381 8810 	msr	PRIMASK, r1
 8007a28:	6ee3      	ldr	r3, [r4, #108]	@ 0x6c
 8007a2a:	2b01      	cmp	r3, #1
 8007a2c:	d10a      	bne.n	8007a44 <UART_CheckIdleState+0x228>
 8007a2e:	f3ef 8110 	mrs	r1, PRIMASK
 8007a32:	f383 8810 	msr	PRIMASK, r3
 8007a36:	2010      	movs	r0, #16
 8007a38:	6822      	ldr	r2, [r4, #0]
 8007a3a:	6813      	ldr	r3, [r2, #0]
 8007a3c:	4383      	bics	r3, r0
 8007a3e:	6013      	str	r3, [r2, #0]
 8007a40:	f381 8810 	msr	PRIMASK, r1
 8007a44:	238c      	movs	r3, #140	@ 0x8c
 8007a46:	2220      	movs	r2, #32
 8007a48:	2108      	movs	r1, #8
 8007a4a:	50e2      	str	r2, [r4, r3]
 8007a4c:	2300      	movs	r3, #0
 8007a4e:	3270      	adds	r2, #112	@ 0x70
 8007a50:	66e3      	str	r3, [r4, #108]	@ 0x6c
 8007a52:	6763      	str	r3, [r4, #116]	@ 0x74
 8007a54:	50a1      	str	r1, [r4, r2]
 8007a56:	3a0c      	subs	r2, #12
 8007a58:	54a3      	strb	r3, [r4, r2]
 8007a5a:	e74f      	b.n	80078fc <UART_CheckIdleState+0xe0>
 8007a5c:	621a      	str	r2, [r3, #32]
 8007a5e:	f3ef 8010 	mrs	r0, PRIMASK
 8007a62:	2201      	movs	r2, #1
 8007a64:	f382 8810 	msr	PRIMASK, r2
 8007a68:	6821      	ldr	r1, [r4, #0]
 8007a6a:	4d15      	ldr	r5, [pc, #84]	@ (8007ac0 <UART_CheckIdleState+0x2a4>)
 8007a6c:	680b      	ldr	r3, [r1, #0]
 8007a6e:	402b      	ands	r3, r5
 8007a70:	600b      	str	r3, [r1, #0]
 8007a72:	f380 8810 	msr	PRIMASK, r0
 8007a76:	f3ef 8110 	mrs	r1, PRIMASK
 8007a7a:	f382 8810 	msr	PRIMASK, r2
 8007a7e:	6822      	ldr	r2, [r4, #0]
 8007a80:	4810      	ldr	r0, [pc, #64]	@ (8007ac4 <UART_CheckIdleState+0x2a8>)
 8007a82:	6893      	ldr	r3, [r2, #8]
 8007a84:	4003      	ands	r3, r0
 8007a86:	6093      	str	r3, [r2, #8]
 8007a88:	f381 8810 	msr	PRIMASK, r1
 8007a8c:	6ee3      	ldr	r3, [r4, #108]	@ 0x6c
 8007a8e:	2b01      	cmp	r3, #1
 8007a90:	d10a      	bne.n	8007aa8 <UART_CheckIdleState+0x28c>
 8007a92:	f3ef 8110 	mrs	r1, PRIMASK
 8007a96:	f383 8810 	msr	PRIMASK, r3
 8007a9a:	2010      	movs	r0, #16
 8007a9c:	6822      	ldr	r2, [r4, #0]
 8007a9e:	6813      	ldr	r3, [r2, #0]
 8007aa0:	4383      	bics	r3, r0
 8007aa2:	6013      	str	r3, [r2, #0]
 8007aa4:	f381 8810 	msr	PRIMASK, r1
 8007aa8:	2220      	movs	r2, #32
 8007aaa:	238c      	movs	r3, #140	@ 0x8c
 8007aac:	2190      	movs	r1, #144	@ 0x90
 8007aae:	50e2      	str	r2, [r4, r3]
 8007ab0:	2300      	movs	r3, #0
 8007ab2:	66e3      	str	r3, [r4, #108]	@ 0x6c
 8007ab4:	6763      	str	r3, [r4, #116]	@ 0x74
 8007ab6:	5062      	str	r2, [r4, r1]
 8007ab8:	3264      	adds	r2, #100	@ 0x64
 8007aba:	54a3      	strb	r3, [r4, r2]
 8007abc:	e71e      	b.n	80078fc <UART_CheckIdleState+0xe0>
 8007abe:	46c0      	nop			@ (mov r8, r8)
 8007ac0:	fffffedf 	.word	0xfffffedf
 8007ac4:	effffffe 	.word	0xeffffffe

08007ac8 <HAL_UART_Init>:
 8007ac8:	b5f8      	push	{r3, r4, r5, r6, r7, lr}
 8007aca:	1e04      	subs	r4, r0, #0
 8007acc:	d03f      	beq.n	8007b4e <HAL_UART_Init+0x86>
 8007ace:	2388      	movs	r3, #136	@ 0x88
 8007ad0:	58c3      	ldr	r3, [r0, r3]
 8007ad2:	2b00      	cmp	r3, #0
 8007ad4:	d03d      	beq.n	8007b52 <HAL_UART_Init+0x8a>
 8007ad6:	2388      	movs	r3, #136	@ 0x88
 8007ad8:	2224      	movs	r2, #36	@ 0x24
 8007ada:	6825      	ldr	r5, [r4, #0]
 8007adc:	50e2      	str	r2, [r4, r3]
 8007ade:	682b      	ldr	r3, [r5, #0]
 8007ae0:	3a23      	subs	r2, #35	@ 0x23
 8007ae2:	4393      	bics	r3, r2
 8007ae4:	602b      	str	r3, [r5, #0]
 8007ae6:	6aa3      	ldr	r3, [r4, #40]	@ 0x28
 8007ae8:	2b00      	cmp	r3, #0
 8007aea:	d000      	beq.n	8007aee <HAL_UART_Init+0x26>
 8007aec:	e09b      	b.n	8007c26 <HAL_UART_Init+0x15e>
 8007aee:	6921      	ldr	r1, [r4, #16]
 8007af0:	68a3      	ldr	r3, [r4, #8]
 8007af2:	682a      	ldr	r2, [r5, #0]
 8007af4:	430b      	orrs	r3, r1
 8007af6:	6961      	ldr	r1, [r4, #20]
 8007af8:	69e0      	ldr	r0, [r4, #28]
 8007afa:	430b      	orrs	r3, r1
 8007afc:	499d      	ldr	r1, [pc, #628]	@ (8007d74 <HAL_UART_Init+0x2ac>)
 8007afe:	4303      	orrs	r3, r0
 8007b00:	400a      	ands	r2, r1
 8007b02:	4313      	orrs	r3, r2
 8007b04:	602b      	str	r3, [r5, #0]
 8007b06:	686b      	ldr	r3, [r5, #4]
 8007b08:	4a9b      	ldr	r2, [pc, #620]	@ (8007d78 <HAL_UART_Init+0x2b0>)
 8007b0a:	499c      	ldr	r1, [pc, #624]	@ (8007d7c <HAL_UART_Init+0x2b4>)
 8007b0c:	4013      	ands	r3, r2
 8007b0e:	68e2      	ldr	r2, [r4, #12]
 8007b10:	4313      	orrs	r3, r2
 8007b12:	606b      	str	r3, [r5, #4]
 8007b14:	6a62      	ldr	r2, [r4, #36]	@ 0x24
 8007b16:	69a3      	ldr	r3, [r4, #24]
 8007b18:	428d      	cmp	r5, r1
 8007b1a:	d100      	bne.n	8007b1e <HAL_UART_Init+0x56>
 8007b1c:	e099      	b.n	8007c52 <HAL_UART_Init+0x18a>
 8007b1e:	6a26      	ldr	r6, [r4, #32]
 8007b20:	68a9      	ldr	r1, [r5, #8]
 8007b22:	4333      	orrs	r3, r6
 8007b24:	4e96      	ldr	r6, [pc, #600]	@ (8007d80 <HAL_UART_Init+0x2b8>)
 8007b26:	4031      	ands	r1, r6
 8007b28:	430b      	orrs	r3, r1
 8007b2a:	210f      	movs	r1, #15
 8007b2c:	60ab      	str	r3, [r5, #8]
 8007b2e:	6aeb      	ldr	r3, [r5, #44]	@ 0x2c
 8007b30:	438b      	bics	r3, r1
 8007b32:	4313      	orrs	r3, r2
 8007b34:	62eb      	str	r3, [r5, #44]	@ 0x2c
 8007b36:	4b93      	ldr	r3, [pc, #588]	@ (8007d84 <HAL_UART_Init+0x2bc>)
 8007b38:	429d      	cmp	r5, r3
 8007b3a:	d037      	beq.n	8007bac <HAL_UART_Init+0xe4>
 8007b3c:	4b92      	ldr	r3, [pc, #584]	@ (8007d88 <HAL_UART_Init+0x2c0>)
 8007b3e:	429d      	cmp	r5, r3
 8007b40:	d100      	bne.n	8007b44 <HAL_UART_Init+0x7c>
 8007b42:	e07b      	b.n	8007c3c <HAL_UART_Init+0x174>
 8007b44:	4b91      	ldr	r3, [pc, #580]	@ (8007d8c <HAL_UART_Init+0x2c4>)
 8007b46:	66a3      	str	r3, [r4, #104]	@ 0x68
 8007b48:	2300      	movs	r3, #0
 8007b4a:	6763      	str	r3, [r4, #116]	@ 0x74
 8007b4c:	67a3      	str	r3, [r4, #120]	@ 0x78
 8007b4e:	2001      	movs	r0, #1
 8007b50:	bdf8      	pop	{r3, r4, r5, r6, r7, pc}
 8007b52:	2284      	movs	r2, #132	@ 0x84
 8007b54:	5483      	strb	r3, [r0, r2]
 8007b56:	4b8e      	ldr	r3, [pc, #568]	@ (8007d90 <HAL_UART_Init+0x2c8>)
 8007b58:	3210      	adds	r2, #16
 8007b5a:	5083      	str	r3, [r0, r2]
 8007b5c:	4b8d      	ldr	r3, [pc, #564]	@ (8007d94 <HAL_UART_Init+0x2cc>)
 8007b5e:	3204      	adds	r2, #4
 8007b60:	5083      	str	r3, [r0, r2]
 8007b62:	4b8d      	ldr	r3, [pc, #564]	@ (8007d98 <HAL_UART_Init+0x2d0>)
 8007b64:	3204      	adds	r2, #4
 8007b66:	5083      	str	r3, [r0, r2]
 8007b68:	4b8c      	ldr	r3, [pc, #560]	@ (8007d9c <HAL_UART_Init+0x2d4>)
 8007b6a:	3204      	adds	r2, #4
 8007b6c:	5083      	str	r3, [r0, r2]
 8007b6e:	4b8c      	ldr	r3, [pc, #560]	@ (8007da0 <HAL_UART_Init+0x2d8>)
 8007b70:	3204      	adds	r2, #4
 8007b72:	5083      	str	r3, [r0, r2]
 8007b74:	4b8b      	ldr	r3, [pc, #556]	@ (8007da4 <HAL_UART_Init+0x2dc>)
 8007b76:	3204      	adds	r2, #4
 8007b78:	5083      	str	r3, [r0, r2]
 8007b7a:	4b8b      	ldr	r3, [pc, #556]	@ (8007da8 <HAL_UART_Init+0x2e0>)
 8007b7c:	3204      	adds	r2, #4
 8007b7e:	5083      	str	r3, [r0, r2]
 8007b80:	4b8a      	ldr	r3, [pc, #552]	@ (8007dac <HAL_UART_Init+0x2e4>)
 8007b82:	3204      	adds	r2, #4
 8007b84:	5083      	str	r3, [r0, r2]
 8007b86:	4b8a      	ldr	r3, [pc, #552]	@ (8007db0 <HAL_UART_Init+0x2e8>)
 8007b88:	3204      	adds	r2, #4
 8007b8a:	5083      	str	r3, [r0, r2]
 8007b8c:	4b89      	ldr	r3, [pc, #548]	@ (8007db4 <HAL_UART_Init+0x2ec>)
 8007b8e:	3204      	adds	r2, #4
 8007b90:	5083      	str	r3, [r0, r2]
 8007b92:	4b89      	ldr	r3, [pc, #548]	@ (8007db8 <HAL_UART_Init+0x2f0>)
 8007b94:	3204      	adds	r2, #4
 8007b96:	5083      	str	r3, [r0, r2]
 8007b98:	4b88      	ldr	r3, [pc, #544]	@ (8007dbc <HAL_UART_Init+0x2f4>)
 8007b9a:	3204      	adds	r2, #4
 8007b9c:	5083      	str	r3, [r0, r2]
 8007b9e:	3204      	adds	r2, #4
 8007ba0:	5883      	ldr	r3, [r0, r2]
 8007ba2:	2b00      	cmp	r3, #0
 8007ba4:	d052      	beq.n	8007c4c <HAL_UART_Init+0x184>
 8007ba6:	0020      	movs	r0, r4
 8007ba8:	4798      	blx	r3
 8007baa:	e794      	b.n	8007ad6 <HAL_UART_Init+0xe>
 8007bac:	4b84      	ldr	r3, [pc, #528]	@ (8007dc0 <HAL_UART_Init+0x2f8>)
 8007bae:	6d59      	ldr	r1, [r3, #84]	@ 0x54
 8007bb0:	2303      	movs	r3, #3
 8007bb2:	400b      	ands	r3, r1
 8007bb4:	2b02      	cmp	r3, #2
 8007bb6:	d03a      	beq.n	8007c2e <HAL_UART_Init+0x166>
 8007bb8:	2b03      	cmp	r3, #3
 8007bba:	d100      	bne.n	8007bbe <HAL_UART_Init+0xf6>
 8007bbc:	e09d      	b.n	8007cfa <HAL_UART_Init+0x232>
 8007bbe:	2b01      	cmp	r3, #1
 8007bc0:	d13c      	bne.n	8007c3c <HAL_UART_Init+0x174>
 8007bc2:	2380      	movs	r3, #128	@ 0x80
 8007bc4:	021b      	lsls	r3, r3, #8
 8007bc6:	4298      	cmp	r0, r3
 8007bc8:	d100      	bne.n	8007bcc <HAL_UART_Init+0x104>
 8007bca:	e09c      	b.n	8007d06 <HAL_UART_Init+0x23e>
 8007bcc:	f7fd fb96 	bl	80052fc <HAL_RCC_GetSysClockFreq>
 8007bd0:	2800      	cmp	r0, #0
 8007bd2:	d100      	bne.n	8007bd6 <HAL_UART_Init+0x10e>
 8007bd4:	e08b      	b.n	8007cee <HAL_UART_Init+0x226>
 8007bd6:	6a62      	ldr	r2, [r4, #36]	@ 0x24
 8007bd8:	4b7a      	ldr	r3, [pc, #488]	@ (8007dc4 <HAL_UART_Init+0x2fc>)
 8007bda:	0052      	lsls	r2, r2, #1
 8007bdc:	5ad1      	ldrh	r1, [r2, r3]
 8007bde:	f7f8 fa91 	bl	8000104 <__udivsi3>
 8007be2:	6865      	ldr	r5, [r4, #4]
 8007be4:	086b      	lsrs	r3, r5, #1
 8007be6:	18c0      	adds	r0, r0, r3
 8007be8:	0029      	movs	r1, r5
 8007bea:	f7f8 fa8b 	bl	8000104 <__udivsi3>
 8007bee:	0002      	movs	r2, r0
 8007bf0:	4b75      	ldr	r3, [pc, #468]	@ (8007dc8 <HAL_UART_Init+0x300>)
 8007bf2:	3a10      	subs	r2, #16
 8007bf4:	429a      	cmp	r2, r3
 8007bf6:	d8a5      	bhi.n	8007b44 <HAL_UART_Init+0x7c>
 8007bf8:	6823      	ldr	r3, [r4, #0]
 8007bfa:	60d8      	str	r0, [r3, #12]
 8007bfc:	4a63      	ldr	r2, [pc, #396]	@ (8007d8c <HAL_UART_Init+0x2c4>)
 8007bfe:	66a2      	str	r2, [r4, #104]	@ 0x68
 8007c00:	2200      	movs	r2, #0
 8007c02:	6762      	str	r2, [r4, #116]	@ 0x74
 8007c04:	67a2      	str	r2, [r4, #120]	@ 0x78
 8007c06:	685a      	ldr	r2, [r3, #4]
 8007c08:	4970      	ldr	r1, [pc, #448]	@ (8007dcc <HAL_UART_Init+0x304>)
 8007c0a:	0020      	movs	r0, r4
 8007c0c:	400a      	ands	r2, r1
 8007c0e:	212a      	movs	r1, #42	@ 0x2a
 8007c10:	605a      	str	r2, [r3, #4]
 8007c12:	689a      	ldr	r2, [r3, #8]
 8007c14:	438a      	bics	r2, r1
 8007c16:	609a      	str	r2, [r3, #8]
 8007c18:	681a      	ldr	r2, [r3, #0]
 8007c1a:	3929      	subs	r1, #41	@ 0x29
 8007c1c:	430a      	orrs	r2, r1
 8007c1e:	601a      	str	r2, [r3, #0]
 8007c20:	f7ff fdfc 	bl	800781c <UART_CheckIdleState>
 8007c24:	e794      	b.n	8007b50 <HAL_UART_Init+0x88>
 8007c26:	0020      	movs	r0, r4
 8007c28:	f7ff fd90 	bl	800774c <UART_AdvFeatureConfig>
 8007c2c:	e75f      	b.n	8007aee <HAL_UART_Init+0x26>
 8007c2e:	2380      	movs	r3, #128	@ 0x80
 8007c30:	021b      	lsls	r3, r3, #8
 8007c32:	4298      	cmp	r0, r3
 8007c34:	d100      	bne.n	8007c38 <HAL_UART_Init+0x170>
 8007c36:	e089      	b.n	8007d4c <HAL_UART_Init+0x284>
 8007c38:	4865      	ldr	r0, [pc, #404]	@ (8007dd0 <HAL_UART_Init+0x308>)
 8007c3a:	e7cd      	b.n	8007bd8 <HAL_UART_Init+0x110>
 8007c3c:	2380      	movs	r3, #128	@ 0x80
 8007c3e:	021b      	lsls	r3, r3, #8
 8007c40:	4298      	cmp	r0, r3
 8007c42:	d100      	bne.n	8007c46 <HAL_UART_Init+0x17e>
 8007c44:	e08a      	b.n	8007d5c <HAL_UART_Init+0x294>
 8007c46:	f7fd fc6f 	bl	8005528 <HAL_RCC_GetPCLK1Freq>
 8007c4a:	e7c1      	b.n	8007bd0 <HAL_UART_Init+0x108>
 8007c4c:	4b61      	ldr	r3, [pc, #388]	@ (8007dd4 <HAL_UART_Init+0x30c>)
 8007c4e:	5083      	str	r3, [r0, r2]
 8007c50:	e7a9      	b.n	8007ba6 <HAL_UART_Init+0xde>
 8007c52:	68a9      	ldr	r1, [r5, #8]
 8007c54:	484a      	ldr	r0, [pc, #296]	@ (8007d80 <HAL_UART_Init+0x2b8>)
 8007c56:	4001      	ands	r1, r0
 8007c58:	430b      	orrs	r3, r1
 8007c5a:	210f      	movs	r1, #15
 8007c5c:	60ab      	str	r3, [r5, #8]
 8007c5e:	6aeb      	ldr	r3, [r5, #44]	@ 0x2c
 8007c60:	20c0      	movs	r0, #192	@ 0xc0
 8007c62:	438b      	bics	r3, r1
 8007c64:	2180      	movs	r1, #128	@ 0x80
 8007c66:	4313      	orrs	r3, r2
 8007c68:	62eb      	str	r3, [r5, #44]	@ 0x2c
 8007c6a:	4b55      	ldr	r3, [pc, #340]	@ (8007dc0 <HAL_UART_Init+0x2f8>)
 8007c6c:	0100      	lsls	r0, r0, #4
 8007c6e:	6d5b      	ldr	r3, [r3, #84]	@ 0x54
 8007c70:	0109      	lsls	r1, r1, #4
 8007c72:	4003      	ands	r3, r0
 8007c74:	428b      	cmp	r3, r1
 8007c76:	d07a      	beq.n	8007d6e <HAL_UART_Init+0x2a6>
 8007c78:	d873      	bhi.n	8007d62 <HAL_UART_Init+0x29a>
 8007c7a:	2b00      	cmp	r3, #0
 8007c7c:	d062      	beq.n	8007d44 <HAL_UART_Init+0x27c>
 8007c7e:	f7fd fb3d 	bl	80052fc <HAL_RCC_GetSysClockFreq>
 8007c82:	0005      	movs	r5, r0
 8007c84:	2d00      	cmp	r5, #0
 8007c86:	d063      	beq.n	8007d50 <HAL_UART_Init+0x288>
 8007c88:	6a62      	ldr	r2, [r4, #36]	@ 0x24
 8007c8a:	4b4e      	ldr	r3, [pc, #312]	@ (8007dc4 <HAL_UART_Init+0x2fc>)
 8007c8c:	0052      	lsls	r2, r2, #1
 8007c8e:	5ad6      	ldrh	r6, [r2, r3]
 8007c90:	0028      	movs	r0, r5
 8007c92:	0031      	movs	r1, r6
 8007c94:	f7f8 fa36 	bl	8000104 <__udivsi3>
 8007c98:	6867      	ldr	r7, [r4, #4]
 8007c9a:	007b      	lsls	r3, r7, #1
 8007c9c:	19db      	adds	r3, r3, r7
 8007c9e:	4298      	cmp	r0, r3
 8007ca0:	d200      	bcs.n	8007ca4 <HAL_UART_Init+0x1dc>
 8007ca2:	e74f      	b.n	8007b44 <HAL_UART_Init+0x7c>
 8007ca4:	033b      	lsls	r3, r7, #12
 8007ca6:	4298      	cmp	r0, r3
 8007ca8:	d900      	bls.n	8007cac <HAL_UART_Init+0x1e4>
 8007caa:	e74b      	b.n	8007b44 <HAL_UART_Init+0x7c>
 8007cac:	0032      	movs	r2, r6
 8007cae:	2300      	movs	r3, #0
 8007cb0:	0028      	movs	r0, r5
 8007cb2:	2100      	movs	r1, #0
 8007cb4:	f7f8 fab2 	bl	800021c <__aeabi_uldivmod>
 8007cb8:	2600      	movs	r6, #0
 8007cba:	0e05      	lsrs	r5, r0, #24
 8007cbc:	020b      	lsls	r3, r1, #8
 8007cbe:	432b      	orrs	r3, r5
 8007cc0:	0202      	lsls	r2, r0, #8
 8007cc2:	087d      	lsrs	r5, r7, #1
 8007cc4:	1952      	adds	r2, r2, r5
 8007cc6:	4173      	adcs	r3, r6
 8007cc8:	0010      	movs	r0, r2
 8007cca:	0019      	movs	r1, r3
 8007ccc:	003a      	movs	r2, r7
 8007cce:	2300      	movs	r3, #0
 8007cd0:	f7f8 faa4 	bl	800021c <__aeabi_uldivmod>
 8007cd4:	4b40      	ldr	r3, [pc, #256]	@ (8007dd8 <HAL_UART_Init+0x310>)
 8007cd6:	18c2      	adds	r2, r0, r3
 8007cd8:	4b40      	ldr	r3, [pc, #256]	@ (8007ddc <HAL_UART_Init+0x314>)
 8007cda:	429a      	cmp	r2, r3
 8007cdc:	d900      	bls.n	8007ce0 <HAL_UART_Init+0x218>
 8007cde:	e731      	b.n	8007b44 <HAL_UART_Init+0x7c>
 8007ce0:	6823      	ldr	r3, [r4, #0]
 8007ce2:	4a2a      	ldr	r2, [pc, #168]	@ (8007d8c <HAL_UART_Init+0x2c4>)
 8007ce4:	60d8      	str	r0, [r3, #12]
 8007ce6:	66a2      	str	r2, [r4, #104]	@ 0x68
 8007ce8:	6766      	str	r6, [r4, #116]	@ 0x74
 8007cea:	67a6      	str	r6, [r4, #120]	@ 0x78
 8007cec:	e78b      	b.n	8007c06 <HAL_UART_Init+0x13e>
 8007cee:	4b27      	ldr	r3, [pc, #156]	@ (8007d8c <HAL_UART_Init+0x2c4>)
 8007cf0:	6760      	str	r0, [r4, #116]	@ 0x74
 8007cf2:	66a3      	str	r3, [r4, #104]	@ 0x68
 8007cf4:	67a0      	str	r0, [r4, #120]	@ 0x78
 8007cf6:	6823      	ldr	r3, [r4, #0]
 8007cf8:	e785      	b.n	8007c06 <HAL_UART_Init+0x13e>
 8007cfa:	2380      	movs	r3, #128	@ 0x80
 8007cfc:	021b      	lsls	r3, r3, #8
 8007cfe:	4298      	cmp	r0, r3
 8007d00:	d006      	beq.n	8007d10 <HAL_UART_Init+0x248>
 8007d02:	0018      	movs	r0, r3
 8007d04:	e768      	b.n	8007bd8 <HAL_UART_Init+0x110>
 8007d06:	f7fd faf9 	bl	80052fc <HAL_RCC_GetSysClockFreq>
 8007d0a:	2800      	cmp	r0, #0
 8007d0c:	d0ef      	beq.n	8007cee <HAL_UART_Init+0x226>
 8007d0e:	6a62      	ldr	r2, [r4, #36]	@ 0x24
 8007d10:	4b2c      	ldr	r3, [pc, #176]	@ (8007dc4 <HAL_UART_Init+0x2fc>)
 8007d12:	0052      	lsls	r2, r2, #1
 8007d14:	5ad1      	ldrh	r1, [r2, r3]
 8007d16:	f7f8 f9f5 	bl	8000104 <__udivsi3>
 8007d1a:	6865      	ldr	r5, [r4, #4]
 8007d1c:	0040      	lsls	r0, r0, #1
 8007d1e:	086b      	lsrs	r3, r5, #1
 8007d20:	18c0      	adds	r0, r0, r3
 8007d22:	0029      	movs	r1, r5
 8007d24:	f7f8 f9ee 	bl	8000104 <__udivsi3>
 8007d28:	0002      	movs	r2, r0
 8007d2a:	4b27      	ldr	r3, [pc, #156]	@ (8007dc8 <HAL_UART_Init+0x300>)
 8007d2c:	3a10      	subs	r2, #16
 8007d2e:	429a      	cmp	r2, r3
 8007d30:	d900      	bls.n	8007d34 <HAL_UART_Init+0x26c>
 8007d32:	e707      	b.n	8007b44 <HAL_UART_Init+0x7c>
 8007d34:	4a2a      	ldr	r2, [pc, #168]	@ (8007de0 <HAL_UART_Init+0x318>)
 8007d36:	6823      	ldr	r3, [r4, #0]
 8007d38:	4002      	ands	r2, r0
 8007d3a:	0700      	lsls	r0, r0, #28
 8007d3c:	0f40      	lsrs	r0, r0, #29
 8007d3e:	4302      	orrs	r2, r0
 8007d40:	60da      	str	r2, [r3, #12]
 8007d42:	e75b      	b.n	8007bfc <HAL_UART_Init+0x134>
 8007d44:	f7fd fbf0 	bl	8005528 <HAL_RCC_GetPCLK1Freq>
 8007d48:	0005      	movs	r5, r0
 8007d4a:	e79b      	b.n	8007c84 <HAL_UART_Init+0x1bc>
 8007d4c:	4820      	ldr	r0, [pc, #128]	@ (8007dd0 <HAL_UART_Init+0x308>)
 8007d4e:	e7df      	b.n	8007d10 <HAL_UART_Init+0x248>
 8007d50:	4b0e      	ldr	r3, [pc, #56]	@ (8007d8c <HAL_UART_Init+0x2c4>)
 8007d52:	6765      	str	r5, [r4, #116]	@ 0x74
 8007d54:	66a3      	str	r3, [r4, #104]	@ 0x68
 8007d56:	67a5      	str	r5, [r4, #120]	@ 0x78
 8007d58:	6823      	ldr	r3, [r4, #0]
 8007d5a:	e754      	b.n	8007c06 <HAL_UART_Init+0x13e>
 8007d5c:	f7fd fbe4 	bl	8005528 <HAL_RCC_GetPCLK1Freq>
 8007d60:	e7d3      	b.n	8007d0a <HAL_UART_Init+0x242>
 8007d62:	4283      	cmp	r3, r0
 8007d64:	d000      	beq.n	8007d68 <HAL_UART_Init+0x2a0>
 8007d66:	e6ed      	b.n	8007b44 <HAL_UART_Init+0x7c>
 8007d68:	2580      	movs	r5, #128	@ 0x80
 8007d6a:	022d      	lsls	r5, r5, #8
 8007d6c:	e78d      	b.n	8007c8a <HAL_UART_Init+0x1c2>
 8007d6e:	4d18      	ldr	r5, [pc, #96]	@ (8007dd0 <HAL_UART_Init+0x308>)
 8007d70:	e78b      	b.n	8007c8a <HAL_UART_Init+0x1c2>
 8007d72:	46c0      	nop			@ (mov r8, r8)
 8007d74:	cfff69f3 	.word	0xcfff69f3
 8007d78:	ffffcfff 	.word	0xffffcfff
 8007d7c:	40008000 	.word	0x40008000
 8007d80:	11fff4ff 	.word	0x11fff4ff
 8007d84:	40013800 	.word	0x40013800
 8007d88:	40004400 	.word	0x40004400
 8007d8c:	00010001 	.word	0x00010001
 8007d90:	080070d5 	.word	0x080070d5
 8007d94:	080070d1 	.word	0x080070d1
 8007d98:	080070dd 	.word	0x080070dd
 8007d9c:	080070d9 	.word	0x080070d9
 8007da0:	080070e1 	.word	0x080070e1
 8007da4:	080070e5 	.word	0x080070e5
 8007da8:	080070e9 	.word	0x080070e9
 8007dac:	080070cd 	.word	0x080070cd
 8007db0:	08007de5 	.word	0x08007de5
 8007db4:	08007de9 	.word	0x08007de9
 8007db8:	08007ded 	.word	0x08007ded
 8007dbc:	08006fed 	.word	0x08006fed
 8007dc0:	40021000 	.word	0x40021000
 8007dc4:	080089ac 	.word	0x080089ac
 8007dc8:	0000ffef 	.word	0x0000ffef
 8007dcc:	ffffb7ff 	.word	0xffffb7ff
 8007dd0:	00f42400 	.word	0x00f42400
 8007dd4:	08003085 	.word	0x08003085
 8007dd8:	fffffd00 	.word	0xfffffd00
 8007ddc:	000ffcff 	.word	0x000ffcff
 8007de0:	0000fff0 	.word	0x0000fff0

08007de4 <HAL_UARTEx_WakeupCallback>:
 8007de4:	4770      	bx	lr
 8007de6:	46c0      	nop			@ (mov r8, r8)

08007de8 <HAL_UARTEx_RxFifoFullCallback>:
 8007de8:	4770      	bx	lr
 8007dea:	46c0      	nop			@ (mov r8, r8)

08007dec <HAL_UARTEx_TxFifoEmptyCallback>:
 8007dec:	4770      	bx	lr
 8007dee:	46c0      	nop			@ (mov r8, r8)

08007df0 <memset>:
 8007df0:	0003      	movs	r3, r0
 8007df2:	1882      	adds	r2, r0, r2
 8007df4:	4293      	cmp	r3, r2
 8007df6:	d100      	bne.n	8007dfa <memset+0xa>
 8007df8:	4770      	bx	lr
 8007dfa:	7019      	strb	r1, [r3, #0]
 8007dfc:	3301      	adds	r3, #1
 8007dfe:	e7f9      	b.n	8007df4 <memset+0x4>

08007e00 <__libc_init_array>:
 8007e00:	b570      	push	{r4, r5, r6, lr}
 8007e02:	2600      	movs	r6, #0
 8007e04:	4c0c      	ldr	r4, [pc, #48]	@ (8007e38 <__libc_init_array+0x38>)
 8007e06:	4d0d      	ldr	r5, [pc, #52]	@ (8007e3c <__libc_init_array+0x3c>)
 8007e08:	1b64      	subs	r4, r4, r5
 8007e0a:	10a4      	asrs	r4, r4, #2
 8007e0c:	42a6      	cmp	r6, r4
 8007e0e:	d109      	bne.n	8007e24 <__libc_init_array+0x24>
 8007e10:	2600      	movs	r6, #0
 8007e12:	f000 f823 	bl	8007e5c <_init>
 8007e16:	4c0a      	ldr	r4, [pc, #40]	@ (8007e40 <__libc_init_array+0x40>)
 8007e18:	4d0a      	ldr	r5, [pc, #40]	@ (8007e44 <__libc_init_array+0x44>)
 8007e1a:	1b64      	subs	r4, r4, r5
 8007e1c:	10a4      	asrs	r4, r4, #2
 8007e1e:	42a6      	cmp	r6, r4
 8007e20:	d105      	bne.n	8007e2e <__libc_init_array+0x2e>
 8007e22:	bd70      	pop	{r4, r5, r6, pc}
 8007e24:	00b3      	lsls	r3, r6, #2
 8007e26:	58eb      	ldr	r3, [r5, r3]
 8007e28:	4798      	blx	r3
 8007e2a:	3601      	adds	r6, #1
 8007e2c:	e7ee      	b.n	8007e0c <__libc_init_array+0xc>
 8007e2e:	00b3      	lsls	r3, r6, #2
 8007e30:	58eb      	ldr	r3, [r5, r3]
 8007e32:	4798      	blx	r3
 8007e34:	3601      	adds	r6, #1
 8007e36:	e7f2      	b.n	8007e1e <__libc_init_array+0x1e>
 8007e38:	080089cc 	.word	0x080089cc
 8007e3c:	080089cc 	.word	0x080089cc
 8007e40:	080089d0 	.word	0x080089d0
 8007e44:	080089cc 	.word	0x080089cc

08007e48 <memcpy>:
 8007e48:	2300      	movs	r3, #0
 8007e4a:	b510      	push	{r4, lr}
 8007e4c:	429a      	cmp	r2, r3
 8007e4e:	d100      	bne.n	8007e52 <memcpy+0xa>
 8007e50:	bd10      	pop	{r4, pc}
 8007e52:	5ccc      	ldrb	r4, [r1, r3]
 8007e54:	54c4      	strb	r4, [r0, r3]
 8007e56:	3301      	adds	r3, #1
 8007e58:	e7f8      	b.n	8007e4c <memcpy+0x4>
	...

08007e5c <_init>:
 8007e5c:	b5f8      	push	{r3, r4, r5, r6, r7, lr}
 8007e5e:	46c0      	nop			@ (mov r8, r8)
 8007e60:	bcf8      	pop	{r3, r4, r5, r6, r7}
 8007e62:	bc08      	pop	{r3}
 8007e64:	469e      	mov	lr, r3
 8007e66:	4770      	bx	lr

08007e68 <_fini>:
 8007e68:	b5f8      	push	{r3, r4, r5, r6, r7, lr}
 8007e6a:	46c0      	nop			@ (mov r8, r8)
 8007e6c:	bcf8      	pop	{r3, r4, r5, r6, r7}
 8007e6e:	bc08      	pop	{r3}
 8007e70:	469e      	mov	lr, r3
 8007e72:	4770      	bx	lr
